(dp0
S'2013_40'
p1
(lp2
S'eoghan harris my way out of the dark wood via an excellent article on mental health'
p3
aS'graduateamp039s plan to eliminate waste gives un food for thought via'
p4
aS'more than words the surprising benefits of physical affection  therapy blog \xe2\x80\x93 naturaltherapyforall'
p5
asS'2013_41'
p6
(lp7
S'running a marathon can be bad for the heart say experts'
p8
aS'research finds babies learn to anticipate touch in the womb'
p9
aS'multivitamins with minerals may benefit women with invasive breast cancer'
p10
aS'meditate for more profitable decisions via'
p11
aS'india china set to be cancer capitals  the times of india'
p12
asS'2013_46'
p13
(lp14
S'multilingual indian children learn english faster finds study  hindustan times via'
p15
asS'2013_26'
p16
(lp17
S'alternatives in mental health'
p18
asS'2013_27'
p19
(lp20
S'topic wellness is the responsibility of the individual'
p21
aS'drugless alternatives an overview'
p22
aS'you are welcome to the group pradeep'
p23
aS'thank you'
p24
aS'i am currently studying psychotherapy and counselling i have studied diet and nutrition and also anatomy and'
p25
aS'generous group members are punished for being nonconformists study reveals  therapy blog \xe2\x80\x93 naturaltherapyforall'
p26
aS'mhra announces new drug safety update for a popular painkiller due to serious heart risks '
p27
aS'emotionally healthy workplaces need of the hour'
p28
asS'2013_28'
p29
(lp30
S'you are welcome to the site please bring along your followers to share your experiences'
p31
aS'25 content marketing facts that will make you seriously consider mobile via'
p32
aS'worried sick  the scientist magazine\xc2\xae via'
p33
aS'i just bought anatomy of an epidemic magic bullets psychiatric drugs and the astonishing rise of via'
p34
aS'insulin found to play a \xe2\x80\x98crucial\xe2\x80\x99 role in breast milk production  therapy blog \xe2\x80\x93 naturaltherapyforall'
p35
aS'dealing with migraine how magnesium helps  therapy blog \xe2\x80\x93 naturaltherapyforall'
p36
aS'20 photos that will automatically put a smile on your face via'
p37
asS'2013_29'
p38
(lp39
S'in 1995 after a life changing event i was diagnosed as suffering from ptsd and then got lucky finding myself'
p40
aS'go beyond simple networking and organize your own mastermind group  life hacker india'
p41
aS'welcome dinesh to the site you are welcome to share your experiences with drugless alternatives and to bring your'
p42
aS'what makes best therapists best'
p43
aS'geraldine flynn i am a qualified nurse in learning disabilities and paediatricsmy current practice and'
p44
aS'john hall during the 1990s after a lifechanging event i was diagnosed with ptst and then got lucky finding'
p45
aS'during the 1990s after a lifechanging event i was diagnosed with ptst and then got lucky finding myself under'
p46
asS'2014_19'
p47
(lp48
S'humility makes ceos from india stand out  the times of india'
p49
asS'2014_16'
p50
(lp51
S'selfforgiveness linked to longevity'
p52
aS'centipede eats snake from inside out after being swallowed'
p53
aS'see this beggar you\xe2\x80\x99re never going to forget what he does\xe2\x80\xa6 and you shouldn\xe2\x80\x99t'
p54
asS'2014_9'
p55
(lp56
S'think you should do better in life blame your great great great grandfather  the times of india'
p57
asS'2014_10'
p58
(lp59
S'girls facebook post costs her dad 80000  hindustan times'
p60
asS'2014_11'
p61
(lp62
S'zero rupee network 4 bangalore boys offer free phone calls without internet  hindustan times via'
p63
asS'2014_12'
p64
(lp65
S'exercise for 3 mins burn fat  the times of india'
p66
asS'2014_13'
p67
(lp68
S'according to scientists this is the most relaxing tune ever recorded'
p69
aS'welcome to the posts please feel free to contribute'
p70
asS'2013_51'
p71
(lp72
S'each year 14 million girls are married before their 18th birthday via'
p73
asS'2013_52'
p74
(lp75
S'great leaders treat integrity as a habit  business insider india'
p76
aS'the 20 unhappiest jobs in america  business insider india'
p77
asS'2014_6'
p78
(lp79
S'here is what earth looks like from mars  the times of india'
p80
asS'2014_5'
p81
(lp82
S'innovative new heating system may yet save us all millions via'
p83
asS'2014_3'
p84
(lp85
S'put people over big polluters and save europe\xe2\x80\x99s climate legacy with a strong target to cut pollution'
p86
asS'2014_1'
p87
(lp88
S'indians adding to world obesity problem report  the times of india'
p89
aS'the pill can kill aiims study  the times of india'
p90
asS'2013_36'
p91
(lp92
S'even mild stress could undermine emotion control strategies study finds  therapy blog \xe2\x80\x93 naturaltherapyforall'
p93
aS'study exercise intensity more important than duration in fighting obesity  therapy blog \xe2\x80\x93 naturaltherapyforall'
p94
aS'brain imaging study explains why insomnia sufferers lose focus during the day  therapy blog \xe2\x80\x93 naturaltherapyforall'
p95
asS'2013_35'
p96
(lp97
S'pursue your dream with sincerity says sindhuja rajamaran indias youngest ceo  hindustan times via'
p98
asS'2013_34'
p99
(lp100
S'10 awesome beauty benefits of tea  therapy blog \xe2\x80\x93 naturaltherapyforall'
p101
aS'sleep debt can\xe2\x80\x99t be repaid new study reveals  therapy blog \xe2\x80\x93 naturaltherapyforall'
p102
asS'2013_33'
p103
(lp104
S'did you know you can get free bitcoins check it out'
p105
aS'7 indian spices to spice up your life  mensxp'
p106
asS'2013_30'
p107
(lp108
S'you know i am a psychiatrist  a poem'
p109
aS'after doctors said he would never read autistic boy heads for nobel prize  kids'
p110
aS'even mosquitoes like beer'
p111
aS'even mosquitoes like beer'
p112
aS'even mosquitoes like beer'
p113
aS'even mosquitoes like beer'
p114
aS'even mosquitoes like beer'
p115
aS'even mosquitoes like beer'
p116
asS'2014_22'
p117
(lp118
S'hello everyone this is to inform you that i intend to pull out the website druglessalternatives on social go'
p119
as.