(dp0
S'2013_42'
p1
(lp2
S'i just ran 455 mi a 1012mi pace with nike nikeplus'
p3
aS'i just ran 300 mi a 917mi pace with nike nikeplus'
p4
asS'2013_43'
p5
(lp6
S'i just ran 427 mi a 854mi pace with nike nikeplus'
p7
aS'i just ran 106 mi a 416mi pace with nike nikeplus'
p8
aS'i just ran 309 mi a 933mi pace with nike nikeplus'
p9
asS'2013_40'
p10
(lp11
S'i just ran 303 mi a 1004mi pace with nike nikeplus'
p12
asS'2013_41'
p13
(lp14
S'i just ran 503 mi a 953mi pace with nike nikeplus'
p15
aS'i just ran 410 mi a 1000mi pace with nike nikeplus'
p16
aS'i just ran 307 mi a 917mi pace with nike nikeplus'
p17
asS'2013_46'
p18
(lp19
S'i still have to run five more today real humid outside i just ran 500 mi a 952mi pace with nike nikeplus'
p20
aS'i just ran 335 mi a 929mi pace with nike nikeplus'
p21
aS'i just ran 456 mi a 907mi pace with nike nikeplus'
p22
aS'i just ran 315 mi a 840mi pace with nike nikeplus'
p23
asS'2013_44'
p24
(lp25
S'i just ran 253 mi a 833mi pace with nike nikeplus'
p26
aS'i just ran 500 mi a 942mi pace with nike nikeplus'
p27
aS'i just ran 451 mi a 845mi pace with nike nikeplus'
p28
asS'2013_45'
p29
(lp30
S'i just ran 133 mi a 939mi pace with nike nikeplus'
p31
asS'2012_45'
p32
(lp33
S'who follows me'
p34
asS'2013_49'
p35
(lp36
S'its a little cod outside i just ran 505 mi a 903mi pace with nike nikeplus'
p37
aS'i just ran 517 mi a 939mi pace with nike nikeplus'
p38
aS'i just ran 550 mi a 903mi pace with nike nikeplus'
p39
aS'i just ran 415 mi a 903mi pace with nike nikeplus'
p40
asS'2012_41'
p41
(lp42
S'hi'
p43
asS'2014_36'
p44
(lp45
S'i just ran 307 mi a 1001mi pace with nike nikeplus'
p46
aS'nike gps running app'
p47
aS'on the blog today the effect of caffeine on running performance'
p48
aS'very much summer heat is where winter records are broken'
p49
aS'i just ran 605 mi a 940mi pace with nike nikeplus'
p50
aS'georgethomas or wacjude'
p51
aS'except in the friends total miles for the month and week im missing a run'
p52
aS'have been trying for two days its missing a run and just shows synching but never finalizes see'
p53
aS'i just ran 618 mi a 1005mi pace with nike nikeplus'
p54
aS'it wont synch with nike at all'
p55
aS'same problem again why is this happening to my account over and over again'
p56
aS'i just ran 100 mi a 942mi pace with nike nikeplus'
p57
asS'2014_37'
p58
(lp59
S'i just ran 386 mi a 905mi pace with nike nikeplus'
p60
aS'i just ran 639 mi a 847mi pace with nike nikeplus'
p61
aS'today at lake travis'
p62
aS'911 miles in honor of 911 i just ran 912 mi a 949mi pace with nike nikeplus'
p63
aS'i just ran 384 mi a 946mi pace with nike nikeplus'
p64
aS'enjoyed the harvest moon i just ran 107 mi a 1045mi pace with nike nikeplus'
p65
asS'2014_34'
p66
(lp67
S'it is really hot outside i just ran 818 mi a 957mi pace with nike nikeplus'
p68
aS'i just ran 310 mi a 1005mi pace with nike nikeplus'
p69
aS'so humid looks like i peed myself i just ran 824 mi a 941mi pace with nike nikeplus'
p70
aS'i miss flying flew in those for the af just our had guns and stuff lol'
p71
aS'i just ran 500 mi a 917mi pace with nike nikeplus'
p72
asS'2014_35'
p73
(lp74
S'i just ran 712 mi a 940mi pace with nike nikeplus'
p75
aS'i get cheers just will not post been since yesterday today again'
p76
aS'ive been having trouble with my facebook and nike running posting my run it shows on a run but wont finalize'
p77
aS'i just ran 348 mi a 914mi pace with nike nikeplus'
p78
aS'i just ran 775 mi a 923mi pace with nike nikeplus'
p79
aS'i just ran 334 mi a 930mi pace with nike nikeplus'
p80
asS'2014_33'
p81
(lp82
S'becky hammon'
p83
aS'i just ran 328 mi a 911mi pace with nike nikeplus'
p84
aS'i just ran 605 mi a 912mi pace with nike nikeplus'
p85
aS''
p86
aS'i ran today'
p87
aS'i just ran 428 mi a 946mi pace with nike nikeplus'
p88
asS'2014_30'
p89
(lp90
S'i just ran 952 mi a 1113mi pace with nike nikeplus'
p91
aS'i just ran 386 mi a 916mi pace with nike nikeplus'
p92
aS'i just ran 700 mi a 918mi pace with nike nikeplus'
p93
aS'i just ran 251 mi a 848mi pace with nike nikeplus'
p94
ag86
asS'2014_31'
p95
(lp96
S'i just ran 305 mi a 840mi pace with nike nikeplus'
p97
aS'i just ran 286 mi a 928mi pace with nike nikeplus'
p98
aS'i just ran 357 mi a 948mi pace with nike nikeplus'
p99
aS'i won easy peasy challenge a 3000mi challenge using nike nikeplus'
p100
aS'i just ran 333 mi a 836mi pace with nike nikeplus'
p101
aS'i just ran 516 mi a 930mi pace with nike nikeplus'
p102
asS'2012_22'
p103
(lp104
S'warm up run before some lifting i just finished a 176 mi run with a pace of 747mi with nike gps nikeplus makeitcount'
p105
aS'i just finished a 305 mi run with a pace of 914mi with nike gps nikeplus makeitcount'
p106
aS'i just finished a 176 mi run with a pace of 844mi with nike gps nikeplus makeitcount'
p107
asS'2014_38'
p108
(lp109
S'i just ran 954 mi a 951mi pace with nike nikeplus'
p110
aS'i just ran 329 mi a 847mi pace with nike nikeplus'
p111
ag86
aS'i just ran 528 mi a 949mi pace with nike nikeplus'
p112
aS'i just ran 500 mi a 929mi pace with nike nikeplus'
p113
asS'2014_39'
p114
(lp115
g86
aS'i just ran 128 mi a 953mi pace with nike nikeplus'
p116
aS'i just ran 474 mi a 915mi pace with nike nikeplus'
p117
asS'2014_18'
p118
(lp119
S'i just ran 328 mi a 1042mi pace with nike nikeplus'
p120
aS'i just ran 329 mi a 1012mi pace with nike nikeplus'
p121
aS'first day of resuming my training i just ran 307 mi a 956mi pace with nike nikeplus'
p122
asS'2014_19'
p123
(lp124
g86
aS'body found by children in angelina co identified'
p125
aS'went to see why my dogs were barking so much next time ill try to have on more clothes than just boxers and sandals'
p126
aS'i just ran 469 mi a 946mi pace with nike nikeplus'
p127
aS'i just ran 406 mi a 952mi pace with nike nikeplus'
p128
aS'i just ran 625 mi a 1011mi pace with nike nikeplus'
p129
aS'the department of veterans affairs is ordering an audit of all clinics at every va medical center via'
p130
aS'i just ran 347 mi a 1034mi pace with nike nikeplus'
p131
aS'i just ran 332 mi a 1007mi pace with nike nikeplus'
p132
aS'i just ran 311 mi a 950mi pace with nike nikeplus'
p133
asS'2014_14'
p134
(lp135
S'i just ran 251 mi a 942mi pace with nike nikeplus'
p136
aS'i just ran 307 mi a 1004mi pace with nike nikeplus'
p137
asS'2014_16'
p138
(lp139
S'this is tragic'
p140
asS'2012_28'
p141
(lp142
S'i just finished a 244 mi run with a pace of 835mi with nike running nikeplus'
p143
aS'i just finished a 183 mi run with a pace of 903mi with nike running nikeplus'
p144
asS'2014_13'
p145
(lp146
S'i just ran 215 mi a 958mi pace with nike nikeplus'
p147
aS'i just ran 252 mi a 1029mi pace with nike nikeplus'
p148
asS'2012_8'
p149
(lp150
S'i just finished a 316 mi run with a pace of 914mi and a time of 2913 with nike gps nikeplus makeitcount'
p151
asS'2011_27'
p152
(lp153
S'i am currently involved with a lawsuit against lufkin police they have harassed me for the last ten years'
p154
aS'thomas v city of lufkin texas from'
p155
asS'2012_4'
p156
(lp157
S'i am back in lufkin texas'
p158
asS'2012_6'
p159
(lp160
S'i just finished a 357 mi run with a pace of 948mi and a time of 3503 with nike gps nikeplus makeitcount'
p161
aS'i just finished a 356 mi run with a pace of 954mi and a time of 3515 with nike gps nikeplus'
p162
asS'2012_20'
p163
(lp164
S'i just finished a 351 mi run with a pace of 907mi with nike gps nikeplus makeitcount'
p165
asS'2013_51'
p166
(lp167
S'i just ran 131 mi a 859mi pace with nike nikeplus'
p168
aS'just a quickie before saturday half marathon i just ran 155 mi a 830mi pace with nike nikeplus'
p169
asS'2013_50'
p170
(lp171
S'i just ran 131 mi a 947mi pace with nike nikeplus'
p172
aS'its cold outside i just ran 312 mi a 913mi pace with nike nikeplus'
p173
aS'i just ran 515 mi a 922mi pace with nike nikeplus'
p174
asS'2013_23'
p175
(lp176
S'i just ran 521 mi a 900mi pace with nike nikeplus'
p177
asS'2011_29'
p178
(lp179
g86
asS'2012_18'
p180
(lp181
S'feeling better should be up to 5 miles soon i just finished a 258 mi run with a pace of 937mi with nike gps nikeplus makeitcount'
p182
aS'first run in weeks due to my back injury i just finished a 227 mi run with a pace of 917mi with nike gps nikeplus makeitcount'
p183
asS'2014_1'
p184
(lp185
S'my knee still hurts but i snuck a run in i just ran 198 mi with nike nikeplus'
p186
asS'2014_43'
p187
(lp188
S'i just ran 685 mi a 1005mi pace with nike nikeplus'
p189
aS'this gave me chills'
p190
aS'i just ran 432 mi a 918mi pace with nike nikeplus'
p191
ag86
aS'i just ran 115 mi a 927mi pace with nike nikeplus'
p192
asS'2014_42'
p193
(lp194
S'i just ran 602 mi a 922mi pace with nike nikeplus'
p195
aS'i just ran 113 mi a 946mi pace with nike nikeplus'
p196
aS'happy columbus day'
p197
aS'hi laura'
p198
aS'had a blast serving and flying with laura nice to see her after all these years'
p199
aS'i used to fly with laura tethered'
p200
aS'i just ran 467 mi a 856mi pace with nike nikeplus'
p201
asS'2014_41'
p202
(lp203
S'this is the definition of growing up \xf0\x9f\x99\x8c'
p204
aS'i just ran 645 mi a 1003mi pace with nike nikeplus'
p205
aS'our music'
p206
aS'nowplaying sometimes the best conection is no connection at all in praise of folly \xe2\x80\xa2 t\xe2\x80\xa6'
p207
ag86
aS'time heals almost everythingwell lets find out'
p208
aS'pictures of you  the cure'
p209
aS'masks a poem by shel silverstein'
p210
aS'25 minute yoga sequence for runners'
p211
aS'yoga for runners'
p212
aS'you can never just be friends with someone you fell in love with'
p213
aS'this is one of my favorite memories my kids walking down the street with a raccoon'
p214
asS'2014_40'
p215
(lp216
S'i will keep her in my prayers'
p217
aS'i just ran 301 mi a 815mi pace with nike nikeplus'
p218
asS'2014_44'
p219
(lp220
S'had my best half 148 my tights started sagging after mile 3'
p221
aS'i love my camelbak i have the marathoner and use it to store my bulk new iphone'
p222
aS'its forty here for in lufkin texas i have a half im about to race in and just tried on my fourth outfit decisions'
p223
aS'just in marineheldinmexico\xe2\x80\x99s immediate release ordered by mexican judge foxnews'
p224
aS'my halloween pic'
p225
aS'i like my curtains'
p226
ag86
aS'thank you'
p227
aS'i just ran 745 mi a 940mi pace with nike nikeplus'
p228
aS'i just ran 325 mi a 747mi pace with nike nikeplus'
p229
ag86
aS'at least its not 100 degrees here anymore'
p230
asS'2012_35'
p231
(lp232
S'i just finished a 217 mi run with a pace of 944mi with nike running nikeplus'
p233
asS'2012_19'
p234
(lp235
S'im always awake for you'
p236
aS'nice easy run i just finished a 401 mi run with a pace of 1023mi with nike gps nikeplus makeitcount'
p237
aS'goof run almost back to 100 i just finished a 368 mi run with a pace of 938mi with nike gps nikeplus makeitcount'
p238
aS'i just finished a 313 mi run with a pace of 935mi with nike gps nikeplus makeitcount'
p239
asS'2014_29'
p240
(lp241
S'i just ran 511 mi a 841mi pace with nike nikeplus'
p242
aS'thank you for your support'
p243
aS'i just ran 916 mi a 1000mi pace with nike nikeplus'
p244
aS'i just ran 055 mi a 712mi pace with nike nikeplus'
p245
aS'i just ran 105 mi a 959mi pace with nike nikeplus'
p246
asS'2014_28'
p247
(lp248
S'that run was the devil  super hot i just ran 666 mi a 958mi pace with nike nikeplus'
p249
aS'i called nike support and got it repaired'
p250
aS'it still hasnt synched'
p251
aS'george thomas or wacjude'
p252
aS'today i completed and won my first challenge but it wont credit my run and it was a double shot no credit either but i ran \xf0\x9f\x98\x8a'
p253
aS'i am having the same problem and at least you got a response from nike support'
p254
aS'my last run shows on my activity but not for my challenge or leader screen i just won my first challenge but wont credit it'
p255
aS'i just ran 455 mi a 933mi pace with nike nikeplus'
p256
aS'i just ran 235 mi a 815mi pace with nike nikeplus'
p257
aS'too hot i just ran 600 mi a 927mi pace with nike nikeplus'
p258
aS'i just ran 341 mi a 910mi pace with nike nikeplus'
p259
asS'2013_12'
p260
(lp261
S'im in the john'
p262
aS'i took a shower'
p263
aS'eres tu'
p264
aS'i would like to welcome my friend'
p265
asS'2012_7'
p266
(lp267
S'i just finished a 501 mi run with a pace of 930mi and a time of 4735 with nike gps nikeplus makeitcount'
p268
aS'i just finished a 503 mi run with a pace of 934mi and a time of 4808 with nike gps nikeplus makeitcount'
p269
aS'i just finished a 401 mi run with a pace of 939mi and a time of 3843 with nike gps nikeplus makeitcount'
p270
asS'2014_21'
p271
(lp272
S'i just ran 806 mi a 954mi pace with nike nikeplus'
p273
aS'i just ran null mi a 000mi pace with nike nikeplus'
p274
aS'great photo flagsin place flags for for memorialday taps14'
p275
ag86
aS'i had a va apt today they all va employees see ya next time and i replied ill be here but some of you wont'
p276
aS'i just ran 711 mi a 954mi pace with nike nikeplus'
p277
aS'the va secretary has ptsd i can see it he looks shellshocked i recognize it in his eyes i sympathize but he needs to go'
p278
aS'i just ran 160 mi a 854mi pace with nike nikeplus'
p279
aS'i love your show its the best hour of my day'
p280
ag86
aS'vaaccountability'
p281
aS'notjustphoenix i was told to kill myself by my dr wrote my gohmert'
p282
aS'notjustphoenix'
p283
aS'i just ran 335 mi a 857mi pace with nike nikeplus'
p284
aS'for every week of complete inactivity allow 2 to 3 weeks to get back to your previous level of fitness runningtips'
p285
aS'how meditation affects the brain  very interesting gt thanks for posting'
p286
asS'2014_20'
p287
(lp288
S'summer is almost here snag this free training guide thatll tell you how to keep your training on track'
p289
aS'i just ran 315 mi a 852mi pace with nike nikeplus'
p290
aS'question does shaving ones body hair make a difference in competitive performance or just aesthetics'
p291
aS'i just ran 134 mi a 1000mi pace with nike nikeplus'
p292
aS'i just ran 286 mi a 1002mi pace with nike nikeplus'
p293
aS'another day has passed and thankfully central command has confirmed no new casualties please pray for those in'
p294
ag86
aS'study an analysis of the running form of the fabled tarahumara indians'
p295
aS'i just ran 447 mi a 1010mi pace with nike nikeplus'
p296
asS'2014_23'
p297
(lp298
S'my first and hopefully multiple marathons'
p299
aS'help us get to 10k followers retweet this amp well send a copy of 5050 book to one lucky person when we\xe2\x80\xa6'
p300
aS'update fighter jet crashes into homes in california neighborhood'
p301
aS'plain and simple foam roller demonstration video'
p302
aS'very hot i just ran 676 mi a 1028mi pace with nike nikeplus'
p303
ag86
aS'happy runners day'
p304
aS'first time to play in 20 years'
p305
aS'trinity co jp arrested on family violence charge'
p306
aS'anybody use this'
p307
aS'love this pic'
p308
ag86
aS'i just ran 302 mi a 831mi pace with nike nikeplus'
p309
aS'flew with the major in the picture'
p310
aS'i looked annoyed and those bikes in the trails get the same look'
p311
aS'i dont get road rage i get runner rage'
p312
aS'is this what we do at a stoplight gt running runchat'
p313
asS'2014_22'
p314
(lp315
S'went schlittebahn galveston for my little girls bday'
p316
aS'i just ran 620 mi a 957mi pace with nike nikeplus'
p317
ag86
aS'i just ran 556 mi a 948mi pace with nike nikeplus'
p318
aS'raining tried out my rainwear i just ran 525 mi a 853mi pace with nike nikeplus'
p319
aS'257 airmen have graduated ranger school as of february'
p320
aS'l'
p321
aS'221 airmen have been tabbed into rangers'
p322
aS'some of us ride in them ar work former enlisted flyer'
p323
asS'2014_25'
p324
(lp325
g86
aS'ran into one oft spec ops buddies jtac'
p326
aS'very hot i just ran 406 mi a 928mi pace with nike nikeplus'
p327
aS'other athletes are role models and then we feel let down not with runners'
p328
ag86
aS'great job i began this week too mine is oct 5th in tyler texas'
p329
aS'before i finished my first half marathon last summer since med free and getting better everyday'
p330
aS'thank you i have a ptsd diagnosis running has saved my life'
p331
aS'another day of training completed'
p332
aS'i just ran 514 mi a 1006mi pace with nike nikeplus'
p333
aS'found a lady bug on my plant in my bedroom going to be a great day'
p334
aS'i was born on 1122 at 1111 am'
p335
aS'makes running in the fall easier'
p336
aS'inside us soccers march to brazil  dog tags'
p337
aS'thank you'
p338
aS'thank you for your support'
p339
aS'im fine actually i was in arkansas and cbs filmed our class this treatment works started running too'
p340
aS'yes and getting better everyday its my therapy i was diagnosed wptsd ran a half while in therapy last year med free since'
p341
aS'to finish but id like to run a sub 4 hour'
p342
aS'day two of week 1 of training done ran in the hottest part of the day they say fall pr are set in the summer heat'
p343
aS'i just ran 622 mi a 948mi pace with nike nikeplus'
p344
aS'yes i ram two halfs last year so this is my first marathon attempt'
p345
aS'the tyler rose marathon'
p346
aS'i am really enjoying it played soccer and grew up with clint dempsey'
p347
aS'thank you so much \xf0\x9f\x98\x8a'
p348
aS'56 veterans die every day waiting on va benefits follow me amp help honor our promise to care for our warriors sot htt\xe2\x80\xa6'
p349
aS'thank you too'
p350
aS'day one of my sixteen week marathon training done'
p351
aS'i just ran 435 mi a 924mi pace with nike nikeplus'
p352
aS'thank you for your support'
p353
aS'thank you'
p354
aS'was in the army as well i started running last year at the ptsd lab in n little rock ran two halfs marathon starts today'
p355
aS'usa with the victory you ghana learn about east texas son clint dempsey'
p356
aS'thank you i appreciate any support and tips'
p357
aS'usa soccer clintdempsey usavsghana'
p358
aS'thank you'
p359
aS'tomorrow i start day one of marathon training using your nikerunning app with the coach feature my first marathon attempt'
p360
asS'2014_24'
p361
(lp362
g86
aS'wave of executions feared as islamic militants take over cities in iraq '
p363
aS'president obama speaks live and is broadcasted on most stations except the spanish networks mexico is playing worldcup2014 mexico'
p364
aS'i just ran 765 mi a 957mi pace with nike nikeplus'
p365
aS'i just ran 615 mi a 1020mi pace with nike nikeplus'
p366
aS'i just ran 687 mi a 913mi pace with nike nikeplus'
p367
aS'i just ran 530 mi a 915mi pace with nike nikeplus'
p368
aS'its been two years ago today that we found rascal and became best friends instantly with our dog'
p369
asS'2014_27'
p370
(lp371
S'i just ran 357 mi a 937mi pace with nike nikeplus'
p372
aS'i just ran 455 mi a 920mi pace with nike nikeplus'
p373
aS'not rubbing running if im rubbing that much i got issues'
p374
aS'i just ran 800 mi a 931mi pace with nike nikeplus'
p375
aS'my dream is to move over there and live on the beach i was just awarded full pension from the military im set and ready'
p376
aS'another day of rubbing'
p377
aS'i just ran 601 mi a 1002mi pace with nike nikeplus'
p378
aS'i just ran 629 mi a 1006mi pace with nike nikeplus'
p379
aS'a passport too thats a lot miles'
p380
aS'i sure will starting week three of 16 week marathon training this will be my first one tyler rose marathon'
p381
aS'ill run one mile for every retweet i get on this post dont worry i have headlamps \xf0\x9f\x8f\x83\xf0\x9f\x8f\x83\xf0\x9f\x8f\x83 runchat ultrachat'
p382
aS'i just ran 400 mi a 824mi pace with nike nikeplus'
p383
asS'2014_26'
p384
(lp385
S'i just ran 807 mi a 929mi pace with nike nikeplus'
p386
ag86
aS'i just ran 409 mi a 936mi pace with nike nikeplus'
p387
aS'my neighbor drums for a successful heavy metal band stopped by and had too much to drink im still paying for it how do those kids do it'
p388
aS'i just ran 375 mi a 901mi pace with nike nikeplus'
p389
aS'sporting the richard simmons look i just ran 108 mi a 1010mi pace with nike nikeplus'
p390
aS'a10 yesand here it is wsglobaldef'
p391
asS'2013_34'
p392
(lp393
S'my mematic meme'
p394
as.