(dp0
S'2013_40'
p1
(lp2
S'i dont miss you i dont miss you i dont miss you i dont miss you i dont miss you who am i kidding i miss you like craz\xe2\x80\xa6'
p3
aS'sometimes you just cant tell someone how you feel you can never really find the right words to make them understand'
p4
aS''
p5
aS'one of the best feelings is when someone understands you without you having to say'
p6
asS'2013_41'
p7
(lp8
S'when i first met you i had no idea youd become so important to me'
p9
aS'please don\xe2\x80\x99t flirt with people i secretly like it\xe2\x80\x99s rude and disrespectful'
p10
asS'2013_46'
p11
(lp12
S'love you smelly'
p13
aS'ill talk to you tomorrow or something smelly its hard to explainn'
p14
aS'this is one of the hardest decisions everi dont know what to do'
p15
aS'reading old messages and realizing how much you miss that person'
p16
aS'pleasee follow me x 110'
p17
aS'pleasee follow me x 109'
p18
aS'pleasee follow me x 108'
p19
aS'pleasee follow me x 107'
p20
aS'pleasee follow me x 106'
p21
aS'pleasee follow me x 105'
p22
aS'pleasee follow me x 104'
p23
aS'pleasee follow me x 103'
p24
aS'pleasee follow me x 102'
p25
aS'pleasee follow me x 101'
p26
aS'pleasee follow me x 100'
p27
aS'pleasee follow me x 99'
p28
aS'pleasee follow me x 98'
p29
aS'pleasee follow me x 97'
p30
aS'pleasee follow me x 96'
p31
aS'pleasee follow me x 95'
p32
aS'pleasee follow me x 94'
p33
aS'pleasee follow me x 93'
p34
aS'pleasee follow me x 92'
p35
aS'pleasee follow me x 91'
p36
aS'pleasee follow me x 90'
p37
aS'pleasee follow me x 89'
p38
aS'pleasee follow me x 88'
p39
aS'pleasee follow me x 87'
p40
aS'pleasee follow me x 86'
p41
aS'pleasee follow me x 85'
p42
aS'pleasee follow me x 84'
p43
aS'pleasee follow me x 83'
p44
aS'pleasee follow me x 82'
p45
aS'pleasee follow me x 81'
p46
aS'pleasee follow me x 80'
p47
aS'pleasee follow me x 79'
p48
aS'pleasee follow me x 78'
p49
aS'pleasee follow me x 77'
p50
aS'pleasee follow me x 76'
p51
aS'pleasee follow me x 75'
p52
aS'pleasee follow me x 74'
p53
aS'pleasee follow me x 73'
p54
aS'pleasee follow me x 72'
p55
aS'pleasee follow me x 71'
p56
aS'pleasee follow me x 70'
p57
aS'pleasee follow me x 69'
p58
aS'pleasee follow me x 68'
p59
aS'pleasee follow me x 67'
p60
aS'pleasee follow me x 66'
p61
aS'pleasee follow me x 65'
p62
aS'pleasee follow me x 64'
p63
aS'pleasee follow me x 63'
p64
aS'pleasee follow me x 62'
p65
aS'pleasee follow me x 61'
p66
aS'pleasee follow me x 60'
p67
aS'pleasee follow me x 59'
p68
aS'pleasee follow me x 58'
p69
aS'pleasee follow me x 57'
p70
aS'pleasee follow me x 56'
p71
aS'pleasee follow me  x 55'
p72
aS'pleasee follow me x 54'
p73
aS'pleasee follow me x 53'
p74
aS'pleasee follow me x 52'
p75
aS'pleasee follow me x 51'
p76
aS'pleasee follow me x 50'
p77
aS'pleasee follow me x 49'
p78
aS'pleasee follow me x 48'
p79
aS'pleasee follow me x 47'
p80
aS'pleasee follow me x 46'
p81
aS'pleasee follow me x 45'
p82
aS'pleasee follow me x 44'
p83
aS'pleasee follow me x 43'
p84
aS'pleasee follow me x 42'
p85
aS'pleasee follow me x 41'
p86
aS'pleasee follow me x 40'
p87
aS'pleasee follow me x 39'
p88
aS'pleasee follow me x 38'
p89
aS'pleasee follow me x 37'
p90
aS'pleasee follow me x 36'
p91
aS'pleasee follow me x 35'
p92
aS'pleasee follow me x 34'
p93
aS'pleasee follow me x 33'
p94
aS'pleasee follow me x 32'
p95
aS'pleasee follow me x 31'
p96
aS'pleasee follow me x 30'
p97
aS'pleasee follow me x 29'
p98
aS'pleasee follow me x 28'
p99
aS'pleasee follow me x 27'
p100
aS'pleasee follow me x 26'
p101
aS'pleasee follow me x 25'
p102
aS'pleasee follow me x 24'
p103
aS'pleasee follow me x 23'
p104
aS'pleasee follow me x 22'
p105
aS'pleasee follow me x 21'
p106
aS'pleasee follow me x 20'
p107
aS'pleasee follow me x 19'
p108
aS'pleasee follow me x 18'
p109
aS'pleasee follow me x 17'
p110
aS'pleasee follow me x 16'
p111
aS'pleasee follow me x 15'
p112
aS'pleasee follow me x 14'
p113
aS'pleasee follow me x 13'
p114
aS'pleasee follow me x 12'
p115
aS'pleasee follow me x 11'
p116
aS'pleasee follow me x 10'
p117
aS'pleasee follow me x 9'
p118
aS'pleasee follow me x 8'
p119
aS'pleasee follow me x 7'
p120
aS'pleasee follow me x 6'
p121
aS'pleasee follow me x 5'
p122
aS'pleasee follow me x 4'
p123
aS'pleasee follow me x 3'
p124
aS'pleasee follow me x 2'
p125
aS'pleasee follow me x 1'
p126
aS'please follow me x 100'
p127
aS'please follow me x 99'
p128
aS'please follow me x 98'
p129
aS'please follow me x 97'
p130
aS'please follow me x 96'
p131
aS'please follow me x 95'
p132
aS'please follow me x 94'
p133
aS'please follow me x 93'
p134
aS'please follow me x 92'
p135
aS'please follow me x 91'
p136
aS'please follow me x 90'
p137
aS'please follow me x 89'
p138
aS'please follow me x 88'
p139
aS'please follow me x 87'
p140
aS'please follow me x 86'
p141
aS'please follow me x 85'
p142
aS'please follow me x 84'
p143
aS'please follow me x 83'
p144
aS'please follow me x 82'
p145
aS'please follow me x 81'
p146
aS'please follow me x 80'
p147
aS'please follow me x 79'
p148
aS'please follow me x 78'
p149
aS'please follow me x 77'
p150
aS'please follow me x 76'
p151
aS'please follow me x 75'
p152
aS'please follow me x 74'
p153
aS'please follow me x 73'
p154
aS'please follow me x 72'
p155
aS'please follow me x 71'
p156
aS'please follow me x 70'
p157
aS'please follow me x 69'
p158
aS'please follow me x 68'
p159
aS'please follow me x 67'
p160
aS'please follow me x 66'
p161
aS'please follow me x 65'
p162
aS'please follow me x 64'
p163
aS'please follow me x 63'
p164
aS'please follow me x 62'
p165
aS'please follow me x 61'
p166
aS'please follow me x 60'
p167
aS'please follow me x 59'
p168
aS'please follow me x 58'
p169
aS'please follow me x 57'
p170
aS'please follow me x 56'
p171
aS'please follow me x 55'
p172
aS'please follow me x 54'
p173
aS'please follow me x 53'
p174
aS'please follow me x 52'
p175
aS'please follow me x 51'
p176
aS'please follow me x 50'
p177
aS'please follow me x 49'
p178
aS'please follow me x 48'
p179
aS'please follow me x 47'
p180
aS'please follow me x 46'
p181
aS'please follow me x 45'
p182
aS'please follow me x 44'
p183
aS'please follow me x 43'
p184
aS'please follow me x 42'
p185
aS'please follow me x 41'
p186
aS'please follow me x 40'
p187
aS'please follow me x 39'
p188
aS'please follow me x 38'
p189
aS'please follow me x 37'
p190
aS'please follow me x 36'
p191
aS'please follow me x 35'
p192
aS'please follow me x 34'
p193
aS'please follow me  x33'
p194
aS'please follow me  x32'
p195
aS'please follow me  x31'
p196
aS'please follow me  x30'
p197
aS'please follow me  x29'
p198
aS'please follow me  x28'
p199
aS'please follow me  x27'
p200
aS'please follow me  x26'
p201
aS'please follow me  x25'
p202
aS'please follow me  x24'
p203
aS'please follow me  x23'
p204
aS'please follow me  x22'
p205
aS'please follow me  x17'
p206
aS'please follow me  x21'
p207
aS'please follow me  x20'
p208
aS'please follow me  x19'
p209
aS'please follow me  x18'
p210
aS'please follow me  x16'
p211
aS'please follow me  x15'
p212
aS'please follow me  x14'
p213
aS'please follow me  x13'
p214
aS'please follow me  x12'
p215
aS'please follow me  x11'
p216
aS'please follow me  x10'
p217
aS'please follow me  x9'
p218
aS'please follow me  x8'
p219
aS'please follow me  x7'
p220
aS'please follow me  x6'
p221
aS'please follow me  x4'
p222
aS'please follow me  x5'
p223
aS'please follow me  x3'
p224
aS'please follow me  x2'
p225
aS'please follow me  x1'
p226
aS'please follow me x4'
p227
aS'please follow me'
p228
aS'please follow me x1'
p229
aS'finally excited to show you we have released merch '
p230
aS'on our way'
p231
aS'hows everyone doing today we are well'
p232
aS'love the new tune boys'
p233
aS'please vote wooooooo best song  best group best live act best i beg of you'
p234
aS'we are nominated for best live act best group and best song in the  please vote here'
p235
aS'\xc4\x99'
p236
ag5
ag5
aS'lt3'
p237
asS'2013_47'
p238
(lp239
S'if you smoke cool if you drink have at it if youre not a virgin its not my business that doesnt make you any less of \xe2\x80\xa6'
p240
aS'not knowing how to tell someone something thats going to ruin them'
p241
aS'been up all night with my sister an dad expects me to get up at half six for school ffs'
p242
aS'eughh i physically feel sick'
p243
asS'2013_44'
p244
(lp245
S'chanel everydayisafashionshow'
p246
aS'miley at the fginightofstars2013 4'
p247
aS'i \xe2\x9d\xa4\xef\xb8\x8f new makkke upppp \xf0\x9f\x92\x84\xf0\x9f\x92\x8b'
p248
aS'i love tamera'
p249
aS'this makes me toooooo happy'
p250
aS'what a cocktail \xf0\x9f\x92\x8b'
p251
aS'ampampamp thanks for da pressies adultssuckthenyouareone'
p252
aS'who told you it was ok to go out of the house like that \xf0\x9f\x92\x8b i lurvvvvvv this \xf0\x9f\x92\x8b\xf0\x9f\x92\x8b\xf0\x9f\x92\x8b'
p253
aS'ifwedate'
p254
aS'99 sure my neighbors have seen me naked through my window at least 20 times'
p255
aS'i love waking up to this \xf0\x9f\x90\xbe\xf0\x9f\x90\xbe\xf0\x9f\x90\xbe aww miley '
p256
aS'mint night love halloween '
p257
aS'wigzzzzzz i love it '
p258
aS'love it rt happy halloween \xf0\x9f\x92\x9c\xf0\x9f\x92\x9c\xf0\x9f\x92\x9c'
p259
asS'2013_45'
p260
(lp261
S'but you may want to be \xf0\x9f\x92\x9a\xf0\x9f\x92\x9a\xf0\x9f\x92\x9a\xf0\x9f\x92\x9a'
p262
aS'emazzzzzzz'
p263
aS'no fuckin around on game day'
p264
aS'i got that shower time showerrrrrr time selfiiiie a la lana del ray happyemas \xf0\x9f\x91\xbd\xf0\x9f\x91\xbd\xf0\x9f\x91\xbd'
p265
aS'im naked'
p266
aS'wetten das \xf0\x9f\x8d\x93\xf0\x9f\x8d\x93\xf0\x9f\x8d\x93\xf0\x9f\x8d\x93'
p267
aS'happy bday to my besttttie \xe2\x9d\xa4\xef\xb8\x8f\xe2\x9d\xa4\xef\xb8\x8f\xe2\x9d\xa4\xef\xb8\x8f\xe2\x9d\xa4\xef\xb8\x8f\xe2\x9d\xa4\xef\xb8\x8f\xe2\x9d\xa4\xef\xb8\x8f'
p268
aS'x'
p269
aS'imhome get fuckin ready \xf0\x9f\x91\xbd'
p270
aS'its always when you least expect it'
p271
aS'\xf0\x9f\x91\xb8\xf0\x9f\x91\xb8\xf0\x9f\x91\xb8\xf0\x9f\x91\xb8'
p272
aS'i hope the way i feel when i listen to bobby vinton is the way you feel when you listen to bangerz his music makes me f\xe2\x80\xa6'
p273
aS'these blllllllluuuuueeeee lightzzzz daaaaa shittttttttttt \xf0\x9f\x92\x99'
p274
aS'2 in the afternoon laying in bed listening to reggae by my lonesome \xf0\x9f\x92\xa8\xf0\x9f\x92\xa8\xf0\x9f\x92\xa8 happiest place on earth \xe2\x9d\xa4\xef\xb8\x8f\xe2\x9d\xa4\xef\xb8\x8f\xe2\x9d\xa4\xef\xb8\x8f\xe2\x9d\xa4\xef\xb8\x8f nofilter \xf0\x9f\x91\xbd'
p275
aS'bangerztour'
p276
aS'bangerztour rsvp'
p277
aS'beaaaaan \xf0\x9f\x91\xbd\xf0\x9f\x91\xbd\xf0\x9f\x91\xbd'
p278
aS'floydyyyyy '
p279
aS'still just as beautiful look who left the house today  happy birthday mammie \xf0\x9f\x92\x8b'
p280
aS'i need you so that i could die i love you so and that is why whenever i want you all i have to do is dream'
p281
aS'a world so hateful some would rather die than be who they are macklemore'
p282
aS'suicide isnt cowardly you wanna know whats cowardly treating someone so bad that they want to end their life'
p283
aS'if i told you my secrets youd never look at me the same again'
p284
aS'were wondering what your favourite cover that we have done is please tweet us the link to the video'
p285
ag5
aS'what about love \xe2\x99\xa5\xe2\x99\xa5\xe2\x99\xa5'
p286
aS'im in love with we cant stop  \xe2\x9d\xa4\xef\xb8\x8f\xf0\x9f\x91\x8d'
p287
aS'dont worry our merch will be available very shortly '
p288
aS'whos checked out our friend pixie lotts cover of avicii wow awesome to catch up yesterday as\xe2\x80\xa6'
p289
aS'omg so close to 400k thats crazy'
p290
aS'bearded dragon'
p291
aS'ahh nothing can beat your own bed'
p292
aS'ohhhh you in my bed beats that '
p293
aS'need food guess who'
p294
aS'recording'
p295
aS'because i am her favorite amp she is mine \xf0\x9f\x92\x8b'
p296
aS'and this is why girls wear makeup guys'
p297
aS'londoooooon im gonna be in the radio 1 live lounge on nov 12th r1livelounge'
p298
aS'which is a balance between the forces of destruction and the magical forces of creation \xe2\x98\x94\xef\xb8\x8f\xe2\x9b\x85\xef\xb8\x8f\xe2\x98\x80\xef\xb8\x8f\xf0\x9f\x8c\x88\xe2\x9d\xa4\xef\xb8\x8f'
p299
aS'game night'
p300
aS'everything in our world is connected by the delicate strands of the web of life'
p301
aS'made it ma fuckkka \xf0\x9f\x91\xbd\xf0\x9f\x91\xbd\xf0\x9f\x91\xbd'
p302
aS'my single realandtrue will be on itunes tomorrow ft prod by'
p303
aS'vote for miley at the emas'
p304
aS'bangerz'
p305
ag5
aS'its sad when you realize you arent as important to someone as you thought you were'
p306
aS'picoftheday'
p307
aS'gorgeous'
p308
aS'they say it always gets better in the end but we all know the end is when your dead'
p309
aS'miley reigns on global social media chart for the second week in a row'
p310
aS'jeeperz creeperz'
p311
aS'\xf0\x9f\x91\x85\xf0\x9f\x91\x85\xf0\x9f\x91\x85\xf0\x9f\x91\x85'
p312
aS'sundays consists of sitting by the fire by myself bored af'
p313
asS'2013_37'
p314
(lp315
S'i hate that not good enough feeling'
p316
aS'don\xe2\x80\x99t rush anything when the time is right it\xe2\x80\x99ll happen'
p317
aS'd'
p318
aS'ilyt'
p319
aS'nicoleeeeee'
p320
asS'2013_39'
p321
(lp322
S'who needs a boyfriend when you have food'
p323
aS'its done noww not really ahah'
p324
aS'its acc alrighttd'
p325
aS'babe you love it'
p326
aS'when youve got nothing youve got nothing to lose'
p327
aS'all i seem to is sleep'
p328
aS'you can replace me but you cant replace the memories you had with me'
p329
asS'2013_38'
p330
(lp331
S'text me first at least for once'
p332
aS'unlimited texts with no one to text'
p333
aS'when two people are meant for each other  no time is too long  no distance is too far  no one can ever tear them ap\xe2\x80\xa6'
p334
aS'everything happens for a reason the hard part is finding out what that reason is'
p335
as.