(dp0
S'2012_49'
p1
(lp2
S'\xe2\x80\x9clife isn\xe2\x80\x99t about finding yourself life is about creating yourself\xe2\x80\x9d george bernard shaw'
p3
aS'when you grow up mentally everything starts making sense'
p4
aS'i miss kamal soo badly i wish he would be in dubai  and my baby girl i wish she would be here to  '
p5
aS'bored'
p6
aS'messi on the bench hahaha fuck off barcelona'
p7
aS'the invention of autotune has ruined the world'
p8
aS'some guy from work just came and gave me a rose socute'
p9
asS'2012_48'
p10
(lp11
S'my son eyes always get red when he goes out with his friends we really need to do something about all this air poll '
p12
aS'now im just high listenin to '
p13
asS'2012_45'
p14
(lp15
S'when your sarcasm is so advanced people think your really stupid awkward'
p16
aS'swimming with the dragon flies thegoodlife'
p17
aS'smiling at old people so they dont think your a teenage thug'
p18
asS'2012_44'
p19
(lp20
S'sleeping  a cure to forget about pain problems stress amp everything for a while'
p21
asS'2012_47'
p22
(lp23
S'no wayy lol i was looking all over the middle east for this cereal imissyou imisshome'
p24
aS'omg took me like 3 years to find this cereal'
p25
aS'my mums new louboutins gorgeous'
p26
aS'my mums new louboutins gorgeous'
p27
aS'doha qatar beautifulplace'
p28
aS'love the weeknd amazing \xe2\x99\xa5'
p29
aS'babe i miss you so much aswell i hate that ive not seen you in so long  lt3'
p30
aS'i miss my best friend so much '
p31
aS'must be freezin over there'
p32
aS'studying by the pool lovelife'
p33
asS'2012_40'
p34
(lp35
S'its sad how some people are so jealous of you that they only have negative things to say when they know absolutely nothing about you'
p36
aS'dont do things you wouldnt want everyone to find out about they usually do'
p37
asS'2012_43'
p38
(lp39
S'dont treat someone like an iphone if they treat you like a blackberry'
p40
aS'eid mubarak to my friends across the world cant wait to see you at millions of milkshakes in kuwait next month '
p41
aS'eid mubarak \xe2\x99\xa5'
p42
aS'interesting japanese dance show japanqatar2012'
p43
aS'too many girls want attention and not enough want respect'
p44
aS'nothing i hate more than when girls act ridiculously stupid on purpose cos they think its nicecute\xf0\x9f\x91\x8a'
p45
asS'2013_24'
p46
(lp47
S'i miss you more when are you coming to dubai'
p48
aS'i miss you '
p49
asS'2013_25'
p50
(lp51
S'bob marleys last words were money cant buy life'
p52
asS'2013_26'
p53
(lp54
S'when pisces do it they do it big big shot glasses big blunts'
p55
asS'2013_27'
p56
(lp57
S'awesome day at sealine resort beach sun sea pool qatar goodlife'
p58
asS'2013_21'
p59
(lp60
S'god is epic'
p61
asS'2013_29'
p62
(lp63
S'no waaaay im finally seeing you after like 2 years i miss you im gone to paris for a few days but im deff\xe2\x80\xa6'
p64
aS'im coming to dubai in a few hours i miss my piiglet \xe2\x99\xa1'
p65
aS'im all good and how are you doin'
p66
aS'and how on earth are u doing'
p67
aS'when the world ends well realise how useless we all were in life'
p68
asS'2013_7'
p69
(lp70
S'stuck in a generation where loyalty is just a tattoo love is just a quote and lying is the new truth'
p71
aS'rastamcdonald swerve'
p72
aS'chilln likeaboss'
p73
asS'2013_6'
p74
(lp75
S'me and mary jane have a really great relationship'
p76
aS'haha loser'
p77
aS'ya sure  i will send u my number'
p78
aS'babe i got a samsung mini 3 instead do you have whatsapp \xe2\x99\xa5'
p79
aS'babyy your bb is still not working '
p80
aS'my new beautiful bag purple sequin clutch kardashian love'
p81
aS'new boss ford mustang 2013 motorshow'
p82
aS'motor show 2013 awesome'
p83
asS'2013_3'
p84
(lp85
S'supp loser'
p86
aS'loser p'
p87
aS'wiz got amber pregnant tyga got blac chyna preg chad tatted evelyn kanye loves kim wtf happened to we dont lo '
p88
asS'2013_2'
p89
(lp90
S'i miss you way more '
p91
aS'dont get jealous over the pisces great number of friends'
p92
aS'throwing ice cubes at people cause they need to chill the fuq out'
p93
aS'when you dont sleep and you feel soo high pffftt whoneedsdrugdealers'
p94
aS'i miss you like crazy \xe2\x99\xa5'
p95
aS'where are you '
p96
asS'2013_9'
p97
(lp98
S'heyy x'
p99
aS'pisces often look younger than their years due to a jovial and optimistic attitude about life'
p100
aS'at the my dad is not okay at all so i need everyone to pray for him to get well soon please '
p101
aS'ready for the jewellery show rolex 51east pasqualebruni'
p102
asS'2012_52'
p103
(lp104
S'i wish i was there with you babe miss you \xe2\x99\xa5'
p105
aS'i wish this person always lived in dubai \xe2\x99\xa5'
p106
asS'2012_50'
p107
(lp108
S'putting a midget in the oven hahaha nah thats amazing'
p109
asS'2013_10'
p110
(lp111
S'im not cockyim confident im not selfishim selflessim not rudeim blunt im not stupid i make mistakesim not you '
p112
aS'haha thanks google \xe2\x99\xa5 birthday love'
p113
aS'please check out and share my group needmorelikers love'
p114
aS'swaggie geek rayban'
p115
aS'thanks mum \xe2\x99\xa5 rayban geeky glasses pink chanel'
p116
aS'leopard print leggings \xe2\x99\xa5'
p117
asS'2013_15'
p118
(lp119
S'i need someone who won\xe2\x80\x99t give up on me no matter how many times i mess up'
p120
aS'only in dubai lamborghini dubaipolice pimpin'
p121
aS'just finished the traditional fashion show runway sickshow swaggie'
p122
aS'i was born to make mistakes not to fake perfection'
p123
aS'and all these bad bitches man they want the they want the lol'
p124
asS'2012_39'
p125
(lp126
S'beautiful little models at the african party awesome'
p127
asS'2013_31'
p128
(lp129
S'todays fashions eid bazaar is postponed until further notice no replies qatar'
p130
aS'tickets for dralion are now available at city center doha and at souq waqif from 8pm to 12am everyday'
p131
aS'dont let someone else show you how to treat her'
p132
asS'2013_16'
p133
(lp134
S'god is perfect man is not man made liquor god made pot'
p135
aS'people get fake when shit gets real'
p136
asS'2013_19'
p137
(lp138
S'just chillin with the fellas in dubai no big deal haha'
p139
asS'2012_35'
p140
(lp141
S'great girls night in with yasmine \xe2\x99\xa5'
p142
asS'2012_37'
p143
(lp144
S'i got a pool full of liqour ima dive in \xe2\x99\xa5 awesome'
p145
asS'2012_31'
p146
(lp147
S'we cannot believe we have been nominated at the mtv vmas for best new artist and best new videoall us fans please '
p148
aS'happy birthday to my little cousin shawn i love yaa \xe2\x9d\xa4\xe2\x9d\xa4'
p149
aS'i want these choos \xe2\x9d\xa4 \xe2\x9d\xa4 \xe2\x9d\xa4'
p150
asS'2012_32'
p151
(lp152
S'last day in holland im happy to see my beautiful mum but i will miss it here oosterhout amsterdam rotterdam \xe2\x99\xa5'
p153
aS'being single doesnt mean that youre weak it means that you are strong enough to wait for what you deserve\xe2\x99\xa5 loveit'
p154
aS'olympics addicting'
p155
aS'dolls watching the olympics no need to oversell these female athletes wover the top ads these ladies are amazing a '
p156
aS'new facebook page likes \xe2\x99\xa5'
p157
asS'2012_33'
p158
(lp159
S'awesome dinner with ramzi lovethaifood'
p160
aS'i miss holland already now in qatar dont get me wrong it is good to be back great night with yasmine amp jj swag'
p161
as.