(dp0
S'2013_48'
p1
(lp2
S'i have josh hutchersons nudes lolz txt it\xe2\x80\x9d youre welcome for them'
p3
aS'goodnight  '
p4
aS'if i want to watch austin on the parade tomorrow i have to go to bed or ill never wake up loll'
p5
aS'u should rt too pls bc more points '
p6
aS'i have josh hutchersons nudes lolz txt it'
p7
aS'watch austin come on just bc im getting off'
p8
aS'goodnighttttttttttttt'
p9
aS'i love you'
p10
aS'thank you for making us laugh and smile no matter what situation were in you were the ones to get us through janoski\xe2\x80\xa6'
p11
aS'one direction gtgtgtgtgtgtgtgtgtgtgtgtgtgtgtgtgtgtgtgtgtgtgtgtgtgtgtgtgtgtgtgtgtgtgtgtgtgtgtgtgtgtgtgtgtgtgtgtgtgtgtgtgtgtgtgtgtgtgtgtgtgtgtgtgtgtgtgtgtgtgtgtgtgtgtgtgtgtgtgtgtgtgtgtgtgtgtgtgtltgtgtgtgtgtgtgtgtgtgtgtgtgtgtgtgt\xe2\x80\xa6'
p12
aS'too bad i dont live in la'
p13
aS'im excited to perform at the free \xef\xbf\xbcrocktheredkettle concert on dec 7'
p14
aS'rt if u hate school mtvstars one direction'
p15
aS'janoskianswearethankfulforyou '
p16
aS'janoskianswearethankfulforyou bc without you i wouldnt have confidence'
p17
aS'i love one direction but directioners are so intimidating omf bye'
p18
aS'why am i always the ugly friend'
p19
aS'happy birthday '
p20
aS'austin is such a dork and i wanna punch him for being adorable my life'
p21
aS'austin is such a dork and i wanna punch him for being adorable'
p22
aS'quote this tweet with the name of your favorite boy in foolish four and ill rt it \xf0\x9f\x98\x9c other then austin ma boy robbb'
p23
aS'there is like literally 0 similarities wtf'
p24
aS'locks louis in forever 21 store whispers at him i dont know about u but ur not turning 22 mtvstars one direct\xe2\x80\xa6'
p25
aS'gabby u ok'
p26
aS'i went to popexplosion for peyton and eben and ended up also falling in love withh midnight red lmao'
p27
aS'oh well nvm then'
p28
aS'sigh of relief bc midnight red is going to get big soon and ive already met them'
p29
aS'i cant wait to all of you who are sending hate to midnight red suddenly love them later on'
p30
aS'wait when does the wwa tour start bc midnight red obviously arent opening if its febmarch bc theyll be with austin'
p31
aS'and '
p32
aS'glad is getting out there so proud  miss you boysss'
p33
aS'why are directioners hating on midnight red theyre so talented'
p34
aS'sometimes it just really hits me how much austins really impacted me and it makes me bawl like a baby goodbye'
p35
aS'godhasblessedmewith the amazing friends i have  so many more lt3'
p36
aS'godhasblessedmewith this amazing boy  he saved my life and brought me so many good friends and memories thankful'
p37
aS'i love you more than words'
p38
aS'finnick odair i think you mean finnick oh damn'
p39
aS'mentionsomeoneyourethankfulfor were through this together always ilysm alyssa \xf0\x9f\x92\x95'
p40
aS'my body no'
p41
aS'if this gets 100 rts can you two follow me youre all i need for 55 \xf0\x9f\x92\x95'
p42
aS'visit your local amp win a trip to meet me in nyc bff after party starting tmrw htt\xe2\x80\xa6'
p43
aS'i love every single thing you hate about yourself'
p44
aS'mentionsomeoneyourethankfulfor ur honestly the best friend i could ask for its nice knowing i have someone i can always go 2'
p45
aS'when someone jokes about one of your insecurities'
p46
aS'best best friend ilylt3'
p47
aS'love you too lt3'
p48
aS'you always can love you lt3'
p49
aS'menitonsomeoneyourethankfulfor i feel like i can always go to her if i needed to i love you alyssa'
p50
aS'mentionsomeoneyourethankfulfor every single one of you because you care when no one else does id be dead without all of you'
p51
aS'i mean it belll ily'
p52
aS'mahone breakoutartist peopleschoice'
p53
aS'mentionsomeoneyourethankfulfor alyssa you honestly know how to make me smile and i couldnt ask for a b\xe2\x80\xa6'
p54
aS'you shouldnt because you are worth so much to me and all of us'
p55
aS'mentionsomeoneyourethankfulfor for giving birth to my lifesaver'
p56
aS'mentionsomeoneyourethankfulfor because without him austin wouldnt be where he is today hes always supp\xe2\x80\xa6'
p57
aS'ruining a perfectly clean wrist'
p58
aS'scars arent beautiful they are deathly and will kill but the look the sight of a scar triggers more scars its not worth'
p59
aS'this is so nice aw ily im glad i make you smile '
p60
aS'mentionsomeoneyourethankfulfor you never fail to make me smile ilysm'
p61
aS'lt333 ily'
p62
aS'mentionsomeoneyourethankfulfor thank you for keeping me strong i love you so much'
p63
aS'dms'
p64
aS'the reason behind my smile the reason i stay strong the reason i am still alive austin carter mahone austinwearethan\xe2\x80\xa6'
p65
aS'mentionsomeoneyourethankfulfor '
p66
aS'mentionsomeoneyourethankfulfor thank you for changing my life'
p67
aS'mentionsomeoneyourethankfulfor definitely your user says it all you are so strong ily'
p68
aS'mentionsomeoneyourethankfulfor '
p69
aS'mentionsomeoneyourethankfulfor'
p70
aS'fact i put my hair up when i sleep every night'
p71
aS'special thanks to  i wouldnt be here to post this tweet without you mentionsomeoneyourethankfulfor'
p72
aS'mentionsomeoneyouarethankfulfor yall changed my life'
p73
aS'ilysmm'
p74
aS'mentionsomeoneyourethankfulfor'
p75
aS'aw \xe2\x98\xba\xe2\x98\xba\xe2\x98\xba'
p76
aS'mentionsomeomeyourethankfulfor'
p77
aS'tysm'
p78
aS'i meant exacts haha'
p79
aS'how many followers do i have '
p80
aS'sos i cant sleep'
p81
aS'mentionsomeoneyouarethankfulfor kardashian crewmahomie fagness \xf0\x9f\x92\x95'
p82
aS'today stats 120 followers 43 unfollowers and followed 8 people via'
p83
aS'14 \xe2\x80\x94 twitter friends ht\xe2\x80\xa6'
p84
aS'2 chainzzz '
p85
aS'goodnight fags ily'
p86
aS'im so tired honestly its not wven midnight'
p87
aS'if u ever feel like ur a strange person just remember austin mahone feels like a motocross racer today'
p88
aS'i ate so much today i hate myself total fuckng binge'
p89
aS'im so scared fuck my life\xe2\x80\x9d me 247'
p90
aS'im so scared fuck my life'
p91
aS'makes me feel like shit but ok cool'
p92
aS'there is some real cuties on snapchat \xf0\x9f\x98\x8d\xe2\x80\x9d guessing not me bc no reply\xe2\x80\x9d same ugh'
p93
aS'youll cry if you open this'
p94
aS'fetus austin omfg help i cant'
p95
aS'there is some real cuties on snapchat \xf0\x9f\x98\x8d\xe2\x80\x9d guessing not me bc no reply'
p96
aS'tbh'
p97
aS'austin doesnt deserve to win austin mahone breakoutartist peopleschoice'
p98
aS'i know \xf0\x9f\x98\x96'
p99
aS'is horrible at snapchatting back \xf0\x9f\x98\x92'
p100
aS'im watxhing the conjouring'
p101
aS'no faggot'
p102
aS'tweet me funny tumblr posts'
p103
aS'rt for an acc rate free bc no on will rt austin mahone breakoutartist peopleschoice'
p104
aS'indirect to austin mahone'
p105
aS'i need more people to creep on'
p106
aS'twitter babe'
p107
aS'basically'
p108
aS'when youre sad just read this and remember'
p109
aS'i wonder if austin has or had a crush on a mahomie austin mahone breakoutartist peopleschoice'
p110
aS'my idol has tigger on top of his speakers \xf0\x9f\x98\x82 austin mahone breakoutartist peopleschoice'
p111
aS'my snapchats are so bad like literally the ugly is real'
p112
aS'gorgeous omg'
p113
aS'retweet this and i will write your username put it in the bucket and everyday i will tweet someone something nice \xf0\x9f\x98\x8a htt\xe2\x80\xa6'
p114
aS'no one would '
p115
aS'hot damn shit'
p116
aS'basketball pictureeee '
p117
aS'flawless'
p118
aS'this was austin as a baby basically'
p119
aS'everyone needs a robert villanueva in there life \xf0\x9f\x98\x8d\xf0\x9f\x98\x8d\xf0\x9f\x98\x8d'
p120
aS'why was this even made'
p121
aS'this is sex can i get pregnant from this'
p122
aS'rt for an indirect doing cuz im gonna get like 3 retweets cuz im a loser free but a follow isnt gonna hurt ya'
p123
aS'rt or fav if u want me to creep on i bc bored'
p124
aS'celebritiesiwanttoseenaked josh hutcherson aka the bae'
p125
aS'i laughed way too much at this oh my fod i cant beje'
p126
aS'i hate when austin goes to la and ny bc the same people meet him every time and its annoying'
p127
aS'no luke let her touch me'
p128
aS'youre a fan account not a fcking queen plus ur basic as fuck lmao'
p129
aS'whispers yes i am\xe2\x80\x9d no kaytin'
p130
aS'jai tha t wasnt even funny but im choking'
p131
aS'im going to go stand outside so if anyone asks im outstanding\xe2\x80\x9d i actually can not stop laughing'
p132
aS'im so fucking funny i shouldnt be on this earth coz people die from laughing and i dont want to kill people anymore'
p133
aS'whispers youre not a queen'
p134
aS'i bawled reading this awww'
p135
aS'it was a question lmao'
p136
aS'no offence claudia but why do u call people out for unfollowing whenu follow like 10 people lmao'
p137
aS'i bawled reading this'
p138
aS'irony'
p139
aS'i hate my sister lmfao'
p140
aS'well ok'
p141
aS'why did this get so many favsrts'
p142
aS'will never follow me i give up lolzzzzzz igetangrywhen'
p143
aS'why do people think this'
p144
aS'duh lt3 lt3'
p145
aS'if my laptop charger gets fixed'
p146
aS'if you have connor6 pls help me and dm him for me or something pls'
p147
aS'watch out for connor spam im sry'
p148
aS'watch video igetangrywhen here pls be my 36 connor'
p149
aS'ya know i never do following sprees this early in the dayanyone up for one '
p150
aS'pls'
p151
aS'dont make me cry again'
p152
aS'ilym hahah'
p153
aS'i love you hahaha'
p154
aS'i literally have zero chance of austin noticing me austin mahone peopleschoice breakoutartist'
p155
aS'8 more days left till voting ends and that means vote vote vote all day austin mahone breakoutartist peopleschoice'
p156
aS'i would do anything for an austin mahone christmas single austin mahone breakoutartist peopleschoice'
p157
aS'if you see this tweet prove it by retweeting  austin mahone breakoutartist peopleschoice'
p158
aS'if ever tweeted me id probably pass out not gonna lie oops austin mahone breakoutartist peopleschoice'
p159
aS'timezones austin timezones'
p160
aS'and now he will be austin mahone breakoutartist peopleschoice'
p161
aS'u better show off hometown for you tonight'
p162
aS'fav this if u think im hot lewk'
p163
aS'if luke ever tweeted me id collapse tbh'
p164
aS'u too ily'
p165
aS'np  collide by obsessssssssed'
p166
aS'austins too cute i cant handle this'
p167
aS'this fandom is split into 2 in my opinion the stalkers and their worshippers and us we are fucking amazing'
p168
aS'try to guess what day my birthday is its in october austin mahone breakoutartist peopleschoice'
p169
aS'are you still planning on going sky diving without a parachute austin mahone breakoutartist peoplescho\xe2\x80\xa6'
p170
aS'o'
p171
aS'naked beau'
p172
aS'follow mepl s'
p173
aS'i love so much fuchvdjkgsdg'
p174
aS'lets see how many people can rt this austin mahone breakoutartist peopleschoice'
p175
aS'hotly shit'
p176
aS'when we collide'
p177
aS'what are you doing austin lmfao'
p178
aS'austin looked so cute today'
p179
aS'i feel like i annoy everyone'
p180
aS'its like the hunger games tbfh'
p181
aS'austin looks so cute today odhgm'
p182
aS'language'
p183
aS'i cant breahte'
p184
aS'fback'
p185
aS'imm laughing so hard \xf0\x9f\x98\x82\xf0\x9f\x98\x82'
p186
aS'ur 12 stop'
p187
aS'my sister just said she wants to make u mad wrtf lmao'
p188
aS'yes'
p189
aS'dont use big words'
p190
aS'yes lmao'
p191
aS'im so dun'
p192
aS'oh ym fosd'
p193
aS'welcome to twitter faglyssas header she made makes austin look thug 1 11'
p194
aS'kellie reply to amanda whos amanda'
p195
aS'kellie u dont even like austin yes i do but hes all u talk about it gets annoying lkmfao'
p196
aS'kellie u say austins gay all the time'
p197
aS'everybody makes mistakes everybody has those days everybody knows what what im talking about everybody gets that way excep\xe2\x80\xa6'
p198
aS'i noticed'
p199
aS'fabby'
p200
aS'you and look like you have alot in common111 '
p201
aS'do it'
p202
aS'kellie stop readinh my tweets'
p203
aS'i will shoot her  '
p204
aS'im choking bc amanda'
p205
aS'bc i dont wnt her on my tweets no'
p206
aS'im choking'
p207
aS'i hate when people do that'
p208
aS'because i dont want her on my twittero mfgv'
p209
aS'cant see da emoji im on my computer'
p210
aS'amanda'
p211
aS'she follower at least half of u oh my no'
p212
aS'kms'
p213
aS'you like ridin dontcha '
p214
aS'stop im cyringh'
p215
aS'you like ridin dontcha shes 12'
p216
aS'i found my sisters twitter sos she even stole one of the headers i made adios'
p217
aS'i just want luke to fave one of my tweets that would be gr8'
p218
aS'i wonder if luke sees this ha ha nope'
p219
aS'if this gets 100 rts will you be my 25'
p220
aS'i belong to the part of fandom where im not good at doing anything but be ugly mtvstars one direction'
p221
aS'im gonna start tweeting everything with austin mahone breakoutartist peopleschoice'
p222
aS'bae'
p223
aS'people dont care theyre just curious\xe2\x80\x9d ik'
p224
aS'guys i gave austin my tiger mask and he asked to keep it omfg look'
p225
aS'my dreams came true'
p226
aS'too cute too cute'
p227
aS'so many things are happening here'
p228
aS'cant what'
p229
aS'ronnie is like i fucking hate my life'
p230
aS'our fans are our girlfriends'
p231
aS'why is it so hard to get a rt from austin \xf0\x9f\x98\x94 austin mahone breakoutartist peopleschoice'
p232
aS'maritza'
p233
aS'having banga banga on replay all night and all day austin mahone breakoutartist peopleschoice'
p234
aS'marissa just woke up and shes freaking out lmaonjf'
p235
aS'how many rts for fetus austin and romo austin mahone breakoutartist peopleschoice'
p236
aS'austin likes to ignore me austin give me a sign if you see this austin mahone breakoutartist peopleschoice'
p237
aS'wake up fucker'
p238
aS'retweet this bc why not austin mahone breakoutartist peopleschoice'
p239
aS'maryss'
p240
aS'rt if youre excited for the banga banga music video austin mahone breakoutartist peopleschoice'
p241
aS'ugh i feel bad bc its raining and austins here its always rainy when hes here austin mahone breakoutartist people\xe2\x80\xa6'
p242
aS'allyyourgrandpaisproudofyou allyyouarebeautifulandstrong'
p243
aS'austins background on ustream makes me emotional '
p244
aS'and one year later here he is austin mahone breakoutartist peopleschoice'
p245
aS'take a look at this beautiful '
p246
aS'but i hate when people talk about one direction in school and ur just like u dont vote for them u dont not sleep bc \xe2\x80\xa6'
p247
aS'mahomies who have their own fanbases ltlt austin mahone breakoutartist peopleschoice'
p248
aS'ur da best this is why i love u'
p249
aS'listen here hoe just bc youre special dont mean shit so heres yo crusty ass indirects \xf0\x9f\x99\x8f perfection a\xe2\x80\xa6'
p250
aS'mom all you do is sit on that computer all day me lies i sit on the chair'
p251
aS'basically'
p252
aS'omfg this is soo messed up but clever idek bys'
p253
aS'when you get bad grades in school and youre just like'
p254
aS'you should rt for one free bc bored'
p255
aS'its going to be ok lil nigga you can do it  i just'
p256
aS'you should rt for an indirect bc bored free bc god is good'
p257
aS'camila'
p258
aS'all da shit i want for christmas this year xoxo'
p259
aS'the feels rn fuck u luke'
p260
aS'ive been creeping for well all day'
p261
aS'if this gets 400 rts will you follow me'
p262
aS'lets go back to the day when i saw your face for the very first time austin mahone breakoutartist peopleschoice'
p263
aS'i still love him idk'
p264
aS'if i follow you theres a 436 chance ive stalked your account at least once probably more'
p265
aS'ayeitsmahone  your da bomb ok ily always been a fav'
p266
aS'\xf0\x9f\x92\x8ert for a account rateindirect\xf0\x9f\x92\x8e'
p267
aS'click this for nudez'
p268
aS'click'
p269
aS'rt for a janoskians indirect free bc bored on lunch'
p270
aS'rt for a sassy indirect fan accs only o xxx'
p271
aS'other fandoms think were meanest fandom clears throat whisperes they dont know about the i love yous'
p272
aS'ayeitsmahone  donut'
p273
aS'rt for an account rate free bc i got wwa tickets mtvstars one direction'
p274
aS'my goal everyday is to make someone smile '
p275
aS'ive been watching rage quit on youtube all day its so fucking hilarious'
p276
aS'clink link in bio for austins nudes'
p277
aS'austin mahone breakoutartist peopleschoice '
p278
aS'preach'
p279
aS'i think everyone should take a sec and think about this'
p280
aS'we got this guys we cant slack austin deserves this so much austin mahone breakoutartist peopleschoice'
p281
aS'me and'
p282
aS'i considr dem all my sons bbe they luv each other like brothers and i treat them all like my bbes  each 1 i\xe2\x80\xa6'
p283
aS'stay strong because austin loves you more than he love himself austin mahone breakoutartist peopleschoice'
p284
aS'will there be any way to get meet and greet for austin mahone at the atl jinglee ballllll'
p285
aS'btw will be taking over our station later this week wait theyll be there whart is this sa joke'
p286
aS'austin deff'
p287
aS'btw power961jingleball cant wait'
p288
aS'so excited for new videosss omg'
p289
aS'everything thing that kills me makes me feel alive'
p290
aS'dont retweet this'
p291
aS'all i need now is danielampjai5 to get 55'
p292
aS'listening hopefully i win these fifth harmony meet and greet omfg'
p293
aS'we only have 8 more days of voting we got this guysssssss austin mahone breakoutartist peopleschoice'
p294
aS'mahomies go hardest austin mahone breakoutartist peopleschoice'
p295
aS'click this'
p296
aS'why is austin wearing this tho'
p297
aS'austin today aw hes so cute in yellow'
p298
aS'yes oh ymn ogj i need to win'
p299
aS'austin at rehearsing for the parade today'
p300
aS'what is austin even doing here lmao'
p301
aS'do yall ship camila and austin they look so cute here'
p302
aS'austin mahone breakoutartist peopleschoice'
p303
aS'gotta do wht u gotta do'
p304
aS'hairrrrcutt  no one could even tell i feel like meg griffin'
p305
aS'austin and camila aw omg'
p306
aS'lukes hair aw'
p307
aS'what are the boys doing here omg'
p308
aS'still my favorite video of all time'
p309
aS'calis starting to get cold'
p310
aS'crazythis time last year i was planning to go overseas for the first time for new years now this year im planning to go h\xe2\x80\xa6'
p311
aS'so much has changed time flies '
p312
aS'hasnt tweeted in 16 hours'
p313
aS'im in 3rd omf click'
p314
aS'mahone breakoutartist peopleschoice'
p315
aS'never going to win bc not big enough acc'
p316
aS'can i just cry niagara falls pls bc the accuracy'
p317
aS'mtvstars one direction'
p318
aS'were losing guys mtvstars one direction'
p319
aS'\xf0\x9f\x8c\xb5 rt for 5 free follows \xf0\x9f\x8c\xb5 its free but i beg you pls follow me and help me up to 24k ifb x i trade with 10  mt\xe2\x80\xa6'
p320
aS'why am i awake'
p321
aS'goodnight little piggy \xf0\x9f\x90\xb7'
p322
aS'goodnight'
p323
aS'youve been following me for a long time if u remember when my user was rauhlwithacm'
p324
aS'sickk of being treated like shit'
p325
aS'me too lol'
p326
aS'will there be any contests or anything to meet him'
p327
aS'i want to meet austin at the jingle ball '
p328
aS'im going to bed but ill probably be creeping on my ipod lolz'
p329
aS'im tired wow'
p330
aS'this onest my favore it'
p331
aS'keep watching other viedeos by them i cnat reat'
p332
aS'i cant stop watchign rage qyic im lcauhgin so hardf'
p333
aS'today stats 59 followers 40 unfollowers and followed 19 people via'
p334
aS'i watched this this summert and im peeing myself laughing oh ym'
p335
aS' ok so um youre like my fave and ily and stop being perf ok ok'
p336
aS'ily omgedf'
p337
aS'aw otp'
p338
aS'haaaaaaaaaaaa if only you knew'
p339
aS'1'
p340
aS'rt for an awesome indirect free because my idol finally followed me'
p341
aS'i need to stop watching hot guys do grind on me vines  im  so  sexually  frustrated '
p342
aS'i use on my computa'
p343
aS'lmaoo yes'
p344
aS'loool we r one'
p345
aS'i need a boyfriend lmao'
p346
aS'im freaking out in front of my mom i hatelove you for this omg'
p347
aS'im screeching'
p348
aS'alyssa why did you do this'
p349
aS'lmao ilylt3 lt3 lt3 edits r my life bc oops'
p350
aS'im watching grind on me vines bad idea bad idea'
p351
aS'but lets talk about this bc bored fetus bteregrh'
p352
aS''
p353
aS'fback'
p354
aS'lilac niall'
p355
aS'my tweet got over 2000 rts thanks to mr mahone lol at least they all counted as votes  austin mahone breakoutartist \xe2\x80\xa6'
p356
aS'fback'
p357
aS'follow trick tweet  rt if u want to gain  follow me and everyone who rts  follow everyone back  gain mtvstars one \xe2\x80\xa6'
p358
aS'daniel found cutting his toenails there is a god after all who has answered all our prayers'
p359
aS'thank god ps follow me'
p360
aS'i wanna follow 800 people but idk who to follow lol so rtfav for a follow'
p361
aS'hahah omg'
p362
aS'idek maybe friday bc i have a birthday partay saturday it depends idk '
p363
aS'austin mahone breakoutartist peopleschoice'
p364
aS'aw ilym'
p365
aS'omg what i love you and your account \xe2\x99\xa1'
p366
aS'can we pls'
p367
aS'noo wbu'
p368
aS'about to play just dance lolz txt it'
p369
aS'how about dis dont doesnt have an m '
p370
aS'shut up'
p371
aS'yess'
p372
aS'yes i did'
p373
aS'shivani ur my shivanigga and i lov u bae'
p374
aS'tell me sumthin i dmt know'
p375
aS'what a qt \xf0\x9f\x92\x98\xf0\x9f\x92\x98'
p376
aS'no wtf'
p377
aS'ayeitsmahone alyssa ur honestly one of my faves bc ur so funny and i like ur header oh and ur pretty bye'
p378
aS'done w indirects lol ily'
p379
aS'allison my faggot\xe2\x9d\xa4\xe2\x9d\xa4\xe2\x9d\xa4\xe2\x9d\xa4 i love u lots gimme ur face'
p380
aS'baelt4333333'
p381
aS'kyla omegle party asap pls imy'
p382
aS'yolandamahone i love u and ur acc a lot tbh flawless'
p383
aS'hey bri i love you so fucking much'
p384
aS'paradisemahone ayo bitch i love u'
p385
aS'mahomeboy i loveeee ur acc'
p386
aS'jackiee i love you so much you are beyond strong'
p387
aS'alyssa i love you bbylt3 forever and always'
p388
aS'fave lmao ily'
p389
aS'ayeitsmahone squeal little piggy remember lol ily alyssa'
p390
aS'ayeitsmahone  literally in love with you and your acc bc youre fab and perfect'
p391
aS'this was 2 years ago austin and mama are the cutest  austin mahone breakoutartist peopleschoice'
p392
aS'curlsmahone ayee fave stay fab'
p393
aS'becca ur fab and ilysm'
p394
aS'austitoellen ive followed u since u started twitter holy lol ily'
p395
aS'flietwithmahone one of my favs'
p396
aS'alyssa same\xe2\x80\x9d lov u'
p397
aS'just send a cheeky birthday vid haha  happy birthday remy '
p398
aS'kk good dm me or something'
p399
aS'oohkillemaustin lol i love ur user'
p400
aS'emily ur so pretty and lucky and i love u'
p401
aS'galaxyromo ayyyy stay swaggieeeee'
p402
aS'jackie aka lifesaver'
p403
aS'idk we should change it'
p404
aS'ctmahomie ur so sweet and ily gorgeous'
p405
aS'mahomies marissa i love u more than words ur always there for me and i cant even begin to say how much u mean to me thank u for everything'
p406
aS'gennesys u know i love uuuu'
p407
aS'mahonerawr one of my favs stay fab'
p408
aS'casualjustin faveee'
p409
aS'ireland190 ive followed u for so long lol ily'
p410
aS'lauren is my bff and the bigest reason im alive'
p411
aS'myheromahone love ur user'
p412
aS'thakidrauhlnavy u know i lov u'
p413
aS'austinscrew youre my fav why dont we talk anymore'
p414
aS'mahxnequeen fab'
p415
aS'rt for an indirect i havent done this in such a long time wow austin mahone breakoutartist peopleschoice'
p416
aS'jen youre a faggot but id be dead without u \xe2\x9d\xa4\xe2\x9d\xa4\xe2\x9d\xa4\xe2\x9d\xa4'
p417
aS'jordanacm22 youre so sweet and gorgeous i'
p418
aS'ameezyskittless lovelyy acc'
p419
aS'lzrapp ur icon is adorablee'
p420
aS'eva i cant wait to meet you at austins show in february ilysm'
p421
aS'jdbrooksmahone one of my favessa tbh ilysm'
p422
aS'uhitsmahone ur icon lmfao i'
p423
aS'winterjano nice user'
p424
aS'gabby youre a faggot and i can not wait until austins concert gabbyandalyssaugirlsfeb27 our dream will come true \xf0\x9f\x98\x81\xf0\x9f\x92\x95'
p425
aS'awesomeameezy fabfabfab'
p426
aS'austinmahomie youre really pretty fml'
p427
aS'ameezysqueens ur so sweet lol'
p428
aS'kennamahone74 nice acc aw'
p429
aS'faithkierra your header kills me'
p430
aS'savannamariexo you are flawless and i love you lots'
p431
ag353
aS'rt for an indirect mbf bc austin will never rt me lolz austin mahone breakoutartist peopieschoice'
p432
aS'petition for luke and jai to give away all the shirts theyve worn in the twin talk time video pls'
p433
aS'i dont fucking care austin will fight for me until the death so it looks like that icon isnt changing'
p434
aS'wow i lov u lot'
p435
aS'ayeitsmahone queen your account looks so good rn like this is the best it has ever looked ily austin mahone breakoutart\xe2\x80\xa6'
p436
aS'everyone go make twitters so austin can get 5 million\xe2\x80\x9d \xf0\x9f\x91\x8c do it'
p437
aS'rt for an indirect free bc 1 rt  1 vote austin mahone breakoutartist peopleschoice'
p438
aS'aw \xe2\x98\xba tysm'
p439
aS'\xe2\x99\xa1ayeitsmahone\xe2\x99\xa1  favvee \xe2\x99\xa1 your acc is perfect and youre so pretty im jealous'
p440
aS'retweet to vote for austin dont just sit there austin mahone breakoutartist peopleschoice'
p441
aS'u gotta promise if i let ya hop up in the jeep u gon turn up in the seat austin mahone breakoutartist peopleschoice'
p442
aS'rt for an indirect free bc i love you\xf0\x9f\x92\x97'
p443
aS'ayeitsmahone alyssa bae ily a lot'
p444
aS'do i have to be basic to get noticed i luv austy ur smile makes my heart do the dougie austin mahone breakout\xe2\x80\xa6'
p445
aS'janoskianator4life'
p446
aS'retweet this if youre a mahomie  austin mahone breakoutartist peopleschoice'
p447
aS'ily'
p448
aS'ayeitsmahone  i love ur acc for sure one of my favs \xe2\x9d\xa4\xef\xb8\x8f\xe2\x9d\xa4\xef\xb8\x8f'
p449
aS'lov u'
p450
aS'\xf0\x9f\x8c\xba ayeitsmahone \xf0\x9f\x8c\xba literally one of my fav accs ur hilarious'
p451
aS'rt for an indirect bc everyone is doing it and it helps with votes woo mbf austin mahone breakoutartist peopiescho\xe2\x80\xa6'
p452
aS'all i want for christmas is you and you and you and you and ughh all of you\xe2\x80\x9d even me'
p453
aS'i dont know the janoskians make me happy'
p454
aS'keep voting austin mahone breakoutartist peopleschoice'
p455
aS'pls'
p456
aS'ayeitsmahone can we meet pls austin mahone breakoutartist peopieschoice'
p457
aS'rt for an indirect bc austin mahone breakoutartist peopieschoice'
p458
aS'rt for an indirect  free bc bored as fuck  austin mahone breakoutartist peopleschoice'
p459
aS'rt for an indirect bc twitter is boring'
p460
aS'rt for an indirect free bc i have brownies and i dont think anyone will rt anyways'
p461
aS'100factsaboutme im always creepin on twitter'
p462
aS'yes i was fat i was bullied i was shy yes i was considered a loser in school but i wouldnt change any of it it made \xe2\x80\xa6'
p463
aS'rt for an indirect mbf bc goals amp shit'
p464
aS'mahomie4life '
p465
aS'if you ship camila and austin cool if you dont ship them cool but dont hate on someones opinion ffs'
p466
aS'austin mahone breakoutartist peopieschoice'
p467
aS'i saved it oops'
p468
aS'rt for an indirect doing most but not all mbf bc austins concerts arent free austin mahone breakoutartist p\xe2\x80\xa6'
p469
aS'i want one'
p470
aS'ur so pretty'
p471
aS'i am bored so rt for an indirect mbf bc 12 days i'
p472
aS'in love with ur header'
p473
aS'im sorry i would but im helping my friend'
p474
ag353
aS'credits to for my header \xf0\x9f\x99\x8a\xe2\x98\xba\xef\xb8\x8f'
p475
aS'he deserves it austin mahone breakoutartist peopieschoice'
p476
aS'still in shock ilysm'
p477
aS'stop retweeting swedish hoes austin u cracker jack ballsack feget austin mahone breakoutartist peopleschoice'
p478
aS'sophisticated'
p479
aS'they call her fat then act surprised when she starves herself'
p480
aS'heyy ur account matches a'
p481
aS'i dont understand how some people can get noticed sooo much and i cant even get one rt'
p482
aS'tticia ohy mu of'
p483
aS'if every mahomie who sees this tweet retweets it we can win this for austin austin mahone breakoutartist peopieschoice'
p484
aS'amanda agian'
p485
aS'austins gonna go through the people who voted and retweet one of them my mutuals as always austin mahone breakoutar\xe2\x80\xa6'
p486
aS'its weird to think how about 2 years ago austin was just in his room singing covers austin mahone breakoutartist peop\xe2\x80\xa6'
p487
aS'lol im in 4th '
p488
aS'if this gets 100 rts you have to follow me faggit adios\xf0\x9f\x8c\x9d'
p489
aS'banga banga music video preview'
p490
aS'click this and tweet me proof and ill give u 10 free follows'
p491
aS'guys please help i wanna win so bad'
p492
aS'2nd '
p493
aS'im in second omgfdkgjdf sos pls help get me to first'
p494
ag353
aS'whataboutlove is available now for download in justdance2014'
p495
aS'new twin talk time'
p496
aS'rt and i will pick one person to help get a follow of jai like i will try all the time untill he follows you ok go amigos\xe2\x80\xa6'
p497
aS'do you sometimes give up on tweeting austin because unnoticed and ignored austin mahone breakoutartist peopleschoice'
p498
aS'im in 3rd holy shit please click the link'
p499
aS'those five boys love you imagine hurting yourself in front of them they would be crushed do me a huge favor and ple\xe2\x80\xa6'
p500
aS'you amp i gtgtgtgt'
p501
aS'ur face is hot here red like the sun'
p502
aS'ily'
p503
aS'idk i thought it was pretty cute'
p504
aS'ur life is a pretty selfie'
p505
aS'retweet if you cant wait for the banga banga music video austin mahone breakoutartist peopieschoice'
p506
aS'point proven'
p507
aS'11 days left to vote so go vote austin mahone breakoutartist peopleschoice'
p508
aS'wow its like i literally wrote this'
p509
aS'excuse me what am i'
p510
aS'doesnt tweet loses followers tweets something loses followers breathes loses followers gets a follower l\xe2\x80\xa6'
p511
aS'retweet and ill pick one person to help get a jai follow \xf0\x9f\x8e\x89\xf0\x9f\x91\x8a'
p512
aS'1 reason to never accept pizza from comes in my room with a pizza box opens it up amp its a hole wi\xe2\x80\xa6'
p513
aS'bullying and self harming advice via'
p514
aS'luke brooks reporting for duty its army'
p515
aS'hi daniel thanks for the call yes youre right it is army however jai was trying to say are my j\xe2\x80\xa6'
p516
aS'new videos  happy alyssa'
p517
aS'yes'
p518
aS'by the way filming another video on top of the one thats already coming out on thursday so expect a couple of new vids thi\xe2\x80\xa6'
p519
aS'yes please or ill burn them instead but i dont think luke would be too happy'
p520
aS'i hate how relevant the new twin talk time is i love them so much though im actually crying i have the best idols bye'
p521
aS'it breaks my heart to hear about the boys getting bullied'
p522
aS'i love them a lot'
p523
aS'the new twin talk time is so fucking relevant to what im going through right now'
p524
aS'new video check it out meaningful one'
p525
aS'the boys shirts in the new twin talk time gtgtgtgt'
p526
aS'this has worked for people before and ill probably get like 0 rts but if this gets 100 rts jai please could you follow \xe2\x80\xa6'
p527
aS'daniels toenails aremy mancrushmonday'
p528
aS'why does twitter ask us whats happening in little grey letters before we write a tweet you dont even give a fuck l\xe2\x80\xa6'
p529
aS'i will seriously come in your room with a chainsaw if you dont cut those toe nails but srsly we got you \xe2\x80\xa6'
p530
aS'actually is not single hes taken by his mahomies his mahomies are his girlfriends yeahh'
p531
aS'hey always be the best for all your fans dont forget always remember god godblessyou'
p532
aS'youre so dumb lmao ily'
p533
aS'u honestly care about your fans uve got a heart of pure gold and always make everyone happyhope someday\xe2\x80\xa6'
p534
aS'dont open this or you will smile uncontrollably'
p535
aS'oh ym ofs'
p536
aS'ilym'
p537
aS'tysm'
p538
aS'hey guys so i didnt win the last contest but this time i think i can if yall help by clicking '
p539
aS'i can dm him ur user'
p540
aS'mahone breakoutartist peopleschoice voteaustinmahone'
p541
aS'its weird tho bc the last dm i sent him was on the 14th omg'
p542
aS'im still crying bc beau dmd me last night'
p543
aS'why did i lose like 20 followers all i did was go to school'
p544
aS'rap same'
p545
aS'love u more'
p546
aS'thank you all for caring about me it means more than u guys even know'
p547
aS'try to tell me that someones idol cant save their life and youll get hit straight in the face'
p548
aS'thank u for saving my life tonight i love u goodnight'
p549
aS'stanush'
p550
aS'its crazy how much one thing can completely change ur mood'
p551
aS'lmao thats not even tyler you weirdos'
p552
aS'new twintalktime video if all goes to plan will be up 67pm melbourne time if not earlier no guarantees just telling\xe2\x80\xa6'
p553
aS'how am i suppsed to sleep now'
p554
aS'if tyler reactivated hed still have his followers'
p555
aS'guys isnt tyler lmfao he deactivated and once deactivated for 30 days the user is given up and they took it'
p556
aS'he is the biggest sweetheart ever\xf0\x9f\x92\x95'
p557
aS'dat means beaus creeping '
p558
aS'im a wreck'
p559
aS'i love u so much more marissa'
p560
aS'im scraming'
p561
aS'im sobbing uncontrollable'
p562
aS'screaming for u'
p563
aS'no fucking way omg im so happy for you gulr omg im jealous '
p564
aS'i love you so much you dont even understand'
p565
aS'i love u lots gennesys'
p566
aS'i love you so much you literally just saved my life i holy shit'
p567
aS'thats srsly so cute im so glad he dmd you'
p568
aS'alyysss akajsjsowjwbss this is a sign pls dont leave me'
p569
aS'shivani help me'
p570
aS'alyssacongrtasgdfhg'
p571
aS'gdidiendbnsjejrswwn'
p572
aS'i love you jordan im staying lt3'
p573
aS'ayna'
p574
aS'dvebebenmskdnd'
p575
aS'honestly beau just saved my life'
p576
aS'lt3 igs just'
p577
aS'beau dmd em'
p578
aS'lt3'
p579
aS'i want to scream so bad everyones sleepginf'
p580
aS'im hysterically bawling in my room'
p581
aS'that could not have came at a better time honestly'
p582
aS'beau just he jsut'
p583
aS'im ashakign so bad i need help'
p584
aS'perfect timing beau holy shit'
p585
aS'beau dmd me holyl shit what he tuckc'
p586
aS'beau'
p587
aS'holy shit'
p588
aS'oh ym ogod'
p589
aS'too late im sorry'
p590
aS'this time it wont be just an attempt'
p591
aS'im thinking tomorrow afterschool'
p592
aS'sadsadsad'
p593
aS'i love you'
p594
aS'i use humor to cover up the fact that i want to jump off a bridge'
p595
aS'u kebnow'
p596
aS'stop that'
p597
aS'skip to 100 omf'
p598
aS'when people usee youuuu lt'
p599
aS'if youre not following youre lame lmfao'
p600
aS'could i get a follow '
p601
aS'the awkward smileeee'
p602
aS'this is on replayyy rn'
p603
aS'obsessed with this'
p604
aS'i would excuse me'
p605
aS'she donest look like she wants to kill him here wow'
p606
aS'i have the best idols ever'
p607
aS'i need you for my 36'
p608
aS'i would'
p609
aS'aw i just love how my family makes me feel like shit lt3'
p610
aS'i love how much the janoskians appriciate us'
p611
aS'taking over tha world'
p612
aS'just a few hopeless kids from melbourne'
p613
aS'dont lick your lips like that dont'
p614
aS'no im not'
p615
aS'its that time of the day to remind you all that youre beautiful and all worth it i love you lt3'
p616
aS'i give up on getting noticed tbh'
p617
aS'here come the tears thanks austin'
p618
aS'i know its crazy haha so much has happened this year and im so grateful for my mahomies '
p619
aS'i love youuu'
p620
aS'first rt ayyyyy lmao'
p621
aS'ehh idk probably not i cant really see myself with one'
p622
aS'if you retweet me ill get all my teachers to buy banga banga austin mahone breakoutartist peopleschoice'
p623
aS'i love you kyla'
p624
aS'mind being alyssas aka s 45 she deserves your follow '
p625
aS'today stats 52 followers 31 unfollowers and followed 5 people via'
p626
aS'i bet you 500 dollars that you wont retweet this austin mahone breakoutartist peopleschoice'
p627
aS'ill pay you to rt me austin mahone breakoutartist peopleschoice'
p628
aS'austin has 5 awards already and he doesnt have an album out yet rt if ur proud austin mahone breakoutar\xe2\x80\xa6'
p629
aS'i have hot chocolate and its probably the best thing thats happened to me today'
p630
aS'austin if you see this you should definitely rt it austin mahone breakoutartist peopleschoice'
p631
aS'im going to choke myself'
p632
aS'austin notices 325908 of my followers but not me never me rft whats up with that \xf0\x9f\x98\x92'
p633
aS'will never notice me im really upset'
p634
aS'lets crawl under a big blanket and watch movies'
p635
aS'austin notices 325908 of my followers but not me never me'
p636
aS'stop what youre doing and vote austin mahone breakoutartist peopleschoice'
p637
aS'i love you all \xf0\x9f\x98\x83'
p638
aS'luke are you creeping'
p639
aS'filming a twintalktime'
p640
aS'havnt done a follow spree in aaaaagggeesss so rt for a follow or ask and ill try to get around to you'
p641
aS'calling my radio station right now  austin mahone breakoutartist peopleschoice'
p642
aS'austin mahone breakoutartist peopleschoice'
p643
aS'i know you want to rt this  austin mahone breakoutartist peopleschoice'
p644
aS'i just threw my lpatop out the wonrfied'
p645
aS'can somebody teach me how to get retweeted by austin austin mahone breakoutartist peopleschoice'
p646
aS'afhsdjkf'
p647
aS'she ran away from me why do i find this funny'
p648
aS'tbh i love camila shes a lot like all of us so i dont see why austin being with her would be an issue'
p649
aS'ohhhhh damn'
p650
aS'i love u come back we can hang at my place lolz ur hotter lt3'
p651
aS'can i have an indirect pls'
p652
aS'rt for an indirect \xf0\x9f\x98\x98'
p653
aS'indirect me bae lt3'
p654
aS'hyw isnt i t real'
p655
aS'stupid milk'
p656
aS'holu shit i dont care hate me but otp'
p657
aS'mcm every single monday \xf0\x9f\x98\x8d'
p658
aS'im so tired hi'
p659
aS'aw ily'
p660
aS'i love everything of you acc welcom to my faves lits bye'
p661
aS'i dont know about you but i wanna see austin take home another award austin mahone breakoutartist peopleschoice'
p662
aS'hey mahomies reading this vote for austin one retweet  one vote austin mahone breakoutartist peopleschoice'
p663
aS'rt austin mahone breakoutartist peopleschoice bangabanga'
p664
aS'missed jais follow spree sighs'
p665
aS'\xe2\x9c\xbe rt for an honest acc rate \xe2\x9c\xbe mbf bc goal and monday'
p666
aS'my stomach hurts and today was shit so uh nap time ily uygs'
p667
aS'so excited for a new video thursday'
p668
aS'cant wait to film our new video these couple of days and new video coming out on thursday'
p669
aS'model10'
p670
aS'my last tweet x'
p671
aS'he does follow sprees constantly just rt and unrt when he does'
p672
aS'james is so easy to get a follow from'
p673
aS'it was those three words that saved my life \xf0\x9f\x8e\xb6'
p674
aS'couldnt ask for a better 12m followers thanks for putting up with my retarded tweets \xe2\x9d\xa4\xef\xb8\x8f'
p675
aS'pissed that i missed jais follow spree ffs'
p676
aS'are you still following'
p677
aS'stop i just had a heart attack'
p678
aS'jesus please'
p679
aS'ill never be able to leave austin no matter what even if i wanted to i wouldnt be able to do it hes such a huge part of my life now'
p680
aS'rt if you are truly and honestly proud to be a mahomie and say you support austin mahone no matter what \xe2\x9d\xa4\xef\xb8\x8f'
p681
aS'sara'
p682
aS'today sucked'
p683
aS'school adiossss'
p684
aS'hes going to award shows like every week my brain hurts why is he getting so big nooo austin mahone breakoutartist \xe2\x80\xa6'
p685
aS'thansk so much'
p686
aS'holy shit congrats on yourluke folow holscjcmsn'
p687
aS'every night i put in my headphones and a different ustream to fall asleep too\xe2\x80\x9d no way same omg'
p688
aS'it helps'
p689
aS'every night i put in my headphones and a different ustream to fall asleep too'
p690
aS'i have to be up in 5 hours'
p691
aS'im paying more attention to the cat in the background than miley hahaha'
p692
aS'do whatcha want whatcha want with my body pls'
p693
aS'um fuck you lauren im not kidding when i say i literally just started crying'
p694
aS'kendall i know you dont have much to put in but you need a bra'
p695
aS'you are the one i need in my range rover girl your body hot like a toaster \xf0\x9f\x98\x9c\xf0\x9f\x98\x8d'
p696
aS'kendall was probably thinking look at my fucking body and ill throw a hot toaster at your face'
p697
aS'kendall has a nice bodyyy '
p698
aS'he said my body was hot like a toaster i m peeingh pyse d'
p699
aS'she looks about 100 done with his shit'
p700
aS'95 days'
p701
aS'but remember when austin tweeted that kendalls body was hotter than a toaster lmao \xf0\x9f\x98\x82'
p702
aS'i dont ship austin and kendall i rather fucking put my head in a microwave'
p703
aS'cameeella'
p704
aS'ehhhmehhhhhh no'
p705
aS'hey seem so uncomfortable i just'
p706
aS'why is she acting so snotty what the hell kendall get the fuck away then'
p707
aS'buddy youre cheesin so hard next to kendall haha'
p708
aS'he said like 10 words and im shaking'
p709
aS'what if austin dropped the nomination thing'
p710
aS'austin u were supposed to present with camilaaaaa'
p711
aS'kendall gtfo'
p712
aS'ur so cute austin i hate you'
p713
aS'bangfna bafnaefdfsdggsdsdg'
p714
aS'hes so fuckgin perfe'
p715
aS'austinauhgtsuetn'
p716
aS'we are one jaycie'
p717
aS'miley is drunk so she cant perform lol what im not surprised'
p718
aS'drank'
p719
aS'christina is breaufiurgkld'
p720
aS'jesus that screamed e lmao'
p721
aS'performing say smoething i just had a heart attack i was like why would austin sing that song first of all'
p722
aS'i want austin to present with camila bye'
p723
aS'justin timberlake doesnt even have a fanbase because the whole world is his fanbase basically'
p724
aS'youre hot'
p725
aS'the sass'
p726
aS'why is kendall jenner always showing her nipples smh white people'
p727
aS'we get it you dont have to brag'
p728
aS'stop rting that i spelled austin wrong'
p729
aS'sparks fly is real i cant feel my legs'
p730
aS'sparks fly just became real holy fucking shit'
p731
aS'when she said a white kid literally i just thought of ausitn\xe2\x80\x9d same'
p732
aS'omg same'
p733
aS'i thought this was the american music awards not a fiesta'
p734
aS'thats samantha santori'
p735
aS'when she said a white kid literally i just thought of ausitn'
p736
aS'i cant sotp lughign'
p737
aS'ecactly'
p738
ag353
aS'u have to choose'
p739
aS'youre hot i hate you'
p740
aS'wait okay i like taylor swift but no carrie or miranda deserved that award wayyyy more they have these power house voice\xe2\x80\xa6'
p741
aS'american music awards a m e r i c a n'
p742
aS'also rt if jai doesnt follow you \xf0\x9f\x91\x8c'
p743
aS'choice is up to u'
p744
aS'im so mad that i dont just get the whole week off i have to go tomorrow and tuesday'
p745
aS'same'
p746
aS'camila or alexis ayers'
p747
aS'why am i laughing'
p748
aS'ilym'
p749
aS'way to steal from lohanthony doe'
p750
aS'lets be honest if you dont think liam looks extremely handsome tonight youre mental mtvstars one direction'
p751
aS'if taylor is country austin is rap lmao'
p752
aS'think about it this way austin could either be going after maddie or camila u choose'
p753
aS'greg mahoney'
p754
aS'when are you coming back to atl so i can actually meet u'
p755
aS'that dress is gorgeous but'
p756
aS'read this or die'
p757
aS'i love camila so much idk'
p758
aS'rt if ur not in this list austin mahone breakoutartist peopleschoice'
p759
aS'theyre both super sweet it works'
p760
aS'i see u faving my selfies'
p761
aS'tyler i see you creeping'
p762
aS'i thought i saw pitbull sitting next to austin but it was just rocco'
p763
aS'ive always wanted to see someone drop their award and it bust everywhere hahaha'
p764
aS'they can calm themselves'
p765
aS'i dont even care i ship it'
p766
aS'idc'
p767
aS'i probably like and more than you'
p768
aS'hashtag hairflip'
p769
aS'good night bae lt3 lt3'
p770
aS'alright its okay '
p771
aS'otp tbfh'
p772
aS'youve tweeted me a lot'
p773
aS'oh awesome'
p774
aS'rihanna just gave us a shout out glam team '
p775
aS'im going to get tl before austin comes on'
p776
aS'i need a picture of austin and camila'
p777
aS'pls stop'
p778
aS'no'
p779
aS'im so fuckgind'
p780
aS'really'
p781
aS'jk ofc lt3333'
p782
aS'this is cute'
p783
aS'really okay im ok with that'
p784
aS'whats her last name'
p785
aS'swifties complain about the boys winning well you shouldve voted harder for your idol mtvstars one direction'
p786
aS'is rihanna her real name'
p787
aS'no'
p788
aS'wahtie lvewokjdgoterjgr'
p789
aS'flawless'
p790
aS'rihanna slaying since day one'
p791
aS'best friends bye'
p792
aS'dem moves doe'
p793
aS'why isabel'
p794
aS'im sure austins dick is shining bright like a diamond'
p795
aS'shes so perfect tho'
p796
aS'this song was good the first 10 times i heard it  11'
p797
aS'can we be like freiends bc ily'
p798
aS'it shouldnt mean anything to you considering this is my account and im entitled to my opinion'
p799
aS'ty for the unfollow'
p800
aS'today stats 139 followers 69 unfollowers and followed one person via'
p801
aS'exactly arianas not even new shes only been on nick for a while '
p802
aS'i dont get why everyone is saying ariana got so big so quick shes been famous on teen nick for like 3 years '
p803
aS'i still dont like ariana and her fans sorry not sorry'
p804
aS'but i love u more ur way more fab get out'
p805
aS'camilas face tho'
p806
aS'i have an opinion get out'
p807
aS'that would have been a blessing'
p808
aS'what bra she has nothing to put in it'
p809
aS'omg guys shes so thirsty  she tweeted for votes she did it herself we all know who the tru winner is lt3 lt3 lt3'
p810
aS'ew slut'
p811
aS'if u can tell me a reason what camila did wrong cmon lemmee hear'
p812
aS'yall literally hate camila for now reason name one thing she did that was bad lol you cant'
p813
aS'the group hug louis extended his arm out to reach for them'
p814
aS'they were in my city like last week'
p815
aS'bye'
p816
aS'this song wwas my jam the first 12 times i heard it'
p817
aS'youre a bigger acc than me'
p818
aS'idec i love camila'
p819
aS'camilaa'
p820
aS'louis let me fucking love you'
p821
aS'theyre so cute im yalling'
p822
aS'one direction frick ya'
p823
aS'really want miley cyrus to dress up as hannah montana and light a blunt on stage or put on a strip show like how funny woul\xe2\x80\xa6'
p824
aS'ayy were losing and if everyone rtd this then we would win so hint hint that means rt this mtvstars one direction'
p825
aS'same'
p826
aS'damn peyton language'
p827
aS'justin timberlake is just an overall badass ama2013'
p828
aS'jt is flawlesssss'
p829
aS'i cant believe youre singing with keha '
p830
aS'aye papi'
p831
aS'i need a commercial i have to pee'
p832
aS'i want her legs'
p833
aS'its going downnn im tellin timber'
p834
aS'luke bryan youll always be an ama country category winner to me'
p835
aS'i wanna spam cameron for a follow but i dont want tl'
p836
aS'luuukeeeeeee bryyannnn'
p837
ag353
aS'im laughing bc 90 of yall was shading her a few weeks ago austin mahone breakoutartist peopleschoice'
p838
aS'just the other week you all hates ariana now all of a sudden you all like her lol what even'
p839
aS'preach'
p840
aS'yall were hating on ariana hardcore during voting tho ooooh'
p841
aS'ew tweet me when shes done'
p842
aS'that last nite tho'
p843
aS'please follow me cameron omg followmecam'
p844
aS'louis has always been my fave lousi'
p845
aS'loev me'
p846
aS'niall youre so fucking cute fuck'
p847
aS'i actually really like them now bye'
p848
aS'tbh ariana isnt even a new artist shes been around for a while so why is she nominated for that award'
p849
aS'one directingo'
p850
aS'please follow me x100 followmecam i win'
p851
aS'im going to turn off my tv when ariana performs'
p852
aS'im laughing because yall called austin thirsty for getting votes but ariana did the same sit down'
p853
aS'she donesnt look that bad tonight tho tbh'
p854
aS'lets keep this party goin idk if i wanna if theres twerking already'
p855
aS'ew taywhore'
p856
aS'why cant my ass bounce like that'
p857
aS'pls followmecam'
p858
aS'followmecam'
p859
aS'rt for a follow  im also following people that followmecam \xe2\x98\xba\xef\xb8\x8f'
p860
aS'ariana is not a queen'
p861
aS'what a fuckin scene stealer'
p862
aS'i hope he gets a picture with camila so'
p863
aS'why does arianas face constantly look like shes having a shit'
p864
aS'stop hating on camila i love her bye'
p865
aS'where are yalll watching this link me'
p866
aS'stopd ospt sopt ospt opstr posdro seop opt'
p867
aS'amas are at 8 est right'
p868
asS'2013_47'
p869
(lp870
S'celebritiesiwanttoseenaked is this even a question'
p871
aS'aye pls mention me'
p872
aS'celebritiesiwanttoseenaked'
p873
aS'hes so fucking hot god damn'
p874
aS'my vagina is crying bc of austin in a suit'
p875
aS'oh my god'
p876
aS'pictures of austin where'
p877
aS'rt this jut rt it dyu want our boys to smile like they did yest then rt do it im judging u if u dont mtvsta\xe2\x80\xa6'
p878
aS'pls'
p879
aS'i loev u'
p880
aS'fill out the application lt3'
p881
aS'if my other acc never got hacked id only need jai'
p882
aS'jai tweeted ur video thx for making me emotional btw'
p883
aS'this made me cry im not even goind to pretend it didnt im so proud of them bye'
p884
aS'i love u for saving mine'
p885
aS'waits for people to complain even tho its a joke'
p886
aS'i love u all for changing our lives'
p887
aS'do u wanna fill it out'
p888
aS'have you filled out the application'
p889
aS'fab 4'
p890
aS'why would we do that'
p891
aS'can we be foolish4 20'
p892
aS'whats a fallopian'
p893
aS'yes'
p894
aS'2 glam 2 give a damn'
p895
aS'stop begging for attention lmao'
p896
aS'i screamned'
p897
aS'this is literally your year ok'
p898
aS'omg alyssa'
p899
aS'love my friends more than anythinglt3333333 \xe2\x9d\xa4\xef\xb8\x8f\xe2\x9d\xa4\xef\xb8\x8f\xe2\x9d\xa4\xef\xb8\x8fthey r cooler than u'
p900
aS'i dont know what to tweet so twitter user lukebrooks hi'
p901
aS'fave this if you see it because why not'
p902
aS'love u'
p903
aS'i saw that'
p904
aS'be my 45'
p905
aS'tell me a joke'
p906
aS'hey i lov u'
p907
aS'its not for us to have if you have it keep it to yourself'
p908
aS'why would u tweet it lol'
p909
aS'mtvstars one direction'
p910
aS'if anyone were to come to my house and kidnap me id probably laugh and thank them'
p911
aS'va te faire foutre lt3'
p912
aS'austinmahoneto5million only 300k away  '
p913
aS'youre only 300k away from 5 million get austin to 5 million'
p914
aS'ilym'
p915
aS'lov u'
p916
aS'do you see this austin mahone breakoutartist peopleschoice'
p917
aS'why dont i look like you'
p918
aS'shower selfies oh my godd '
p919
aS'my idol has a couch in the shower wbu'
p920
aS'so i buy these shorts the lady says a small i think u need a medium'
p921
aS'i laugh every time austin attempts to rap'
p922
aS'if i never got my other account hacked and i still had daniels follow id have 45 sigh'
p923
aS'i love when austin sings human nature if he doesnt cover it on tour ill be sad'
p924
aS'austins high notesgtgtgt'
p925
aS'look at his stupid adorable face'
p926
aS'you shoulda asked him why he didnt wear the grandma sweater'
p927
aS'get to 8k '
p928
aS'so he chose the leather and im dfreaking out'
p929
aS'wiggity wiggity wiggity wiggle'
p930
aS'everyone follow get them to 1k '
p931
aS'get to 1k '
p932
aS'austin you have a segway but slow internet'
p933
aS'quote this with your goal and ill shout you out '
p934
aS'im going to rewatch the ustream bc why not'
p935
aS'why do u keep following and unfollowing lol'
p936
aS'200 followers away from 47k'
p937
aS'kyla'
p938
aS'it looks so pretty'
p939
aS'im on rt limit wtf'
p940
aS'tl'
p941
aS'\xe2\x98\xaf\xe2\x98\xbc\xe2\x98\xaf\xe2\x98\xbc\xe2\x98\xaf\xe2\x98\xbc\xe2\x98\xaf hiiii luke could you please follow me it would mean sooo much i love you \xe2\x98\xaf\xe2\x98\xbc\xe2\x98\xaf\xe2\x98\xbc\xe2\x98\xaf\xe2\x98\xbc\xe2\x98\xafx'
p942
aS'follow me please luke ilysm \xe2\x99\xa160'
p943
aS'omg please luke follow me it would mean the world to me please ilysm 41'
p944
aS'luke luke luke luke luke luke luke luke luke luke luke luke luke luke luke luke please follow me and be my 35 '
p945
aS'luke please be my 15 i love you and it would mean so much to me look this octopus wants you to\xf0\x9f\x90\x99 its popping\xe2\x80\xa6'
p946
aS'tweet me if you want spam rtd'
p947
aS'please follow me i love u so much \xe2\x99\xa5'
p948
aS'please please follow would mean a lot to her \xf0\x9f\x92\x9516'
p949
aS'\xf0\x9f\x8d\x94\xf0\x9f\x8d\x94\xf0\x9f\x8d\x94\xf0\x9f\x8d\x94\xf0\x9f\x8d\x94 \xf0\x9f\x8d\x9f\xf0\x9f\x8d\x9f\xf0\x9f\x8d\x9f please follow me i love you be my 15 \xf0\x9f\x8d\x9f\xf0\x9f\x8d\x9f\xf0\x9f\x8d\x9f \xe2\x80\xa6'
p950
aS'please follow me youre my fave dont tell jai \xf0\x9f\x99\x8a52'
p951
aS'hey luke follow now \xf0\x9f\x92\x95'
p952
aS'lol i have no friends luke so i will have to try myself so plsssss follow me \xf0\x9f\x8c\xb8\xf0\x9f\x8c\xb8\xf0\x9f\x8c\xb8\xf0\x9f\x8c\xb8\xf0\x9f\x8c\xb8\xf0\x9f\x8c\xb8\xf0\x9f\x8c\xb8\xf0\x9f\x8d\x95\xf0\x9f\x8d\x95\xf0\x9f\x8d\x95\xf0\x9f\x8d\x95\xf0\x9f\x8d\x95\xf0\x9f\x8d\x95\xf0\x9f\x8d\x95\xf0\x9f\x8d\x95\xf0\x9f\x8d\x95\xf0\x9f\x8d\x95\xf0\x9f\x8d\x95\xf0\x9f\x8c\xb8\xf0\x9f\x8c\xb8\xf0\x9f\x8c\xb8\xf0\x9f\x8c\xb8\xf0\x9f\x8c\xb8\xf0\x9f\x8c\xb8\xf0\x9f\x8c\xb8\xf0\x9f\x8c\xb8\xf0\x9f\x8c\xb8\xf0\x9f\x8c\xb8\xe2\x80\xa6'
p953
aS'no one rts me lol \xe2\x98\x80\xef\xb8\x8f\xf0\x9f\x8c\xb9\xe2\x98\x80\xef\xb8\x8f\xf0\x9f\x8c\xb9\xe2\x98\x80\xef\xb8\x8f\xf0\x9f\x8c\xb9 please follow me luke be my 15 itd mean the world to me ilysm \xe2\x98\x80\xef\xb8\x8f\xf0\x9f\x8c\xb9\xe2\x98\x80\xef\xb8\x8f\xe2\x80\xa6'
p954
aS'clearly youre not going to follow me today'
p955
aS'me and please follow us we all love you sooo much \xe2\x80\xa6'
p956
aS'please follow and me x51'
p957
aS'luke follow me please'
p958
aS'luke please follow me be my 25 ive been trying so long please \xf0\x9f\x99\x8f\xf0\x9f\x92\x95\xf0\x9f\x99\x8f\xf0\x9f\x92\x95\xf0\x9f\x99\x8f\xf0\x9f\x92\x95\xf0\x9f\x99\x8f\xf0\x9f\x92\x9513'
p959
aS'luke follow me and i will be happy ily \xf0\x9f\x8d\xae 65'
p960
aS'i love you so much just please notice me ive been trying so hard im on the verge of giving up ple\xe2\x80\xa6'
p961
aS'please follow me and'
p962
aS'thats pretty much what im doing tbh'
p963
aS'congrats babe your so lucky to get noticed by luke if i was in ur position if be sitting in my closet cr\xe2\x80\xa6'
p964
aS'itd mean a lot if you followed me \xe2\x9d\xa4\xef\xb8\x8f please id be so happy if you hit my follow button \xf0\x9f\x92\x9c'
p965
aS'daniel and jai ur all i need'
p966
aS'please follow me you are so important to me  please rt me'
p967
aS'please rt me so luke can follow ne'
p968
aS'ive been here from the start and you still never notice me'
p969
aS'follow and please baby they all deserve it 12'
p970
aS'please follow me and x4'
p971
aS'luke pleaee refollow me \xf0\x9f\x92\x95\xf0\x9f\x92\x95\xf0\x9f\x92\x95\xf0\x9f\x92\x95\xf0\x9f\x92\x95\xf0\x9f\x92\x95\xf0\x9f\x92\x95\xf0\x9f\x92\x95\xf0\x9f\x92\x95\xf0\x9f\x92\x95 \xf0\x9f\x92\x97\xf0\x9f\x92\x97\xf0\x9f\x92\x97\xf0\x9f\x92\x97\xf0\x9f\x92\x97\xf0\x9f\x92\x97\xf0\x9f\x92\x97\xf0\x9f\x92\x97\xf0\x9f\x92\x97\xf0\x9f\x92\x97 \xf0\x9f\x98\x98\xf0\x9f\x98\x98\xf0\x9f\x98\x98\xf0\x9f\x98\x98\xf0\x9f\x98\x98\xf0\x9f\x98\x98\xf0\x9f\x98\x98\xf0\x9f\x98\x98\xf0\x9f\x98\x98\xf0\x9f\x98\x98 \xf0\x9f\x8d\x94\xf0\x9f\x8d\x94\xf0\x9f\x8d\x94\xf0\x9f\x8d\x94\xf0\x9f\x8d\x94\xf0\x9f\x8d\x94\xf0\x9f\x8d\x94\xf0\x9f\x8d\x94\xf0\x9f\x8d\x94\xf0\x9f\x8d\x94 5'
p972
aS'please luke \xf0\x9f\x92\x95\xf0\x9f\x99\x8a\xf0\x9f\x92\x95\xf0\x9f\x99\x8a\xf0\x9f\x92\x95\xf0\x9f\x99\x8a\xf0\x9f\x92\x95\xf0\x9f\x99\x8a\xf0\x9f\x92\x95\xf0\x9f\x99\x8a\xf0\x9f\x92\x95 follow me bby \xf0\x9f\x92\x95\xf0\x9f\x99\x8a\xf0\x9f\x92\x95\xf0\x9f\x99\x8a\xf0\x9f\x92\x95\xf0\x9f\x99\x8a\xf0\x9f\x92\x95\xf0\x9f\x99\x8a\xf0\x9f\x92\x95\xf0\x9f\x99\x8a\xf0\x9f\x92\x95 xx jaianajsi'
p973
aS'please be my 55  '
p974
aS'be my 45 please omg 51'
p975
aS'please follow '
p976
aS'please tweet me to luke or rt this so he await i need 15 please'
p977
aS'follow and dm us please make our days lt3 bs'
p978
aS'please luke ps please rt me 21'
p979
aS'please luke follow me and you dont know how much it means to me and her\xe2\x9d\xa4\xf0\x9f\x91\x8cgfgh'
p980
aS'follow me follow me follow me  follow me follow me follow me follow me follow me follow me follow \xe2\x80\xa6'
p981
aS'\xf0\x9f\x92\x9b\xf0\x9f\x92\x99\xf0\x9f\x92\x9b\xf0\x9f\x92\x99\xf0\x9f\x92\x9b\xf0\x9f\x92\x99 hey can you make my day and be my 35 ilysfm xx \xf0\x9f\x92\x99\xf0\x9f\x92\x9b\xf0\x9f\x92\x99\xf0\x9f\x92\x9b\xf0\x9f\x92\x99\xf0\x9f\x92\x9b'
p982
aS'follow now'
p983
aS'please be my 25'
p984
aS'please follow me and itd mean so much please luke we love you 48'
p985
aS'please follow me and itd mean so much please luke we love you74'
p986
aS'please follow me and itd mean so much please luke we love you 65'
p987
aS'please follow me and itd mean so much please luke we love you 7834'
p988
aS'please follow me and itd mean so much please luke we love you65'
p989
aS'im rting all the luke spamm i see '
p990
aS'hey luke could you please take 2 seconds of your time to notice me\xf0\x9f\x8c\xb812'
p991
aS'luke sunshine please follow me ilysm x82'
p992
aS'luke pls follow me be my 25 ilysfm 10'
p993
aS'please follow me and itd mean so much please luke we love you 4893'
p994
aS'please follow me and itd mean so much please luke we love you 86'
p995
aS'please follow me and itd mean so much please luke we love you 98'
p996
aS'please follow me and be my 25'
p997
aS'will you please be my 25'
p998
aS'pls follow everyone who rtd this'
p999
aS'please follow me and itd mean so much please luke we love you 5'
p1000
aS'please follow me and itd mean so much please luke we love you 6'
p1001
aS'please follow me and itd mean so much please luke we love you 7'
p1002
aS'please follow me and itd mean so much please luke we love you 8'
p1003
aS'please follow me and itd mean so much please luke we love you 9'
p1004
aS'please follow me and itd mean so much please luke we love you 10'
p1005
aS'please follow me and itd mean so much please luke we love you 11'
p1006
aS'please follow me and itd mean so much please luke we love you 12'
p1007
aS'please follow me and itd mean so much please luke we love you 13'
p1008
aS'please follow me and itd mean so much please luke we love you 14'
p1009
aS'please follow me and itd mean so much please luke we love you 15'
p1010
aS'please follow me and itd mean so much please luke we love you 16'
p1011
aS'if i follow you already retweet all your friends tweets that need a follow onto my timeline '
p1012
aS'please follow amp'
p1013
aS'for a dm to luke no need to follow just wanna help  dming the link '
p1014
aS'congrats'
p1015
aS'gotchu bby'
p1016
aS'please follow and be her 25 '
p1017
aS'please follow and be her 25'
p1018
aS'please follow and be her 25'
p1019
aS'please follow and be her 25 '
p1020
aS'please follow and be her 25 '
p1021
aS'please follow and be her 25 '
p1022
aS'luke please follow'
p1023
aS'i have james its okay ill help '
p1024
aS'please follow'
p1025
aS'follow'
p1026
aS'congttas djehgzy'
p1027
aS'please follow and be her 25'
p1028
aS'you deserve it 35 omg'
p1029
aS'congrats he followed you dhsklssdfj ur so lucky '
p1030
aS'tweet me if you want me to dmtweet luke to follow you x'
p1031
aS'if any of your friends need a follow just tweet their usernames to me teamwork '
p1032
aS'who needs a luke follow ill tweet him users'
p1033
aS'oh my god congrats'
p1034
aS'im shanksi ng so bad i cant even typer'
p1035
aS'omg congrats on your luke follow u deserved it'
p1036
aS'congrats love '
p1037
aS'congrats'
p1038
aS'congrats omfhd '
p1039
aS'im actually bawling right now lurk oh ym e ogh'
p1040
aS'congrats'
p1041
aS'congrats'
p1042
aS'gennefsj thank uo'
p1043
aS'slepianw w congrats'
p1044
aS'thank you so muc h'
p1045
aS'i fuckign love you'
p1046
aS'congrats on youre luke follow'
p1047
aS'sure xx'
p1048
aS'i have 35 ohdt km a'
p1049
aS'iim s cygrting'
p1050
aS'lyuke folewlwoeds'
p1051
aS'oh ym ohgof luckre'
p1052
aS'oh my god'
p1053
aS'fuck face follow me'
p1054
aS'ok havent done a followdm spree in a while so rt this for a followdm '
p1055
aS'can i be ur shawty shawty'
p1056
aS'pls'
p1057
aS'we are the red glasses crew  seriously dontmesswithus'
p1058
aS'will sell soul to devil for a follow'
p1059
aS'pls luke '
p1060
aS'i bet austin actually wore the grandma sweater to the airport austin mahone breakoutartist peopleschoice'
p1061
aS'follow herltltltltltlt'
p1062
aS'theres a special place in hell for people like u'
p1063
aS'hannahh ongyh tkg'
p1064
aS'i could totally imagine austin running around the airport in a snuggie tho austin mahone breakoutartist peopleschoice'
p1065
aS'austin needs another award to put in his shower so retweet to vote for him austin mahone breakoutartist peopleschoice'
p1066
aS'luke u shit follow me pls'
p1067
aS'can someone please dm me to luke'
p1068
aS'luke please be my 35 it would mean the world to me pls 18'
p1069
aS'yeah'
p1070
aS'luke please be my 35 it would mean the world to me pls 17'
p1071
aS'luke please be my 35 it would mean the world to me pls 16'
p1072
aS'luke please be my 35 it would mean the world to me pls 15'
p1073
aS'luke please be my 35 it would mean the world to me pls 14'
p1074
aS'luke please be my 35 it would mean the world to me pls 13'
p1075
aS'luke please be my 35 it would mean the world to me pls 12'
p1076
aS'luke please be my 35 it would mean the world to me pls 11'
p1077
aS'luke please be my 35 it would mean the world to me pls 10'
p1078
aS'luke please be my 35 it would mean the world to me pls 9'
p1079
aS'luke please be my 35 it would mean the world to me pls 8'
p1080
aS'luke please be my 35 it would mean the world to me pls 7'
p1081
aS'luke please be my 35 it would mean the world to me pls 6'
p1082
aS'luke please be my 35 it would mean the world to me pls 5'
p1083
aS'luke please be my 35 it would mean the world to me pls 4'
p1084
aS'luke please be my 35 it would mean the world to me pls 3'
p1085
aS'luke please be my 35 it would mean the world to me pls 2'
p1086
aS'luke please be my 35 it would mean the world to me pls'
p1087
aS'so annoying smfh'
p1088
aS'stop'
p1089
aS'my dad babies and favors my sister too much'
p1090
aS'follow trick tweet  rt if u want to gain  follow me amp  follow everyone back  gain mtvsta\xe2\x80\xa6'
p1091
aS'im actually really mad'
p1092
aS'ily'
p1093
aS'jk'
p1094
aS'no '
p1095
aS'i might do a follow trick soon retweet if i should do one austin mahone breakoutartist peopleschoice'
p1096
aS'no '
p1097
aS'im goign to unfollow'
p1098
aS'no'
p1099
aS'snuck away with for ama pre party shenanigans notevenposing maybeposingabit'
p1100
aS'same'
p1101
aS'follow trick tweet  rt if u want to gain  follow me and  follow everyone back  gain mtvstars one dir\xe2\x80\xa6'
p1102
aS'this'
p1103
aS'your vagina is a virgin but your mind isnt'
p1104
aS'i just want austin to answer my dms or retweet me randomly wtf'
p1105
aS'stop giving him fucking children i cant deal'
p1106
aS'thats what i said'
p1107
aS'rt if you want to gain follow me amp that rts make sure you follow everyone bk hope ya gain mtvstars justin\xe2\x80\xa6'
p1108
aS'ill unfollow you'
p1109
aS'ask for a follow back x'
p1110
aS'what shirt did u decide on'
p1111
aS'i dont know if i wanna punch or hug u'
p1112
aS'same'
p1113
aS'what the fox say hadihadihadihadihad'
p1114
aS'pic i took of luke anthony mark brooks lamb yesterday in the backyard'
p1115
aS'did god put them there because he thinks im a dirty cunt good one god i get the point'
p1116
aS'i dm austin 247 now incase hell reply'
p1117
aS'tonight we get hq pictures of austin in a suit i am already crying'
p1118
aS'austin acknowledged my existence it can now die happy'
p1119
aS'falling asleep with headphones in and an old ustream playing is the best way to go to sleep'
p1120
aS'aw ily'
p1121
aS'name your top three favorite twitter accounts \xe2\x80\x94'
p1122
aS'tysm ily'
p1123
aS'always here for you smileee'
p1124
aS'no you cant i love you so much youre here for a reason do you know how many amazing people you will lose sta\xe2\x80\xa6'
p1125
aS'dont say that  im here if you need to vent  staystrong \xe2\x9d\xa4\xef\xb8\x8f'
p1126
aS'thanks ily'
p1127
aS'goodmorning btw'
p1128
aS'im yellingh i weanst to be lauren'
p1129
aS'idk im just going to go to sleep'
p1130
aS'very'
p1131
aS'i want to die so bad honestly'
p1132
aS'wish these thoughts would leaveeeeee'
p1133
aS'fucking follow me bitch ill kill you please lolz\xe2\x80\x9d'
p1134
aS'im feeling like super depressed rn and i really dont even have a real reason'
p1135
aS'those friendships that just end for no reason you just stop talking'
p1136
aS'if you want me gone so bad that could be arranged'
p1137
aS'i just want to be fucking happy'
p1138
aS'ohh gotcha'
p1139
aS'how long are you staying in la'
p1140
aS'are you tired its like 2 am'
p1141
aS'what were you'
p1142
aS'did u change ur user'
p1143
aS'keep clicking for me pretty please im almost to 12k'
p1144
aS'lol yay i made it to 5th but 4th is like 40k ahead'
p1145
aS'cross the line if you have that one person who you can vent to and they can ease the pain but only for the while youre\xe2\x80\xa6'
p1146
aS'cross the line if you think about suicide more than once every day'
p1147
aS'if you see this tweet in your timeline please click this its the last day and im almost in 5th'
p1148
aS'bangabanga austin mahone breakoutartist peopleschoice'
p1149
aS'voting 1 last time before i go to bed thanks austin ur an angel for doing the ustream for us austin mahone breakoutart\xe2\x80\xa6'
p1150
aS'jk im done with sims'
p1151
aS'im still playing sims sos'
p1152
aS'ily2 ok'
p1153
aS'been soooo busy lately'
p1154
aS'friends turn into foes'
p1155
aS'please dont pretend to care bc i know you dont'
p1156
aS'come back'
p1157
aS'if you dont like me please dont pretend to like me'
p1158
aS'mentionbeautifulperfectmahomie i hate this shit bc ur all beautiful and perfect and those who dont get one feel like shit so ur all perf'
p1159
aS'thanks '
p1160
aS'will do ilylt3'
p1161
aS'not you just someone specific ily doe thank u'
p1162
aS'its okay i dont want it to be a huge deal im just upset thats all'
p1163
aS'not like you care'
p1164
aS'people are jsut bothering me ill be okay'
p1165
aS'thanks'
p1166
aS'ily'
p1167
aS'dont let the hate get to you lt3 chin up theyre just jealous bc ur fab x'
p1168
aS'a lot'
p1169
aS'ill dm you'
p1170
aS'a lot'
p1171
aS'im actually shaking im so mad tbh'
p1172
aS'its just annoying how people feel the need to fucking stalk your life through twitter'
p1173
aS'sorry im pissed'
p1174
aS'noo'
p1175
aS'ily more'
p1176
aS'its seriously so annoying and i can tell shes been creeping on my tweets bc retweeted ur rt she doesnt even follow me lol'
p1177
aS'i dont understand if you hate me so much why are you constantly on my profile and tweeting about me all the time shut the fuck up'
p1178
aS'fuck off'
p1179
aS'have you ever been so fucking frustrated you just want to cry holy shit'
p1180
aS'im seriously so fucking sick of you i want to punch you in the face u stupid cunt'
p1181
aS'have you seen yourself lately youre stunning haha ily'
p1182
aS'i love you tooo gabby '
p1183
aS'loool'
p1184
aS'staying on twitter nonstop until you tweet me sorry'
p1185
aS'do an omegle hunt after the shower'
p1186
ag353
aS'i swear if austin follows me ill cry for a week austin mahone breakoutartist peopleschoice 37'
p1187
aS'if you rt this i will convince my mom to let us get a shower couch austin mahone breakoutartist peopleschoice'
p1188
aS'what'
p1189
aS'no ones ever tweeted me when they were in the shower'
p1190
aS'can i get a shower rt austin mahone breakoutartist peopleschoice'
p1191
aS'hows the couch'
p1192
aS'youve never tweeted me so can i have a shower tweet'
p1193
aS'can you shower tweet me'
p1194
aS'today stats 75 followers 42 unfollowers and followed 12 people via'
p1195
aS'i think the fact that austinmahoneiscurrentlynaked is trending is my que to go back to sims adios'
p1196
aS'i cant stiop laughing'
p1197
aS'chants nudes nudes nudes austinmahoneiscurrentlynaked'
p1198
aS'did you start this'
p1199
aS'austinmahoneiscurrentlynaked is trending and i have never laughed so hard'
p1200
aS'fag lol ily'
p1201
aS'tweeting from the shower \xf0\x9f\x98\xb1'
p1202
aS'shower tweet me'
p1203
aS'stop lmao'
p1204
aS'yes on ur face'
p1205
aS'guess im not his kinda girl'
p1206
aS'lmao not me'
p1207
aS'yeah if im not tweeting im playing sims'
p1208
aS'my idol bought a couch and waterproof case for his phone for when he takes showers wbu'
p1209
aS'sims date with because we have post ustream depression'
p1210
aS'when he does ustreams i literally forget about every single thing wrong hes the only thing that matters'
p1211
aS'can i have a shower tweet'
p1212
aS'i didnt think i could fall more in love with austin but i was wrong'
p1213
aS'ustreams can make me forget about all my troubles for an hour'
p1214
aS'he hasnt changed hes still that idiot i fell in love with in 2011'
p1215
aS'im honestly going to buy an inflatible chair and put it in my shower and see what my mom says'
p1216
aS'can i get a shower retweet austin mahone breakoutartist peopleschoice'
p1217
aS'that ustream was an hour and 20 minutes praise'
p1218
aS'thank you for eveything you do for us'
p1219
aS'the fucking fact that he comes back on just to do the heart makes my heart flutter'
p1220
aS'he came back just to do the heart ohmygosh i love him'
p1221
aS'he came back what'
p1222
aS'hes so fucking cute bye'
p1223
aS'now that his ustream is over what am i suppose to do with my life'
p1224
aS'mine ended before he said bye'
p1225
aS'no come back you didnt say bye'
p1226
aS'stop'
p1227
aS'a u s t i n m a h o n e again thats a u s t i n m a h o n e one more time thats a u s t i n m a h o n e'
p1228
aS'no stop'
p1229
aS'remwmeber when him and ac would write doen the usernames my emotions'
p1230
aS'say that one more time austin and im unfollowing'
p1231
aS'his cute fucking smile i have to shower ok i just wanna use my couch'
p1232
aS'i didnt know that'
p1233
aS'austins presenting'
p1234
aS'who knew clicking that cover of with you would save my life'
p1235
aS'i cant stop crying im actually bawling'
p1236
aS'this makes me bawl my eyes out this is the video that changed my life'
p1237
aS'this is the dfirst cover i wever watched'
p1238
aS'i swear twe world stop ur my sweetheart amnd'
p1239
aS'austin is such a fucking dork never change okay i love u so much'
p1240
aS'hes just jumping aroubf im do happy'
p1241
aS'oh oh oh that thrust'
p1242
aS'what is he even doing oh my fod'
p1243
aS'yes my mom got off the computer instead of mty laptop yes this is so much faster'
p1244
aS'please do the grind on me i beg of you'
p1245
aS'i want to pound his head into a wall i hate him but love him'
p1246
aS'youre white stop'
p1247
aS'austindoagrindonme'
p1248
aS'what is he doing im lauhging so hard'
p1249
aS'hannah montana no'
p1250
aS'the thirst'
p1251
aS'pizza or mahomies'
p1252
aS'a tissue for all these fucking tears u caused mahone'
p1253
aS'i need a tissue i am austin austin is me we are one'
p1254
aS'tiggers staring at him with a smile on his face tigger is one of us'
p1255
aS'i love when hes himself'
p1256
aS'what are you doing im crying with laugheterd bye'
p1257
aS'you still cant rap austin'
p1258
aS'petition for acoustic version of banga banga pls'
p1259
aS'pizza or mahomies'
p1260
aS'if i stop tweeting its bc im too busy crying tbh'
p1261
aS'im literally bawling my make up is running down mt face im not cute'
p1262
aS'naby if i u was ur man'
p1263
aS'i love heart in my hand'
p1264
aS'i love how much more austin has been interacting with us ustream omegle dming people following more it makes me really happy'
p1265
aS'sing beautiful soul'
p1266
aS'fave this if you see it dont lie'
p1267
aS'im bawling i need help'
p1268
aS'i can see you but if you see me then say hi alyssa'
p1269
aS'if you see this say my user '
p1270
aS'if you see this say my user '
p1271
aS'if you see this say my user'
p1272
aS'come back'
p1273
aS'is he off air for everyone else'
p1274
aS'im actually bawling literally this makes me happier than anything'
p1275
aS'you still cant rap'
p1276
aS'say hi to alyssa'
p1277
aS'you make me so happy'
p1278
aS'shoewer selfies'
p1279
aS'yes give me a small angry'
p1280
aS'maybe when im 25 im peeing'
p1281
aS'lady listen here'
p1282
aS'i think you need a medium lmao austin ur fat'
p1283
aS'stop freexing im so bnad'
p1284
aS'my laptop keeps freezing im gonna throw it out my window'
p1285
aS'stop freezing or else im gonna have a fit'
p1286
aS'i cant stop laughing i sounded so white'
p1287
aS'oh ymf'
p1288
aS'you cant rap'
p1289
aS'i want to be the girl hes singing this to on stage in 96 days it will happen'
p1290
aS'im not kidding when i say im bawling right now'
p1291
aS'why cant he sing this to me'
p1292
aS'i cant stop cyrign'
p1293
aS'asotp'
p1294
aS'are you going to sing it again'
p1295
aS'what is he doing im lauhginv oah ard'
p1296
aS'hes so funny i cant stop laughing'
p1297
aS'i love songs explains why youre a singer austin'
p1298
aS'2  live at'
p1299
aS'wear the leather tee'
p1300
aS'it looks ok but i look better on you'
p1301
aS'is that an old lady or is that austin'
p1302
aS'youll look like an old lady strolling through the airport'
p1303
aS'i dont know why i keep punching myself'
p1304
aS'austinto5million'
p1305
aS'i cant stop crying he makes me so happy'
p1306
aS'he makes me so weak'
p1307
aS'the high norete'
p1308
aS'i live him so nmuchaq'
p1309
aS'rt if u would rub austins sore butt'
p1310
aS'when austin sings human nature i cry literally im cyring bye'
p1311
aS'his butt hurts'
p1312
aS'im mad at my mom because she wont let me on the desktop computer and my laptops slow af'
p1313
aS'its just a phase my mom 2 years ago phase yeah'
p1314
aS'catching fire was too good catchingfire selfie selfienation'
p1315
aS'why do you like making me emotional'
p1316
aS'its 8 pm'
p1317
aS'thats u'
p1318
aS'thanks bby'
p1319
aS'gorgeous'
p1320
aS'hey thur gorg'
p1321
aS'who wants to snapchattt hmu alyssaamariex'
p1322
aS'selfie '
p1323
aS'not going to be on twitter until austin does his ustream bc when he does ill get tweet limit in 5 seconds so toodles'
p1324
aS'triciasnddjs'
p1325
aS'why did you buy a waterproof iphone case to text in the shower can i see your search history no'
p1326
aS'really'
p1327
aS'i would sell my soul to the devil to kiss josh or gale even once'
p1328
aS'if austin broke his phone in the shower id be laughing too hard to feel sorry for him'
p1329
aS'people hating on me for not liking tyler oakley well sorry for having an opinion'
p1330
aS'good'
p1331
aS'dont lie'
p1332
aS'im so mad because we have to wait a whoooleeee year for mockingjay'
p1333
aS'catching fire was sooo good'
p1334
aS'did austin already do the ustream'
p1335
aS'if austin is late to a ustream just imagine when he goes on dates austin mahone breakoutartist peopleschoice'
p1336
aS'rt if youre going to watch the ustream austin mahone breakoutartist peopleschoice'
p1337
aS'if your name is and can eat icecream with a fork rt this austin mahone breakoutartist peopleschoice'
p1338
aS'rt bc we get a ustream austin mahone breakoutartist peopleschoice'
p1339
aS'same'
p1340
aS'its so good omg i cried'
p1341
aS'that 1d shirt tho\xe2\x80\x9d represent'
p1342
aS'catching fire bye'
p1343
aS'please dpmt dp a ustream until catching fire is over fo it like 67 pm ok'
p1344
aS'this is my new fav reaction pic what hdghidf'
p1345
ag353
aS'i dropped it in a bucket'
p1346
aS'1996 '
p1347
aS'good times'
p1348
aS'my meet and greet pic'
p1349
aS'i laughed so hard at this austin mahone breakoutartist peopleschoice'
p1350
aS'maddie and austin just held hands '
p1351
aS'maddie just had her hands around austin omfg'
p1352
aS'maddie dont even fucking start'
p1353
aS'i actually cant brealke'
p1354
aS'96 more dayz'
p1355
aS'tylyssa'
p1356
aS'remember'
p1357
aS'i need to bring this back l o l remember'
p1358
aS'can we just'
p1359
aS'she saw maddie tweeted you and she was like ayeitsmahone is my girl fuck you maddie bitch and yeah lol'
p1360
aS'alyssa is really supportive'
p1361
aS'are you ok dm me'
p1362
aS'stop'
p1363
aS'i literally just screamigfed'
p1364
aS'im so happy for rap idec'
p1365
aS'fmsngkl rapth waht yo uyou aw sd ha confrgrats'
p1366
aS'i wonder if the crew talk about people from twitter hmmm'
p1367
aS'fail pick up lines brought to you by lauren'
p1368
aS'i love how i keep voting even tho austin will never notice me  austin mahone breakoutartist peopleschoice'
p1369
aS'ur perfect honestly ur like a queen i just'
p1370
aS'stop that right now ilysm'
p1371
aS'omf what no dont be intimidated im a loser youre flawless ilysm'
p1372
aS'ayeitsmahone  love ur acc kinda feel intimidated by ur perfection bc so many followers love ur icon and header'
p1373
aS'i really dont care who retweeted my retweet'
p1374
aS'rt for an indirect free bc its my birthday and im feeling nice but would appreciate a follow fan accs only'
p1375
aS'the janoskians have no real purpose for being in la but theyre having fun and theyre happy and thats all that matters t\xe2\x80\xa6'
p1376
aS'same'
p1377
aS'i laughed so hard at this austin mahone breakoutartist peopleschoice thats \xe2\x80\xa6'
p1378
aS'new video soon 1 month later still no new video'
p1379
aS'retweet this because austin might do a ustream tonight austin mahone breakoutartist peopleschoice'
p1380
aS'this fandom is so boring like i literally have more entertainment at school'
p1381
aS'idk if this actually works but i might as well try rt and ill spam dm this link to louis  liam and niall loads during 1\xe2\x80\xa6'
p1382
aS'retweet bc we might get a ustream today austin mahone peopleschoice breakoutartist'
p1383
aS'idc if youre dying sick in love happy or not just click on that rt button for austin austin mahone breakoutart\xe2\x80\xa6'
p1384
aS'\xf0\x9f\x8c\xb4\xf0\x9f\x8d\x93\xf0\x9f\x8c\xb4\xf0\x9f\x8d\x93\xf0\x9f\x8c\xb4\xf0\x9f\x8d\x93\xf0\x9f\x8c\xb4\xf0\x9f\x8d\x93\xf0\x9f\x8c\xb4\xf0\x9f\x8d\x93\xf0\x9f\x8c\xb4\xf0\x9f\x8d\x93 if this gets 100 rts will you follow me and it means the world to us we love\xe2\x80\xa6'
p1385
aS'lets just say im not clean anymore'
p1386
aS'55 would be perfect but guess who hasnt got it right thats moi'
p1387
aS' rt if you want to gain  follow and whoever rts  follow everyone back  hope yall gain mtvstars justin b\xe2\x80\xa6'
p1388
aS' rt if you want to gain  follow and whoever rts  follow everyone back  hope yall gain mtvstars justin bieber'
p1389
aS'everyone of austins music videos the girls walking away from him austin catch the hint'
p1390
aS'i have a feeling austins gonna do the ustream at the most inconvenient time of the day'
p1391
aS'i laughed so hard at this austin mahone breakoutartist peopleschoice omg true'
p1392
aS'imm laughing so hard'
p1393
aS'rt for a dm'
p1394
aS'i just want to feel this moment'
p1395
aS'i hope its true i dont want to be put in sack by an old fat guy'
p1396
aS'so fucking done'
p1397
aS'leaked photos of my wedding day'
p1398
aS'i love u so much u make me feel so happy safe and warm youre everything to me i want to sleep with u forever tweeting\xe2\x80\xa6'
p1399
aS'ew lmfao'
p1400
aS'just finished drawing this one live free'
p1401
aS'whos gonna watch it \xe2\x80\x9d your sex tape of course'
p1402
aS'austin already won 5 awards without an album so now lets win this austin mahone breakoutartist peopleschoice'
p1403
aS'tysm'
p1404
aS'how many followers do i have can someone get the exact ammount pls'
p1405
aS'good morning'
p1406
aS'if this gets 100 rts could you please make my dream come true and follow me\xe2\x99\xa5 i love you \xe2\x99\xa5'
p1407
aS'i wish i could take all the pain you had and add it to mine that would hurt less for me'
p1408
aS'he faved doe too bad u dont have a boob to rip'
p1409
aS'probably going to bedddddddddddddd'
p1410
aS'if austin does a ustream tomorrow i will throw up because i will be so excited'
p1411
aS'we care so much nancy i love you'
p1412
aS'the rts omg'
p1413
aS'i havent even listened to it since last night and ive been singing it all day idont understand'
p1414
aS'i honestly dont need that many rts i just need motivation'
p1415
aS'if austin does a ustream tomorrow i swear life will be better for me'
p1416
aS'rt this if you want me to stalk your acc im bored af'
p1417
aS'ive had u stuck in my head all day i cant stop singing it but it just makes me sad bc it will never be me'
p1418
aS'austin and camila omf'
p1419
aS'if i win this ill literally shower u all in love'
p1420
aS'please just click this im close to being in 5th ohgdfk g'
p1421
aS'im in sixth place and i have 2 more days to do this ohy myfgo'
p1422
aS'ur so cute i wanna make out with u for 87 hours'
p1423
aS'that shouldnt happen just bc you deactived idgi'
p1424
aS'if i were austin id probably spend the whole day looking at myself in the mirror naked'
p1425
aS'nice  i mean not for your surgery ill be praying for yoult3 but nice  because youre getting subway '
p1426
aS'rt for a handwritten indirect '
p1427
aS'rt if robert follows you favorite if he doesnt \xf0\x9f\x92\x95'
p1428
aS'just took my moms phone and voted for austin mahone peopleschoice breakoutartist'
p1429
aS'youre cute'
p1430
aS'im so tired its not even midnight'
p1431
aS'touches austins ass at a mampg i am so sorry that was an assident'
p1432
aS'too wild'
p1433
aS'ayyy lmao'
p1434
aS'lets make out'
p1435
aS'youre just annoying lmao'
p1436
aS'it fits'
p1437
aS'katniss doesnt die thooooo'
p1438
ag353
aS'read the book'
p1439
aS'liar shut up'
p1440
aS'rt if you see this austin mahone breakoutartist peopleschoice'
p1441
aS'tell me something in spanish'
p1442
aS'no'
p1443
aS'lets win this for him austin mahone breakoutartist peopleschoice'
p1444
aS'ustream tomorrow'
p1445
aS'yes '
p1446
aS'youre cuter tho'
p1447
aS'im seeing catching fire tomorrow tho do it before 4pm or after 7pm iiight'
p1448
aS'wait yes but not between 47 pm'
p1449
aS'ty rob for the snapchat accept'
p1450
aS'idc im proud getting lowerrrrr '
p1451
aS'i love my best friend id be so alone without her'
p1452
aS'me me me mem me mem em mem em me mlife life lfeilfeifel ifelife'
p1453
aS'i feel stupid for liking \xe2\x80\xa6'
p1454
aS'the accuracy'
p1455
aS'lets do this with each other'
p1456
ag353
aS'there comes a point where you just give up give up on yourself on friends on love on life on everything'
p1457
aS'im embarrassing and boring and ugly and im sorry'
p1458
aS'me accidently ruins everything'
p1459
aS'all ive gained from 2013 is weight'
p1460
aS'this picture is so powerful'
p1461
aS'yess lol'
p1462
aS'my night summed up in one picture \xf0\x9f\x91\x8c lovethem greatnight fnf football bulldogs bffs'
p1463
aS'dysfunctional i know'
p1464
aS'look how disfinctional we are'
p1465
aS'im nto rbeathing'
p1466
aS'you need legs'
p1467
aS'surfs juggles and hangs at the halo awards on this weeks mahomiemadness rt'
p1468
aS'i still remember the video that turned me into a mahomie austin mahone breakoutartist peopleschoice'
p1469
aS'when i listen to banga banga i cant help doing a little dance no matter where i am lol austin mahone breakoutartist peo\xe2\x80\xa6'
p1470
aS'austin answer me please  yes or no austin mahone peopleschoice breakoutartist'
p1471
aS'im literalyly the happiest person rn nothinrf an tuin this'
p1472
aS'im shakif'
p1473
aS'im cryig tears of blood'
p1474
aS'doesnt that make it worth it'
p1475
aS'katyin'
p1476
aS'im shakifn'
p1477
aS'today stats 58 followers 41 unfollowers and followed 5 people via'
p1478
aS'byeeee guys football gamess'
p1479
aS'im so hungry can you make me pizza'
p1480
aS'i laughed so hard at this austin mahone breakoutartist peopleschoice'
p1481
aS'omf'
p1482
aS'one aw'
p1483
aS'11 more '
p1484
aS'i\xe2\x80\x99m performing at the thanksgiving day parade \xf0\x9f\x98\x9dmacysparade'
p1485
aS'the greatest pleasure in life is doing what people say you cannot do'
p1486
aS'no'
p1487
aS'lolololol im off omegle'
p1488
aS'lol just saw you on omegle  austin mahone breakoutartist peopleschoice'
p1489
aS'wounds heal but scars they remain the same'
p1490
aS'idg why you lie lol'
p1491
aS'youre a liar lmao stop'
p1492
aS'if you were on omegle with austin i hate you jk congrats'
p1493
aS'same'
p1494
aS'smile you deserve to be happy'
p1495
aS'hello'
p1496
aS'i was like do i know who that is then i was like bye then i was like wait that was angelikaomgskdl'
p1497
aS'99 sure i just found u if ur on'
p1498
aS'who think should do a ustream right now '
p1499
aS'if austin does a ustream i hope its at 6 est so i can cancel my plans like old times to watch i'
p1500
aS'normal time please like old times'
p1501
aS'keep looking on omegle'
p1502
aS'tonightttttttttttttt'
p1503
aS'aso hes sitll on maybe'
p1504
aS'i found alyssa awe'
p1505
aS'ausitn tweeted coral im sueing'
p1506
aS'how long ago was this'
p1507
aS'no im alone'
p1508
aS'dont lie lmao ur a fag'
p1509
aS'go back on omegel'
p1510
aS'rt if you think should have an austream since its friday  ustreamclassic'
p1511
aS'sorry hahah'
p1512
aS'lmao its okayyy ily'
p1513
aS'how klong ago'
p1514
aS'i found jen lmao'
p1515
aS'was that jsut now'
p1516
aS'if u find me on omegle im sending everyone my twitter '
p1517
aS'text or chat'
p1518
aS'i laughed so hard at this austin mahone breakoutartist peopleschoice truth'
p1519
ag353
aS'ff'
p1520
aS'what the hell im so mad austin youre a faggot'
p1521
aS'waht the ycjf why didi m miss this i s maos'
p1522
aS'bye '
p1523
aS'ive been gone for three days not looking forward to all the make up work'
p1524
aS'i have to go to school rt this pls while im gone '
p1525
aS'thanks '
p1526
aS'i have to go to the bus soon sigh'
p1527
aS'austin mahone breakoutartist peopleschoice bangabanga'
p1528
aS'every click counts please i have until sunday '
p1529
ag353
aS'i get really defensive when people at school like austin hes mine bye'
p1530
aS'i feel as invisible to u as mileys eyebrows\xe2\x80\x9d'
p1531
aS'isnt it almost 4 an'
p1532
aS'i wanna fall back asleep'
p1533
aS'jais hair is perfect jais tattoos are perfect jais smile is perfect jais personality is perfect jais body is perfect\xe2\x80\xa6'
p1534
aS'i still remember the video for say somethin and now we are about to see banga banga  austin mahone breakoutartist\xe2\x80\xa6'
p1535
aS'i cant wait for banga bangas video austin mahone breakoutartist peopleschoice'
p1536
aS'too many people spend money they haven\xe2\x80\x99t earned to buy things they don\xe2\x80\x99t want to impress people they don\xe2\x80\x99t like'
p1537
aS'ff'
p1538
aS'nancy im keeping that promise ily'
p1539
aS'goodnight'
p1540
aS'me'
p1541
aS'i really need to put my clothes in some drawers as much as i love the look of them on the floor'
p1542
aS'see'
p1543
aS'follow me'
p1544
aS'you go through with it and so will i im on the edge too i cant do it withouy you'
p1545
aS'stop im crying dont please'
p1546
aS'rt for a dm to jai \xe2\x9c\xbc mbf'
p1547
aS'mahomies unite retweet all tweets tagged  austin mahone breakoutartist peoples\xe2\x80\xa6'
p1548
aS'exactlyy thats why im not telling anyone amd i dont plan on sending any'
p1549
aS'im giving away an acc with a liam louis and harry follow rt this for a chance to win i will announce the winner tomorro\xe2\x80\xa6'
p1550
aS'rt for a dm to daniel \xe2\x9c\xbc mbf '
p1551
aS'goodnight \xf0\x9f\x92\x95\xf0\x9f\x92\x95\xf0\x9f\x92\x95 breakoutartist peopleschoice'
p1552
aS'well'
p1553
aS'to get the milk to shake ir'
p1554
aS'oopsies'
p1555
aS'peyton never fails to amaze me with his talent'
p1556
aS'why'
p1557
aS'you gotta milk the cow austinsmilkshakesbringsallthegirlstotheyard'
p1558
aS'you have me please im here dm me'
p1559
aS'i have to be up in 5 hours lol'
p1560
aS'tomorrrrow'
p1561
aS'jealous of the mahomies who constantly go to austins concerts'
p1562
aS'no babe its not going to be worth it theres a reason why you stayed so long'
p1563
aS'ebens cute'
p1564
aS'20 rts  20 votes austin mahone breakoutartist peopleschoice'
p1565
aS'i respect you if you retweet this austin mahone breakoutartist peopleschoice'
p1566
aS'retweet this because every retweet counts as a vote \xf0\x9f\x98\x8a austin mahone breakoutartist peopleschoice'
p1567
aS'lucky omfq i just dont know roberts \xf0\x9f\x98\xad'
p1568
aS'\xf0\x9f\x98\x81 u 2'
p1569
aS'we fly to austin you can see our current deals here youre the besf'
p1570
aS'austin mahone breakoutartist peopleschoice '
p1571
aS'were glad youre also having fun tonight'
p1572
aS'youre sweet can you fly me to miami so i can see austin mahone'
p1573
aS'u never snapchat me back'
p1574
aS'im most likely going to end up tweeting on my ipod but im gonna get off the computer before i get introuble for being awake'
p1575
aS'i love this so much oh my gosh hes so happy literally nothing makes me happier than this'
p1576
aS'cheesin'
p1577
aS'this made me laugh really hard'
p1578
aS'takemehome banging on'
p1579
aS'dont forget austin mahone breakoutartist peopleschoice'
p1580
aS'austin mahone breakoutartist peopleschoice'
p1581
aS'youre so cute im going to drown myself in tears'
p1582
aS'im just cheesin for no reason lol'
p1583
aS'austin is such a white girl sippen on his pumpkin spice latt\xc3\xa9 scrolling through his igtwitter feed'
p1584
aS'if you dont think the crew is sexual then you need to rethink your thinking then after that drown yourself'
p1585
aS'his name is cleverrrr'
p1586
aS'roberts and alexs omf'
p1587
aS'dms'
p1588
aS'same'
p1589
aS'yes'
p1590
aS'and alexs ney'
p1591
aS'wayssssssss'
p1592
aS'i have roberts snapchattt'
p1593
aS'im yellingf'
p1594
aS' '
p1595
aS'first love is meant to happen maybe temporary or permanent but whether it is or not it truly is unforgettable'
p1596
aS'when james opens your snapchats and doesnt reply lt3333333'
p1597
ag353
aS'this speaks to me'
p1598
aS'some days i feel like'
p1599
aS'moneys universal thats the only language'
p1600
aS'excited to meet midnight red againnn when i see austin in feb lt3'
p1601
aS'its funny that theyre playing midnight red because theyre also touring with austin ha ha ha'
p1602
aS'u lt3 me'
p1603
aS'theyre playing take me home on 1027'
p1604
aS'dont talk about the tour im sad'
p1605
aS'im on with on tonight at 9pm pst for the top 9 9  tune in'
p1606
aS'\xe2\x99\xa1 follow trick \xe2\x99\xa1 \xe2\x9c\xbf rt this tweet \xe2\x9c\xbf follow me amp amp \xe2\x9c\xbf amp everyone who rts \xe2\x9c\xbf gain fb x mtvst\xe2\x80\xa6'
p1607
aS'go and follow gt '
p1608
aS'i would never'
p1609
aS'no brittany '
p1610
aS'its midnight heree and i have school leggo'
p1611
aS'so this is what u do when u dont tweet'
p1612
aS'girlfriend boyfriend and the third wheeler'
p1613
aS'i wish they would accept the request so i could creep oops'
p1614
ag353
aS'especially bc that user idk i could see austin if he had a secret account as something he would have ya feel'
p1615
aS'hey you you make me really happy you make me smile even when im sad thank you for that i hope you understand how m\xe2\x80\xa6'
p1616
aS'accept me '
p1617
aS'omf ilysm jghagjk than u'
p1618
aS'ayeitsmahone  ayeitsperfect that should be yur username bc daymmm guurl this account is cute af'
p1619
aS'rt for a dm to luke brooks mbf'
p1620
aS'never be afraid to look someone in the eye'
p1621
aS'rt for a dm to jai brooks mbf'
p1622
aS'how did jai transform from this prepubescent boy who straightened his hair and had pimples to a straight up sex demon'
p1623
aS'agreed id rather he date someone whos sweet than a gold digger tbh'
p1624
aS'thank you for keeping me strong idk what id do with you i love you so much'
p1625
aS'bri babe i lvoe you so so so much'
p1626
aS'the janoskians havent been tweeting a lot recently they should leak their nudes and all shall be forgiven'
p1627
aS'what do yall have against camila anyways shes so sweet and flawless like she wont hurt him'
p1628
aS'i know idek she accepted me then blocked me and umblocked but wont accept me again idgi'
p1629
aS'dontstandintheway 2142014 is everyone just going to ignore this'
p1630
aS'optimism is contagious surround yourself with positive people'
p1631
aS'idk i saw on tumblr and idk dopetexan sounds sketchyyy too'
p1632
aS'lmaooo'
p1633
aS'me pls babe'
p1634
aS'retweet this and ill pick one of you to add in my follow trick \xf0\x9f\x99\x88'
p1635
aS'when luke cames back on we all should tweet him how was the carrot farm he would be so confussed omfg'
p1636
aS'fetus janoskians will be my fav forever'
p1637
aS'acmsaves'
p1638
aS'our fanbase is just honestly not ready for austin to get a girlfriend regardless of who it is'
p1639
aS'yall will hate anyone austin dates lol'
p1640
aS'lmfao its a crop top'
p1641
aS'things got serious tonight \xf0\x9f\x98\xb3'
p1642
aS'i laughed so hard at this austin mahone breakoutartist peopleschoice this'
p1643
aS'i laujghed'
p1644
aS'yeah no promises \xf0\x9f\x98\x8f'
p1645
aS'just landed in la kcas here i come \xe2\x80\x9d stay away from camila'
p1646
aS'slowly starting to like 5h more everyday idk'
p1647
aS'tell her to unblock me excuse u i did nothing wrong'
p1648
aS'why did they accept me then block e'
p1649
aS'accept meee'
p1650
aS'rude'
p1651
aS'why did u blocke ne'
p1652
aS'hahahahhahaha i laughed \xf0\x9f\x98\x82\xf0\x9f\x98\x82\xf0\x9f\x98\x82\xf0\x9f\x98\x82\xf0\x9f\x98\x82\xf0\x9f\x98\x82 austin mahone breakoutartist peopleschoice'
p1653
aS'dopetexan hm'
p1654
aS'if someone doesnt understand my since of humor they probably hate me'
p1655
aS'what the fucki s this i cant breahte'
p1656
aS'get on twitter faggot'
p1657
aS'the difference between pizza and your opinion is that i asked for pizza '
p1658
aS'lmaoo i cant wait'
p1659
aS'no its alright'
p1660
aS'v o t e f o r a u s t i n austin mahone breakoutartist peopleschoice t h a n k y o u'
p1661
aS'i wanna win a tweeeet from austin'
p1662
aS'i feel as invisible to u as mileys eyebrows\xe2\x80\x9d oh my hahahahaha'
p1663
aS'nothing its something with me and someone else'
p1664
aS'youre so perfect'
p1665
aS'its tru rt if u cri '
p1666
aS'luke hutch followed me before i followed him call me famous '
p1667
aS'i want to make out with you'
p1668
aS'i feel as invisible to u as mileys eyebrows oh ymgnsodbakkf'
p1669
aS'i feel as invisible to u as mileys eyebrows'
p1670
aS'midnight eastern time why'
p1671
aS'never dmd anyone'
p1672
aS'excuse me pacific time thats midnight here'
p1673
aS'i laughed so hard at this austin mahone breakoutartist peopleschoice'
p1674
aS'today stats 90 followers 51 unfollowers and followed 16 people via'
p1675
aS'i dmd u lol'
p1676
aS'who deserves it more someone whos never met austin or someone whos met him 382597 times exactly'
p1677
aS'its alwayyys raining where ever you go'
p1678
aS'if u were things would change'
p1679
aS'please dont even say sorry bc i know youre not'
p1680
aS'no matter what i do i cant  fucking  be  happy '
p1681
aS'i dmd you your line '
p1682
aS'update 3 hrs left and austin still hasnt tweeted peyton happy birthday impatiently waiting'
p1683
aS'dms'
p1684
aS'just bawled my eyes out watching the fallen soldiers video proud to have someone like u as my idol lt21'
p1685
aS'dmd you'
p1686
aS'dmd it '
p1687
aS'update 3 hrs left and austin still hasnt tweeted peyton happy birthday'
p1688
ag353
ag353
ag353
ag353
ag353
aS'if you want to be in a video im making for austin click this'
p1689
aS'what a g'
p1690
aS'okay so i wanted to make a video telling austin hes saved my life and many other mahomies lives as well i cont'
p1691
aS'its me isnt it'
p1692
aS'who wants to be in a video for austin '
p1693
aS'its hard to explain lol '
p1694
aS'my header credit goes out to i love it so much \xf0\x9f\x92\x95\xf0\x9f\x98\x8d\xf0\x9f\x8d\x95\xf0\x9f\x8d\x95\xf0\x9f\x8d\x95\xf0\x9f\x8d\x95'
p1695
aS'a have a videoo idea to make for austin '
p1696
aS'love you jaycie '
p1697
aS'do you like pretty little liars do you have a kik dont li \xe2\x80\x94 no i dont lol my kik is alyssaamarieexo amp thanks'
p1698
aS'no one even gives two shits about me until it gets to the point when i say bye'
p1699
aS'i want to die lmao'
p1700
aS'i literally cant stop crying'
p1701
aS'rt for a dm to daniel sahyoune free bc everyone deserves 5 with proof'
p1702
aS'ustream makes my laptop slow as hell tho'
p1703
aS'i missed 10 minutes of peytons ustream '
p1704
aS'it sucks but i know if you really did you would put in some effort'
p1705
aS'ha'
p1706
ag353
aS'are u doing okay i know sometimes u get depressed so how r u \xe2\x80\x94 honestlyyyy still wanna die lol'
p1707
aS'pleaseeee'
p1708
aS'im sick of saying i miss you because nothing changesssssss'
p1709
aS'tell me your honest opinion about me i wanna know '
p1710
aS'ask me a question'
p1711
aS'i wish you still cared about me it doesnt matter who does i just wish one of them were you '
p1712
aS'its so sad i used to be so close with some people and now i dont even talk to them'
p1713
aS'all i ate today was a cupcake and a salad well'
p1714
aS'ur welcome'
p1715
aS'i just dont tell people im upset anymore because i dont like people worrying about me'
p1716
aS'hm'
p1717
aS'thats on shivanis birthday aye turn up '
p1718
aS'omf'
p1719
aS'what'
p1720
aS'dontstandintheway 2142014'
p1721
aS'i feel like no one understands'
p1722
aS'you deserve it  jshgskjdghskjd'
p1723
aS'after having 2 12 days of not going to school i dont want to go tomorrow lmao'
p1724
aS'i laughed so hard at this austin mahone breakoutartist peopleschoice'
p1725
aS'emily oht my oholy shit congreats'
p1726
aS'im just sitting here watching every single janoskians video bc they make me happy'
p1727
aS'new videoo soon yassss'
p1728
aS'ur so cute lol stop'
p1729
aS'quicky'
p1730
aS'pls watchsomeoneonvevo'
p1731
aS'babe congrats on 16 omf'
p1732
aS'will never follow me  ugh watchsomeoneonvevo'
p1733
aS'everyone watchsomeoneonvevo by  its amazing please be my 36 trevor '
p1734
aS'everyone watchsomeoneonvevo by  its amazing please be my 36 trevor  20'
p1735
aS'everyone watchsomeoneonvevo by  its amazing please be my 36 trevor  19'
p1736
aS'everyone watchsomeoneonvevo by  its amazing please be my 36 trevor  18'
p1737
aS'everyone watchsomeoneonvevo by  its amazing please be my 36 trevor  17'
p1738
aS'everyone watchsomeoneonvevo by  its amazing please be my 36 trevor  16'
p1739
aS'everyone watchsomeoneonvevo by  its amazing please be my 36 trevor  15'
p1740
aS'everyone watchsomeoneonvevo by  its amazing please be my 36 trevor  14'
p1741
aS'everyone watchsomeoneonvevo by  its amazing please be my 36 trevor  13'
p1742
aS'everyone watchsomeoneonvevo by  its amazing please be my 36 trevor  12'
p1743
aS'everyone watchsomeoneonvevo by  its amazing please be my 36 trevor  11'
p1744
aS'everyone watchsomeoneonvevo by  its amazing please be my 36 trevor  10'
p1745
aS'everyone watchsomeoneonvevo by  its amazing please be my 36 trevor  9'
p1746
aS'everyone watchsomeoneonvevo by  its amazing please be my 36 trevor  8'
p1747
aS'everyone watchsomeoneonvevo by  its amazing please be my 36 trevor  7'
p1748
aS'everyone watchsomeoneonvevo by  its amazing please be my 36 trevor  6'
p1749
aS'everyone watchsomeoneonvevo by  its amazing please be my 36 trevor  5'
p1750
aS'everyone watchsomeoneonvevo by  its amazing please be my 36 trevor  4'
p1751
aS'everyone watchsomeoneonvevo by  its amazing please be my 36 trevor  3'
p1752
aS'everyone watchsomeoneonvevo by  its amazing please be my 36 trevor  2'
p1753
aS'everyone watchsomeoneonvevo by  its amazing please be my 36 trevor '
p1754
aS'everyone watchsomeoneonvevo by  its amazing please be my 36 trevor '
p1755
aS'tysm steph'
p1756
aS'just its irrelevant'
p1757
aS'watchsomeoneonvevo be 36 she really deserves it '
p1758
aS'please be my 36 it would mean the world please trevor watchsomeoneonvevo 15'
p1759
aS'please be my 36 it would mean the world please trevor watchsomeoneonvevo 14'
p1760
aS'please be my 36 it would mean the world please trevor watchsomeoneonvevo 13'
p1761
aS'please be my 36 it would mean the world please trevor watchsomeoneonvevo 12'
p1762
aS'please be my 36 it would mean the world please trevor watchsomeoneonvevo 11'
p1763
aS'please be my 36 it would mean the world please trevor watchsomeoneonvevo 10'
p1764
aS'please be my 36 it would mean the world please trevor watchsomeoneonvevo 9'
p1765
aS'please be my 36 it would mean the world please trevor watchsomeoneonvevo 8'
p1766
aS'with what'
p1767
aS'please be my 36 it would mean the world please trevor watchsomeoneonvevo 7'
p1768
aS'please be my 36 it would mean the world please trevor watchsomeoneonvevo 6'
p1769
aS'please be my 36 it would mean the world please trevor watchsomeoneonvevo 5'
p1770
aS'please be my 36 it would mean the world please trevor watchsomeoneonvevo 4'
p1771
aS'please be my 36 it would mean the world please trevor watchsomeoneonvevo 3'
p1772
aS'please be my 36 it would mean the world please trevor watchsomeoneonvevo 2'
p1773
aS'please be my 36 it would mean the world please trevor watchsomeoneonvevo'
p1774
aS'sometimes i wish i wasnt born so i wouldnt have to feel like this'
p1775
aS'please follow me trevor it would mean the world watchsomeoneonvevo'
p1776
aS'watchsomeoneonvevo you need to follow '
p1777
aS'hes doing afollow spree great anxiety'
p1778
aS'i love you moreee'
p1779
aS'i love you so much alyssa'
p1780
aS'im so sick of everyyything tbh'
p1781
aS'sorry for being a good friend like '
p1782
aS'lmao what'
p1783
aS'not u lol ily'
p1784
aS'ilym '
p1785
aS'ilysm'
p1786
aS'lmao okay then stop replying like i said i dont care'
p1787
aS'i love you soo much morelt3 and yes we need too definitely '
p1788
aS'i love you so much thanks for always being here for me i miss you sosososo much next weekend me amp you'
p1789
aS'its funny bc no one actually likes u oh ouch'
p1790
aS'can we dm i dont want to do this all over twitter lol'
p1791
aS'people are allowed to have opinions no need to attack them because its not the same as yours'
p1792
aS'this wasnt even about you lol guilty conscience  '
p1793
aS'it wasnt me not surprised'
p1794
aS'its funny bc no one actually likes u oh'
p1795
aS'ive never liked u oopies'
p1796
aS'love u guys lt3 lt3 lt3'
p1797
aS'ur a whore shut up'
p1798
aS'basic'
p1799
aS'im honeslty pissed how could you treat someone like that anyone and just think its okay when its definitely not'
p1800
aS'your so basic'
p1801
aS'lmfao'
p1802
aS'you dont get it the damage was already done'
p1803
aS'wasnt to you'
p1804
aS'thats not okay not at all'
p1805
aS'i havent been this mad in a long time'
p1806
aS'if you tear someone down that bad that theyre that hurt like that it is my business especially because shes my best friend'
p1807
aS'mahomiesiwannameet'
p1808
aS' saying i was there but you can forget that message lol'
p1809
aS'i wasnt even talking about trisha lmao no need to be a bitch i just tried being nice to you and dming you '
p1810
aS'youknowyourefromtwitterwhen you basically live the fan account hannah montana life'
p1811
aS'if thats not a reason that can keep u here stay for me u kept me strong when i wanted to go and ill do the same ily'
p1812
aS'stay for austin stay for his awkward smile and laughs stay for his voicem how he sounds when he sings stay for him bby'
p1813
aS'not going to our last home football game tomorrow bc im watching catching fire instead'
p1814
aS'perfect header \xf0\x9f\x92\x95'
p1815
aS'rt for 9 free follows  doing all in 15 mins its free bc mtvstars one direction'
p1816
aS'rt for 10 free follows free but a follow would be nice storyofmylifefollowparty mtvstarts one direction'
p1817
aS'do you know who is'
p1818
aS'do you ever cry because the janoskians'
p1819
aS'if austin wins this he will be so happy austin mahone breakoutartist peopleschoice'
p1820
aS'if youre a mahomie and saw this tweet but didnt retweet im judging you austin mahone breakoutartist peopleschoice'
p1821
aS'weve been dating'
p1822
aS'whos in the chicago crew'
p1823
ag353
ag353
aS'creds to for the amazing header\xe2\x9d\xa4\xef\xb8\x8f'
p1824
aS'my life lmao'
p1825
aS'thank u okay '
p1826
aS'i use for the speech bubble part '
p1827
aS'header '
p1828
aS'omg new header credit to'
p1829
aS'thank you'
p1830
aS'im obsessed with this header i just made  use if you want just give me creditttttttttt'
p1831
aS'if you see this rt it austin mahone breakoutartist peopleschoice'
p1832
aS'daisy omf i just ade thei s'
p1833
aS'rt for his smile  austin mahone breakoutartist peopleschoice'
p1834
aS'make sure that you vote today for austin austin mahone breakoutartist peopleschoice'
p1835
aS'rt for his smile  austin mahone breakoutartist peopleschoice'
p1836
ag353
aS'thank you austin'
p1837
aS'dm me '
p1838
aS' i really hope so'
p1839
aS'luckyy omf'
p1840
aS'thank you austin'
p1841
aS'i want to be atlants u girl so badly'
p1842
aS'lol youre lucky '
p1843
aS'ill definitely let you know '
p1844
aS'if my bestfriend cant go to austins show ill have an extra ticket to austins show in atlanta february 27 if she cant go who wants it'
p1845
aS'lol 11174 followers i c u 74'
p1846
aS'austin mahone breakoutartist peopleschoice'
p1847
aS'austin mahone breakoutartist peopleschoice'
p1848
aS'guess what guess what guess what guess what nothing just rt this and continue what u r doing austin mahone breakoutartis\xe2\x80\xa6'
p1849
aS'every girl has felt like this at least once'
p1850
aS'i want vip wtf '
p1851
aS'whos seeing austin in atlanta  feb 27'
p1852
aS'oh well thats not badd at all'
p1853
aS'sure '
p1854
aS'i would but i cant go to that one '
p1855
aS'it depends how much it costs too but omf its at the loftttttttt'
p1856
aS'every click counts im literally 500ish behind the next place up '
p1857
aS'i think so it depends the time of the event bc i probably cant miss school'
p1858
aS'welcome i hope he follows'
p1859
aS'if you keep constantly pushing me away every time i reach out to you i just will stop caring'
p1860
aS'i give up '
p1861
aS'ilovetheacousticsessions rt if youve been listening to it nonstop like i have'
p1862
aS'name twin but im laughing so har f'
p1863
aS'shit codys atl show is on a friday but id have to leave school early'
p1864
aS'codys greenville acoustic show i went too in august gtgt'
p1865
aS'make sure u fags vot for lt3'
p1866
aS'i miss u'
p1867
aS'i should give up cody will never dm me '
p1868
aS'omf its at the loft thats whater i met petyoerng bye'
p1869
aS'i cant breahte i have to meet him this time gjdifhg oh ym god'
p1870
aS'codys goiong to atlantaa omgggg sgshghsh'
p1871
aS'codys never noticed me other than following and a dm would make me so happy please just rt'
p1872
aS'look at the rts dont i deserve a dm '
p1873
aS'how to flirt with the janoskians smile wink gently stroke cheek slowly lift rag drenched in chloroform amp cover mout\xe2\x80\xa6'
p1874
aS'baby pgh'
p1875
aS'what is the most important thing you need to do today vote austin mahone breakoutartist peopleschoice'
p1876
aS'rlly doe'
p1877
aS'fetus aka lesbian lookalikes'
p1878
aS'rt this  and vote for gabby'
p1879
aS'pleaseee rtt '
p1880
aS'follow back'
p1881
aS'220 rts dm me cody'
p1882
aS' pleasee'
p1883
aS'gabby check dms '
p1884
aS'yes im up to 12th place for the street team contest omgjvhdfhdsfgh'
p1885
aS'done '
p1886
aS'pls cody'
p1887
aS'done x'
p1888
aS'done the follows x'
p1889
aS'rt on both and ill double the number '
p1890
aS'rt this tweet so that i can dm cody  ill dm him your name if you helped '
p1891
aS'austin what are you doing lmfao'
p1892
aS'i miss cody its been almost 3 months sigh'
p1893
aS'of course'
p1894
aS'please dm me look at the rts '
p1895
aS'it takes 2 seconds to rt x'
p1896
aS'congrats omg'
p1897
aS'listening to while eating pizza is a good combination \xf0\x9f\x98\x8b austin mahone breakoutartist peopleschoice'
p1898
aS'i cvsant breaskthe'
p1899
aS'when banga banga comes on mahomies be like austin mahone breakoutartist peopleschoice'
p1900
aS'i promise you if you rt this and tweet me done ill give you 50 free follows '
p1901
aS'i dont have a luke follow  only james and beau'
p1902
aS'i have over 200 cody pls'
p1903
aS'if you want a dm to someone for rting you have to tweet me lol '
p1904
aS'please dm me i have over 200 rts '
p1905
aS'rt the link for a dm to all of foolish 4'
p1906
aS'who wants a dm to james amp beau '
p1907
aS'rt rt rt'
p1908
aS'rt codyyy'
p1909
aS'pls follow me'
p1910
aS'of course'
p1911
aS'done pls spread the word'
p1912
aS'sure thing '
p1913
aS'if you rt this and you have a u girl hashtag you want me to dm to clint ill do it '
p1914
aS'click the link then rt for a dm to jc sam james beau austin alex robert or zach '
p1915
aS'just tell me who you want a dm to if you rt this or if you want 50 free follows for rting just ask'
p1916
aS'and ill dm you to all of foolish 4 james beau and anyone else in the mahone crewfamily'
p1917
aS'an ill give you 50 free follows not lying'
p1918
aS'if i get most rts i get a dm chat with cody please'
p1919
aS'can you guys please rt this'
p1920
aS'all we do is win win win no matter what austin mahone breakoutartist peopleschoice'
p1921
aS'ilovetheacousticsessions complete perfection theres nothing else to say ily '
p1922
aS'jsusese'
p1923
aS'going to have a little dm chat with whoever can get the most rts on an ilovetheacousticsessions tweet send me some scre\xe2\x80\xa6'
p1924
aS'im actually in love basically ilovetheacousticsessions'
p1925
aS'did u ever play austins two new songs'
p1926
aS'turn up turn up turn upppp'
p1927
aS'this is my new fav reaction pic what hdghidf'
p1928
aS'omg ong bahahhahahahhahahahahaha austin hes so single i cant handle it'
p1929
aS'same'
p1930
aS'ohmugod i just spit out my drink ahahahajajajjaja'
p1931
aS'i jstu choked i ltierally cant stop laughign oh ym fvsd'
p1932
aS'im still mad austin got his braces off like a month before i met him'
p1933
aS'we remain by christian agulara is perf'
p1934
aS'bye'
p1935
aS'if austin dates anyone it better be camila or becky'
p1936
aS'i honestly dont have any problems with camila shes hilarious and talented and she seems really nice'
p1937
aS'italy is waiting for you wehaspizzaforaustinmahone'
p1938
aS'lmao ily'
p1939
aS'ayeitsmahone your icon is pure sex and ur acc is perf i was also born in 96 im a human and not a smurf'
p1940
aS'ily'
p1941
aS'ayeitsmahone hey ur perf and u know ur my fave'
p1942
aS'wow i love u more woughdgjk'
p1943
aS'ayeitsmahone i creep on your account so much your like one of my faves ily'
p1944
aS'fav for a follow back'
p1945
aS'fback'
p1946
aS'all i do in school is sit and wonder what the janoskians might be doing right now'
p1947
aS'rt for an indirect\xf0\x9f\x8c\xb8 mtvstars justin bieber'
p1948
aS'rt for a poem indirect  free cuz really inspired mtvstars justin bieber'
p1949
aS'followtrick  rt this tweet  follow meamp  follow every1 bac\xe2\x80\xa6'
p1950
aS'storyofmylifefollowparty \xe2\x98\xafrt and follow me \xe2\x98\xaf follow \xe2\x98\xaffollow everyone who rts \xe2\x98\xafgain enjoy and ily fol\xe2\x80\xa6'
p1951
aS'rt for a dm to luke and jai free bc i love u '
p1952
aS'33 days till christmasssssssssssssss'
p1953
aS'fback'
p1954
aS'jai brooks member of the janoskians or the latest pair of shoes ill let u decide'
p1955
aS'ive been to school one day this week i'
p1956
aS'ilym '
p1957
aS'right now actually'
p1958
aS'rt if you listend to bangabanga today austin mahone breakoutartist peopleschoice'
p1959
aS'not sure why i watch u girl videos i always end up bawling'
p1960
aS'my street team points need up update ffs'
p1961
aS'rt for an indirect'
p1962
aS'if everyone who saw this tweet retweeted we could get a lot votes in a few minutes austin mahone breakoutartist people\xe2\x80\xa6'
p1963
aS'every minute im without you i lose austin mahone breakoutartist peopleschoice'
p1964
aS'rt for 7 free scooby doo follows mbf bc goal ill do them all at 900 uk time i swear'
p1965
aS'me'
p1966
aS'happy catching fire day cant wait to see the movie tonight omg'
p1967
aS'all i want is to be u girl'
p1968
aS'im crying bye'
p1969
aS'there is a thick line between constructive criticism amp hate'
p1970
aS'rt and ill guess your fave janoskian'
p1971
aS'mmeeehhhhh i dont really wannna do indirects anymore lmao austin mahone breakoutartist peopleschoice'
p1972
aS'jaiandlukebrook  youre so sweet and ily'
p1973
aS'nigga ilym'
p1974
aS'curlsmahone  flawless ily'
p1975
aS'robert makes me weak bye'
p1976
aS'yourrr smilee omggg'
p1977
aS'mahonesmango  fab bby ily'
p1978
aS'lukespradabag  cant even describe how much i love u omf'
p1979
aS'mahomiecrew  youre gorgeous'
p1980
aS'21 these 3 boys '
p1981
aS'omf ily'
p1982
aS'ayeitsmahone perf ily bby'
p1983
aS'faithkierra  youre pretty '
p1984
aS'janosparadise  ur header omf idk ur one of my faves love u x1000 bye'
p1985
aS'qnarry  wow ur account is so flawless bye'
p1986
aS'jdbrooksmahone  one of my favorite accounts ever flawless omg and we have the same faves so ily'
p1987
aS'pizzawithjai  just followed but love u already wowww'
p1988
aS'lukesversace  damn papi ur my fav acc goodbye'
p1989
aS'retweet if youre excited for austins album austin mahone breakoutartist peopleschoice'
p1990
aS'bangaaustin  lol ur header'
p1991
aS'ariana tweeted a jai account well'
p1992
aS'lewksselfies  i just followed but ur fab'
p1993
aS'icottonmahone  lovely account'
p1994
aS'ily'
p1995
aS'ayeitsmahone  i love ur acc omg'
p1996
aS'sometimes its hard to stay strong and its easier to give up'
p1997
aS'starting in 5'
p1998
aS'nudes'
p1999
aS'haha thank youu'
p2000
ag353
aS'i wish my bank account looked like my follower count'
p2001
aS'rt for an indirect mbf bc goalz'
p2002
aS'the janoskians noticing me  '
p2003
aS'become a mahomie street team member for austin mahone click here to sign up'
p2004
aS'is there anything you dont know about the janoskians yeah their porn channel but im working on it'
p2005
aS'love you lots '
p2006
aS'go and follow gt aka my bby xx'
p2007
aS'aw im glad its amazing lovely  x'
p2008
aS'a vote a day keeps ariana away austin mahone breakoutartist peopleschoice'
p2009
aS'dont forget to vote today austin mahone breakoutartist peopleschoice'
p2010
aS'o stop it u'
p2011
aS'rt for an indirect free bcz bored as fuck'
p2012
aS'are u an arianator'
p2013
aS'please be my 36 trevorcelebrationfollowparty'
p2014
aS'13 on music video charts oohkillem youguysrockmysocks letsbakeacake canitberedvelvetplease'
p2015
aS'banga banga austin mahone breakoutartist peopleschoice'
p2016
aS'lost in the middle like bottles in the ocean'
p2017
aS'rt for an indirect free bc idk'
p2018
aS'i love you alyssa'
p2019
aS'i love you so much more'
p2020
aS'forever sad and lonely'
p2021
aS'those friends u chill w amp ur constantly laughing amp smiling \xf0\x9f\x91\x8d\xf0\x9f\x91\x8d'
p2022
aS'ayeitsmahone i love how your icon and header matches'
p2023
aS'austins cover of so sick gtgtgt'
p2024
aS'hahaha if you say so'
p2025
aS'rt for indirect this will be awkward bc no rts lol'
p2026
aS'omf ily'
p2027
aS'ayeitsmahone i literally adore your account aw'
p2028
aS'what about love and 4 minutes mash up gtgtgtgt'
p2029
aS'if you have my tweets to your phone i am so sorry i tweet so much bye'
p2030
aS'beause fab'
p2031
aS'what what aw omf bae ily'
p2032
aS'seeing catching firreee tomorrow  im so freaking excited'
p2033
aS'yes shut upo'
p2034
aS'yes u aare'
p2035
aS'thank you for saving my life thank you for saving my life thank you for saving my life he saw that he faved it her sigow he knwos'
p2036
aS'ur icon ur pretty bye'
p2037
aS'im crygin bc peytonn'
p2038
aS'please be my 36  trevorcelebrationfollowparty\xe2\x80\x9d'
p2039
aS'please by my 36 i love you a lot bye trevorcelebrationfollowparty 10\xe2\x80\x9d'
p2040
aS'peyton faved this bye'
p2041
aS'holty hsit petyrton you faved tshi'
p2042
aS'just give me a minute ill be making you my mrs'
p2043
aS'i swear ill never put none of them others abovee youu'
p2044
aS'i remember us sitting up late in my one bedroom appartment'
p2045
aS'rt for an honest indirect free bc bored lolz'
p2046
aS'i really wish i could pull off the whole im okay thing'
p2047
aS'please trevorcelebrationfollowparty'
p2048
aS'stop u just came on my 8tracks playlist im sad'
p2049
aS'nancy im so happy youre okay i was so worried i love you'
p2050
aS'thank you so much'
p2051
aS'quote this with ur goal and ill rt 115k'
p2052
aS'and even leonardo dicaprio is wearing jais sorry'
p2053
aS'trevorcelebrationfollowparty pls'
p2054
aS'congrats on being verified omg please be my 36 it would mean so much trevorcelebrationfollowparty 10'
p2055
aS'congrats on being verified omg please be my 36 it would mean so much trevorcelebrationfollowparty 9'
p2056
aS'congrats on being verified omg please be my 36 it would mean so much trevorcelebrationfollowparty 8'
p2057
aS'steph can you help me '
p2058
aS'sorry for my trevor spam i want this '
p2059
aS'congrats on being verified omg please be my 36 it would mean so much trevorcelebrationfollowparty 7'
p2060
aS'congrats on being verified omg please be my 36 it would mean so much trevorcelebrationfollowparty 6'
p2061
aS'congrats on being verified omg please be my 36 it would mean so much trevorcelebrationfollowparty 5'
p2062
aS'congrats on being verified omg please be my 36 it would mean so much trevorcelebrationfollowparty 4'
p2063
aS'congrats on being verified omg please be my 36 it would mean so much trevorcelebrationfollowparty 3'
p2064
aS'congrats on being verified omg please be my 36 it would mean so much trevorcelebrationfollowparty 2'
p2065
aS'congrats on being verified omg please be my 36 it would mean so much trevorcelebrationfollowparty'
p2066
aS'congrats on being verified omg please be my 36 it would mean so much trevorcelebrationfollowparty'
p2067
aS'trevorcelebrationfollowparty  congradulate on being verified  rt this  gain  trevor u follow me too'
p2068
aS'please be my 36  trevorcelebrationfollowparty'
p2069
aS'can you just trevorcelebrationfollowparty'
p2070
aS'please by my 36 i love you a lot bye trevorcelebrationfollowparty '
p2071
aS'trevorcelebrationfollowparty'
p2072
aS'im so proud of you  happy birthday peytonn lt21 cant wait for fallensoldiers'
p2073
aS'some day '
p2074
aS'jai with a neck tat  the death of me'
p2075
aS'this is beautiful tbh omg'
p2076
aS'im in love with my newest tattoo 5sos lyrics if you werent aware i really want them to see it  please help ily'
p2077
aS'fback'
p2078
aS'fback'
p2079
aS'rt for an indirect from moony \xf0\x9f\x8c\x9a\xf0\x9f\x92\x9c'
p2080
aS'the janoskians rarely come online now amp we used to have idols that were like us amp now im just lost'
p2081
aS'syjaf piano version will always be my favorite'
p2082
aS'miley cyrus be like'
p2083
aS'vote till you lose all your fingers austin mahone breakoutartist peopleschoice'
p2084
aS'i end up being on the toilet for like 5hours when im on my phone'
p2085
aS'every rt counts  austin mahone breakoutartist peopleschoice'
p2086
aS'what are you doing once you get there '
p2087
aS'rt this  austin mahone breakoutartist peopleschoice'
p2088
aS'every rt counts austin mahone breakoutartist peopleschoice'
p2089
aS'im so happy nancy is still here you have no idea how worried i was omg'
p2090
aS'have a safe flight '
p2091
aS'i wanna be yourrr erryythannn'
p2092
aS'u got what i neeeedddd'
p2093
aS'ok im going to have a marathon whispers a janoskians marathon'
p2094
aS'how did that get almost 400 rts holy shit'
p2095
aS'seriouusllyyy'
p2096
aS'everyone check out my buddy new single '
p2097
aS'im actually going to be kinda upset if austin doesnt tweet peyton happy birthday'
p2098
aS'goooood'
p2099
aS'fallensoldiers imcoming you better believe ittttt'
p2100
aS'everybody thats coming to my ustream bday bash tonight rsvp by tweeting fallensoldiers imcoming'
p2101
aS'happybirthdaypeyton rep the lt21  i hope it is a blessed one '
p2102
aS'happy 19th birthday p i hope its amazing bro cause you deserve it i love you buddy cant wait til later so i can give y\xe2\x80\xa6'
p2103
aS'my true friends tweeting me right now means the world to me i never get to see them cause im always on the roadmis\xe2\x80\xa6'
p2104
aS'just watched were the millers laughed so hard with hahaa good start to my bday'
p2105
aS'hii'
p2106
aS'gabby is responsible'
p2107
aS'teenagers i lost my virginity at a party me i lost a follower while i was sleeping'
p2108
aS'im so happy youre still here bby omg'
p2109
aS'nanyc'
p2110
aS'someone tweet me'
p2111
aS'thx '
p2112
aS'please rt  it helps a lot'
p2113
aS'me todays the day to have confidence pretty person breathes me nope wow im done they do everything better'
p2114
aS'rt this tweet because not only does it give me points but its a vote for austin '
p2115
aS'can everyone please rt this '
p2116
aS'bangabanga austin mahone breakoutartist peopleschoice'
p2117
aS'voted can you click this please '
p2118
aS'please share this and tell everybody to vote for'
p2119
aS'i cant be fucked getting up to turn off the light so i clapped and turns out i dont have a clap light'
p2120
aS'just pranked janoskians with dea drug bust down thanks to louielouthe13th and for\xe2\x80\xa6'
p2121
aS'pleser'
p2122
aS'rt if youre a mahomie lets see how many mahomies are online austin mahone breakoutartist peopleschoice'
p2123
aS'i laughed so hard at this austin mahone breakoutartist peopleschoice \xf0\x9f\x98\x82\xf0\x9f\x91\x8c\xf0\x9f\x98\x92\xf0\x9f\x98\x82'
p2124
aS'nancy still hasnt tweeted or dmd me and im really worried '
p2125
aS'nancy please come back '
p2126
aS'oh my god austin mahone breakoutartist peopleschoice'
p2127
aS'happy birthday im so proud of everything youve done thank you for saving my life i love u lt21'
p2128
aS'home again \xf0\x9f\x91\x8c'
p2129
aS'i laughed so hard at this austin mahone breakoutartist peopleschoice true story'
p2130
aS'i deff ship her and austin idec'
p2131
aS'make sure the people you love and care about know that it might be just what they need in the moment'
p2132
aS'i sjtu chokerf'
p2133
aS'daily thoughts lol'
p2134
aS'all my friends are sad im sad'
p2135
aS'4minutes you ready '
p2136
aS'shes so cute i love her'
p2137
aS'bri i love you please dont do anything'
p2138
aS'dm me if you need me bby i cant lose anyone else okay'
p2139
aS'omf lucky'
p2140
aS'you know what would make me happy   if my followers followed each other  i want us to make new friends  rt if you lov\xe2\x80\xa6'
p2141
aS'youknowyouarefromtheonedirectionfandomwhen one direction are gay i know'
p2142
aS'drew this up to represent my brothers and myself'
p2143
aS'i remember everything you forgot'
p2144
aS'i cant stop crying i feel sick to my stomach'
p2145
aS'im shaking'
p2146
aS'lauren i swear to godf no'
p2147
aS'why do bad things happen to good people and good thing happen to bad people'
p2148
aS'can u imagine austin whispering softly all sexual in one of his songs i need some holy water bye'
p2149
aS'kidnaps austin at a meet and greet and shoves him into the back of my car stay'
p2150
aS'where are you gonna put this award once you win austin mahone breakoutartist peopleschoice'
p2151
aS'people who dont care about u no matter how much you care about them aren\xe2\x80\x99t worth your energy so let them go this is me letting go of u'
p2152
aS'tbhhhhhh'
p2153
aS'i give up youll never tweet me but hey one rt is one vote  austin mahone breakoutartist peopleschoice'
p2154
aS'ty for the unfollow xo'
p2155
aS'tweet me austin mahone breakoutartist peopleschoice'
p2156
aS'human nature and always will be human nature ive had that song stuck in my head for a year already lol'
p2157
aS'did you enjoy watching the xfactor live  austin mahone breakoutartist peopleschoice'
p2158
aS'ive been voting alll day every day austin austin mahone breakoutartist peopleschoice'
p2159
aS'tweet me something to make me laugh '
p2160
aS'tweet me something to make me laugh '
p2161
aS'pizza or mahomiess'
p2162
aS'mahomies or pizza'
p2163
aS'pizza or mahomies'
p2164
aS'mahomies or pizzaaa'
p2165
aS'whyy is it so impossible to get a tweet from youu  austin mahone breakoutartist peopleschoice'
p2166
aS'got 10 friends to buy banga banga  my parents and lots of friends to help vote austin mahone breakoutartist peopleschoice'
p2167
aS'dooo you love me austin mahone breakoutartist peopleschoice'
p2168
aS'if you could have all the fame amp money in the world or your mahomies which would you choose'
p2169
aS'if you could have all the fame amp money in the world or your mahomies which would you choose ily '
p2170
aS'if you could have all the fame amp money in the world or your mahomies which would you choose ily '
p2171
aS'if you could have all the fame amp money in the world or your mahomies which would you choose ily '
p2172
aS' if you could have all the fame amp money in the world or your mahomies which would you choose ily'
p2173
aS'if you could have all the fame amp money in the world or your mahomies which would you choose ily'
p2174
aS'if you could have all the fame amp money in the world or your mahomies which would you choose ily '
p2175
aS'if you could have all the fame amp money in the world or your mahomies which would you choose ily '
p2176
aS'if you could have all the fame amp money in the world or your mahomies which would you choose ily '
p2177
aS'if you could have all the fame amp money in the world or your mahomies which would you choose ily'
p2178
aS'if you could have all the fame amp money in the world or your mahomies which would you choose ily'
p2179
aS'if you could have all the fame amp money in the world or your mahomies which would you choose ily'
p2180
aS'i know you see this austin why not rt  austin mahone breakoutartist peopleschoice'
p2181
aS'what is the biggest performance so far youve done austin mahone breakoutartist peopleschoice'
p2182
aS'today \xf0\x9f\x98\xb1\xf0\x9f\x98\xb1\xf0\x9f\x98\x82'
p2183
aS'i know you see this so why not rt  austin mahone breakoutartist peopleschoice'
p2184
aS'do you see this  austin mahone breakoutartist peopleschoice'
p2185
aS'not literally omg no'
p2186
aS'if austin doesnt tweet peyton happy birthday im blocking him'
p2187
aS'rlly u r'
p2188
aS'get on twitter you doorknob'
p2189
aS'vice said were hot ayyyyy '
p2190
aS'hmu in da dms bb '
p2191
aS'you two are hotties '
p2192
aS'if u see this rt it bc not only will it make me really happy but well get votes austin mahone breakoutartist peopleschoice'
p2193
aS'see that girl she knows im watching she likes the way i stare'
p2194
aS'arent u special'
p2195
aS'youre beautiful ashton amp liam '
p2196
aS'pretty sure austins in the lead austin mahone breakoutartist peopleschoice'
p2197
aS'why would i hate you what to heck ily'
p2198
aS'would you zach'
p2199
aS'awww'
p2200
aS'please be okay i love you'
p2201
aS'rt for an indirect staystrongnancy'
p2202
aS'not all heroes wear capes not all angels have wings not all bands have fans'
p2203
aS'it sucks how we cant see whos in the lead austin mahone breakoutartist peopleschoice'
p2204
aS'austin mahone breakoutartist peopleschoice'
p2205
aS'remember when i wasnt addicted to twitter'
p2206
aS'i tweet too much its unhealthy'
p2207
aS'i just wanted to let you know i love you im so thankful you came into my life im a lot happier with you in it'
p2208
aS' yay  '
p2209
aS'sleep tweeting'
p2210
aS'ioh ym go'
p2211
aS'stop i was asking zach'
p2212
aS'did he'
p2213
aS'i just choked'
p2214
aS'so austin followed this acc i question his sexuality'
p2215
aS'i know shut up'
p2216
aS'but you can help the fact that you havent tweeted me in a while'
p2217
aS'awaw hdfkghjkhjkhjk'
p2218
aS'youre dumb i hate u'
p2219
aS'doo another show in atlanta i miss u'
p2220
aS'aw gbaby'
p2221
aS'shut up bell'
p2222
aS'1 rt  1 vote lets make austin happy \xf0\x9f\x98\x8b austin mahone breakoutartist peopleschoice'
p2223
aS'youknowyouarefromtheonedirectionfandomwhen you tell people at school theyre a carrot and they look at u like ur some kin\xe2\x80\xa6'
p2224
aS'stop growing go backwards instead u cant get older'
p2225
aS'whennn getting you to tweet me was easyyy  psandersmemories'
p2226
aS'playin in atl this summerrr psandersmemories'
p2227
aS'when we went to the same school together before he was famous etowah eagles turn up psandersmemories'
p2228
aS'peyytatoeee  psandersmemories'
p2229
aS'when you hit 21k followers psandersmemories'
p2230
aS'when getting a tweet from you was eassyyyyy psandersmemories'
p2231
aS'man of the hourr psandersmemories'
p2232
aS'i laughed so hard at this austin mahone breakoutartist peopleschoice omf hahah\xe2\x80\xa6'
p2233
aS'attention seekers please leave its the second door on your right hah bye'
p2234
aS'when you hit 10k followers lol psandersmemories iwasthere'
p2235
aS'cant believe it next year on my bday well be a million strong rt are you excited \xe2\x80\xa6'
p2236
aS'peyton if u see this pls read ok i know your birthday isnt for another hour but i wanted to post\xe2\x80\xa6'
p2237
aS'i didnt think baker could get hotter he did so did you ur hot bye'
p2238
aS'my song fallen soldiers that comes out tomorrow night is for our troops and sales of these shirts go to charity lt21 h\xe2\x80\xa6'
p2239
aS'peytatoes psandersmemories'
p2240
aS'when you hit 21k psandersmemories'
p2241
aS'psandersmemories when he did the grind on me video  not that long ago  \xf0\x9f\x98\x8d\xf0\x9f\x98\x8d'
p2242
aS'when i finally met you after 2 whole years favorite memory psandersmemories'
p2243
aS'this isnt that old of a memory but never forget peytaoe psandersmemories'
p2244
aS'ustreamsss dawg psandersmemories'
p2245
aS'the first time i ever saw you live in nyc with austin almost 2 years ago wowww psandersmemories'
p2246
aS'finally'
p2247
aS'tweet'
p2248
aS'mahomiesiwannameet'
p2249
ag353
aS'i miss all the people i used to be friends with before everything changed'
p2250
aS'especially when they said they were going to eat a lot and after austin tweeted eating like kings stuff like that was sketch'
p2251
aS'thusme i miss u'
p2252
aS'mahomiesiwannameet'
p2253
aS'come back'
p2254
aS'same it was so like idk it made sense but at the same time i doubt it was austin'
p2255
aS'what the hell when did that happen ium'
p2256
aS'i miss him'
p2257
aS'if youre not voting for youre doing something wrong austin mahone breakoutartist peopleschoice'
p2258
aS'have you voted today austin mahone breakoutartist peopleschoice'
p2259
aS'retweet this if youre a mahomie and if youre austin mahone that works too austin mahone breakoutartist peopleschoice'
p2260
aS'vote for because were getting a music video for banga banga soon aye breakoutartist peopleschoice'
p2261
aS'by my 36 its the next best thing'
p2262
aS'i promise to god i have never been so scared in my life'
p2263
aS'or me lt3'
p2264
aS'u tell me'
p2265
aS'i have no way to know im praying so'
p2266
aS'thanks '
p2267
aS'mahomiesiwannameet you seem really sweet'
p2268
ag353
aS'do u ship austin and becky'
p2269
aS'my hearts racing like a mother fucker '
p2270
aS'that was crazy prank of the century cant wait till everyone sees it'
p2271
aS'please be my 35 jai it would mean the world  ily 10'
p2272
aS'please be my 35 jai it would mean the world  ily 9'
p2273
aS'please be my 35 jai it would mean the world  ily 8'
p2274
aS'please be my 35 jai it would mean the world  ily 7'
p2275
aS'please be my 35 jai it would mean the world  ily 6'
p2276
aS'please be my 35 jai it would mean the world  ily 5'
p2277
aS'please be my 35 jai it would mean the world  ily 4'
p2278
aS'please be my 35 jai it would mean the world  ily 3'
p2279
aS'please be my 35 jai it would mean the world  ily 2'
p2280
aS'please be my 35 jai it would mean the world  ily x'
p2281
aS'please be my 35 jai it would mean the world  ily'
p2282
aS'all self esteem is gone'
p2283
aS'this makes me want to hug u for 7 years'
p2284
aS'hey look weve both got our tongues out doggystyle'
p2285
aS'text me'
p2286
aS'its funny that the people you think we always be there for you end up leaving'
p2287
aS'mahomiesiwannameet'
p2288
aS'mahomiesiwannnameet a lot of u tbh'
p2289
aS'i love you nancy'
p2290
aS'pls steph'
p2291
aS'its really uh no'
p2292
aS'nikki gave me austin lt3 lt3 lt3 wow lt3 lt3 lt3 tru friend'
p2293
aS'wow this is fantastic i forgive you lt3 lt3 lt3'
p2294
aS'does anyone have nancys number  '
p2295
aS'good lmao'
p2296
aS'get me austin'
p2297
aS'im so worried about nancy she wont reply to my dms or anything '
p2298
aS'am i the only one not obsessed with alex and sierra'
p2299
aS'excuse me who made this'
p2300
aS'jesus what'
p2301
aS'its not ok'
p2302
aS'it isss haha thats'
p2303
aS'what dm me'
p2304
aS' nancy'
p2305
aS'bully'
p2306
aS'ill stay strong if you do we promised nancy'
p2307
aS'remember the promise we made'
p2308
aS'nikki hates me pass it on'
p2309
aS'but'
p2310
aS'you are strong look how far youve come you can do this i love you please stay'
p2311
aS'im bawling please tweet nancy and tell her how much she means to you it could make a difference'
p2312
aS'si senorita'
p2313
aS'dont leave me'
p2314
aS'i bawling please you cant dont go'
p2315
aS'nanyc please stop'
p2316
aS'nancy'
p2317
aS'a hot mess ohhhh '
p2318
aS'i an dnsjnshhaha'
p2319
aS'well i didnt lie'
p2320
aS'lt3 lt3'
p2321
aS'i juts said anything could happen was 5hs song bc of their performance oh my god'
p2322
aS'your drawing is prettier than the original'
p2323
aS'i do'
p2324
aS'josh levi is my boyfriend'
p2325
aS'theyre playing 5h in the background austin r u jammin'
p2326
aS'basically'
p2327
aS'la vernia is full of hot guys and sluts from what i can see'
p2328
aS'mahomiesiwannameet'
p2329
aS'im so excited tro see what thsi is ohj my f'
p2330
aS'watches xfactor only to try and find austin in the background'
p2331
aS'i need a pic of austin and the boys'
p2332
aS'khaya and austin yes or no would u ship it'
p2333
aS'la vernia is full of hot guys and sluts from what i can see well'
p2334
aS'janhviforugirlmarch7 good luck'
p2335
aS'gabbyandalyssaugirlsfeb27 '
p2336
aS'do u ever get really jealous bc u see ur friends becoming friends with other people'
p2337
aS'please just take a second and tweet gabbyandalyssaugirlsfeb27 tag clint or mike too '
p2338
aS'love you'
p2339
aS'gabbyandalyssaugirlsfeb27 \xe2\x9d\xa4\xef\xb8\x8f'
p2340
aS'if i meet austin in atlanta at the airport before jingle ball im asking him to be atlantas u girl with gabbyyy ehehehe'
p2341
aS'thank you '
p2342
aS'gabbyandalyssaugirlsfeb27 \xe2\x9d\xa4\xef\xb8\x8f'
p2343
aS'gabbyandalyssaugirlsfeb27'
p2344
aS'love you kayla'
p2345
aS'2 girls one dream  gabbyandalyssaugirlsfeb27'
p2346
aS'thank you guys so much for tweeting our hashtag  means sooooo much to me and alyssa  gabbyandalyssaugirlsfeb27'
p2347
aS'love you olivia '
p2348
aS'gabbyandalyssaugirlsfeb27'
p2349
aS'gabbyandalyssaugirlsfeb27 they deserve this  lt3'
p2350
aS'thank you so much  emilyforugirlmarch5 you deserve it too lt3'
p2351
aS'they deserve it \xf0\x9f\x98\x98 gabbyandalyssaugirlsfeb27'
p2352
aS'i dont like tim olstead orrrr however you spell it'
p2353
aS'thank you so much you deserve it too  jamie4ugirldec7th'
p2354
aS'make it happen both these girls deserve it \xf0\x9f\x92\x95\xf0\x9f\x92\x95 gabbyandalyssaugirlsfeb27'
p2355
aS'gabbyandalyssaugirlsfeb27'
p2356
aS'why'
p2357
aS'jesus i thought going to austins concert at 5 am was early'
p2358
aS'i laughed so hard at this austin mahone breakoutartist peopleschoice this is\xe2\x80\xa6'
p2359
aS'mahomiesiwannameet'
p2360
aS' whats  paiges  twitter  '
p2361
aS'im so fucking annoyed i dont like you'
p2362
aS'well thats annoying wow'
p2363
aS'ohh gotcha lol alright'
p2364
aS'oh lmao i thought she was just a fan nvm'
p2365
aS'stop im emotional'
p2366
aS'well never mind then ignore my tweet '
p2367
aS'idk who that is but alrightaaayy'
p2368
aS'mahomiesiwannameet my kardashian famlt3333'
p2369
aS'whos paige what'
p2370
aS'whos paige idgi'
p2371
aS'gabbyandalyssaugirlsfeb27 '
p2372
aS'is it alyssa and gabby or gabbyand alyssa i couldnt remember ffs'
p2373
aS'my sister what if you were best friends with austin but then he blocked you what'
p2374
aS'i said this also wtf i suing u all'
p2375
aS'i sadi this what the hell im sueing u'
p2376
aS'we can do it were not giving up okay  alyssaandgabbyugirlsfeb27'
p2377
aS'its just not fair we had this'
p2378
aS'do you know how it feels to be so close to something then have all hope of it ever happening just go away'
p2379
aS'i cant stop watching u girl videos and im so sad please february 27 atlanta ok'
p2380
aS'the first 10 seconds of banga banga tho '
p2381
aS'im laughing'
p2382
aS'what happened r u ok'
p2383
aS'idk but i need proof you clicked'
p2384
aS'lt3 lt3 lt3 lt3 ily'
p2385
aS'will doooo'
p2386
aS'ill do them when i get on my computer  just remind me '
p2387
aS'i just saw an arianators bio and it said this time we will not lose lmfao austin mahone breakoutartist peopleschoice'
p2388
aS'ha ha ha austin mahone breakoutartist peopleschoice'
p2389
aS'done w indirects austin mahone breakoutartist peopleschoice'
p2390
aS'austinstigerrr ur acc is so cute lol austin mahone breakoutartist peopleschoice'
p2391
aS'oliveameezy youre literally sooo pretty austin mahone breakoutartist peopleschoice'
p2392
aS'jxiftluke wowww fab account austin mahone breakoutartist peopleschoice'
p2393
aS'lerrieoutfitter nice acc  austin mahone breakoutartist peopleschoice'
p2394
aS'and while youre complaining were just getting more votes awww  so sad  austin mahone breakoutartist peopleschoice'
p2395
aS'ya so sad that hes only been signed for a yearamphas 4 awardsampmore on the way  austin mahone breakoutartist peopleschoice'
p2396
aS'i do too omg  i miss it'
p2397
aS'rinaleeann you are gorgeous austin mahone breakoutartist peopleschoice'
p2398
aS'princessmahxne love ur acc austin mahone breakoutartist peopleschoice'
p2399
aS'frostylashton fab account wow austin mahone breakoutartist peopleschoice'
p2400
aS'awesomedelly youre so sweet i literally love u austin mahone breakoutartist peopleschoice'
p2401
aS'ohhotdamnmahone lol i love u a lot austin mahone breakoutartist peopleschoice'
p2402
aS'yolandamahone youre perfect ily austin mahone breakoutartist peopleschoice'
p2403
aS'pls rt i wanna do indirects dammit '
p2404
aS'yes yes mgdfighsdf'
p2405
aS'thatzayner ur acc matches so well its cute bye austin mahone breakoutartist peopleschoice'
p2406
aS'lol yep austin mahone breakoutartist peopleschoice'
p2407
aS'ameezysuniverse your icon is adorable aw austin mahone breakoutartist peopleschoice'
p2408
aS'swaggerlisa  ur header my bae austin mahone breakoutartist peopleschoice'
p2409
aS'im still waiting for the day when austin and dave reunite theyve been away from each other from so long it hurts'
p2410
aS'5sosjonasft1d  nice acc  austin mahone breakoutartist peopleschoice'
p2411
aS'mahonemylover ur acc is so cute lol ily austin mahone breakoutartist peopleschoice'
p2412
aS'rt rt rt starting now so go'
p2413
aS'id cry omgd'
p2414
aS'i didnt lol i went on the breakout artist hashtag and replied to a couple bc its funny'
p2415
aS'he also hasnt been in the industry as long and he didnt get any help from a tv show he got all his success himself'
p2416
aS'rt for an indirect free  doing all bc votes austin mahone breakoutartist peopleschoice'
p2417
aS'im choking austin mahone breakoutartist peopleschoice'
p2418
aS'stop giving him kids stop giving him kids stop giving him kids ill give him \xe2\x80\xa6'
p2419
aS'ok im done lmao austin mahone breakoutartist peopleschoice'
p2420
aS'ariana needs to stop getting on every guys dick she sees austin mahone breakoutartist peopleschoice'
p2421
aS'lmfao i dont see arianators voting dont complain when u lose austin mahone breakoutartist peopleschoice'
p2422
aS'lol u mad austin mahone breakoutartist peopleschoice'
p2423
aS'austin maccaronni jesus this is the best austin mahone breakoutartist peopleschoice'
p2424
aS'lmfao austin mahone breakoutartist peopleschoice'
p2425
aS'i need to go to teenhoot i need to'
p2426
aS'i might be able to go but its 2 weeks before austin and thats going to cost a lot ughadfjbklsdfg'
p2427
aS'nasville'
p2428
aS'done x'
p2429
aS'teen hoot is literally 2 weeks before austin ugh austin mahone breakoutartist peopleschoice'
p2430
aS'hoyl sthi i might be able to go to teenhoot if i safve money my mom said'
p2431
aS'for teenhoot'
p2432
aS'im in 21st and we have 4 days and i really want to win im really far behind but i think i can do it if yall help '
p2433
aS'if you click this just show me proofr and i promise i will give you 30 free follows'
p2434
aS'please click this pleaseeeee'
p2435
aS'omfg my life story ahaha soml'
p2436
aS'every rt is a vote austin mahone breakoutartist peopleschoice'
p2437
aS'ur gonna bring that award home amp put it next to ur moon man and ema we got u austin mahone breakoutartis\xe2\x80\xa6'
p2438
aS'i want austin to win every single award hes nominated it for austin mahone breakoutartist peopleschoice'
p2439
aS'austin followed someone named dustin and i thought of u'
p2440
aS'every retweet counts as a vote austin mahone breakoutartist peopleschoice'
p2441
aS'youknowyourefromtwitterwhen im sobbinf im wheezing i screamed im yodeling im noy breathong i choked but actually ht\xe2\x80\xa6'
p2442
aS'youknowyourefromtwitterwhen u use hashtags and abbreaviations too much'
p2443
aS'have you voted today austin mahone breakoutartist peopleschoice'
p2444
aS'we got this austin mahone breakoutartist peopleschoice rt'
p2445
aS'omg hahaha youre so sweet thank you beautiful  cant wait to meet you'
p2446
aS'sure '
p2447
aS'im ready for when it does'
p2448
ag353
aS'im csduths'
p2449
aS'same'
p2450
aS'i hate when im sitting in the wardrobe and miley cyrus decides to pull me out and wear me on her feet'
p2451
aS'dont do tghat'
p2452
aS'remember when austin tweeted that one girl 16 times yeah im still jealous'
p2453
aS'i had it from so long ago and i jsut got all the pics from my old ipod'
p2454
aS'something funny should happen in the janoskianator world'
p2455
aS'it really isnt fair that gabby and i have been trying to be u girl for months now and we had it and someone just comes and ugh'
p2456
aS'if you dont let people be there for you they eventually wont be'
p2457
aS'lmao'
p2458
aS'so is mine haha'
p2459
aS'seriously same'
p2460
aS'oh my god d sdsdg'
p2461
aS'youknowyourefromtwitterwhen hey do you wanna hang out mbf'
p2462
aS'you want him to win right then retweet this austin mahone breakoutartist peopleschoice'
p2463
aS'inserts something funny here so that austin will rt it austin mahone breakoutartist peopleschoice'
p2464
aS'follow trick\xf0\x9f\x92\x9c  rt if you want to gain  follow and whoever rts  follow everyone back  hope you gain mtvstars \xe2\x80\xa6'
p2465
aS'aw of course just tweet me the day of and we can meet up somewhere '
p2466
aS'me too hopefully i see id really like to get a picture with you i love your account'
p2467
aS'i would never im promising because i know it will happen'
p2468
aS'yes haha '
p2469
aS'lmao'
p2470
aS'im serious i wouldnt lie to you and say what you wanted to hear it will happen i promise you rap'
p2471
aS'omf yay'
p2472
aS'fab'
p2473
aS'please follow me  ily'
p2474
aS'its less than 2 months until 2014 and im still fat and ugly'
p2475
aS'aw omf im sorry'
p2476
aS'omf ilysm thank you'
p2477
aS'21 stop being pretty omg jai or beau and obvi austin '
p2478
aS'how r uu '
p2479
aS'yeahh when he did his follow spree i finally got my follow back then it disapeared 20 mins later i cried omf'
p2480
aS'can we omg'
p2481
aS'wait i retweeted it before i even saw u tell me to i can tell the future'
p2482
aS'wow we have telepathic minds wow    '
p2483
aS'shipping with the janoskians and random celeb you look good with\xf0\x9f\x98\x8b free so rt and send me a selfie and number'
p2484
aS' hey bitch'
p2485
aS'rt my last picture'
p2486
aS'and yours will come true rap'
p2487
aS'it just makes me smile so much that the people that once said they wouldnt meet him finally made their fairytale come true\xe2\x80\xa6'
p2488
aS'it happened to me and i got it back in a week literally just dont give up'
p2489
aS'basically me'
p2490
aS'same here omgsdfh'
p2491
aS'i laughed so hard at this austin mahone breakoutartist peopleschoice'
p2492
aS'im so happyyy'
p2493
aS'aw bae lt3 lt3 lt3'
p2494
aS'no faggot tell me'
p2495
aS'wow throwback i miss u'
p2496
aS'jesus what r u gonna do'
p2497
aS'i miss my bby a lot '
p2498
aS'yessss ofc'
p2499
aS'aww thats perf'
p2500
aS'cues that song from the video about twitter friends meeting i wojld do it for youuuuu'
p2501
aS'how sweet bae'
p2502
aS'sorry for the pic spam i just found all the pics on my old ipod lmao'
p2503
aS'ok i might get there in time'
p2504
aS'yeah bc vacation '
p2505
aS'spilled water on myself now it looks like i pissed my pants at the gym yay for life '
p2506
aS'oops'
p2507
aS'ill walk'
p2508
aS'i cant breahte its gone'
p2509
aS'yes i know my mom still hasnt said yes for sure shes like 99 sure i can go lol'
p2510
aS'im still laughing and it was like 6 months ago bye'
p2511
aS'well arent you just too cool'
p2512
aS'stop im going to cryyy'
p2513
aS'we would have so much fun just like we are december 28'
p2514
aS'i had to bring this back i laugh every time'
p2515
aS'can i pls'
p2516
aS'voting takes so longgggggggggg but winning is easyyy austin mahone breakoutartist peopleschoice'
p2517
aS'lmao see i quit so done with school'
p2518
aS'slow down grab ur phone vote like ur tryin to make ur hands fall off austin mahone breakoutartist peo\xe2\x80\xa6'
p2519
aS'not even'
p2520
aS'stop giving him kids stop giving him kids stop giving him kids austin mahone breakoutartist peopleschoice'
p2521
aS'frickin right it does cmon mahone'
p2522
aS'best motivational tweet i have seen this deserves a notice'
p2523
aS'i had my ipod out so i got suspended for 3 days from the bus i know im such a bad ass'
p2524
aS'i love that my grandma lives with us now bc shes constantly baking something lmao austin mahone breakoutartist peopleschoice'
p2525
aS'if you want a playlist that plays just austin  old covers i love thissss'
p2526
aS'ya i have no way there lol'
p2527
aS'get this to 100 rts im thirsty'
p2528
aS'trips to the pacific'
p2529
aS'austin with little kids is the most cutest thing ever i am weak'
p2530
aS'\xe2\x9c\xa7 just bc u asked all fancy like \xe2\x9c\xa7'
p2531
aS'if you missed everything that came with being a mahomie before he hit 1m im so sorry for u'
p2532
aS'this made me really fucking sad'
p2533
aS'stop'
p2534
aS'glad u like it i might make another bc bored'
p2535
aS'aye 11111 followers this is a moment'
p2536
aS'not trying'
p2537
aS'its just not worth it anymore'
p2538
aS'i got bored and kinda'
p2539
aS'1 retweet  1 vote  so  what are you waiting for  retweet this  austin mahone breakoutartist peopleschoice'
p2540
aS'why'
p2541
aS'you dont even have to ask to use my headers i love when people do omg just give me credddd'
p2542
aS'creds to for my header '
p2543
aS'3rd reply swag'
p2544
aS'parallel palm trees '
p2545
aS'follow me pls'
p2546
aS'we voted nonstop for vmas amp won it we voted nonstop for emas amp won it u know what to do austin mahone breakoutartis\xe2\x80\xa6'
p2547
aS'yesss'
p2548
aS'the \xe2\x80\x9ci don\xe2\x80\x99t want to annoy you but i really like talking to you\xe2\x80\x9d stage of a friendship'
p2549
aS'check out my new mix on \xe2\x99\x9a mahone \xe2\x99\x9a at \xe2\x99\xab'
p2550
aS'if you dont like me whyyy do you follow me'
p2551
aS'fun fact i cant listen to u without crying'
p2552
aS'just give me a minute ill be making you my mrs'
p2553
aS'i swear ill never put none of them others above you'
p2554
aS'i have my real friends thats all the matters idc anymore'
p2555
aS'that will be me one day on stage with him'
p2556
aS'i found this version of austin singing u and its the perfect one to imagine like its you onstage'
p2557
aS'be my 35'
p2558
aS'please follow me luke '
p2559
aS'gooooood morning '
p2560
aS'follow me pls'
p2561
aS'ill remember that'
p2562
aS'i laughed so hard at this austin mahone breakoutartist peopleschoice'
p2563
aS'lmao whats the point'
p2564
aS'none of my friends or family will ever know how much austin actually means to me they all think hes just an obsession bu\xe2\x80\xa6'
p2565
aS'i laughed so hard at this austin mahone breakoutartist peopleschoice'
p2566
aS'good times'
p2567
aS'do remember that tumblr started our friendship'
p2568
aS'even if i dont get tickets im going to the atlanta to try and meet austin when hes here'
p2569
aS'i think the album will come out right before or right after the tour bc hell be getting a lot of attention from the tour then the album idk'
p2570
aS'my life in one picture austin mahone breakoutartist peopleschoice'
p2571
aS'hes so perfect i hate everything austin mahone breakoutartist peopleschoice'
p2572
aS'when someone hates on austin'
p2573
ag353
aS'do u ever'
p2574
aS'quick header i made '
p2575
aS'literally'
p2576
aS'holy fuckgin'
p2577
aS'stop'
p2578
aS'i like the user you have but if you change it lukesblunt'
p2579
aS'janoskianators are my fave tbh'
p2580
aS'good luck gabby you got my vote '
p2581
aS'please vote for me so i can meet austin  ill dm him your name if you show me proof you voted'
p2582
aS'i ran out of room in the tweet stop that'
p2583
aS'please follow me i need to dm you its so important pls'
p2584
aS'unblock me thats rude'
p2585
aS'austin is untalented say that to his 2 emas his vma and his 2 other awards austin mahone breakoutartist peopleschoice'
p2586
aS'we will do anything to see that smile on his face austin mahone breakoutartist peopleschoice'
p2587
aS'most dedicated fanbase is definitely mahomies austin mahone breakoutartist peopleschoice'
p2588
aS'awesomeness tv needs to follow me'
p2589
aS'can you please follow amp dm me i have a really important question please '
p2590
aS'can you please follow amp dm me i have a really important question please'
p2591
aS'can you please follow amp dm me i have a really important question please '
p2592
aS'can you please follow amp dm me i have a really important question please'
p2593
aS'can you please follow amp dm me i have a really important question please '
p2594
aS'can you please follow amp dm me i have a really important question please '
p2595
aS'can you please follow amp dm me i have a really important question please '
p2596
aS'can you please follow amp dm me i have a really important question please'
p2597
aS'can you please follow amp dm me i have a really important question please'
p2598
aS'delias dresses omf'
p2599
aS'rt send me a selfie and a number and i will ship you with one of the janoskians '
p2600
aS'well ok'
p2601
aS'ive never gotten a tweet from u and i want one'
p2602
aS'who runs this account dm me'
p2603
aS'can you tell me what ily means '
p2604
aS'do i deserve a rt since im voting ily austin mahone breakoutartist peopleschoice'
p2605
aS'pizza or mahomies'
p2606
aS'mahomies or pizza'
p2607
aS'do you see this or are you ignoring me on purpose'
p2608
aS'what does it take to get a tweet from you mahone '
p2609
aS'whyyy am i so invisible to you'
p2610
aS'follow me eric'
p2611
aS'im sad'
p2612
aS'ily'
p2613
aS'no not again jesus'
p2614
aS'hope you slept good'
p2615
aS'what about for atl'
p2616
aS'jailuke pls'
p2617
aS'can i get a rt for voting  austin mahone breakoutartist peopleschoice'
p2618
aS'i hope youre not getting sick again '
p2619
aS'how does one get 66 o2l'
p2620
aS'wouldnt mind a new janoskians vid but yanno'
p2621
aS'rt  1 vote austin mahone breakoutartist peopleschoice'
p2622
aS'have you voted for today every vote counts  austin mahone breakoutartist peopleschoice'
p2623
aS'i missed your tweet spree last night can i get one now  austin mahone breakoutartist peopleschoice'
p2624
aS'have you voted for today austin mahone breakoutartist peopleschoice'
p2625
aS'caught austin at 3 rts '
p2626
aS'okaay'
p2627
aS'austin mahone breakoutartist peopleschoice'
p2628
aS'great  wbu'
p2629
aS'goodmorning how did you sleep'
p2630
aS'goood '
p2631
aS'how r uu bby'
p2632
aS'perks of not going to school  making brownies wit my grandma and eating the leftover chocolate bye'
p2633
aS'yes hi'
p2634
aS'wow im honored bc ur my fav ilym bye'
p2635
aS'ayeitsmahone  u are literally in the top 10 favs u are a perfect nigga im cryin ily sista'
p2636
aS'no year has gone faster than 2013'
p2637
aS'its almost 2014 omf it feels like it was like 2012 yesterday o'
p2638
aS'aw omf congrats'
p2639
aS'f o l l o w m e goodness'
p2640
aS'i miss flip phones because at the end of a conversation you could always dramatically close them like bitch whatever'
p2641
aS'rt for an indirect free because im a celeb is on later yey'
p2642
aS'i want to act out one of your fanfics about us lol'
p2643
aS'im american and i did'
p2644
aS'basically'
p2645
aS'im glad you do '
p2646
aS'gonna go online shopping aka look at all the stuff i wish i could have'
p2647
aS'if you lost your austin follow dont think hes unfollowing people his twitters messed up he loves you '
p2648
aS'his twitters messed up dont worry babe you did nothing wrong x'
p2649
aS'it doesnt look empty anymore'
p2650
aS'beaugdrjkg nad thank u'
p2651
aS'533 gorgeous  beauluke amp liam'
p2652
aS'ayeeee u my fav nigga stay fab bby ilysm'
p2653
aS'ayeitsmahone fuk off my website u gucci penis me luv u more then mouldy penisesz adios fav mudafucker'
p2654
aS'i already have my drafts saved for voting gt austin mahone breakoutartist peopleschoice'
p2655
aS'still fucking waiting asshole'
p2656
aS'u 2 lt3'
p2657
aS'how was it'
p2658
aS'its been a minute since ive had red robin'
p2659
aS'i  want  a  tweet  and  shoutout  from  austin  so  click  the  link  in  my  bio'
p2660
aS'rt for an indirect faggots mbf'
p2661
aS'exactly fjghdfjkg'
p2662
aS'liar '
p2663
aS'i wonder how many people really hate me\xe2\x80\x9d same tbfh'
p2664
aS'ur the best'
p2665
aS'yeahhh but at the same tiem i dont wanna fail my freshman year bc i wasnt there like ahhahaa'
p2666
aS'ill be back in like 20'
p2667
aS'no this isnt good  im missing so much school i think i have like 2 more days i can miss and i need them for february'
p2668
aS'i wonder how many people really hate me\xe2\x80\x9d same'
p2669
aS'i have no way to school and i was suspended from the bus'
p2670
aS'i wonder how many people really hate me'
p2671
aS'please pick me x'
p2672
aS'stalk shes doing a follow trick '
p2673
aS'\xe2\x99\x94 6 mins until follow trick im picking two people amp tweeting me also works'
p2674
aS'trevor moran flirts up a storm in someone music video  ryan seacrest follow me ily'
p2675
aS'all the time'
p2676
aS'ayeitsmahone  beautiful beau icon babe \xe2\x9d\x81'
p2677
aS'haha aw '
p2678
aS'ilym'
p2679
aS'i didnt even tweet him a lot i got it on a follow spree lol'
p2680
aS'ayeitsmahone we r one we think alike now lets fuck'
p2681
aS'done  hope he follows x'
p2682
aS'aw bby ur so welcome im glad he followed u and i knew it would get votes so '
p2683
aS'thank you cause if you didnt dm him that i would still have 34 \xf0\x9f\x98\xad\xf0\x9f\x98\xad\xf0\x9f\x98\xad\xf0\x9f\x98\xad\xf0\x9f\x98\xad'
p2684
aS'rt for indirect \xe2\x9d\x81'
p2685
aS'it was easy for me he was my 25'
p2686
aS'sometimes i feel like im leading a double life then i remember im just a faggot with a twitter account'
p2687
aS'hunnnnngry  but nothing to eat'
p2688
aS'ill dm you to him '
p2689
aS'im so happy aw'
p2690
aS'one month ago today was supposed to be the best day of my life'
p2691
aS'aw youre the second person to tell me this bby ur welcome'
p2692
aS'omg i remember cuz he followed me omg thank you for making him do a follow spree\xf0\x9f\x98\xad\xf0\x9f\x98\xad\xf0\x9f\x98\xad\xf0\x9f\x98\xad'
p2693
aS'aw he followed u when he did that bby jghsdjkgsdg'
p2694
aS'click this then tweet me a screenshot for proof and ill dm you to beau james amp austin'
p2695
aS'lmao ausitn'
p2696
aS'its less than 2 months until 2014 2 m o n t h s wow time flies when ur locked in ur room running a fan account'
p2697
aS'rt for a sassy indirect fan accs only xxx'
p2698
aS'luke brooks everybody'
p2699
aS'remember when i got alex to do a follow spree'
p2700
aS'ilym always'
p2701
aS'you are perfect in every way possible i mean it'
p2702
aS'i dont understand why girls draw on massive bushy looking eyebrows they look like fucking slugs crawling over your face'
p2703
aS'yeahhhh people like you are the kind that need to get out of my mentions'
p2704
aS'can austin do a 7 hour ustream too'
p2705
aS'can austin do a 7 hour ustream too\xe2\x80\x9d omg please'
p2706
aS'111k thanks guys '
p2707
aS'can austin do a 7 hour ustream too'
p2708
aS'love me like uu doooo and click this'
p2709
aS'it only takes 2 seconds to click '
p2710
aS'rt then click austin mahone breakoutartist peopleschoice'
p2711
aS'dream what you want to dream go where you want to go be what you want to be because you have only one life and one cha\xe2\x80\xa6'
p2712
aS'itd be nice if you tweeted me'
p2713
aS'if you havent joined austins street team click here'
p2714
aS'1 click  points for me please helppp'
p2715
aS'ehehehehehehe'
p2716
aS'janoskians dictionary'
p2717
aS'rt for an indirect free but if you follow then ily'
p2718
aS'im so far behind but its worth a try right'
p2719
aS'please rt this i get points for every rt'
p2720
aS'thank so much '
p2721
aS'omg your account is flawless and youre so gorg bby'
p2722
aS'get bangabanga on itunes '
p2723
aS'its in the singlee digits now omg'
p2724
aS'so is james'
p2725
aS'get online'
p2726
aS'dont forget to vote austin mahone breakoutartist peopleschoice'
p2727
aS'who'
p2728
aS'hey you yeah you are you a triangle because youre acute one hahahaha i need a life mtvstars one direction'
p2729
aS'98 days see u soon'
p2730
aS'mi idols r better than urs'
p2731
aS'rt for 27 free follows mbf bc goal'
p2732
aS'the emotion of this song shouldnt contain smiling but i couldnt help it because of you guys'
p2733
aS'she took a selfie with me while i was performing okay this is too cute \xe2\x9d\xa4\xef\xb8\x8f'
p2734
aS'thank you for saving me'
p2735
aS'happy birthday beautiful '
p2736
aS'i just finished watching the hunger games aye'
p2737
aS'hunger games'
p2738
aS'a spark is fine as long as its contained so so contain it'
p2739
aS'hope its the only thing stronger than fear'
p2740
aS'that is mahogany'
p2741
aS'i love the hunger games'
p2742
aS'im only a freshman and i already hate high school'
p2743
aS'rt and ill dm you to 45 and calum \xf0\x9f\x8d\xacmbf\xf0\x9f\x8d\xac'
p2744
aS'im s reaminf so loud bbt congrats'
p2745
aS'austin mahone breakoutartist peoplechoice'
p2746
aS'im watching the hunger games and its making me sooo excited for catching fire'
p2747
aS'the number of people i follow lol'
p2748
aS'youve neverrr tweeteddd meee'
p2749
aS'love you'
p2750
aS'oh yeah its humpday alright\xf0\x9f\x98\x8f\xf0\x9f\x98\x8f\xf0\x9f\x98\x8f'
p2751
aS'dopey'
p2752
aS'ok i take that back why are the trends so messy'
p2753
aS'the new twitter update is so cool '
p2754
aS'this is gold'
p2755
aS'lmao'
p2756
aS'twitter stop trying to out do yourself every week with these updates lol'
p2757
aS'woohoo got netflix hooked up to my tv never gettin outa my man cave now'
p2758
aS'fback'
p2759
aS'follow me louis '
p2760
aS'we loved having you guys cray cray times as always come hang with us again soon d'
p2761
aS'dont lie'
p2762
aS'pantsless is better so people can see your huge dick oh wait its small well'
p2763
aS'no'
p2764
aS'im okay with a son'
p2765
aS'aw congrats'
p2766
aS'austin youre such an idiot lmao ily'
p2767
aS'what do u have against twerking mahone'
p2768
aS'daruana'
p2769
aS'every rt counts as a vote \xe2\x9d\xa4 austin mahone breakoutartist peopleschoice'
p2770
aS'when im askeep great idea austin'
p2771
aS'do your idols ever'
p2772
aS'why do you love the janoskians so much  well'
p2773
aS'liam said hed start a youtube account liam said hed start an instagram account liam wrote little white lies and it all\xe2\x80\xa6'
p2774
aS'still can not believe i actually have my follow from austin'
p2775
aS'if you stalk the breakout artist hashtag all i see is austin austin mahone breakoutartist peopleschoice'
p2776
aS'we only have 16 days left remember to vote for austin mahone breakoutartist peopleschoice'
p2777
aS'we all just need to start voting nonstop if we want him to win austin mahone breakoutartist peopleschoice'
p2778
aS'my head hurts austin mahone breakoutartist peopleschoice'
p2779
aS'austin mahone breakoutartist peopleschoice'
p2780
aS'stop ew'
p2781
aS'why did this get so many rts holy'
p2782
aS'nancy i love you so much you know im here always i mean that i love you'
p2783
aS'lets go right now no joke'
p2784
aS'im not crying water u talkin about '
p2785
aS'stop'
p2786
aS'aw lt3 3 33'
p2787
aS'did you know that i love you were you not aware youre the smile on my face and its not goin no wherelt3\xe2\x80\xa6'
p2788
aS'it was so funny bye'
p2789
aS'on omegle nice boobs thanks i grew them myself\xe2\x80\x9d this isnt even that long ago but imclaughing so hard'
p2790
aS'okay i said it could be bc you had said the same exact thing'
p2791
aS'cross the line if your anxiety is so much worse than anyone actually realizes'
p2792
aS'cross the line if youre never really happy just always pretending'
p2793
aS'cross the line if your parents arent divorced but they dont get along and its a huge deal of stress for you'
p2794
aS'cross the line if your online friend means so much to you and you wouldnt be as strong as you are without herhim'
p2795
aS'cross the line if youd give anything just to feel good about yourself'
p2796
aS'what'
p2797
aS'better rap about some trukfit'
p2798
aS'same'
p2799
aS'do you ever just cry bc austin mahone\xe2\x80\x9d yah'
p2800
aS'thank you so much bby ilysmmmm\xf0\x9f\x98\x98\xe2\x9d\xa4'
p2801
ag353
aS'no bby dm me'
p2802
aS'nancy no'
p2803
aS'if you follow me ill get 200 people to follow him free follows yay'
p2804
aS'austinmeetrap my nigga my nigga\xe2\x80\x9d i just yelled'
p2805
aS'care i cant even spell fml'
p2806
aS'im getting laid'
p2807
aS'haha thanks idk i dont even cate anymore'
p2808
aS'stay strong bby ill pray for you i know youll get better ilysm'
p2809
aS'shipping with the janoskians rt  send a picture amp   free bc i reached my goal'
p2810
aS'okay ive never done this but rt for a mean funny indirect dont be offend bc im just joking'
p2811
aS'these twitter updates always catch me off guard \xf0\x9f\x98\xb3'
p2812
aS'i wanna see that ass'
p2813
aS' gets 0 compliments from tbe mahomie compliments account '
p2814
aS'for someone as ugly as me i sure have some high standards'
p2815
aS'austinmeetrap'
p2816
aS'ill cut off my lower limbs for austinmeetrap to happen ok thx'
p2817
aS'maybe not that just makes sense but no hahaha'
p2818
aS'tell me im pretty'
p2819
aS'im 99 sure joelle or keely bc they complained to me about that last night'
p2820
aS'im 10 away from my goal please help me out and rt'
p2821
aS'thank u tho nikki ily \xe2\x9d\xa4\xe2\x9d\xa4'
p2822
aS'lol i know who sent that'
p2823
aS'dont you think its kind of two faced how alyssa cal \xe2\x80\x94 shes not two faced though shes one of my good fri'
p2824
aS'hapoy birthday bbyyy \xf0\x9f\x98\x98\xf0\x9f\x98\x98\xf0\x9f\x92\x95 sydneyforugirldec7'
p2825
aS'the struggles of trying to think of a good tweet  i dunno how to end this one either hahaha what a fail'
p2826
aS'wonders how i can be one of austins favorites'
p2827
aS'\xf0\x9f\x98\x9c wasssupp '
p2828
aS'soo the should just come entertain us everyday yeah as long as our set stays in tact \xf0\x9f\x98\x82'
p2829
aS'people are so rude ugh'
p2830
aS'aw ily'
p2831
aS'is it possible to rt more than once\xe2\x99\xa5\xe2\x99\xa5\xe2\x99\xa5'
p2832
aS'im gonna rape u if u dont vote for me well ok \xf0\x9f\x98\x8f voteaustinmahone'
p2833
aS'austin ur winning i know im the shit bitch voteaustinmahone'
p2834
aS'throwback to our win r u mad too bad'
p2835
aS'what does the crew say ur an embarrassment to the whole world pls stop oh my god'
p2836
aS'but mom i want pizza  austin put on ur makeup first ugh fine'
p2837
aS'u ready for this dick yes joe stick it in'
p2838
aS'rt if u cried'
p2839
ag353
aS'never forget'
p2840
aS'i was looking for my mascara '
p2841
aS'stand up to bullying\xe2\x80\x9d ok lolz'
p2842
aS'i feel like austin tries so hard to make us happy and sometimes we only focus on all this negative drama instead of reali\xe2\x80\xa6'
p2843
aS'today stats 419 followers 40 unfollowers and followed 12 people via'
p2844
aS'rt for an indirect and a rate mbf i will rate your acc 15 by how many free follows i give you if i give u 2 follows yo\xe2\x80\xa6'
p2845
aS'throwback ily clint u da bomb'
p2846
aS'skips v line \xf0\x9f\x98\x8d\xf0\x9f\x98\x8d\xf0\x9f\x98\x8d'
p2847
aS'congrats on your austin follow bby you deserve it '
p2848
aS'cute texts from the bae \xf0\x9f\x92\x95'
p2849
aS'tysm'
p2850
aS'edniunijexjjixsmjkwxjknjwxjnksxjnwx im happy for you again'
p2851
aS'yo ilym'
p2852
aS'yo i love you'
p2853
aS'yes nikki he did '
p2854
aS'austin followed u'
p2855
aS'im so annoyed and upset right now and i really dont have a reason'
p2856
aS'me'
p2857
aS'2 2 2 2 2 2 2 2 2 2 2 2 22 22 2'
p2858
aS'its late but congrats on getting followed by austin you deserved it '
p2859
aS'just bc im nice to u doesnt mean i like u'
p2860
aS'austin followed alyssa and joelle and theyre not even online so they dont know yet im screaming'
p2861
aS'austin rtd marissa and followed alyssa kaytin and joelle today is a good day i am so happy for them'
p2862
aS'ineed to start doing that well'
p2863
aS'brittany is actually so pretty tho bye'
p2864
aS'i want one'
p2865
aS'yes\xf0\x9f\x98\x82 yayforaustinmahonestickers'
p2866
aS'dont say that connections111 '
p2867
aS'austin followed three of the old midnight mahomies in a row uh'
p2868
aS'the same thing happened last week to me his twitter is messed up seriously dont worry you will get it back bby i did lt3'
p2869
aS'is that austin on ur boob im laugijing really hard at that'
p2870
aS'i cant braehteee'
p2871
aS'i dont get you lol you constantly complain about people not using the button but i never see you use it'
p2872
aS'ok good take them'
p2873
aS'no brittany no'
p2874
aS'lmao i just saw someone copy a tweet i just rtd in my tl originality '
p2875
aS'but everytime i see an icon of a mahomie being the u girl i just feel like crying austin mahone breakoutartist peo\xe2\x80\xa6'
p2876
aS'i threw something at the ladybug now its gone dammit alyssa see what u do fml'
p2877
aS'i hope i really do'
p2878
aS'which ones ariana im choking so lucuds'
p2879
aS'this isnt funny theyre disgusting someone sos'
p2880
aS'theres a ladybug on my wall please kill it im going to cry im screads'
p2881
aS'this is really horrible for me my town has a ladybug overpopulation ampbc its getting cold they come inside u dont understand im so scared'
p2882
aS'alright whos rting the food porn u need to go'
p2883
aS'to all the people who dont follow all 5 boys'
p2884
aS'hey you yes you youre gonna be the u girl one day so dont you ever give up\xf0\x9f\x92\x95'
p2885
aS'stopp this was the first thing i saw in my tl  ily bby'
p2886
aS'stop im jealous yes my school is super strict i hate it'
p2887
aS'i always forget dave follows me'
p2888
aS'congratsssss'
p2889
aS'bc my bus has lame ass rules literally i got written up on the bus bc i had my ipod out'
p2890
aS'thanks bby'
p2891
aS'omg still congrats '
p2892
aS'still suspended from the bus and my mom leaves for work at 6 so might not be going to school or going late again wow'
p2893
aS'guys but wait i officially have austin and all his family the only people i dont have follows from are tc mike and rocco'
p2894
aS'7 months and a day ago you were still alive 7 months ago you died  i miss you more than words lilylt3333'
p2895
aS'rt this and ill buy you a tiger and a red pair of google glasses  austin mahone breakoutartist peopleschoice'
p2896
aS'im so paranoid that ill accidentally block austin like i dont even want to go on his account im that scared oops'
p2897
aS'arianas releasing one song every week the originality'
p2898
aS'ew that picture is actually so horrible sorry i deleted it lmao'
p2899
aS'congratsssssss he followed u  austin mahone breakoutartist peopleschoice'
p2900
aS'congrats lol'
p2901
aS'yess thank u bby'
p2902
aS'congrats  '
p2903
aS'he followed you back aw congrats'
p2904
aS'update my dms to austin send now and im fuckgin'
p2905
aS'can i just get a retweet austin mahone breakoutartist peopleschoice'
p2906
aS'congrats '
p2907
aS'still hasnt set in my austin follow is finally fuckign back austin mahone breakoutartist peopleschoice'
p2908
aS'tysm lt3'
p2909
aS'congrats on your follow ogmfkd'
p2910
aS'that tweet was so gross and cringe worthy im sorry austin mahone breakoutartist peopleschoice'
p2911
aS'austin mahone the singer i think you mean austin mahone the tiger tamer\xf0\x9f\x98\x82 breakoutartist peopleschoice \xe2\x80\xa6'
p2912
aS'i want a pair of those google glasses they look so cool \xf0\x9f\x98\x86'
p2913
aS'emily'
p2914
aS'they come in red \xf0\x9f\x98\xb1\xf0\x9f\x98\xb1\xf0\x9f\x98\xb1\xf0\x9f\x98\xb1\xf0\x9f\x98\xb1'
p2915
aS'if we consistently vote then i know for a fact that we will win austin mahone breakoutartist peopleschoice'
p2916
aS'he won a vma and 2 emas this year were gonna get this one too austin mahone breakoutartist peopleschoice'
p2917
aS'ur so cute lol'
p2918
aS'no cuz i would train him right'
p2919
aS'loving the new twitter update tbh'
p2920
aS'yes'
p2921
aS'im alyssa '
p2922
aS'my crush added me on facebook then liked my profile picture i m n o t ok ay'
p2923
aS'lmao we can be friends '
p2924
aS'fabbbb and u'
p2925
aS'lmao the questions in the mahomie burn book askfm that werent answered im crying from laughter'
p2926
aS'cant stop laughing oh my godf'
p2927
aS'who runs this acc dm me ill keep it a secrett'
p2928
aS'slow down grab ur phone vote like ur tryin to make ur hands fall off austin mahone breakoutartist \xe2\x80\xa6'
p2929
aS'hiii'
p2930
aS'who even does that i cant breahte'
p2931
aS'im laughing so hard at some of these'
p2932
aS'tbh i kinda do i theres nothing wrong with confessing but tweeting them anon is what bothered me'
p2933
aS'i didnt say anything i just dont understand how you could post those things knowing it tears them down'
p2934
aS'care how much it hurts some people its ridiculous'
p2935
aS'either way i dont understand how you could even post things like this like knowing it hurts other people do you just not'
p2936
aS'how do u feel knowing that the things u post make other people hate themselves how can u continue something so degrading'
p2937
aS'my last tweet got us almost 2k votes for the voteaustinmahone so i figured doing it again would get votes just with this category so rt it'
p2938
aS'slow down grab ur phone vote like ur tryin to make ur hands fall off austin mahone breakoutartist peopleschoice'
p2939
aS'rt for an indirect \xf0\x9f\x8c\xbb mbf cos i said so niggahs'
p2940
aS'theres nothing i love more than this picture im sorry but'
p2941
aS'youre so cute lol stop'
p2942
aS'i change my account way too much'
p2943
aS'youll get it seriously dont give up'
p2944
aS'gucci'
p2945
aS'so cool to be invited to the hunger games premier last night'
p2946
aS'had a great night last night '
p2947
aS'ted you are the funniest cunt haha'
p2948
aS'cheers for the invite last night all of us boys had a sick night '
p2949
aS'every time i hang out with daisy i think of u'
p2950
aS'woo congrats you deserve it'
p2951
aS'there are 2 type of mahomies voteaustinmahone'
p2952
aS'thanksd bby'
p2953
aS'im so happy for you omfg congratulations'
p2954
aS'never stop showing that smile'
p2955
aS'lmao iknow'
p2956
aS'aww congrats'
p2957
aS'alyssa dyjeebh'
p2958
aS'yay omg'
p2959
aS'yeah sure '
p2960
aS'awh congrats \xf0\x9f\x8e\x89\xe2\x9d\xa4\xe2\x98\xba'
p2961
aS'yes'
p2962
aS'his twitter did last week but i just got it back today '
p2963
aS'teamnevertweetedbyaustin'
p2964
aS'daisty'
p2965
aS'i love justin i just dont like beliebers'
p2966
aS'exactly one week ago today was when austin refollowed then unfollowed and im so glad i got it back tbh'
p2967
aS'have you voted today austin mahone breakoutartist peopleschoice'
p2968
aS'lucky bish'
p2969
aS'oh ny tosh congratulatiosn'
p2970
aS'thats actually really funny i cant stop laughing ioh mygod'
p2971
aS'thank you for following me it really made my whole day'
p2972
aS'fuck'
p2973
aS'i can change my bio to 44 omg'
p2974
aS'congratulations\xf0\x9f\x8e\x89\xf0\x9f\x8e\x89\xf0\x9f\x92\x95\xf0\x9f\x92\x95'
p2975
as.