(dp0
S'2013_42'
p1
(lp2
S'a year ago i visited the office in culver city and culture surrounding it is incredible congrats amp'
p3
asS'2013_43'
p4
(lp5
S'how cool would a import into plugin be so cool'
p6
aS'that photo of you in the newsletter this morning was sick'
p7
aS'welcome to california'
p8
asS'2013_40'
p9
(lp10
S'great job and on the new site'
p11
asS'2013_46'
p12
(lp13
S'usc that was an incredible football game'
p14
aS'stellar are performing tonight at via'
p15
asS'2013_47'
p16
(lp17
S'ive been using lately and its great wonderful job sam'
p18
aS'whats next for me'
p19
aS'your talk was fantastic i can\xe2\x80\x99t wait to see what you and have next'
p20
aS'that deserves a double thumbs up'
p21
aS'awesome and thanks for recommending i\xe2\x80\x99ll have to add the new album to my collection'
p22
aS'that set looks stunning how was it'
p23
aS'ha'
p24
aS'definitely a must already picturing it now'
p25
aS'i literally thought it said meatballs'
p26
asS'2013_44'
p27
(lp28
S'oh my gosh'
p29
aS'holy moly when did you join google'
p30
asS'2013_45'
p31
(lp32
S'that\xe2\x80\x99s one awesome way to celebrate never knew you could do such a thing'
p33
asS'2013_48'
p34
(lp35
S'wow and congratulations michael'
p36
aS'very nice article on animated svgs today i was just playing around with your workflow and it implemented very well bravo'
p37
aS'it definitely deserves a'
p38
aS'lololololol'
p39
asS'2014_44'
p40
(lp41
S'filmed a behind the scenes look on what does in la with the crew check it'
p42
aS'although its tacoweek its also therace with at'
p43
aS'its a halloween when you have chocolate chocolate ice cream and milk right i think so'
p44
aS'yes and i build em'
p45
aS'from now on ill try to be perfect i swear'
p46
aS'my reaction rn'
p47
aS'and this is the part where should go get'
p48
aS'if you\xe2\x80\x99re in nyc next week support my friend in awareness for tixs available on amp'
p49
asS'2013_24'
p50
(lp51
S'cool just shot you an email by the way'
p52
asS'2013_26'
p53
(lp54
S'fully migrated today to and reader so'
p55
asS'2013_21'
p56
(lp57
S'purchased 3 dls for the performing arts rooms at my school absolutely stellar'
p58
asS'2013_22'
p59
(lp60
S'people in front of me david beckham and tom cruise'
p61
asS'2013_23'
p62
(lp63
S'they are pretty stellar and congratulations on the position at'
p64
aS'is that a cup of coffee from'
p65
asS'2013_28'
p66
(lp67
S'no problem and thanks for responding'
p68
aS'sent an email earlier by the way'
p69
asS'2013_29'
p70
(lp71
S'you two are geniuses love the idea'
p72
asS'2014_38'
p73
(lp74
S'related twitter delay i had a blt with guacamole spread for lunch today it was so good and i can\xe2\x80\x99t stop thinking about it'
p75
aS'sorry i\xe2\x80\x99m so delayed on this twitter thing it has been nearly four years and i still can\xe2\x80\x99t get it'
p76
asS'2014_39'
p77
(lp78
S'since i dont have a screen protector on my new iphone 6 i decided to protect it with scotch tape it saved a drop just now yes it did'
p79
asS'2012_1'
p80
(lp81
S'happy birthday man humongo fan'
p82
asS'2013_36'
p83
(lp84
S'received digest magazine from earlier today wow is it nice'
p85
asS'2014_41'
p86
(lp87
S'oh youre eating trail mix eh me yes oh guy so youre eating chocolate with obstacles in it me '
p88
aS'just under 30 minutes till tickets hit you la'
p89
aS'my macbook be decked  and'
p90
asS'2013_32'
p91
(lp92
S'excellent experience at every time thank you for the recommendation'
p93
asS'2013_31'
p94
(lp95
S'cool hope your stay here is better than hotel insanity'
p96
aS'need some help what are you looking for'
p97
asS'2013_30'
p98
(lp99
S'thats exactly it thanks'
p100
aS'by the way where can i find my user number'
p101
aS'used today for the first time absolutely awesome'
p102
aS'hey im having trouble finding friends via twitter'
p103
asS'2013_16'
p104
(lp105
S'i have an idea for uber is their a chance i could email you'
p106
asS'2013_39'
p107
(lp108
S'ladies and gentlemen you don\xe2\x80\x99t want to miss holding the motion of how designers should be ceos'
p109
asS'2013_10'
p110
(lp111
S'hello again internet it has been a long hiatus'
p112
as.