(dp0
S'2013_42'
p1
(lp2
S'tf she think this is '
p3
aS'well gettin the boot i need a new nawlins dip they can marry you today you still mines'
p4
aS'im innat hoe'
p5
aS'leos are attracted by looks but personality makes them stay'
p6
aS'you cant change a leos mind but they can change yours'
p7
aS'that nigga made sure he wasnt forgotten'
p8
aS'rip troy'
p9
aS'but yeaaaaaathese 2 days need to hurry up tho lol'
p10
aS'as much as i hate this school shit i gotta get back in it'
p11
aS'idk how i made it outta high school i did absolutely no work'
p12
asS'2013_43'
p13
(lp14
S'sipped all the way to vlive'
p15
aS'vlive tonight \xf0\x9f\x98\x8fsee you there '
p16
aS'i guess im hitting the strip club tonight booty booty booty booty rocking everywhere'
p17
aS'my young looking ass'
p18
aS'you hell'
p19
aS'i aint roll since the tent party last yearmy best roll ever lmao'
p20
aS'lol smh be careful'
p21
aS'i procrastinate too much'
p22
aS'i need another one of my friends to have a baby so i can spoil it'
p23
aS'when a leo really cares about someone their happiness matters more than their own'
p24
aS'there should be more girls like mewith hearts'
p25
aS'i had to unfollow a pretty girl on ig it just didnt feel right knowing her nigga be all in my face when he see me smh'
p26
aS'dude tried to play my city'
p27
asS'2013_40'
p28
(lp29
S'atl was a good moviethey need a atl2'
p30
aS'im still walking through the crowd like i cant be touch'
p31
aS'i cant never keep calm'
p32
aS'140 characters in these streets nigga'
p33
aS'taken 2 kinda sorry  the first one was waaaaay better'
p34
aS'and they wonder why i used to hang around nothing but niggasthese hoes phony'
p35
aS'this old man was flirting his ass off with me lol'
p36
aS'im so im so im so im so proud of you'
p37
aS'braids or a sew in hmmm'
p38
aS'ill never trip over some shit thats not mine  especially some shit i done already had \xf0\x9f\x98\x90\xe2\x9c\x8b\xf0\x9f\x98\xa9\xf0\x9f\x98\x82 '
p39
aS'when that right eyebrow raise up just walk away'
p40
aS'without that badge you a bitch and a half fuck the police'
p41
aS'4 months strong'
p42
aS'everybody turning up tonightbut me'
p43
aS'i dont curse anymoreyou just cursed me out tho'
p44
aS'only carry big things if ya know what i mean'
p45
aS'if ya status aint hoood i aint checkin for him lol'
p46
aS'dont give me the gun that shoots multiple bullets with one shot'
p47
aS'i jus see shit for how it really is not how i want it to be'
p48
aS'a fucked up world man'
p49
aS'got a couple bad chicks that im messing round wit but its one bad chick you can see aintme'
p50
asS'2013_41'
p51
(lp52
S'head is killing me'
p53
aS'dont worry hell come around'
p54
aS'bored'
p55
aS'my mawmaw always tell me everything i need to hear'
p56
aS'then went back to the turn up house tylers house'
p57
aS'last year on this wednesday i had a 600 class nd went after fuentes lit lmao'
p58
aS'wednesday could be one of the livest days of my life will be ima make it'
p59
aS'tryna show me how to dance nd shitshe must not know'
p60
aS'you better be mara we finna turn tf upyou know i am'
p61
aS'my mama is a character'
p62
aS'all party plans are set wednesday after fuentes im innat hoe'
p63
aS'god just keep on blessing me'
p64
aS'tryna get it anyway it come at me'
p65
aS'bingo solo dolo'
p66
aS'oh how i miss fuentes'
p67
aS'thursday the 17th'
p68
aS'ill be there all day wednesday so fuggit '
p69
aS'last year ass was thrown all around that tent well thats everywhere i go'
p70
aS'what annoys me the most is that im really missing this tent party like who does that '
p71
aS'woke up with my man in my dreams'
p72
aS'joseph cason jr i pray for you'
p73
aS'been up for a hour why am i still in bed'
p74
asS'2013_47'
p75
(lp76
S'its my birthday hehehe'
p77
aS'how you think i got you somebody got laid off'
p78
aS'ima pimp i pimp a chicken until she get played out'
p79
asS'2013_44'
p80
(lp81
S'if a nigga stop fucking with me he couldnt take that i was wayyy ahead of him facts'
p82
aS'its some hoes out there like that tho'
p83
aS'i just need a consistent man one i dont have to worry if im gonna seetalk to him today or not is my day thursday or friday looking ass'
p84
aS'brutal honesty affection consistency amp support is all i need \xe2\x9d\xa4'
p85
aS'b o r e d'
p86
asS'2013_45'
p87
(lp88
S'but  hello \xf0\x9f\x91\x8b'
p89
aS'nigga you aint fuck shit'
p90
aS'yellas not really my type brown skin honeys tho \xf0\x9f\x99\x8c'
p91
aS'cant never sleep when i want to'
p92
asS'2013_25'
p93
(lp94
S'aite hmu'
p95
aS'lol smh i feel ya'
p96
aS'you move too much im in houston'
p97
aS'drinking all summer'
p98
aS'cause i be up all night'
p99
aS'lol smhwya'
p100
aS'i wish morning was nighttime and nighttime was morning'
p101
aS'lovin u is cool but gettin money da only thing dats on my mindso i guess the whole world feeling like this'
p102
aS'morning twitter'
p103
asS'2013_22'
p104
(lp105
S'thank you god for pasties'
p106
aS'capricorns amp libras gt'
p107
aS'cancers too emotional  im good on yall \xe2\x9c\x8b'
p108
aS'cant fool me love'
p109
aS'i peep everything'
p110
aS'why did i make another twitter why'
p111
aS'wake up in the morning feeling like p diddy'
p112
asS'2013_21'
p113
(lp114
S'but if you leave who else gon hold me down'
p115
aS'you say that you understand but you dont you really dont'
p116
aS'i know if i could hit once i could hit twice'
p117
aS'nan nigga x trick daddy'
p118
aS'i got the magic stick'
p119
aS'you got style just like a bently coupe'
p120
aS'lets do this dirty laundry dirty laundry'
p121
aS'just posted a photo'
p122
aS'bring me some followers you guys lol'
p123
aS'trap house 3'
p124
aS'i love being high'
p125
aS'i dont never wear lipstick but this candy yumyum is cuteeee'
p126
aS'i guess ill get up now'
p127
aS'lol hell yeaall i look at is pictures all damn day'
p128
aS'i need a gold grill '
p129
aS'im so mad i deleted my twitter why would i do such thing'
p130
aS'i hate hispanic men stop fuckin staring before i cuss your pervert ass out '
p131
aS'bet'
p132
aS'follow me back right now'
p133
aS'bet ima hyu when i get out there'
p134
aS'when your bday amp wats the turnuppp'
p135
aS'same place but im coming out there next weekend'
p136
aS'i just popped up on this hoe on some pimple shit'
p137
aS'nothing but working still in the h'
p138
aS'neva let a nigga think u needm'
p139
aS'wat you been up to nigga'
p140
aS'hey lol'
p141
aS'heyyyy lol'
p142
aS'hello twitter'
p143
asS'2013_37'
p144
(lp145
S'theres no way i can eat a sandwich without chips on it been that way since i was a youngin'
p146
aS'even get that shit outta here'
p147
aS'i love me some boxing'
p148
aS'knock that bitch out floyd'
p149
aS'tank tooo extra fa me'
p150
aS'im with the moneyteam'
p151
aS'got mo heart than a lot of these niggas'
p152
aS'smart move'
p153
aS'industry of counterfeitsi cant fwyall'
p154
aS'morning codymane'
p155
aS'good morning world \xf0\x9f\x91\x8b\xf0\x9f\x98\x8fthe world good morning my nigga'
p156
aS'making me another insta today'
p157
aS'good morning'
p158
aS'he want that old thing back'
p159
aS'oh really i hate yall dawg'
p160
aS'everytime i lose one i bounce back with two souljaslim'
p161
aS'bro its almost 2014 tf'
p162
aS'bae over here looking all invisible nd shit'
p163
aS'lmaoo bye'
p164
aS'stay outta this dbell lmaooo'
p165
aS'lmaooo ima fuck you up'
p166
aS'i cant deal right now '
p167
aS'no no no we wasnt ready'
p168
asS'2013_36'
p169
(lp170
S'go its gon be live'
p171
aS'pressing the space bar twice lol'
p172
aS'gucci mane tweet how my grandma text lmao'
p173
aS'im not going out but avenue supposed to be poppin'
p174
aS'niggas hungry'
p175
aS'that nigga dead to me like old food throw it away '
p176
aS'lol houstonyou at pv'
p177
aS'yupp'
p178
aS'went drinking last night amp im stuck in bed'
p179
aS'gucci guwop'
p180
asS'2013_33'
p181
(lp182
S'so we aint weits me and him'
p183
aS'ion think its meant to behe loves his work more than he loves me'
p184
aS'a true prettyfine female in my opinon only needs eyeliner to enhance her beautylil lipstick when she feel like doin\xe2\x80\xa6'
p185
aS'look at my boyfriend looking all sexy nd shit with his invisible assmhmmm'
p186
asS'2013_32'
p187
(lp188
S'my mama finna be too live watching this game i just know it smh'
p189
aS'rubicon in december'
p190
aS'bitches will do and say anything to make their selves look good witcho uglass'
p191
aS'i want my own apartment oss \xf0\x9f\x98\x8e'
p192
aS'fuck you mean you aint nasty'
p193
aS'havent had sex or smoked in 2 months lawwwd i need a drink blue muthafucka that is'
p194
aS'phuck you human nature'
p195
aS'gtgtgtunexpected visitors'
p196
aS'thats shecold  no sense in changing it thats all they know'
p197
aS'what am i waiting on'
p198
aS'we in the chase for that diddy dough'
p199
aS'have faith like biggie tho'
p200
aS'when you stupid hoes gone learn ya lesson'
p201
aS'what bra i have on in that avi tho '
p202
aS'peanut butter amp jelllyyyy'
p203
aS'boy that hoe was too clutch rt who remember limewire '
p204
aS'once had a awkward moment only cause i wanted to'
p205
aS'i wanna take a pic with somebody gf and caption it i got anotha nigga bitch wit mei swear me too lol'
p206
aS'i can count my followers on both my hands and feet sad case'
p207
aS'i wonder when nuney coming'
p208
aS'giving insta a breakhello twitter'
p209
aS'heyyyy courtney lol'
p210
aS'why do i still have this twitter lol'
p211
asS'2013_24'
p212
(lp213
S'lemme see where yo head at'
p214
aS'wassup ima show you wassup'
p215
aS'i aint did shit all day'
p216
aS'fuck that 2 monthsgot me fucked up'
p217
aS'niggas really be on dat aint talk to her in 2 days gotta let her mind wonderdont call me in 2 days yu wont hear from me in 2 weeks tf'
p218
aS'ill never be a morning person'
p219
aS'say she wanna hang when she wanna hang bang who she wanna bang bang'
p220
aS'man your bitch is off the leeaaacchhhh'
p221
aS'i been waking up early as hell lately'
p222
aS'heartbreaker you got the best of me'
p223
aS'why my bday gotta be at the end of july '
p224
aS'im going home essence weekend'
p225
aS'mara with a ass hmmmm'
p226
aS'girls been eating good tho results coming soon'
p227
aS'martin and pam wanted to fuck one time for the one timefasho they did'
p228
aS'i just love my mom i swear u realize the value of a mother as u get older'
p229
aS'so to yall for following my extra lame ass'
p230
aS'bro i only got 19 followers lmaooo'
p231
aS'mara me vlive surrday beeeet\xe2\x80\x9d im in there tooooo\xe2\x80\x9d\xf0\x9f\x99\x8cwhoop whoop'
p232
aS'a tired fee'
p233
aS'i am not the one'
p234
aS'a break is only an excuse to do what you wanna do'
p235
asS'2013_23'
p236
(lp237
S'how i end up out of houston '
p238
aS'724'
p239
aS'time to pass this bad boy down'
p240
aS'lmaoo'
p241
aS'its not like i dont do wtf i wamt now but itll be nice to show my own identification'
p242
aS'a bitch bouta turn 21 amp shit'
p243
aS'vanilla smell soooo good'
p244
aS'leo can always sense when there is something else that needs to be said'
p245
aS'howtoattractaleofemale  dont just tell her you love her \xe2\x99\x8c show her'
p246
aS'i meaannn no kinda response'
p247
aS'i hate waking up mad'
p248
aS'amp if im calling you maam  your clearly too old to be fucking with me'
p249
aS'i have a personal problem with you but dont know you maam your crazy'
p250
aS'dont call me amp when i call you you dont answerdisrespectful'
p251
aS'im so freaking tired man '
p252
aS'happy birthday'
p253
aS'rich homie quan  some type of way'
p254
aS'donuts'
p255
aS'adios'
p256
aS'mygirlfriendisnotallowedto say her grace in her head ineed to kno wat you talkin to god bout lol\xe2\x80\x9dim done'
p257
aS'im supposed to be schleep'
p258
aS'aint no nigga finna stop my shine amen'
p259
aS'this nigga on diners drive in n dives whatever it is aint never givin up on tryna look like a beach boy fat ass'
p260
aS'if you cant be petty with me we are not friendsi repeat welol'
p261
aS'oh'
p262
aS'this was fashooooo last night'
p263
aS'who gave this trick emojis where ha ipheezy '
p264
aS'only in the inbox dont play me hoe lmao'
p265
aS'i want yall to see my emojis'
p266
aS'keep it between me n u gurl '
p267
aS'every little thing that we do should be between me amp you lookinass'
p268
aS'i know i be back thoidk when but i be back lol'
p269
aS'like forealyall dont even know'
p270
aS'nuney be killing me'
p271
aS'fight meniggas wanna go we can go yea im talking heads up'
p272
aS'if you dont got you a rude bitch you better get you one'
p273
aS'people just say anything\xe2\x80\x9d girl stfult prime example'
p274
aS'im done with you'
p275
aS'amp they done fucked up giving android vine'
p276
aS'people just say anything'
p277
aS'mannn free my thugg i miss my brudda mane i need my nigga home and dats 100'
p278
aS'back in houstoni left this morning man'
p279
aS'lol aite bet'
p280
aS'go to sleep'
p281
aS'i stole a copy of pineapple express from my ainie this morninglmaooo make me a copy'
p282
aS'had a good lil weekend'
p283
asS'2013_39'
p284
(lp285
S'lol'
p286
aS'my lil mama miss me nshit i cant stop thinking bout nuney i need to be brainwashed\xe2\x80\x9d'
p287
aS'fuck it im riding with my headphones in amp i want somebody to say sumtn'
p288
aS'ughhhhhhhh'
p289
aS'fuuucccccccccckkkkkkkkk i dont have my aux cord'
p290
aS'cant wait to get in the car so i can bump dc3'
p291
aS'i cant stop thinking bout iti need to be brainwashed'
p292
aS'that dream last night was so uncalled for'
p293
aS'i got anotha nigga bitch with me ilovenuney'
p294
aS'gotta get all of this money only thing that i been thinking'
p295
aS'i get home i just wanna lay there'
p296
aS'spread ya legs get me liveeeee every time \xf0\x9f\x99\x86\xf0\x9f\x99\x86\xf0\x9f\x99\x86its that beat'
p297
aS'its the weekend '
p298
aS'lol swear i be forgetting i got your  ima hyu when i come back'
p299
aS'yea mani been coming down there like crazy tho im coming next month'
p300
aS'shit man bouta take my ass to sleep now lol'
p301
aS'uh oh another way for niggas to get caught upvideo texting lmao glide'
p302
aS'me amp my auntie talking on glidei like it'
p303
aS'being single really gives you time to truly figure out who you are real'
p304
aS'especially when its your nigga \xf0\x9f\x98\xa9\xf0\x9f\x99\x8c'
p305
aS'a fly ass nigga gtgt just make you wanna give it to him every time he come around'
p306
aS'lol aww hush'
p307
aS'nigga really took a picture with that santa lmao'
p308
aS'justin my nigga'
p309
aS'\xf0\x9f\x98\x82rt if youve taken a picture with him neworleanssanta'
p310
aS'everybody so photogenic now'
p311
aS'courtney janae king'
p312
aS'only my mama still buy basic ass fruit loops'
p313
aS'just wish i had some lucky charms apple jacks something fun ya know with marshmallows'
p314
aS'i eat cereal every night dawg'
p315
aS'lol i feel that chase that paper'
p316
aS'a girl just wanna have fund'
p317
aS'its safe to say right'
p318
aS'hate a bitch that act like her shit dont stank just being pretty dont get you too far'
p319
aS'dontcha wish ya gf was fun like me pcd'
p320
aS'good moaning'
p321
aS'shit sad lol'
p322
aS'at what age do niggas finally grow up\xe2\x80\x9d50aww damn so you telling me i gotta wait til 50 smh'
p323
aS'at what age do niggas finally grow up'
p324
aS'this fall is starting off beautiful'
p325
aS'goodnight'
p326
aS'im in the bed early tonight'
p327
aS'i wish i could still be the playa i once was '
p328
aS'if i have to settle for a piece of you then its peace to you'
p329
aS'\xf0\x9f\x92\xad'
p330
aS'me amp my mama so drunk lmaooo'
p331
asS'2013_38'
p332
(lp333
S'all me foreal'
p334
aS'no help thats all me'
p335
aS'not turning up til pv homecoming i think'
p336
aS'maneuver that ass'
p337
aS'they say snakes in the grass so ima cut that shit'
p338
aS'lmaooo righhhht we are well maintained i can say lol'
p339
aS'where my babydaddy at where he at lol'
p340
aS'i dont think i can take another me lol we done did alot of shit moriah lol'
p341
aS'in my head i be saying are you done yet'
p342
aS'i be wanting to throw all type of shit at my mama head shut upppppppp'
p343
aS'maybe 1'
p344
aS'i want all boys i want all the attention no girls allowed'
p345
aS'ill grow up when i have a responsibility'
p346
aS'yall i want a little boy so bad i just need to find his daddy \xf0\x9f\x91\x80\xf0\x9f\x98\xa9 lolme toooo lol'
p347
aS'something to do when its nothing to do'
p348
aS'dude a trip'
p349
aS'nann nigga'
p350
aS'my face breaking out but noone seems to see it'
p351
aS'what phone company you witg'
p352
aS'you kno i aint going nowhere girl'
p353
aS'i tell all my female friends to stay single these niggas not trying to build nothing but they list of bad bitches they sma\xe2\x80\xa6'
p354
aS'sleepy but cant sleep'
p355
aS'free lil joe'
p356
aS''
p357
aS'niggas be quick to call a girl a hoe but be even quicker to put they dick in one \xe2\x9c\x8b\xf0\x9f\x98\xb7'
p358
aS'maaan i need a overnight job'
p359
aS'that hoe brooklyn talk too much shit dawg'
p360
aS'jamara frontin on twitter put this hoe in jail for the night lollmaooo bitch'
p361
aS'temporary'
p362
aS'when you off again hoe'
p363
aS'i need me a temporary niggai guess i can go back to pimping'
p364
aS'bitch you stupid lol'
p365
aS'why tho you asked 600 for your phone or nahhi said nahhhh lmaoo'
p366
aS'nahhhhh'
p367
aS'i wonder do niggas know how stupid they sound when they tryna explain themselves'
p368
aS'loyal women are hard to find amp vice versa'
p369
aS'yea i made my mistakes but your a girl you know better'
p370
aS'if i find out you fucking with somebody else we done tuh'
p371
aS'us dudes are not dat mature enuf dats why our girl have to hold us down no matter wat tuh'
p372
aS'brooo all you hoes cant wear lashes lol'
p373
aS'idris elba gtgtgt'
p374
aS'aint nothing in texas for me anymore'
p375
aS'i wanna move back to new orleans'
p376
aS'that avi'
p377
aS'all my pride is all i havveee youll be needing me but too bad\xe2\x80\x9d get out nahh'
p378
aS'sike i love me sum noonknee lol'
p379
aS'she reminds me of people that reminds me of a person ugh'
p380
aS'i cant fuck with nuney nomore'
p381
aS'all my pride is all i havveee youll be needing me but too bad'
p382
aS'i miss the kid'
p383
aS'ughhh'
p384
aS'aint my concern anymore'
p385
aS'good morning'
p386
aS'i bet yo bitch want a nigga'
p387
aS'50k for a show'
p388
aS'either u real or u fake no in between riplilsnupe'
p389
aS'i love small pretty ppl dawgwe love you too small person'
p390
aS'at night im a xpill in the morning im more of a xanax'
p391
aS'i never can go to sleep'
p392
aS'nigga say i got seasonal love lmao tf is that'
p393
aS'im such a caring person but my feelings just dont gaf'
p394
aS'my exs always seem to try to find they way back over here  real shit'
p395
as.