(dp0
S'2014_35'
p1
(lp2
S'whatever asshole have my fucking account'
p3
aS'stop hacking me you stupid twats'
p4
aS'you seriously are the biggest asshole is the history of people you could have just asked for my acc'
p5
aS'whos account did you do this on '
p6
aS'fuck you'
p7
aS'you could have just fucking asked to have my acc and i wouldve given it to you but noo'
p8
aS'the sad part is that you hacked my acc just as i was about to deactivate'
p9
aS'give me my fucking account back'
p10
aS'you little asshole'
p11
aS'youre a fucking prick'
p12
asS'2014_30'
p13
(lp14
S'turn up'
p15
as.