(dp0
S'2013_7'
p1
(lp2
S'lalala'
p3
aS'follow back '
p4
aS'follow back please '
p5
aS'follow back hun '
p6
aS'follow back please '
p7
aS'follow back please '
p8
aS'follow back '
p9
aS'follow back please i love your tweets c'
p10
aS'follow back pleaselt3'
p11
aS'follow back pleaselt3'
p12
aS'follow back please lt3'
p13
aS'follow back please lt3'
p14
aS'lt3'
p15
aS'exactly p'
p16
aS'i love you'
p17
aS'yeah which that cousin is the daughter of my bitch aunt aka dads sis p'
p18
aS'yes cutie'
p19
aS'i never taught her my cousin did p'
p20
aS'im okay'
p21
aS'haha my mom took forever to understand facebook'
p22
aS'no '
p23
aS'it took him only 3 hours to forget'
p24
aS'i dont want to because im really sad today and you dont need to listen to it lt3'
p25
aS'yeah true haha this reminds me of my attempt at teaching gramps to text p'
p26
aS'im always complaining i wanna listen to you lt3'
p27
aS'i dont wanna be self centered haha awww thats so cool c my mom hasnt discovered themyet'
p28
aS'eh enough about me what are you doing baby lt3'
p29
aS'lt3 i will baby im kinda down today p'
p30
aS'over now because of the boxes and tools '
p31
aS'it was pretty good because i didnt cashier much ha they had me unload and stock frozen foods and my hands have cuts all'
p32
aS'haha im still using the other one i just want something diff right now im gonna use this as backup c'
p33
aS'hi bby'
p34
aS'the kind of flawless i wish i could be'
p35
aS'thank ya love \xe2\x99\xa1'
p36
aS'this is a saved acc and i wanna use this one too c'
p37
aS'kaylaaaa my food buddy c follow back'
p38
aS'hiii mu follow back'
p39
aS'hi qt can i get a follow back'
p40
aS'hiii andie can i get a follow back woop wool'
p41
aS'ay bitch can i get a follow back'
p42
aS'hi guys its manda follow me back on this acc too\xe2\x99\xa5'
p43
aS'hi its manda follow back\xe2\x99\xa5'
p44
aS'hey guys its manda im gonna use this acc too follow back\xe2\x99\xa5'
p45
aS'gonna start using this account more'
p46
as.