(dp0
S'2013_24'
p1
(lp2
S'chris aka summer'
p3
aS'arreeggggghhhhhh'
p4
aS'i got bored'
p5
aS'hahaha in the cushion'
p6
aS'ggs idea of fun'
p7
aS'messing with gg during dora'
p8
aS'fuck you attack on titan hd djejejenkrmdkkekcjrjelalwjjedf'
p9
aS'my city'
p10
aS'city driving'
p11
aS'early nerd rage haha'
p12
aS'i need a woman that likes what i like and does know what she wants'
p13
aS'whhhhaaaaaa blood on the leaves was amazing'
p14
aS''
p15
aS'hehe'
p16
aS'now the mac album '
p17
aS'yeezus is very different but very good'
p18
aS'listening party'
p19
aS'a goofy family lol gqmack912'
p20
aS'i found heaven on earth'
p21
aS'yup'
p22
aS'eatin good gqmack912 and fady lol'
p23
aS'last night was fun as hell'
p24
aS'youre a terrible man'
p25
aS'idk either way im not going im in a strip club parking lot fucked up'
p26
aS'im not going to work tomorrow'
p27
aS'turn uppppp'
p28
aS'ios 7 suck it'
p29
aS'got his ass popped'
p30
aS'prodigy'
p31
aS'bat mobile'
p32
aS'storage wars'
p33
aS'struggggggggllllllleeee'
p34
aS'cruising'
p35
aS'follow that'
p36
aS'damn youuuuu'
p37
aS'no sunglasses'
p38
aS'going to work sadly'
p39
aS'i like that'
p40
aS'playing 2k 3133 at halfim down 2nosweat'
p41
aS'shyt almost got crazy'
p42
aS'i need to get my tweets up'
p43
aS'gotta keep it blunt but i always pass'
p44
aS'if we cant have an intelligent conversation without you being upset that youre wrong we shouldnt have them then'
p45
aS'she got mad that i disproved her i guess its time to scratch out her name lol'
p46
aS'and your whack ass opinions on things that you arent competent of understanding'
p47
aS'fuck yall'
p48
aS'everyone on twitter believes they are philosophers'
p49
aS'nothing'
p50
aS'the transporter strikes again'
p51
aS'preparing for the persians'
p52
aS'really cool neal adams prints'
p53
aS'my big face rolly haha'
p54
aS'i come in peace'
p55
aS'i havent had a person who im excited to receive a text from in a while'
p56
aS'best way to spend 255'
p57
aS'haters gone hate kane shrug'
p58
aS'you guys are cool'
p59
aS'gaming puts a twinkle in my eye haha'
p60
aS'so born sinner is pretty decent'
p61
aS'i think my iphone 5 is smarter than me'
p62
aS'so snapchat me at jimmytwotoes lol go for it '
p63
aS'sick'
p64
aS'i feel like a ton of bricks fell on my head'
p65
aS'its turn down time'
p66
aS'too much to type'
p67
aS'nuts man i got stories'
p68
aS'afgggghhh spurs'
p69
asS'2013_25'
p70
(lp71
S'this is an android 17 figurine from dbz that i got when i was 13 i havent seen it since today i woke\xe2\x80\xa6'
p72
aS'what lesson is there to be learned'
p73
aS'2k '
p74
aS'aerial photo of woodstock 1969'
p75
aS'that and the fact i weigh 140 anyway lol'
p76
aS'i just dont bother'
p77
aS'an individual doesnt want to workout and be fit for themselves theyll only do it for the people'
p78
aS'about that sidewalk there'
p79
aS'love this'
p80
aS'just won some bread n 2kall my guys put money on mewe all eating tonight'
p81
aS'finalllssss'
p82
aS'ive been waiting too damn long faaaaaaaacccccckkkkk'
p83
aS'looks like you ate a few '
p84
aS'rollin haha new security system'
p85
aS'hes happy'
p86
aS'ig videos lol'
p87
aS'why does twitter and tumblr have the most gorgeous women why you no love by me '
p88
aS'no one gets my south park vine  its hilarious'
p89
aS'fadys feminine side'
p90
aS'cloud makers '
p91
aS'so youre still mad lol'
p92
aS'others assume that because im goofy that im less intelligent that would be a mistake'
p93
aS'shes not single shes jimbo'
p94
aS'this workday has been smooth sailing springfield later on today for the pinball machine'
p95
aS'they took errr jeeeerrrbbbss'
p96
aS'so the spurs about to dub these niggas thursday'
p97
aS'at least come get me after the game'
p98
aS'im right here lebron'
p99
aS'fuck basketball man'
p100
aS'when people wake me up from napsi truthfully weigh out the pros and cons of murder'
p101
aS'im waking up from a nap now'
p102
aS'exactly'
p103
aS'on the real though no early morning classes fuuuuucccckkkk dat'
p104
aS'ikr i wake up at 8 for work and i can barley accomplish that'
p105
aS'i say that to myself everyday lol'
p106
aS'sorry about that terrible voice in that vine lmao'
p107
aS'heeeerrrrbbbbbyyyy'
p108
aS'when women smile with their teeth is the prettiest'
p109
asS'2013_26'
p110
(lp111
S'i need good place around pf to cut my hair those whack salons are not cutting it for me no pun intended '
p112
aS'twitter is just a constant reminder of how stupid the general public is'
p113
aS'little do you know we all dance to the tune they sing'
p114
aS'how showered and shneezing '
p115
aS'haha we were hungry'
p116
aS'blackhawks rally'
p117
aS'any mood im in this gets me out of it'
p118
aS'doodle is a creep'
p119
aS'i get anxious in large groups of people \xf0\x9f\x98\x96'
p120
aS'lifes too short to be sad man'
p121
aS'only thing cars bring you'
p122
aS'why are the police always on bs with me '
p123
aS'the tortes only makes progress when his neck sticks out'
p124
aS'people assume that what is given is earned but in reality what is worked for is earned'
p125
aS'best thing youll ever eat gqmack912'
p126
aS'idk how to feel that you have the view of my nip at all times enjoy'
p127
aS'that awkward moment you snapchat your nipple to someone and they screen shot it lol'
p128
aS'lmao'
p129
aS'i found this ironically funny'
p130
asS'2013_27'
p131
(lp132
S'found new reading material'
p133
aS'its 2013 how are you still close minded open that mother fucker up people sleep with horses legally'
p134
aS'i love them more than most of you'
p135
aS'nighttt'
p136
aS'now in bed'
p137
aS'good night gqmack912'
p138
aS'thank god for you chinese and your phenomenal food'
p139
ag15
aS'cancer are easily annoyed because they get impatient\xe2\x80\x9d little do you know how impatient a nigga is lol'
p140
aS'i was talking about my luscious hair something you know nothing of but okay'
p141
aS'gotta start the morning right'
p142
aS'i dont wake up with hair no i wake up with a crows nest'
p143
aS'im just trying to come from under this regimes thumb'
p144
aS'it was like kanye was like oh hova you old ill let you go platinum and make a shit album this jay album is tight though no doubt'
p145
aS'if you think stephen colbert is funny i hate you'
p146
aS'chug it chug it chug it'
p147
aS'its a hang'
p148
aS'we hang with birds you'
p149
aS'fuck the 4th i wanna go party with my people thats a damn revolution'
p150
aS'congrats to the egyptian people yal made history '
p151
aS'currently'
p152
aS'ive tweetered a lot today lol'
p153
aS'i dont play text games if i havent responded within 10 minutes im busy with something'
p154
aS'you dont brag you act'
p155
aS'people who brag about how they need no one are the main ones that need everyone'
p156
aS'the game of thrones'
p157
aS'i ordered a phone case today and its better than yours'
p158
asS'2013_22'
p159
(lp160
S'i wish i was a kid again because skinned knees are easier to fix then broken hearts gaaaaaayyyyyyyyyyyyyyy'
p161
aS'and you aint even know it'
p162
aS'love you too have fun be safe'
p163
aS'what i dont understand is why females on fb get mad when you message them and you dont know them but you still gotta accept the request'
p164
aS'happy birthday gazma'
p165
aS'if youre saving up for a shirt you need to get your life in order'
p166
aS'kamden jimmy i need kidsjimmy nigga what'
p167
aS'you saw what happend with that nigga 50'
p168
aS'so kanye and mac miller albums come out on june 18th i wonder how that will go hahaha'
p169
aS'independent women do not brag of their independence'
p170
aS'put da fooflops on emmmmm '
p171
aS'off my dick nigga u love my style'
p172
aS'im taking a poop in a super nice house im better than you'
p173
aS'you better naaa you thought nothing'
p174
aS'lol with mu kiddies'
p175
aS'im a gangster im a straight up g the gangster life is the life for me selling drugs by day killing by night being gangster is hella tight'
p176
aS'i miss and  theyve always got me laughing bromance'
p177
aS'yes and only you hang out with me youre just too cool'
p178
aS'kanye spree'
p179
aS'jimbo slice '
p180
aS'whats up twitter long time no talk haha'
p181
asS'2013_23'
p182
(lp183
S'huge spider web'
p184
aS'good for the mind'
p185
aS'2k during camping haha'
p186
aS'da view'
p187
aS'black widow at camp'
p188
aS'someone report this vehicle for grade a stupidity and ass sucking gqmack912'
p189
aS'follow the vine this weekend should be nuts'
p190
aS'camping '
p191
aS'follow me on vine'
p192
aS'dude i can tweet from my notification tab'
p193
aS'i is what i is'
p194
aS'yeah yeah yeah'
p195
aS'should i download vine'
p196
aS'awe okay'
p197
aS'fight me'
p198
aS'you read correctly'
p199
aS'fuck you and twitter'
p200
aS'irememberigotintroublefor beating the hell out of trunks for fun fatheroftheyear'
p201
aS'im tweak free d'
p202
aS'nope d that is the first letter of your name'
p203
aS'ive never seen someone have so much fun while shopping like'
p204
aS'am i'
p205
aS'if youve been calling or texting me since monday i have not received them cause my phone is out of service gotta wait to get a new one'
p206
aS'turn down for what'
p207
aS'turn up'
p208
aS'something something dark side'
p209
aS'you gotta force yourself to eat girl you better go get a damn hotdog or somethin'
p210
aS'your force powers are growing weaker'
p211
aS'cancers come off very unapproachable ive gotten that'
p212
aS'hater niggas marry hater bitches and have hater kids '
p213
asS'2013_28'
p214
(lp215
S'teaching spiderman how to drive haha'
p216
aS'safely banking'
p217
aS'i like weird art'
p218
aS'the series of books that began my infatuation with fiction'
p219
aS'you shouldve asked me earlier  im not giving your begging ass shit'
p220
aS'avengers in pf watch your ass bad guys'
p221
aS'creep ass'
p222
aS'bumblebee '
p223
aS'when archery goes bad whoops'
p224
aS'a lil archery'
p225
aS'thank you man'
p226
aS'its my birthday hey hey hey'
p227
aS'good morning '
p228
aS'chilling with my man happy birthday brahturn up turn up'
p229
aS'starting bday night'
p230
aS'f u nature'
p231
aS'i rather deal with my issues on the low alone because at the end of the day people dont give a fuck and theyre not obliga\xe2\x80\xa6'
p232
aS'i just sent the best snapchat and getting the best responses lol'
p233
aS'alexander the greats for sure'
p234
aS'i always tell the truth even when i lie'
p235
aS'whhhhhhaaaaaa '
p236
aS'high stakes distraught faces gqmack912'
p237
asS'2013_29'
p238
(lp239
S'just posted a video'
p240
aS'hello gulf'
p241
aS'did basketball season start'
p242
aS'hi i think youre beautiful'
p243
aS'a lot of people have said i want the d if by d you mean drugstobebanned then yes i want the d i want the d n\xe2\x80\xa6'
p244
aS'whipping through this florida traffic haha'
p245
aS'before last night i was up for 36 hours'
p246
aS'guys got in yesterday and the first night was nuts lol'
p247
aS'a little entertainment'
p248
aS'chattanooga'
p249
aS'florida'
p250
aS'road trip'
p251
aS'the moon is nuts right now'
p252
aS'road tripping to florida this is too much fun'
p253
aS'la familia'
p254
aS'i leave for florida today at 9 i better not pack no hoodies'
p255
aS'bet i gotta come hug you lmao  no homo '
p256
aS'lmao well ill cradle ya punk assi miss yo ass man'
p257
aS'ima get faty on yo ass'
p258
aS'lmao yea this is only my style'
p259
aS'its kamden brah lol'
p260
aS'no u was not broreal shyt when ima see you'
p261
aS'nm bro thinking about beating yo ass cause i aint seen you all summer'
p262
aS'sup playboy'
p263
aS'we throwing bitch around alot in this game'
p264
aS'chilling with the bros'
p265
aS'when i see a girls screenshot and i see they have 65 messages unread it makes me wonder'
p266
aS'i dont tweet this is a twat'
p267
aS'it finally came'
p268
aS'can everyone come back now'
p269
aS'enjoying a book on a humid day easy gqmack912'
p270
aS'iol'
p271
aS'thank you chinese proverbs for the wise words hahaha'
p272
asS'2013_11'
p273
(lp274
S'youre about to get the weirdest shit ever you fucked up'
p275
aS'hahaha yes good very gooooooood'
p276
aS'im not a douche im a kindred spirit'
p277
aS'drinking'
p278
aS'these motherfuckers came in my room woke me up at 930 and now they are trying to sleep in my room'
p279
aS'i have a long day ahead of me'
p280
aS'the note some fuck stick left on my piece after he broke it '
p281
aS'i bet i still look good though \xee\x90\x85'
p282
aS'too tired to devote a conscious thought as to what im wearing today'
p283
aS'up early to do this studying'
p284
aS'in this country we all live by one golden rule whoever holds the gold makes the rules'
p285
aS'studying is so much fun said no one'
p286
aS'i was like man this blonde fag looks a lot like kenneth low and behold haha'
p287
aS'frrreeeeeeeeedddooommmmm '
p288
aS'10 minutes \xee\x90\x9d'
p289
aS'this guy is so bored he is reading the nutrition facts on water hahaha i feel ya'
p290
aS'she aint got no nippplllleeesssss '
p291
aS'its only been 30 minutes'
p292
aS'i sneezed and no one said bless you rude'
p293
aS'on second thought he looks 40'
p294
aS'this nigga is 40 god damn god damn'
p295
aS'i have a test tomorrow fuck'
p296
aS'why do i come to this class'
p297
aS'do you think penguins fly when no one is looking'
p298
aS'i have to eat in this class to keep me awake \xee\x84\x87\xee\x84\x93\xee\x84\x93'
p299
aS'three minutes in and i want to leave'
p300
aS'i hate philosophy with the intensity of a thousand suns'
p301
aS'use your imagination \xee\x90\x85'
p302
aS'i know starts jerking'
p303
aS'you should eat a dick 8d'
p304
aS'twitter is just to complain about your life and talk shit to your friends about famous people'
p305
aS'youre a child if you cant be blunt with a person'
p306
aS'i make mismatching look good'
p307
aS'its far too late to be taking pictures of myself'
p308
aS'everyone on twitter is an artist  you wouldnt know art if it slapped you across the face with its artsy dick'
p309
aS'they made a terrorist comment and looked at me i will lose it in this bitch'
p310
aS'i literally count the minutes in philosophy'
p311
aS'i think this guy in front of me thinks im watching him \xee\x90\x99 maybe i is'
p312
aS'siue wifi '
p313
aS'and i love you'
p314
aS'hi im jimmy'
p315
aS'repost edward buglehand'
p316
aS'\xee\x80\xbc dominicans mexicans in disguise\xee\x80\xbc'
p317
asS'2013_10'
p318
(lp319
S'my emojis are hieroglyphs'
p320
aS'i build pyramids'
p321
aS'thanks'
p322
aS'im from egypt i speak egyptian'
p323
aS'hey guys its me jimmy'
p324
aS'i am hungover'
p325
aS'i was under several influences last night sorry i fucked up your shit haha'
p326
aS'i just beat fady in ruzzle best 20 ever received'
p327
aS'nothin like waking up an shaving'
p328
aS'ive been sick for the past three days but gears 3 is bringing me to life'
p329
aS'so idk if you guys realized but im going to comiccon its a big deal'
p330
aS'that shit blew me'
p331
aS'nate robinson is for real wearing yeezys in the game'
p332
aS'hahaha as do i she aint ready'
p333
aS'my next girlfriend needs to be prepared for how nerdy i am'
p334
aS'so my summer is as follows florida in june my birthday in july and comiccon in august when is school over'
p335
aS'it was though'
p336
aS'if we cant talk about pokemon i dont think we can be friends'
p337
aS'just saying pokemon was the shit when i was a kid'
p338
aS'i just might trust you with my drugs trust you with my jimmy'
p339
aS'going to comiccon in august i have chub'
p340
aS'my egyptian blood dont like no snow'
p341
aS'i will seduce you with my weirdness'
p342
aS'birthday boy'
p343
asS'2013_13'
p344
(lp345
S'watching scoobydoo with my babies'
p346
aS'you remind me of my beamer'
p347
aS'people my age date someone for a month and thank them for their whole existence huff'
p348
aS'\xee\x84\x93\xee\x84\x93'
p349
aS'thank ya it will be a good day haha'
p350
aS'a lot of kid cudi gotta get ready for indicud'
p351
aS'nothin much just jammin haha'
p352
aS'i live in my head'
p353
aS'i issssssss be my freeennndddd'
p354
aS'if you can retweet this with your bottom lip then youre a good kisser\xf0\x9f\x99\x85                       '
p355
aS'yes that is an igloo'
p356
aS'beat up vansgtgtgtgt'
p357
aS'the power of words over a simple mind'
p358
aS'thats my moms name ill kill you'
p359
aS'listening to wolf cause fuck you'
p360
aS'tonight i feel immortal'
p361
aS'fuck school im a rapper dawg '
p362
aS'getting my game of thrones in '
p363
aS'it is weird being alone when you are around people all the time but the silence is comforting am i weird'
p364
aS'wrong'
p365
aS'you aint tough roy'
p366
aS'good'
p367
aS'repost this shit killed me'
p368
aS'best be hoe'
p369
aS'you dont do that'
p370
aS'this man has a 5 hour energy drink around his neck like a necklace i have lost faith in humanity'
p371
aS'ive been played by two females today hahaha'
p372
aS'its from community ass moron'
p373
aS'that just blew me'
p374
aS'kanye wore pyrex once and all you basic squares want some pyrex now smh'
p375
aS'my only fear is fear itself'
p376
aS'did you know gogurt is just yogurt'
p377
aS'the one question about 911 in class i get asked it i wonder why'
p378
aS'this guy likes to edit youre the most boring person alive'
p379
aS'she just said she killed the game lookin like lil wayne hahaha'
p380
aS'im gonna listen to him now actually'
p381
aS'woooo i just saw a tweet making fun of childish gambino rapping first mistake that nigga can rap 2nd youre just too dumb to understand'
p382
aS'most people dont listen with the intent to understand they listen with the intent of replying stephen covey'
p383
aS'like in the fuck me interlude on the ready to die album ole girl was going in on biggie'
p384
aS'got my sculpture class and my drawing class yay'
p385
aS'woke up at 1 and still got all the classes i needed'
p386
aS'everybody in their life has gotten their bike stolen its like a right of passage lmao'
p387
aS'turn that frown upside down'
p388
aS'i like to take late night showers to reflect on my day and cleanse myself of the publics stupidity'
p389
aS'i like ya twitta do ya like me make an assessment'
p390
ag15
aS'ride around with your friends blow a pound of that haze'
p391
aS'no classes turn down for what '
p392
aS'if anyone is leaving cougar a brother sure could use a ride to the atm'
p393
asS'2013_12'
p394
(lp395
S'i creep on instagram hard no shame in my game'
p396
aS'i just got an email from school saying class was canceled for today for today today'
p397
aS'so im thinking no school ehhhhhh '
p398
aS'i went to bed at 5am and apparently i woke up in a snowy fucking tundra '
p399
aS'last night was mad real'
p400
aS'yes i do follow judge me'
p401
aS'cake like lady gaga cake like lady gaga cake like lady gaga cake like lady gaga cake like lady gaga cake like lady gaga'
p402
aS'never water down yourself for people'
p403
aS'just go about your life and hope that the creek dont rise'
p404
aS'im kinda a big deal'
p405
aS'me myself and league of legends '
p406
aS'people want real when they arent real their damn selves'
p407
aS'le sigh indeed'
p408
aS'i am not '
p409
aS'home alone'
p410
aS'bed'
p411
aS'this grown ass nigga is walking around campus with a superman kids bookbag '
p412
aS'bet'
p413
aS'easter weekend ill be home'
p414
aS'tumblr ruining our public persona smh'
p415
aS'lmao lookin out the corner of your eye and shit'
p416
aS'i get the weirdest looks man hahaha'
p417
aS'when i scroll through my tumblr in class i forget where i am and all that booty meat pops up haha'
p418
aS'i may act goofy and immature but i am smarter than you kanyeshrug'
p419
aS'only class today is lasting forever'
p420
aS'i like video games too much for my own good'
p421
aS'i promise if i lose this next game macbook is out the window'
p422
aS'lt3'
p423
aS'youre welcome'
p424
aS'r kelly ignition '
p425
aS'time to work'
p426
aS'ayeeeee that is whats up man'
p427
aS'i have critical thinking and it is literally just complex sentence structure it is mind numbing'
p428
aS'it was provocative im a witnesstestimony will all other victims of tays seductiveness c '
p429
aS'yes it is the worst thing in life'
p430
aS'kslice is a snake in the grass '
p431
aS'know that jimmys egyptian and the hunger is ethopian no bid deal when kanye west gives you a shout out haha'
p432
aS'i got these voices in my ear'
p433
aS'no problemo my brother'
p434
aS'system of a down'
p435
aS'i wont ignore you popo lt3'
p436
aS'quite frankly im tired of you and your super pretty friends'
p437
aS'nothing comes easy everythig is a struggle'
p438
aS'i chase the money down like it said something about my momma'
p439
aS'who did it kingstewie'
p440
aS'its on till the break of dawn'
p441
aS'no homework take one to the head'
p442
aS'my life may get real'
p443
aS'wet tshirt contest no bra '
p444
asS'2013_15'
p445
(lp446
S'why do ppl get offended when asked if they are arab if anything u should be honored youd be part of one of the richest cultures on earth'
p447
aS'haircuts \xee\x90\x84'
p448
aS'seeing an older man still opening the car door for his wife is cute some of you should take notes'
p449
aS'krit mixtapes never disappoint me'
p450
aS'pretty women make the world go round'
p451
aS'me and slaying this class as per usual'
p452
aS'its gonna be a long night '
p453
aS'drinkin and league of legends i live this life'
p454
aS'yup i need a black pair doe'
p455
aS'those are the ones we saw at the mall fool'
p456
aS'it be like that haha'
p457
aS'i live in my head'
p458
aS'around man been real busy as of late'
p459
aS'this bus driver is such a cunt'
p460
aS'you guys a trippin over this storm man'
p461
aS'that makes sense lol'
p462
aS'why do they say fila nike makes foams'
p463
aS'we are talking about racism through subtext then came the awkward silence'
p464
aS'yup'
p465
aS'there is 10 of us in this class'
p466
aS'yay im in the glass building'
p467
aS'sitting outside and letting your mind racegt'
p468
aS'krit is one of the best rappers right now'
p469
aS'yeah we play yugioh nigga what about it'
p470
aS'woooaahhh i was under the impression she was hot shit i was deceived'
p471
aS'mi mamis give me besos'
p472
aS'these sloth memes are getting out of hand half of them arent funny anymore'
p473
aS'fight em on the sculpture pad '
p474
aS'you mad lol'
p475
aS'proudtobeafanof hip hop'
p476
aS'so im up'
p477
aS'im jealous'
p478
aS'if youre happy and you know it i hate you because im writing papers'
p479
aS'the seven sin city graphic novel covers'
p480
aS'graphic novel django'
p481
aS'comic books are heaven in earth'
p482
aS'remember when paprica blew my mind'
p483
asS'2013_14'
p484
(lp485
S'good walks'
p486
aS'i forgot what that pain was'
p487
aS'i just got punched in my dick'
p488
aS'no one is going to get bombed shut up maybe except guam'
p489
aS'i wish they would shut the fuck up spewing this ignorance from their lips'
p490
aS'this girl is for real upset about this event that happened before she was conceived it doesnt phase you shut up'
p491
aS'cats are the devil fuck them '
p492
aS'insults are 30 better with a simple bitch at the end'
p493
aS'act like you know'
p494
aS'i swear i only tweet during class no other time'
p495
aS'she is'
p496
aS'is she sitting in class barefoot'
p497
aS'the teacher asked this girl her last name and she hesitated to say it because it was semen so me being me i laughed very loud'
p498
aS'this girl on my timeline is crying about olympus has fallen and how racist it is to the asians she is killing me with these tweets lmao'
p499
aS'i just took a test in 19 minutes how do you think i did '
p500
aS'i may lose it'
p501
aS'what type of bees produce milk boobees'
p502
asS'2013_17'
p503
(lp504
S'sometimes i question my own sanity'
p505
aS'enter the void is about to blow my mind again'
p506
aS'everyone makes fun of people who crack cards but the still got money dont they hi haters'
p507
aS'is that danny brown'
p508
aS'bruce lee movies '
p509
aS'lmfao this is the shit i deal with amp'
p510
aS'just an average day around here repost'
p511
aS'uhhhhhh ohhhh uhhhhhh ohhh'
p512
aS'dont think too highly of yourself accept everyone'
p513
aS'while my boyfriend has been deployed i have hooked up with an rotc here at school'
p514
aS'yeah probably so you can talk to people on twitter but not via phone or text huh cool guy'
p515
aS'that flow is silly though'
p516
aS'yo this girl on my fb is obsessed with the wwe it kills me hey to each their own'
p517
aS'i think i did well on that exam'
p518
aS'happy birthday to my mom the most beautiful person on this earth i honestly dont know where i would be without her'
p519
aS'i mean i guess ill shave'
p520
aS'hell yeah ive been up all night'
p521
aS'shit man just been studying you know how finals go'
p522
aS'dudes are the number one haters they get so spiteful over the petty shit grow up lil boy'
p523
aS'i woke up early to work on this final but damn it is hard to bring myself to do so'
p524
aS'dumb tweets like that earn you an unfollow'
p525
aS'stress stress stress stress stress stress stress stress stress stress stress stress stress stress stress stress stress stress stress stress'
p526
aS'all i want is this to be over'
p527
aS'too much lol'
p528
aS'lmmmmmaaaoooo online gaming at its best '
p529
aS'im beyond stressed right now this year has been the roughest in a while'
p530
aS'good to walk to this'
p531
aS'i spent roughly 3 hours one night drunkenly running around campus trying to catch a deer'
p532
aS'why do people front on naps they are too legit to quit'
p533
aS'when you spell a word so wrong that spell check is like i dont know what to tell u man'
p534
aS'bulls are tied 11 that is all that matters'
p535
aS'say youll never let me go'
p536
aS'now that i think about it is what you sloozies do in college every weekend'
p537
aS'why do people dislike the idea of weddings i love it all you do is look good as hell get turnt up and bang at the end of the night'
p538
aS'some girl commented her phone number on justin biebers instagram picture so i texted her'
p539
aS'she looks like she just got punched and now she mad lolllll'
p540
aS'long as my momma love meeee'
p541
aS'the fuck i need pinkies for'
p542
aS'im going to start eating myself'
p543
aS'fffffffffffffffffffffffffffffffffffffffuuuuuuuuuuuuuuuuuuuuuuiuuuuuuuuuuuuuuuuuuuuuuuuuucccccccccccccccccccccccccccckkkkkkkkkkkkkkkkkkkkkkkk'
p544
aS'i have to stay in class to get my test'
p545
aS'ffffffffffffffffffffffffffffffffffffuuuuuuuuuuuuuuuuuuuuuuuuuuuuuuuuuuuccccccccccccccccccccccccccccccccckkkkkkkkkkkkkkkkkkkkkkkkkkkkkkkkkkkk'
p546
aS'im so fuckin hungry'
p547
aS'nothing i like more than a stars wars reference in class'
p548
aS'i do this'
p549
aS'i have a strange fetish with my friends and their cars'
p550
aS'all i want to do is lay outside and play league errrrday'
p551
aS'i had sex on every piece of my friends furniture for playing country music at one of our parties'
p552
aS'cancers are shy creatures they like to live in their own little world'
p553
aS'homophobic men people who have fear of homosexuals gets more aroused by watching gay porn than normal men'
p554
aS'i like people'
p555
asS'2013_16'
p556
(lp557
S'the shuttle \xee\x90\x97\xee\x8c\xb0\xee\x8c\xb0'
p558
aS'youre only worth less if you believe that you are'
p559
aS'exploitation'
p560
aS'but it isnt explotation if they post nudes themselves its just the human body we all got one'
p561
aS'i disagree lol'
p562
aS'dont no one pay you no mind dont flatter yourself'
p563
aS'why dont you just take a picture of you smiling you should try that'
p564
aS'i feel like ive been in this class for 4 hours'
p565
aS'im gonna turn up in founders lol'
p566
aS'that is a habit id like to fall out of though'
p567
aS'i always wait last minute but best believe i still get shit done'
p568
aS'if you get chronic migraines youre being a chronic bitch lamest excuse'
p569
aS'must write one more pape did i try too hard lol'
p570
aS'put in hella work in the library '
p571
aS'yes gooooooooooooooood very goooooooodddddd'
p572
aS'nobody understands y i say goooooood i just miss ok '
p573
aS'so the medical marijuana bill passed in illinois all my niggas gonna be high for no reason smh'
p574
aS'its league of legends you may have dyslexia of some sort its up right now'
p575
aS'the people that tweet how irrelevant twitter is are the main people on it haha'
p576
aS'i get more emails about hoax emails than i get actual hoax emails'
p577
aS'your ability to care in the moment is undying'
p578
aS'remember when you all were tripping about the boston bombing yesterday and now you are all peachy and its irrelevant good job america'
p579
aS'youre right it turns to platinum'
p580
aS'gundam lastnight'
p581
aS'fundal my nigga'
p582
aS'knowledge is pain and that is why it hurts to know'
p583
aS'no shame in my nerd ness'
p584
aS'league of legends guide  the absolute basics  via unit lost on youtube'
p585
aS'airport atheist only pray when there is turbulence'
p586
aS'thank you'
p587
aS'she though arab was a racial slur how can you be so incredibly stupid'
p588
aS'fucking arabs why dont you just fuck ya mummas  get lost in her huuuuuge vagina  infact just die\xe2\x80\x9d pure stupidity'
p589
aS'too soon twitter the shit just happened'
p590
aS'i get sad when people dont want to talk to me i like talking to people'
p591
aS'did you yell world star'
p592
asS'2013_19'
p593
(lp594
S'there are far too many people on my fb talking about how they are mothers'
p595
aS'cancer likes warm and welcoming environments they will not stay anywhere they dont feel welcome'
p596
aS'if a cancer stops caring about you you did something seriously wrong'
p597
aS'what i did to my finger at work today enjoy'
p598
asS'2013_18'
p599
(lp600
S'im watching dora the explorer with my niece and nephew and swiper is a dick lol'
p601
aS'my nephew is better than yours'
p602
ag15
aS'2k on this bad boy'
p603
aS'we got yo bitch bitch'
p604
aS'if you dont like linkin park i hate you'
p605
aS'im in love with the thought of you'
p606
aS'haha thanks kam see you in a few days'
p607
aS'pretty much but nothing i havent had to deal with so ill tough it out'
p608
aS'yeah '
p609
aS'im trying to study for this philosophy final but this stone in my kidney is hindering that process'
p610
aS'if my gf wanna break up she gotta make a 16slide powerpoint presentation w her sources cited on why if i dont like it we s\xe2\x80\xa6'
p611
asS'2011_19'
p612
(lp613
S'winning yesterdays match felt so good gave me a confidence boost i needed now im ready for the next challenge becomingunstoppable '
p614
asS'2011_13'
p615
(lp616
S'goal for this season is to score my first goal i wanna celebrate so damn baddd im devoted to doing so determined'
p617
aS'had a great training today now out to eat with the buds '
p618
aS'great training today it started real early but its okay '
p619
aS'hahahaha ur the truth dude hope to watch u on tv soon ps we share the same number ur international one'
p620
aS'why are ur tweets so legit lol'
p621
aS'great job tonight that opportunity u created for the left midfielder idk his name was beautiful '
p622
asS'2011_12'
p623
(lp624
S'could either one of u please wish me luck i have a college tryout this weekend it would mean so much thank you '
p625
aS'rubber tits '
p626
asS'2011_11'
p627
(lp628
S'redallover with no risk comes no reward'
p629
aS'i dont know y ur feeding into this ppl r jus trying to get a rise out of u im a man u fan and that was the worst tackle ever'
p630
aS'redallover the meal do not wear this jersey only the strong represent this nation'
p631
asS'2011_17'
p632
(lp633
S'had a good game besides one huge mistake and the coach made me one of the skippers for the team '
p634
asS'2011_16'
p635
(lp636
S'damn just got embarssed by that team never lost by that much it kinda made me unmotivated but im gonna stay motivated and get better '
p637
aS'first match tomorrow with new team lets see how it looks'
p638
aS'damn was cold as hell at work cant wait till training friday then first game saturday'
p639
asS'2011_14'
p640
(lp641
S'training went great last night we did possession the whole time with great changes wewinning'
p642
aS'training tomorrow im excited to get athletic world cup after school today lovefootball'
p643
aS'your biceps look huge what workout do u do for those lol but its pretty sweet u do stuff like that '
p644
aS'oh yeah first spring traing today should be exciting its cold tho '
p645
asS'2011_3'
p646
(lp647
S'football medal '
p648
aS'i cant wait till i prove all the kids that said i suck and i would always sit on the bench wrong cause i know im better then they are '
p649
aS'same thing i watch as much professional football as possible to try to learn from the best and i have taken some of their skills'
p650
aS'good game today it went good defending was great but my field awarness was slacking so i need to train more cant wait till wensday '
p651
aS'so sorry u didnt make it but ur chance will come dont hang ur head question what is the yo yo test'
p652
aS'rofl that cracked me up lol it must be nice to have some power haha '
p653
aS'i know a girl on there that made it to the next level she went to my school and is my art teachers daughter or something'
p654
aS'great training last night i am looking forward to this friday and next week wensday'
p655
aS'i impressed coach did great with my performance great traing this spring season is gonna be good '
p656
aS'good luck i have a tryout with a new club today they are better can u wish me luck and give me words of advice please '
p657
aS'i have a new club tryout tomorrow and it would mean the world if u told me good luck and i think it would make me do my best '
p658
aS'that is so sick id love to have an expensive pair of cleats like those it would be sweet i think it would be amazing '
p659
asS'2011_2'
p660
(lp661
S'simply stunning simply stunning mindblowing '
p662
aS'i wish i could watch the real madrid game but it is not coming on here  i guess barca will have to do'
p663
aS'that is pretty cool u know the other swedish finalest tell him i said hiiiii lol '
p664
aS'i have a match today it would mean the world to me if u told me good luck i strive to play like u i practice my step overs allday'
p665
aS'real madrid is the reason i bought the soccer channels just so i can watch real madrid play '
p666
aS'can u guys give me a pair for free lol my birthday is next week it would be lovely '
p667
aS'im going to college yall got accepted today '
p668
aS'what are the qualities that a good defender needs '
p669
aS'hi you make me love the sport whenever i play soccer i would love for u to say hi to me it would mean the world u are the best '
p670
aS'damn that workout was hard but it feels good working out again probably the hardest one i have ever done time to hit the shower '
p671
aS'i hope u feel better enjoy our freezing chicago wheather'
p672
aS'cant wait till the snow melts so i can go outside and find a wall so that i can work on my left foot '
p673
aS'your performance agains udenese was simply stunning 10 goals 8 assists u are a great player one of my favorite'
p674
aS'when u make it big nd play for aresanel u should fly me there to see u play good luck with nike u will make it no doubt '
p675
asS'2011_1'
p676
(lp677
S'this ac milan vs udnese is good thank you pato for the come back goal '
p678
aS'late night showers lt3'
p679
aS'u can room with me lol'
p680
aS'you were correct i see victory in my loss now and it made that loss a whole lot better'
p681
aS'lionel messis freekick was very very nice you might want to watch out'
p682
aS'even has a bad game im just gonna let this one pass and look forward to next week which i know will be better '
p683
aS'match time play to be remembered'
p684
aS'you are one of my favorite players you are sooooo good '
p685
aS'you are my idol '
p686
asS'2011_7'
p687
(lp688
S'lt33333'
p689
aS'it would have been sick if he did it long ways over the car that would have been something special '
p690
aS'fav pic of it shows that more goes into ur freekick then jus a kick that u think about how it will go'
p691
aS'football is a constant battle a constant audition so seize your oppertunity arsene wanger'
p692
aS'great training today played magically and it felt good cant wait till next week lt3football '
p693
aS'im sure u will be good how about balding in ur teens'
p694
aS'u actually say never a lot if u think about it lol'
p695
aS'barca needs to control the ball better than they usually do and arsenal needs to pressure very well and do good on set plays '
p696
aS'have u heard lil bs song about u '
p697
asS'2011_6'
p698
(lp699
S'cant wait till spring may be playing midfield again so gotta start working on my crosses again and making them accuarte '
p700
aS'why were u stretching ur jersey when u walked out of the tunnel today '
p701
aS'looks like i wont be getting my ctr360s as soon as i wanted too but i guess patience is a virtue'
p702
aS'my wall of idols and greats '
p703
aS'i used to hate on but after seeing his diary on mtv ur pretty cool guy'
p704
aS'somos el presente'
p705
aS'wish me luck that i win these new high quality cleats on ebay please i really want them '
p706
aS'hopefully i win the bidding war on the ctr360s that would be amazing i want them so bad everyone wish me luck '
p707
aS'great traing but some pecker wood stole my ball upset about that but got some good info today and some great advice'
p708
aS'i am beyond pissed right now ppl are assholes im done with some pppl wow i would never do that smfh '
p709
aS'i was excited for training today but i cant go that is really depressing'
p710
aS'believing is achieving'
p711
asS'2011_5'
p712
(lp713
S'why are the ppl that are supposed to be ur family and friends are the first ones to tell u u cant'
p714
aS'good night everyone gonna fall asleep watching football then watch another game in my dreams of football but with me on the pitch '
p715
aS'cant wait to get my ctr360s and train with them it is gonna be so sweet '
p716
aS'old lil wayne is way better then this one'
p717
aS'dont let anyone tell u that u cant do if u believe in what ur doing then u can achieve whatever u want in life'
p718
aS'i cant wait to show everyone who said i couldnt do it or i suck at the sport and ill never be good enough unstoppable'
p719
aS'seems like half of the arsenal starters have the new ctr360s u hooked them up huh lol'
p720
aS'can u wish me luck on my training tomorrow it is an important one please it would mean the world '
p721
aS'u do 3000 crunches a day ever day '
p722
aS'just juggled in my room for more than an hour cant wait till im a pro and i play against and give away my own jerseys '
p723
asS'2011_4'
p724
(lp725
S'great pk it was so fluid i love the ctr360s but i wish i had the good pair kinda have the cheap ones '
p726
aS'do the cat daddy lol the dougue is old news the cat daddy '
p727
aS'cant wait to get my ctr360s and try them in training im so excited to see how they perform especially in game '
p728
aS'ur kinda coming off as a dick tonight'
p729
aS'i am dont feel bad but i like it cause instead of out partying and hurting my body i keep it great cause im a athlete '
p730
aS'the manchester united game vs southhampton and manu is loosing '
p731
aS'best performance ive had in a match so impressed with my self i lt3 football '
p732
aS'one more question please what is the most important quality a defender can i have i ask cause im a right back'
p733
aS'from egypt and was born there'
p734
aS'im a right wing back and i wanted ur opinion should i stick with the meriuals or the ctr360s help me '
p735
aS'great training today just wish it was longer only an hour '
p736
aS'your love makes me strong your hate makes me unstoppable   great words i will most deffnitatly keep these in mind '
p737
aS'ill follow u and u follow me '
p738
aS'follow me '
p739
aS'damn those wall squats are nothing to play with man my quads are burning gonna do them for even longer tomorrow '
p740
aS'while most guys think they are to good to need training in the winter i am getting better and better with each day determined'
p741
aS'lupe fiasco the shoe goes on describes where u are at in life right now '
p742
aS'i love following you cause half the time u crack me up lol that last post of yours had me cracking up lol good job '
p743
aS'we are almost done with winter ass face'
p744
asS'2011_9'
p745
(lp746
S'simply amazing '
p747
aS'u should do another competition i really really really want a jersey '
p748
asS'2011_8'
p749
(lp750
S'i get my ctrs tomorrow im so excited '
p751
aS'sticks and stones may break my bones but im a invertabrate noonecanholdmedown '
p752
aS'like i said i get better and better everyday new juggling record ill make it wont let the haters slow me down determined'
p753
aS'we are gonna be taking a pic like that when we both play for the mens national team '
p754
aS'that is probably the healthiest thing i have ever heard of for real lol '
p755
aS'training was okay today but could have gone a lot better then it did but i love the skrimiages but i swear to become the best determined'
p756
aS'im doing a portrait of in art it is going to be sick when im done '
p757
aS'igetlonelytoo'
p758
asS'2013_5'
p759
(lp760
S'cause i was singing through her'
p761
aS'imagine if the whole world came together and held hands once a year mad energy shared'
p762
aS'is funny af lol'
p763
aS'sorry im not sorry laura lol'
p764
aS'so now you mad you got three jobs'
p765
aS'you mad you at home drinking alone like 60 year old divorced man'
p766
aS'positive'
p767
aS'naaaa whitney and katie are having a thing im pretty sure we are going'
p768
aS'cause i witnessed it and my intelligence is further of that of a ferret'
p769
aS'im not about this snow that shit better be gone by the morning'
p770
aS'he was asleep'
p771
aS'cause you spit on ferrets old ratchet hoe'
p772
aS'my circles like a cheerio'
p773
aS'lana del rey is perfection'
p774
aS'i saw a girl levitate tonight thy shit was real'
p775
aS'an that one\xee\x88\xaf\xee\x88\xaf\xee\x88\xaf'
p776
aS'you like all that english grammar in the last tweet'
p777
aS'im gonna read than take my punk ass to bed everyone always tells me how im an old man smh \xee\x94\x98\xee\x94\x98'
p778
aS'thats my favorite lol'
p779
aS'wrong'
p780
aS'wrong'
p781
aS'glad you didnt get to '
p782
aS'tell me why was just goin on lmao i knew who you were talking about without say lol'
p783
aS'money trees is the perfect place for shade \xf0\x9f\x8c\xb3\xf0\x9f\x92\xb5\xf0\x9f\x92\xb0\xf0\x9f\x92\xb5\xf0\x9f\x8c\xb3'
p784
aS'this wind is howling outside if niggas think im leaving my room tonight they got me fucked up'
p785
aS'when i turn on my shuffle and the first song is gimmie the lootgtgtgtgt'
p786
aS'stuff i got today '
p787
aS'no i didnt im reading game of thrones'
p788
aS'fuck you'
p789
aS'lmao i didnt write the movie'
p790
aS'i miss art classes regular ones are loose butt hole an boring'
p791
aS'this fool needs a lint brush for his hair'
p792
aS'ive been whooping my brothers ass up and down these ruzzle streets'
p793
aS'philosophy \xee\x84\x87\xee\x84\x93'
p794
aS'i dont want to go to egypt it looks scary its scary over there right things i hear quite often amazing what the media '
p795
aS'my bed is probably the most welcoming thing in my life right now'
p796
aS'i wish i could major in reading books'
p797
aS'theres a little african child trapped in me'
p798
aS'game of thrones is talking bout third eye vision dope'
p799
aS'its been 18 years since scar killed mufasa rip nigga'
p800
aS'guy code i ii iii thou shall not cockblock '
p801
aS'how im thirsty and its raining lol'
p802
aS'ask me about my wienerrrrr '
p803
aS'cause youre the devil'
p804
aS'\xee\x90\x93\xee\x90\x93'
p805
aS'be quite hoe'
p806
aS'\xee\x90\x97\xee\x8c\xb0 \xee\x85\x88\xee\x84\xbc'
p807
aS'philosophy bllllloooowwwsssss'
p808
aS'meeeeeeeeeeee'
p809
aS'the leg kick before a female starts to twerk symbolizes the shackles of 400 years of slavery and oppression being b '
p810
aS'you aint get shit you huff hoe'
p811
aS'nap or die trying'
p812
aS'i write and then i procrastinate for a couple minutes then i write some more and then procrastinate some more this goes '
p813
aS'dont flatter yourself you aint shit'
p814
aS'boo to school tomorrow '
p815
aS'fuck you cookie'
p816
aS'seriously im getting upset'
p817
aS'cool wifi not like i dont need you to do my homework '
p818
aS'mine is jimbosliceg or use fb haha'
p819
asS'2013_4'
p820
(lp821
S'i just wanna cuddle and take a nap right meow'
p822
aS'no fuck you darrin'
p823
aS'fuck you darrin lol'
p824
aS'yeah'
p825
aS'leggings ate probably my favorite thing in the world'
p826
aS'dont trust anyone who calls everyone their bestfriend'
p827
aS'go pelicans '
p828
aS'just saw on mtv it was nothing short of dope'
p829
aS'im convinced jersey shore dumbed down america and made italians look uber bad'
p830
aS'cut the blunt down to size fool'
p831
aS'i wish beth was healthy so she could take me to get a haircut '
p832
aS'this girl literally just looks at herself in her front camera all class learn somethin gurrrlll'
p833
ag15
aS'that set the tone for the day'
p834
aS'i wonder how many people hate me like legitimately despise me that would be an interesting thing to know'
p835
aS'that nap is keeping me up something fierce'
p836
aS'do homework do homewor do homewo do homew do home do hom do ho do h do d dr dru drug drugs'
p837
aS'all i wanna do right now is play a video game'
p838
aS'i cant wait to get the fuck off campus '
p839
aS'when will this time of strife come to an end'
p840
aS'sounds like the man'
p841
aS'so the gym was actually pretty sccchhhwwweeeet'
p842
aS'i dont know if im about this life'
p843
aS'that was a hiss'
p844
aS'i guess we are going to the gym sissssssss '
p845
aS'agggggghhhhh bonjour'
p846
aS'hold up this nigga was wearing flipflops'
p847
aS'i remember last semester i played god of war 2 for 14 hours till i beat it im proud'
p848
aS'im higher than tyler the creator tube socks'
p849
aS'i like what i like and ill tell you what i like despite your opinions on what i like'
p850
aS'i finished the first game of thrones book last night now im on the second'
p851
aS'cuz aint not such thing as halfway crooks'
p852
aS'you wearing your dumb hipster glass that are nonprescription doesnt make you a nerd'
p853
aS'\xee\x84\x87\xee\x84\x93'
p854
aS'i want things to be like they were a year ago'
p855
aS'when people think they are more important than they areltltltlt youaintshit'
p856
aS'a blanky and the game of thrones today'
p857
asS'2013_7'
p858
(lp859
S'welcome to paradise'
p860
aS'you one to talk'
p861
aS'holy shit i just woke up i slept at 11 '
p862
aS'stable relationships are for horses'
p863
aS'always making moves'
p864
aS'my momma bear got her flowers and loved them lt3'
p865
aS'i feel dead'
p866
aS'white folks love dub step'
p867
aS'safety first'
p868
aS'remix to ignition '
p869
aS'bar hopping '
p870
aS'in route to u of i '
p871
aS'i observe'
p872
aS'kanyes flow in diamondsgtgtgtgtgtgt unforgettable'
p873
aS'who want a cypher in the room tonight '
p874
aS'the block too hot but aint sunny joeybad'
p875
aS'sent my momma flowers'
p876
aS'my main squeezes kingjames'
p877
aS'why do i have the most creative valentine in the world \xe2\x9d\xa4'
p878
aS'valentines lunch kingstewie'
p879
aS'pulled up to the scene with my ceiling missing jfk'
p880
aS'does anyone in the muc after 1 want to play some pool '
p881
aS'if you dont have a valentine today ill gladly oblige'
p882
aS'one thing i loath is when women use phrases that men use incorrectly'
p883
aS'miley cyrus and her mom can get it'
p884
aS'realer than a natural set of titties and it will be that way from 1993 to infinity'
p885
aS'not what im referring to if i need to step mine up you need a elevator hoe to elevate that shit from the ashes'
p886
aS'i need to step my shit up '
p887
aS'youre welcome for all the selfies lately'
p888
aS'put some base in your voice lil bitch'
p889
aS'i just called jimmy johns and they knew my address i order far too much'
p890
aS'sounds like a long night'
p891
aS'lol i knew it'
p892
aS'no way jose'
p893
aS'not laura'
p894
aS'bubba dyingltltltltlt lt3'
p895
aS'forrest gumpgtgtgtgtgt'
p896
aS'robbin hood shit yeah im hood rich coleworld'
p897
aS'only thing worse than dying is a regret filled coffin coleworld'
p898
aS'mean faced selfies '
p899
aS'smh'
p900
aS'life is on twitter'
p901
aS'this bitch said she knows a few geniuses that isnt how it works sweetheart'
p902
aS'its crazy to me the vivid detail an author can describe things in a novel'
p903
aS'this j cole ep thoughgtgtgtgtgt'
p904
aS'hi world'
p905
aS'why dont people just love eachother'
p906
aS'prince could fuck everybody momma'
p907
aS'i hate technology i can tell when people are ignoring me now'
p908
aS'i thought frank ocean was white until now grammys\xe2\x80\x9d tooooooooo funnnnnyyyyyyyy'
p909
aS'smhhhhhhhh'
p910
aS'math is fun it teaches you life and death information like when youre cold you should go to a corner since its 9 '
p911
asS'2013_6'
p912
(lp913
S'im still up'
p914
aS'i fucking hate you'
p915
aS'the irony'
p916
aS'you were a master manipulator who manipulated me'
p917
aS'squinty eyed slefies '
p918
aS'youre'
p919
aS'if your a female that plays texting games youre a child same if your a dude'
p920
aS'i find lame stuff cool and cool things lame'
p921
aS'i dont need your class if youre going to read off the powerpoint i can do that in my bed'
p922
aS'lmao'
p923
aS'why havent they invented portable beds so i can take a nap whenever i want'
p924
aS'i gotta get the fuck out of this class'
p925
aS'most people have a snicker a chuckle and a laugh this girl only has a laugh and it is beyond loud and obnoxious'
p926
aS'tweets like a 5th grader with oversized thumbs haha'
p927
aS'turn up usmnt'
p928
aS'a relationship isnt supposed to fill a void you gotta love yourself before you love someone'
p929
aS'rooaaadddd triiiippppp'
p930
aS'la'
p931
aS'id be so down'
p932
aS'its tough on the streets'
p933
aS'let that piece of shit know'
p934
aS'think before you speak it will never lead you astray'
p935
aS'walk like a warrior we were never taught to run commonsense'
p936
aS'lol that upsets me yeah im mad'
p937
aS'did he just propose to her in peck'
p938
aS'im always the first to class'
p939
aS'you so sassy'
p940
aS'hahahahaha very good'
p941
aS'youre welcome'
p942
aS'i despise old white ladies lol except msjohnson'
p943
aS'\xee\x84\x9d\xee\x90\xa4\xee\x84\x9d\xee\x90\xa4\xee\x84\x9d\xee\x90\xa4\xee\x84\x9d\xee\x90\xa4'
p944
aS'you so sassy'
p945
aS'game of thrones '
p946
aS'soooooo about these tests today'
p947
aS'never trust a person who squeaks when they sneeze'
p948
aS'so the magic is getting pretty real in this second game of thrones book'
p949
aS'they just had rev run in that bitch'
p950
aS'daaaaa bearssssss '
p951
aS'no weapon formed'
p952
aS'if the 49ers lose they aint gonna lose the fight'
p953
aS'that was the ravens throwing the ultimate shade at the 49ers'
p954
aS'lmaoooooooo rt maybe birdman just tucked in his chain'
p955
aS'the superbowl isnt looking too super'
p956
aS'b knocked the lights out'
p957
aS'it was probably the rock'
p958
aS'future gotta sing the national anthem next year lil'
p959
aS'no weaponnnnnn '
p960
aS'thats a lot of meat'
p961
aS'happy superbowl '
p962
asS'2013_1'
p963
(lp964
S'history channel is my bestfriend'
p965
aS'holes is a great movie'
p966
aS'i think im gonna order my awesome kindle today when i get back to school '
p967
aS'with haste'
p968
aS'bring you and your bro over here'
p969
aS'chris and i are gonna rule the world'
p970
aS'enjoy'
p971
aS'i tried haha'
p972
aS'cirque du freak is a 12 book series about vampires and its pretty bad ass '
p973
aS'im watching tv this is veird'
p974
aS'bill amp teds phone booth is on simple things make me smile '
p975
aS'you need a new book in your life grumpy gills'
p976
aS'you got the juice now'
p977
aS'40s amp frozen pizza'
p978
aS'come over'
p979
aS'bulls wonnnnn shneeeezzzz celebration'
p980
aS'what you doin tomorrow night boo'
p981
aS'agggghhhdhejeosksididjucucjncnncnvjehtwuirid'
p982
aS'i wish people didnt take a fuckin hour at the atm '
p983
aS'that makes two of us'
p984
aS'scared money dont make no money pretty much means dont be a bitch'
p985
aS'dynamite'
p986
aS'well hurry up boy'
p987
aS'nope its flawed that nigga should have been 3 types of dead'
p988
aS'wanna makeout'
p989
aS'sals apartment in pineapple express is legit'
p990
aS'agreed lol'
p991
aS'stuff your sorries in a sack'
p992
aS'correction not my dog and molly is like a bear shell maul the shit out of you'
p993
aS'youre dead'
p994
aS'squeaky clean'
p995
aS'ill kick you through your chest'
p996
aS'watched it for the first time last night'
p997
aS'ill kill you taytay'
p998
aS'youre not lying to protect me youre lying to protect yourself'
p999
aS'shut your mouth'
p1000
aS'good afternoon'
p1001
aS'tonight is becoming a good night'
p1002
aS'goodbye 2012'
p1003
aS'word word'
p1004
aS'an you can put a time limit on how long people can look at the pics'
p1005
aS'at least haha'
p1006
aS'how many people do you think get nasty in snap chat'
p1007
asS'2013_3'
p1008
(lp1009
S'game of thrones time'
p1010
aS'slip an slide shop n save style'
p1011
aS'hahhahahahaha'
p1012
aS'the game of thrones is getting to real for me all this deceit '
p1013
aS'this should be interesting'
p1014
aS'i was too turnt up last night'
p1015
aS'im a nerdy guy sorry im not sorry'
p1016
aS'im starting to read the game of thrones in a english accent haha'
p1017
aS'theres nothing more desirable than the unattainable'
p1018
aS'a mind needs books as a sword needs a whetstone if it is to keep its edge'
p1019
aS'death is so terribly final while life is full of possibilities'
p1020
aS'what i named my kindle hahahaha'
p1021
aS'my kindle cammmmememmemememememdjfjbrhrkdkndnfjd'
p1022
aS'i hate couples that take the same classes '
p1023
aS'cs professor the smallest bones in your body are in your ear me not in your case burn'
p1024
aS'homie wanted to go toe to toe i had to break his leg'
p1025
aS'do we need a teachers signature to drop a class '
p1026
aS'so does that mean i dont have class'
p1027
aS'when made that midget porn joke in class back in the daygtgtgtgtgtgtgtgtgtgtgtgt '
p1028
aS'yes'
p1029
aS'at the end he yells freedom it doesnt get better than that '
p1030
aS'shut your sick ass up'
p1031
aS'bro date with kevo'
p1032
aS'i think im going crazy'
p1033
aS'its literally one thing after another '
p1034
aS'im so fuckin dumb shshdbhrjejskskwiwuttyqiidbbdjkejns'
p1035
aS'everyone just looked at this girl wearing a north face and booty shorts on like she was crazy haha priceless'
p1036
aS'this was on my desk in the only class i have assigned seating must be a sign'
p1037
aS'me amp are like 2 grown ass kids lol'
p1038
aS'passin me the shotty'
p1039
aS'cant wait to move into my own apartment'
p1040
aS'shoot me'
p1041
aS'philosophy is so fucking dumb its a complicated way of describing simple english'
p1042
aS'i just got starred down by some indian dude haha i must be cute or somethin'
p1043
aS'dammmmnnn niggas wanna stick me for my paper'
p1044
aS'biggie kinda day'
p1045
aS'give me da loot give me da loot'
p1046
aS'yeah i know it sucks'
p1047
aS'okay fair enough it probably would be a pretty sweet gig'
p1048
aS'fuck you its modernized you can shepherd these nuts into your mouth'
p1049
aS'summer of 04 '
p1050
aS'everything is so simple there'
p1051
aS'i wanna go back to egypt lt3'
p1052
aS'think strong be strong'
p1053
aS'i just kicked myself in the nuts'
p1054
aS'sunday nights in college are the deadest of the dead'
p1055
aS'shit hit me up when youre free'
p1056
aS'i hate dj tags especially when someone is flowing'
p1057
aS'at least i think im funny'
p1058
aS'hell yeah homie'
p1059
aS'sure do'
p1060
aS'i dont play texting games dont bring that shit round here'
p1061
aS'i is boooooorrreeeddddd'
p1062
aS'the girl in kickass is so beautiful im in love'
p1063
asS'2013_2'
p1064
(lp1065
S'last night wasnt even real '
p1066
aS'i can use wise words of wisdom right now'
p1067
aS'i want to go home as well'
p1068
aS'scared shitless'
p1069
aS'amp goin in on ray lewis ha ha ha'
p1070
aS'i just bought my kindle'
p1071
aS'my ruzzle isnt getting peoples invites '
p1072
aS'they not ready for bars cells prisons rikers'
p1073
aS'it was perfect you should have said you were in narnia '
p1074
aS'by terrible you mean super awesome hahaha'
p1075
aS'howd that go'
p1076
aS'just ordered my kindle '
p1077
aS'i severely suck at ruzzle'
p1078
aS'im so gonna ruzzle you'
p1079
aS'that was supposed to be ruzzle hahaha'
p1080
aS'play me in russky while i lay in bed for forever jimbosliceg'
p1081
aS'today was a good ass day and a fun ass night even though i was dd'
p1082
aS'twas a good night '
p1083
aS'this girl will not shut her mouth about her cat your face needs shutting'
p1084
aS'why are there all mac millers in the muc'
p1085
aS'i think my luck is turning around'
p1086
aS'its creepy when people say i wont bite'
p1087
aS'lmao im smokey'
p1088
aS'my phone doesnt ring half the time lol sorry  but you right'
p1089
aS'best day everrrr'
p1090
aS'done with homework'
p1091
aS'with my loves jabari and alex '
p1092
aS'someone is playing the weeknd in peck and i can hear it in philosophy haha'
p1093
aS'only in the engineering building will you see two turkish girls wearing the same exact thing thats veird'
p1094
aS'the weirdest people are in the engineering building i feel like they know im an art major shit'
p1095
aS'wanna know what rhymes with school hell'
p1096
aS'people are shitty plain and simple'
p1097
aS'im from where skinny niggas male it big cause chrome is the muscle'
p1098
aS'my luck has been so bad the past few days it only can get better'
p1099
aS'\xe2\x98\x81 \xe2\x98\x81 \xf0\x9f\x8e\x88 \xf0\x9f\x8f\x83 shit my fucking balloon'
p1100
aS'so happy two more seasons of workaholics come on guys letsgetweird'
p1101
aS'everyones freakin out about catfish skip that i just watched pitch perfect for the 8th time in 5 days\xe2\x80\x9d agreed'
p1102
aS'im overwhelmed with all the bullshit right now'
p1103
aS'aftermath'
p1104
aS'his name was your mom'
p1105
aS'dumbass'
p1106
aS'this nigga showed up with 7 minutes of classes left and said hes late  you dont say'
p1107
aS'little weapon code name smith amp wesson and youll be quick to catch a bullet like an interception'
p1108
aS'1999 is something that gets played everyday by eye'
p1109
aS'first day of school yay'
p1110
aS'nothin like not having class till 1 on a monday haha'
p1111
aS'first semester with all regular classes crazycrazy'
p1112
aS'nothin like gettin stuck on the side of the road with'
p1113
asS'2013_9'
p1114
(lp1115
S'gifts for my nephews birthday thats a full spiderman costume best uncle award'
p1116
aS'retweet if you played any basketball \xf0\x9f\x8f\x80 football \xf0\x9f\x8f\x88 volleyball \xf0\x9f\x99\x8c baseball \xe2\x9a\xbe hockey \xe2\x9d\x84 soccer \xe2\x9a\xbd tennis \xf0\x9f\x8e\xbe golf \xe2\x9b\xb3 cheer \xf0\x9f\x8e\x89 '
p1117
aS'even if your dj was jesus you couldnt fuck with these kids'
p1118
aS'having a cup of wine with my momma'
p1119
aS'she wanted to take a picture'
p1120
aS'getting comfy at home'
p1121
aS'\xee\x8c\xac\xee\x8c\xac'
p1122
aS'just watched rugrats with my niece and nephew for several hours '
p1123
aS'i am home '
p1124
aS'pass the pot lemme skillet'
p1125
aS'atmospheregtgtgtgtgtgtgt'
p1126
aS'watch out white children your parents may cop'
p1127
aS'where are you'
p1128
aS'dennnnnyyyyyssssss '
p1129
aS'i found a lotr pinball machine \xee\x84\x86\xee\x84\x86\xee\x84\x86\xee\x84\x86'
p1130
aS'through further investigation my studies have gathered insulthate comes from a place of suppressed love'
p1131
aS'insult amp praise are the same'
p1132
aS'i found my sword its okay im happy again'
p1133
aS'fuck you skyrim'
p1134
aS'i mean my night was good until my awesome sword in skyrim got taken away from me '
p1135
aS'doubtful'
p1136
aS'nope i refuse'
p1137
aS'i need a hood bitch in timbs'
p1138
aS'sounds like a sore loser'
p1139
aS'probably not but wishful thinking'
p1140
aS'\xee\x8c\xac\xee\x80\xa2'
p1141
aS'incorrect'
p1142
aS'good one ben'
p1143
aS'i love being egyptian to most people im like a unicorn '
p1144
aS'bars stories'
p1145
aS'scaring  happiness'
p1146
aS'take a hot bath and drink a shit ton of water'
p1147
aS'ive had 4 since i was 13'
p1148
aS'join the club'
p1149
aS'you are the hood kirk franklin haha'
p1150
aS'man i wish i had headphones'
p1151
aS'this kid was snoring in class and the whole class put him on blast petty'
p1152
aS'we only see what we choose to see openyoureyes'
p1153
aS'sparknotes hoe'
p1154
aS'you just got me killed i fucking hate you'
p1155
aS'im still up playing skyrim i have a problem'
p1156
aS'people are too prideful'
p1157
asS'2013_8'
p1158
(lp1159
S'youre my golden girl youre the one ive chosen girl'
p1160
aS'im playing skyrim still haha'
p1161
aS'im playing as i tweet with one hand'
p1162
aS'it has taken over my life'
p1163
aS'skyrim'
p1164
aS'skyrim has been my life for the past few days im not upset look at how pretty it is'
p1165
aS'this ep though'
p1166
aS'sooooo i hate snow'
p1167
aS'watching go on a skyrim bingeive created a monster'
p1168
aS'skyrim kept me up till 530 in the morning to piss me the fuck off '
p1169
aS'staying awake in this class is like fighting ali in his prime imgonnalose'
p1170
aS'its boring as fuck'
p1171
aS'i wonder why'
p1172
aS'no one comes to this philosophy class lol'
p1173
aS'people blow me when they choose to wear shorts on days like today'
p1174
ag15
aS'losing the feeling of feeling unique'
p1175
aS'who you mad at me or yourself'
p1176
aS'i hate being toyed with like a childs doll'
p1177
aS'of course it was smooth it was john mayor on that bitch'
p1178
aS'pac div  anti freeze'
p1179
aS'oh how ive missed you'
p1180
aS'lmao ya nasty'
p1181
aS'why do girls only mess with fuck boys'
p1182
aS'im not even supposed to see you today but you stll find a way to hate quench your thirst hoe'
p1183
aS'three ns on my new balance im here to shine while im trackin'
p1184
aS'its colder than eskimo nuts in this bitch'
p1185
aS'i think lawrence did better playing with you'
p1186
aS'call me the transporter'
p1187
aS'call me the trasporter'
p1188
aS'i hate you'
p1189
aS'aye they go so hard '
p1190
aS'fair enough'
p1191
aS'define new artist ill slap you if you get out of hand'
p1192
aS'what if this was my dick repost'
p1193
aS'this guy in my philosophy class gives me a you dont belong here look i dont like it'
p1194
aS'this girl always sounds like her nose is stuffed'
p1195
aS'if i had a nickel for every time someone tweeted me youre not funny i would have no nickels'
p1196
aS'what if this was my dick'
p1197
aS'keeps trying it in history class lmao'
p1198
aS'this fat ass nigga coming in class with tater tots smh'
p1199
aS'you can take it how you want it just know i wont forget'
p1200
aS'imma remember this'
p1201
aS'save some '
p1202
aS'that was sarcasm hoe dont get too happy'
p1203
aS'that was so crazy it caught me off guard something fierce '
p1204
aS'i expect nothing else from you but to respond with a nicki minaj gif smh'
p1205
aS'you aint shit'
p1206
aS'just combed out my leg hair proudofme'
p1207
aS'oooooo being sassy isnt the way to answers queen b'
p1208
aS'not yours nigga'
p1209
aS'bind your feet like chinese women'
p1210
aS'i accept'
p1211
aS'i need need your pats nigga im good '
p1212
aS'i tried'
p1213
aS'yo bitch on my dick '
p1214
asS'2012_38'
p1215
(lp1216
S'agggghhhhh that just made it better '
p1217
aS'aggggggghhhhhh thats funny '
p1218
aS'his cool ass'
p1219
aS'mcdonalds run post party '
p1220
aS'time to put in work'
p1221
aS'yeah f all that i hate the cold'
p1222
aS'i know the feeling it must suck worse further up north though haha'
p1223
aS'you were in egypt too long haha'
p1224
aS'i good a pretty good chuckle out of the pity haha'
p1225
aS'lmao that cracked me up '
p1226
aS'im way too egyptian to burn from sun rays'
p1227
aS'can i try on the 11s lmao'
p1228
aS'is livid right now lol'
p1229
aS'told ya no one would treat you better than me and youre already proving me right hahaha'
p1230
aS'hahaha that sucks i know the feelin tho i still have two to pay off hahaha'
p1231
aS'what if kanye sues siue radio haha play sin city'
p1232
aS'diggin the old biggie'
p1233
aS'kevo and i are listening and we approve'
p1234
aS'im a solider '
p1235
aS'wrapped in my snuggie '
p1236
aS'i gave my all and you spit it all in my face'
p1237
aS'i shouldnt miss her but i do '
p1238
aS'youll be dead to the world'
p1239
aS'its a pain killer'
p1240
aS'canceled classes are the best classes'
p1241
aS'i got that norco on deck '
p1242
aS'miss my babies '
p1243
aS'so whoever thinks their words effect ms is too stupid'
p1244
aS'1\xee\x80\xa2'
p1245
aS'\xe2\x80\x9cif you hear a voice within you saying \xe2\x80\x98you are not a painter\xe2\x80\x99 then by all means paint and that voice will be silence '
p1246
aS'this project is no joke'
p1247
aS'everyday isnt my day haha jk'
p1248
aS'peace amp happiness'
p1249
aS'the struggle'
p1250
aS'these niggas freestylin lmao'
p1251
aS'naps are my fav pass time '
p1252
aS'your girl fixin her make up in my rims nigga'
p1253
aS'waking up to tweets cracks me up every morning'
p1254
aS'go with wiener bird house'
p1255
aS'fuck these '
p1256
aS'fuck all these bird house sketches artmajor'
p1257
aS'im sorry that blows lol go use the hand driers lolllll'
p1258
aS'that suuuuuccckkkssss'
p1259
aS'check ya later twitter '
p1260
aS'i dont ask for much these days and i dont bitch and whine when i dont get my way theroots'
p1261
aS'my night'
p1262
aS'true chainz '
p1263
aS'based on a tru story was that lame'
p1264
aS'i dont like debbie downers if youre around me you better lighten the fuck up'
p1265
aS'yeah they all got a ass shot in them'
p1266
aS'aaaaggggrrreeeeeddddd'
p1267
aS'when the sun reflects off your watch while youre drivingltltltltlt'
p1268
aS'i miss real authentic egyptian food takemeback'
p1269
aS'all you have for dinner its either rice soup macorni or foul '
p1270
aS'watching the sandlot nostalgia'
p1271
aS'fake friends forgive their sins'
p1272
aS'all set'
p1273
aS'time to work on my drawing'
p1274
aS'composure when it counts'
p1275
aS'sometimes the world is dark and i cant see'
p1276
aS'just followed cause of you were retweeting hahaha'
p1277
aS'if youd told me 6 months ago seeing her upset would make me happy id call you stupid'
p1278
aS'now you walk around like you dont know me'
p1279
aS'you cant spell war without an ar cruelsummer'
p1280
aS'cya later grades'
p1281
aS'literally watching time click away on my watch we were all meant for something great anything before is a lesson learned'
p1282
aS'looking back on old tweets haha im the tits'
p1283
aS'dinner around here the struggle'
p1284
aS'you think you free but you a slave to the funds baby'
p1285
ag15
aS'bumpin this cruel summer album while studying for soc'
p1286
aS'fuck studying for this soc test i guess ill study'
p1287
aS'eatin good vegatary with the brown rice'
p1288
aS'everything i do requires a news crew presence'
p1289
aS'family dinner \xee\x81\x97\xee\x81\x97\xee\x81\x97'
p1290
aS'time doesnt exist clocks do'
p1291
aS'paper cant change a mans ora but it can feed a mans daughter'
p1292
aS'you love to hear this story again and agin about these brothers from the city of wind kanye common'
p1293
aS'you cant live without listening to old kanye on a rainy day'
p1294
aS'this class blows fuckkkkjjhjsjhhshshjsbdhhdd'
p1295
aS'only thing i wear to bed is boxers and a watch like a real man '
p1296
aS'watching this voyr is amazing'
p1297
aS'the fact that we arent together anymore doesnt effect me its the thought of how easily i was replaced she really didnt care about me '
p1298
aS'watching trippy videos trip'
p1299
aS'craaazzzyyy'
p1300
aS'cleaned the bowl ewwwwww '
p1301
aS'followed me \xee\x81\x96'
p1302
aS'watching pootie tang haha'
p1303
asS'2013_32'
p1304
(lp1305
S'im bored as fuck'
p1306
aS'something about light skinned women'
p1307
aS'im the last one on the plane i wonder why'
p1308
aS'dont say no dumb shit like that to me again'
p1309
aS'wait she landed in florida in uggs it was 97 today'
p1310
aS'eye candy for da flight tho \xf0\x9f\x98\x8f'
p1311
aS'i need a damn haircut'
p1312
aS'at least it isnt anyone worse haha'
p1313
aS'lmao its all good'
p1314
aS'its badon that you dont lol'
p1315
aS'judged'
p1316
aS'who you are sitting with lol'
p1317
aS'my flight doesnt leave till 812 its 635'
p1318
aS'badon dont ask them its aiyab'
p1319
aS'wat is all this talk about ass eating on my tl ive seen four different convos dont yall know its the lords day'
p1320
aS'dude its so weird when a 10 year old from some shitty eastern european country favs a tweet of mines all randomly'
p1321
aS'what i dmed was honestly too cheesy lmao'
p1322
aS'i calls em hows i sees em'
p1323
aS'i got a flight back to chicago tomorrow bbbbbooooooooo'
p1324
aS'like im confused on why my generation of men gather in groups and make twerk videos'
p1325
aS'dude its shark week'
p1326
aS'whoops lol'
p1327
aS'btw your twitter name isnt even funny how is that funny to you a big areola i bet you thought you were clever'
p1328
aS'lol thats funny'
p1329
aS'hater niggas marry hater bitches and have hater kids'
p1330
aS'sun up is so much better than sun down'
p1331
aS'im watching the sun come up'
p1332
aS'its deep'
p1333
aS'i only tweet in the morning dk why'
p1334
aS'youre gorgeous'
p1335
aS'tell him ill be home in 3 days'
p1336
aS'you wait a couple months and you gon see youll never find anyone better than me'
p1337
aS'rave'
p1338
aS'its a party'
p1339
aS'sure are those are one of the few words they know'
p1340
aS'that makes two of us'
p1341
aS'when i pass old people i wonder if they marvel at my youth am i going to hell'
p1342
aS'pretty much i need a lady hahahha'
p1343
aS'what im sayin is a brotha needs a right hand here '
p1344
aS'it sucks not having someone to tell about your day or to talk to through out it'
p1345
aS'if you like hiphop and you dont have a nas album ill slap you no ifs ands or buts'
p1346
aS'what type of nigga texts u before 9 asking how u been'
p1347
aS'i was always told im a old man in a young ones body'
p1348
aS'i just saw an old man on a bike ride and in his basket was his wiener dog chillin that bitch like et thats me in the future tho'
p1349
aS'what are men twerking why are women twerking go read a book'
p1350
aS'basedgod'
p1351
aS'but i will fuck your bitch'
p1352
aS'last night sealed the deal im without a doubt a introvert'
p1353
aS'im always up before everyone and im the only one that cant work down here'
p1354
aS'when people upset me beyond belief by saying something outrageously dumb i give them a certain face youll know the face once you see it'
p1355
aS'no matter what creed sex or skin tone you are you gotta love ellen'
p1356
aS'feminist would love the game of thrones series you have to read it though for better character development'
p1357
aS'cant wait to raise my kids and give them all i didnt have in a struggle free environment'
p1358
aS'this is how we eat'
p1359
aS'i am not someone gots to test dem lmao'
p1360
aS'you can make 5k a month laying in a nasa bed'
p1361
aS'a single verse from andre 3000 is better than 30 verses from these fools out now'
p1362
aS'youll talk all day on tumblr about revolution but where you at'
p1363
asS'2012_49'
p1364
(lp1365
S'that random cute girl that complimented me on my drawinggtgtgtgt'
p1366
aS'damn locked myself out the house lmao fucked up'
p1367
aS'im pretty foreign lmao'
p1368
aS'never know the talent of an individual never doubt them'
p1369
aS'lmfaoooo tu tu tu tu you already know'
p1370
aS'that nap wasnt no bitch tho haha'
p1371
aS'bulls over the knicks ill take that'
p1372
aS'bumpin some bone thugs and harmony'
p1373
aS'power naps bitch'
p1374
aS'ive seen jellyfish with more spine than you'
p1375
aS'naaaaa fuck all that noise my name is great dont disrespect'
p1376
aS'theres a difference here im foreign of course my name is difficult'
p1377
aS'dont be mad at me you should be mad at your parents for spelling your name all ridiculous'
p1378
aS'omg based kaliah omg'
p1379
aS'just wait things gonna change soon'
p1380
aS'wtf happened to the back of my jeans last night im kinda worried'
p1381
aS'i just got orange juice in my eye worst experience ever'
p1382
aS'j cole miss america reprisegtgtgtgtgtgtgt'
p1383
aS'earl sweatshirt chumgtgtgtgtgt'
p1384
aS'just posted a photo'
p1385
aS'you seriously have no idea how hungry i am'
p1386
aS'close to being done first time doing hands'
p1387
aS'you spoiled lil la girl'
p1388
aS'yeah its pretty cool cool people and all'
p1389
aS'siue'
p1390
aS'thanks man yeshiva they make you take all art courses'
p1391
aS'graphic design why do you ask'
p1392
aS'haha fair enough'
p1393
aS'wtf is up with this los mixtape '
p1394
aS'alright you win nigga damn you that bored'
p1395
aS'you know you looked that shit up'
p1396
aS'recreating that pic from tumblr cause it is raw'
p1397
aS'cyhi the prynces verse on so apalled gtgtgt\xe2\x80\x9d whats your fav cyhi song off the top of your head'
p1398
aS'doing a drawing for myself right now i need to practice hands'
p1399
aS'high school kids suck'
p1400
aS'makes two of us'
p1401
aS'all i wear is vans and moccasins'
p1402
aS'smart girlsgtgtgtgtgt'
p1403
aS'used to hate the belly of the beast until i became its tape worm joebudden'
p1404
aS'biiiiiiigggggiiiieeeee'
p1405
aS'cut from a different cloth and no one knows my thread count solo'
p1406
aS'okay ill be sure to send you a pic  im gonna do one today for funnzies ill send that to you too'
p1407
aS'no ill probably get it done this weekend'
p1408
aS'sorry im not sorry'
p1409
aS'my tummyltltltltlt'
p1410
aS'why you so ugly'
p1411
aS'im tweakin'
p1412
aS'whoooo whooo whoooo whooo lt see'
p1413
aS'i swear i should be a owl'
p1414
aS'pumpin out this paper'
p1415
aS'im gonna do a drawing for fun after i finish this paper am i crazy'
p1416
aS'i much rather draw than write a paper'
p1417
aS'third all nighter'
p1418
aS'whenever i try igniting something with a girl there is always something that goes wrong im done swerve'
p1419
aS'popped a molly im sweatin'
p1420
aS'quick nap than back to work'
p1421
aS'how so'
p1422
aS'im just saying through age comes knowledge and wisdom so in a way you are better'
p1423
aS'older doesnt always mean better\xe2\x80\x9d but does it mean wiser'
p1424
aS'i feed my doubters kidness'
p1425
aS'this mf been up for basically 3 days straightwtf finals'
p1426
aS'damn he just played me lol'
p1427
aS'the bus just literally hit me with a swerve lmmmfffaaaooo im salty'
p1428
aS'i have a final at three and the way things are looking i may not make it'
p1429
aS'these have literally been the most stressful and worst 4 hours ever'
p1430
aS'if so i feel like snoop lungs look like two black iphones'
p1431
aS'lovestein'
p1432
aS'post all nighter ive slept 2 hours in the last 52 i may die'
p1433
aS'i feel like you and i are the only ones awake haha work flow'
p1434
aS'dark mac miller this late is depressing'
p1435
aS'i wouldnt mind some company'
p1436
aS'i just worry about you homie'
p1437
aS'fuck you guys'
p1438
aS'yall are childish lol'
p1439
aS'so too for basically telling me forget this chick'
p1440
aS'when fat girls make fun of fat guys '
p1441
aS'art building it is again'
p1442
aS'art building i guess tonight'
p1443
aS'i think ill be up all night again'
p1444
aS'need an ark i noah guy'
p1445
aS'only real niggas study in bed'
p1446
aS'so drained'
p1447
aS'shit that makes two of us'
p1448
aS'dont trip homie they come in bus loads'
p1449
aS'lol fair enough'
p1450
aS'its an alien head'
p1451
aS'i feel like my body needs this nap but in bot tired '
p1452
aS'i cant wait lt3'
p1453
aS'not impossible but difficult your mad ass'
p1454
aS'yeah you mad thats not possible for me to hold on to it seeing im a few hundred miles away '
p1455
aS'lol you sound mad you need a hug nigga'
p1456
aS'you sound like a hoe'
p1457
aS'coming along quite nicely '
p1458
aS'trrruuuuuu trrrruuuuuu'
p1459
aS'thats cool darrin'
p1460
aS'i bet it would'
p1461
aS'be young be dope be proud'
p1462
aS'darrin ass was on it lmao'
p1463
aS'best lyricist ever'
p1464
aS'this is why we dont have nice things cause of strong armed fucks'
p1465
aS'went right over your head think about it'
p1466
aS'yesterday you said tomorrow'
p1467
aS'a diamond has to be polished first'
p1468
aS'why do girls envy vs models they were born that way and were given their fame work for yours'
p1469
aS'ole ugly ass art clay masterpiece'
p1470
aS'lmao the curls are my fav'
p1471
aS'no that wasnt like youre right thing it was like a sorry julius youre wrong'
p1472
aS'i keep thinking its later cause ive been up all night and did so much'
p1473
aS'truth hurts'
p1474
aS'my english was lacking in that last tweet hahaha i think ill stop tweeting for a minute lol'
p1475
aS'some guys hands was red like he had just washed blood off of im trippin'
p1476
aS'i swear its only white people that go to sleep on the couches at school in public buildings truth ithurts'
p1477
aS'most go through life cryin i went through mine grindin loosequarter trevrich'
p1478
aS'so the all nighter was a success now the question is can i survive the day duh duhhh duhhhh '
p1479
aS'everythings funny to me right now'
p1480
aS'this is a big ass bus hahaha'
p1481
aS'only at like 40'
p1482
aS'idk what youre talking about but thanks lol'
p1483
aS'progress slowly but surly'
p1484
aS'why is the thought of all this work so discouraging'
p1485
aS'i hate those little red notifications that pop up on your apps they be pissing me off lmao'
p1486
aS'every day i grow weary of more and more people and that makes me sad '
p1487
aS'i know'
p1488
aS'seems like something im in to'
p1489
aS'i feel like that would be better'
p1490
aS'i lost my headphones worst two days ever'
p1491
aS'explore your mind'
p1492
aS'hopefully today is waaayyy better'
p1493
aS'it must be the swank if it aint the rank'
p1494
aS'what a shitty passed two days'
p1495
aS'woke up feeling like shit'
p1496
aS'shit got real tonight a lil too real for my liking'
p1497
aS'jimmy has been rollin the best ls for years'
p1498
aS'it was a pretty sweet night'
p1499
aS'we just did some gangster shit'
p1500
aS'hetro life partner date to dennys'
p1501
aS'i have one final'
p1502
asS'2012_48'
p1503
(lp1504
S'sssssssssshhhhhhiiiittttttt '
p1505
aS'you should never fear having independent thoughts'
p1506
aS'dont buy so many'
p1507
aS'shaved face'
p1508
aS'follow got amp in the booth'
p1509
aS'its an app'
p1510
aS'yes then tell me your username'
p1511
aS'aye download kik then ill invite you to something'
p1512
aS'you can do anything you want if it is in the name of the lord'
p1513
aS'my teacher just made a colt koolaid reference and i was the only one that laughed is that bad'
p1514
aS'we walk tall like warriors never told to run common'
p1515
aS'tuuuu tuuuu tuuuu'
p1516
aS'it had qs adlibs'
p1517
aS'yes gooooooodddd'
p1518
aS'let me know if you find one'
p1519
aS'like 580 mill'
p1520
aS'this girl on my fbs dad won the lottery'
p1521
aS'nothin i fear besides fear its self'
p1522
aS'if you sit down next to me on the bus youre welcome for the good music'
p1523
aS'bars bars bars bars\xe2\x80\x9d bars make her dance'
p1524
aS'trending bars'
p1525
aS'bars'
p1526
aS'thats the way i like it \xee\x84\x86'
p1527
aS'all i needed was to see those words lt3'
p1528
aS'girls dont understand there are 2 types of guys 1s that wanna stick there dicks in everything and guys that dont find the 1s that dont'
p1529
aS'its tough out here on these streets'
p1530
aS'yes'
p1531
aS'i just had the worst shower experience'
p1532
aS'most people are pussies'
p1533
aS'wont you teleport to me'
p1534
aS'losemynumberif you aint down with spongebob'
p1535
aS'hell yeah'
p1536
aS'yup becoming king'
p1537
aS'los mixtape tomorrow '
p1538
aS'gossip gossip nigga just stop it'
p1539
aS'my least favorite part about drawing is that i cant wear headphones  it hurts my heart'
p1540
aS'i havent been up this early since high school'
p1541
aS'nope i lied too tired night night'
p1542
aS'gonna watch pineapple express'
p1543
aS'youll love it'
p1544
aS'visit you wont regret it'
p1545
aS'they said the name of the movie in the movie '
p1546
aS'i like long camel rides down by the pyramids \xf0\x9f\x90\xab\xf0\x9f\x90\xaa'
p1547
aS'i miss soccer'
p1548
aS'im just a friendly person and people dont understand that'
p1549
aS'i just saw peck hahahaha'
p1550
aS'you dont put no fear in my heart'
p1551
aS'so i for sure under dressed today i hate the cold '
p1552
aS'im gonna be one of those cool ass old people that sleep too much hahaha'
p1553
aS'i wish we could all be hippies super chill and plus they arent dick heads they also love everyone which is a plus'
p1554
aS'hahaha yeah i cut the shit out of my hands like 3 or 4 times gonna start rockim some gloves haha'
p1555
aS'i can already tell that it is gonna suck that chicken wire is seriously irritating today im gonna come to you to bitch haha'
p1556
aS'dawwwwwww i miss him'
p1557
aS'how high last night was hilarious lol'
p1558
aS'my dick is like an accent mark its all about the over es childish'
p1559
aS'fuck sculpture and this sharp ass chicken wire'
p1560
aS'now onto how high haha'
p1561
aS'ted was so damn funny lol'
p1562
aS'hahahahaha'
p1563
aS'jus talked to colewe got 1'
p1564
aS'his name is freud not frood smh'
p1565
aS'lmmmmaaaooooo'
p1566
aS'my sister dog wiggled under that gate and said bye felicia lol'
p1567
aS'p  h'
p1568
aS'nothing is worse than a 16 year old kid tweeting about relationships constantly buckup wedontlovethesehoes'
p1569
aS'its weird that you tweet'
p1570
aS'no one on twitter is up early and if they are its them bitching about why they are up so early what the fuck am i up this early for '
p1571
aS'in this song common talks about god being a woman and how would he treat women differently one of my favs'
p1572
aS'tell me are you a badfish too'
p1573
aS'if someones happiness effects your mood adversely you need to reconsider your priorities'
p1574
aS'you know i love you lt3 \xee\x80\xa2\xee\x8c\xa7\xee\x80\xa2'
p1575
aS'or a tampon you pussy'
p1576
aS'your mom goes to college'
p1577
asS'2012_45'
p1578
(lp1579
S'watching ace ventura with my bro before i leave '
p1580
aS'no seriously i enjoyed myself tonight goodnight kids'
p1581
aS'wooooop woooooooooppppp'
p1582
aS'then based god fucked my bitch wooooooooooop'
p1583
aS'then i took a nap in that bitch i dont play when it comes to naps'
p1584
aS'then i was tired as shit at 7'
p1585
aS'plus i was smashed at 3'
p1586
aS'the wedding was pretty fun'
p1587
aS'im the darkest person at this wedding lmao'
p1588
aS'just at dis here wedding'
p1589
aS'the lovely couple '
p1590
aS'im at the brdes house shit is getting too real for me'
p1591
aS'weddings are hectic '
p1592
aS'hit the brakes when they on patrol'
p1593
aS'i get high just to balance my lows'
p1594
aS'lmao fair enough '
p1595
aS'haha is that right'
p1596
aS'gooooodddddd i shall destroy you'
p1597
aS'females that think they are the shitltltltltltlt you aint all that shorty'
p1598
aS'ive been playing borderlands 2 all day 00'
p1599
aS'duhhh'
p1600
aS'5 more pounds since the last time i was home smh'
p1601
aS'this is a journey into the horizon'
p1602
aS'queen sized bed built for a king '
p1603
aS'idk my bff jill dm'
p1604
aS'what whatever floats your boat'
p1605
aS'i just said i did'
p1606
aS'i do lol'
p1607
aS'lmaoooooo oh dani'
p1608
aS'this right nowgtgtgtgtgt'
p1609
aS'i got chockate milk bittttttttttcccchhhhh suckmydick fuckyou'
p1610
aS'hhhhhhoooooommmmmmmmeeeeeeeee '
p1611
aS'thats how you know it was a good nap haha'
p1612
aS'keep my dad in your prayers staystrong pops'
p1613
aS'lube master where we treat yours like ours hahahaha'
p1614
aS'already want this drive to be over only 4 hours lol'
p1615
aS'before i was too nice now ill call you on bullshit'
p1616
aS'never stop pursuing something that makes you smile'
p1617
aS'lana del rey is the love of my life'
p1618
aS'that awkward moment where they do the text alert for an iphone in a song and i think i have friends  lol'
p1619
aS'sculpture then drawing then home '
p1620
aS'my bed is so warm'
p1621
aS'listen to some good music'
p1622
ag15
aS'childish'
p1623
aS'im girl got a movie ass its not great but its a super 8 childish'
p1624
aS'realest mf in the game like tron'
p1625
aS'i come first like my cellphone childish'
p1626
aS'over 200 new songs'
p1627
aS'going through music'
p1628
aS'home tomorrow wedding open bar hahahaha'
p1629
aS'girls consider my kindness as me hitting on them wrong do not flatter yourself so they think they can run game wrong'
p1630
aS'lol sorry fb'
p1631
aS'i think it broke on her'
p1632
aS'twas a very productive day'
p1633
aS'youd never think i was listening to lana lol'
p1634
aS'my body doesnt tell me its hungry anymore the only way i eat is if i remind myself to eat'
p1635
aS'i seriously forget my drawing pad everywhere its two fucking feet long '
p1636
aS'he is two zippers away from thriller'
p1637
aS'why is this dude humping people in the goshen'
p1638
aS'what im seein from the back i cant front on'
p1639
aS'i could go for a really long road trip past huge mountains and lots of trees with a stop at a pretty beach'
p1640
aS'i couldnt join a frat they embody everything i hate'
p1641
aS'when im on campus with my he headphones im in my own world'
p1642
aS'today is the oldest youve ever been and the youngest you will ever be again\xe2\x80\x9d bitter sweet huh'
p1643
aS'dont laugh and smile in someones face if you dont like them let that mf know'
p1644
aS'when he wakes up hell see this lmao'
p1645
aS'surest ive ever been'
p1646
aS'lana early in the morning  i cant wait to get all the weird looks as i walk by people today lol'
p1647
aS'my roommate'
p1648
aS'putting on some music i think hes enjoying it lol'
p1649
aS'i just enjoy good music too much'
p1650
aS'lifes too short to be mad at people over petty stuff'
p1651
aS'\xee\x80\xa2\xee\x8c\xab\xee\x8c\xa7\xee\x8c\xa8\xee\x8c\xa8 goodnight'
p1652
aS'i love lana del rey'
p1653
aS'hi colorado '
p1654
aS'no facial hair what you know bout this mac'
p1655
aS'lmao okay good'
p1656
aS'i feel like i should not have faved that lol'
p1657
aS'its too damn cold for my egyptian ass '
p1658
aS'the preacher said we need leaders fight then my body got still like a paraplegic'
p1659
aS'all you need is love'
p1660
aS'race isnt biological it is an idea your mind is blown '
p1661
aS'why do people hate clowns they just wear more makeup than you hahahaha i think im funny'
p1662
aS'i hate when people make mountains out of hills calm your tits'
p1663
aS'facial hair is becoming irritatttttiiinnnggggg '
p1664
aS'time for an hour of soc \xee\x84\x87\xee\x84\x93'
p1665
aS'what time'
p1666
aS'yup'
p1667
aS'5 favorite rappers j cole maybe asap rocky'
p1668
aS'even if youre from st louis you dont like the rams lol '
p1669
aS'white people put on some god damn cloths you and i know damn well it is too cold for basketball shorts this is illinois not mexico'
p1670
aS'you idiots are taking pics of your ballot i have no hope for my generation'
p1671
aS'that hurt my heart dont talk to me'
p1672
aS'your sexuality'
p1673
aS'stupidity and ignorance must be eradicated from the brain'
p1674
aS't swift is the shit my nigga'
p1675
aS'nodaysoff'
p1676
aS'only white people shatter their iphone screens i swear'
p1677
aS'i barley eat'
p1678
aS'i bust shots at all the phonies'
p1679
aS'i cant wait to go home this weekend its gonna be a good week and a better weekend with the people i love'
p1680
aS'gloomy days are the best for good hip hop'
p1681
aS'hey there delilah came on my shuffle im happy'
p1682
aS'i slept all wrong'
p1683
aS'not that im thirsty i just respond fast to text messages because i think its rude to take a day and a half'
p1684
aS'i hate when people do the nf thing i saw you followed me that dont mean im gonna follow you back'
p1685
aS'rt rt if you tryna fuck on sherane tonight'
p1686
aS'i can taste food in my stache hahahaha its a good day '
p1687
aS'leeeeffftttttt 4 deeeaaadddddd i like video games too much'
p1688
aS'im downzieeessss'
p1689
aS'always be happy '
p1690
aS'but i lovvveeee youuuuu'
p1691
aS'sometimes i hate people'
p1692
aS'never refrain from doing something important to you because youre afraid whether it be of judgement or whatever youl '
p1693
aS'i dont got room so get the fuck off my scrotum'
p1694
aS'sometimes i just wanna light this spliff'
p1695
aS'remember remember the 5th of november'
p1696
aS'what a whack stomach i have'
p1697
aS'i hate when i cant get out of bed it isnt a good thing'
p1698
aS'my stomach kills'
p1699
aS'had a scary ass dream that i was havin twins and they were girls thats scary pink was everywhere'
p1700
aS'why the fuck am i awake for right now'
p1701
aS'808 amp heart break'
p1702
aS'yay done with my homework'
p1703
aS'jacobs version of a daunting task is a burrito lol'
p1704
aS'foooooooodddddd'
p1705
aS'this beat deserves some hennessy a bad bitch and a bag of weed thats the holy trinity'
p1706
aS'all i want is a girl that will watch star wars with me from beginning to end '
p1707
aS'during homework '
p1708
aS'kkkkiiiiddddd cuuudddiiiii'
p1709
aS'watching enter the dragon bitch'
p1710
asS'2012_44'
p1711
(lp1712
S'jammin to daft punk'
p1713
aS'i get the weirdest text messages from the weirdest people i swear '
p1714
aS'wegoneat'
p1715
aS'watching aladdin with'
p1716
aS'what a chill two days its been and i wouldnt have it any other way'
p1717
aS'halo 4 would be a super sweet gift'
p1718
aS'awwwwweeeee \xee\x8c\xab\xee\x8c\xa8\xee\x8c\xad'
p1719
aS'earlier lol'
p1720
aS'so i dominate at fifa get at me'
p1721
aS'first time i saw you i imagined you in a white dress'
p1722
aS'this man was shaving while driving during novembeard man card revoked'
p1723
aS'love one of you bucket headed hoes no way'
p1724
aS'i need a nap today'
p1725
aS'you are missed dr roy \xee\x8c\xac\xee\x8c\xac\xee\x8c\xac\xee\x8c\xac\xee\x8c\xac\xee\x8c\xac'
p1726
aS'scratch that like love '
p1727
aS'if you do not like dogs you are not a keeper'
p1728
aS'classic'
p1729
aS'that was my shit '
p1730
aS'truuuuu'
p1731
aS'lmao for real '
p1732
aS'this hour and fifteen minutes feels like a 100 years and 15 days '
p1733
aS'she just ripped it out like she gonna frame it its on notebook paper '
p1734
aS'lmao she think she cold'
p1735
aS'she still goin smh'
p1736
aS'lmmmmmmmmaaaoo'
p1737
aS'you mad lmmmmmmmaaaaooooooo'
p1738
aS'they petty for this south of the border shit i am offended lol'
p1739
aS'for a smart lady she sure is stupid'
p1740
aS'wtf is talmud autocorrect'
p1741
aS'we are talmud about black face in sociology '
p1742
aS'lectures'
p1743
aS'hold the phone i just did all that for a point'
p1744
aS'dont come to class to fucking color keep you and your smelly ass sharpies at home '
p1745
aS'i swear every time i look down their is a new piece of dry clay on me'
p1746
aS'money trees are perfect for shade'
p1747
aS'i dont trust these women unless you all the way on my dick that sweet talk dont phase me'
p1748
aS'hahahaha i thought it was a fish im so gonna do this '
p1749
aS'that time big sean sampled the rootsgtgtgtgt'
p1750
aS'tell me how it feel to be around a nigga this real realnigga'
p1751
aS'this wedding is gonna be legit 1 i look marvelous in a suite 2 open bar 3 girls in tight dresses '
p1752
aS'i hate when people are in class sitting behind you constantly whispering about irrelevant shit throughout the whole c '
p1753
aS'hahahahhahahahahaahahahha i got it whatd you use i need to do mine'
p1754
aS'no fun nigga no funds was the reason'
p1755
aS'wtf am i looking at'
p1756
aS'i got the baddest bitches waiting on a nigga me how can you not love rick ross'
p1757
aS'life is a choice of preference who to say someones heaven isnt someone elses hell'
p1758
aS'weve gotta fight for our right to parrrrrrrtay'
p1759
aS'were all troubled in this world full of trouble cudi'
p1760
aS'i drink too many liquids and eat too little'
p1761
aS'i won ties are simply unsuitable'
p1762
aS'hate when my momma dont answer the phone'
p1763
aS'those words are scary virgin mary'
p1764
aS'just saw wolverine riding a bike with no hands like a bad ass 00'
p1765
aS'ya bish'
p1766
aS'the manliest month has started '
p1767
aS'verse if the day come home mona you know you cant rome without ceaser yezzy'
p1768
aS'aweee ight he is dope for real'
p1769
aS'just findin out'
p1770
aS'you need to sound like someone who shut the fuck up greatcomeback'
p1771
aS'after days of gettin my ass beat i have prevailed and won a game of 2k im the champ smacks chest'
p1772
aS'an baby i got a plan runaway as fast as you can'
p1773
aS'i waste my time with the wrong people yo'
p1774
aS'at least my bed always loves and comforts me \xe2\x99\xa1'
p1775
aS'do that shit'
p1776
aS'everyone is looking at me like im crazy cause my eyes are super super red i think ill be the subject of some statuses and tweets '
p1777
aS'gatorade is the worst drink right after you brushed your teeth aaaagghhrhkjdlemmdkdkddnjfndkdkdkdnfjdldueyatwoeoks\xee\x80\xa2\xee\x90\x96\xee\x84\x87\xee\x90\x96\xee\x8c\xac\xee\x90\x96\xee\x84\x8c\xee\x90\x88\xee\x84\x9a\xee\x90\x88\xee\x84\x87\xee\x90\x96\xee\x84\x87\xee\x8c\xad\xee\x80\xa3\xee\x90\x86\xee\x90\x90\xee\x90\x88\xee\x84\x8c\xee\x90\x8c\xee\x84\x8c\xee\x90\x88\xee\x90\x90\xee\x90\x88\xee\x84\x87'
p1778
aS'starting no shave november today '
p1779
aS'we got somethin that will help'
p1780
aS'it isnt so much getting out of them but coping with what happened'
p1781
aS'just trolling tino for deleting my comment lol'
p1782
aS'sometimes the silence is comforting'
p1783
aS'another morning feeling like shit im so sick of this already'
p1784
aS'do girls do no shave november'
p1785
aS'whos gonna be my eye doctor today my eyes are stupid red today'
p1786
aS'lebron is a playable cheat code in 2k'
p1787
aS'unless youve seen me in person tonight you dont understand how red my eyes are they are like a fire truck red'
p1788
aS'i gotta win a game sometime right '
p1789
aS'damn that game pisses me off '
p1790
aS'got my asskicked in 2k all night again '
p1791
aS'just hung up on himself howsad'
p1792
aS'my eyes have been this red all day '
p1793
aS'you think youve had a tough time hahahaha'
p1794
aS'people have no idea about the struggle the shit ive experienced in my life will break you down'
p1795
aS'that shit pissed me off yo'
p1796
aS'im always the bad guy'
p1797
aS'my eyes have been super red all day and idk why'
p1798
aS'the walking dead'
p1799
aS'watching this heat vs celtics game fuck the heat'
p1800
aS'good morning lol i am grumpy gills'
p1801
aS'now my eyes are super red'
p1802
aS'good morning lol'
p1803
aS'slllllleeeeeeeeeeeepppppppppp'
p1804
aS'only eat with the niggas you starved with'
p1805
aS'everyone keeps telling me how red my eyes are i honestly dont know what to tell you lol lack of sleep'
p1806
aS'drake said worried about your followers you need to get your dollars up'
p1807
aS'people are so salty when you dont follow them back they unfollow you lmao '
p1808
aS'yeah okay kimberly'
p1809
aS'we met for a reason youre either a blessing or a lesson'
p1810
aS'why you playin your name is kimberly you been livin a lie '
p1811
aS'they slack on the heat at this school so bad this class is cold as shit'
p1812
aS'who do i need to thank for all these girls in leggings im seeing'
p1813
aS'this girl has on sun glasses 1 the sun is only up for like 6 hours 2 you inside the light aint that bright'
p1814
aS'the only thing you ever squeeze is a juice box nigga bada'
p1815
aS'they rather see you die before they see you fly'
p1816
aS'youd be in good shape if youd run like your mouth do'
p1817
aS'my headphonesltltltltltlt'
p1818
aS'this dude just walked past in the dopest jacket damn i need a jobbbbbbbb'
p1819
aS'wrong'
p1820
aS'im gonna win my game of 2k tonight '
p1821
aS'im missin all this thats fucked up'
p1822
aS'i was looking at my resum\xc3\xa9 feeling real fresh today'
p1823
aS'i wonder if spongebob is riding with sandy ha in so clever'
p1824
aS'thanks giving break means food family and first tattoo on my shoulder'
p1825
aS'intelligence without ambition is like a bird with no wings salvador dal\xc3\xad'
p1826
aS'get out the car before i snatch you out that mothafucka homie'
p1827
aS'thats weird im listening to the same song'
p1828
aS'clay is your black jackets kryptonite '
p1829
aS'one more class than its shower and slllllleeeeeeeeeeeeppppppppp'
p1830
aS'im 100 sure my neighbors hate me'
p1831
aS'at home alone singing the weeknd songs loud as hell lol'
p1832
aS'phil an i just had a talk about facial hair lmao'
p1833
aS'you get to a point in these art classes where you dont give a damn about the rules for a project an do as you please'
p1834
aS'i have a love hate relationship with clay'
p1835
aS'nap for sure today'
p1836
aS'trrrruuuuu'
p1837
aS'first time ive been under 140 since my freshman year of high school chubbykidprobs'
p1838
aS'mad city gets you so hyped tho'
p1839
aS'in college you lierally live in a rectangular prison quiet depressing huh unless you have your own place'
p1840
aS'be safe everybody hope everything is ok with you and all of your loved ones'
p1841
aS'fuck you'
p1842
aS'just won the most intense game of 2k against'
p1843
aS'i had a moment sorry fuck2k'
p1844
aS'fuck that game'
p1845
aS'i was leadig the whole game an his bitch ass came back and won by one'
p1846
aS'its impossible for me to win a game '
p1847
aS'i just got my ass beat in 2k for two hours '
p1848
aS'more 2k at 2 am like i dont got class tomorrow gettin crazzzzzzyyyyyy '
p1849
aS'fuck you nigga i know im dope'
p1850
aS'goes in on these rappers lmaaaooooo'
p1851
aS'word to my mother i never leave the house without a rubber'
p1852
aS'im just trying to make you numb without a word'
p1853
aS'kanye killed that shit'
p1854
aS'you that type a girl that deserves a new last name'
p1855
aS'first time i saw you i pictured you in a white dress'
p1856
aS'where is when i need to bitch'
p1857
aS'how could be so cold as the winter wind when it breaths yo'
p1858
aS'no one is willing to help me but you expect me to throw myself in front of a train for you wrong'
p1859
aS'since i aint eaten i guess ill go to sleep'
p1860
aS'that last tweet was all wrong lmao i weigh 135 and last semester i weighed 165 '
p1861
aS'eaaaaatttttttttt'
p1862
aS'im starving '
p1863
aS'fuck the free throw in 2k'
p1864
aS'got my ass whooped in 2k damn that game is frustrating as shit '
p1865
aS'time for this 2k lol'
p1866
aS'i spit more than speech in impediments'
p1867
aS'survival thats your greatest rival'
p1868
aS'uhhhh huh'
p1869
aS'dont tell me what im doin im a grown ass man'
p1870
aS'i emailed you too'
p1871
aS'done with my homework lol'
p1872
aS'just post on blackboard'
p1873
aS'i did my work'
p1874
aS'well none of them other fools emailed me so f that'
p1875
aS'i didnt post yours i posted mine you better get on yours'
p1876
aS'homework shneezz '
p1877
aS'yeah but i just figured it out and about to upload on blackboard'
p1878
aS'how do we post in this discussion board'
p1879
aS'thanks tumblr for doing my hw i appreciate it '
p1880
aS'that movie was nothing short of critical'
p1881
aS'white girls loge ratchet music lmao'
p1882
aS'they wanna put two shots in my beanie'
p1883
aS'im enjoying these full value drawings im actually kinda decent at it '
p1884
aS'some wale im impressed'
p1885
aS'makeup is supposed to make you look good not like a birthday cake realnigga'
p1886
aS'salty as shit on this bus lmao'
p1887
aS'i found soulja bois instagram its about to go down let the ratchetness begin'
p1888
aS'puttin your background on your pup that passed ltltltltltltlt  i miss you boy'
p1889
aS'some girls trip over celebrities a lil too hard he aint gonna retweet you'
p1890
aS'canceled classes are the best classes'
p1891
aS'tomorrow shall be a glorious day'
p1892
aS'yall not real spitters your lips chapped'
p1893
aS'on the house speakers'
p1894
aS'people choose to believe what they want to believe dont waste your time trying to convince them of anything'
p1895
aS'im goofy deal with it'
p1896
aS'watching and go hard playing 2k13 while bitching up a storm lmao'
p1897
aS'tomorrow is monday ggggaaaaayyyyyy '
p1898
asS'2012_47'
p1899
(lp1900
S'you ready to put some money on some gas nigga'
p1901
aS'i heard the whole thing'
p1902
aS'while to you i was a young reckless nigga that lacks faith'
p1903
aS'no album work but tgis album is the truth'
p1904
aS'you better do that extra credit for class on blackboard girl'
p1905
aS'forever young'
p1906
aS'bulls win '
p1907
aS'dick pics for all'
p1908
aS'i hate cold hands'
p1909
aS'if you dont enjoy linkin park youre probably a soulless devil sorry'
p1910
aS'this year ive learned to not give a fuck about the people that havent stuck around'
p1911
aS'look who else i found \xee\x8c\xad\xee\x8c\xaa\xee\x8c\xad\xee\x8c\xa7\xee\x8c\xa8\xee\x8c\xa8\xee\x8c\xab'
p1912
aS'i accomplished my goal for this thanksgiving and it feels only right'
p1913
aS'multiply that by 4 '
p1914
aS'coaching'
p1915
aS'the hair runs in the family'
p1916
aS'i never ate so much food in my life'
p1917
aS'a mans plate'
p1918
aS'moms threw down with'
p1919
aS'im about towhats it called smash '
p1920
aS'so to my homie he the one of the coolest guys ikhe always got me laughingeven though he is always fucking with my shyt'
p1921
aS'so to the big homie cool af and be looking out for the brosgo follow that manhe will keep you rollin lmao'
p1922
aS'having thanksgiving with family and friends blessed'
p1923
aS'i for the life of will never understand women'
p1924
aS'you know you ate good last night when you wake up witha food baby and your abs disappear today is round 2 youputnofearinmyheart'
p1925
aS'happy thanksgiving everyone i hope you have an amazing time with your loved ones '
p1926
aS'what are you on lil punk'
p1927
aS'my mommy and i had a sea food dinner i made the scallops she made the rice'
p1928
aS'this kinda night'
p1929
aS'bout to smoke with this old gangster dude'
p1930
aS'according to fady the moment james harden shaves his beard he will lose all his power and will immediately fall off the face of the earth'
p1931
aS'no more bulls fans  all fair weather people smh nate robinson is snapping'
p1932
aS'james harden  skinny rick ross'
p1933
aS'i still love ya '
p1934
aS'if you dont earn your worth everyday then there is no reason to keep your worthless ass around'
p1935
aS'i got me a lil hair cut and i cant lie it looks quite swell '
p1936
aS'a white man with a pickup truck always puts fear into my heartlike youre automatically grand master of the kkk'
p1937
aS'to get a haircut or not to get a hair cut that is the question'
p1938
aS'fuck off you giraffe'
p1939
aS'waynes world is on stop whatever the fuck youre doing'
p1940
aS'im gonna go take a really hot shower'
p1941
aS'im a introvert'
p1942
aS'i miss coaching a lot'
p1943
aS'having a shneez and a cold one with my bro is the best'
p1944
aS'you smell like one'
p1945
aS'when you refresh twitter on the iphone with your sound on it sounds like a queef lmao'
p1946
aS'im like the chill that runs up your spine i climb into your mind and devour all ignorance blessing your mind like someone devine'
p1947
aS'used to be the sweetest till life handed me the lemons nigga  bada'
p1948
aS'people took times out of their day to listen to a french montana mixtape and expected it to be good hahahahahaha its called mac amp cheese'
p1949
aS'reach for the sky cause if you fall youll land on a cloud'
p1950
aS'best album cover ever'
p1951
aS'what you know about this'
p1952
aS'why am i awake '
p1953
aS'downloading and catching up on some music'
p1954
aS'to show land'
p1955
aS'tell her i love her'
p1956
aS'bulls up one 2221 with 238 left in 1st quarter hamilton with 6pts on 34 fg chivspor'
p1957
aS'linkin park are still amazing tbh'
p1958
aS'bbbbuuuullllssssss'
p1959
asS'2012_46'
p1960
(lp1961
S'picked this guy up on my way to the gas station \xee\x84\x86\xee\x84\x86'
p1962
aS'i miss having pups running around lt3'
p1963
aS'i cant believe i still devote thought to that shit smh'
p1964
aS'some people deserve an ass whooping just based off principal'
p1965
aS'blllaaacckkk oppppsssss'
p1966
aS'so borderlands is pissing me off whats up twitter'
p1967
aS'shit we talk about'
p1968
aS'even when and i are not in the same room we are still talking to each other about music haha'
p1969
aS'twitter beef is called tweefing hmmmmm sounds a lot like queefing to me idk why that is funny to me lol '
p1970
aS'slow motion better than no motion'
p1971
aS'already a step ahead of you'
p1972
aS'there is a kid in my drawing class named nigel and he looks just like a young nigel thornberry hahaha'
p1973
aS'die the hero or live long enough to see yourself become the villain'
p1974
aS'this is why the world thinks america is stupid we go to venice and swim in flooded waters in front of buildings that have stood for years '
p1975
aS'my heart goes out to those families in egypt be strong your time will come'
p1976
aS'an you didnt come over its cool'
p1977
aS'you get your lights punched out by him you bitch about it make a big deal then you go running back break the cycle ladies'
p1978
aS'chris brown an rhirhi are a perfect example of what girls do'
p1979
aS'my computer just died which means no music '
p1980
aS'goodnight cruel world ill cya in the morning second time i used that fuckem'
p1981
aS'i just want good music love an happiness for everyone'
p1982
aS'why do i still try lmaoooooo'
p1983
aS'im back home '
p1984
aS'510 1b'
p1985
aS'you might as well come sit here cause im not even close to being ready'
p1986
aS'it may get real if i take this nap'
p1987
aS'lana lovvvveeeeeeee meeeeee '
p1988
aS'i was satisfied being in love with the lie yezzy'
p1989
aS'you sure minded niggas thoughts is napoleon yezzy'
p1990
aS'everyone is probably gonna go party and ill probably watch a movie fuckem'
p1991
aS'its disgusting how many looks a muslim woman got when she walked through the goshen smh growup smallminds'
p1992
aS'just remember every little thing is gonna be alright'
p1993
aS'calling it an early night i gotta be productive tomorrow'
p1994
aS'have you ever had sex with a pharaoh ill put that pussy in a sarcophagus'
p1995
aS'we spend too much time fearing our own demise'
p1996
aS'lets play the blame game baby'
p1997
aS'who will survive in america'
p1998
aS'prayers for gaza'
p1999
aS'how is the bus sign gonna change from to station to cougar village when its pulling off im mad i just got left'
p2000
aS'you catch more bees with honey than with vinegar keep that in mind while youre being a cunt'
p2001
aS'head of the class all she want is a swallowship'
p2002
aS'dark fantasy kind of day'
p2003
aS'first time having a full tank in my car comeup'
p2004
aS'these are the pic messages i get'
p2005
aS'when i think my phone vibratedltltltltltlt lmao'
p2006
aS'so im gonna watch fern gully your life is automatically more worse than mine'
p2007
aS'they got fern gully on netflix guys ohhhhhhh shhhhiiitttt'
p2008
aS'river monsters than bed'
p2009
aS'1230 or 1 ish'
p2010
aS'waaalllkkkiinnnnnnggggg deeeeaaaaaadddddd '
p2011
aS'who gets a flu shot'
p2012
aS'you a fake fuck like a fleshlight childish'
p2013
aS'i got some soft ass hair'
p2014
aS'hahahaha i knowwwww '
p2015
aS'sketching for contrast proving to be difficult'
p2016
aS'sketching ideas for a contrasting sculpture is proving to be difficult'
p2017
aS'i hope you understand that you will never understand'
p2018
aS'lol fair enough'
p2019
aS'what did you think it meant lol'
p2020
aS'that awkward moment when youre not sure how someone feels about youltltltltltltltlt'
p2021
aS'i forgot better shit then you ever thought of'
p2022
aS'\xee\x80\xa2\xee\x8c\xa7\xee\x8c\xab\xee\x8c\xa8\xee\x8c\xad\xee\x8c\xaa'
p2023
aS'goodnight cruel world ill see you in the morning'
p2024
aS'god i thought i loved you so'
p2025
aS'we dont need no money we can make it all work'
p2026
aS'i get to go home the end if this week too hell yeah'
p2027
aS'its cold as shit in my car but must make it to walmart need conditioner '
p2028
aS'im tired of motherfuckas being worried about me when they probably never gave a fuck about me'
p2029
aS'you gon eat'
p2030
aS'lifes a trip sometimes youll stumble'
p2031
aS'i feel a nap setting in'
p2032
aS'life is short do more of what really makes you happy'
p2033
aS'i finally found the passion i was lacking before'
p2034
aS'i wonder what you think about at night'
p2035
asS'2012_41'
p2036
(lp2037
S'old kanye tonight on the house speakers'
p2038
aS'trust is limited now'
p2039
aS'i should get this nap in'
p2040
aS'that last tweet went down the drain lol fail'
p2041
aS'if you think one direction makes good music than your music taste is lacking'
p2042
aS'niggas cant always eat off of 7 bucks'
p2043
aS'why am i up'
p2044
aS'just got done watching the walking dead time for sleep'
p2045
aS'one black guy on walking dead guess what his name is tdog'
p2046
aS'dont speak think'
p2047
aS'still watching the walking dead haha'
p2048
aS'he is a champ tell him to get a blunt and a bowl in'
p2049
aS'walking dead kinda night'
p2050
aS'i hate those that constantly complain about their lives that is the hand you were given make the most of it livelife'
p2051
aS'are you such a loser you cant realize when youve won'
p2052
aS'this is what happens when you sleep at a party i guess smh'
p2053
aS'fumando marijuana'
p2054
aS'walking dead all day son'
p2055
aS'remember when one direction beat what has america come too '
p2056
aS'naaaaa you just hungover lmao'
p2057
aS'i told you you mf were tweakin naaaaa man we just gonna watch'
p2058
aS'last night was quite fun haha'
p2059
aS'tonight was a good night'
p2060
aS'this nigga fucked up the yeezys g'
p2061
aS'yuuuuuuuuuupppppppp'
p2062
aS'so cardinals won haha onto the world seris lol'
p2063
aS'oh shhhhiiiiittttttttttt'
p2064
aS'he can rap and flow but not sing'
p2065
aS'if there is one thing i know about is kid cudi cannot sing invest some time in john legend '
p2066
aS'if thats really what you think you need to experience music son'
p2067
aS'its the start of a good night'
p2068
aS'im through one forty and im fucked up'
p2069
aS'im turnt the fuck up'
p2070
aS'what im on tonight'
p2071
aS'tonight will be a night to remember'
p2072
aS'what if the stars and the sky are all a show and the aliens are watching live'
p2073
aS'i texted youuuu'
p2074
aS'lil wayne lollipop was so legit hahaha'
p2075
aS'if that casket aint 24k gold when i die than i aint make enough money'
p2076
aS'kevo said he wants to do somethin musically with ackurate he said hell play him a beat or somethin'
p2077
aS'thats life tough tits'
p2078
aS'aye he can spit off the top that flow was immaculate to that beat'
p2079
aS'frank ocean blue whale'
p2080
aS'did you know the feeling of hate is more neurologically similar to the feeling of love than it is to the feeling of fear disgust or anger'
p2081
aS'that morgan freeman sample was dope'
p2082
aS'goodnight kids'
p2083
aS'an address'
p2084
aS'where this party at girl '
p2085
aS'baby you can wear my hat as long as you got something to match '
p2086
aS'time to partito'
p2087
aS'i feel like i talk to my mama bear more than the average college student and im perfectly fine with that'
p2088
aS'seem the best ones want a no nothing goofy nigga in jordanssad that she losing value'
p2089
aS'peta'
p2090
aS'i need to stop wasting time on social networks fuck yall niggas '
p2091
aS'this old ass 20 the atm gave me'
p2092
aS'all these thick snow bunnies \xee\x81\x88\xee\x94\xac '
p2093
aS'dont talk shit if you aint gone back it up'
p2094
aS'lmao trrrruuuuu'
p2095
aS'you make it bright when its greyyy'
p2096
aS'yesssssss '
p2097
aS'hat hair depresses me '
p2098
aS'what i listened to today'
p2099
aS'let a relative nigga do what relative nigga feel'
p2100
aS'make me remember you'
p2101
aS'if i have a daughter i wonder what i can call her 9 months after fucking on the beach i guess call her karma is too dope'
p2102
aS'thank me later'
p2103
aS'this life goes on dawg thats one thing about it'
p2104
aS'han solos game was tight '
p2105
aS'once bitten twice shy'
p2106
aS'people have time for people they want to have time for'
p2107
aS'lmao got it now it is what i thought it was'
p2108
aS'idk what that means but i like it lol '
p2109
aS'big sean sampled the roots respect'
p2110
aS'tell me how it feel to be around a nigga this real'
p2111
aS'snapbacks and vansgtgtgtgt i need to get back on my grind tho'
p2112
aS'lmfaao'
p2113
aS'i got a cool lighter'
p2114
aS'fuck drawing '
p2115
aS'how do i forget my 18x24 drawing pad more than once wtffffffff '
p2116
aS'this little hustle is gettin you by'
p2117
aS'you miss 100 of the shots you dont take'
p2118
aS'aint nothin more important den da mula'
p2119
aS'my life used to be empty like a glock without a round now its full like a choppa with a thousand rounds'
p2120
aS'i get a swimming pool full of liquor than i dive in it'
p2121
aS'wtf is going on in family guy'
p2122
aS'lmao'
p2123
aS'i need a boyfriend no you want a boyfriend you need water cause u sound thirsty'
p2124
aS'cant wait for soc to be over '
p2125
aS'it will never get old not if mu soul my spirit keep it alive '
p2126
aS'shes giving me pleasure over matter'
p2127
aS'i think people just hate what they dont understand'
p2128
aS'some dom on the house speakers tonight'
p2129
aS'1111 make a wish i wish a nigga woouuuullddd'
p2130
aS'kid cudi for night music is the best'
p2131
aS'i hate having more than 2 windows open and more than three tabs \xee\x90\x96\xee\x90\x96\xee\x90\x96'
p2132
aS'the only man that understands is the one in the mirror'
p2133
aS'thats how you know the nap was the titties nigga'
p2134
aS'its crazy how happy fresh baked cookies could make a man'
p2135
aS'i know so guuurrrrlll'
p2136
aS'then the day after that will be'
p2137
aS'were all on our new fish'
p2138
aS'i shouldnt text people high smh'
p2139
asS'2012_40'
p2140
(lp2141
S'found the love of my life'
p2142
aS'shower than art building workworkwork'
p2143
aS'yeeeeaaahhhhh'
p2144
aS'dim the lights and fall into you'
p2145
aS'why he mad tho '
p2146
aS'im gonna step aside and let karma take her path'
p2147
aS'had a frew brews lastnight'
p2148
aS'you cant make a girl be a woman or make a boy be a man life has to hit them in a way that transition happens naturally'
p2149
aS'last night '
p2150
aS'im quite messed up goodnight \xee\x90\x84\xee\x90\x84'
p2151
aS'partttyyyy timeeee'
p2152
aS'a extremely high frank ocean listen session with'
p2153
aS'cool ass'
p2154
aS'youre my hero '
p2155
aS'too many closed minds with open mouths'
p2156
aS'your girl fixin her makeup in my rims nigga'
p2157
aS'in this young sculptor class'
p2158
aS'cant give up on love because of one person just gotta watch out for the ones that change form'
p2159
aS'dont piss on my back and then tell me its raining'
p2160
aS'therapeutic kinda night'
p2161
aS'gonna go on a short run havent been on one in a while'
p2162
aS'singin with all the passion you cangtgtgtgtgt'
p2163
aS'smh peta'
p2164
aS'kevin watching this commercial high hahaha'
p2165
asS'2012_43'
p2166
(lp2167
S'take off your shirt and let me feel manipulation'
p2168
aS'the rent late and the land lord fed up with our lies so we pray and neal to the allahs that he protects us during our lives'
p2169
aS'yup sick'
p2170
aS'i miss roy '
p2171
aS'still not asleep lol kinda gettin pissed off '
p2172
aS'well sleeping isnt working lol'
p2173
aS'i guess ill try to sleep'
p2174
aS'i wish i wasnt getting sick  well looks like im gonna be in zombie mode this week'
p2175
aS'it aint easy living life like this being righteous when you know a nigga might leave you lifeless for prices or high tech devices'
p2176
aS'dont front'
p2177
aS'if anyone can feel you it is me'
p2178
aS'dont sleep on'
p2179
aS'your wig might get split on some third eye shit'
p2180
aS'i dont trust these bitches they will never catch me slippin'
p2181
aS'i like to chill instead of going out sue me'
p2182
aS' survival tacticsgtgtgtgtgtgt'
p2183
aS'who are you when no one is looking'
p2184
aS'i would never wish death on nobody because aint no coming back from death'
p2185
aS'look at the balls on this one he thought it was too sweet'
p2186
aS'ya bish '
p2187
aS'photo bomb like a champ'
p2188
aS'thus random indian and i'
p2189
aS'i think im gettin sick fffuuuuuucccckkkkkk'
p2190
aS'i shot catwoman batman riddler the joker scarecrow some han solo bitch a jedi two police men and jesus cowboy wins'
p2191
aS'i was a cowboy last night and i spent the night shooting everyone it was tons of fun haha'
p2192
aS'kevo thinks he is roofied lmmmaaao'
p2193
aS'dont brag to me about what time you started drinking i dont care lol'
p2194
aS'looks like im staying in lol oh well'
p2195
aS'my shuffle is on point '
p2196
aS'go out tonight or dont go out tonight thats the question'
p2197
aS'better get the dragon lmao '
p2198
aS'what would life be without music'
p2199
aS'its funny how you see it more straight when your bent'
p2200
aS'ive played video games all day couldnt be happier'
p2201
aS'natties are so gross blllaaahhh'
p2202
aS'i just freestyled too nasty'
p2203
aS'did we help'
p2204
aS'shout to and for lettin me and come through and cohost'
p2205
aS'my ass got a ticket for the show tge muc is weak i had fun tho'
p2206
aS'possibly best hip hop album this year did an amazing job'
p2207
aS'djing a radio show today kendrick album listen at'
p2208
aS'if you havent heard that new kendrick album catch it on'
p2209
aS'go to right now and i are co hosting'
p2210
aS'living your life inside of a church or inside of a strip club is poison period either way you have seg '
p2211
aS'listen to now '
p2212
aS'is playing kendrick lamars new album gkmc tune in'
p2213
aS'gtgtgtgtgtrt playing that good kid mad city on'
p2214
aS'tune into they playing your whole album amp analyzing the story to the album'
p2215
aS'stay tuned in to'
p2216
aS'gkmc'
p2217
aS'tune into now '
p2218
aS'let us know what you think about that kendrick album np backstreet freestyle'
p2219
aS'on with the host and i are cohosting go to right now to listen'
p2220
aS'so to for tuning in flyuradio'
p2221
aS'word rt so to for tuning in flyuradio'
p2222
aS'go to right now'
p2223
aS'about to play album on flyuradio we want you opinions on songs and if you can relate got '
p2224
aS'what you listen to today'
p2225
aS'when people tell me im too happy all the time  no you are just too upset over stupid shit all the time'
p2226
aS'she may be the first teacher to actually dislike me shit my charm is fading'
p2227
aS'when your english teacher sends you way the fuck off '
p2228
aS'dude fuck english im tryin to sleep '
p2229
aS'get the fuck out of my house '
p2230
aS'if i get this job my button up game and my snap game is going up '
p2231
aS'130 faces lol'
p2232
aS'that awk moment where there is only 1 girl in the room and wiz says theres a bad bitch in here point her out and no one points at the girl'
p2233
aS'waiting for a text that youll probably never get ltltlt'
p2234
aS'bad bitch contest you didnt even place'
p2235
aS'lil wayne sold over 2 billion albums in the us '
p2236
aS'im so pissed off everyone is going to costume parties and i cant cause im broke thestruggle timeforajob'
p2237
aS'hearing schoolboyq adlibs on the kendrick album is hilarious'
p2238
aS'i didnt elaborate on me catching that fly i caught while driving and being on the phone im starting kungfu lessons tonight'
p2239
aS'kendrick album sess i think this is the third one lol'
p2240
ag15
aS'hopefully i get to go see my country boo this weekend'
p2241
aS'i hope i get to spend the weekend with alex \xee\x80\xa2'
p2242
aS'kill em all if they gossip'
p2243
aS'girls that love hip hop as much as igtgtgtgtgtgt'
p2244
aS'only gonna work where i can sit at a desk and be on my computer lol'
p2245
aS'im gonna apply for a job i guess niggas need to go shopping lol'
p2246
aS'im not happy in the playoffs i gotta get my rings up'
p2247
aS'fuck sociology'
p2248
aS'i cant wear fitted hats cause of my hair is always at different lengths '
p2249
aS'if your a man you dont cry about it you take life the ups and downs and if you were a real man you stay up and never fall down'
p2250
aS'the awkward third wheel that walks behind the couple on their phone lmaaaooo we all know you dont got no text messages '
p2251
aS'he got comfy as fuck and i dont do that feet shit'
p2252
aS'fraternitiesgay sauce'
p2253
aS'almost busted my shit in the quad fuck leaves'
p2254
aS'playin a lot of bieber in the muc lowkey im okay with that hahaha'
p2255
aS'in the streets with a heater under my dungarees jay rock went hard in money trees'
p2256
aS'i gotta start eating more to prepare for mommas thanks giving dinner '
p2257
aS'it happens to the best of us lol'
p2258
aS'you so cool'
p2259
aS'lmao you mad'
p2260
aS'im sooooooo hungry i dont think ill make it go on without me aggggggghhhhhhhh '
p2261
aS'fooooooooooooooood'
p2262
aS'lmao theater majors crack me up lol'
p2263
aS'realizing you forgot your chapstick is heart breaking'
p2264
aS'tupac shirtsgtgtgtgtgt'
p2265
aS'cool wind fuck my hair up more girlprobs'
p2266
aS'atleast i know i wont be late lol yay sculpture '
p2267
aS'how do you get anything done you always tweeting lol'
p2268
aS'cant go back to sleep fuuucckkk'
p2269
aS'hahaha getting cow licks again uhh ohh'
p2270
aS'why am i awake'
p2271
aS'always trust people who love big butts they cannot lie'
p2272
aS'so nothing could remove from my bed im too damn comfy'
p2273
aS'hhhhhaaapppppyyyy birrrttthhhhday twwwwwwiiiinnnnsssiiieeeessss'
p2274
aS'the person who loves above me phone keeps going off and i think its mine then i remember im not cool lol'
p2275
aS'who would imagine asians make the best kungfu movies '
p2276
aS'selassie just whooped my ass smh salty'
p2277
aS'glad im having a straight up fifa night'
p2278
aS'it is not possible for to get a goal right now smh fifa'
p2279
aS'will do just let me know'
p2280
aS'lm still in love with it'
p2281
aS'i love your tweets mollie lol '
p2282
aS'but really wikipedia is overall extremely helpful in many situations'
p2283
aS'my roomate said fuck that they went through some dumb shit i thought it was cute lmao'
p2284
aS'ill be your topanga if youll be my cory'
p2285
aS'doing nothing today is awesome'
p2286
aS'smh not okay'
p2287
aS'hiphop'
p2288
aS'i hate my stomach pain it has been two months when will it go away '
p2289
aS'awwweeeessssooommneeeee'
p2290
aS'money trees '
p2291
aS'he mad'
p2292
aS'i thought it comes out in december'
p2293
aS'back when i was 9 joey packed a 9'
p2294
aS'i keep falling asleep on soc smh'
p2295
aS'im crashing'
p2296
aS'i deserve this fucking nap soc needs to hurry the fuck up'
p2297
aS'his flow on this is so nasty'
p2298
aS'i sleep too much to not sleep this much'
p2299
aS'so i need sleep'
p2300
aS'dont trust a nigga with no leg hair'
p2301
aS'college only sucks when youre 1in class or 2 when its raining'
p2302
aS'mustaches are mouthbrows and eyebrows are eyestaches'
p2303
aS'aye you eatin\xe2\x80\x9d hell yeah im eatin'
p2304
aS'literally the worst jerky ever eveeeerrrrr'
p2305
aS'made my own night'
p2306
aS'glad you guys are okay'
p2307
aS'what is the sex of the asian person that walks around campus what are you '
p2308
aS'that isnt him who got shot'
p2309
aS'i cant wait to get all these weird looks while i walk around with this 3 foot cardboard sculpture artstudentprobs'
p2310
aS'what 00'
p2311
aS'i got like three last night at 3 in the morning lol get used to it'
p2312
aS'theartofpeerpressure'
p2313
aS'lmao im glad it happened that way'
p2314
aS'dude that makes two of us i still have a 3 hour drawing class i have to paint and finish a sculpture an finish a paper'
p2315
aS'trrruuuuuuu'
p2316
aS'kendrick rt bigsean drake or jcole\xe2\x80\x9dalready heard it in fact listing to it now it is raw'
p2317
aS'this is very true'
p2318
aS'i hate people today'
p2319
aS'i hate people today'
p2320
aS'i was told it would be 80 and sunny today what im seeing is not 80 and fucking sunny'
p2321
aS'banana clip to split his banana pudding'
p2322
aS'when i ride its to a murderous rhythm'
p2323
aS'i want money but dont want to work gonna start brain storming inventions'
p2324
aS'i need money tho fuck it'
p2325
aS'damn i hated working at kmart smh i really dont want a job '
p2326
aS'should i get a job hmmmmm'
p2327
aS'kids that were given everything and dont realize itltltltltlt'
p2328
aS'cant sleep'
p2329
aS'grindin thestruggle'
p2330
aS'this kendrick albumgtgtgtgtgt'
p2331
aS'man i want kendrick to do ridiculous numbers that would make me feel better about the world and where we all at'
p2332
aS'trrrrruuuuuu'
p2333
aS'you deserve it'
p2334
aS'taking a break to whop some ass in fifa lawwwddddd '
p2335
aS'not getting bulls games down hereltltltltltlt'
p2336
aS'fuck this research paper may be up all night tomorrow will be a long day'
p2337
asS'2012_42'
p2338
(lp2339
S'when i come to the art building to finish a sculpture but all the doors are lockedltltltltltltltlt'
p2340
aS'i wish it was socially acceptable to wear sweats to church'
p2341
aS'gangster night in cougar village'
p2342
aS'writing a part to this '
p2343
aS'damn the threw the bathing woman behind the art building'
p2344
aS'i just had the sane realization lmao'
p2345
aS'good kid mad city'
p2346
aS'its okay twinzie i still wuv ya'
p2347
aS'oh lmao i got excited'
p2348
aS'nero from devil may cry'
p2349
aS'the one in front of the gun lives forever'
p2350
aS'kendrick kinda night'
p2351
aS'we go through too much bullshit to fuck with these drunken hot girls'
p2352
aS'we like to lay in bed till 430 '
p2353
aS'sleeping all day'
p2354
aS'well goodnight good night i do think im clever'
p2355
aS'hahaha expand your music horizon'
p2356
aS'funny how a melody sounds like a memory'
p2357
aS'for sure man'
p2358
aS'every situation varies from person to person youll never know unless you do'
p2359
aS'this very true haha im glad you did '
p2360
aS'lmao youre crazy haha a good crazy i think \xee\x84\x93'
p2361
aS'lmao im dead that is too funny '
p2362
aS'smh things you should know how did you think it was pronounced'
p2363
aS'live away my dude'
p2364
aS'i wanna get tattooed'
p2365
aS'aye this man grabbed a news paper and started reading it on the bus like a old ass man lmao'
p2366
aS'i gotta poop im out lmao'
p2367
aS'these bitches need to get on they shitu better look into that govt assistance'
p2368
aS'gave her the dsl sound lmao i havent heard that in a minute'
p2369
aS'lmao its hard on these streets'
p2370
aS'homeless and picky smh'
p2371
aS'thats sad'
p2372
aS'dese hoes are trippin you better get on this welfare mf '
p2373
aS'damn you petty smh how this bitch lose the check '
p2374
aS'naaaa fuck that she was rubbin that shit all wrong'
p2375
aS'who touches there dace like that in the shower lol'
p2376
aS'thought this was funny'
p2377
aS'this mf got me dying laughing in class lil funny mf lmao'
p2378
aS'so when is this beard coming in lol'
p2379
aS'some cudi for my walk'
p2380
aS'cinemagram so glitchy because they had 5 white people on it being artistic before you coons filled it up with porn tape '
p2381
aS'when people speak like they know everything yet know nothingltltltltlt'
p2382
aS'ammmmmeeennnnn '
p2383
aS'playin with your chin hair in class so people think you are pondering on some deep shitgtgtgtgtgt'
p2384
aS'you cant fight the feeling'
p2385
aS'zombies on campus lmao already excites for this apocalypse'
p2386
aS'i willlllllllllll'
p2387
aS'talk to me girl '
p2388
aS'need to talk to my mom asap'
p2389
aS'chiproblems i hate when people walk behind me when im sitting'
p2390
aS'compliments on your beaniegtgtgtgt'
p2391
aS'she just asked for sum of my fruit snacks \xf0\x9f\x98\x92bitch you wasnt wit me at the vendin machine rick ross voice \xf0\x9f\x98\x92\xf0\x9f\x98\x92\xf0\x9f\x98\x92'
p2392
aS'girls my age are children lol ohwell'
p2393
aS'thats not soda baby thats hen'
p2394
aS'this yellow album is so chill yo'
p2395
aS'lol for sure'
p2396
aS'the only album im looking forward to is this kendrick album'
p2397
aS'im so blessed'
p2398
aS'love is so weird'
p2399
aS'makin this young journey to kelseys its bout to be a good night with selassie amp \xf0\x9f\x98\x8a\xf0\x9f\x8d\xbb\xf0\x9f\x8d\x81\xe2\x98\x81 thenights '
p2400
aS'dese hoes wanna hold my fat'
p2401
aS'i feel bad when i have to throw away food haram'
p2402
aS'i hope whenever im in my city i forever resemble braille wale too dope'
p2403
aS'teachers still make you do that lol'
p2404
aS'ill wake up to kendrick any day'
p2405
aS'as a solid rock isnt shaken by the wind the wise are not moved by praise or blame  buddha'
p2406
aS'teachers y u no cancel class ever'
p2407
aS'im the illest'
p2408
aS'so lonely inside so busy out there amp all you wanted was somebody who cares'
p2409
aS'oh now i did you better hop off that wall and go party lol'
p2410
aS'or you could tell me \xee\x90\x84'
p2411
aS'or you could tell me lol'
p2412
aS'wtf is a wallflower '
p2413
aS'lol this is true'
p2414
aS'if you must know i had to put on weight because im starring as rosie odonnell in an up and coming biopic'
p2415
aS'naaaaaa it was huff'
p2416
aS'im gonna take this as mac millet playin around cause that shit was hufffff im gonna give this one more try maybe im just trippin'
p2417
aS'mac miller is gettin chubby he been eatin good for too long that new song is okay ooohhhhhhkkkkkaaaaayyyy'
p2418
aS'women at my age is a distraction i need to focus on school and nothing but if the right one comes around ill make an acceptation hahaha'
p2419
aS'welcome dont be an abeeat tho'
p2420
aS'someone needs to find mena his female cudder thatsallhetalksabout'
p2421
aS'get used to it kid hahaha'
p2422
aS'if you watch the replay of your goal after you score in fifa fuck you'
p2423
aS'im from where your hustle determines your salary'
p2424
aS'she love it every beat of the drum she sprung'
p2425
aS'did this bitch just repeat everything our teacher said for the past 30 minutes '
p2426
aS'my roommate and i were talking about how the mixtape was gonna feel with no lex luger beats'
p2427
aS'deal'
p2428
aS'so trying to grow a beard is proven to be more difficult than expected '
p2429
aS'i didnt know you were trying to hug me i preparing my samwhich '
p2430
aS'lmao i feel ya'
p2431
aS'when drake rips off kendricks spiteful chant videoltltltltltltlt'
p2432
aS'damn these hoes that always request one direction are here damn damn damn damn '
p2433
aS'i thought the arrow that way was bad'
p2434
aS'my shuffle is on point'
p2435
aS'cabin fever 2 sess tonight'
p2436
aS'shootin up your phantom they call that the holy ghost'
p2437
aS'you got more than me shit roll some'
p2438
aS'i pray my dick get the size of the eiffel tower so i can fuck the world for 72 hours kendrick'
p2439
aS'who wanna upside down spiderman kiss guuuurrlll stop playin'
p2440
aS'hope is a dangerous thing'
p2441
aS'this indie game documentary is cool as hell'
p2442
aS'what a strange illusion it is to suppose that beauty is goodness'
p2443
aS'last but not least egypt'
p2444
aS'asterdamn for sure \xee\x90\x97\xee\x8c\xb0'
p2445
aS'englad'
p2446
aS'russia'
p2447
aS'brazil'
p2448
aS'peru'
p2449
aS'mexico'
p2450
aS'bahamas'
p2451
aS'hawaii'
p2452
aS'india'
p2453
aS'greece'
p2454
aS'spain'
p2455
aS'italy'
p2456
aS'iceland'
p2457
aS'i wanna go to france'
p2458
aS'mac millers new song is strange haha'
p2459
aS'hip hop is key'
p2460
aS'glad that happened'
p2461
aS'my bed is so prime right now'
p2462
aS'this drawing critique will be easy peasy '
p2463
aS'close my eyes and fall into you'
p2464
aS'lately ive been getting more ass than mouth'
p2465
aS'so im pretty awake haha'
p2466
aS'this is bullshit im up lol'
p2467
aS'the walking dead is getting critical '
p2468
aS'dude are you about that walking dead life'
p2469
asS'2011_51'
p2470
(lp2471
S'basketballneverstops basketball did stop '
p2472
aS'follow me on tumblr'
p2473
aS'should i start using this'
p2474
aS'i helped you find the game for your vtech but we failed youre extremely nice come back again'
p2475
asS'2012_52'
p2476
(lp2477
S'i cant wait to get my kindle'
p2478
aS'an video games but lotr is the bestest '
p2479
aS'i love the lord of the rings'
p2480
aS'the lotr game fir ps3 yup'
p2481
aS'you know your egyptian when half your sentence is in english and the other half is in arabic'
p2482
aS'da bears'
p2483
aS'bear down'
p2484
aS'mooorrreeee star wars'
p2485
aS'lets drink lets smoke lets get weird workaholics'
p2486
aS'fady is ruining my star wars experience right now'
p2487
aS'witnessing anakins shift to the dark side '
p2488
aS'my brother and i are watching star wars while playing angry birds star wars edition haha'
p2489
aS'star wars is so fuckin awesome '
p2490
aS'cuba imports cigars from me'
p2491
aS'star wars episode 6 is on '
p2492
aS'all change is not growth as is all movement is not forward'
p2493
aS'bands really do make her dance huh'
p2494
aS'im egyptian'
p2495
aS'this headache '
p2496
aS'we punchin in the clock till we make it to the top thediv'
p2497
aS'my hoes they fly on rugs'
p2498
aS'yezzir'
p2499
aS'play with me hoe ex1twoundzz'
p2500
aS'meeeaaaannn muuuuggggg'
p2501
aS'we are all puppets but im a puppet that can see the strings'
p2502
aS'i didnt finish the watchmen so ill do so now'
p2503
aS'none of you seem to understand im not locked in here with you youre locked in here with me'
p2504
aS'so i snuck in the room like an elephant you cant hide the truth and thats evident'
p2505
aS'watching the watchmen watch over us'
p2506
aS'photo bombed molly'
p2507
aS'every morning i ask myself is life worth living or should i blast myself'
p2508
aS'i can no longer faye women that dont love lotr we wont work lotrfan'
p2509
aS'a simple mention of the lotr can quickly erase the worst of my moods easiest way to my heart other than the path th '
p2510
aS'i dont think i could be in a relationship with someone who didnt like lotr'
p2511
aS'you can never kill an idea'
p2512
aS'i dont know why people base there days on horoscopes im the only person that decides how my day will go not no one else or something else'
p2513
aS'there is some new blood needed in the nerd clusterfuck community'
p2514
aS'damn niggas wanna stick me for my paper'
p2515
aS'bumpin rejex tonight'
p2516
aS'rip steez smoke one for da pro era'
p2517
aS'damn bro i cant help but think what if i were there for u more  shit got me fucked up but u know im s '
p2518
aS'you no turnt with me'
p2519
aS'too late'
p2520
ag15
aS'the line is attached to your rod mothalicka'
p2521
aS'no you dont ill take all 35 make it 36'
p2522
aS'add shut up too it'
p2523
aS'no i have thats the problem '
p2524
aS'i hope everyone enjoys their christmas and their presents but remember this is the time to let your loved ones you know you love them '
p2525
aS'saw it twice their '
p2526
aS'tofurkey is groooossssssssssssss'
p2527
aS'testing the new shneez '
p2528
aS'swamp people has nothing to do with history '
p2529
aS'having a brew with my mom'
p2530
aS'just got home i still got another christmas on january 7th egyptianshit'
p2531
aS'i like everything except for tardiness and ignorance'
p2532
aS'a merry merry christmas from smalls and i'
p2533
aS'when people try to sound intelligentltltltltltlt'
p2534
aS'two towers is on '
p2535
aS'someone changed my birthday on my fb now im getting notifications'
p2536
aS'home and lord if the rings is still on beautiful'
p2537
aS'if rap is liquor im fine wine nigga you all gin tde blackhippie'
p2538
aS'good kid maad city mountain tops couldnt see my views'
p2539
aS'no one ever texts me back lol fuckem'
p2540
aS'this kid \xee\x80\xa2\xee\x8c\xab\xee\x8c\xad\xee\x8c\xac'
p2541
aS'i intensely love my family'
p2542
asS'2012_50'
p2543
(lp2544
S'will do'
p2545
aS'so when the fuck did batman eject i want answers thetruth'
p2546
aS'i didnt get a call my shitty service does that'
p2547
aS'best movie experience '
p2548
aS'people are so tacky with their lame prayers on twitter dont say them to me say them to your god in privacy'
p2549
aS'an i shall love both of you'
p2550
aS'bulls'
p2551
aS'i cant wait for this puppy'
p2552
aS'we can both pull burners and make the beef cook'
p2553
aS'i just want to travel the world'
p2554
aS'following art majorsgtgtgtgtgtgtgtgtgt cause we all crazy'
p2555
aS'what\xe2\x80\x99s a rt worth to aflac it\xe2\x80\x99s worth 2 towards fighting childhood cancer hit the rt button amp help '
p2556
aS'seeing my moms facegtgtgtgtgt'
p2557
aS'pop a molly im sweatin wooooooooooo'
p2558
aS'i got your phone nigga'
p2559
aS'you love someone too much i guarantee it will kill you'
p2560
aS'end of the semester blunt for me myself and i'
p2561
aS'i want to travel the world not sit in a classroom learning about it'
p2562
aS'stupid people drive me craaazzzyyy '
p2563
aS'return of the king '
p2564
aS'lord of the rings time with amp'
p2565
aS'how could you be so heartless'
p2566
aS'gonna go finish this drawing then im done for the semester '
p2567
aS'i stay gettin pump faked doe'
p2568
aS'fellowship of the ring'
p2569
aS'lotr is funny as shit i love this movie'
p2570
aS'any girl that will watch all lotr with me is a keeper seeing how those dont exist ill keep to myself'
p2571
aS'haters gone hate'
p2572
aS'watching the whole lord of the rings trilogy tonight '
p2573
aS'that was the huffest ending to any call of duty ever'
p2574
aS'no lie if you put in the effort to text back to my gm texts or send me goodnight texts youre gunna continue to get them fr '
p2575
aS'that nap was real i feel dead yet reborn'
p2576
aS'linkin parkgtgtgtgt over any gay hipster band out now suckmyass'
p2577
aS'i needa move to colorado'
p2578
aS'its the return of an era hoe krit'
p2579
aS'this beat deserves some hennesy a bad bitch and a bag of weed the holy trinity yezzy'
p2580
aS'lmao she know you '
p2581
aS'contrast'
p2582
aS'about to make a come up'
p2583
aS'workaholics gtgtgt'
p2584
aS'females dont understand how annoying waiting on a text is either tell that nigga to kick rocks or say youll be right back'
p2585
aS'so like 4'
p2586
aS'would someone please make loosebuttholemonday illegal workaholics'
p2587
aS'writing speeches loosebutthole'
p2588
aS'life it be like that beat me up but i fight it right back cudi'
p2589
aS'i lace my shoes tight im ready for the paper chase action'
p2590
aS'real niggas bump lana del rey at night'
p2591
aS'from the bottom of my heart fuck you plaster fffuuuuuccckkkk you'
p2592
asS'2012_51'
p2593
(lp2594
S'its a pillow fight \xee\x8c\xa7\xee\x80\xa2\xee\x8c\xab\xee\x8c\xa8'
p2595
aS'im focused like four bifocals'
p2596
aS'everyone is so offended so easily loosebutthole'
p2597
aS'fubar fucked up beyond any recognition'
p2598
aS'tits'
p2599
aS'yessssss'
p2600
aS'with the kangaroo '
p2601
aS'fullmetal alchemist enoughsalad'
p2602
aS'you have no idea how jelly i am of your sisters twitter pic'
p2603
aS'damn the thirst is real on twitter haha'
p2604
aS'calculate my steps carefully manipulate you'
p2605
aS'nothing says holiday like getting weird with friends workaholics happyholidays'
p2606
aS'i feel welcomed shank you'
p2607
aS'idk if this is good or bad but strictly followed cause the love of lord of the rings hahah '
p2608
aS'all i need is me and my future puppy'
p2609
aS'some babies freak me out man'
p2610
aS'im gonna sit in my room all day and listen to music literally'
p2611
aS'if you know my momma than you know me and if you dont then im sorry'
p2612
aS'i hate cats fuckyopussy'
p2613
aS'i dont fuckin know you nigga'
p2614
aS'i was gonna go to sleep but i have to listen to the mixtape first '
p2615
aS'i dont give a fuck nigga bang that glock'
p2616
aS'3 words amp 8 letters \xe2\x9d\xa4 go to hell'
p2617
aS'i just saw john carter and its safe to say im in love with she is amazing aggggghhhhhh '
p2618
aS'everything they said i shouldnt is exactly what i would'
p2619
aS'dooooo itttttt'
p2620
aS'break that shit'
p2621
aS'muss you too yelly'
p2622
aS'i miss my sexy egyptian so much '
p2623
aS'i wouldnt say that haha'
p2624
aS'nate robinson wore them against the knicks last night'
p2625
aS'flow like the nile river i bet that went over everyones head '
p2626
aS'soulo ho3'
p2627
aS'ssssuuusshhhhhiii'
p2628
aS'you dont need nothin'
p2629
aS'he called gibson chandlerif no on caught that'
p2630
aS'tyson chandler what kind of shampoo does jokiam use '
p2631
aS'fuck you knicks '
p2632
aS'dey screaming these refs suck lmao'
p2633
aS'cya later coach wood '
p2634
aS'cya later mr mello'
p2635
aS'if you arent watching this bulls knicks game youre trippin its real'
p2636
aS'calm your tits carmello'
p2637
aS'y da bulls goin ham'
p2638
aS'how bout dem bulls'
p2639
aS'cant go wrong with some channel orange'
p2640
aS'well that hurt'
p2641
aS'you can have all my shine ill give you all of the light'
p2642
aS'i listened to this today'
p2643
aS'we all heard of amber cole but we dont know that lil nigga that was gettin dome soulo'
p2644
aS'my shit good lol'
p2645
aS'dont drop bars i drop prisons seen the spectrum through the prisms'
p2646
aS'im lookin at her butt thats that 2020 hind sight'
p2647
aS'llmmmfffaaaooo'
p2648
aS'the only thing you ever squeeze is your juice box nigga'
p2649
aS'its been a minute since they saw a style with no gimmics'
p2650
aS'a lil food for the soul'
p2651
aS'havent posted pics of my face in a while haha'
p2652
aS'if you have a concussion you dead haha no one wants that'
p2653
aS'dont fall asleep'
p2654
aS'they ask me for a hook up i tell them left and right with a cut'
p2655
aS'you know i got that insight lolllll'
p2656
aS'talk to me nigga'
p2657
aS'if u wanna go and take a ride wit me something akdhfubeneke ay must be the money \xf0\x9f\x99\x8c'
p2658
aS'you hit this shit a few times you may see the future'
p2659
aS'i just realized i signed up for no studio classes and that means no art building my heart just broke i like that place'
p2660
aS' feeling suck i wish i was a lamp'
p2661
aS'we hurt people that love us and love people that hurt us \xee\x90\x93'
p2662
aS'seems right \xee\x80\x8e\xee\x90\xa0'
p2663
aS'half the time i argue with people i know im right i just tell them they are right so they stfu sorry im not sorry'
p2664
aS'bumpin this leaked asap album'
p2665
aS'i forgot i had a stache a few months ago lmao come back season '
p2666
aS'i take tons of medicine '
p2667
aS'when the beef cook i eat yall like mmm mmm'
p2668
aS'gonna sign to the rock but my niggas still assigned to the rocks'
p2669
aS'i know man'
p2670
aS'damnnnnnnnnnn looks like my dick aint gettin wet'
p2671
aS'i just dropped my computer twice back to back '
p2672
aS'lol well that is whats up '
p2673
aS'lol using family to the fullest haha'
p2674
aS'you genius'
p2675
aS'goooooooooodddddd'
p2676
aS'no'
p2677
aS'i mostly tweet song lyrics'
p2678
aS'my own '
p2679
aS'no way dude i was actually checking it out in the shower tgis morning'
p2680
aS'while these niggas still hatin askin for features thats like the complacent atheist asking for jesus dont sleep on wale'
p2681
aS'i really hope this cole album drops in january haha'
p2682
aS'everyones verse isnt as long as id like except actions'
p2683
aS'that 1train track is too tight too many raw niggas on it'
p2684
aS'you have hell of a gift'
p2685
aS'enjoy'
p2686
aS'lol lt3 you you read my mind'
p2687
aS'there ya go lol'
p2688
aS'go to datpiff they got both mixtapes blue chips and the alchemist i think blue chips is better'
p2689
aS'lmao mine come from my imaginary friend tito'
p2690
aS'cold as hell'
p2691
aS'i got good hair lol'
p2692
aS'my tummy does not agree with me on this morning'
p2693
aS'lol you caught me'
p2694
aS'dudes that cry over good morning textltltltltltltlt stfu and grow a pair'
p2695
aS'hey you live by me small world an hell yeah its good as hell'
p2696
aS'you seem to not love it lol'
p2697
aS'every saint has a past amp every sinner a future'
p2698
aS'hokay'
p2699
ag15
aS'i got pizza and me and are gonna make some moves'
p2700
aS'come over lol'
p2701
aS'now ne and fady are chillin in the basement'
p2702
aS'yeah today cause its like 6'
p2703
aS'we just chillin i think is trying to see the hobbit'
p2704
aS'especially girlsltltltlt'
p2705
aS'people that need expensive things to validate their existence and give it meaningltltltltltltltltltltltltltlt'
p2706
aS'its too damn early to be thinking this much'
p2707
aS'mj'
p2708
asS'2011_37'
p2709
(lp2710
S'gwwaaa'
p2711
aS'fuck twitter get at me on tumblr '
p2712
asS'2011_32'
p2713
(lp2714
S'havent been on here in a while lol whats up'
p2715
asS'2011_39'
p2716
(lp2717
S'coleworldinstores please cop that shit '
p2718
asS'2013_42'
p2719
(lp2720
S'reality is what you perceive it as and you alone'
p2721
aS'everyone sleeps on'
p2722
aS'you wanna see a dead body'
p2723
aS'knowledge has the ability to cut deeper than the sharpest of swords'
p2724
aS'fun stuff look at the name on the bottle 00'
p2725
aS'ive been waiting too long adancewithdragons got'
p2726
aS'ive been dealt this hand because he knows i can play it well'
p2727
aS'they are up cataclysmic cube'
p2728
aS'panels are looking good'
p2729
asS'2013_43'
p2730
(lp2731
S'happy halloween'
p2732
aS'all teachers seem to forget that their class is not a students only class'
p2733
aS'hungry and broke yay college'
p2734
aS'silence stimulates the creative mind'
p2735
aS'2am study face'
p2736
asS'2013_40'
p2737
(lp2738
S'the album is done'
p2739
aS'with the ink i can murda word to my nigga erv this line is cold'
p2740
aS'we were posing'
p2741
aS'this nigga took all night to write a 23 page paper what'
p2742
aS'pair the black hole blacker'
p2743
aS'youre a disappointment'
p2744
aS'only the stupid respond the way you did'
p2745
aS'people who care about celebrity babies are creepy what will her baby look like a baby youve seen a baby right i\xe2\x80\xa6'
p2746
aS'life is the biggest word ive ever said'
p2747
aS'self proclaimed intelligence is not intelligence at all'
p2748
aS'the best part of waking up is bull testicles in your cup'
p2749
aS'best post ive seen on tumblr'
p2750
asS'2013_41'
p2751
(lp2752
S'full track of yaphet kotto freestyle'
p2753
asS'2013_46'
p2754
(lp2755
S'pharaoh selfie'
p2756
aS'too gangstar'
p2757
aS'twitter is a place specifically designed for keyboard warriors go read a book instead of your exs tweets'
p2758
aS'straight faced mornings '
p2759
asS'2013_47'
p2760
(lp2761
S'cool cool'
p2762
asS'2013_44'
p2763
(lp2764
S'i honestly dont even know why i have this'
p2765
aS'welding attire for the next few weeks'
p2766
aS'early morning flows'
p2767
aS'so im up whats up'
p2768
asS'2013_45'
p2769
(lp2770
S'selfie art me sculpture'
p2771
asS'2011_22'
p2772
(lp2773
S'im watchin a old gold cup match vs honduras ur so talented and so is ur hair haha but ur one of my fav in the world '
p2774
asS'2011_23'
p2775
(lp2776
S'we came we saw we conquered weareindivisible'
p2777
aS'we fight as one we loose as one we win as one we will always and forever operate as one weareindivisible'
p2778
asS'2011_20'
p2779
(lp2780
S'i have a poster of u holding the usa flag with ur arm up idk its inspiring i hope to be in ur place one day ur one of my fav'
p2781
aS'i love fifa its almost like playing in a real game im addicted '
p2782
asS'2011_21'
p2783
(lp2784
S'shit chillin with the ppls listening to music winning '
p2785
asS'2011_26'
p2786
(lp2787
S'look at my last tweet please forgot to tag u in it '
p2788
ag15
asS'2011_27'
p2789
(lp2790
S'\xd8\xa5\xd8\xb3\xd8\xaa\xd9\x85\xd8\xb9 \xd9\x87\xd9\x80\xd9\x80\xd9\x89'
p2791
asS'2011_25'
p2792
(lp2793
S'1 thing that i love about the usa team even when there is no hope of winnin they are still tryin their hardest goin for goal'
p2794
asS'2011_46'
p2795
(lp2796
S'is that website legit ive been searching for a place to buy stuff and i just cant find any '
p2797
aS'where the hell do i get a snap and a hoodie from '
p2798
aS'my favorite sites could get shut down by 1st censorship system for the internet must stop it 1116 usacensored'
p2799
asS'2011_49'
p2800
(lp2801
S'twitter is stupid tumblr'
p2802
asS'2013_37'
p2803
(lp2804
S'doug benson standup lastnight was classic'
p2805
aS'almost done'
p2806
aS'if you have your health you dont need anything else in this world i struggle with mine and in all honesty i envy you all that are healthy'
p2807
aS'being hospitalized sucks thang god everyday for your health its the most important thing'
p2808
aS'wrong team'
p2809
aS'donald glover never retweeted me  i would have fan girled so hard'
p2810
aS'so aghhh roscoes wetsuit '
p2811
asS'2013_36'
p2812
(lp2813
S'buckets'
p2814
aS'i bought a ninja hoodie you can say my life is complete'
p2815
aS'remember this i love you  no bomb or no war  no hate or fight or violent act cannot change that i love you im glad \xe2\x80\xa6'
p2816
aS'on cloudy days when im salty i pay the hate to the logic'
p2817
asS'2013_35'
p2818
(lp2819
S'you can say im on the map lol'
p2820
aS'only here will the youth care about the shape of mileys butt instead of chemical warfare in syria and our country on the verge of attack'
p2821
aS'so i made a come up today'
p2822
aS'eating nothing but hard punches to my abdominal'
p2823
aS'laaaatttiiiikkkaaaaaa '
p2824
asS'2013_34'
p2825
(lp2826
S'man i was drunk last night'
p2827
aS'i am ready to sex'
p2828
aS'drake album need to leak already i got tears to shed'
p2829
aS'reality is as you perceive it'
p2830
aS'my goal with every interaction i have is to be as friendly as possible if it isnt yours then you should stop being a cunt'
p2831
aS'back a week and i already feel like calling it quits'
p2832
aS'emojiless lol see what i did there'
p2833
aS'few niggas im on a first name bases with the rest address me as my alias'
p2834
aS'doris is insane'
p2835
aS'hoodnight'
p2836
aS'yeah ikr what was i thinking '
p2837
aS'that whack ass album coverltltltlt'
p2838
aS'im jelly'
p2839
aS'this nigga stewart listens to more ciara and beyonce than any female i know'
p2840
aS'the pic my brother sent me hahaha'
p2841
aS'no matter how many mistakes you make or how slow you progress you are still way ahead of everyone who isn\xe2\x80\x99t trying stay bless\xe2\x80\xa6'
p2842
aS'demons run when a good man goes to war'
p2843
aS'im almost done with a feast for crows i cant get over these books'
p2844
aS'that pink floyd album this morning was everything'
p2845
aS'whoops lol the other tweet makes sense now'
p2846
aS'love your parents we are so busy growing up we often forget they are also growing old'
p2847
asS'2013_33'
p2848
(lp2849
S'im stronger than this'
p2850
aS'i choose positivity i choose happiness i choose love and to love'
p2851
aS'this week will make a big decision in my life hopefully god guides me in the right direction'
p2852
aS'positive thoughtsgtgtgt'
p2853
aS'mac miller album was slept on'
p2854
aS'i dont know why the fuck im so on edge'
p2855
aS'right now leaving sounds like the last thing i want to do but i know once i get out there ill feel a lot better'
p2856
aS'on this league pro circuit they got some sexy women'
p2857
aS'freckles are adorable'
p2858
aS'like i really dont want to go back to school idk why i just dont i feel like my summer was expedited or something'
p2859
aS'boobie in friday night lights was the man yo everything he said was on point'
p2860
aS'ambition without knowledge is like a boat on dry land'
p2861
aS'something about lotr music is so uplifting im going to download the soundtrack'
p2862
aS'they traded in those white sheets for police uniforms'
p2863
aS'so doris leaked'
p2864
aS'got next year right'
p2865
aS'im slightly upset i missed comiccon this year '
p2866
aS'i agree very few do'
p2867
aS'yeah a log of women want men to be traditional but dont wanna play their traditional roles as well'
p2868
aS'that took an unexpected turn lol'
p2869
aS'how the fuck do you exit a twit pic on your computer i always close out the browser'
p2870
aS'return of the king is on'
p2871
aS'a babys being born same time a man is murdered the beginning and end'
p2872
aS'youre not in high school'
p2873
aS'warriorrrrrrrs come out to playyyyyaaay'
p2874
aS'love is what i got remember that'
p2875
aS'i dont understand people that like one genre of music'
p2876
aS'space may be the final frontier but its built in a hollywood basement'
p2877
aS'you worry about the wrong things'
p2878
aS'girls'
p2879
aS'drugs'
p2880
aS'money'
p2881
aS'whats your addiction'
p2882
aS'my new m3 i wish'
p2883
aS'good uplifting music'
p2884
aS'pray for my country'
p2885
aS'egypt declares state of emergency as scores are killed in crackdown'
p2886
aS'you are the dullest tool in the shed'
p2887
aS'my mom is straight from the motherland so its even funnier lol'
p2888
aS'my mom likes step brothers that is how you know its real'
p2889
aS'lmfao '
p2890
aS'my lil tiger'
p2891
aS'kendrick is the conscious wale is the mind drake is the heart ye is the attitude hov is the persona cole is the soul \xe2\x80\xa6'
p2892
aS'we can add today to the whack ass summer days list'
p2893
aS'i had a 150 biff today thank god for good people'
p2894
aS'naaaa you are'
p2895
aS'you still exactly the same lol'
p2896
aS'whoops with a rebuttal'
p2897
aS'im just saying'
p2898
aS'aye oprah is kinda a bitch for what she did to lindsay'
p2899
aS'beard is pretty badass'
p2900
aS'im bored as shit'
p2901
aS'no one admits to being a hater but we all hate on something at some point'
p2902
aS'dude that verse is insane'
p2903
aS'as i grow older i pay less attention to what people say i just watch what they do andrew carnegie'
p2904
aS'im mad you mugs made it seem like he dissed everyone that was no diss what you all disappoint me'
p2905
aS'for people that were unaware such as me'
p2906
aS'thats what im inferring but i cant conclude it'
p2907
aS'what did kendrick do'
p2908
aS'you can get on twitter via a computer wahhhhhhhhh '
p2909
aS'no'
p2910
aS'who ever invented these mf deserves an award'
p2911
aS'yo these boxers got a dick socket'
p2912
aS'tag himmmmmmmmmmmmmmmmmmmmmmmm'
p2913
aS'everyone believes that they are lions little do they know'
p2914
aS'a star wars themed episode of futurama '
p2915
aS'yeah im mad'
p2916
aS'i honestly dont think ill be in another relationship until i meet a woman you lil ass girls are too indecisive'
p2917
aS'females always wanna play some fucking games with me im not the type to do that im straight forward i expect that to reciprocated'
p2918
aS'i dont want to be rich i want stability'
p2919
aS'watch enders game or read enders game'
p2920
aS'sometimes i see my sign light up and i get excited then shortly thereafter im deceived by spam then i get sad'
p2921
aS'im going to do it on the quad this semester 90 sure'
p2922
aS'i saw a thing on tumblr where it was a man holding a sigh and it read tell me your story ill give you a dollar'
p2923
aS'gold bangles are our signature can hear them down the hall when mama is coming at you with a shib shib egyptianprobl\xe2\x80\xa6'
p2924
aS'goodbye'
p2925
aS'im seated by the biggest mf on the plane'
p2926
asS'2012_39'
p2927
(lp2928
S'kotd get at me igsneakercummunity'
p2929
aS'glad you thought so '
p2930
aS'dont see looper'
p2931
aS'listening to some before bowling'
p2932
aS'sushi time nigga'
p2933
aS'this beautiful audi \xee\x8c\xaa\xee\x8c\xa7\xee\x8c\xad\xee\x80\xa2\xee\x8c\xa8\xee\x8c\xab'
p2934
aS'next to that is his creepy rape van \xee\x84\x87\xee\x84\x87\xee\x84\x87'
p2935
aS'my neighbors monster truck he never drives'
p2936
aS'i wish plane tickets costs like 20 id go everywhereee'
p2937
aS'off to see looper'
p2938
aS'miss my queen size bed'
p2939
aS'i think i got fuckin poison ivy'
p2940
aS'avocado mask nigga realshit'
p2941
aS'damn damn damn damn'
p2942
aS'never go wrong with kendrick'
p2943
aS'tired of dust being all over my bookbag from the damn art building clean that shit '
p2944
aS'i over think too much'
p2945
aS'lmmmmaaaaooo'
p2946
aS'so many \xe2\x9b\x84\xf0\x9f\x90\xb0s and im just here enjoying them'
p2947
aS'i need a woman that is thirsty for knowledge not drama'
p2948
aS'just take it a day at a time'
p2949
aS'i could honestly go for 12 more seasons of the chapelle show the ones on netflix arent enough '
p2950
aS'shout out to for being a clutch ass roommatefriend today'
p2951
aS'im fighting off a huge kidney stone right now'
p2952
asS'2013_31'
p2953
(lp2954
S'my semi intellectual tweet for the day was ruined see you on the flip side'
p2955
aS'remember when i put hear instead of here lmao'
p2956
aS'you cant make fun of the title then claim you dumbass'
p2957
aS'it doesnt get better than what im doing now'
p2958
aS'i like to refer to myself as the stupidity spotter lt caps thats a title'
p2959
aS'this boy is tweeting like its 2 in the afternoon wrong go to bed your raps are terrible'
p2960
aS'10 at night on the roof of a boat cruising on the gulf'
p2961
aS'goliath grouper reeled in by yours truly'
p2962
aS'cancer are irritated by being misunderstood theyre sensitive and like to be wanted whats not to understand'
p2963
aS'i only speak when i need to dont think cause one is quite they dont understand'
p2964
aS'to work this hard for a passion is worth more than a salary'
p2965
aS'that means sucked balls in arabic i helped you learn today during a season of no learning '
p2966
aS'last night was badon'
p2967
aS'every joker thinks they are queens while every queen thinks she is a joker'
p2968
aS'day n night'
p2969
aS'the girl he seems to want dont want him too'
p2970
aS'i love you anime websites and your in depth info on the update lmao'
p2971
aS'fruit snacks amp cups of patron'
p2972
aS'snacks galore'
p2973
aS'hes so damn crazy lol'
p2974
asS'2013_30'
p2975
(lp2976
S'egyptian beach party'
p2977
aS'im speechless actually'
p2978
aS'last night was so insane'
p2979
aS'that is a fact'
p2980
aS'i wake up every morning and read a chapter looking out at this bliss'
p2981
aS'the cool thing to do now is to come up with the wildest conspiracy theories and represent them as 100 factual'
p2982
aS'you want it to cease when you see someone notice their face keep color completely absent from your mind'
p2983
aS'there is always white this and black that you complain of racism yet you make it about race constantly concerning everything'
p2984
asS'2012_37'
p2985
(lp2986
S'to appreciate the sun you have to know what rain is'
p2987
aS'good afternoon twitter'
p2988
aS'should i use twitter'
p2989
asS'2013_39'
p2990
(lp2991
S'people find it mind blowing i dont drink'
p2992
aS'my name is jmmy i have shart breath'
p2993
aS'my name is jimmy it rhymes with gimme'
p2994
aS'my name is jimmy i pee pee out my poop chute'
p2995
aS'life is beautiful'
p2996
aS'i got this sunday baby i want to spend it with you'
p2997
aS'i agree bewitch that shit up'
p2998
aS'im in the art building come hang out'
p2999
aS'we are getting there'
p3000
asS'2013_38'
p3001
(lp3002
S'when a real nigga hold you down you supposed to drown'
p3003
aS'i create reality'
p3004
aS'i wouldnt want to be in any other major i realized today'
p3005
aS'other side of said mold'
p3006
aS'my babies '
p3007
aS'welcome to sculpture'
p3008
aS'focus level nerd'
p3009
aS'if you aint talkin money i dont wanna talk'
p3010
as.