(dp0
S'2013_42'
p1
(lp2
S'oh sheilahowbout that one anthony mccarraherlol karen lynn'
p3
aS'fase eyelash kinda night karen lynn'
p4
aS'i hate forgetting things '
p5
aS''
p6
ag6
aS'read the last bunch and to all my other fellow geminis and leos etc loltina fort christen schultz tiffanyann'
p7
ag6
aS'stacy spector bank'
p8
aS'the wedding in cape may this past weekend was a huge success may alissa and lorenzo have many happy memories'
p9
ag6
ag6
ag6
asS'2013_43'
p10
(lp11
g6
aS'it was great to have participated in the lupus loop today as there were thousands who walked to support someone'
p12
aS'diane shukes tina fort'
p13
aS'prep for the loop'
p14
aS'home sweet home after aperfect ending to a perfect day or month so glad that i am auntie d and was asked to be'
p15
ag6
aS'karen lynn'
p16
ag6
aS'look how handsome '
p17
aS'throwing it back ladies'
p18
aS'i posted a new photo to facebook'
p19
aS'i posted a new photo to facebook'
p20
aS'i posted a new photo to facebook'
p21
aS'i posted a new photo to facebook'
p22
aS'i posted a new photo to facebook'
p23
aS'i posted a new photo to facebook'
p24
aS'dennis fillion'
p25
aS'adotnicki'
p26
aS'tina fort sandi seladones'
p27
aS'my nephew'
p28
ag6
aS'hey las vegas friendsif you know of a vendor networking event please let me know as i will be out there in'
p29
aS'book an event today and receive 15 off expires 111513 event must be booked by november 15 2013 in order to receive the discount'
p30
ag6
aS'are you hosting a holiday party and dont want to do all the leg work contact gemelli events today for all your'
p31
ag6
aS'is it wrong to want to put up the xmas tree already'
p32
aS'i dont hate a lot of things but i hate the new yahoo email'
p33
aS'a huge success for the villarreal and colella wedding'
p34
aS'i posted 15 photos on facebook in the album villarrealcolella wedding'
p35
ag6
ag6
ag6
asS'2013_40'
p36
(lp37
S'errrrrrr thats all i have to say for those of u that know lol'
p38
ag6
ag6
aS'its been a crazy six years my love still waiting for my ring love you with all my heart and soul xoxoooooooo'
p39
aS'anyone know a good car rental place near me that is cheap '
p40
aS'finalizing plans for the villarreal and colella wedding next week as well as making some changes to the website'
p41
aS'realtor friends w experience o short sales and forclosures contact me asap'
p42
ag6
ag6
ag6
aS'i like how lately when i ask someone a question i dont get a response remember that next time u need something'
p43
ag6
ag6
aS'perfect'
p44
aS'please donate for a good cause '
p45
aS'auntie ds fave lil guy cutest thing ever '
p46
asS'2013_41'
p47
(lp48
S'anyone need a car '
p49
aS'cheryl frias'
p50
aS'the day is almost here rehearsal tonight'
p51
ag6
aS'karen lynn we were just talking bout this last nite'
p52
aS'david david shukes'
p53
ag6
ag6
ag6
ag6
aS'anyone a business insurance agent'
p54
aS'dennis dennis fillion'
p55
aS'elizabeth sawosko bring back grade school pumpkin contest'
p56
aS'tina fort'
p57
ag6
aS'need something to rent plenty of closets nice good area 2 bedroom around montco or bucks go'
p58
aS'say a prayer for my sister that she recovers in the hospital ill be taking care of my adorable nephew brody the'
p59
ag6
asS'2013_46'
p60
(lp61
S'describe ur dream wedding '
p62
aS'need ideas or help planning an event contact us today www'
p63
aS'sunday funday'
p64
ag6
aS'anthony shukes'
p65
ag6
aS'so glad its friday '
p66
aS'so we r thinking of having a holiday shopping event on december 11 from 6 to 830 pm 25 table let me know if'
p67
aS'sandi seladones'
p68
aS'nicole miller'
p69
aS'i got 6 1 i am constantly on the go and dont know how to stop dennis tells me to relax but i dont know how'
p70
aS'also anyone thats vends retail anything please inbox me may be a potential holiday shopping event in december'
p71
aS'anyone know someone that vends clothes or kids clothes etc '
p72
aS'dennis fillion'
p73
aS'eduardo ayala'
p74
aS'tina fort'
p75
aS'dennis fillion i wanna go back '
p76
aS'a little blurry but a small reunion of the wonderful wc girls'
p77
aS'already the middle finger'
p78
aS'advice for being a successful small business '
p79
aS'rightbrained leftbrained take the test'
p80
aS'happy veterans day to all of u who served our country especially my dad and other family and friends'
p81
asS'2013_47'
p82
(lp83
S'also anyone hiring '
p84
aS'anyone have an antenna and receive basic tv channels '
p85
aS'diane shukes'
p86
ag6
aS'look for gemelli events on in the near future full status on this their website will be posted by january 2014 '
p87
aS'119 likes as of today keep them coming view my website follow me on twitter spread the word if you know of'
p88
asS'2013_44'
p89
(lp90
S'omg did anyone see the doggie doo commercial i cant believe there is such a game'
p91
aS'semone marshall'
p92
aS'check out gemelli events new pics from the lupus loop'
p93
ag6
ag6
aS'check out the new lupus loop pics '
p94
aS'i posted 17 photos on facebook in the album lupus loop'
p95
aS'i dont want to sound too impressive but my sims character gets laid pretty frequently'
p96
aS'dennis fillion'
p97
aS'happy halloween cape may county'
p98
ag6
aS'happy halloween have a spooktacular day be careful tonight'
p99
aS'apple tv or roku advice any of them have 3610 channels'
p100
aS'sandi seladones'
p101
ag6
ag6
aS'tix to the tonite sweet'
p102
aS'brody baby shower movie via'
p103
aS'brody baby shower movie'
p104
asS'2013_45'
p105
(lp106
S'five reasons why i\xe2\x80\x99ll never get a flu shot'
p107
aS'if you need help with party planning ideas contact gemelli events'
p108
aS'is planning a wedding getting you frustrated contact today'
p109
ag6
aS'have a friend family member or coworker planning an event have them contact gemelli events today for all their party planning needs '
p110
aS'nicole miller'
p111
aS'do not go to kohls today its a mad house'
p112
ag6
ag6
aS'tina fort'
p113
aS'the internship food my nephew and sister'
p114
aS'its friday and cold bundle up '
p115
ag6
aS'getting closer to the holidays r u planning a party contact me '
p116
aS'follow me '
p117
ag6
aS'wearing sunglasses inside is a great way to let people know that you should be hated unconditionally'
p118
aS'tina fort'
p119
ag6
aS'now booking weddings for 2014 and 2015 visit'
p120
aS'if anyone can put the i in team its apple'
p121
aS'chelsea zarzycki dustin fort'
p122
aS'dennis fillion'
p123
asS'2013_16'
p124
(lp125
S'thank you to all who participated in the photo shoot today it was a huge success and was much appreciated w all'
p126
aS'looking forward to the photoshoot on sunday'
p127
asS'2009_27'
p128
(lp129
S'watching chelsea lately i love her'
p130
asS'2009_26'
p131
(lp132
S'watching chelsea lately duh'
p133
asS'2013_24'
p134
(lp135
S'gemelli photoshoot 20132 via'
p136
aS'venue shopping saturday for the lupus fundraiser details to follow please like this status if you are interested'
p137
asS'2013_25'
p138
(lp139
S'are you planning an event contact me today for a free consultation visit'
p140
asS'2013_26'
p141
(lp142
S'ok 7 more likes till 100 visit my website and like our facebook page happy sunday '
p143
aS'from tlcs top five reasons to hire a planner 5 youre just too busy do you have a job that requires a lot of'
p144
aS'planning an event i am offering a free consultation to help you with your special day visit'
p145
asS'2013_27'
p146
(lp147
S'3 you have a small budget trying to plan a wedding on a small budget although it seems like hiring a wedding'
p148
ag6
aS'maid of honor loses herself in emineminspired wedding toast video'
p149
aS'4 your wedding is out of town hiring a wedding planner is a great idea for brides who are having an out of town'
p150
asS'2013_21'
p151
(lp152
S'hey thanks for the love and support of our new company keep spreading the word and check our website for more'
p153
aS'i read everything in comic sans sans this way its funny'
p154
aS'alright pics are finally posted from the photo shoot please take a look some things will be adjusted but'
p155
ag6
ag6
aS'love is like playing the piano first you must learn to play by the rules then you must forget the rules and'
p156
aS'contact me today to plan your event does not have to be the whole event but all the running around to prepare'
p157
asS'2013_22'
p158
(lp159
S'dont have the time to research all the venues and information for your wedding or next event i have the'
p160
aS'come on can we get at least 100 likes this coming week spread the word '
p161
aS'check out gemelli events photoshoot on youtube'
p162
aS'just posted a video from the photoshoot check it out on youtube and type gemelii events photoshoot'
p163
asS'2013_23'
p164
(lp165
S'oki have about 600 friends on my listplease like my website and facebook page spread the word'
p166
aS'\xc3\xa2\xc2\x80\xc2\x9ci\xc3\xa2\xc2\x80\xc2\x99m so wasted \xc3\xa2\xc2\x80\xc2\x9d \xc3\xa2\xc2\x80\xc2\x93vegetables in my refrigerator'
p167
ag6
aS'do you have a childs birthday graduation party or other event you need help planning contact gemelli events'
p168
asS'2013_28'
p169
(lp170
S'2 youre just not that into it so your best friend spent days picking out the perfect shade of tiffany blue'
p171
asS'2013_29'
p172
(lp173
S'1 you get easily stressed does the thought of planning a wedding stress you out sure there are a lot of'
p174
aS'lupus loop fundraiser september 7 at 700pm paddy whacks pub  welsh road in philadelphia pennsylvania youre going'
p175
asS'2013_4'
p176
(lp177
S'saturday june 15th i am so there'
p178
aS'cant wait for my adventures to start thank u in advance for all ur support'
p179
asS'2013_7'
p180
(lp181
S'a few more adjustments were made on the website tonitemore coming in the next week also i will be attending'
p182
asS'2013_3'
p183
(lp184
S'i am trying to figure this tweeting thing out'
p185
asS'2013_9'
p186
(lp187
S'gemelli cake'
p188
aS'i posted a new photo to facebook'
p189
aS'i posted a new photo to facebook'
p190
aS'pumpkin table decor'
p191
aS'card box'
p192
aS'table arrangements'
p193
aS'please dont forget to stop at my table tomorrow at the girls nite out event details in previous post any questions contact me '
p194
aS'hey everyone i will be doing a girls nite out event at all saints episcopal school on frankford ave near holy'
p195
asS'2009_18'
p196
(lp197
S'went hikingloved it and goin again friday mornin'
p198
asS'2009_19'
p199
(lp200
S'paying rent'
p201
asS'2013_17'
p202
(lp203
S'a few teaser pics are up on the website will try to finalize tomorrow stay tuned'
p204
asS'2013_37'
p205
(lp206
g6
ag6
ag6
aS'dana dana hammond joe joe hammond'
p207
aS'jaime shukes portier will they have this at the big e this year so i cantry it '
p208
ag6
aS'beth stclair this is the person u need to find tonite its ashley lol'
p209
ag6
aS'dont miss out on this free groupon offer'
p210
aS'get your free bottle thanks to dr oz  '
p211
ag6
ag6
asS'2013_36'
p212
(lp213
g6
aS'well last night was a success as gemelli events held the first fundraiser for lupus we raised almost 1000 to'
p214
aS'actually disappointed in a lot of people tonite'
p215
aS'come on people where r u come to paddy whacks pub on welsh and blvd tosupport a great friend and lupus'
p216
aS'if ur bored come to paddy whacks at welsh and blvd for lupus loop fundraiser fun begins at 7pm'
p217
aS'lupus loop fundraiser tonite at paddy whacks pub welsh and blvd philly 7pm food music beer raffles'
p218
aS'paddy whacks pub welsh and blvd tonite 7pm lupus loop fundraiser food music beer and raffles'
p219
aS'welsh and blvd tonite at 7pm the lupus loop fundraiser raffles music beer and food '
p220
ag6
aS'today is the day everyone please come to this amazing fundraiser it will be a great time and for a good'
p221
aS'need a microphone for tomorrow anyone have one and speakers i guess'
p222
aS'tomorrow is the big day for the lupus loop fundraiser held at paddy whacks pub on welsh and blvd philadelphia'
p223
ag6
aS'sandi seladones'
p224
aS'please read '
p225
aS'ok everyone saturday is the big day come to paddy whacks pub on welsh and blvd philly 97 7pm support the'
p226
aS'9713 this saturday 7pm welsh and blvd philly lupus loop fundraiser'
p227
aS'hey everyone please rsvp to the lupus loop fundraiser that is being held on saturday at 7pm paddy whacks on welsh and blvd'
p228
aS'lupus loop fundraiser on saturday september 7th paddy whacks pub  welsh road starting at 7pm help us raise'
p229
aS'hey everyone just a few more days til the fundraiser hope to see some of u there please rsvp '
p230
aS'just three more days till the lupus loop fundraiser at paddy whacks pub on welsh and blvd 7pm contact me for'
p231
aS'get ur tickets today or at the door if u are coming to thefundraiser please let us know paddy whacks on welsh'
p232
aS'tina tina fort'
p233
aS'my dear resident dina also has lupus and donated a wonderful handmade baby blanket it will be placed in the'
p234
aS'come and get your tickets support a great cause and find a cure for lupus tickets are 30 w one raffle'
p235
aS'some people just need to grow up oh well one less thing i have to worry about get a straw and suck it up '
p236
aS'this saturday be there or be square '
p237
aS'ok just a few more donations were picked up now how about picking up your tickets for the fundraiser this saturday please hurry '
p238
asS'2013_35'
p239
(lp240
S'pleaseread '
p241
aS'hey everyone please read and help one of our own rsvp '
p242
aS'dennis fillion'
p243
aS'lupus loop fundraiser on saturday september 7th paddy whacks pub  welsh road starting at 7pm help us raise'
p244
aS'getting a lil frustrated '
p245
aS'lupus loop fundraiser 9713 paddy whacks pub welsh and blvd 7pm spread the'
p246
aS'i am hosting a lupus loop fundraiser 9713 paddy whacks pub on welsh and blvd 7pm let me know if interested'
p247
aS'lupus loop fundraiser 9713 paddy whacks pub welsh and blvd 7pm food drinks raffles music '
p248
aS'lupus loop fundraiser 9713 paddy whacks welsh and blvd 7pm'
p249
aS'hey guys and gals please read this as i am hosting a fundraiser for my friend sandi seladones she has lupus'
p250
aS'please buy your tickets today for the lupus loop fundraiser its for a close friend of mine sandi seladones the'
p251
aS'just one more week get your lupus loop fundraiser tickets today contact me via text 7024300118 or email'
p252
ag6
aS'please rsvp '
p253
aS'9713 paddy whacks pub welsh and blvd 7pm lupus loop fundraiser be there or be square'
p254
aS'hey everyone please dont feel bad if you cannot attend the lupus loop fundraiser i just need you to rsvp so i'
p255
ag6
aS'for all my vegas peeps '
p256
aS'hey everyone i know you are reading this so please respond if you are attending the lupus loop fundraiser event'
p257
aS'sultry songstress braxton winning battle with lupus'
p258
aS'we are listed on the community events page on wmmr website for the lupus loop fundraiser'
p259
aS'hey everyone i sent an invite to all of you a while ago could you please rsvp so i can obtain the proper head'
p260
ag6
aS'looking for some more donations for the fundraiser contact me for details'
p261
aS'9713 7pm lupus loop fundraiser hosted by gemelli events at paddy whacks pub on welsh road philadelphia'
p262
aS'can you give a shout out for an event i am hosting '
p263
aS'hey elvis i listen to your show every morning and you have made some of my mornings go from bad to better'
p264
aS'booga schmuga want my hair similar to this but all dark w a couple highlights'
p265
aS'performance of a lifetimejustin timberlake'
p266
aS'i didnt know anthony shukes was w nsync good show cuz lol'
p267
aS'september 7th at 7pm paddy whacks pub on welsh and blvd philadelphia'
p268
aS'dont forget to purchase your lupus loop fundraiser tickets i would like to get rid of all of them'
p269
ag6
asS'2013_34'
p270
(lp271
S'please read '
p272
aS'i can meet those who havent picked up their lupus loop fumdraiser tickets tomorrow contat me to let me know'
p273
aS'omg girls nite u should have been here thx girlsfor a great nite '
p274
aS'beef and beer tickets availale now '
p275
aS'get ur beef and beer lupus fundraiser tickets today selling quickly 30 pp contact me for details '
p276
aS'jennifer kondravy'
p277
aS'david shukes'
p278
aS'dana hammond tina forttina fort'
p279
aS'read ur events invite please rsvp time is running out '
p280
aS'sandi seladones'
p281
aS'need a band for september 7th to play  donate a set or two for the lupus loop fundraiser we have a dj already'
p282
asS'2013_33'
p283
(lp284
S'i posted a new photo to facebook'
p285
aS'check it out and buy your tickets contact me '
p286
aS'just sold two more tickets and received another donation from papered chef '
p287
aS'anybody need this'
p288
aS'please read and support a cause purchase ur tix today '
p289
aS'ok my goalis toget sell all these tickets for the lupus loop fundraiser held september 7 paddy whacks pub on'
p290
ag6
ag6
aS'christen christen schultz'
p291
aS'when is it my turn and when can i catch a break '
p292
ag6
aS'tom tom maduzia'
p293
aS'ok folks come to paddy whacks pub on welsh and blvd on september 7 2013 7 pm to support lupus and help raise'
p294
asS'2013_32'
p295
(lp296
S'stephanie stephanie glickman'
p297
aS'tina tina baybay fort interested '
p298
aS'100 likeskeep them coming '
p299
aS'tina tina fort'
p300
ag6
aS'still looking for donations for the raffle please contact me  '
p301
aS'how do i unlock another level in candy crush please help me '
p302
aS'lupus loop fundraiser'
p303
aS'september 7 2013 paddy whack\xe2\x80\x99s pub 924143 roosevelt blvd welsh road 711pm 30 each w one free raffle ticket contact me now'
p304
aS'im supporting lfa philadelphia tristate chapter via'
p305
aS'lupus loop fundraiser hosted by gemelli events whenseptember 7 2013 wherepaddy whack\xe2\x80\x99s pub 924143'
p306
aS'lupus loop fundraiser hosted by gemelli events whenseptember 7 2013 wherepaddy whack\xe2\x80\x99s pub 924143'
p307
asS'2013_31'
p308
(lp309
S'selling tickets for the lupus loop fundraiser let me know if you need any '
p310
aS'ok tickets are now in for the lupus fundraiser on september 7th at 7pm paddy whacks at welsh and the blvd'
p311
asS'2013_30'
p312
(lp313
S'my magisto movie via'
p314
ag6
aS'if you are looking to plan an event birthday wedding fundraiser or just plain do not want to do the running'
p315
aS'ok everyone tickets should be here in a couple days let me know if you would like to attend the lupus'
p316
asS'2013_19'
p317
(lp318
S'small town waitresses have either been there for 26 years or its their first day'
p319
aS'my home security system is just 15 motionactivated big mouth billy basses'
p320
asS'2013_18'
p321
(lp322
S'stress free events contact us today'
p323
asS'2012_30'
p324
(lp325
S'coolest jobs of 2012 '
p326
aS'top jobs of 2012 '
p327
asS'2013_39'
p328
(lp329
S'karen karen rupkus'
p330
ag6
aS'my lil nephew '
p331
aS'water broke man almost out gonna be an aunt in a matter of hours'
p332
ag6
aS'i never used this butits funny cause it is dumb'
p333
aS'timelapse yoga'
p334
ag6
aS'nicole nicole miller'
p335
ag6
aS'im supporting lfa philadelphia tristate chapter via'
p336
ag6
aS'day of wedding services are booked for the villarreal  colella wedding in cape may on october12 2013'
p337
ag6
aS'anthony shukes'
p338
asS'2013_38'
p339
(lp340
S'seems like there are a lot of birthdays out there today so wishing you all a great day and many wishes also'
p341
ag6
ag6
aS'we raised enough money to be one of the top five teams walking in the lupus loop on october 27th help us make'
p342
aS'lupus explained'
p343
ag6
aS'sandi sandi seladones'
p344
ag6
ag6
aS'tina tina fort'
p345
aS'now booking day of wedding consulting holiday parties new years party cal me for deatils '
p346
ag6
ag6
aS'christen christen schultz'
p347
aS'lou fragment didnt know u were famous lol'
p348
aS'sandi sandi seladones'
p349
aS'i am seriously thinking about deactivating my account '
p350
asS'2013_10'
p351
(lp352
S'visit our website some adjustments have been made including our blog the'
p353
aS'hey all spring is around the corner met many great vendors at the all saints episcopal event on march 1st i'
p354
asS'2013_13'
p355
(lp356
S'following u'
p357
aS'happy easter everyone making some sweets'
p358
asS'2013_12'
p359
(lp360
S'good evening everybody updates for gemelli events july 6 2013wedding venue research for this date is'
p361
asS'2013_15'
p362
(lp363
S'ive only got a few more weeks to convince my wife that our babys middle name should be underscore'
p364
asS'2013_14'
p365
(lp366
S'hopefully i can relax today'
p367
aS'we will be doing a photoshoot this month anyone that would like to take part please contact me immediately'
p368
aS'hope everyone had a great easter weekend'
p369
as.