(dp0
S'2013_42'
p1
(lp2
S'from me personally im sorry for the hate that is coming from noncaptainswan shippers youguysareamazing'
p3
asS'2013_43'
p4
(lp5
S'good morning haveagreatday'
p6
asS'2013_41'
p7
(lp8
S'bosleymedicalinthegutter'
p9
aS'ohyeawhatabouttherightsofthatlittlegirl '
p10
aS'he was coming after us lmao'
p11
aS'i think of you often and miss you tons hannibalinthebasement'
p12
aS'rememberingcory'
p13
asS'2013_47'
p14
(lp15
S' hi toby'
p16
aS'hiya '
p17
aS'do you find it weird to have fans that are in their late 20s early 30s waycurious'
p18
asS'2013_48'
p19
(lp20
S'happy thanksgiving '
p21
asS'2013_49'
p22
(lp23
S'you must be very proud  congrats cutie hirobbie'
p24
aS'having a very rough couple of days would love to hear from you hirobbie'
p25
asS'2013_24'
p26
(lp27
S'so you call bandaids plaster iloveit'
p28
aS'having a very rough couple of days how are you needtofeelbetter'
p29
asS'2014_32'
p30
(lp31
S'team pool needs your official vote of support lets break the internet retweet if you would buy a ticket to the deadp\xe2\x80\xa6'
p32
asS'2013_22'
p33
(lp34
S'thank you so much for wishing me happy birthday i woke up to your tweet youarethebest'
p35
aS'today is my birthday can i get a birthday tweet '
p36
aS'today is my birthday can i get a tweet wouldmakemyday'
p37
aS'today is my birthday can i get a birthday tweet '
p38
aS'today is my birthday can i get a birthday tweet '
p39
aS'today is my birthday can i get a birthday tweet '
p40
aS'today is my birthday could i possibly get a birthday tweet from you'
p41
aS'today is my birthday can i get a birthday tweet '
p42
aS'today is my birthday can i get a birthday tweet '
p43
aS'today is my birthday can i get a birthday tweet from my fave actress '
p44
aS'today is my birthday can i get a birthday tweet '
p45
aS'jackie its my birthday '
p46
aS'today is my birthday can i get a tweet'
p47
aS'today is my birthday  can i get a tweet from my fave author'
p48
aS'today is my birthday  can i get a tweet'
p49
aS'lookie another one for your audiobooks he said doing an audio book is an ambition notacoincidence'
p50
asS'2014_15'
p51
(lp52
S'lesson of the day tweet someone attractive just for the heck of it '
p53
asS'2014_9'
p54
(lp55
S'i have heard a vicious rumor that you guys might get cancelled what can i do to make sure this doesnt happen totallystarcrsd'
p56
asS'2013_51'
p57
(lp58
S'lost my dad to lung cancer 15 years ago today could use some good thoughts this way ahugwouldbenicetoo'
p59
asS'2013_50'
p60
(lp61
S'askrobbie how do you feel about age differences'
p62
aS'askrobbie'
p63
aS'askrobbie would you say you are more outgoing or shy'
p64
aS'askrobbie best advice you ever got'
p65
aS'askrobbie last great movie you saw'
p66
aS'askrobbie if not acting growing up what did you want to do'
p67
aS'askrobbie favorite doctor who companion'
p68
aS'askrobbie ever wanted to play world of warcraft if not favorite game'
p69
aS'askrobbie favorite book'
p70
aS'askrobbie fave toppings on pizza'
p71
aS'favorite cartoon growing up askrobbie'
p72
aS'what roles would you like to see yourself doing after ouat askrobbie'
p73
aS'toby regbo cast request for sebastian jonathan have any of you been watching reign on the cw the above ho'
p74
aS'congrats on your screening today i hope there is a lot of people there wish i could be there gorobbiego'
p75
aS'looking forward to it  hirobbie'
p76
asS'2013_52'
p77
(lp78
S'happy birthday '
p79
aS'goodbye my raggedy doctor i will miss you more than you could ever imagine you are seared onto my heart forever doctorwho'
p80
aS'merry christmas robbie'
p81
aS'merry christmas eve'
p82
aS'a very merry christmas to you and your family  i hope its the best one yet hirobbie'
p83
asS'2014_2'
p84
(lp85
S'just an fyi your gf is gorgeous hitorrance'
p86
asS'2014_1'
p87
(lp88
S'cant wait '
p89
aS'hey robbie how are you doing tonight imactuallyinbedsick'
p90
aS'happy new years eve'
p91
aS'hiya will you follow me i would really like to send you a message sometime ihopeyouarehavinggreatholidays'
p92
asS'2013_13'
p93
(lp94
S'ians face though when he saw the soul for the first time i wanted to fling myself off a cliff'
p95
aS'feeling kind of low any pick me ups'
p96
aS'goodnight george have a great weekend lovefromalabama'
p97
aS'just saw the host omg that was intensely incredible d iloveianoshea'
p98
aS'a very happy birthday to one of my favorite actors of all time jason bateman castlejoke'
p99
aS'have you heard about dragoncon is there any possibility of you and the cast being there its in atlanta georgia hopeful'
p100
aS'hiya thanks for following me d nice to meet you'
p101
aS'going to see the host at nine on thursday cant wait loveforianfromalabama'
p102
aS'just wanted to say hello d hifromalabama'
p103
aS'my two best friends met you in atlanta at the film festival i missed out due to being sick lovefromafar'
p104
aS'vikings is awesome loving what i have seen so far cant wait for the new episode d viveleathelstan'
p105
asS'2013_12'
p106
(lp107
S'do not forget my name do not forget me 24601'
p108
aS'missing you on vampire diaries ripjeremy'
p109
aS'loved you in beautiful creatures sexyridley'
p110
aS'ianismyfave'
p111
aS'looking forward to castle tonight d'
p112
asS'2013_15'
p113
(lp114
S'just watched all six episodes of vikings i am all caught up now d excellent show cant wait for the next episode'
p115
aS'i am officially starting vikings today wish me luck d'
p116
asS'2013_14'
p117
(lp118
S'will someone please acknowledge my existence havingacrisis'
p119
aS'just wanted to say thank you from the bottom of my heart for being jace in cob thankfulfromalabama'
p120
aS'are you still aiming to misbehave  lovefirefly'
p121
aS'missing your face on my tv screen lovefromalabama'
p122
aS'sweet dreams '
p123
aS'sooooooooo excited to hear about vikings getting another season '
p124
aS'so when you said that you werent a fan of tattoos does that mean your not a fan of people who have them ihavefour'
p125
aS'hi there d'
p126
aS'im thinking about coloring my hair again ive had red black and brown black with premature grey as natural yourthoughts'
p127
aS'my fave song of yours is kiss me amazing'
p128
aS'forgive me for speaking out of turn just goes to show how awesome you are responding even though you owe me nothing thankful'
p129
aS'you and mal'
p130
aS'you and are my favorite actors bar none unite'
p131
aS'you have come into once and completely entranced me and it seems everyone else d cant wait to see more hook hookersunite'
p132
aS'i cant wait to see you in cob in august ive known that you would be an amazing jace claceforever'
p133
aS'you are the perfect clary cant wait till august d claceforever'
p134
aS'miss your face on vd ripkol'
p135
aS'you are the perfect prince phillip missyouonouat'
p136
aS'abby gibbs and tony are my favorite characters on ncis teamhippo'
p137
aS'ive loved you since hocus pocus teamthackery'
p138
aS'you were my favorite lestat queenofthedamned'
p139
aS'has anyone told you that you would be perfect for emma carstairs in new book series teamcarstairs'
p140
aS'excited to see you in delirium ecstatic'
p141
aS'i missed your movie premiere in atlanta due to being sick my best friends got to see you though missedyou'
p142
aS'so i send you tweets daily in the hopes you will at least see them but instead i get overshadowed by people who beg hiya'
p143
aS'daenerys is overjoyed about the gameofthrones season 4 renewal news'
p144
aS'how do i look d'
p145
aS'glad you got back to the uk safely d hope you have a fantastic week d loveandadorationfromalabama'
p146
aS'sending love and adoration your way  lovefromalabama'
p147
aS'feelingkindableh'
p148
aS'i havent watched vikings yet but im going to soon been a fan of travis since tarzan '
p149
aS'hi there  greetingsfromalabama'
p150
aS'i miss blagdogs tweets twodaysofsilence'
p151
asS'2013_17'
p152
(lp153
S'so excited for the backdoor pilot of the originals tonight d hailkingklaus'
p154
aS'mary jane p'
p155
aS'if i was to send you a letter would you promise to read it hiyageorge'
p156
asS'2013_16'
p157
(lp158
S'i am having a really bad night it would make me feel at least a tiny bit better if i got a tweet from you sighhellogeorge'
p159
aS'welcome back  i am finally all caught up on vikings yougood sir are my favorite character  hiyaagain'
p160
asS'2013_19'
p161
(lp162
S'just started watching numb3rs with the hubby  awesome show you are my fave lovingcharlie'
p163
asS'2013_18'
p164
(lp165
S'i love that is going to do the audio book could you see him as will in tid'
p166
asS'2013_20'
p167
(lp168
S'catching up on castle looking forward to the finale tonight '
p169
as.