(dp0
S'2013_42'
p1
(lp2
S''
p3
ag3
ag3
ag3
ag3
asS'2013_43'
p4
(lp5
g3
ag3
ag3
ag3
ag3
ag3
ag3
ag3
ag3
ag3
ag3
ag3
ag3
ag3
ag3
ag3
ag3
ag3
ag3
ag3
ag3
ag3
ag3
ag3
ag3
ag3
ag3
ag3
ag3
ag3
ag3
ag3
ag3
ag3
ag3
ag3
ag3
ag3
ag3
ag3
ag3
ag3
ag3
ag3
ag3
ag3
ag3
ag3
ag3
ag3
ag3
ag3
ag3
ag3
ag3
ag3
ag3
ag3
ag3
ag3
ag3
ag3
ag3
ag3
ag3
ag3
ag3
ag3
ag3
ag3
ag3
ag3
ag3
ag3
ag3
ag3
ag3
ag3
ag3
ag3
ag3
ag3
ag3
ag3
ag3
ag3
ag3
ag3
ag3
ag3
ag3
ag3
ag3
ag3
ag3
ag3
ag3
ag3
ag3
ag3
ag3
ag3
ag3
ag3
ag3
ag3
ag3
ag3
ag3
ag3
ag3
ag3
ag3
ag3
ag3
ag3
ag3
ag3
ag3
ag3
ag3
ag3
ag3
ag3
ag3
ag3
ag3
ag3
ag3
ag3
ag3
ag3
ag3
ag3
ag3
ag3
ag3
ag3
ag3
ag3
ag3
ag3
ag3
ag3
ag3
ag3
ag3
ag3
ag3
ag3
ag3
ag3
ag3
ag3
ag3
ag3
ag3
ag3
aS'it be used for cancerous cellsresearch required'
p6
ag3
ag3
ag3
ag3
aS'browsing through to get best offers'
p7
ag3
ag3
ag3
ag3
ag3
ag3
ag3
ag3
ag3
ag3
ag3
ag3
aS'harvard headlines news from around the web via'
p8
ag3
ag3
ag3
ag3
ag3
ag3
asS'2013_46'
p9
(lp10
g3
ag3
ag3
ag3
ag3
ag3
ag3
ag3
ag3
ag3
ag3
ag3
ag3
ag3
ag3
ag3
ag3
ag3
ag3
ag3
ag3
ag3
ag3
ag3
ag3
ag3
ag3
ag3
ag3
ag3
ag3
ag3
ag3
ag3
ag3
ag3
ag3
ag3
ag3
ag3
ag3
ag3
ag3
ag3
ag3
ag3
ag3
ag3
ag3
ag3
ag3
ag3
ag3
ag3
ag3
ag3
ag3
ag3
ag3
ag3
ag3
ag3
ag3
ag3
ag3
ag3
ag3
ag3
ag3
ag3
ag3
ag3
ag3
ag3
ag3
ag3
ag3
ag3
ag3
ag3
ag3
ag3
ag3
ag3
ag3
ag3
ag3
ag3
ag3
ag3
ag3
ag3
ag3
ag3
ag3
ag3
ag3
ag3
ag3
ag3
ag3
ag3
ag3
ag3
ag3
ag3
ag3
ag3
ag3
ag3
ag3
ag3
ag3
ag3
ag3
ag3
ag3
ag3
ag3
ag3
ag3
ag3
ag3
ag3
ag3
ag3
ag3
ag3
ag3
ag3
ag3
ag3
ag3
ag3
ag3
ag3
ag3
ag3
ag3
ag3
ag3
ag3
ag3
ag3
ag3
ag3
ag3
ag3
ag3
ag3
ag3
ag3
ag3
ag3
ag3
ag3
ag3
ag3
ag3
ag3
ag3
ag3
ag3
ag3
ag3
ag3
ag3
ag3
ag3
ag3
ag3
ag3
ag3
ag3
ag3
ag3
ag3
ag3
ag3
ag3
ag3
ag3
ag3
ag3
ag3
ag3
ag3
ag3
ag3
ag3
ag3
ag3
ag3
ag3
ag3
ag3
ag3
ag3
ag3
ag3
ag3
ag3
ag3
ag3
ag3
ag3
ag3
ag3
ag3
ag3
ag3
ag3
ag3
ag3
ag3
ag3
ag3
ag3
ag3
ag3
ag3
ag3
ag3
ag3
ag3
ag3
ag3
ag3
ag3
ag3
ag3
ag3
ag3
ag3
ag3
ag3
ag3
ag3
ag3
ag3
ag3
asS'2011_52'
p11
(lp12
S'i have a bio material which shrinks water  gets gumlike which can be used in space to grow plants with little soil'
p13
asS'2013_44'
p14
(lp15
g3
ag3
ag3
ag3
ag3
ag3
ag3
ag3
ag3
ag3
ag3
ag3
ag3
ag3
ag3
ag3
ag3
ag3
ag3
ag3
ag3
ag3
ag3
ag3
ag3
ag3
ag3
ag3
ag3
ag3
ag3
ag3
ag3
ag3
ag3
ag3
ag3
ag3
ag3
ag3
ag3
ag3
ag3
ag3
ag3
ag3
ag3
ag3
ag3
ag3
ag3
ag3
ag3
ag3
ag3
ag3
ag3
ag3
ag3
ag3
ag3
ag3
ag3
ag3
ag3
ag3
ag3
ag3
ag3
ag3
ag3
ag3
ag3
ag3
ag3
ag3
ag3
ag3
ag3
ag3
ag3
ag3
ag3
ag3
ag3
ag3
ag3
ag3
ag3
ag3
ag3
ag3
ag3
ag3
ag3
ag3
ag3
ag3
ag3
ag3
ag3
ag3
ag3
ag3
ag3
ag3
ag3
ag3
ag3
ag3
ag3
ag3
ag3
ag3
ag3
ag3
ag3
ag3
ag3
ag3
ag3
ag3
ag3
ag3
ag3
ag3
ag3
ag3
ag3
ag3
ag3
ag3
ag3
ag3
ag3
ag3
ag3
ag3
ag3
ag3
ag3
ag3
ag3
ag3
ag3
ag3
ag3
ag3
ag3
ag3
ag3
ag3
ag3
ag3
ag3
ag3
ag3
ag3
ag3
ag3
ag3
ag3
ag3
ag3
ag3
ag3
ag3
ag3
ag3
ag3
ag3
ag3
ag3
ag3
ag3
ag3
ag3
ag3
ag3
ag3
ag3
ag3
ag3
ag3
ag3
ag3
ag3
ag3
ag3
ag3
ag3
ag3
ag3
ag3
ag3
ag3
ag3
ag3
ag3
ag3
ag3
ag3
ag3
ag3
ag3
ag3
ag3
ag3
asS'2013_2'
p16
(lp17
S'sweeeet i made 17503 this week filling out a couple of surveys'
p18
asS'2011_42'
p19
(lp20
S'exactly correct'
p21
asS'2013_45'
p22
(lp23
g3
ag3
ag3
ag3
ag3
ag3
ag3
ag3
ag3
ag3
ag3
ag3
ag3
ag3
ag3
ag3
ag3
ag3
ag3
ag3
ag3
ag3
ag3
ag3
ag3
ag3
ag3
ag3
ag3
ag3
ag3
ag3
ag3
ag3
ag3
ag3
ag3
ag3
ag3
ag3
ag3
ag3
ag3
ag3
ag3
ag3
ag3
ag3
ag3
ag3
ag3
ag3
ag3
ag3
ag3
asS'2011_40'
p24
(lp25
S'all the best'
p26
aS'agree'
p27
aS'yes erratic globel climates hooting up and extended summerslow rainfalls in india and around the globenaturaldisaters'
p28
aS'100 correct and will affect plants treesflowersing plantsanimal behaviourand human habitatlifecycleeverything in globe'
p29
aS'experiencing vast tempr in madras due2 himalayan melting and experience 10 months summer in chennaiindia'
p30
aS'arctic sea ice continues decline hits 2ndlowest level via'
p31
aS'agree for the past 3 years i took photos of parcipanny during summer and winter the same spots  mismatch observedcan'
p32
aS'ngc 281 living the high life superb chandra photos'
p33
aS'final space shuttle crew members host tweetup at nasa headquarters via'
p34
aS'nasa 2 help me to register for tweet to mars curiosity launch and am usa passportinterested '
p35
aS'i wish 2 participate as a tweeter 4 mars curiosity nanas06 tweeter'
p36
asS'2011_39'
p37
(lp38
S'how to join among the 150 visiters to mars launch'
p39
aS'solar storm threatens earth with mass chaos via'
p40
aS'i wish2be there withoutfail'
p41
asS'2011_38'
p42
(lp43
S'uars update  reentry prediction now later than expected tonight or very early saturday morning edt'
p44
aS'i feel the satellite debreis will burn by entry 2 atmosphere and will become ash and no solidparts maybe leftover'
p45
asS'2011_43'
p46
(lp47
S'reading tech flying car takes off  video  discovery news '
p48
aS'i just entered to win an ipad 2 being given away by to enter'
p49
aS'stars adorn orions sword via superb photos and xcellent image galleryin the world of space'
p50
aS'swirling landscape of stars via fantastc photos'
p51
asS'2011_41'
p52
(lp53
S'will there be a connection between neutrinos and blackholesresearch needed'
p54
aS'sticky boom lets you grab stuff in space'
p55
aS'best of how its made  videos  science channel'
p56
aS'fantastichightech applicationspc based robotic devices will help human habitats and homes with less strain for tousewife'
p57
as.