(dp0
S'2013_42'
p1
(lp2
S'when i shut my mouth and turn to walk away it doesn\xe2\x80\x99t mean youve won it means your stupidity isn\xe2\x80\x99t worth my time'
p3
aS'yes every morning when he reads his paper with his coffee'
p4
aS'why is it that liberals blame everyone for the problems they create '
p5
aS'just dont fucking lie to me'
p6
aS'obama has sent more helicopters to buzz our vets than he sent to save tyrone woods benghazi 1mvetmarch'
p7
aS'you are so funnybut you are so beautiful too'
p8
asS'2013_43'
p9
(lp10
S'my only talent is breathing'
p11
aS'if someone really wants to see you theyll find a reason theyll find a way and theyll make the effort'
p12
aS'do you ever just want to pack up and leave out of the blue without saying anything to anyone like just leave and start a \xe2\x80\xa6'
p13
aS'i don\xe2\x80\x99t mind being alone i just hate feeling alone \xf0\x9f\x98\x94'
p14
asS'2013_40'
p15
(lp16
S'life is made up of years that mean nothing and moments that mean everything'
p17
aS'youre the jelly to my burger the knife to my soup the glitter to my sushi and the ketchup to my icecream my point is\xe2\x80\xa6'
p18
aS'no matter how busy a person is if they really care they will always find time for you'
p19
aS'my only talent is breathing'
p20
aS'i think its funny that people who treat you like shit get offended when you finally do the same to them'
p21
aS'oh hon he is too young to understand yeti tell his great grandpa that all the time and hes 66lol'
p22
aS'some day when scientists discover the center of the universe many people are going to be disappointed to find out it isn\xe2\x80\xa6'
p23
aS'i prefer not to think before i speak i like being just as surprised as everyone else by what comes out of my mouth'
p24
aS'never hold your farts in they travel up your spine into your brain and thats where you get shitty ideas from'
p25
asS'2013_41'
p26
(lp27
S'my hobbies include sleeping and disappointing everyone close to me'
p28
aS'my cousins were the coon creek girls from kentuckyi love the blue grass state'
p29
aS'if someone hates you for no reason give that bitch a reason'
p30
aS'i hate how spiders just sit there on your wall acting like they pay rent'
p31
aS'politicians like bombers seldom see their victims \xe2\x80\x93 donald boudreaux'
p32
aS'whoever gossips to you will gossip about you'
p33
aS'im pretty sure by now \xe2\x80\x9ctired\xe2\x80\x9d is just part of my personality description'
p34
aS'peyton manning the greatest qb of all time retweet for yes favorite for no'
p35
aS'how many times do i have to say excuse me before get the hell out of my way becomes acceptable'
p36
aS'nothing hurts more than being disappointed by the person you thought would never hurt you'
p37
asS'2013_46'
p38
(lp39
S'my parents accused me of being a liar i looked them in the face amp said tooth fairy santa easter bunny amp walked awa\xe2\x80\xa6'
p40
aS'the biggest lie i tell myself i dont need to write this shit down ill remember it'
p41
aS'didnt give a fuck yesterday dont give a fuck today probably wont give a fuck tomorrow'
p42
aS'if only mosquitoes sucked fat instead of blood'
p43
asS'2013_47'
p44
(lp45
S'that man is evil'
p46
aS'control'
p47
asS'2013_44'
p48
(lp49
S'complain to the supervisor if that doesnt work go higher'
p50
aS'that man just keeps dividing all peoplehe needs to just go away'
p51
aS'and all of obamas secret service protectionand all of hollyweird security'
p52
aS'no young folk pays for me i pay my owni am sick of hearing this'
p53
aS'lost respect for a lot of people this year'
p54
aS'never force someone to make a space in their life for you because if they know your worth they will surely create one fo\xe2\x80\xa6'
p55
asS'2013_45'
p56
(lp57
S'me im gonna lose weight me im gonna exercise every day me im gonna go on a diet and stick to it me is tha\xe2\x80\xa6'
p58
aS'an ugly personality destroys a pretty face'
p59
aS'remember the friends who were there for you when you needed them theyre your true friends'
p60
aS'i hope not'
p61
aS'people change friends become enemies things go wrong but life goes on'
p62
aS'retweet if you think that every american who likes his or her health care plan should actually be able to keep iti makedcl\xe2\x80\xa6'
p63
aS'i checked my calendar i still wont give a fuck tomorrow'
p64
asS'2012_45'
p65
(lp66
S'a heart is not judged by how much you love but by how much you are loved by others  wizard of oz'
p67
asS'2013_16'
p68
(lp69
S'i hate when the news media so afraid to offend anyone always refers to the boston killer as the suspect'
p70
aS'sometimes i feel like the most unwanted person ever'
p71
aS'best threesome me my bed my pillow'
p72
aS'i\xe2\x80\x99m constantly torn between the \xe2\x80\x98be kind to everyone\xe2\x80\x99 and the \xe2\x80\x98fuck everyone you owe them nothing\xe2\x80\x99 mentalities'
p73
aS'arguing with an idiot is one of the most frustrating things ever'
p74
aS'i have more conversations in my head than i do in real life'
p75
aS'appreciate what you have before its gone'
p76
aS'i hate when new parents ask who the baby looks like it was born 15 minutes ago it looks like a potato'
p77
aS'im not lazy im on energy saving mode'
p78
asS'2012_42'
p79
(lp80
S'you use to love country music when you were younger'
p81
asS'2013_24'
p82
(lp83
S'the biggest problem with twofaced people is never knowing which face to slap first'
p84
aS'dont stress over people that dont even deserve to be an issue in your life'
p85
aS'running away from your problems only causes more problems'
p86
aS'ive forgotten what its like to have a normal sleeping pattern'
p87
aS'i have had that for weeks told grampy my head felt like a basket sitting on my shoulders'
p88
aS'money doesnt buy happinessbut id rather cry in a ferrari than on a bike'
p89
aS'i think its funny that people who treat you like shit get offended when you finally do the same to them'
p90
aS'when i was 10 years old i couldnt wait to grow up this is not the shit i signed up for'
p91
aS'don\xe2\x80\x99t let shred the constitution tell ur lawmakers to support our 2a rights'
p92
aS'some people dont change they just learn to lie better'
p93
aS'stop worrying about people that arent worried about you'
p94
aS'were all in the same game just different levels dealing with the same hell just different devils'
p95
aS'life is short smile while you still have teeth'
p96
aS'it\xe2\x80\x99s thursday how much has opec ripped us off today'
p97
aS'dont you hate it when someone is only nice because they want something'
p98
aS'im not as nice as i used to be getting fucked over does that to you'
p99
aS'its crazy how quickly people can forget about you until they want something from you'
p100
aS'i have a sixth sense i see stupid people'
p101
aS'best way to die clint eastwood shooting you while morgan freeman narrates it'
p102
aS'dont ask for my opinion then get mad when i tell you the truth'
p103
aS'if i had a british accent i would talk to myself all day'
p104
asS'2013_25'
p105
(lp106
S'i have more conversations in my head than in real life'
p107
aS'if they really want to see you theyll make time for you'
p108
aS'america needs to stop making stupid people famous'
p109
aS'better to let someone walk away from you than all over you'
p110
aS'i can count on one hand how many people i really trust'
p111
aS'they say keep your friends close and your enemies closer the problem is nowadays you cant tell them apart'
p112
aS'never let someone with the significance of a speed bump become a roadblock in your life'
p113
aS'true friends are the ones who have nice things to say about you behind your back'
p114
aS'intelligence is like underwear its important that you have it but theres no need to show it off'
p115
aS'the problem with todays kids is that todays parents are idiots'
p116
aS'if i stop my car to let you cross the street i better see some hustle out of you knees to chest bitch knees to chest '
p117
aS'as we grow up we realize it becomes less important to have more friends and more important to have real ones'
p118
aS'james gandolfini dead at 51 rip tonysoprano sopranos ripjamesgandolfini riptonysoprano'
p119
aS'did you know when someone annoys you it takes 42 muscles to frown but only 4 to extend your arm and punch them in the fac\xe2\x80\xa6'
p120
aS'there comes a point in your life when you realize who really matters who never did and who always will'
p121
aS'i pretty much spend all day every day just looking forward to going back to sleep'
p122
aS'dont call my phone and ask me who i am  you called me'
p123
aS'gives people advice when i cant even handle my own problems'
p124
aS'me does nothing all day me im so tired'
p125
aS'im 500 done with today and about 37 done with tomorrow already'
p126
aS'the best revenge is just moving on and getting over it don\xe2\x80\x99t give someone the satisfaction of watching you suffer'
p127
aS'i hate it when the shower only has 2 options 3rd degree burns or skinny dipping in fucking antarctica'
p128
aS'dear god today i woke up i am healthy i am alive thank you'
p129
aS'i dont need to control my anger everybody around me needs to control their habit of pissing me the fuck off'
p130
aS'no matter how busy someone says they are if they really care theyll always find time'
p131
aS'i die a little inside when i see an old person eating alone at a restaurant'
p132
aS'i prefer not to think before i speak i like being just as surprised as everyone else by what comes out of my mouth'
p133
aS'i hate it when you have to be nice to someone you really want to throw a brick at'
p134
asS'2013_26'
p135
(lp136
S'i dont have a short temper i just have a quick reaction to bullshit'
p137
aS'nobody is too busy its just a matter of priorities'
p138
aS'i offended you with my opinion you should hear the ones i keep to myself'
p139
aS'im emotionally constipated i havent given a shit in days'
p140
aS'telling a female to calm down is like trying to baptize a cat'
p141
aS'if you think i dislike you i probably do'
p142
aS'fuck being nice to people who dont deserve it'
p143
aS'to my bestfriend for all the times i never said the things i should have i thank you for all the times you understood'
p144
aS'sometimes its not the pain that makes you suffer its your own negative thought that makes things seem worse'
p145
aS'oh well i can understand not going unless you have backup'
p146
aS'dont ever forget who was there for you when no one else was'
p147
aS'getting older is mandatory growing up is optional'
p148
aS'i wish common sense was more common'
p149
aS'it is going to make you old before your time'
p150
aS'bitch at them when mine goes out so does my phone and cablei make them take it off my bill'
p151
aS'i think it\xe2\x80\x99s funny that people who treat you like shit get offended when you finally do the same to them'
p152
aS'age 4 i love mommy age 16 i hate her age 20 mom was right age 57 i wish my mom was still here retweet if y\xe2\x80\xa6'
p153
aS'biggest lie i tell myself i dont need to write that down ill remember it'
p154
aS'do what you think is right not what people think is right in the end its you who goes through it not them'
p155
aS'im not as nice as i used to be getting fucked over does that to you'
p156
aS'those that talk down to you are just trying to walk tall by making you feel small rise above'
p157
aS'good people go through the most bullshit'
p158
aS'better to have an enemy who slaps you in the face than a friend who stabs you in the back'
p159
aS'life is so short so just do whatever the fuck makes you happy'
p160
aS'you are responsible for your own happiness if you expect others to make you happy chances are youll always end up disap\xe2\x80\xa6'
p161
aS'you dont have to like me im not a facebook status'
p162
asS'2013_27'
p163
(lp164
S'not all scars show not all wounds heal sometimes you cant see the pain someone feels'
p165
aS'if someone has something bad to say about you its probably because they have nothing good to say about themselves'
p166
aS'nothing sucks more than that moment during an argument when you realize youre wrong'
p167
aS'stop editing your pics what if you go missing how can we find you if you look like beyonce on facebook and waka flocka\xe2\x80\xa6'
p168
aS'you should never be surprised when someone treats you with respect you should expect it'
p169
aS'saying im tired when youre actually just sad'
p170
aS'when nothing goes right go to sleep'
p171
aS'if cockroaches can survive atomic bombs and chemical warfare what the fuck is in a can of raid'
p172
aS'i dont have time for people that have no time for me'
p173
aS'promises mean everything but after they are broken sorry means nothing'
p174
aS'i changed my car horn sound to gun shots people move out of the way much faster now'
p175
aS'some day they will be forgottenit will be sad'
p176
aS'instead of wiping your tears wipe away the people who caused them'
p177
aS'the only people you need in life are the ones that need you in theirs'
p178
aS'sorry i forgot you dont need me anymore'
p179
aS'heres a little hint i dont give a shit'
p180
aS'the older i get the less i give a fuck'
p181
aS'rip\xf0\x9f\x99\x8f to all of the kids that have committed suicide that nobody noticed because this society only cares about the popul\xe2\x80\xa6'
p182
aS'some people need to have eggs thrown at them brick shaped eggs made of brick'
p183
aS'they ignore you now but theyll need you later'
p184
aS'no matter how much you wish they could be things will never be the same'
p185
aS'i wish i had a delete button in my life to delete some people some memories and some feelings'
p186
aS'a guy knocked on my door asking for a small donation for the local pool so i gave him a glass of water'
p187
aS'count your blessings today as there are many others who are not so fortunate'
p188
aS'people change memories dont'
p189
aS'just be you and if people don\xe2\x80\x99t like it well fuck them'
p190
asS'2013_20'
p191
(lp192
S'it\xe2\x80\x99s really cute when people forget your existence until they need something'
p193
aS'dear iphone please stop changing my rude words into nice ones you piece of shut'
p194
aS'me \xe2\x80\x9ddad am i adopted\xe2\x80\x9d dad \xe2\x80\x9dshit like id have picked you\xe2\x80\x9d'
p195
aS'sometimes we waste too much thinking about someone who doesnt even think about us for a second'
p196
aS'some people just need a pat on the head with a hammer'
p197
aS'mcdonalds should have a 3rd window where you can trade in all the wrong shit they gave you at the second window'
p198
aS'getting older is mandatory growing up is optional'
p199
aS'how many times do i have to say excuse me before get the hell out of my way becomes acceptable'
p200
aS'emotionally im done mentally im drained physically i smile'
p201
aS'inhale the good shit exhale the bullshit'
p202
aS'pringles the only chip company in the world that doesnt sell air'
p203
aS'saying youll wake up early to get something done then when you wake up convincing yourself its not important'
p204
aS'my days are always backwards\xe2\x80\xa6i wake up exhausted and i go to bed wide awake'
p205
aS'8 year olds today have facebook twitter iphones and ipods when i was 8 i had a coloring book crayons and an imag\xe2\x80\xa6'
p206
aS'i will carry 37 grocery bags or die trying before making two fucking trips'
p207
aS'going to church doesnt make you a christian any more than standing in a garage makes you a car'
p208
asS'2013_21'
p209
(lp210
S'i speak 4 languages english profanity sarcasm amp real shit'
p211
aS'life is so short just do what the fuck makes you happy'
p212
aS'looking at graffiti on a bridge some people thats vandalism other people thats some dope art me how the hell did \xe2\x80\xa6'
p213
aS'if you dont like me its mind over matter i dont mind amp you dont matter'
p214
aS'i wish the days were longer so i\xe2\x80\x99d have more time to do nothing'
p215
aS'forget what hurt you in the past but never forget what it taught you'
p216
aS'some guy just said they should make a wheelchair with pedals so they dont have to use their hands  im done being pa\xe2\x80\xa6'
p217
aS'i love it when i randomly find money in my clothes its like a gift to me from me'
p218
aS'im the type of person who looks at the menu for five minutes but ends up ordering the same exact thing every time'
p219
aS'i wish i could mute people'
p220
aS'i spent my entire childhood wishing i was older now im older and it sucks'
p221
aS'if robbers ever broke into my house and searched for money id just laugh and search with them'
p222
aS'thanking veterans for their service singforyou'
p223
aS'fuck excuses learn to admit when you fuck up'
p224
aS'sometimes its really hard to believe that everything happens for a reason'
p225
aS'some people just need a pat on the head with a hammer'
p226
aS'honey enjoy i wish all mine was that little again'
p227
aS'don\xe2\x80\x99t search for someone you can live with search for someone you can\xe2\x80\x99t live without'
p228
aS'silly me i thought you actually cared'
p229
asS'2013_22'
p230
(lp231
S'yes ive made mistakes life doesnt come with instructions'
p232
aS'bacon that word alone is worth a retweet'
p233
aS'i wish morgan freemans voice narrated my life'
p234
aS'a lot of shit happens to me i just dont talk about it'
p235
aS'dear karma i have a long list of people you missed'
p236
aS'do not text me while youre driving cause im not trying to be the last unfinished message they find when your ass is wrap\xe2\x80\xa6'
p237
aS'well another day has passed and i havent used algebra once'
p238
aS'i die a little inside when i see an old person eating alone at a restaurant'
p239
aS'if i was a bird you would be the 1st person id shit on'
p240
aS'some guy just said they should make a wheelchair with pedals so they dont have to use their hands  im done being\xe2\x80\xa6'
p241
aS'i enjoy long romantic walks to the fridge'
p242
aS'oh dear 10 year old girls crying because they broke up with their boyfriends when i was 10 i cried when i missed the m\xe2\x80\xa6'
p243
aS'i advise you don\xe2\x80\x99t mess with me i know karate kung fu judo tae kwon do jujitsu and\xe2\x80\xa6\xe2\x80\xa6 28 other dangerous words'
p244
aS'a lot of my life has been realizing that i would cross oceans for people who wouldnt jump puddles for me'
p245
asS'2013_23'
p246
(lp247
S'drunk words are sober thoughts'
p248
aS'i get repissed about an old situation whenever i start thinking about it again'
p249
aS'i hate it when i have to be nice to someone who i really wanna throw a brick at'
p250
aS'when life knocks you down calmly get back up smile and say you hit like a bitch'
p251
aS'im not racist i hate everyone equally'
p252
aS'when you know your worth nobody can make you feel worthless'
p253
aS'i wish there was a rewind button in life'
p254
aS'to be honest im sorry doesnt mean shit to me anymore'
p255
aS'i look at people sometimes and thinkfor real thats the sperm that won'
p256
aS'i wake up with a good attitude everyday then idiots happen'
p257
aS'if you cant handle the truth dont ask me shit'
p258
aS'pete rose should now be allowed in the baseball hall of fame the alltime hits leader has paid the price already'
p259
aS'when it comes to violent crime and if we are going to solve the problem we must stop being so politically correctmu\xe2\x80\xa6'
p260
aS'if cockroaches can survive atomic bombs and chemical warfare what the fuck is in a can of raid'
p261
aS'dear vegetarians if youre trying to save the animals why are you eating their food'
p262
aS'if you know what the answer is going to be then dont fucking ask me'
p263
aS'when i was younger i couldnt wait to be older this shit was not what i expected'
p264
aS'without fake friends youll never know who the real ones are'
p265
asS'2012_49'
p266
(lp267
S'honey i will agree and it only gets stronger as the years go by'
p268
asS'2013_28'
p269
(lp270
S'rip to everyone who fcked me over played me tried me or lied to me because youre are all dead to me'
p271
aS'i have a sixth sense i see stupid people'
p272
aS'sometimes i wonder why am i alive'
p273
aS'its hard to be a positive person when im surrounded by dumb motherfuckers'
p274
aS'another day of my discontent'
p275
aS'the worst thing about being lied to is knowing youre not worth the truth'
p276
aS'biggest lie i tell myself i dont need to write that down ill remember it'
p277
aS'learn to give your absence to those who dont appreciate your presence'
p278
aS'i\xe2\x80\x99m making some changes in my life right now if you don\xe2\x80\x99t hear from me you\xe2\x80\x99re one of them'
p279
aS'nobody is worth your tears and the one who is wont make you cry'
p280
aS'there comes a point in your life when you realize who really matters who never did and who always will'
p281
aS'isn\xe2\x80\x99t it ironic that a lot of the wealthy environmentalists use private jets and fight wind farms being placed near th\xe2\x80\xa6'
p282
aS'im starting to get that fuck it feeling about everything'
p283
aS'shit happens when you trust the wrong people'
p284
asS'2013_29'
p285
(lp286
S'if they really want to see you theyll make time for you'
p287
aS'im not as nice as i used to be getting fucked over does that to you'
p288
aS'if gas gets any higher im cutting a hole through the floorboard and flintstoning this bitch'
p289
aS'i wish i had a delete button in my life to delete some people some memories and some feelings'
p290
aS'no matter how \xe2\x80\x9cbusy\xe2\x80\x9d a person\xe2\x80\x99s day may be if they \xe2\x80\x9creally care\xe2\x80\x9d they\xe2\x80\x99ll always find time for you'
p291
aS'sometimes you have to give up on people everyone in your life is meant to be there but it doesnt mean theyre meant to \xe2\x80\xa6'
p292
aS'in the beginning god made the heaven and earth the rest was made in china'
p293
asS'2012_48'
p294
(lp295
S'another sucky day in paradise'
p296
asS'2013_5'
p297
(lp298
S'they charged us 17950 and we only got back a little over 30000 and we dont pay state taxes because of grandpas pension'
p299
asS'2013_7'
p300
(lp301
S'dont ever apologize for posting about your sonhe is so adorable'
p302
asS'2013_3'
p303
(lp304
S'yes it does it sounds just like a frazier'
p305
aS'honey you are so a frazierbut i love you any waylol'
p306
aS'buy you a small can of deicer to carry with you it will fit in your coat pocket it works great for car doors and locks'
p307
asS'2013_2'
p308
(lp309
S'rain freezing rain and sleet and snow i am so ready for spring'
p310
aS'he looks like his little happy self againand honey he is surely a mini me'
p311
asS'2013_17'
p312
(lp313
S'me im gonna lose weight me im gonna exercise every day me im gonna go on a diet and stick to it me is that cake'
p314
aS'well another day has passed and i havent used algebra once'
p315
aS'i have sixth sense i see stupid people'
p316
asS'2012_46'
p317
(lp318
S'i adore that little man'
p319
asS'2012_52'
p320
(lp321
S'i love those pans'
p322
asS'2012_50'
p323
(lp324
S'that sweet baby'
p325
aS'respect old people they graduated without using google and wikipedia'
p326
asS'2013_37'
p327
(lp328
S'putting on your bra when your skin is wet is like wrestling with satan'
p329
aS'what a beautiful day this has beeni love it'
p330
aS'i have trust issues with people who have lying issues'
p331
aS'makes me cry'
p332
aS'dear face wash commercials nobody actually splashes their faces with water like that sincerely my whole damn bathroom \xe2\x80\xa6'
p333
aS'you cant force them to love you or want you but one day youll make them realize what they lost'
p334
aS'i can do that i forgot grandma has to sample firstlol'
p335
aS'he is so adorable great granny will send him some too'
p336
aS'that sweet babythat is so adorable'
p337
aS'he is so beautifuli love that little man'
p338
asS'2013_36'
p339
(lp340
S'i wish heaven had visiting hours \xf0\x9f\x98\x9e\xf0\x9f\x91\xbc\xf0\x9f\x99\x8f'
p341
aS'i realized that ive been crossing oceans for people who wouldnt even jump puddles for me'
p342
aS'if robbers ever broke into my house and searched for money id just laugh and search with them'
p343
aS'i keep a lot of shit to myself because in reality nobody really gives a fuck'
p344
aS'nothing and no one can make you happy until you are happy with yourself'
p345
aS'i wake up everyday planning to be productive and then a voice in my head says haha good one and we laugh and laugh and \xe2\x80\xa6'
p346
aS'i prefer not to think before i speak i like being just as surprised as everyone else by what comes out of my mouth'
p347
aS'hon maybe you should go to dr it could be something else'
p348
aS'i can count on one hand how many people i truly trust'
p349
aS'dick durbin needs to be gone too'
p350
aS'ok just let me know for surelooking forward to seeing you'
p351
aS'they say keep your friends close and your enemies closer the problem is nowadays you cant tell them apart'
p352
aS'if i had morgan freemans voice i would just talk to myself all day'
p353
aS'time is the greatest gift you can give to someone because its like giving a portion of your life that youll never get \xe2\x80\xa6'
p354
aS'as we grow older we start to realize what we need and what we need to leave behind'
p355
asS'2013_35'
p356
(lp357
S'that little darling babyi adore him'
p358
aS'i wish heaven had visiting hours \xf0\x9f\x98\x9e\xf0\x9f\x91\xbc\xf0\x9f\x99\x8f'
p359
aS'they won'
p360
aS'i dont care if people dont like me i wasnt put on this earth to entertain anyone'
p361
aS'to be honest i really dont give a fuck i lose friends make friends and make enemies everyday regardless im still g\xe2\x80\xa6'
p362
aS'worst feeling in the world is knowing you did the best you could and it still wasnt good enough'
p363
aS'if i had a british accent i would talk to myself all day'
p364
aS'i regret every nap i skipped as a child now all i want to do is sleep'
p365
aS'11 year old kids making twitter accounts and shit the fuck you gonna tweet about just leaving day care about to go p\xe2\x80\xa6'
p366
aS'i dont have enough middle fingers to let a mothafucka know how i truly feel about them'
p367
asS'2013_34'
p368
(lp369
S'i hate when im tired but when i go to bed and lay down my body is like just kidding btch'
p370
aS'do you ever just want to pack up and leave out of the blue without saying anything to anyone like just leave and start a \xe2\x80\xa6'
p371
aS'better to have an enemy who slaps you in the face than a friend who stabs you in the back'
p372
asS'2013_33'
p373
(lp374
S'some guy just said they should make a wheelchair with pedals so they dont have to use their hands  im done being pa\xe2\x80\xa6'
p375
aS'dear karma i have a long list of people you missed'
p376
aS'no hon it hasnt at the danville veterans hospital either'
p377
aS'not everyone you love is going to love you back thats why its important to love yourself more than anything'
p378
aS'the problem with some people is that theyre breathing'
p379
aS'i love you too'
p380
aS'some of the best moments in life are the ones you cant tell anyone about'
p381
aS'if you dont see them in your future its time to put them in your past'
p382
aS'didnt give a fuck yesterday dont give a fuck today probably wont give a fuck tomorrow'
p383
aS'i found a penny just now it reminded me of you worthless amp found in everyones pants'
p384
asS'2013_32'
p385
(lp386
S'enjoy life it comes with an expiration date'
p387
aS'my haters only have one advantage over me they can kiss my ass i cant'
p388
asS'2013_31'
p389
(lp390
S'im not as nice as i used to be getting fucked over does that to you'
p391
aS'when you actually matter to a person theyll make time for you no lies no excuses'
p392
aS'dont judge me you cant handle half of what ive dealt with theres a reason i do the things i do theres a reason i \xe2\x80\xa6'
p393
aS'yes ive made mistakes life doesnt come with instructions'
p394
aS'i wish i had a delete button in my life to delete some people some memories and some feelings'
p395
aS'9 out of 10 men prefer a girl with a big butt the 10th man likes the other 9 guys'
p396
aS'new day same bullshit'
p397
aS'i make mistakes i hurt people im only a human sorry im not perfect'
p398
asS'2013_30'
p399
(lp400
S'chuck norris doesn\xe2\x80\x99t wear a watch he decides what time it is'
p401
aS'lost respect for a lot of people this year'
p402
aS'i dont have a bucket listbut my fucket list is about a mile long'
p403
aS'just be you and if people dont like it well fuck them'
p404
aS'when i was a kid i wanted to be older this shit was not what i expected'
p405
aS'i just signed petition to defund planned parenthood'
p406
asS'2013_19'
p407
(lp408
S'i hate it when i\xe2\x80\x99m singing along to a song and the artist gets it wrong'
p409
aS'life is so short do what makes you happy'
p410
aS'if i actually spoke my mind id be in deep shit'
p411
aS'whoever is reading this you are beautiful and someone out there is crazy about you so smile life is too short to be un\xe2\x80\xa6'
p412
aS'i hate when people act a different way when they get around certain people'
p413
aS'i prefer not to think before i speak i like being just as surprised as everyone else by what comes out of my mouth'
p414
aS'less friends less bullshit'
p415
aS'of course i talk to myself sometimes i need expert advice'
p416
aS'the less you care the happier youll be'
p417
aS'whenever im depressed i like to cut myself a nice big piece of cake'
p418
aS'respect old people they graduated high school without google or wikipedia'
p419
aS'some people will never appreciate what you do for them'
p420
aS'that awkward moment when youre talking to yourself and start to smile like an idiot because youre so hilarious'
p421
aS'i dont have a short temper i just have a quick reaction to bullshit'
p422
aS'hurt me with the truth but don\xe2\x80\x99t comfort me with a lie'
p423
aS'less friends less bullshit'
p424
asS'2013_18'
p425
(lp426
S'i hate how after an argument i think of more clever shit i should have said'
p427
aS'take him to a no kill animal shelter'
p428
aS'prefer not to think before i speak i like being just as surprised as everyone else by what comes out of my mouth'
p429
aS'drama  dumb retards asking for more attention'
p430
aS'i wish the days were longer so i\xe2\x80\x99d have more time to do nothing'
p431
aS'that guy has a screw loose but he has balls'
p432
asS'2013_39'
p433
(lp434
S'forgot to go to the gym yesterday thats 10 years in a row'
p435
aS'honey you are always beautiful'
p436
aS'be careful about who you tell your secrets to not everyone is looking out for you'
p437
aS'that is so sweet'
p438
aS'i know i have had it for a week and i am tired of it give sweet baby hugs from usus'
p439
aS'whats wrong with little man '
p440
asS'2013_38'
p441
(lp442
S'when i was younger i couldnt wait to be older this shit was not what i expected'
p443
aS'nobody is ever too busy if they care they will make time'
p444
aS'dear god america teach your children to do chores amp be productive'
p445
aS'some people will better your life by being in it while others will better it by staying out'
p446
aS'they have gun control in cuba they have universal health care in cuba so why do they want to come here \xe2\x80\x93 paul harvey'
p447
aS'hormones honey'
p448
aS'and they stink'
p449
aS'sometimes we all need a little alone time it doesnt mean we are mad upset shy or anything else we just all need some \xe2\x80\xa6'
p450
aS'i was born without you so guess what i can live without you'
p451
asS'2013_11'
p452
(lp453
S'yes because putting a body kit on your alero will make it just a pooty magnet \xf0\x9f\x98\xb3'
p454
asS'2013_13'
p455
(lp456
S'if robbers ever broke into my house and searched for money id just laugh and search with them'
p457
aS'i look at people sometimes and think thats the sperm that won'
p458
aS'some people deserve to get eggs thrown at them brick shaped eggsmade of brick'
p459
aS'if i were a bird youd be the first person id shit on'
p460
aS'1994 was the worst year in music kurt cobain died and justin bieber was born'
p461
aS'i really need to learn the difference between being hungry and being bored'
p462
aS'karma has no menu you get served what you deserve'
p463
asS'2013_15'
p464
(lp465
S'what happens when the only person who can dry your tears is the one making you cry'
p466
aS'teacher if you have 10 chocolate cakes and someone asks for 2 how many do you have left me 10'
p467
aS'i hate how after an argument i think of more clever shit i should have said'
p468
aS'nothing lasts forever so live it up drink it down laugh it off avoid the drama take chances and never have regrets'
p469
aS'im addicted to wasting time'
p470
asS'2012_39'
p471
(lp472
S'i hope so hope you have some time to see us'
p473
aS'sorry hon wish i could have brought you a bowli will bring you a steak next week from schnucks'
p474
aS'cooking homemade veggie soupit was really good'
p475
aS'what a lousy cold rainy dayguess i will just cook something good'
p476
as.