(dp0
S'2013_42'
p1
(lp2
S'i will be using to manage and clean my twitter account'
p3
aS'johnny depp amp kate moss back together again yes'
p4
aS'lol i keep forgetting i have my license why am i home rn'
p5
aS'am on top of the world haters watch me shine'
p6
aS'asuu on four straight month nine unit course available'
p7
aS'all ma bitches love me'
p8
aS'im outa here'
p9
aS'as a kid i usually write my name on a tiny piece of paper amp slot it into my eleganzabic biro 4 identification rt if u di\xe2\x80\xa6'
p10
aS'please follow back'
p11
aS'you better follow back'
p12
aS'what are you then'
p13
asS'2013_43'
p14
(lp15
S'youre so pregnant'
p16
aS'guy follow back ooo'
p17
aS'im so fucking violent at times'
p18
aS'i love fucking up em bitches up the rosebud'
p19
aS'good morning everyone'
p20
aS'dont get mad when you see me doing shit i was tryna do with you with someone else'
p21
aS'hey the word for today is me'
p22
aS'youre so lazy no im not ive been converting oxygen into carbon dioxide all day'
p23
aS'if i got 50 and my girl broke then we both broke cause im not telling her i got 50'
p24
aS'if i got 50 and my girl broke then we both broke cause im not telling her i got 50'
p25
aS'please follow back'
p26
aS'am as tired as fuck'
p27
aS'if you cant graduate from high school you cant do anything else either the shit is easy as fuck'
p28
aS'hmmm dreamt about the el  classico last night barca is going down'
p29
aS'this week on twitter one new follower and followed 8 people via'
p30
aS'please follow back'
p31
aS'lmao'
p32
aS'oya baby ema rotate'
p33
aS'i missed my period oh my god my lecturer is crazy'
p34
aS'am on one you say what'
p35
aS'who is the garden'
p36
aS'hi am high'
p37
aS'some niggas be like bitch go fuck yourself with what'
p38
aS'i slept on the gifted album way better than i thought i had to actually sit down and listen to it i gotta go buy it now\xe2\x80\xa6'
p39
aS'everybody want the key and the secret to rap immortality like i have got'
p40
aS'my mom is on strike no food im dying'
p41
aS'im an mc still as honest but as rude and indecent as all hell syllables killaholic'
p42
aS'but for me to rap like a computer must be in mygenesi got a laptop in my back pocket'
p43
aS'they said i rap like a robot so call me rapbot'
p44
aS'im on top of the world look at me now you be witch'
p45
aS'shopping things on point'
p46
asS'2013_41'
p47
(lp48
S'this sunday is just a blast'
p49
aS'this sunday is just a blast limpopo tinz'
p50
aS'cant just close my eyes feel like my phone is gonna leave me'
p51
aS'please follow back'
p52
aS'try me then'
p53
aS'please follow back'
p54
aS'please follow back'
p55
aS'cuddling and taking naps together is soo cute\xf0\x9f\x98\x8d\xf0\x9f\x98\x8d'
p56
aS'its just the begining'
p57
aS'sleep not comingnetwork coming'
p58
aS'please follow back'
p59
aS'follow me back bro'
p60
aS'facebook is boring'
p61
aS'the best time to do a thing is the best time promise'
p62
aS'me on it kush'
p63
asS'2013_46'
p64
(lp65
S'this week on twitter 8 new followers 2 new unfollowers and followed 8 people via'
p66
aS'am in love'
p67
aS'please follow back'
p68
aS'that one password you use for everything and if anyone ever figured it out they could singlehandedly ruin your entire\xe2\x80\xa6'
p69
aS'go get some rest'
p70
aS'dont go through lifegrow through life \xf0\x9f\x98\x89'
p71
aS'spongebob need to just do the money dance in front of mrkrabs while fuck dat bitch play in the backgroundlol'
p72
aS'the final set piece is here'
p73
aS'please follow back'
p74
aS'theres no cool way to chase a bouncing ping pong ball'
p75
aS'morning peeps'
p76
aS'i wrecked the show call me a wreckster'
p77
aS'unless your name is google stop acting like you know everything'
p78
aS'hot box with a hot bitch eat the box before you get boxed out'
p79
aS'if you ever feel bad about yourself just think about the people who use their selfies as their lock screen or wallpaper'
p80
aS'am gonna fucking kill this myexams'
p81
asS'2013_47'
p82
(lp83
S'you carry fone enter exam hall with intention to cheatopens google types question loading3g offso\xe2\x80\xa6'
p84
aS'there are holes in my heart only food can fill'
p85
aS'youre my treasure let me treasure you'
p86
aS'where you dey'
p87
aS'guy you better follow back'
p88
aS'im me'
p89
aS'guy you better follow me back now'
p90
aS'taking a test b b b b b b hold up one of these has to be wrong'
p91
aS'this week on twitter 2 new followers 3 new unfollowers and followed 2 people via'
p92
aS'please follow back'
p93
aS'rt if you like tight pussy where when you stroking it it feels like its gripping your dick and wont let go and it be s\xe2\x80\xa6'
p94
aS'i need a hug right now also five hundred thousand dollars in cash'
p95
asS'2013_44'
p96
(lp97
S'o perfect love'
p98
aS'remember eat your school stay in drugs amp dont do vegetables ok'
p99
aS'live is no reharsal the camera is always rolling'
p100
aS'in church'
p101
aS'am high on vervain'
p102
aS'who goes there'
p103
aS'simply me'
p104
aS'oh no asuu why  beats by dre  so there wi\xe2\x80\xa6'
p105
aS'i get to see my female church wat do you like abt sundays mvpsundayquizvol5'
p106
aS'do you want a job that pays 750k month gives u a house and a benz s65 pays 4 ur vacation to paris kindly pinch ursef \xe2\x80\xa6'
p107
aS'for the weapons of our warfare are not canal but are made of nuclear weapons'
p108
aS'my dick makes me look like a freak'
p109
aS'dont stop keep it up'
p110
aS'this week on twitter 14 new followers 2 new unfollowers and followed 34 people via'
p111
aS'take me to sa and ill be ur sex slave'
p112
aS''
p113
aS'please follow back'
p114
aS'the symbol'
p115
aS'nice ass'
p116
aS'every womans dream'
p117
ag113
aS'life is short break the rules forgive quickly kiss slowly love truly laugh uncontrollably amp never regret anything that made you smile'
p118
aS'please follow back'
p119
aS'im so full\xf0\x9f\x98\xa9\xf0\x9f\x98\xa9\xf0\x9f\x98\xa9'
p120
aS'suits'
p121
aS'friends of life'
p122
aS'simply simple'
p123
aS'ill fuck you up like its the last am gonna do'
p124
aS'please follow back'
p125
aS'say hello to the man of the year promdestiny'
p126
aS'lmao omo belle season u gts double ur condoms'
p127
aS'nice boobs youve got you know'
p128
aS'if you are an artist please dont spam people with your music instead build friendships and the music can come later love peo\xe2\x80\xa6'
p129
aS'am still that badt guy you know'
p130
aS'what the fuck its monday'
p131
asS'2013_45'
p132
(lp133
S'hulk'
p134
aS'nice move'
p135
aS'lifes all about the money'
p136
aS'coke please is pepsi ok is monopoly money ok'
p137
aS'cocacola bottle sweet monalisa show me what you got stretch marks isi zebra'
p138
aS'i just dont know what to do anymore '
p139
aS'i love buying new things but i hate spending money'
p140
aS'this week on twitter 5 new followers one new unfollower and followed 3 people via'
p141
aS'ma nigga'
p142
aS'been in a bad mood all day so i treated myself to the drake jumper i wanted from hurry up post man \xe2\x9d\xa4\xef\xb8\x8f'
p143
aS'why are this bitches staring at me '
p144
aS'catch me if you can'
p145
asS'2012_44'
p146
(lp147
g113
aS'am ace'
p148
ag113
aS'pls ff back'
p149
aS'dude two more steps into finally becoming famous right'
p150
aS'i fucking worship at 4rm planet mars'
p151
aS'before u niggas tweet shit check out 4rm planet mars'
p152
asS'2012_47'
p153
(lp154
S'mufc beat skrapid 6  0 in the cup on soccermanager'
p155
aS'nice as twice'
p156
aS'gudmornin beautiful people its been a long long tym'
p157
asS'2013_30'
p158
(lp159
S'tutte le loro femmine sono pi\xc3\xb9 stronza'
p160
aS'porting things from mackie to allen amp heath from 32 to 40 channels'
p161
asS'2012_41'
p162
(lp163
S'got bored so tried drawing lana del rey turned out pretty shit'
p164
aS'no love lost no love found'
p165
aS'alhamdulillah ala kuli halin'
p166
aS'finished exams nd bout goin d fuck home'
p167
asS'2012_40'
p168
(lp169
S'my day was good'
p170
aS'exam tinz'
p171
aS'i miss home'
p172
aS'bitch i didnt fall i attacked the floor'
p173
aS'i would text oomf but all she gone she is why yen talkin to yo other hoe'
p174
asS'2012_43'
p175
(lp176
S'i love vavavoom'
p177
aS'barika de sallah but i dnt wanna c u guyz in my ouc oooo during christmas'
p178
aS'another hiv treatment breakthrough as south africa scientists discover solution'
p179
asS'2012_42'
p180
(lp181
S'get out of my way bitch'
p182
asS'2013_26'
p183
(lp184
S'former super eagles midfielder thompson oliha dies at 44'
p185
aS'i say alright  whatever or i guess when i dont feel like arguing\xe2\x80\x9d\xe2\x80\x9d'
p186
ag113
ag113
aS'besties'
p187
aS'promise 08080181829'
p188
aS'the lord is my witness fresh'
p189
aS'on the move'
p190
asS'2013_29'
p191
(lp192
S'am being truthful like its truth or dare'
p193
aS'hold me'
p194
aS'my night was nighty'
p195
aS'am at the finish line am a bolt'
p196
asS'2012_48'
p197
(lp198
S'video  jez wright  journey of a thousand miles competition  truspot'
p199
aS'video  jez wright  journey of a thousand miles competition  truspot'
p200
aS'the journey of a thousand miles starts tonite'
p201
aS'ny via'
p202
asS'2013_4'
p203
(lp204
S'i fly high am high'
p205
asS'2013_8'
p206
(lp207
S'she is as good as she is bad paradox ehn'
p208
asS'2012_32'
p209
(lp210
S'whenever i talk a lot and act crazy people tell me to stfu but when im quiet everyones always asking me wha '
p211
aS' '
p212
aS'pls follow back'
p213
aS'lwkmd truely u got no ass'
p214
aS'pls follow back'
p215
aS'lets have sex breathe for yes lick your elbow for no'
p216
ag113
aS'dis klass is boring ooooooo'
p217
asS'2012_52'
p218
(lp219
S'im not afraid of crying over rainbows'
p220
aS' the number one chelsea fan i know'
p221
aS'opam gangnam style'
p222
aS'you think youre better than not knowing that he is better than you in everything'
p223
aS'pls stop yarning balls you god forsaken bastard 4rm the rotten depths of hell'
p224
aS'you are soo awesome i worship the ground that you walk on'
p225
aS'follow back yea'
p226
asS'2012_50'
p227
(lp228
S'rofl rt oo wtf gt'
p229
aS'wtf'
p230
aS'mention dem'
p231
aS'ur name na dirt abi'
p232
aS'some songs are lullaby to my ears'
p233
aS'rt nigga imma have the ping pong table setup in the dressing room when u touch frisco maynelets get '
p234
aS'big fat nigga all that huffing amp puffing'
p235
aS'baba agbalagba'
p236
aS'i want to knw more'
p237
asS'2012_51'
p238
(lp239
S'meet me at 12midnight in the abandoned house down the street bring a pillowpopcorn and all your vampire diaries cds'
p240
asS'2013_11'
p241
(lp242
S'drop the word bitch'
p243
aS'she has been laying there all night expecting me to do something fuck off bitch you aint my type'
p244
asS'2013_10'
p245
(lp246
S'am up and going bitch'
p247
asS'2013_13'
p248
(lp249
S'follow back please'
p250
aS'na only for 9ja you go see fish inside meat pie'
p251
aS'them niggas be like what'
p252
asS'2013_12'
p253
(lp254
S'i will be like a passer by wtf'
p255
aS'hi'
p256
aS'the reason for living is living for a reason facts'
p257
aS'myogaatthetop'
p258
aS'teamwaragainstuglygirls give the pretty ones a break'
p259
asS'2012_38'
p260
(lp261
S'ask google'
p262
aS'laughing my ass out'
p263
aS'receiving good ass head wyd \xf0\x9f\x98\xb3 wait \xf0\x9f\x98\xa8 hold on \xf0\x9f\x98\xa0 wait \xf0\x9f\x98\x81 oh damn \xf0\x9f\x98\x8c shit \xe2\x98\xba oh it feels so good \xf0\x9f\x98\x9a right there \xf0\x9f\x98\x9d '
p264
asS'2013_14'
p265
(lp266
S'virgin n proud 2k13 savin it 4 marriage l unavailable ll off limits xd 1 l'
p267
aS'why is it you always like the people who dont like you back'
p268
aS'best time ever'
p269
aS'hummm toast toh haaaaa obirini wnt call u old skul later if dts ur fearna ti '
p270
asS'2013_17'
p271
(lp272
S'badman tinn yea take it rt if u dont give it to me ah momaku unilagolodo sho man fagb\xe2\x80\xa6'
p273
aS'some people just have something indefinably special about them and you know theyre a libra'
p274
asS'2013_16'
p275
(lp276
S'bitches be trippin tho lol you mad at me for what excuse me did i miss something did i fuck you and forgot to call \xe2\x80\xa6'
p277
aS'i only look unto god baba god bonjour'
p278
aS'cupcake girl is the best song ever'
p279
aS'everyone is a freak it just takes the right person to bring the freak in them out'
p280
aS'baby you should give some more '
p281
ag113
aS'wow gt ht '
p282
aS'fucked that bitchs pussy like a sentence from the subject to the predicate'
p283
aS'am faded what'
p284
aS'pls follow back'
p285
aS'ok so left her pinger up on tessas phoneamptell me y this bitch was sendin all kinds of naked pics '
p286
aS'the reasons why she loves black girls tho gtgtgtgtgtgtgtgt \xf0\x9f\x98\x8d\xf0\x9f\x98\x8f'
p287
aS'she love my bottom lip '
p288
aS'pls follow back'
p289
aS'then i put a fat rabbit on the craftmatic'
p290
aS'pls follow back'
p291
aS'havent had much to do lately getting pissed by that wtf'
p292
asS'2012_34'
p293
(lp294
S'pls follow back'
p295
aS'it was rockin till the end'
p296
aS'i want 2 eat ur pussy'
p297
asS'2012_35'
p298
(lp299
S'my life is fcuked right now'
p300
aS'tongue her till she cums'
p301
aS'your brain burns around 300 calories a day and burns slightly more calories when you think harder'
p302
aS'kkkkk'
p303
aS'say money no be problem'
p304
aS'is dat ture'
p305
aS'i hate afmag'
p306
asS'2012_36'
p307
(lp308
S'it came in handy'
p309
aS'all i want fo my birthday is a big booty hoe'
p310
aS'tomorrow is suicide awareness day so all show your support by writing love on your wrist for people who have commit '
p311
aS'am a spy'
p312
aS'popping up sometins'
p313
aS'going 4 a nite party see yall later'
p314
aS'the world \x05is full of bitches'
p315
aS'pls follow back'
p316
aS'i fucked her d ground and came all over d place'
p317
aS'ama do dat 4 ya'
p318
aS'she licked me like a lollipop'
p319
aS'service problems'
p320
aS'totally fucking give up tried didnt i just wasnt fucking good enough'
p321
aS'go chop grass'
p322
aS'life is a reharsal d camera is alwayz rollin'
p323
asS'2012_31'
p324
(lp325
S'in church'
p326
aS'10favouritecartoon madagascar 2 '
p327
aS'she dancin azonto'
p328
aS'listening to drakes songs puts me in a good mood'
p329
aS'i am tweeting from my phone via mozat get it for free from my pin is m14tsfg'
p330
ag113
aS'my armpit is wet and smelling and i like dick'
p331
aS'im gunna feel so lost after the olympics have finished '
p332
aS'pls follow back'
p333
aS'life is a dick it gets hard sumtyms 4 no reason'
p334
aS'pls follow back'
p335
aS'pls follow back'
p336
aS'pls follow back'
p337
aS'pls follow back'
p338
aS'g'
p339
aS'who goes there'
p340
aS'she is makin me go gaga'
p341
ag113
aS'at my swthearts house'
p342
aS'my gurl says am alwayz horny'
p343
asS'2013_39'
p344
(lp345
S'man u fans lets encourage ourselves well know where its gonna end number 21 on the way'
p346
aS'just saw the trailers for ride along about last night amp grudge match congrats little man you aint little an\xe2\x80\xa6'
p347
aS'hi dear'
p348
asS'2012_33'
p349
(lp350
S'pls follow me'
p351
aS'i wanna sleep'
p352
aS'yes'
p353
aS'pls follow back'
p354
aS'pls follow back'
p355
aS'dont trust me on dat'
p356
aS'yeuhd'
p357
aS'jde'
p358
aS'amen '
p359
aS'someday someone will walk into your life and make you realize why it never worked out with anyone else'
p360
aS'i bet u tink'
p361
aS'what what do u tink ure doin '
p362
asS'2012_39'
p363
(lp364
S'be a part of my life by fuckin d hell out'
p365
aS'if u ar nt standin 4 anitin u r fallin 4 sumtin'
p366
aS'see all the gals on top this young millionaireroleys on d wrists hes defo badder thanall of us ooo'
p367
aS'they say love is the key can sumone please change the lock'
p368
aS'to be old amp wiseyou have to be young amp stupid'
p369
aS'my chick is a bitch 4 fuckin her cousin'
p370
aS'aw u do people'
p371
aS'next time you think i give a fuck remember the 3 fs if you aint feeding me financing me or fucking me i don '
p372
aS'a hoe makes a nigga cum a bad bitch makes a nigga come out his pocket but a real woman makes a nigga come home'
p373
aS'if my name in yur mouth then obviously im doing something right '
p374
aS'need 2 smoke some wana'
p375
as.