(dp0
S'2013_42'
p1
(lp2
S'this is what iron amp wine does to my dog chilllifestyle'
p3
asS'2013_43'
p4
(lp5
S'new 43 suit and booties bringonthecold'
p6
asS'2011_19'
p7
(lp8
S'i love my power glove its so bad'
p9
asS'2013_41'
p10
(lp11
S'glory days 5652 found this whole cleaning my filling cabinet apizzzzzzzz'
p12
aS'thank you fat for welcoming me back someoneshouldhavelosttheirjobforthat'
p13
aS'much respect never forget its their home and its at their mercy that we leave fearamplove'
p14
aS'me and my little beauty precious'
p15
aS'having a blast under the sea at seaworld'
p16
aS'another successful day'
p17
aS'major babe alert lovemylife lovemylife'
p18
aS'say hello to my little friend overusedquotes'
p19
asS'2012_29'
p20
(lp21
S'i normally due but every now and then when i want to feel alittle more tropical i add rum instead'
p22
aS'why is the rum always gone margaritatime'
p23
aS'thanks but you are a tad late there my dear thank goodness im mot suicidal or i would be dead by now  sheis20dayslate'
p24
aS'dont you post my sayings about you im glad you choose this one and not the sayings i say late at night to you'
p25
asS'2013_44'
p26
(lp27
S'my awesome wife bought my surfboard a sock ithinkshelovesme'
p28
asS'2013_45'
p29
(lp30
S'if you ever wonder what i listen to at workwhich i know you have here is a playlist ive been making whenever i h\xe2\x80\xa6'
p31
aS'already missing the water freewave whoislaynemeadows'
p32
asS'2010_51'
p33
(lp34
S'8bit kid dead space 2 demo is now on psn and live'
p35
aS'8bit kid bulletstorm dev diary story and characters'
p36
aS'nine inch nails in new crysis 2 trailer trailer'
p37
asS'2013_24'
p38
(lp39
S'reminiscing about the wall in san simeon freewave whoislaynemeadows'
p40
asS'2011_2'
p41
(lp42
S'one of my favorite video games and one of my favorite bands 8bit kid deadspace 2 launch trailer'
p43
aS'hey you created me i didnt create some loser alterego to make myself feel better take some responsibility mr durden'
p44
aS'only four more hours than ill be out of class and then another day of snowboarding tomorrow'
p45
aS'do you mean tricky because that was the good soundtrack ill get back to you on mine though'
p46
aS'does any one remember what it was like to have gamer thumb'
p47
aS'nintendo  a sad story children of the nes please'
p48
aS'well you better get calling because you are going to have to do some begging'
p49
aS'they as your employers or they as in the las vegas powers'
p50
aS'i could use some vegas'
p51
aS'oh gotta love the deltron'
p52
aS'today is our five year fire alarm test at work   awesome'
p53
aS'just realized i have a big head arrogant  maybe but also a literal large cranium'
p54
asS'2011_1'
p55
(lp56
S'8bit kid homefront fight for freedom'
p57
aS'cup number 6 of coffee and still cant stay awake'
p58
asS'2011_7'
p59
(lp60
S'the most heartbreaking zombie video game trailer youll ever see'
p61
asS'2009_5'
p62
(lp63
S'did a quick post on the site'
p64
aS'why do they call it philosophy why not just call it give you an a for your opinion'
p65
aS'laughing about my brothers blog post about one of our regulars he didnt use his name just described him perfectly nice one bro'
p66
aS'wwwbyproductsofthenewmachineblogspotcom'
p67
aS'just started a blog dont expect to much from it but you should check it out ill be posting my art sometime music and video games'
p68
asS'2013_22'
p69
(lp70
S'the view until the sun rises again'
p71
aS'cooks stadium has a couple more dodger fans in it coors field'
p72
aS'oh man who knows it still snows in may copper mountain in colorado'
p73
aS'reaching warp speed with'
p74
aS'utah dont know why i wrote it like that it is not exciting'
p75
aS'made a run for the california border with'
p76
aS'woke up from a mid day nap and the is what brought me home newwardrobe shinebright'
p77
asS'2013_23'
p78
(lp79
S'drying the wet suits freewave cambria'
p80
aS'waves bound with freewave amp layne'
p81
aS'about to sneeze'
p82
asS'2012_26'
p83
(lp84
S'ive hit one of those moments when you feel like you will accomplish nothing in life not a good feeling'
p85
aS'the notebook gets me everytime'
p86
asS'2011_9'
p87
(lp88
S'looking for actors in fresno who would want to act in student film here is more info'
p89
asS'2013_5'
p90
(lp91
S'found the problem on my motorcycle buried underneath it all she is officially up and running again'
p92
aS'just got done pimping my ride snowboarding lovesnow'
p93
asS'2013_4'
p94
(lp95
S'date nate with the wife watching the xgames'
p96
asS'2013_1'
p97
(lp98
S'starting the new year right'
p99
aS'new wax job on my babys lower half soooo smooth'
p100
asS'2013_2'
p101
(lp102
S'baby its cold outside'
p103
aS'look at what came in the mail today snowboarding redbull'
p104
asS'2013_9'
p105
(lp106
S'thank you dontmesswiththeest for leaving some seaweed for me to snack on at my house'
p107
asS'2011_22'
p108
(lp109
S'woke up at 630 on my day off and im not dissapointed is something wrong blamestarbucks'
p110
asS'2010_47'
p111
(lp112
S'china peak opens this friday '
p113
asS'2011_20'
p114
(lp115
S'well thank you i loved the swedefest video'
p116
aS'here is a short film i did with rafael rodarte last semester enjoydrowning hypothetically 03'
p117
asS'2011_21'
p118
(lp119
S'just got home from camping in the rain digging taking a shower dirty'
p120
aS'writing a paper on steinlen'
p121
asS'2011_25'
p122
(lp123
S'fpu is driving me crazy '
p124
asS'2011_29'
p125
(lp126
S'no says the man in my wallet it belongs to netflix'
p127
asS'2012_17'
p128
(lp129
S'i see what youve done with the hash tag clever '
p130
aS'walk off homer for the in bottom of the 10th to straight away center kemvp'
p131
asS'2010_44'
p132
(lp133
S'my mom just told me i did the jr rotc growing up because she didnt think i was college material thanks mom'
p134
aS'8bit kid black ops with kobe and kimmel'
p135
aS'outlaw the sale of all deviant video games what a bunch of old people'
p136
aS'8bit kid new dead space 2 video'
p137
aS'better question is do you remember aol'
p138
aS'whatever man herndon is shut down making it impossible to get to my apartment quickly'
p139
aS'8bit kid california vs video game violence'
p140
aS'8bit kid best ps2 game of all time enjoy'
p141
aS'no were is it'
p142
aS'i rode across town to find out my class was canceled thats cool now what do i do for an hour before work in south fresno'
p143
asS'2012_12'
p144
(lp145
S'your picture has a baby golf club in the background and im pretty sure youre in a baby chair time for new profile pic'
p146
aS'i thought you played some on gameboy'
p147
aS'got it just started playing finalfantasyiv did you beat that one'
p148
aS'yea i dont rember when the new pack is coming out does have bf3'
p149
aS'i didnt know the maps were out for bf3 and i havent purchased any mw maps ive been playing it off and on'
p150
aS'what do you mean why'
p151
aS'got it well have fun with that what kind of company are they'
p152
aS'just work school and fixing up the house what do they have you working on now'
p153
aS'what have you been up to my brother '
p154
aS'got to class today to find out there was no class today thatslife'
p155
asS'2011_42'
p156
(lp157
S'acrycrilic nails'
p158
aS'my allegiance is to battlefield 3 in gamespots world war 3 pledge your allegiance gamespotww3 bf3'
p159
asS'2011_43'
p160
(lp161
S'yes please'
p162
asS'2012_52'
p163
(lp164
S'im a nerd 4 life fyi this is most of my xbox collection not my other consoles nerd4life gamer'
p165
aS'look what my brother got me for christmas to get me ready for the season ssx snowboarding ignium'
p166
aS'got a new snowboard this year hopefully i wont go break another and go 3 for 3 newseason snowboarding '
p167
asS'2010_46'
p168
(lp169
S'love me the revolution 8bit kid dues ex human revolution new gameplay trailer'
p170
aS'excessive violence filtyhy one liners and amazingness  reserved copy 8bit kid bulletstorm epicness bulletstorm'
p171
aS'8bit kid why kinect will sell'
p172
aS'8bit kid rockstars la noire enjoy people'
p173
aS'first skype meeting at work man im living the dream'
p174
asS'2010_45'
p175
(lp176
S'8bit kid my hit and run'
p177
aS'8bit kid sorry activision doesnt like the truth'
p178
aS'yep almost feel right into the side of my friends car'
p179
aS'ignore the spelling and the mistakes still a bit upset'
p180
aS'and'
p181
aS'fyi dont ever park a motorcycle in a parking spot idiots will just hit it with there car a leave '
p182
aS'8bit kid call of duty black ops already hacked'
p183
asS'2012_51'
p184
(lp185
S'some of the wifes presents are wrapped'
p186
asS'2010_43'
p187
(lp188
S'i second this rant we are looking at you treyarch'
p189
aS'you would only be so lucky people pay top dollar for that kind of service'
p190
aS'oh i was i felt it sliding and then it was sliding no more i watched it spew out my essence of life all over peoples cars'
p191
aS'i rode my motorcycle home last night which led to my coffee cup falling out on the free way sorry if it hit anyones car'
p192
asS'2010_42'
p193
(lp194
S'8bit kid castelvania lord of shadows review'
p195
aS'writing a paper on analysis of non chronological story telling in forrest gump think i understand but could use some ideas'
p196
aS'i started spewing my knowledge of hubspot and how the whole thing works i think i saw her eyes glaze over for a bit'
p197
aS'just exposed my geekyness to my advertising and promotions teacher  sigh'
p198
asS'2010_41'
p199
(lp200
S'time to hang out with mi esposa '
p201
aS'just put up my impressions on the dead space 2 multiplayer beta give it a looksy if your interested'
p202
aS'finally getting my motorcycle back today big ups to my dad for doing the work on it'
p203
aS'just got home from schoolstarted at 9 this morning 3 midterms later im finely home to take a shower and go to sleep only 65 tell work '
p204
aS'sorry i have to go to work then school'
p205
aS'1 ritalin3 hours 13 page paper an hour of research on prefrontal cortex research on 7 bands 1 omlet and studding for midterms'
p206
aS'absolutely mesmerizing maybeshewill not for the want of trying you have to listen to it all the way through'
p207
aS'happy birthday fresno it has been a love hate relationship but you made me who i am today happy 125'
p208
aS'thanks guys ill never eat spaghettios the same because of you'
p209
aS'i wouldnt mind that you guys are great keep up the podcast'
p210
aS'ohh winter your sweetness is so close any body else ready for snow'
p211
aS'forgot to take something to eat and pepto   today is going to be a long day'
p212
asS'2010_40'
p213
(lp214
S'just finished my presentation for my ancient art history class glad its over fyi i am not a very good public speaker'
p215
aS'johnny depp deserves some props i like it when they dont care themselves'
p216
aS'omg is it bad i want to eat all of these'
p217
aS'omg some of these look delicious and some even better'
p218
aS'forgot to tweet this yesterday but i was on the receiving end of an old mans middle finger fiesta i was crying it was so funny'
p219
aS'why thank you you mr carrera i always new you were my favorite brother for some reason'
p220
aS'wow nothing to finish off your day like some homework gotta love giving presentations in class'
p221
aS'oct 931 get a load of this'
p222
aS'so when are you guys going to do the the corn maze'
p223
aS'tell to get off me about my lack of social media finesse'
p224
asS'2013_37'
p225
(lp226
S'2 things that get me through the day ritalin and coffee now they both need to kick in'
p227
asS'2012_34'
p228
(lp229
S'seriously had a fhll on thirty min daydream about snowboarding today endalreadysummer'
p230
asS'2013_18'
p231
(lp232
S'i think kemp is up to bat ignium559 atampt park'
p233
asS'2012_33'
p234
(lp235
S'listening to a brit and and old american complain about the status of the usa quite entertaining and mostly true on all points'
p236
asS'2011_3'
p237
(lp238
S'8bit kid crysis 2 multiplayer announcement'
p239
aS'in a company meeting right now not really in the mood'
p240
aS'just realized early i described myself as built like a brick   thats not flattering at all'
p241
aS'rt mr rogers demon clown'
p242
aS'had those days before'
p243
aS'anybody want to join me in retiring early'
p244
aS'what video games are you wanting to get in 2011'
p245
asS'2010_10'
p246
(lp247
S'so are you going to tell me the secret'
p248
asS'2010_38'
p249
(lp250
S'my zune has officially been changed from an mp3 device to a brick sigh  '
p251
asS'2011_36'
p252
(lp253
S'it think it was worth it solid bray player followed by solid exclusives  win'
p254
aS'bf3 is 1280x704 on both ps3 and 360 removing a few lines from 720p saves good perf  memory for us'
p255
asS'2009_4'
p256
(lp257
S'watching the office and it is making me feel so good inside'
p258
aS'trying to figure out how im going to get money for the wedding starbucks doesnt give time or money'
p259
as.