(dp0
S'2011_19'
p1
(lp2
S'site design'
p3
aS'designing to music mmmm sweet daftpunk'
p4
aS'i hate waking up at 56am mornings'
p5
aS'spruik design'
p6
aS' thanks for the skype mac heads up i never liked the new skype anyways'
p7
aS'turns out ramin is right ill be a patient student and wait for his classes but as for photoshopthats all mine fingerpyramidofdoom'
p8
asS'2011_22'
p9
(lp10
S'yum'
p11
asS'2012_48'
p12
(lp13
S'the new itunes looks pretty badass nice work apple'
p14
asS'2011_45'
p15
(lp16
S'there was a guy streaking at the skyrim midnight release lol'
p17
asS'2012_44'
p18
(lp19
S'will the planets have random monsters each time we visit it or does the planet have some sort of monster barcode when its made'
p20
asS'2012_47'
p21
(lp22
S'beautiful keep up the good work'
p23
aS'hey man sick as all hell lately it\xe2\x80\x99s been getting worse 7 months of waiting for a specialist but i\xe2\x80\x99m working again'
p24
aS'mac app bundle sale including 6000 fonts for only 4999  designers killerdeal'
p25
asS'2012_46'
p26
(lp27
S'i have reason to believe the \xe2\x80\x9cjump factor\xe2\x80\x9d of scary movies increases tenfold when you\xe2\x80\x99re tired'
p28
asS'2012_41'
p29
(lp30
S'go go go'
p31
aS'hey what programapp do you guys use to watch your highspeed recordings curious'
p32
aS'disclaimer not final animationsound  the chunks will be preloaded when landing on the planet by fina '
p33
aS'well heres a digital highfive for all the amazing work you all are doing over at chucklefish highfive  cantfreakingwait'
p34
aS'any chance of a sneaky peak'
p35
asS'2012_40'
p36
(lp37
S'just a heads up to os x users don\xe2\x80\x99t uninstall quicktime mov opens in grapher and a whole bunch of crap doesn\xe2\x80\x99t work anymore oops'
p38
asS'2011_15'
p39
(lp40
S'word of notch 15 next week via'
p41
asS'2012_42'
p42
(lp43
S'keep up the good work i\xe2\x80\x99m digging your art style'
p44
aS'i\xe2\x80\x99m bored sick as a thousand blechs and my new domain isn\xe2\x80\x99t working gt whatelsecouldgowrong'
p45
aS'keep up the good work starbound is easily my most anticipated game since ocarina of time back in the day'
p46
aS'just watched tutorial looks amazing i just wish i could play  i guess i\xe2\x80\x99m stuck awaiting the release'
p47
aS'redesign a very welcome change clean and effective'
p48
aS'  just got tweetbot 10 off the app store congratulations guys'
p49
asS'2011_3'
p50
(lp51
S'i approve of this'
p52
aS'a pretty crude remake of indiana jones with minecraft blocks be kind  oh and i added in jam '
p53
asS'2011_7'
p54
(lp55
S'forest bride shoop'
p56
aS'dude that game is wicked awesome scary as hell though oo'
p57
aS'word of notch the word of notch via'
p58
aS'check this video out  mcrolld via'
p59
aS'brand new minecraft bg homemade  awesome'
p60
aS'hehe d'
p61
asS'2011_6'
p62
(lp63
S'everyone who has never been so far as to be without even though it has been indeed'
p64
aS'lol'
p65
asS'2012_29'
p66
(lp67
S'your quest system is beyond awesome very very pleased'
p68
aS'cant wait to test my mettle with a sylvari necromancer'
p69
aS' when can we see a prototype of these guys'
p70
asS'2012_28'
p71
(lp72
S'congrats cant wait to see how this turns out 3'
p73
aS'now i get to stare at pretty splash screen until the end of august patientlyimpatient'
p74
aS'the binding of isaac is on for 124 on steam right now if you dont have it already get it'
p75
asS'2012_27'
p76
(lp77
S'licorice has to be the greatest tasting but disgusting looking icecream out there good choice'
p78
aS'just wondering how are those two guys controlling the events'
p79
aS' i cant wait'
p80
aS'congrats for the lawsuit dismissal justice'
p81
aS'the nebulon engine'
p82
asS'2012_26'
p83
(lp84
S' how do you guys feel about the current diablo crisis curious'
p85
asS'2012_24'
p86
(lp87
S'thanks cant wait i also second the friends list and easy server'
p88
aS'hey do you know the system requirements for the game in its current state i know youve been testing on older platforms curious'
p89
aS'oh hey its raining in starbound '
p90
asS'2012_23'
p91
(lp92
S'i second that notion'
p93
aS'keep up the good work im very much looking forward to the end of summer omgicantwait'
p94
asS'2011_52'
p95
(lp96
S'new computer bigger and 3x as powerful as my old one time to get some badass tutorials out finally'
p97
asS'2013_4'
p98
(lp99
S'of monsters and men  damn good design music'
p100
asS'2011_8'
p101
(lp102
S'happy 25th link '
p103
aS'howdy'
p104
asS'2013_1'
p105
(lp106
S'were working on oceans theyre so pretty'
p107
aS'try out the web version of our character creator   once site stress testing ends p'
p108
aS'get this thread to a million hits and well release our webbased starbound character generator '
p109
aS'happy new year guys lets make 2013 starbounds year'
p110
asS'2013_3'
p111
(lp112
S'they should make frootloops flavoured milk'
p113
aS'gametrailers has posted our official open beta trailer'
p114
asS'2013_2'
p115
(lp116
S'on that note the game looks just as sexy on a lower resolution right'
p117
aS'well the site is still down i guess a lot of people want free photoshop'
p118
aS'grab yourself a free legitimate copy of photoshop and the rest of the creative suite 2 right now'
p119
aS' i\xe2\x80\x99d bet looks pretty damn sexy on that thing '
p120
aS'way to go ggg rt were up to 150 diamond packs purchased so far thats a lot of unique items'
p121
asS'2011_28'
p122
(lp123
S'ragahhhhh killingfloor'
p124
aS'time for some latenight killingfloor to get me ready for bed awesomesawce'
p125
aS'i could take 44 baboons in a giant dildo fight via'
p126
aS'late night omelet dericous'
p127
asS'2011_46'
p128
(lp129
S'so now im a vampire in skyrim'
p130
asS'2011_23'
p131
(lp132
S'attention internets the battle of lil slugger ch1 boss track hits rock band on june 9th'
p133
asS'2011_21'
p134
(lp135
S'i lold'
p136
aS'foo'
p137
aS'i can see youuuu'
p138
asS'2011_26'
p139
(lp140
S'bringing my wife home today'
p141
aS'a few more hours and ill be off to get my fianc\xc3\xa9e'
p142
aS'whooopwoopwopwoooop'
p143
aS'everything in life its not about whats fair its what abouts negotiated wise words from my law teacher'
p144
aS'the moment i sit down my nose gets plugged again apeshitallergies'
p145
aS'todays tutorial will be one suggested to me scanning and coloring in photoshop'
p146
aS'firefox is a ginger rt hilarious illustration of the current web browser war lol  firefox ch '
p147
asS'2011_27'
p148
(lp149
S'off to the berryfestival with my fiancee'
p150
aS'school is done for a whole week'
p151
aS'i always do this at the movies  the oatmeal via'
p152
aS'how to fix any computer  the oatmeal via'
p153
aS'how a web design goes straight to hell  the oatmeal via'
p154
aS'abusement park baby killingfloor event on now'
p155
aS'circus event on killingfloor holy crap'
p156
aS'your pants are on fire'
p157
aS'rendering the final scene of our tornado clip'
p158
aS'well thanks for the likes guys  i didnt expect any to accept i just did the email thing so the get started'
p159
aS'tutorials to come'
p160
aS'also when abouts'
p161
aS'second'
p162
aS'you guys get a lot done sorry i wasnt there i didnt even know you guys were at bcit sadface'
p163
aS'has happened to me too randomly kinda scary '
p164
aS'yeah youre right we cant wait'
p165
aS'city hall confused'
p166
asS'2011_24'
p167
(lp168
S'when life gives you lemons throw them at the elderly'
p169
asS'2011_25'
p170
(lp171
S'looks like the next super meat boy rock band track is releasing today on the rock band network'
p172
aS'terraria 105 is out today go enjoy all the new stuff awesome'
p173
aS'are you a comic sans criminal theres help available for you via'
p174
aS'is it bad that listening to zelda music calms me down and soothes my mind'
p175
aS'so just after creating a tornado in after effects i see a large ominous cloud off in the distance fun'
p176
aS'just got a wonderful comment from my aftereffects teacher '
p177
aS'thanks for the blessing f'
p178
aS'gorgeous day in burnaby'
p179
aS'you like dark chocolate right dark truffles are not my forte'
p180
aS'new twitter bg coming along nicely'
p181
aS'neat '
p182
aS'a crow just smacked into the classroom window birds ok and flew away teacher was a bit disturbed'
p183
aS'attempting to set up my zentuts website but wordpress is being a pain d'
p184
aS'im bored also social media'
p185
aS'im at bcit two hours early cause im bored and i can photoshop'
p186
aS'new phone o ill actually be in contact for once'
p187
asS'2012_4'
p188
(lp189
S'have you restarted photoshop since the installation of the new fonts'
p190
asS'2012_6'
p191
(lp192
S'omg yes how adorably impractical'
p193
asS'2012_7'
p194
(lp195
S'15 more enemies to add then its on to bosses and around 800 new rooms for the new chapters in the isaac expansion'
p196
asS'2012_3'
p197
(lp198
S'stop sopa'
p199
aS'and youtube etcetcetc'
p200
aS'the internet will cease to exist ergo die if sopapipa passes'
p201
asS'2012_16'
p202
(lp203
S'16 gigglybits of ram are on their way to me squee superspeed owc'
p204
aS'how to increase illustrator save times  but with a cost adobe'
p205
asS'2012_17'
p206
(lp207
S'my current background'
p208
aS'i got a sunburn on a cloudy day wtf paleskin'
p209
aS'my very first iphone background and unlock screen designs design fun'
p210
aS'pathfinder6 woot new pathfinder wicked fast and smooth nice improvements guys'
p211
asS'2012_14'
p212
(lp213
S'the cpu improvements but for my absolute top contentaware patch tool awesome'
p214
asS'2012_15'
p215
(lp216
S'good heavens 16gb of ram is only 200 kasdhabdkansd time to upgrade otherworldcomputing'
p217
aS'hey dude which screen recorder do you use i need a really good one for my pc price isnt much of an obstacle'
p218
aS'damn right you did collectors'
p219
asS'2011_40'
p220
(lp221
S'one more day preparetodie'
p222
asS'2012_50'
p223
(lp224
S'is the bltc down it wont open '
p225
aS'600 a year seems a little expensive and i was just about to buy the production premium'
p226
aS'is there no chance we can get these features this seems a little ridiculous'
p227
aS'seconded this can\xe2\x80\x99t be true '
p228
aS'hey  i\xe2\x80\x99m trying to learn lua got any resourceswikistutorialsprograms to help me out thanks guys gostarbounders'
p229
asS'2012_51'
p230
(lp231
S'this rt this sums it up really'
p232
asS'2011_48'
p233
(lp234
S'hey its alive under a new site name i thought using my name would be more professional yeah'
p235
aS'terraria 11 oh my gawd my mind is poofed'
p236
asS'2012_18'
p237
(lp238
S'here have a nice sublet texture background 1920x1200 textures simple'
p239
asS'2012_19'
p240
(lp241
S'can you maybe help me out im having a weird minecraft server problem asked on the forums and i was ignored'
p242
asS'2013_11'
p243
(lp244
S'words 2 a brand new take on reading later'
p245
asS'2012_38'
p246
(lp247
S'ok you should be safe typically it\xe2\x80\x99s a fb vid that you can\xe2\x80\x99t watch because of an outdated flash version scan just in case'
p248
aS'did you try to get the flash update '
p249
aS'if i\xe2\x80\x99ve sent you any fb links don\xe2\x80\x99t click them i\xe2\x80\x99ve hacked by a bot with horrible grammar'
p250
aS' is there any way to show items without trading'
p251
aS'dear  good job on doing everything right torchlight2'
p252
asS'2012_34'
p253
(lp254
S' ah very cool i thought it had to do with starbound mechanics is there a tiredness meter'
p255
aS'what is this \xe2\x80\x9cverysleepy\xe2\x80\x9d you speak of'
p256
asS'2012_35'
p257
(lp258
S' i bought the double income and 99\xc2\xa2 boss i reinstalled after a freeze and lost both what do i do'
p259
aS'ipad giveaway time just retweet this to be entered winner will be announced tomorrow alsostay tuned for labor day dea '
p260
aS'is down watching in the meantime'
p261
aS'can\xe2\x80\x99t click anything in  restarting the client worked'
p262
asS'2012_37'
p263
(lp264
S'i heard it was your birthday have a good one'
p265
aS'something big is coming to terraria\xe2\x80\xa6 what do you think well be revealing tomorrow'
p266
asS'2012_30'
p267
(lp268
S'does anyone use  im interested but skeptical '
p269
aS'im happy so far no bugs as of yet still using pathfinder  whats next on the update list'
p270
aS' keep up the good work you guys cant wait for 13 3'
p271
asS'2012_31'
p272
(lp273
S'  its 330 am and i cant sleep can you send me a random monster to cheer me up insomnia'
p274
aS' are you kidding me i cant even beat the second floor iheartroguelikes'
p275
aS' we can have a preview maybe zoidbergs voice'
p276
aS' when you move your mouse the screen follows a little bit is there a way to disable it'
p277
aS'hey is there any way to disable the scrolling mouse feature in wanderlust '
p278
aS'very cool '
p279
asS'2012_32'
p280
(lp281
S' really i have a feeling this game is going to have a ridiculous attention to detail level or is that an enemy\xe2\x80\xa6'
p282
aS'this is definitely my favourite creature so far starbound'
p283
aS'hey maciphone users if you\xe2\x80\x99re not using tweetbot  you\xe2\x80\x99re not tweeting correctly besttwitterapp'
p284
aS'quick how long is the stress test '
p285
aS' any way to sync what i\xe2\x80\x99ve read between mac and iphone tweetbot  so i can pick up where i left off on either one'
p286
aS'nah dude i still want to play starbound'
p287
aS'rt inspiration for the new zombie villagers'
p288
aS'arrghehh just kidding slightly impatient though'
p289
aS' can you send me the specs of the air'
p290
aS'hey  any idea why when i fail to join a server my launcher gets an end of stream until i restart the client macbook pro ml'
p291
aS' i just realized something\xe2\x80\xa6 that goes deeper'
p292
aS'looks killer i\xe2\x80\x99m getting more and more excited as the days crawl by'
p293
aS'imminent lightning storm possible internet failure what am i going to do freakingout'
p294
aS' any idea why the mac tweetbot doesn\xe2\x80\x99t save the window layout when it\xe2\x80\x99s closed my main timeline changes to a list when closed'
p295
aS' that made my brain hurt i haven\xe2\x80\x99t mathed like that in a few years'
p296
aS'would you happen to have a gun demo in the near future it\xe2\x80\x99d be cool to have an idea of how they work do they release light'
p297
aS'i just had this problem and figured it out look at the bottom of the new panel it has a subtle handle pull it'
p298
aS'totally in love with your tweetbot mac client it might be an alpha release but it\xe2\x80\x99s super cool keepupthegoodwork'
p299
aS' minecraftdevelopmentmodel being used in upcoming dayz standalone by and'
p300
aS'dayz is going standalone sticking with and using the minecraft development model'
p301
asS'2012_33'
p302
(lp303
S'no the diablo iii setupapp doesn\xe2\x80\x99t even start i downloaded it from my account page if that helps'
p304
aS'hey  and idea why the diablo3 mac installer won\xe2\x80\x99t open on mountainlion  i would like to play i\xe2\x80\x99ve repaired permissions'
p305
aS'i\xe2\x80\x99m bored out of my mind what does one do on a 7 month sickleave\xe2\x80\xa6 bored loosingmymind'
p306
aS'mountainlion integrated twitter cool'
p307
aS' any idea why minecraft crashes when i hit the \xe2\x80\x9cquit game\xe2\x80\x9d button osxmountainlion'
p308
aS'yay my windows now restore to timeline instead of a random list'
p309
aS' any insight on how the coords sharing will work serverside hiveserver database '
p310
asS'2011_10'
p311
(lp312
S'classic not classy'
p313
asS'2011_29'
p314
(lp315
S'i second that notion crazy but you gotta love him'
p316
aS'i have purchased super meat boy for my pc will i get the mac version at no cost justwondering'
p317
aS'its only core duo that wont work core 2 duo is fine'
p318
aS'you getting lion i think im getting it later tonight after some research'
p319
aS'why yes yes it is'
p320
aS'1 is backed to port mann ye be warned sadface lateforclass'
p321
asS'2011_12'
p322
(lp323
S'check this out'
p324
aS'mumford  sons good design music '
p325
aS'pffahaha this cracketh me up x'
p326
asS'2011_37'
p327
(lp328
S'what was that link supposed to be\xe2\x80\xa6'
p329
aS'heading home in a few gonna go kill some zambies deadisland'
p330
asS'2011_36'
p331
(lp332
S'great thanks for the info '
p333
aS'so whats your opinion on the 18 beta leak can we dl and play it'
p334
asS'2011_31'
p335
(lp336
S'germany vs facebook of the day via'
p337
asS'2011_30'
p338
(lp339
S'just got vvvvvv youre level is awesome d'
p340
aS'if i could have a 40 minute commute every day that would be a dream come true slowtraffic'
p341
aS'alrighty thanks dude'
p342
aS'alright any ideas on how i can get my footer to stay below my content right now its riding about 200ish px above the bottom'
p343
aS'damn man our server is acting funny today  its been three times now that i cant connect\xe2\x80\xa6 hows your server'
p344
aS'sounds good you guys have a planned release date yet justwondering'
p345
aS'caved and got transmit so long fetch'
p346
aS'second also php is really freakin awesome period'
p347
aS'the difference and relationship between usability and user experience '
p348
asS'2011_32'
p349
(lp350
S'just realized i never sent the link heres that fractal'
p351
aS'a fractal using only photoshop s default brushes fun '
p352
aS'edward getting the best of ya'
p353
aS'color correction'
p354
aS'terraria 106 is coming tomorrow'
p355
asS'2011_38'
p356
(lp357
S'by the way i will nerf the endermen block carrying it was a horrible idea'
p358
as.