(dp0
S'2013_42'
p1
(lp2
S'moms do brave things including laundry join our community laundry initiative laundryforafrica'
p3
asS'2013_43'
p4
(lp5
S'i downloaded the free ebook one of from exponential here missional discipleship church planting'
p6
asS'2009_29'
p7
(lp8
S'reading through blue lines of hb2 before it goes to print finding a few things but thats okay we want it right the first time'
p9
aS' thanks for keeping us updated guys'
p10
aS' one of my favorite people'
p11
aS' okay here i am brand new to twitter'
p12
asS'2009_28'
p13
(lp14
S'reading about twitter so i wont be completely ignorant im doing this for my writers especially kathy hardee'
p15
asS'2013_46'
p16
(lp17
S'quiet prayer doesnt always end the storm but it always steadies me in the storm til it passes'
p18
aS'dont panic pray dont worry worship dont give up grow up'
p19
aS'the more i focus on me the more unhappy ill be see philippians 24'
p20
aS'ive seen growth comes from suffering blessing from giving joy from obeying honor from serving victory from surrendering'
p21
asS'2013_47'
p22
(lp23
S'warner press filled 183 boxes for operation christmas child 2nd year to do this blessed to be a blessing'
p24
aS'i choose to live simply so that others may simply live quote was shared 2 months ago in mind and heart every day wwjd'
p25
aS'praying r u and family at loss of father gods best to u and urs'
p26
asS'2009_47'
p27
(lp28
S'those words are from the song amazed wonderful song wonderful god he is amazing thank you lord'
p29
aS'woke up 530 these words re god you dance over me when i am unaware you sing all around but i never hear a sound lord im amazed by you'
p30
aS'god is not impoverished by blessing any of his children he has unlimited resources he is not depleted just because he lavishly blesses us'
p31
aS'been listening to christmas music as i write copy was doing easter stuff a few weeks ago crazy mixed up schedule ha'
p32
aS'my son wont let us listen to christmas music until the friday after thanksgiving taking cds with us to enjoy rest of weekend in the cabin'
p33
aS'found out this morning susans cancer has returned shes home from china please pray susan'
p34
asS'2009_40'
p35
(lp36
S'webinar on kidslit and publishingselling books online'
p37
aS'watching 4th webinar w mark blevisgreg pincus'
p38
asS'2011_13'
p39
(lp40
S'worth the wait'
p41
asS'2009_48'
p42
(lp43
S'ice on knee trying to go to sleep cant'
p44
asS'2010_51'
p45
(lp46
S'ea sports active for the wii hope i can get in shape with it since it just uses bands which are good with arthritis'
p47
aS'i just entered to win my wish list from they have a fantastic selection of holiday gifts to win'
p48
aS'mark 1124 therefore i tell you whatever you ask for in prayer believe that you have received it and it will be yours'
p49
asS'2012_43'
p50
(lp51
S'you are a pitiful example of a small small man with a great big ego a narcissist much like potus take a hike'
p52
asS'2011_14'
p53
(lp54
S'peyton manning twins peyton manning wife welcome twins  fox59com'
p55
asS'2013_26'
p56
(lp57
S'ive just updated my professional profile on linkedin connect with me and view my profile in'
p58
asS'2011_6'
p59
(lp60
S'i am getting my free download of skeleton bones by tweet4track'
p61
aS'i am downloading reaching for you by free tweet4track'
p62
aS'i am downloading music from desperation band free tweet4track'
p63
aS'i am downloading to the cross by tweet4track'
p64
aS'i am downloading god of second chances by carlos whittaker free tweet4track'
p65
aS'moving forward by  i am downloading it now free tweet4track'
p66
aS'downloading everybody needs a little by free tweet4track'
p67
aS'check out krissy nordhoff'
p68
aS'free music wants to know bow to better serve you through their events complete the 12 survey cont'
p69
asS'2013_18'
p70
(lp71
S'try the new salonpas pain patches they work better than anything else trust me im in my 60s'
p72
aS'these are all very interesting and sound useful however im on a mac so far none of these work for me the way'
p73
asS'2009_45'
p74
(lp75
S'failsafe  zondervan '
p76
asS'2012_25'
p77
(lp78
S'i will be done with the today show if you are replaced why are women replaced why not men'
p79
asS'2009_44'
p80
(lp81
S'catalogsa necessary part of doing business but they are a lot of work proofing proofing proofing'
p82
asS'2013_6'
p83
(lp84
S'worship leader the stage is not your shot at the spotlight its your privilege amp responsibility to magnify the '
p85
aS'god is big enough for your fears and doubts bring them to him honestly and see if they dont shrink next to the big '
p86
aS'prayer is the act of forging a connection between two specific points our human needs amp the resources of god of '
p87
aS'we have to account for every sheep that chose to follow us so we need to make sure we are leading them to him'
p88
aS'in this day and age we have too many people telling us what to think instead of how to think'
p89
aS'im playing the subwayr footlongtm frenzy for a chance to win free footlongstm for life see rules subwayfan'
p90
asS'2013_1'
p91
(lp92
S'glad you enjoyed them'
p93
asS'2010_12'
p94
(lp95
S'worship equals obedience its not a style of music its a style of living'
p96
aS'yeah dilly bars coffee we need all the help we can get too bad robin missed it since she went home without saying goodbye'
p97
asS'2012_8'
p98
(lp99
S'wpkidshouse'
p100
aS'best social media stories on the web aim before you shoot'
p101
asS'2010_25'
p102
(lp103
S'angie has no broken bones and no punctured lung were grateful just sore and sprained muscles and scrapes doc said helmet saved her'
p104
aS'on my way to er with angie who had a bike accident this am please pray'
p105
aS'pizza for my love of 41 years no cheese you know i really do love him and i love cheese'
p106
aS'waiting for ou 2 new books to come up from inventory chrissies shell and petunia pepper2 sweet stories from warner presskidslit'
p107
asS'2012_5'
p108
(lp109
S'have all her books'
p110
aS'woohoo can hardly wait i have missed her books'
p111
aS'big news dee henderson is back and as a bhp author let the count down to october 2 2012 begin'
p112
aS'courage does not panic it prays courage does not bemoan it believes fearless'
p113
aS'i cant wait for thevoice  teamblake lt3'
p114
aS'you setting him up to be released from colts sounds like it'
p115
aS'only you can uniquely meet certain godgiven needs in your spouse marriage'
p116
asS'2010_27'
p117
(lp118
S'catalyst leadership  digital magazine connecting next gen church leaders via'
p119
asS'2012_7'
p120
(lp121
S'i just wished for the harbinger the ancient mystery that holds the secret of americas future by via'
p122
asS'2013_17'
p123
(lp124
S'downloaded the free exponential 2013 live webcast program book here church planting missional discipleship'
p125
aS'this picture brought me indescribable joy photo our new pope francis the first'
p126
aS'free webcast exponential 2013 25 national speakers register here missional discipleship church planting'
p127
aS'i am content to be in this place where the lord has me may we all learn this believe it live it and share it'
p128
asS'2012_2'
p129
(lp130
S'i just found out about the toolbox check it out'
p131
aS'\xe2\x80\x9crt zonderkidz is releasing a new amazing resource based on the jesus storybook bible jsbcurriculum\xe2\x80\x9d'
p132
asS'2010_22'
p133
(lp134
S'i stand with franklin graham and the billy graham team in stating that i am a christian i love the lord and i am proud of it'
p135
asS'2009_38'
p136
(lp137
S'thanking god for giving me the exact words i needed to hear from him on sundayput on a garment of praise for the spirit of heaviness'
p138
asS'2012_17'
p139
(lp140
S'porterhouse '
p141
asS'2012_11'
p142
(lp143
S'c3kids c32010 first baptist orlando in october c3'
p144
asS'2009_30'
p145
(lp146
S'ive just entered to win a free long plays backgrounds cdrom'
p147
aS'new perspective on suffering for us all'
p148
aS'heard joni say this on radio last week god allows what he hates in order to accomplish what he loves even suffering  death of jesus'
p149
aS'enjoyed devotions this morning psalm 139 we are fearfully and wonderfully made'
p150
asS'2009_31'
p151
(lp152
S'husband bought some thot he was nuts wow it works great lots of water in our basement great to have around'
p153
aS'thinkg of publishing kids clipart book are they pass\xc3\xa9 use downloads cds'
p154
aS'i am so new to this and rather ignorant but i hope to learn and get acquainted with new friends reading crazy love check it out'
p155
aS'pb especially loved chelyabinsk russia since our daughter angie had been there for a year and people remembered her great people there'
p156
aS'just got home from practicing with the worship team for sundays worship good to see paul  brenda back from 3 weeks in ghana and russia'
p157
aS' yes it has always bothered me much of what they do bothers me if only we could be certain they really read our emails'
p158
asS'2009_32'
p159
(lp160
S'amen brother so glad youre aware of that and saying it aloud a lot of people in ministry dont learn that or practice it'
p161
asS'2009_35'
p162
(lp163
S'just changed my twitter background check it out found it at'
p164
asS'2013_11'
p165
(lp166
S'worship is salvation lived out its the lifestyle of those who choose to honor god with their whole life'
p167
aS'just sent a picture of my curly fries to cricket she loves when i snaxt her snaxt'
p168
aS'a fathers plea to honor his daughters memory that died from a rare bone disorder please help and rt ht '
p169
aS'ten minutes until the encore presentation of thebible begins on rt if youre tuning in'
p170
asS'2013_12'
p171
(lp172
S'egermeier\xe2\x80\x99s bible storybook  egermeier netgalley via'
p173
asS'2013_31'
p174
(lp175
S'special ops vets call for end to benghazi coverup'
p176
asS'2012_35'
p177
(lp178
S'win a nexus 7 from loaded with titles plus books from authors via'
p179
asS'2012_32'
p180
(lp181
S'youll be known by the problems you solve'
p182
aS'asking how do i empower for more than sunday'
p183
aS'my first tweet in years not sure what i was doing scary second day is more wow'
p184
aS'at leadership summit ksummit fantastic very affirming of our ministry learning so much'
p185
asS'2012_33'
p186
(lp187
S'the gospels primary result is not to make bad people good but dead people alive jne'
p188
aS'stephen hill remembered'
p189
aS'only god can make whatever it is you\xe2\x80\x99re doing grow and he will make it grow if you live to please him and not live to p '
p190
aS'miss you where are u what r u doing'
p191
aS'relax today in gods handsstop trying to win his love or others go vertical not sideways ps 4610 cease striving amp '
p192
asS'2010_26'
p193
(lp194
S'back to er with angie please pray'
p195
aS'in the warehouse getting ready to make more popcorn'
p196
asS'2010_21'
p197
(lp198
S'im with you girl john locke would be a great one'
p199
asS'2011_1'
p200
(lp201
S'yes i love it'
p202
aS'i like your thinking girlfriend'
p203
asS'2010_10'
p204
(lp205
S'its great to have this capability when youre traveling works really well too the tether check it out'
p206
aS'i purchased the tether for my blackberry which allows me to hook it to my laptop and have internet access'
p207
aS'i want a free smartphone from tether'
p208
asS'2010_11'
p209
(lp210
S'thanks for the updates wayne well keep prayingthe best thing we can do hope you all get some rest tonight'
p211
asS'2010_38'
p212
(lp213
S'check this video out  thats my king dr sm lockridge  official via'
p214
asS'2013_34'
p215
(lp216
S''
p217
asS'2010_15'
p218
(lp219
S'find out a little more about the story here'
p220
asS'2010_16'
p221
(lp222
S'hb3 has brought me to tearsgood tearsits so powerful'
p223
aS'working from home readingediting hunter brown 3 sitting on deckn in the sun getting some tan while i read its good cant wait'
p224
asS'2010_17'
p225
(lp226
S'that area has everything i lovehillsmountainsbeachespalm treesjust all around beautiful'
p227
aS'id be right beside you girlfriend enjoyed meeting your two oldest girls saturday'
p228
aS'beautiful i love san diego and california'
p229
asS'2010_33'
p230
(lp231
S're hunter browm and the eye of ends releasing 11111 dont miss it'
p232
aS'finished editing 386page hunter brown book 3eye of ends bawled twice in the last few chapters best hb yet good job miller brothers'
p233
aS'not enough cash on me to pay for lunch 1 check leftsent a to bank to get  to pay for lunch im a hostage at garfields for 22 lol'
p234
aS'most embarrassing moment in several years went to lunch with daughter got ready to pay bill oops debit card at home in shorts pocket'
p235
asS'2010_35'
p236
(lp237
S'praying for iris in stl and aunt micky in charlotte nc'
p238
aS'awake too earlyon vacationyea'
p239
as.