(dp0
S'2013_42'
p1
(lp2
S'baboons have been known to kidnap puppies and raise them as pets'
p3
aS'red sox and cardinals have met in world series 3 times previously st louis won in 7 games twice 1946 1967 boston sw\xe2\x80\xa6'
p4
aS'trees can send warning signals to other tree about insect attacks'
p5
aS'i just want to say one thing this is our bleep city boston strong  david ortiz'
p6
aS'navy rocked as bribery scandal hits officer corps'
p7
aS'females learn to talk earlier use sentences earlier and tend to read quicker than males'
p8
aS'where will the raptors trade rudy gay  bill and jalens 2013 nba previ via'
p9
aS'the jones girls  nights over egypt hd via'
p10
aS'exfinance director of a conn town accused of embezzling 23m financially supporting his mistress in fla'
p11
aS'nypd broadcasting recording of missing autistic boys mom to help find him'
p12
aS'the health risks of being obese are worse than the risks of heavy drinking smoking and poverty'
p13
aS'al gore tried to buy twitter'
p14
aS'technology not pizza helps dominos crush competitors'
p15
aS'in asia more passengers are bringing new airports  and more challenges for airlines'
p16
aS'opinion this is how future migration to the us could look  via'
p17
aS'family watches in silence as dad checks out waitress'
p18
aS'do animated female characters need to be pretty filmmaker comments stir online debate '
p19
aS'irregular bedtimes for kids may lead to behavioral problems'
p20
asS'2013_43'
p21
(lp22
S'hard to play like this if you dont feel 110 hindsight rt drose looks an awful lot\xe2\x80\xa6like derrick rose \xe2\x80\xa6'
p23
aS'dat punt doe redskins'
p24
aS'picasso burned most of his early work to keep his apartment warm because he was poor'
p25
aS'i miss my dad hes at london and i was crying at the airport im crying the inside but in outside im not i miss you baba\xf0\x9f\x98\xad\xf0\x9f\x98\xad\xf0\x9f\x98\xad'
p26
aS'video gilbert arenas reaction to having worst contract ever  buzz  the score'
p27
aS'derrick rose looks an awful lot\xe2\x80\xa6like derrick rose check out this sick move on reggie jackson'
p28
aS'during pregnancy if a mother suffers organ damage the baby in the womb sends stem cells to repair the damaged organ'
p29
aS'9th wonder  so high instrumental via'
p30
aS'just ate my entire bodyweight worth of sushi still hungry have yet to find a volume of sushi that isnt an appetizer'
p31
aS'viagra can actually make flowers stay erect'
p32
aS'has a torontonian done a good deed that helped you share your story by emailing or tweeting with hashta\xe2\x80\xa6'
p33
aS'legacy  broken heart disease produced by 9th wonder via'
p34
aS'are you talking smack on social media 73 of fans use facebook to follow or discuss sports snapshots'
p35
asS'2013_40'
p36
(lp37
S'military strike reported in southern somali town'
p38
aS'this is history right now in real time goodbad like ithate it but at least in this country we are free to debate\xe2\x80\xa6'
p39
aS'another good crowd in the mike lazaridis theatre of ideas live streaming also at'
p40
aS'ford said any other questions when i asked why toronto shouldnt be concerned that people associated with him have been shot\xe2\x80\xa6'
p41
aS'kid not getting in strange van for anything less than kingsize bar'
p42
aS'domino effect i stole some of histhis generation stole some of mine thecycle'
p43
aS'the real winner in the breaking bad finale the irs'
p44
aS'should recipes be considered intellectual property chef and ip lawyer adam liaw weighs in'
p45
aS'lew warns that insufficient funds could lead to a us treasury default for the \xe2\x80\x9cfirst time in our history\xe2\x80\x9d'
p46
aS'lotsa smart young folks on with us tonite can students learn better without teachers well explore learning2030'
p47
aS'two toronto guys rapper drake and mayor rob ford'
p48
aS'\xe2\x80\x98breaking bad\xe2\x80\x99 finale draws record 103 million viewers breakingbad breakingbadfinale'
p49
asS'2013_41'
p50
(lp51
S'kanye west  through the wire via'
p52
aS'chaka khan through the fire via'
p53
aS'westboro baptist church gets trolled  via'
p54
aS'how to freak out a black guy  via'
p55
aS'rideralert rt 4a experiencing delays of up to 35 minutes due to collision at jane and major mac'
p56
aS'jayz  dear summer instrumental via'
p57
aS'chewing gum can help your brain function more efficiently'
p58
aS'fun fact the gun industry used the term assault weapon in marketing prior to a 2009 pr move to rebrand the guns'
p59
aS'rabbis said to use torture for a fee to force men to divorce'
p60
aS'married couples have sex an average of 58 times a year'
p61
aS'what makes a perfect trip to work the happiest commuters share their secrets'
p62
aS'suv swarming offduty nypd officer seen on video hitting vehicle arrested'
p63
aS'ny school bans balls at recess cracks down on tag games over safety fears'
p64
asS'2013_46'
p65
(lp66
S''
p67
aS'niggas take social media so serious lol'
p68
aS'twitters the best wen ders either a game happens or ppl randomin goin off on roastin'
p69
aS'collectivization is the only path to third world prosperity the resources must belong to the people not multinational\xe2\x80\xa6'
p70
aS'its like old time hockey here lotsa fights in the stands hamvstor brings out the kooky in too many cfl'
p71
aS'surjit bindrakhia  tera yaar bolda via'
p72
aS'bewaretheirsk its time to confront this taboo first cousin marriages via'
p73
aS'with our 600 meal you can upgrade the sm sundae to a blizzard for 100'
p74
aS'only 6 countries known to have executed juvenile offenders in the last 15 years the us  iran pakistan saudi arabi\xe2\x80\xa6'
p75
aS'mainstream spirituality pretty funny'
p76
aS'pakistan has hosted 16 million registered afghan refugees for 30 years 1 million remain unregistered'
p77
aS'i am so happy to find out that has brought back the smarties mcflurry'
p78
aS'toronto mayor rob ford  cyclists are a pain in the ass via'
p79
aS'week 4 dhol playing at abl by adeel mahmood in back ground  via'
p80
aS'of course he made that and of course it doesnt count melo'
p81
aS'god called them to adopt and adopt and adopt'
p82
aS'rob ford does not sugar coat anything i like how upfront he is robford4primeminister heshappilymarried'
p83
aS'the comments under this rob ford video are some of the best ive seen in wshh history'
p84
aS'rob ford needs jesus'
p85
aS'period cats robford'
p86
aS'rob ford reminds me of that time ricky became the trailer park supervisor in trailer park boys'
p87
aS'rob ford is unbelievable this guy kills me enoughtoeatathome'
p88
aS'am i the only one whos jealous of rob ford mayor of toronto'
p89
aS'walahi rob ford is the fuckin man idc'
p90
aS'toronto mayor rob ford says he gets enough pussy to eat at home via'
p91
aS'embattled toronto mayor still has support via'
p92
aS'rt rob ford the realest'
p93
aS'toronto mayor will be taking his act to television'
p94
aS'is the hardest spitter in nyc right now fgr'
p95
aS'when your favorite teacher yells at you'
p96
aS'trust your instinctsintuition it is spirit speaking to you'
p97
aS'i hope i aint forgotten everyone need someone to talk wid'
p98
aS'james brown  escapeism complete take via'
p99
aS'dj quik  pitch in on a party via'
p100
aS'big mello  so much love via'
p101
aS'jesus refs letem play'
p102
aS'jabari parker is making nba gms wipe drool off their mouths'
p103
aS'dont let parker get goin'
p104
aS'krs one a friend via'
p105
aS'60000 people starved to death yesterday while capitalist diplomats are working towards reinforcing global corporate hegem\xe2\x80\xa6'
p106
aS'i feel like badass whenever i drink a glass of milk thanks to arnold rothstein lol boardwalkempire'
p107
aS'the prospect of margaret working for rothstein and richard forwith chalky is like all my fandom dreams come true boardwa\xe2\x80\xa6'
p108
aS'elis son is a prime example kids are impacted by what u do not what u say boardwalkempire'
p109
aS'wont give any spoilers but that might have been the best episode of boardwalkempire i have ever seen hbo'
p110
asS'2013_47'
p111
(lp112
S'we are revolution because our lives are revolution'
p113
aS'no nukes for iran i can sleep at night now'
p114
aS'dkmm again like last time lol'
p115
aS'looking at thebright snow field i wish i was climbing a mountain'
p116
aS'alucard  haunted cathedrals ft ide via'
p117
aS'nigga stop lying you sir got me fucked allll the way up'
p118
aS'old rampb scuze me while i reminisce over you my god'
p119
aS'please stay out of other peoples affairs man you dont see me tweetin shit about you and do \xe2\x80\xa6'
p120
aS'nigga stop lying rt breaking news the reenlistment the new album by littlebrother in the works '
p121
aS'dont be playing wmy emotions like this rt so happy little brother is back'
p122
aS'salute to all of the real warriors and rebellious soldiers for the culturehold your ground for the sound rockrockon'
p123
aS'oh nort please stay out of other peoples affairs man you dont see me '
p124
aS'working that rectus abdominis'
p125
aS'this has gotten outta hand'
p126
aS'lets groove  earth wind and fire lyrics in description via'
p127
aS'marco polo  drunken sleuth ft invincible via'
p128
aS'marco polo  wrong girl feat reach amp reggie b  via'
p129
aS'gza of wutang clan explains the origin of the universe via'
p130
aS'tupac just like daddy via'
p131
aS'after 7  baby im for real via'
p132
aS'freestyle  crystal ball official video via'
p133
aS'spraycan stories  looptroop  via'
p134
aS'longshot  much better via'
p135
aS'ford bros we have power of the people cnn'
p136
aS'ford its all selfinflicted my fault cnn'
p137
aS'the funniest mayor rob ford compilation  via'
p138
aS'penultimate episode of boardwalkempire empire this is gonna be good hbo'
p139
aS'agent van alden still gives me the willies bigtime boardwalkempire'
p140
aS'yeah elihe knows boardwalkempire'
p141
aS'omg next weeks episodeseason finale looks insane richard is back in action boardwalkempire'
p142
aS'i neeed it to be next sunday now boardwalkempire'
p143
aS'they did gillian so wrong boardwalkempire'
p144
asS'2013_44'
p145
(lp146
S'wwyd  will anyone help pay for the poor grandma pay for her medication via'
p147
aS'bus driver saves woman from jumping off bridge via'
p148
aS'asked about whether he has consumed any illegal drugs rob ford repeats that he cannot comment on a video he hasnt seen'
p149
aS'next caller appreciates fords courage calls questions about ford an attack likens him to jfk ford1010'
p150
aS'doug ford rob ford holds people to account'
p151
aS'hes not your bsing politician says brother dough about the mayor he understands ford1010'
p152
aS'pres obama also uses speech to condemn extreme faction of gop willing to hijack party and grind progress to a halt'
p153
aS'fascinating police are monitoring dc gunfire with hundreds of acoustic sensors on rooftops ht\xe2\x80\xa6'
p154
aS'hip hop samples pt 3 via'
p155
aS'best hip hoprnb samples part2 via'
p156
aS'wooo its still 1 i went back in time thank you'
p157
aS'hawks have 202 vision  they can see an object 20 feet away that a human could only see from a distance of two feet'
p158
aS'little brother  i see now ft kanye west amp consequence via'
p159
aS'eternia  you aint real produced by mphazes via'
p160
aS'statik selektah ft termanology talib kweli consequence  express yours via'
p161
aS'find out how to watch this weekends solar eclipse'
p162
aS'2 tung twista  razzamatazz jazzamatazz via'
p163
aS'openness about government expenditure matters clarity on public spending can make poor countries richer'
p164
aS'fewer patients had heart attacks when they received preventive percutaneous coronary intervention'
p165
aS'q and a how the pakistani taliban became a deadly force'
p166
aS'looool as soon as the man said 5th alltime in free throw percentage allen bricked loooool'
p167
aS'ray allen missed a free throw this game is fake'
p168
aS'video jokes toronto mayor rob ford crack cocaine confession wshh via'
p169
aS'27yearold lies about every single aspect of his life to keep parents from worrying via'
p170
aS'area woman almost imagines taste of peppermint mocha on tongue but stops herself via'
p171
aS'black people aint serious until we say forreal twice nigga you think im playin imma fck you up forreal forreal'
p172
aS'ransom amp statik selektah  never forget audio mp3 stream via'
p173
aS'the bad thing about loving a show like boardwalkempire is that you know the characters you love arent long for this wor\xe2\x80\xa6'
p174
aS'home showered kid in bed and two episodes into boardwalkempire  im a baller'
p175
aS'cant wait for next boardwalkempire and the faceoff between obanion and capone something tells me that big al will ta\xe2\x80\xa6'
p176
aS'one thing you aint mention buck how much he payin you to fuck me chalkywhite boardwalkempire'
p177
aS'awwwww shit omar comin boardwalkempire harlembytorchlight heroin chalkiewhite'
p178
aS'harlem by torchlight i knew chalky wasnt gon stay slippin like this the dr cant get the drop on him that easy\xe2\x80\xa6'
p179
aS'harlem by torchlightthe line of the episode but that look you gave said it all i was afraid very afraid peace amp blessin\xe2\x80\xa6'
p180
aS'lakers vs knicks kobe bryant highlights  61 points 2209 via'
p181
aS'seventhgrade biology class grossed out at having to dissect horse'
p182
aS'bugsy da god  epiphany of love via'
p183
aS'frankenstein  the rain is gone via'
p184
aS'lewis parker  hard endeavour via'
p185
aS'lewis parker  summer with asakala via'
p186
aS'splash klay thompson 5 of 6 from 3 in the 1st half'
p187
aS'the trophy sucks stanley is the best mlb getbeard redsoxnation'
p188
aS'joe frazier gets teary eyed talking about ali via'
p189
aS'george foreman testimony from facing ali via'
p190
aS'the diplomats  dipset anthem hd via'
p191
aS'statik selektah feat action bronson joey bada amp mike posner the spa via'
p192
aS'forgive me if i ever ever steered you wrong  most people stop for signs but i driven thru it'
p193
aS'man nas was initially my fav rapper den i ended likin jay and all now im bak to sayin nas is my fav'
p194
aS'nintendo is reporting earnings today heres what to watch out for ahead of their release'
p195
aS'10 ways to have a better experience in the bedroom'
p196
aS'shad  stylin featuring saukrates via'
p197
aS'shad  flying colours album review via'
p198
aS'ray allen rocking these custom championship jordan 11s with the heats gold uniforms tonight'
p199
aS'for men chewing a stalk of celery releases androstenone and androstenol odour molecules  making them more attractive to wo\xe2\x80\xa6'
p200
aS'nba and sons today '
p201
aS'whos ready for the miami heat to take on the chicago bulls nba'
p202
aS'love this photo of obama the first lady amp their daughter malia with malala yousafzai in the oval'
p203
aS'andy williams  its the most wonderful time of the year via'
p204
aS'lol prob not'
p205
aS'would a girl ever fall in love with a killer'
p206
aS'its okay barbie will help you'
p207
asS'2013_45'
p208
(lp209
S'blame one amp j57 lucid dreams via'
p210
aS'ohh i feel you still it was shaky for me too but i seen the shot clear i was jumping'
p211
aS'misseed the bkn shot and now time to watch the boston shot lol'
p212
aS'lol i spoke too son boston beat miami lmaooooooooooooooooooo 34 now'
p213
aS'fellas why do we take pics together and we choose to get as close as possible violating all rules of personal space th\xe2\x80\xa6'
p214
aS'after a threepoint play from demar raps up 7443 with 720 to go in the third ooof'
p215
aS'the kids need violence to live means dying open up the gate sound the blitzkrieg sirens'
p216
aS'rhythm roulette  marco polo'
p217
ag67
aS'wow man im scared to fall asleep now i jus looked up sleep paralysis and astral projections'
p218
aS'22 things that are never justifiable no matter how gratifying they may be  thought catalog via'
p219
aS'youtube challenge  i gave my kids a terrible present via'
p220
aS'youtube challenge  i told my kids i ate all their halloween candy 2013 via'
p221
aS'jj redick with a lookaway pass fake dribble drive layup really'
p222
aS'i told my mama i was talkin 2u on here and she was screamin like i met u in person lol she in toledo hometown'
p223
aS'yasser arafat polonium poisoning no accident lab says'
p224
aS'6 good reasons to keep your resume updated even if youre happy at your current job'
p225
aS'twitter opened at 4510 soaring 73 from its 26 ipo price biggest tech ipo since fbs 18 mos ago'
p226
aS'iran\xe2\x80\x99s new government enters nuclear negotiations today with limited economic leverage '
p227
aS'physician blogs his own alzheimer\xe2\x80\x99s experience seniorshealth'
p228
aS'at 25 billion twitter has a larger market value than sampp 500 components like kellogg and netflix twit\xe2\x80\xa6'
p229
aS'twitters 73 opening gain is 6thbiggest on record for us listed ipos that raised more than 500 million'
p230
aS'how people are changing their internet habits to avoid nsa snooping'
p231
aS'blu stress off the chest via'
p232
aS'blu amp exile  she said its ok via'
p233
aS'blu vanity music video via'
p234
aS'make your heavens full of blessins'
p235
aS'nation not about to start giving a shit about canadian politics'
p236
aS'salute'
p237
aS'overwhelming blame one amp j57 before the sunset featuring exile via'
p238
aS'top 10 samples in hiphop history  part i via'
p239
aS'how to make an sdspage gel via'
p240
aS'i rather have the game on mute than listen to the nbatv commentary'
p241
aS'dis coke ad so weird this guys dad trades him to a different hocky team  and his son beats his dads team 40'
p242
aS'tom is chest day my fav day im so pumped already'
p243
aS'at exactly which point do you start to realize that life without knowledge is death in disguise'
p244
aS'enjoy the reception dont break anything the president tells the blackhawks and their fans in the east room'
p245
aS'shameless coworker doing nothing to conceal clearly flaccid penis lying beneath khakis'
p246
asS'2013_39'
p247
(lp248
S'breaking bad creator says he dreaded ending show'
p249
aS'new major earthquake hits southwest pakistan'
p250
aS'how to respond to a child who wants a tattoo'
p251
aS'skeptics focus on warming pause'
p252
aS'how this 23yearold grad tackled 53349 in student and car loans from'
p253
aS'it would take about 76 8hour work days for the average person to read through all the \xe2\x80\x9cterms and conditions\xe2\x80\x9d they agree to \xe2\x80\xa6'
p254
aS'you might not have noticed it but your google search results are different'
p255
aS'according to albert einstein if honey bees were to disappear from earth humans would be dead within 4 years'
p256
aS'african nations and conservationists commit to ending the bloody slaughter of elephants '
p257
aS'us and turkey to create fund to stem extremism'
p258
aS'worlds most horrifying drug found in arizona  via'
p259
aS'i swear one more of these i will unfollow you warning goshdarnit'
p260
aS'if its not too much trouble would you mind using  thanks'
p261
aS'umm where exactly is the grill in subway used to make those grill marks on their chicken breasts blacksharpie'
p262
aS'faking confidence can positively influence your brain chemistry and change your life'
p263
aS'theres a reason moms find that new baby smell so delicious '
p264
aS'air jordans were banned from the nba however michael jordan always wore them as nike was willing to pay the fine for each g\xe2\x80\xa6'
p265
aS'rideralert rt 4 wb is 25 min delayed from major macbathurst due to traffic delays from construction lane closures'
p266
aS'it takes only 34000 to be one of the world\xe2\x80\x99s richest 1  it takes 200000 to be in america\xe2\x80\x99s richest 2'
p267
aS'area man determined to make the best of situation comedy'
p268
aS'commentary how scarcity shapes our lives goar'
p269
aS'commentary guys stop twerking on the subway mallick'
p270
aS'a gay bomb was once proposed at the pentagon  a bomb that would temporarily turn the enemy gay'
p271
aS'rideralert rt 20 detour is over regular routing has resumed'
p272
aS'the tears were due to the finale being horrible'
p273
aS'also the stupidest rt nyt critic says dexter finale had one of the saddest endings ever on primetime show ht\xe2\x80\xa6'
p274
aS'shittest  not saddest'
p275
aS'sad as in worst'
p276
aS'sars doctor donald lows posthumous plea for assisted suicide'
p277
aS'thunder bay bar unveils pregnancy test dispenser'
p278
aS'having fun is often the best way to get important messages across with that in mind here\xe2\x80\x99s yours truly as elvis htt\xe2\x80\xa6'
p279
aS'three days of national mourning declared by kenyas president kenyatta after westgate shopping centre siege'
p280
aS'massive earthquake kills at least 30 in pakistan  via'
p281
aS'the other dexter cliffhanger what kind of ice cream did harrison get '
p282
aS'lets be honest were all just really wondering what happens with masukas daughter right dexter'
p283
aS'dexter finale was underwhelming disappointing rubbish the writers were obviously lost at sea too one big storm in a tea c\xe2\x80\xa6'
p284
aS'breaking bad turns a good guy into a monster over 5 seasons  dexter turns a good show into a pile of garbage over 8 sea\xe2\x80\xa6'
p285
aS'i cannot believe how disappointed i am with dexter it was one of my favourite tv shows ever and the final season was r\xe2\x80\xa6'
p286
aS'perfectly summarizes the dexter finale for me'
p287
aS'bobby cannavale of boardwalk empire wins the emmy for outstanding supporting actor in a drama'
p288
aS'when a male honey bee climaxes during sex his testicles explode and he dies'
p289
aS'breaking bad wins the emmy for drama series'
p290
aS'heavy gunfire heard from inside nairobi shopping centre in kenya where militants are holding several people hostage'
p291
asS'2013_38'
p292
(lp293
S'every night after closing disneyland releases 200 cats into the park to help keep the rodent population under control'
p294
aS'suicide attack at christian church in pakistan kills dozens'
p295
aS'28 reasons why you should start meditating'
p296
aS'while older siblings tend to live longer and have higher iqs younger siblings tend to have more sex'
p297
aS'2 men are dead following headon collision near pickering opp say a vehicle was going wrong way on eastbound 401'
p298
aS'red sox clinch first al east title since 2007 by beating blue jays from mlb'
p299
aS'the difference between a \xe2\x80\x9cgift\xe2\x80\x9d and a \xe2\x80\x9cpresent\xe2\x80\x9d is that a gift is simply given while a present must be \xe2\x80\x9cpresented\xe2\x80\x9d'
p300
aS'university professor on leave after tweet about navy yard shootings directed at nra kk'
p301
aS'that boy vince carter had those bunnies back in the day crazy explosive'
p302
aS'vince carter dunk over a defenceless 72 french center frederic weiss during the 2000 summer olympics'
p303
as.