(dp0
S'2013_42'
p1
(lp2
S'i come back to find him and poppop watching cartoons sentara princess anne hospital'
p3
aS'braydyn and his poppop he loves him so much sentara princess anne hospital'
p4
aS'just as handsome a lil man can get'
p5
aS'we havent missed a year yet this year though we are carving our first pumpkin '
p6
asS'2013_43'
p7
(lp8
S'braydyns first pumpkin craved  '
p9
asS'2013_41'
p10
(lp11
S'last day of sleeping in and cuddling with my babe school starts tomorrow big lil man our house'
p12
aS'my boys '
p13
asS'2013_46'
p14
(lp15
S'so happy my lil man is awesome courthouse montessori school'
p16
asS'2013_44'
p17
(lp18
S'my gorges lil cousin miss and love her so much '
p19
aS'the awesome pumpkin we saw at the mansion'
p20
aS'he loves his poppop so much'
p21
aS'my turtle and his meme and poppop'
p22
asS'2013_45'
p23
(lp24
S'it was a blast so happy that i could make him happy '
p25
aS'4 years old '
p26
aS'happy birthday to my big baby boy'
p27
aS'looking fresh thanks uncle reggie'
p28
aS'getting ready for his big day tomorrow my big lil man turning 4 going on 10 '
p29
asS'2012_45'
p30
(lp31
S'i have the sweetest friend ever even remembered no lettuce did it all with out asking awwwww sweet frog'
p32
aS'an xsmall really lol'
p33
asS'2012_44'
p34
(lp35
S'i liked a video chasing with steve aoki  official trailer'
p36
aS'my lil green dinosaur '
p37
aS'at the pumpkin patch'
p38
aS'love hims so much braydyns lil brother smashley685'
p39
asS'2012_41'
p40
(lp41
S'playing the game while i sat there by my self working on a paper when he said he would help smh'
p42
aS'really brother '
p43
aS'this is how i am look at my teacher i just want her to shut up like really '
p44
aS'dont question if i speak the truth know that i speak the truth'
p45
asS'2012_40'
p46
(lp47
S'first day of school im ready to get it going 14 months will fly by ma christina '
p48
asS'2012_43'
p49
(lp50
S'good t times'
p51
aS'just posted a photo calypso bar and grill'
p52
asS'2012_42'
p53
(lp54
S'22810 my baby lil man will be 3 november 9th'
p55
asS'2012_29'
p56
(lp57
S'something is better than nothing when nothing is something you never wanted to be'
p58
aS'love and miss u so much more and dont u ever call the house to see if u can come over u just show cont'
p59
asS'2012_26'
p60
(lp61
S'this is how i end my night'
p62
aS'this is how i end my night'
p63
asS'2012_27'
p64
(lp65
S'miss u c'
p66
aS'miss my child so ready for this weekend to be over c'
p67
aS'btw i love u in drop dead diva'
p68
asS'2012_49'
p69
(lp70
S'my lil boy is back lookin fresh on our way to get a new hat then he will be so fly again love this lil'
p71
aS'lights on the beach with my bay and ma'
p72
aS'jumbo time se\xc3\xb1or fox mexican bar amp grill'
p73
aS'drinks with my booboo se\xc3\xb1or fox mexican bar amp grill'
p74
aS'miss cookie at 28th st sweet frog'
p75
asS'2012_24'
p76
(lp77
S'what just happen c'
p78
aS'awwww so much love so happy that ur happy again'
p79
aS'are u being a smart ass miss ur face 3 weeks of not a single drink together whats wrong with this picture'
p80
aS'girl call me when u get the chance'
p81
aS'why does amber have so many problems this girl is crazy teenmom'
p82
aS'just wanted to let u know i am so so happy that ur back on tv and cant wait to see cont'
p83
aS'my lil man'
p84
asS'2012_23'
p85
(lp86
S'via picsart picsin picsart photography android'
p87
aS'dont fall for someone that u know will never fall for u'
p88
aS'friendship means understanding not agreement it means forgiveness not forgetting it means the memories last even if '
p89
asS'2012_22'
p90
(lp91
S'yall just dont know how good this is'
p92
aS'hi friend'
p93
aS'ohh honey booboo child love it c'
p94
aS'happy birthday  party not softly im in the bathroom getting higher than the empire state'
p95
aS'happy birthday to my brother and by the way happy birthday to me '
p96
aS'love it'
p97
asS'2012_21'
p98
(lp99
S'love it so happy its back'
p100
aS'retweet if you loved the premiere of kuwtk7'
p101
aS'saw the previews for drop dead diva ahhhh so excited one of my favorite showes and ur in it too how fun'
p102
asS'2012_20'
p103
(lp104
S'at beer fest'
p105
aS'to dont ever send some shit like that to me you dont know me'
p106
aS'so excited cant wait bvr just incase too '
p107
aS'im on my no days off shit makethatmoney'
p108
aS'we need a hair cut guess thats where we are headed'
p109
aS'that is just crazy it makes me so sad why r people so careless with them selfs'
p110
aS'holy great show tonight cant wait for next week and so excited for u love va'
p111
asS'2013_4'
p112
(lp113
S'chocolate chip pancakes for my babe grandma boone'
p114
aS'my babe'
p115
aS'let it snow ashleys'
p116
aS'yup thats our night smashleighboo ashleys'
p117
asS'2013_7'
p118
(lp119
S'best sunday brunch in va swell the locals break'
p120
aS'short hair dont care'
p121
aS'play sea battles with me get battlefriends iosandroid and add me my nick is cmmboone download'
p122
aS'play sea battles with me get battlefriends iosandroid and add me my nick is cmmboone download'
p123
aS'play sea battles with me get battlefriends iosandroid and add me my nick is cmmboone download'
p124
aS'awesome '
p125
asS'2013_6'
p126
(lp127
S'keeping his smile kool kool smiles'
p128
aS'amp jennascottxoxo'
p129
aS'my brother grandma boone'
p130
aS'my lil brother grandma boone'
p131
aS'just to handsome what a chunk grandma boone'
p132
aS'aww love my baby pics grandma boone'
p133
aS'i was just to cute grandma boone'
p134
aS'diggin in the sand 1st street'
p135
asS'2013_1'
p136
(lp137
S'yummy grandma boone'
p138
aS'making colored cupcakes grandma boone'
p139
aS'i liked a video mad skillz 2012 rap up\xe2\x80\xb3 the last rap up skill recaps the year with his annual'
p140
asS'2013_3'
p141
(lp142
S'on instagram straight flexing ms jessicas'
p143
aS'giving good night kisses she is doing much better off all the machines  sentara princess anne hospital'
p144
aS'what what new job for me  pembroke mall'
p145
asS'2013_2'
p146
(lp147
S'braydyn and his meme he loves her so much sentara princess anne hospital'
p148
aS' grandma boone'
p149
aS'he said mom how long does this take lol grandma boone'
p150
aS'made the cupcakes last night now we are going to put the frosting on them he is so excited grandma boone'
p151
asS'2013_8'
p152
(lp153
S'confirmed jimmy buffett tour will visit virginia beach va  july 13th jimmybuffett'
p154
aS'way to many kids in one spot lynnhaven mall'
p155
asS'2012_4'
p156
(lp157
S'life sucks so bad all i want to do is eat im so hungry help me '
p158
aS'love u'
p159
aS'left side of face looks like i got hit in the mouth size of a golf ball got great meds vicodin'
p160
asS'2012_3'
p161
(lp162
S'wtf wherermykeys'
p163
aS'if they break your heart just break them right back fuckbitchesgetmoney'
p164
aS'just jumped on the band waggon'
p165
asS'2012_16'
p166
(lp167
S'just got another gift movie from flixster '
p168
asS'2012_17'
p169
(lp170
S'im at home cleaning'
p171
aS'what a great movie i am number 4 omg '
p172
aS'okay lol'
p173
aS'i will ill get to come with'
p174
aS'no i havent i want ill willstop in one of these days sounds really good'
p175
aS'where do u work'
p176
aS'know its been awhile since the show but really happy for u and so happy that u get to be a cont'
p177
aS'best feeling in the world here someone call my son braydyn boone'
p178
aS'love such great words wish it was all that easy for people '
p179
aS'lots of fun love the nails'
p180
aS'run nigga run lol'
p181
aS'lol u would love that shit so would i i want it'
p182
aS''
p183
asS'2012_52'
p184
(lp185
S'i favorited a video \xce\xb4\xcf\x89\xcf\x81\xce\xb7\xcf\x84\xce\xad\xcf\x82 \xce\xbf\xcf\x81\xce\xb3\xce\xac\xce\xbd\xcf\x89\xce\xbd'
p186
aS'he said mom santa is coming tonight and i am a good boy so i will get all the presents grandma boone'
p187
asS'2012_51'
p188
(lp189
S'mint chocolate chips cookies in the oven left overs in braydyns hands grandma boone'
p190
aS'decorating or christmas cookies grandma boone'
p191
aS'sugar cookies grandma boone'
p192
aS'snicker doodles grandma boone'
p193
aS'mix mix mix grandma boone'
p194
aS'he loves his meme grandma boone'
p195
aS'saw santa today he told him he wants a boat and a hippocampus  lol grandma boone'
p196
aS'first batch done best lil helper ever grandma boone'
p197
asS'2012_18'
p198
(lp199
S'every sunday and just incase dvr couldnt live with out'
p200
aS'just posted a photo'
p201
aS'hi mommy'
p202
aS'man '
p203
aS'what did you guys think of the show let me know if you bought anything would love to see pics of you in your k '
p204
aS'love it u did great wish i could of gotten some stuff but i will soon as i get paid going to dash all summer c'
p205
aS'retweet if you watched on qvc'
p206
aS'mob wives chicago really yall wont have shit on my girls'
p207
aS'granola and strawberries for lunch'
p208
aS'this is what he wanted to wear to bed omg my little man lol smh'
p209
aS'got his daddys feet'
p210
aS'does it mean ur fking a lot c'
p211
aS'rt what does it mean when your head board is leaning whoever the 1st to guess correctly will get a fb psychotictuesd '
p212
aS'call me a bitch all u want if u didnt have bitch ass tendencies or bitch ass questions u would get the bitch attitude or response js '
p213
aS'what about me '
p214
aS'gcb is my favorite show love dvr could not live without it or well i can but u know'
p215
aS'i agree with u '
p216
aS'omg girl well i hope u have a girl cause u got ur lil man'
p217
asS'2012_19'
p218
(lp219
S'just wanted to let u guys know that i got set up at route 58 and just had a slice of tongue fucking bitches shanae amp ed'
p220
aS'via picsart picsin picsart photography android'
p221
aS'fun at the park'
p222
aS'i could tell a lie if you asking me my whereabouts but i might talk that real if you ask me what i care about'
p223
aS'wouldnt miss it'
p224
asS'2013_11'
p225
(lp226
S'the next boone pilot'
p227
asS'2012_38'
p228
(lp229
S'great choice think u will rock that'
p230
aS'my son at 2 almost 3 told me he wants to be a doctor when he grows up thats what i am talking about smartest little man in my world c'
p231
aS'birthday pullups thumbs'
p232
aS'where can i find my macdaddy '
p233
aS'my little friend came in tonight to say hi sweet frog'
p234
aS'no it really does but ill keep watching just to see if it gets any better ur my favorite '
p235
aS'party bus here i come '
p236
asS'2012_39'
p237
(lp238
S'just kickin it '
p239
aS'best friend best uncle best friend '
p240
asS'2012_36'
p241
(lp242
S'im in rt bill clinton last night we have to reelect president obama say youre in now'
p243
aS'next time let me know then im down '
p244
aS'damn i wasnt invited miss ur face'
p245
asS'2012_30'
p246
(lp247
S'only my brother'
p248
aS'my everything nothing else matters as long as he is smiling'
p249
asS'2012_31'
p250
(lp251
S'how fun '
p252
asS'2012_32'
p253
(lp254
S'yeah as good as one can be'
p255
asS'2012_33'
p256
(lp257
S'love watching the sun rise its just something about it like its the start of a new day c'
p258
as.