(dp0
S'2014_28'
p1
(lp2
S'check out tlkn bout willis by eric izzle '
p3
asS'2014_23'
p4
(lp5
S'check out whats the world become by ill sublyminal '
p6
aS'check out ill sublyminal '
p7
aS'check out eric izzle  numberone newwestminster vancouver britishcolumbia rap legend muchlovefam'
p8
aS'check out im with the rat trap by eric izzle '
p9
asS'2014_22'
p10
(lp11
S'so while the druggy sits pretty comfy we go homelesshungrythat and a criminal for a mother and my daughter really has a chance eh'
p12
aS'but if i dont declare my earnings and can actually afford to raise my daughter comfortably then i am guilty of fraud and ineligible anyway'
p13
aS'making it impossible for me to surviveso i have to find work and declare my earnings making me ineligible for assiance and back 2 square 1'
p14
aS'must actively seek employment and prove it plus any and all earnings i make are immediatley taken off my cheque every penny no matter what'
p15
aS'but being a single parent diagnosed with ptsd severe to mnoderate was denied disability get a maximum of 925 in my dreams'
p16
aS'no job search is necessarry so you have more time to blow all your money in a brand new bcgovernment funded harm reduction house'
p17
aS'enjoying the maximum benefits up top 90000 for a single person you are allowed to earn an extra 80000 and keep it'
p18
aS'new welfarereform is ludicriss as long as your an addict you are considerded disabled unable to work'
p19
aS'ok thats it i have officially had it this bcgovernment in this province is run by lunatics'
p20
asS'2014_25'
p21
(lp22
S'have you heard \xe2\x80\x98eric izzle  aint no skollar\xe2\x80\x99 by on soundcloud'
p23
aS'have you heard \xe2\x80\x98eric izzle  spittin bars full\xe2\x80\x99 by on soundcloud'
p24
aS'have you heard \xe2\x80\x98eric izzle looking at me  full \xe2\x80\x99 by on soundcloud'
p25
aS'have you heard \xe2\x80\x98eric izzle  anchor chain be swanging  full \xe2\x80\x99 by on soundcloud'
p26
aS'have you heard \xe2\x80\x98eric izzle  extra shakes  full \xe2\x80\x99 by on soundcloud'
p27
aS'have you heard \xe2\x80\x98get money ft j danglez\xe2\x80\x99 by on soundcloud'
p28
aS'have you heard \xe2\x80\x98put u in the fucking ground\xe2\x80\x99 by on soundcloud'
p29
aS'have you heard \xe2\x80\x98weapon on my back\xe2\x80\x99 by on soundcloud'
p30
aS'have you heard \xe2\x80\x98waiting on the train  im the boss\xe2\x80\x99 by on soundcloud'
p31
aS'have you heard \xe2\x80\x98eric izzle  it aint my fault  its the shit that ive been through  on soundcloud'
p32
aS'have you heard \xe2\x80\x98eric izzle ft chubbz rat trappin\xe2\x80\x99 by on soundcloud'
p33
asS'2014_27'
p34
(lp35
S'check out i look in the mirror  where did we go wrong by eric izzle '
p36
as.