(dp0
S'2013_43'
p1
(lp2
S'running boston for childrens hospital again make a donation'
p3
asS'2012_49'
p4
(lp5
S'just gotta get through my day'
p6
aS'totally sick again'
p7
aS'a reminder of why i do what i do everyday'
p8
asS'2012_48'
p9
(lp10
S'my 2 loves'
p11
asS'2012_45'
p12
(lp13
S'bo make martinez a running back '
p14
aS'calling all golfers amp runners check out alson donate to my cause'
p15
aS'boston today believetour'
p16
aS'pure green coffee weight loss'
p17
aS'running in 2013 boston marathon for childrens hospital donate here 2013bostonmarathon'
p18
aS'need to learn how to shut down the mind'
p19
aS'do raspberry ketones really work'
p20
aS'prd a 5k yesterday by 5 minuteseven though i hate 5ks '
p21
asS'2012_44'
p22
(lp23
S'veterans 5k this afternoon with the stangers and the kiddos'
p24
aS'under construction'
p25
aS'dont just run mix up a few sessions each week with hill repeats speed work amp interval training bust those lungs'
p26
aS'one of my favorites u should make one to benefit bostons childrens hosp im running for them boston2013'
p27
aS'our auen pumpkins happy halloween'
p28
aS'back to school work and dance today hope everyone made it through the hurricanesandy'
p29
aS'we have committed 5000 to to help with sandy  dont forget your 15 off 75 or more plus free shipping h '
p30
aS''
p31
aS'i notice '
p32
asS'2012_47'
p33
(lp34
S'my sweet sweet little man'
p35
aS'off for 2 days'
p36
ag31
aS'impossible dont exist 2013bostonmarathon'
p37
asS'2013_16'
p38
(lp39
S'love the auen estate'
p40
aS'perspective the auen estate'
p41
aS'could this nightmare please end '
p42
aS'if you recognize either of these two men please call 1800callfbi'
p43
aS'from our elite family the auen estate'
p44
ag31
aS'we are all okay and home safe'
p45
asS'2012_43'
p46
(lp47
S'8 miles prehurricanevery windy but felt strong boston2013 im well on my way'
p48
aS'always rock out to we are never ever getting back together when i bring emma to school she lt3s you '
p49
aS'just watched taylor on ellen with my daughterheading out to buy your new album'
p50
aS'love your showwatch it on dvrbut love the scare scenes and dancing behind people segments follow me please'
p51
aS'ok people keep asking me to dm their names to justin so i guess first ten to retweet this i will do so not promisin '
p52
aS'please'
p53
aS'my 5 year old loves youshe would never believe me if you followed me puhleez let me be your first bostonian maybe '
p54
aS'seriously youre tour is coming to boston soonfollow me '
p55
aS'at the gym gettin my run on finally'
p56
aS'dont forget the 2'
p57
ag31
aS'u are an angel 4 visiting amp making her dreams come true hoping u are able to donate to boston childrens hosp'
p58
aS'cant say it enough you dont know living unless you know giving'
p59
aS'enjoy the journeyi will every step of the way love you forever and always'
p60
asS'2012_42'
p61
(lp62
S'just registered for 25th annual feaster five road race'
p63
aS'girls night soon in boston love ya '
p64
aS'awesome dinner with the hubs at willys'
p65
aS'how do i get you to follow me'
p66
aS'no not yet'
p67
aS'hope you can help'
p68
aS'love you forever and always'
p69
aS'waiting for my wife so we can get our tweet on'
p70
aS'4 miles today felt so good couldve run forever boston2013'
p71
aS'running boston marathon for charity hope you can thx'
p72
aS'first tweet to my hubbys'
p73
ag31
aS'new to twitter'
p74
asS'2013_24'
p75
(lp76
S'just posted a photo the auen estate'
p77
aS'daddys little girl'
p78
aS'like father like son all over mass'
p79
aS'watching the bruins but missing my other half'
p80
aS'back at it sweatymama strongbody bringiton boroughs family branch ymca'
p81
aS'my little dancer forever dancing the auen estate'
p82
asS'2013_25'
p83
(lp84
S'bostonstrong stonehamstrong stoneham town common'
p85
aS'if you are coughing up your lung stop smoking that cigarette'
p86
asS'2013_26'
p87
(lp88
S'reading at tatnuck what a wonderful sight tatnuck booksellers'
p89
aS'thank you to my buddy emily xoxo  instacollage the auen estate'
p90
aS'its 7amemma cakes is enjoying her 1st day of summer vacation the auen estate'
p91
asS'2013_27'
p92
(lp93
S'is that a dancers pose or what even a beast at the childrens museum providence childrens museum'
p94
aS'likefatherlikeson'
p95
aS'one seriously cool dude toocuteforwords summerdays narragansett beach'
p96
aS'its cold brrr narragansett beach'
p97
asS'2013_21'
p98
(lp99
S'such a powerful moment copley square'
p100
aS'ready to go swimming the auen estate'
p101
aS'brushin up on my 80s'
p102
asS'2013_22'
p103
(lp104
S'i just love him town of shrewsbury'
p105
asS'2013_23'
p106
(lp107
S'please please please open the door i need to work on saturday bloomingdales'
p108
asS'2013_28'
p109
(lp110
S'my greatest gifts love them'
p111
aS'this little thing is no joke abroller mamashurtin totalbodyworkout ymca'
p112
asS'2013_29'
p113
(lp114
S'boston strong 6 mile run this morning bostonstrong the landing at long wharf'
p115
aS'we are 21 again kid free weekend scottandkim lovesamadams doyles cafe'
p116
aS'seriously these 2 are so full of silliness who do they take after fullofpersonality\xe2\x80\xa6'
p117
aS'acro acro acro camp at elite elite academy of dance'
p118
aS'another tooth bites the dust cutestemmaever'
p119
aS'my cool dude at the dentist toocoolforschool dental place'
p120
aS'who am i silly emma the auen estate'
p121
aS'sweatymess sodonewiththisweather boroughs family branch ymca'
p122
asS'2013_5'
p123
(lp124
S'finally received my bib in the mail cant wait to wear it support boston childrens hospital\xe2\x80\xa6'
p125
aS'best buddiesjacky bear and scout the auen estate'
p126
aS'emma a few years agoseems so long ago the auen estate'
p127
asS'2013_7'
p128
(lp129
S'i just added this to my closet on poshmark gap patchwork blazerjacket via shopmycloset'
p130
aS'i just added this to my closet on poshmark tall brown boots via shopmycloset'
p131
aS'i just added this to my closet on poshmark lucky brand ballet flats size 9m39 via shopmycloset'
p132
aS'hows training going'
p133
aS'16 miles yesterday 10 miles on the bike today beast mode'
p134
aS'join my fashion shopping network were shopping closets together on sign up w code hcabj for 5 credit'
p135
aS'sleepy baby the auen estate'
p136
aS'me and my running partner sue during todays run heartbreak hill newton ma'
p137
asS'2013_6'
p138
(lp139
S'emma cakes standing in top of the snow the auen estate'
p140
aS'our jacky bear the auen estate'
p141
aS'suburb living the auen estate'
p142
aS'we had to upgrade 8pm the auen estate'
p143
aS'nemo is here 1pm the auen estate'
p144
aS'9 weeks til boston have you donated yet'
p145
aS'you can blame everyone for anything but the only one who makes you feel bad is you focus on yourself not others'
p146
aS'will do my husband has done boston 5 times but its my turn now you may know him or seen him at the runs'
p147
aS'yeah i know it fingers crossed are you going to do the team 17 miler on saturday ive been able to run with the team a lot'
p148
aS'derry 16 miler'
p149
aS'going great its my 1st boston but 3rd marathon so excited did derry 16miler last weekend tough race but so worth it'
p150
asS'2013_3'
p151
(lp152
S'bostonmarathontrainings photo'
p153
aS'cool light fixtures mgm grand at foxwoods'
p154
aS'love the auen estate'
p155
asS'2013_2'
p156
(lp157
S'when im happy running makes me happier when im unhappy running reminds me of how strong i am pic '
p158
aS'donate its a new year'
p159
asS'2013_9'
p160
(lp161
S'best friends the auen estate'
p162
asS'2013_8'
p163
(lp164
S'its really real the auen estate'
p165
aS'my protector the auen estate'
p166
aS'i just added this to my closet on poshmark jcrew pink ankle length chinos via shopmycloset'
p167
aS'i just added this to my closet on poshmark hampm chambray miniskirt via shopmycloset'
p168
aS'i just added this to my closet on poshmark blue label ralph lauren denim via shopmycloset'
p169
aS'i just added this to my closet on poshmark h amp m nautical stripe sweater dress via shopmycloset'
p170
aS'i just added this to my closet on poshmark inc sparkle tank via shopmycloset'
p171
aS'i just added this to my closet on poshmark ralph lauren rrl lace top size 2 via shopmycloset'
p172
aS'i just added this to my closet on poshmark sparkle tank top via shopmycloset'
p173
aS'i just added this to my closet on poshmark inc mermaid tank via shopmycloset'
p174
aS'i just added this to my closet on poshmark h amp m nautical stripe sweater dress via shopmycloset'
p175
aS'i just added this to my closet on poshmark inc sparkle tank via shopmycloset'
p176
aS'i just added this to my closet on poshmark jcrew pink ankle length chinos via shopmycloset'
p177
aS'i just added this to my closet on poshmark jcrew low fit capri chinos via shopmycloset'
p178
aS'i just added this to my closet on poshmark ralph lauren blue label crewneck cable swe via shopmycloset'
p179
aS'i just added this to my closet on poshmark hampm chambray miniskirt via shopmycloset'
p180
aS'i just added this to my closet on poshmark gap patchwork blazerjacket via shopmycloset'
p181
aS'i just added this to my closet on poshmark ralph lauren rrl lace top size 2 via shopmycloset'
p182
aS'i just added this to my closet on poshmark blue label ralph lauren denim via shopmycloset'
p183
aS'i just added this to my closet on poshmark rugby ralph lauren boyfriend denim via shopmycloset'
p184
asS'2012_46'
p185
(lp186
S'check out'
p187
aS'it is better to face things head on then to hide from them inspiration'
p188
aS'im all yours \xe2\x99\xa5'
p189
aS'quick fast 2 mile run this morning in the darkday light savingsnot a big fan 2013bostonmarathon'
p190
aS'running makes me happy   rt if you believe inspiration'
p191
aS'i have the best husband everrrrrr \xe2\x99\xa5 u 4ever best day in a long time'
p192
aS'definitely ive been sick for the last month cant shake this damn sinus infgrrr but hope trainings going well '
p193
aS'awesome congrats im running for childrens hospitalsuch an honor to run 2013bostonmarathon and run for charity'
p194
aS'6 mile run on this beautiful springlike dayjust cant shake this cold grrrrr2013bostonmarathon'
p195
aS'some days everything feels like its going wrong its ok to fall apart  but tomorrow be strong'
p196
asS'2013_11'
p197
(lp198
S'mamas baby beast the auen estate'
p199
asS'2013_36'
p200
(lp201
S'daddy having fun with jacks gift grownupkid funnydaddy imatoysruskid the auen estate'
p202
aS'emma finally got her ears pierced so proud of my brave little girl prettydicey\xe2\x80\xa6'
p203
asS'2013_35'
p204
(lp205
S'just another crazy saturday with daddy and jack turkeychasing cutestjackever the auen estate'
p206
aS'happy 4th birthday jack i love you i love you more i love you forever and ever and ever\xe2\x80\xa6'
p207
aS'firstdayofschool i cant believe shes in 2nd grade the auen estate'
p208
asS'2013_34'
p209
(lp210
S'love auenvacation2013 narragansett ri'
p211
aS'heading to block island for the day auenvacation2013'
p212
asS'2013_15'
p213
(lp214
S'thanks for this'
p215
asS'2013_32'
p216
(lp217
S'what a great opportunity for my little emma to work with dee all week sytycd elite academy of dance'
p218
aS'such a peaceful sleeper cutestjackever'
p219
asS'2013_31'
p220
(lp221
S'longtrainingruns it is not about speed it is about determination to finish a training run path to becoming a enduranc\xe2\x80\xa6'
p222
aS'goin for a ride earlymorningballoonrides the auen estate'
p223
aS'jacks new scooter thank you daddy cutestjackever bestdaddyever the auen estate'
p224
asS'2013_30'
p225
(lp226
S'new apparatus in our home for the day crazydecor the auen estate'
p227
asS'2013_19'
p228
(lp229
S'such a powerful moment copley square'
p230
aS'accident at boston worcester turnpike jammed traffic'
p231
asS'2013_18'
p232
(lp233
S'love and hearts in our backyard the auen estate'
p234
aS'run for bob 5k franklin ma'
p235
aS'real leaders are ordinary people wextraordinary determination are you waking up determined'
p236
aS'almost home'
p237
aS'late night on the train nyc to bos to shr nofun missmyhusband'
p238
aS'love these faces the auen estate'
p239
asS'2013_38'
p240
(lp241
S'warrior dash virgins no more funtimeswithgoodfriends dirtypeopledoingstupidobstacles'
p242
asS'2013_10'
p243
(lp244
S'early morning snowy walk the auen estate'
p245
asS'2013_33'
p246
(lp247
S'on vacation but the ipad is still a must narragansett ri'
p248
aS'totally diva mymamascoolerthanyours cutestemmaever mamas n divas'
p249
asS'2013_14'
p250
(lp251
S'well deserved after a day like today the auen estate'
p252
as.