(dp0
S'2014_44'
p1
(lp2
S'today stats 4 followers 2 unfollowers and followed 4 people via'
p3
aS'please merry me so we can have a lot of bedroom fun'
p4
aS'wish i know who is that girl ina green top with and  she is crazy beautiful'
p5
aS'damn her swag is so sexy'
p6
aS'to pretty much everyone from what i can see \xf0\x9f\x98\x82'
p7
aS'only with selena for me'
p8
aS'she is going to own it'
p9
aS'but i want to chat too i still didnt dicade on what i will do'
p10
aS'no matter how much i tweet to people no one talked to me whatsa point of having twitter if no one talks to you'
p11
aS'yeah i was even thinking to delete my twitter cuz no one talked to me'
p12
aS'actually this is the nicest convo i had probablly ever'
p13
aS'ikr just look my icon bella was 1 sexy cowgirl this halloween'
p14
aS' dont mind when i call her sexy even tho she is underage she even faved my tweet where i was saying how sexy she is'
p15
aS'yeah i needed a little bit more time to star not likeing but loving  but im on her side now'
p16
aS'me and bella also share similar life stories we both lost our dads only in my casae i was only 1 when my dad was killed in war'
p17
aS'i love her latest projects and cant wait to see the duff she just grow on me and she only keeps growing'
p18
aS'im planing to adopt at least 3 more dogs untill the end olf the year'
p19
aS'since i work i had to hier help i work from 9 to 12 hours a day so im paying some one to take care about animals'
p20
aS'i hierd a help since i have 3 hamsters chikens 2 snakes and 1 more horse i have like a little farm so i can take care of them'
p21
aS'its not just people i adopted 8 dogs 6 cats and even a horse from person who couldnt take care of it animals are important too'
p22
aS'i cant donate more cuz of the tax i have to pay its sad and stupid we have to pay tax on money we donate to charity'
p23
aS'diner'
p24
aS'my life savinsg are 10k per year and i always donate that to charity at the end of the year as for dinber thats just nice to do'
p25
aS'really beautiful perfect al meaning of word beauty'
p26
aS'im doing charity event and donating 10k to charity and making christmas diner ffor homless shealter'
p27
aS'ok but camila and selena both ssexy as hell just look at camilas body like damn sexy'
p28
aS'tell me who and i will fight for you forever'
p29
aS'bellas sister is pretty great as well'
p30
aS's sister kaili is amazing model'
p31
aS'bella have really sexy body i wanna merry her'
p32
aS'wow bella as sexy cowgirl'
p33
aS'jedino se u hrvatsku uvozi kancerogeni proizvod pozor limun is turske kancerogen kakva je grani\xc4\x8dna kontrola'
p34
aS'rt selenagomezsexiest'
p35
aS'is that s kickass costume'
p36
aS'\xf0\x9f\x98\x8d\xf0\x9f\x98\x8d\xf0\x9f\x98\x8d selenagomezsexiest'
p37
aS'today i visited my dads grave '
p38
aS'slu\xc4\x8daj se tako\xc4\x91er povezuje s arkanovcima koji su ve\xc4\x87inu poslova obavljali za hrvatsku udbu'
p39
aS'to mu ne\xc4\x87e pro\xc4\x87 jer je poznato da je slu\xc4\x8daj povezan s inom i hrvatskom udbom'
p40
aS'zendaya is not even old enough to get in to casino but she is going to perform in 1'
p41
aS'that sounds like a new track'
p42
aS'my sexy cowgirl i had to cut out cowboy cuz girls are the best'
p43
aS'olivia is always so cute '
p44
aS'is my idol and nothing will change that'
p45
aS'wow bea you little hotie'
p46
aS'laura have crazy hot sister also s sis have birthday on halloween thats so cool'
p47
aS'sexy outfit'
p48
aS'cutest thing ever'
p49
aS'wow boob pretty face boobs nice tattoo boobs did i mention boobs'
p50
aS'even scared she looks sexy'
p51
aS'sorry i just love my candy way too much'
p52
aS'i can share anything but my candy candy is line where i dont share'
p53
aS'but i got bag full of skitles and mampms so its worth it'
p54
aS'just got follow back from biggest selenator account  have woping 105k followerss'
p55
aS'not at all i always fall for that'
p56
aS'4 times fall for that stupid scary maze on pc my poop is scareed out of me'
p57
aS'i acually care about you you are kinda super amazing'
p58
aS' she is from my home town fellow yankee'
p59
aS'so sexy'
p60
aS'really sexy  i love this couple'
p61
aS'fk she is so damn sexy'
p62
aS'love womenguy who swear'
p63
aS'i need those tits in my mouth btw miss you violet'
p64
aS'today stats 3 followers 2 unfollowers and followed 5 people via'
p65
aS'sexy girl'
p66
aS'this goes to  she said disne is a machine disney is not machine disney is company that cont'
p67
aS'she is so darn sexy'
p68
aS'this is first glimpse at your really sexy pussy'
p69
aS's beautiful nude photoshoot'
p70
aS'wish i ccan have a taset direct from the source'
p71
aS'your pussy looks so tight'
p72
aS'godess so sexy'
p73
aS'i only hate it cuz my girlfriend is not here with me'
p74
aS'i dont really'
p75
aS'i admire mrs mandy so much'
p76
aS' mandy was so young when she gave birth to selena it was hard at the begining but look at them now'
p77
aS'we could never thank enough to mandy for taking such amazing care for selena mandy is amazing women'
p78
aS'ok just followed the best women ever women that gave me reason to smile and that reason is selena marie gomez'
p79
aS'can you give me username cuz i forget to follow but cant remeber whats username'
p80
aS'yeah i have best bro in the world he didnt even left anything for him but ill share have gave me all of his candy'
p81
aS'my baby bro just got me full bag of skitles and mampms'
p82
aS'cute nose and face silky beautiful hair amazing fashion sense amazing actress perfect singer sabrina is all'
p83
aS'princess'
p84
aS'i think have the cutest cheek bones ever and those dimples when she smile omg my life is made when she smile'
p85
aS'im just happy there is going to be some new tracks on this record and i hope record of all new tracks soon too'
p86
aS'btw all my comments coming from the fact im 100 in love with selena'
p87
aS'add to my comment that you rted and faved that selena is person with most beautiful face and sexiest ass ever'
p88
aS'busy girl arnt you'
p89
aS'sex godess and icon of sexappeal'
p90
aS'happy halloween miss dove wish you spooky day full of fun and candy treats'
p91
aS'sabrina is known to have this little edgy fashion senseif she transfers that into career who knows what future holds for her'
p92
aS'only in cases when child actor plays role that dont include r rated things french movies are worst at that'
p93
aS'i think child actors in r rated movies should never 1st do r rated movie then project on disney tho '
p94
aS'im just happy to see sabrinas character in horns was cerfuly played out with cute moments like that kiss'
p95
aS'becouse movie is rated r in general her younger fans probablly couldnt see it'
p96
aS'all tho she played pretty cool and cute character in horns'
p97
aS'im happy to see sabrina on disney now she have time for r rated movies like that when she grows up'
p98
aS'nonono i love acting especially sabs in the movie i just dont like those types of movies you know'
p99
aS'every person have right to chose what they will believe in i only hate people who make fun of my religion'
p100
aS'i love but i dont like horns im not going to say my opinion but i dont like it'
p101
aS'i also think is god believer cuz if you dont believe in god cross is not something to wear as accessory'
p102
aS'is that a little cross around her neck is she god believer if thats true im happy'
p103
aS'cutest thing ever'
p104
aS'i would like to rip it off and fuck you silly'
p105
aS'happy halloween'
p106
aS'happy halloween to the crew of'
p107
aS'i dont know when did you followed me but thank you'
p108
aS'she is one of only 3 celebs i would like to date being gay part is already here'
p109
aS'sounds pretty good few new tunes and my dilemma 2 going to be good end of the year'
p110
aS'waitwhat'
p111
aS'damn women'
p112
aS'sexy lil minx isnt she'
p113
aS'miss lea why so sexy and perfect'
p114
aS'wvwn tho we all know she is sexiest her boob mole itself is sexiest'
p115
aS'even her boob mole is my goal'
p116
aS'hmmmmm where is that hand even when is wears casual look her hands must make her look so darn sexy'
p117
aS'happy halloween buaaahhahahahahahahahahahahahahahahaha'
p118
aS'ho deciso di tweet in italiano'
p119
aS'sono una lesbica la mia famiglia mi supporta'
p120
aS'io sono lesbica e im fiero di esso'
p121
aS'lamore \xc3\xa8 lamore i diritti degli omosessuali devono essere rispettate'
p122
aS'odiatori sbattere con gentilezza'
p123
aS'lamore pu\xc3\xb2 battere lodio'
p124
aS'sto scrivendo twitlonger a spiegare il motivo per cui io odio twitter'
p125
aS'ff to every singe fan of'
p126
aS'ff'
p127
aS'sar\xc3\xa0 per sempre il mio angelo'
p128
aS'la sua difficile da lasciare voi'
p129
aS'tienimi nel tuo cuore ed io sar\xc3\xb2 sempre con voi'
p130
aS'non essere triste'
p131
aS'el amor es m\xc3\xa1s fuerte'
p132
aS'tu sei stato il mio unico e migliore amico qui'
p133
aS'addio cara'
p134
aS'birthday on haloween thats pretty cool'
p135
aS'im che va su facebook'
p136
aS'ecco perch\xc3\xa9 ho \xe2\x80\x8b\xe2\x80\x8bintenzione di eliminarlo'
p137
aS'just a little bit wierd feeling for a couple of days but contacts should never hurt'
p138
aS'twitter \xc3\xa8 cos\xc3\xac noioso'
p139
aS'nessuno risposta ai miei tweets'
p140
aS'addio'
p141
aS'nessuno mi parla pi\xc3\xb9 \xc3\xa8 noioso e im andando su facebook'
p142
aS'odio twitter ora non posso stare qui'
p143
aS'ho intenzione di eliminare oggi a twitter'
p144
aS'non ho amici qui la gente non vuole parlare con me'
p145
aS'today stats 3 followers one unfollower and followed 3 people via'
p146
aS'and more important where did you find this'
p147
aS'what was that for'
p148
aS'io non ti dimenticher\xc3\xb2 mai celeste'
p149
aS'ti sto tweeting in italiano perch\xc3\xa8 io non voglio che nessuno di capire quello che ho tweet'
p150
aS'voi non avete tempo per me cosi sto pensando di eliminare twitter tu sei il mio unico amico qui'
p151
aS'you can see im from ny from my icon'
p152
aS'you are my longest friend here im just trying to be best friend i can be'
p153
aS'how are ya'
p154
aS'ok piper sabrina rowan and olivia in the same pic made my life'
p155
aS'nope cuz she is mine'
p156
aS'oh dont mention it i mean every single word'
p157
aS'om i meant like really pretty but my point is you are pretty and beyond sexy indead'
p158
aS'she really is pretty life really pretty'
p159
aS'hey'
p160
aS'tu sei fonte di ispirazione per me'
p161
aS'tu sei il mio angelo si sar\xc3\xa0 per sempre nel mio cuore'
p162
aS'miss you btw we didnt chat in a really long time ti amo celeste'
p163
aS'but maybe she liked the idea of shaving part of her hair so we cant really blame him for something she maybe liked'
p164
aS'i have a cool contest coming up next week'
p165
aS'smart talented and funny too'
p166
aS'its ok she did live long life and died from old age'
p167
aS'she owns the world when she talks about some things but she is easly manipulated'
p168
aS'why the fuck he dont shave half of his hair and leave demi alone all tho demi would look sexy even bald'
p169
aS'my heart belongs to you selenagomezsexiest'
p170
aS'is my queen'
p171
aS'fk she is so damn sexy'
p172
aS'i dalje ne uklanja uvredljive diskriminiraju\xc4\x87e pa \xc4\x8dak i protuzakonite komentare sa svoje stranice a i dalje pi\xc5\xa1u la\xc5\xbei i obmane'
p173
aS'thank you so much now my mind is going crazy with all sort of drty stuff'
p174
aS'still not over this s shoot with'
p175
aS'perfect'
p176
aS'omg i just noticed that she saw and post your edit im so happy for you'
p177
aS'did s tits grow or is just me'
p178
aS'im actually pretty excited'
p179
aS'movie new movie ashfsdmvbncdkfgbjdfb'
p180
aS'and other celebs are not here to be role modelsbella have right to do whatever she wantsher latina shoot is sexy and perfect'
p181
aS'at work tweeting from my phone'
p182
aS'my home land im proud yankee'
p183
aS''
p184
aS'your sister is sexy and amazing im happy to have her as my idol'
p185
aS'im torn between her and this sexy grl'
p186
aS'3112 new years eve program dont fofrget that'
p187
aS'can some one explain me are these high wasted knickers or shorts that wears she looks amazing and sexy'
p188
aS'i know right'
p189
aS'me'
p190
aS'its same with em and s photoshoots'
p191
aS'i have 6 cats cuz 1 died yestrday'
p192
aS'my sexy idol everyone'
p193
aS'i dont know if you are fan of bella but you have to admit this is sexy'
p194
aS'cheek out behind the scenes of s shoot on youtube bella is december cover girl'
p195
aS'december 2014 cover girl of mag gets sexy and stylish in latinas best cover to date'
p196
aS'check out s sexy shoot with  this is best latna mag cover to date'
p197
aS'that sound sexy'
p198
aS'i call that kaylor sexy af'
p199
aS'also her tits look bigger'
p200
aS'she is in my thoughts and prayers'
p201
aS'hope everything is fine'
p202
aS'rt if you love selena'
p203
aS'sexy for december 2014'
p204
aS'today stats one follower no unfollowers and followed 4 people via'
p205
aS'ok this is 1st time wax figure actually looks like her it looks so real'
p206
aS'wtf how can rape be okay this is so fucked up'
p207
aS'i love you you sexy hotie so proud of you bunch of new movies book ep so much is coming and i cant be more proud'
p208
aS'yup sexiness overload'
p209
aS'yeah i feel pretty in that pic but i know im not'
p210
aS'me and my best friend'
p211
aS'love seeing her grow up out of  all i do is for kids  there is still chance for r rated 13 reasons why movie'
p212
aS'so sexy and hot'
p213
aS'excuse me but im looking at model not what she wears and in my mind she is naked p xd'
p214
aS'thats why i adopted all of my animals i have like a little farm where i keep my animals and i have a lot'
p215
aS'look at that ass you must be great to fuck with so sexy'
p216
aS'i want fuck with you so bad'
p217
aS'im so wet'
p218
aS'you dont know what i would do to you  dont mind my horny tweets'
p219
aS'ask me a question ask anything'
p220
aS'what is the worst gift you have ever received \xe2\x80\x94 none'
p221
aS'you are fucking gidess i wanna scene with you so bad'
p222
aS'i hgate my life'
p223
aS'you are forever in my heart'
p224
aS'i feel really bad today'
p225
as.