(dp0
S'2013_42'
p1
(lp2
S'i have too many fucking twitters'
p3
aS'cant believe we forgot about this account too holy shit'
p4
asS'2013_25'
p5
(lp6
S'if it doesnt taste good dont lick it  wise words from jack barakat fullfrontal'
p7
aS'jackandalexonsnl trend '
p8
asS'2013_20'
p9
(lp10
S'poor derek lmao'
p11
aS'i just noticed jacky is like harassing derek when ronnie is singing with the little girl look at'
p12
aS'lt3 i love you andy '
p13
aS'maxlt3'
p14
aS'who else listens to breaking benjamin '
p15
aS'i love three days grace'
p16
aS'im not even gonna preorder fashionably late just cause i really wanna walk into hot topic on the day it comes out and\xe2\x80\xa6'
p17
aS'two possibilities exist either we are alone in the universe or we are not both are equally terrifying'
p18
aS'me'
p19
aS'for my instagram \xf0\x9f\x99\x8c\xf0\x9f\x99\x8f\xf0\x9f\x91\x8f'
p20
aS'craig crai cra cr c cr cro cron cronn cronni cronnie'
p21
aS'happy birthday tj you are fucking amazing '
p22
aS'rt if you like escape the fate and follow everyone who does'
p23
aS'ifyouknowmeyouknowthat i love escape the fate with a passion\xe2\x80\xa6'
p24
aS'craig faggot'
p25
aS'havent seen a ratio that bad in a long time\xe2\x80\xa6  that makes me sad'
p26
aS'i really want jackys guitar'
p27
aS'loudwire hall of fame thank you etf army your support is amazing bestfans'
p28
aS'the difference between me and you is i would say somthing to ronnies face and you would say nothing to mine'
p29
aS'still makes me cry'
p30
aS'bvb army if you plan to attend any of the warped tour shows from july 17 thru july 31 please pay attention to the follow\xe2\x80\xa6'
p31
aS'go pick up ungrateful at target best buy hot topic and itunes today '
p32
aS'fall in love cuz youre ready not because youre lonely \xf0\x9f\x98\x8a'
p33
aS'ok im dead \xf0\x9f\x98\xad\xf0\x9f\x98\xad'
p34
aS'we understand crissy and cant wait lt3'
p35
aS'thats not music its ugly yelling and screaming said the one direction fan'
p36
aS'they say that love is forever your forever is all i need'
p37
aS'best live interview ever '
p38
aS'im almost crying  the only reason im not is because and still have their twitters  please dont delete'
p39
aS'please dont delete ill literaly cry my eyes out please dont delete please dont please dont please dont'
p40
aS'please dont delete ill literaly cry my eyes out please dont delete ill litterly die please dont im begging'
p41
aS'ryan and jacky are the only ones left with their twitters'
p42
aS'please dont delete ill literaly cry my eyes out please dont delete'
p43
aS'ryan and jacky are the only one with their twitters still im really crying guys'
p44
aS'dont say that  we cant give him any ideas  stahp \xf0\x9f\x98\xab'
p45
aS'ronnie a father'
p46
aS'news falling in reverse cancel remaining tour dates as ronnie radke prepares for fatherhood'
p47
aS'ohh guys it said that they are expecting to have the kid and they dont want ronnie to miss is incase it happens   i get it'
p48
aS'baby fucking radke everyone'
p49
aS'is crissy really in labor now omfg baby fucking radke'
p50
aS'\xe2\x80\x9cinstead of focusing on the worlds problems give your attention and energy to trust love abundance education and peace \xf0\x9f\x98\x8a'
p51
aS'im so sad omg why did you leave us ronnie ripronnieradkestwitter'
p52
aS'why ronnie why ripronnieradkestwitter lt3'
p53
asS'2013_21'
p54
(lp55
S'off to new york  be back soon my little lemon drops lt3 lanie'
p56
aS'jacky lt3'
p57
aS'hes ronnie he can do whatever the fuck he wants'
p58
aS'this gtgt'
p59
aS'rt for ashley '
p60
aS'jimmy  riplt3'
p61
aS'cc'
p62
aS'true story'
p63
aS'oh okayyyy'
p64
aS'rt if you like sleeping with sirens'
p65
aS'who won the signed escape the fate guitar   '
p66
aS'who won the signed escape the fate guitar '
p67
aS'who won the signed escape the fate guitar  '
p68
aS'cannot stop listening to fashionably late its amazeballs'
p69
aS'vote for fallinginreverse'
p70
aS'yogurtland kicks ass'
p71
aS'sorry about fucking all of your friends   what '
p72
aS'i dont ever want to be alone'
p73
aS'sorry bout fucking all your friends what'
p74
aS'so calm during thunderstorms knowing my boy is just letting his legend live on\xe2\x9d\xa4'
p75
aS'stomp up there in heaven my beautiful angel\xe2\x9d\xa4'
p76
aS'mitch baby we hear you\xe2\x9d\xa4'
p77
aS'color of your pants  the last thing you ate  your band name'
p78
aS'music is my life lt3'
p79
aS'the lyric video for our newunreleased track revelation will be out in one week'
p80
aS'amazing  just amazing lt3'
p81
aS'ronnie is a terrible actor lol'
p82
aS'wasnt kidding'
p83
aS'im gonna put the word badaptos on my wall'
p84
aS'suicide silence talks about their future plans and confirms plans to release mitch lucker memorial show dvd'
p85
aS'back in chicago for another day off today definitely excited to rest'
p86
aS'finally a day off '
p87
aS'nirvana is a band not a brand'
p88
aS'lets go to the old folks home we can get doped up and all get stoned lets go to the old folks home id been there sooner if only id known'
p89
aS'love is my weapon music is my religion peace is in my soul'
p90
aS'i dont know what i would do without fallinginreverse and now i hear that they could be breaking upthis cant be true'
p91
asS'2013_22'
p92
(lp93
S'dat bass tone in born to lead'
p94
aS'rt for sp gd bvb aa miw bmth ptv sws ss paramore fob omampm atl ymas adtr mcr iss issues follow me and everyone who rt'
p95
aS'feature aptv exclusive a conversation with ronnie radke part one public perception'
p96
aS'if you guys want to ask me stuff go ahead 3 lanie'
p97
aS'awh '
p98
aS'fake10factsaboutme i could live without music'
p99
aS'follow my fan account lanie'
p100
aS'mitch is stomping up in heaven right now lt3'
p101
aS'can someone take me to a concert  fangirlproblems'
p102
aS'i dont like oliver sykes or anyone in i see stars but do i spam their twitters with hate no cause theyre human th\xe2\x80\xa6'
p103
aS'im not a lovatic but if someone calls demi fat i just want to stab them in their fucking face'
p104
aS'are people actually so sick to call bvb fans emo faggots and tell us to kill ourselves\xe2\x80\x9d'
p105
aS'green day have no fans'
p106
aS'do you guys have vine if so follow me '
p107
aS'falling in reverse lanie'
p108
aS'band motionless in white fan yes following nah seen live nope met nah favorite song devils night rt for a band lanie'
p109
aS'band motionless in white fan most definitely\xf0\x9f\x98\x8f following  \xf0\x9f\x98\xb1 seen live no met no favourite song city lights amp sinematic rt for a band'
p110
aS'band bvb fan yesss following yes seen live no  met no favorite song in the end or nobodys hero rt for a band'
p111
aS'band big time rush fan ew no following absolutely not seen live couldnt pay me met \xf0\x9f\x98\xb7no favourite song dont care enough rt for a band'
p112
aS'escape the fate lanie'
p113
aS'band big time rush fan yeah following no seen live no met no favorite song boyfriend rt for a band lanie'
p114
aS'band black veil brides fan very much yes following yes seen live no met no favourite song in the end rt for a band'
p115
aS'band blessthefall fan no following no seen live no met no favourite song never heard any rt for a band'
p116
aS'band blessthefall fan not really following nah seen live nah met nah favorite song idk rt for a band lanie'
p117
aS'band escape the fate fan hell yes following  yup seen live no met no favorite song situations and youre insane rt \xe2\x80\xa6'
p118
aS'band black veil brides fan hell yes following yes seen live no\xf0\x9f\x98\xad met i wish\xf0\x9f\x98\xad favorite song nobodys hero rt for a band lanie'
p119
aS'band bless the fall fan yup following no seen live yup met i wish favorite song 40 days rt for band'
p120
aS'band falling in reverse fan fuck yes following yes seen live no\xf0\x9f\x98\xad met no\xf0\x9f\x98\xad favourite song uhhi guess fashionably late rt for a band'
p121
aS'band falling in reverse fan yesyesyes following uh yes seen live no\xf0\x9f\x98\xad met no\xf0\x9f\x98\xad favorite song cant chose just one  rt for a band lanie'
p122
aS'band paramore fan yeah kinda following no seen live no met no favourite song the only exception rt for a band'
p123
aS'band paramore fan no following no seen live no met no favorite song never heard them rt for a band lanie'
p124
aS'band bring me the horizon fan ehh not really following nope seen livenope met nope favorite song the antivist\xe2\x80\xa6'
p125
aS'band chiodos fan nope following no seen live nah met no favorite song never heard them rt for a band'
p126
aS'band i see stars fan fuck no following no seen live id rather eat horse shit met id rather swallow glass favorite \xe2\x80\xa6'
p127
aS'band  black veil brides fan yessss following yup seen live no met no favorite song  the ritual rt for band'
p128
aS'band you me at six fan not a big one following yes seen live no met no favorite song bite my tongue rt for a band'
p129
aS'that was rude  wtf is your problem '
p130
aS'warning revelation is almost here the wild ones and the legion of the black continue on a path to total wo\xe2\x80\xa6'
p131
aS'how do you spell world domination black veil brides'
p132
aS'tomorrow the official lyric video for revelation will be released when writing this song it was\xe2\x80\xa6'
p133
aS'we will be playing a show june 9th with in walnuts creek californi\xe2\x80\xa6'
p134
aS'revelationbvb'
p135
aS'this is great though yes'
p136
aS'bvb army sorry i havent tweeted much today been voting bvb wampd as best album here while watchi\xe2\x80\xa6'
p137
aS'if you hate craig because he used to talk shit about ronnie youre behaving even more like a child than ronnie has'
p138
aS'accurate as fuckk'
p139
aS'i dont want to wake up and see ryan seamans penis online'
p140
aS'what are your favorite bands '
p141
aS'rt if you like mcr omampm adtr sws ss aa fob 30stm a7x bmth bfmv etf fir patd ymas atl ptv tdg aa bvb follow me and everyo\xe2\x80\xa6'
p142
aS'how beautiful would it be to hear ronnie sing a ballad though '
p143
aS'bands are all i care about'
p144
asS'2013_23'
p145
(lp146
S'have you voted today'
p147
aS'rip mick morris'
p148
asS'2013_19'
p149
(lp150
S'this cage match is awesome so close'
p151
aS'be sure to subscribe to our vevo page to be the first to see all of our brand new videos'
p152
aS'go in there and knock the bottom outta her the annoyed bus driver'
p153
aS'is it bad that i made all my friends enter to win the guitar so that they could give it to me if they win i think not lanie'
p154
aS'when my dad is speaking to me'
p155
aS'to etf haters'
p156
aS'craig knows best\xe2\x80\xa6'
p157
aS'i need to win that guitar signed by escape the fate i want it soo bad lanie'
p158
aS'never ever will i give up on you ronnie'
p159
aS'fironsnl'
p160
aS'really need our fans help for this round great band helps us stay on this streak vote now lt3 thanks for the love htt\xe2\x80\xa6'
p161
aS'fallinginreverse is absolutely amazing no matter what lt3'
p162
aS'people just be cause a falling in reverse fan hates alone doesnt mean theyre a fake fan its one fucking song'
p163
aS'redsdj play in the end by black veil brides'
p164
aS'redsdj please play in the end by black veil brides'
p165
aS'baby clothes in the background awwwwwasdfghjkl that is too cute'
p166
aS'i just wanna sleep until june 18th\xe2\x80\xa6'
p167
aS'andys dad just replied to me omgomgomg fangirl lanie'
p168
aS'how does it feel knowing your son is a hero to thousands lt3\xe2\x80\x9d'
p169
aS'teenagers scare the living shit out of me they could care less as long as someone will bleed'
p170
aS'but ronnie i loved your tweets this year '
p171
aS'herestostayingstrong'
p172
aS'its officially been a year since i was diagnosed with clinical depression and still barely anyone knows roadtorecovery'
p173
aS'mitch is stompinglt3'
p174
aS'i had a dream that the album was released and i got all excited but then i woke up and now my day is ruined\xe2\x80\xa6 '
p175
aS'justin bieber has gone mad   '
p176
aS'when everything feels like the movies you bleed just to know youre alive'
p177
aS'thanks for the follow\xf0\x9f\x92\x95'
p178
aS'what a terrible week for metal\xe2\x80\x9d'
p179
aS'music gt music scene'
p180
aS''
p181
aS'i am currently watching videos of mitch and crying my eyes out lanie'
p182
aS'i dont know what to say   just   wow   holy shit'
p183
aS'this cannot be real  what the fuuuck  '
p184
aS'make sure to vote for youreinsane to help us win a 2nd cage match in a row'
p185
aS'congratsfironalone congratsfironalone congratsfironalone congratsfironalone fallinginreverse trend congratsfironalone'
p186
aS'congratsfironalone the song is absolutly amazing i was blown away you guys did a great job'
p187
aS'can we start a trend congratsfironalone please'
p188
aS'i cant believe the radio is already playing our song\xe2\x80\x9d congrats guys you definitly deserve this i love you guys lt3 lanie'
p189
aS'if you can combine 3 different genres of music in one song and make it work you deserve to be famous'
p190
aS'mad respect to all the people that admitted they hated me at one point but love the new song wow i am speechless\xe2\x80\x9d'
p191
aS'i live by this motto do it now remember it later sws'
p192
aS'to all bands let your music be what shuts everyone up'
p193
aS'new music video is amazing i am blown away great fucking job you guys lanie'
p194
aS'personally im more sws and my chemical romance\xf0\x9f\x92\x95 maddi'
p195
aS'cannot wait for the new fir album'
p196
aS'i dont even listen to fir and im excited for the album to come out\xf0\x9f\x92\x95 maddi lanie likes them tho'
p197
asS'2013_18'
p198
(lp199
S'dead walker texas ranger\xf0\x9f\x91\x8c myshit'
p200
aS'dont bother sleeping without one eye open wide the demons of the night are here to hold you tight'
p201
aS'this is the sweetest picture in the worldlt3'
p202
aS'heres to the kids who feel like theyre growing up too fast'
p203
aS'this fate is somthing i cannot escape'
p204
aS'every now and then the stars aline could it be that you and me are the lucky ones'
p205
aS'thanks for all the bday wishes and the kick ass video may the 4th be with you all as well\xe2\x80\x9d'
p206
aS'happybirthdaymikedirnt best bass player ever\xe2\x9d\xa4'
p207
aS'your nickel aint worth my dime\xf0\x9f\x91\x8c'
p208
aS'and this is why i hate people'
p209
aS'a message from oli'
p210
aS'rt this please'
p211
aS'kellin quinn is seriously the most perfect man that god ever created\xf0\x9f\x92\x95'
p212
aS'who else cannot wait for crissy and ronnie to have their baby fallinginreverse fangirl'
p213
aS'blackveilbrides are my saviors lt3'
p214
aS'twitting musicians that u will kill yourself if they dont respond is wrong ppl battle daily with depression amp its \xe2\x80\xa6'
p215
aS'i got a bad boy i must admit it you got my heart dont know how you did it'
p216
aS'everyone prayforfaith lt3'
p217
aS'thats a sexy tattoo you got there teej'
p218
aS'music will set me free lt3'
p219
aS'etf army go vote for us vote  '
p220
aS'these bitches are getting ready they all throwin a party'
p221
aS'music is my savior my painkiller my overall antidote for bullshit'
p222
aS'before i die i want to'
p223
aS'something that makes you happy mefinds music everyoneno you cant go to the concert no you cant buy that record'
p224
aS'\xe2\x80\x9cone way or another im gonna find ya im gonna getcha getcha getcha getcha  blondie'
p225
aS'my school is having each homeroom lipsync call me maybe for the video year book   killme lanie'
p226
aS'another friday night of just sitting at home listening to music iaintevenmad'
p227
aS'idontunderstandwhy warped tour doesnt just last forever'
p228
aS'if only waped tour lasted forever'
p229
aS'school would be a lot better if they let me listen to music'
p230
aS'its okay not to be okay'
p231
aS'i hate the feeling of being nervous its worse than any stomach ache'
p232
aS'going to be now goodnight twitterland \xf0\x9f\x98\x98\xf0\x9f\x98\xb4\xf0\x9f\x92\xa4 lanie'
p233
aS'tj and craiglt3'
p234
aS'bvbdotheharlemshake'
p235
aS'get my interview trend going bvbdotheharlemshake go go go  '
p236
aS'bvbdotheharlemshake omg we need to trend this'
p237
aS'pfft  we have a cc bvbarmy bvb blackveilbrides'
p238
aS'follow mine and maddis new twitter'
p239
aS'its not just a band'
p240
aS'just another thing i love about ronnieradke'
p241
aS'music is my escape'
p242
aS'when you realize you forgot your ipod at your friends house'
p243
aS'i love when someone says your an idiot on the internet always a good chuckle'
p244
aS'the greatest things in life are unseen thats why we close our eyes when we kiss laugh and dream'
p245
aS'hey i just got here and this is crazy funnies shit ever \xf0\x9f\x98\x82'
p246
aS'i have a intense guitar solo stuck in my head right now'
p247
aS'fallinginreverse is perfect lt3'
p248
aS'who wants to be in my band so far its me   just me   no one wants to join lanie'
p249
aS'i just want to sing'
p250
aS'night bandland\xf0\x9f\x98\x98 see you tomorrow maddi'
p251
aS'fallinginreverse'
p252
aS'baby radke  automatically perfect'
p253
aS'i remember when i first found our ronnie was having a kid and geting married'
p254
aS'i think one direction are better than my chemical romance'
p255
aS'my chemical romance'
p256
aS'my chemical romance is over why dont you find another band'
p257
aS'green day sucks'
p258
aS'and im lanie i love music and singing and want to form a band my main idols are fir etf and bvb '
p259
aS'you only live once so just go fucking nuts ripmitchlucker'
p260
aS'i would like to informally introduce myself im maddi and i love almost every artist out there as long as its not taylor swift\xe2\x9c\x8c'
p261
aS'he said son when you grow up will you be the savior of the broken the beaten and the damned mcr welcometotheblackparade'
p262
aS' piercetheveil sucks'
p263
aS'max green is my herolt3'
p264
aS'somehow im still here to explain that the darkest hour never comes in the night'
p265
aS'love me or hate me i promis you it wont phase me \xf0\x9f\x98\x98'
p266
aS'if we are all born to die and we all die to live then whats the point of living life if its just contradicts  fallinginreverse'
p267
aS'this is why im teambilliejoearmstrong'
p268
aS'fallinginreverse is perfect lt3'
p269
aS'you better follow'
p270
asS'2013_29'
p271
(lp272
S'help my friend meet her idol  all you have to do is click the link  please help her now '
p273
as.