(dp0
S'2013_47'
p1
(lp2
S'1dday 1daylive 1ddayourbestday  directioner'
p3
aS'1ddayliveannually'
p4
aS'fallow me 1dday'
p5
aS'onebigselfie'
p6
asS'2013_44'
p7
(lp8
S''
p9
asS'2013_45'
p10
(lp11
S'voteaustinmahone voteaustinmahone voteaustinmahone voteaustinmahone voteaustinmahone voteaustinmahone'
p12
aS'voteaustinmahone voteaustinmahone voteaustinmahone voteaustinmahone voteaustinmahone voteaustinmahone'
p13
aS'voteaustinmahone voteaustinmahone voteaustinmahone voteaustinmahone voteaustinmahone voteaustinmahone'
p14
aS'voteaustinmahone voteaustinmahone'
p15
aS'voteaustinmahone voteaustinmahone voteaustinmahone voteaustinmahone voteaustinmahone voteaustinmahone voteaustinmahone voteaustin'
p16
aS'voteaustinmahone voteaustinmahone voteaustinmahone'
p17
aS'voteaustinmahone voteaustinmahone voteaustinmahone voteaustinmahone voteaustinmahone voteaustinmahone voteaustinmahone'
p18
aS'voteaustinmahone'
p19
aS'voteaustinamhone voteaustinmahone voteaustinmahone voteaustinamahone voteaustinamhone voteaustinmahone voteaustinmahone voteaustin'
p20
aS'voteaustinmahone voteaustinmahone voteaustinmahone voteaustinmahone voteaustinmahone voteaustinmahone voteaustinmahone'
p21
aS'voteaustinmahone voteaustinmahone votaustinmahone'
p22
aS'voteaustinmahone help him win voteaustinmahone'
p23
aS'i voteaustinmahone for the 2013 mtv ema artist on the rise see whos in the lead and vote'
p24
aS'i voteaustinmahone for the 2013 mtv ema artist on the rise see whos in the lead and vote voteaustinmahone'
p25
aS'voteaustinmahone austin mahone vote 1321200total votes voteaustinmahone'
p26
aS'voteaustinmahone voteaustinmahone'
p27
aS'voteaustinmahone'
p28
aS'voteaustinmahone voteaustinmahone voteaustinmahone'
p29
aS'voteaustinmahone voteaustinmahone voteaustinmahone voteaustinmahone'
p30
aS'voteaustinmahone'
p31
as.