(dp0
S'2012_49'
p1
(lp2
S'looks like alloa pitch might be alright it was getting salted this morning im taking a drive past on the way back ho '
p3
asS'2013_47'
p4
(lp5
S'do u know someone struggling with mentalhealth if so reach out be a friend as 1 suffering from ptsd trust me real frie\xe2\x80\xa6'
p6
asS'2014_34'
p7
(lp8
S'on this day 2010  signed from on loan watch his goals free on'
p9
aS'played with so much passion and heart for that shirt hope he makes a return asap ibrox would lift off'
p10
aS'when can we expect to see you in the blue of rangers again vlad watp'
p11
aS'just signed up and payed my \xc2\xa310 membership i also purchased a community share however my profile still shows free member'
p12
aS'thanks for my \xc2\xa350 win on roulette'
p13
asS'2014_35'
p14
(lp15
S'once eithan is in bed bout 1830'
p16
aS'oww poor wee richard snooker tonight u fancy it'
p17
asS'2014_38'
p18
(lp19
S'fantastic thank you daisy xx'
p20
asS'2014_39'
p21
(lp22
S'snooker debut tonight in the preston district snooker league'
p23
asS'2013_5'
p24
(lp25
S'happy birthday  hope you have a fab day and get lots of cuddles off the wee man xx'
p26
asS'2013_7'
p27
(lp28
S''
p29
ag29
ag29
ag29
aS'wee blue nose'
p30
asS'2013_6'
p31
(lp32
S'the wee man'
p33
asS'2013_3'
p34
(lp35
S'hahhaa mate your sad as fuck saturday night and your tweeting me get a life you inbred'
p36
asS'2014_15'
p37
(lp38
g29
asS'2013_9'
p39
(lp40
S'cardinal keith obrien says his sexual conduct has fallen below the standards expected of him christ they have '
p41
asS'2013_51'
p42
(lp43
S'day 6 gamer package follow and retweet for a chance to win 14daysoffifa'
p44
asS'2013_50'
p45
(lp46
S'the wee man xx'
p47
asS'2012_50'
p48
(lp49
S'you think you have a busy job i work at the return desk in toys r us in connecticut'
p50
aS'just to let all rangers fans know im gettin a tattoo bout rangers  hope u will like it rtid watp rfc'
p51
aS'alloa 10 against qos come on you wasps gutted i couldnt make it hold on for a big win'
p52
asS'2012_51'
p53
(lp54
S'alloa have signed former dundee united midfielder gavin stokes on a free transfer hartley feels the player is a top pro '
p55
asS'2014_3'
p56
(lp57
g29
asS'2013_37'
p58
(lp59
S'little mans 1st birthday 2moz this year has flown past birthday'
p60
asS'2014_42'
p61
(lp62
S'quinny its queens park rangers not rangers theres only one rangers lol cheers mate'
p63
aS'i think this is fantastic football clubs recognising our service personnel and charitys i hope the owners fork out and help'
p64
aS'not only millwall are doing something for the troops glasgow rangers also have troops taking to the field on a lap of honour ht'
p65
aS'lost my first ever competitive snooker match tonight record as it stands pl3 w2 l1'
p66
aS'my new office'
p67
aS'hopefully scotland get something from tonights game more chance of a hangover than anything'
p68
asS'2013_13'
p69
(lp70
S'if i lose myself something i need counting stars and life in color are my fav songs from native '
p71
asS'2013_12'
p72
(lp73
S'9yrs service'
p74
asS'2013_15'
p75
(lp76
S'ty 4 follow pls rt service leavers about 2 start resettlement speak 2 me ref advice on hot jobs  '
p77
asS'2014_43'
p78
(lp79
S'real madrid absolute class love watching them'
p80
as.