(dp0
S'2013_25'
p1
(lp2
S'enter me in the macbarbie07giveaway'
p3
aS'comeon enter me in the macbarbie07giveaway'
p4
aS'enter me in the macbarbie07giveaway aaa'
p5
aS'enter me in the macbarbie07giveaway  '
p6
aS'enter me in the macbarbie07giveaway please i love you do much bethany'
p7
aS'enter me in the macbarbie07giveaway h'
p8
aS'enter me in the macbarbie07giveaway g'
p9
aS'enter me in the macbarbie07giveaway f'
p10
aS'enter me in the macbarbie07giveaway e'
p11
aS'enter me in the macbarbie07giveaway d'
p12
aS'enter me in the macbarbie07giveaway c'
p13
aS'enter me in the macbarbie07giveaway b'
p14
aS'enter me in the macbarbie07giveaway a'
p15
aS'enter me in the macbarbie07giveaway'
p16
asS'2013_18'
p17
(lp18
S'asksamandkian shout out to maddy from massachusetts if you could create ur own flavor of arizona what would it be\xf0\x9f\x98\xab'
p19
aS'asksamandkian shout out to maddy from massachusetts if you could create ur own flavor of arizona what would it be\xf0\x9f\x97\xbf'
p20
aS'asksamandkian shout out to maddy from massachusetts if you could create ur own flavor of arizona what would it be\xf0\x9f\x90\xb7\xf0\x9f\x90\x91'
p21
aS'asksamandkian shout out to maddy from massachusetts if you could create ur own flavor of arizona what would it be\xf0\x9f\x90\xa8'
p22
aS'asksamandkian shout out to maddy from massachusetts if you could create ur own flavor of arizona what would it be\xf0\x9f\x90\xb5'
p23
aS'asksamandkian shout out to maddy from massachusetts if you could create ur own flavor of arizona what would it be\xf0\x9f\x90\xae'
p24
aS'asksamandkian shout out to maddy from massachusetts if you could create ur own flavor of arizona what would it be\xf0\x9f\x90\x92'
p25
aS'asksamandkian shout out to maddy from massachusetts if you could create ur own flavor of arizona what would it be\xf0\x9f\x90\xb0'
p26
aS'asksamandkian shout out to maddy from massachusetts if you could create ur own flavor of arizona what would it be\xf0\x9f\x90\xa7'
p27
aS'asksamandkian shout out to maddy from massachusetts if you could create ur own flavor of arizona what would it be\xf0\x9f\x90\xbc'
p28
aS'asksamandkian shout out to maddy from massachusetts if you could create ur own flavor of arizona what would it be\xf0\x9f\x90\xb7'
p29
aS'asksamandkian shout out to maddy from massachusetts if you could create ur own flavor of arizona what would it be'
p30
aS'asksamandkian shout out to maddy from massachusetts if you could create ur own flavor of arizona what would it be\xf0\x9f\x90\xb9'
p31
aS'asksamandkian shout out to maddy from massachusetts if you could create ur own flavor of arizona what would it be\xf0\x9f\x90\xb6'
p32
as.