(dp0
S'2013_42'
p1
(lp2
S'got to win tonight'
p3
aS'wanna win some duckdynasty swag rt now for your chance to win prizes'
p4
aS'predictions on tonights game'
p5
aS'predictions on a score tonight'
p6
aS'lets get r done'
p7
aS'please keep the score updates coming'
p8
asS'2013_46'
p9
(lp10
S'we are in the midst of a boom in homebased businesses and it shows no sign of slowing  paul zane pilzer renowned economist and author'
p11
aS'interesting read if you dont find time to exercise you will have to find time for disease'
p12
aS'arris bistro tickets to mizzou game'
p13
aS'health fact not using tobacco a healthy diet and preventing infections that may cause cancer could prevent more than 30 of cancers'
p14
aS'building your own business is the best way to become rich then you can begin investing in other assets  robert kiyosaki'
p15
aS'network marketing is the wave of the future its taking the place of franchising which now requires too much capital jim rohn'
p16
asS'2013_44'
p17
(lp18
S'lets go cards'
p19
asS'2013_45'
p20
(lp21
S'network marketing offers the education my rich dad taught build your own network rather than working for a network  robert kiyosaki'
p22
aS'christopher reeve'
p23
asS'2012_43'
p24
(lp25
S'duckawesome'
p26
asS'2012_42'
p27
(lp28
S'i just entered a great holos giveaway for orange leaf  columbia  via'
p29
aS'i just entered a great holos giveaway for midamerica wireless  via'
p30
asS'2013_37'
p31
(lp32
S'walked six miles today walk'
p33
asS'2013_26'
p34
(lp35
S'cooking manhattan clam chowder150 calories per servingnothing like eating healthy'
p36
aS'congrats on the new'
p37
aS'congrats jake taggart on the new'
p38
asS'2013_30'
p39
(lp40
S'going on my first hike tomorrowwalked 6 miles todaywoot woot'
p41
asS'2012_27'
p42
(lp43
S'i need help with this'
p44
asS'2013_28'
p45
(lp46
S'how is obamacare great for americait has done nothing but drive healthcare costs up'
p47
asS'2013_29'
p48
(lp49
S'punk'
p50
aS'u lost weight'
p51
asS'2013_38'
p52
(lp53
S'still think colin k will be the best qb ever'
p54
aS'all will say is wowpredictable angle'
p55
as.