(dp0
S'2013_42'
p1
(lp2
S'i dont know i just dont sleep that much  '
p3
aS'lol i dont sleep '
p4
aS'ok  '
p5
aS'yeah the game tomorrow  '
p6
aS'only sometimes  \xf0\x9f\x98\x82\xf0\x9f\x98\x82\xf0\x9f\x98\x82'
p7
aS'\xf0\x9f\x98\x82\xf0\x9f\x98\x82 haha no i dont  '
p8
aS'noooooo she like me lol'
p9
aS'i think she will  lol\xf0\x9f\x98\x83'
p10
aS'haha yeah i do  \xf0\x9f\x98\x84'
p11
aS'no she doesnt she likes me  \xf0\x9f\x98\x9d\xf0\x9f\x98\x9d'
p12
aS'she does like me  \xf0\x9f\x98\x9c'
p13
aS'no i didnt  lol'
p14
aS'gorda lol'
p15
aS'i hate my phone right now  \xf0\x9f\x98\xab\xf0\x9f\x98\xab'
p16
aS'i just lost all my contacts on my phone for no reason my phone is going crazy \xf0\x9f\x98\xa1\xf0\x9f\x98\xa1'
p17
aS'i cant sleep '
p18
aS'24hourfitness good workout today  \xf0\x9f\x92\xaa'
p19
asS'2013_41'
p20
(lp21
S'you just give up at a certain point life is not the same  '
p22
aS'still up watching the walking dead  \xf0\x9f\x91\x8d\xf0\x9f\x91\x8d'
p23
aS'no sleep for me today  \xf0\x9f\x98\xb3\xf0\x9f\x98\xb3'
p24
aS'time for the walking dead  '
p25
aS'no haha '
p26
aS'watching supernatural  great show'
p27
asS'2013_46'
p28
(lp29
S'i get the best snapchats hahahaha'
p30
aS'lol  '
p31
aS'lol yeah but it was good \xf0\x9f\x90\xb8'
p32
aS'no im not lol'
p33
aS'the frog was good \xf0\x9f\x90\xb8 lol'
p34
aS''
p35
aS'ewwwwwwwwwwwww is eating frog legs'
p36
aS'ewwwwwwwwwwwww is eating frog legs\xe2\x80\x9d'
p37
asS'2013_47'
p38
(lp39
S'the boy in the striped pajamas'
p40
aS'yeah that true but a little late '
p41
aS'well its to late for that haha '
p42
aS'im just not sleepy  lol'
p43
aS'haha not yet  '
p44
aS'haha im not sleepy  '
p45
asS'2013_44'
p46
(lp47
S'late night wingstop'
p48
aS'salad'
p49
aS'clippers vs lakers today  \xf0\x9f\x8f\x80\xf0\x9f\x8f\x80'
p50
asS'2013_9'
p51
(lp52
S'i just uploaded a photo pheed'
p53
aS'i just uploaded a photo pheed'
p54
asS'2013_35'
p55
(lp56
S'\xf0\x9f\x92\x99 i love astrid \xf0\x9f\x92\x99'
p57
asS'2013_22'
p58
(lp59
S'just got another gift movie from flixster '
p60
as.