(dp0
S'2013_5'
p1
(lp2
S'i hope they do so u can stay all night again'
p3
aS'what was i thinking'
p4
aS'fuck this'
p5
aS'had a good night last nightlt3'
p6
aS'fuck love and fuck youu'
p7
aS'tell me how ya like it p'
p8
aS'ahhhh shut up'
p9
aS'been one hell of a night d'
p10
asS'2013_7'
p11
(lp12
S'it sucks ass knowing your ganna be single on valentines day '
p13
aS'nobody dies a virgin life fucks us all'
p14
aS'i wonder why people tan naked because there private parts dont needa be tan lmfao xd'
p15
asS'2013_6'
p16
(lp17
S'its hard to find the perfect time to tell you something thats gonna change everything'
p18
aS'this guy is amazingly cute'
p19
aS'i like youu but i dont wanna like you'
p20
aS'i think im fallin for yoult3'
p21
asS'2013_46'
p22
(lp23
S'theres hell in hello  good in goodbye  liein believe  over  in lover end in friend ex in next  and if \xe2\x80\xa6'
p24
aS'sweat pants hair up and in the idgaf mood \xe2\x9c\x8c\xef\xb8\x8f\xf0\x9f\x91\x8c'
p25
aS'\xf0\x9f\x98\x82\xf0\x9f\x98\x82\xf0\x9f\x98\x82 his face tho lol i love u james \xf0\x9f\x98\x98'
p26
aS'i feel like shit  being sick sucks \xf0\x9f\x91\x8c'
p27
aS'a relationship is only made for two peoplebut some bitches dont know how to count \xf0\x9f\x92\x81'
p28
aS'if your girlfriend doesnt like that bitch you dont talk to that bitch'
p29
aS'every girl has her bestfriend boyfriend and true love but youre really lucky if theyre all the same person'
p30
aS'i hate people who act different in front of certain people \xe2\x9c\x8b\xe2\x9d\x8c'
p31
aS'aww thats so cute \xf0\x9f\x98\x98\xf0\x9f\x98\x8d\xe2\x9d\xa4\xef\xb8\x8f\xf0\x9f\x92\x99'
p32
aS'dont \xf0\x9f\x91\x8a'
p33
aS'awwwww \xf0\x9f\x98\x8d\xf0\x9f\x98\x98'
p34
aS'you didnt do anything so dont be'
p35
aS'what'
p36
aS'your really starting to piss me off\xf0\x9f\x98\xa1\xf0\x9f\x98\xa1\xf0\x9f\x98\xa1'
p37
aS'everyone tells me to give up on you but they dont see you like i do your the one who broke my heart made me cry but i still love u idk why'
p38
aS'that wasnt about you ampamp i love u to'
p39
aS'tired of having people in my life that doesnt care about me but acts like they do'
p40
aS'sick and tired of this but i mean its whatever \xf0\x9f\x98\xa1'
p41
aS'\xf0\x9f\x91\x8c\xe2\x9c\x8c\xef\xb8\x8f'
p42
aS'yeah\xf0\x9f\x98\x94'
p43
aS''
p44
aS'god created the world in 7 days well it took 9 months to create me so clearly i\xe2\x80\x99m a big deal'
p45
aS'sucks that i dont get to see you this weekend \xf0\x9f\x98\x92'
p46
aS'when two people are meant for each other no time is too long no distance is too far no one can ever tear them apart'
p47
aS'lol umm someone sent me this haha \xf0\x9f\x98\x82\xf0\x9f\x98\x82'
p48
aS'awkward imgonnakillyou'
p49
aS'going to bed means switching from my computer to my phone and spending another hour mobile tweeting in the dark'
p50
aS'i love you too baby'
p51
aS'talking to on the phone i love him \xf0\x9f\x98\x98'
p52
aS'hes so sweet but funny lol \xf0\x9f\x98\x82\xf0\x9f\x98\x98'
p53
aS'hush little laptop dont you cry mommy\xe2\x80\x99s gonna find you some more wifi and if that wifi doesn\xe2\x80\x99t work momma will destr\xe2\x80\xa6'
p54
aS'i dont give a fuck if you dont like me bitch i like me'
p55
aS'do you ever have so much to do that you just decide to take a nap'
p56
aS'throwback when i went to florida dang we were burnt \xf0\x9f\x91\x8c'
p57
aS'lmfao ohh the things that happen when i walk upstairs throwback'
p58
ag44
aS'when your in the shower and you hear loud thumps you think theyre killing my family and ill have to fight the attacker naked lmfao'
p59
asS'2013_47'
p60
(lp61
S'happy birthday girl'
p62
aS'hahahahah a xd \xf0\x9f\x98\x82\xf0\x9f\x98\x82\xf0\x9f\x98\x82\xf0\x9f\x98\x82'
p63
aS'\xf0\x9f\x91\x8f\xe2\x9c\x8c\xef\xb8\x8f'
p64
aS'god doesnt make mistakes trust it when someone ends up in your past theyre there for a reason'
p65
aS'you fight like a married couple you talk like best friends and you flirt like first loves so obviously its meant to be'
p66
aS'lol haters are my motivators \xf0\x9f\x91\x8c\xf0\x9f\x91\x8f\xe2\x9c\x8c\xef\xb8\x8f'
p67
aS'i love you too baby  lt3'
p68
aS'i love you \xf0\x9f\x98\x98'
p69
aS'haters are like crickets they chirp all motherfuckin daynight amp then you walk by them amp they shut the fuck up bitch\xe2\x80\xa6'
p70
aS'no matter how busy a person is if they care they will always find time for you'
p71
ag44
aS'when he hugs you from behind \xf0\x9f\x91\x8c'
p72
aS'how do boys look good without makeup'
p73
aS'your smile is literally the cutest thing i have ever seen in my life'
p74
aS'do not touch my iphone its not an usphone its not a wephone its not an ourphone its an iphone'
p75
aS'im a nice person i just hate everyone'
p76
aS'shout out for for following me \xf0\x9f\x91\x8c thanks'
p77
asS'2013_45'
p78
(lp79
S'pinquotes pictures words backgrounds text sayings phrase polyvore quote pinquotes'
p80
aS'i dont understand why your so fucking jealous all you do is talk shit but you have no room to talk monkey looking ass bitch\xf0\x9f\x98\x98\xf0\x9f\x98\x89'
p81
asS'2013_9'
p82
(lp83
S'you followed me first bitch so stfu '
p84
asS'2013_8'
p85
(lp86
S'i know you want this dick lmfao p'
p87
asS'2013_25'
p88
(lp89
S'youre nothing but a piece of shit i fucking hate you i wish you would jump off a bridge'
p90
asS'2013_18'
p91
(lp92
S'havent been on here ina while'
p93
as.