(dp0
S'2013_42'
p1
(lp2
S'on a sickk ass vibee'
p3
aS'2night should be dope'
p4
aS'goign get get poping in parries with the cuzens'
p5
aS'awwwwwwlt33 tht made my day'
p6
aS'bouta be on tht gta5 online noww '
p7
aS'coco puffs look like goat shitt lol lucky chrams better '
p8
aS'fruity pebbles are better '
p9
aS'ahah lol'
p10
aS'a la verga'
p11
aS'alrightt ahh'
p12
aS'wack friday'
p13
aS'iii dooonnttt knowww'
p14
aS'i love my red birds'
p15
aS'im still triping ahahha'
p16
aS'i took like 3 vicodins for my back pains and im feeling drizzunk'
p17
aS'ora weyyy'
p18
aS'traigan plebitas que me estoy enfiestando'
p19
aS'traigo mas lumbre que el diablo'
p20
aS'lt3 '
p21
aS'somehting happen 3per you were all i was thinking about all day 2daylt33'
p22
aS'lt333 awww not ass much as i did though'
p23
aS'awwwwlt33 how much '
p24
aS'missed her ugly ass today'
p25
aS'bouta go munch on some tacos '
p26
aS'what a dayy ahah'
p27
aS'lt3 '
p28
aS'wtf lol'
p29
aS'pussy  money  weeed'
p30
aS'mmmm'
p31
aS'wtf '
p32
aS'dammm she fattt haha lol'
p33
aS'lt3 your just so beautiful babe '
p34
aS'damm first time ima use my math book'
p35
aS'when i get home from school i raid the fridge'
p36
aS'finally homee '
p37
aS'fuckk it going work out with the cuzen'
p38
aS'hell yeah bought my new piercings'
p39
aS'ohh hell noo she needa back the fuck off '
p40
aS'lmao you needa take a napp'
p41
aS'dirtyy asss '
p42
aS'ewww ima tell cristian ahhahahha'
p43
aS'lmao'
p44
aS'ahha okay bitch shut up'
p45
aS'haha idgaf u still understand me tho'
p46
aS'okay babe if you say sooo'
p47
aS'ahhaha lol short for stefanie stupidd'
p48
aS'ima go to heaven idk about chuuu lol'
p49
aS'if i go to hell im dragging you with me bitch'
p50
aS'ahhah meee ohh yeahhh blame it on me'
p51
aS'i dont think soo cuzz thts not how you spell my namee bitchhhh lol'
p52
aS'puess vete la verga lmao'
p53
aS'whoss geeeeeoooooo'
p54
aS'ahhahah uyyy weyyyyy lol callate ya'
p55
aS'nahhhh to0t'
p56
aS'you a bitch ahah'
p57
aS'steff stfu alreadyyy '
p58
aS'what you mean i dont make sense'
p59
aS'i shouldnt be tlking you never goooo'
p60
aS'bitch 0o'
p61
aS'correction princess'
p62
aS'wow only tht s lol'
p63
aS'culichi town more like culote town'
p64
aS'she jst to adorablelt3 '
p65
aS'two months with my princeslt333'
p66
aS'amp its offically two months with this boy\xe2\x99\xa5'
p67
aS'watching the red bull rampage crazy muthafukas'
p68
aS'ok you can stop with your song lyrics now lol'
p69
aS'the thing about smart muthafuckas is that they sound like crazy muthafukas to stupid muthafukas'
p70
aS'no matter what shes the oneelt3'
p71
aS'lazy ass sunday'
p72
aS'jarhead is a badass movie'
p73
aS'to this day i still havent seen insidious 2'
p74
aS'jst playing with you ikno what i said lol aha'
p75
aS'what did i say 2day'
p76
aS'noo thats what i said yesterday'
p77
aS'lt3333'
p78
aS'yeahh cuzz yoouu uhhhggllyyy lol'
p79
aS'shee needa go to sleep lol ahha'
p80
aS'you tripen baby go to sleep'
p81
aS'pssshhhhhhhhhh ewwww'
p82
aS'ewwwwwww oo lollt33'
p83
aS'daaaa fucckkkkk oo'
p84
aS'dannnnng i was fucking ugly'
p85
aS'you already doo babe  ahh lol'
p86
asS'2013_43'
p87
(lp88
S'ohhh she staying longer noww lol'
p89
aS'all these bitches know my name'
p90
aS'hope she comeslt3'
p91
aS'dammm tht hit da spot'
p92
aS'woke up feeling good'
p93
aS'waking up sore ltlt'
p94
aS'pick me up'
p95
aS'i love my mom no matter what we go through no matter how much we argue because i know at the end shell always be th\xe2\x80\xa6'
p96
aS'chill dayy with my babe'
p97
aS'pablo'
p98
aS'timee to sale tht yayo'
p99
aS'going kick it with my babelt3 in a lil'
p100
aS'my tired ness is getting to me '
p101
aS'done cleaning now time to hope on tht gta5'
p102
aS'bitch lol'
p103
aS'then gta all day c'
p104
aS'woke my beautiful babe up '
p105
aS'ganna see her 2mrw  lt3'
p106
aS'my babe jelly lol lt33'
p107
aS'entrar en la mafia a la verga'
p108
aS'miss when vtec cracks'
p109
aS'you jst jelly babe lollt3'
p110
aS'chill sunday hahaha'
p111
asS'2013_40'
p112
(lp113
S'ya broncos won forsureunless they block the kick'
p114
aS'awwww you lil bitchhhh'
p115
aS'motherfucking strike'
p116
aS'been around da world all the hoes know my name'
p117
aS'time to crashh outtt'
p118
aS'hahaha thts meee '
p119
aS'no jesus is drug free lmao x'
p120
aS'i am jesusssss'
p121
aS'youu need a lecture from me you need some jesus in your life man \xf0\x9f\x98\x82'
p122
aS'ur like my lucky star'
p123
aS'wonder what shee doingg mmmm '
p124
aS'ahhaha lol sickk ass bryan'
p125
aS'shes like jesus christ cause the bread is his body amp the hot choclate is his blood'
p126
aS'wow i need jesus'
p127
aS'you win some you lose some you wreck some'
p128
aS'burn rubba buburn rubbaaaa'
p129
aS'if every thing seems under control ur just not going fast enough'
p130
aS'ahhaha sickk ass fooo lol'
p131
aS'when bitches get of my car  '
p132
aS'i neeed that c to go the fuck up '
p133
aS'i have no idea what im gonna wear tomorrow '
p134
aS'your one to talk '
p135
aS'stay in school loll'
p136
aS'get off twitttter nigga'
p137
aS'lol okayyy babe  '
p138
aS'gio is just asking to get socked isnt he '
p139
aS'double play'
p140
aS'aww babe i doo too lt3'
p141
aS'i misss you gio like agh so much '
p142
aS'happpppy happppy happppy happpy birthday baby i like you soooo much see you in the morning\xe2\x99\xa5 '
p143
aS'awwww i miss you moree tho babelt33 '
p144
aS'i miss my boyfriend so much '
p145
asS'2013_41'
p146
(lp147
S'fatt assssss '
p148
aS'dammm she starts early lol'
p149
aS'she jelly ahha'
p150
aS'funniest thing i heard all weekend xd'
p151
aS'you woke up next to 3 stripers and you dont know where your at lmao hahaha'
p152
aS'going go kick it with the primos'
p153
aS'thiss ass thoolt333'
p154
aS'fashooo gee jst lmk wasup'
p155
aS'thts rightt wtf you havnt hmu to match some bowls niggaa dammm hit a nigga upp'
p156
aS'ahahaha whats the deal ma nigga'
p157
aS'ahah were you been at niggaa'
p158
aS'wasup with it nigggaa'
p159
aS'ahahha lol she funnyyy'
p160
aS'i just wanna smoke '
p161
aS'oralee homiewhy you guys gatta wear tht green shirt for u had one last time to'
p162
aS'my bad bitch  xd'
p163
aS'wtffffff ohh hellll nooo'
p164
aS'and its with a fckenn i no fuckn eeeee withhh a iiiiii you got itt '
p165
aS'wen did u guys go'
p166
aS'were att'
p167
aS'we saw that and thought that was you hhahahahahahahaha '
p168
aS'ohhh shee dangerous '
p169
aS'ahhaha your stupidd lol awww my cutieelt3'
p170
aS'im in luv wit a stripper \xf0\x9f\x98\x8d\xf0\x9f\x98\x82\xf0\x9f\x91\x8f'
p171
aS'imma sip until i feel it imma smoke it till its done'
p172
aS'i want to go to the mountains once it starts snowing up there'
p173
aS'your dumbbxdd ok watevaa'
p174
aS'lmao nahhhhh tripen'
p175
aS'no youu fucken dont xd your always deaaaad asleep'
p176
aS'ohh i always do mine'
p177
aS'lol xd im surprise that your doing yours cx'
p178
aS'lmao she a lil weenie'
p179
aS'fuck you grades\xf0\x9f\x98\x84'
p180
aS'oh shit  grades  yeah im pretty much fucked '
p181
aS'aahahha nahhhhhhhhhh you tripen'
p182
aS'your girlfriend can rap lmaooo '
p183
aS'i wonder if im still going to drift night'
p184
aS'ok bitch lol'
p185
aS'ahahh okayyyy if thts how you feel lol'
p186
aS'awwww thts wass cutee  and i wass looking at it ahhh'
p187
aS'ohh helll nooooooo gt'
p188
aS'ahha she doesnt do her work you think she going know lmao alright'
p189
aS'its not hw its fckk idk i forgot its jst from our txts books tho the like 5 qustion'
p190
aS'thought soooo '
p191
aS'soy un buen chavo feliz de la vida'
p192
aS' oo'
p193
aS'i cant sleep at night when your on my mind \xe2\x99\xa5'
p194
aS'what are the works pages for miss joliff from the book '
p195
aS'mad ass a muddafcka gt'
p196
aS'i like her too muchhh lt3'
p197
aS'woooowwww she would slap my piercing off thts right she better pic it back up  lol'
p198
aS'home  '
p199
aS'no one knows what ive gone thru '
p200
aS'cocaine addicted apartment aviction'
p201
aS'\xe2\x99\xa5 '
p202
aS'bomb ass weather to be with tht only special beautiful girl '
p203
aS'in need her here noww too coldd'
p204
aS'im gonna tell irene'
p205
aS'oh wait hes just highh'
p206
aS'tengo un chingo de hambre'
p207
aS'can we skip to friday already'
p208
aS'going knock out early'
p209
aS'hell yeahh boouta get my cutttt'
p210
aS'fully built heavy block '
p211
aS'hes such a kiss ass lol xd'
p212
aS'your pathetic dude'
p213
aS'oh jezzzzz those tweets are 2 funny'
p214
aS'hahah good old times thts right thts good lyssa will ima knock out stop being a stranger tho punk goodnight'
p215
aS'ass dummmm '
p216
aS'ahah we made tht class crackkyou still be playing softball or what'
p217
aS'you stranger noww ahha member msdavolos lmao'
p218
aS'glocks hot as kemosabe'
p219
aS'girls love to cut me in the lunch line '
p220
aS'girls think theyre slick cutting me in line but little do they know i get the last laugh bc i get to see booty'
p221
aS'thts good i been good toomiss your ass whats new with you'
p222
aS'how you beenn'
p223
aS'wassupping were you beenn attt'
p224
aS'smells so goooddd'
p225
aS'miss this feeling'
p226
aS'im loving it'
p227
aS'homework ohh welll'
p228
aS'time to sleeppp'
p229
aS'you should know wtf your doing'
p230
aS'gio gtfo twitter and text me back nigga'
p231
aS'ohh hooo ohhhhh'
p232
aS'im not going skewl tho '
p233
aS'ahhaha its true doe she wont do nadalmao by who'
p234
aS'lmao its her she wont do nothingg lol'
p235
aS'irene slap him '
p236
aS'fckk it round 2'
p237
aS'time to kiss some ass'
p238
aS'vete la verga no lmao'
p239
aS'and here comes all our cute text msgs'
p240
aS'\xe3\x85\x8a\xe3\x85\x8a\xe2\x99\xa5'
p241
asS'2013_46'
p242
(lp243
S'i miss her'
p244
aS'betttaa shittt lol'
p245
aS'ball so hard lets get faded'
p246
aS'why dont we play something these hoes will like'
p247
aS'damm this shower felt bomb asf'
p248
aS'i just want the money the money and the cars the cars and the clothes the hoes '
p249
aS'what to do today what to do hmmm'
p250
aS'goal of the day not give a fuck'
p251
aS'haha fuck you'
p252
aS'i can already hear monday whispering to me im almost here bitch smh'
p253
aS'ervin santana is a workhorse who needs a new stable predict his new team using hashtags below freeagenttracker'
p254
aS'ugly cloudy days are actually my favorite'
p255
aS'hope i get to see her tho'
p256
aS'homework then chill all dayy'
p257
aS'fuckk i for got i had homework'
p258
aS'feel betta noww'
p259
aS'ohh dammm tht hit the spot'
p260
aS'breakfast time\xf0\x9f\x98\x81'
p261
aS'finally home'
p262
aS'mhm cereol d'
p263
aS'fuck my life i only had a few hours to sleep in fucking tired'
p264
aS'your my princesslt33'
p265
aS'im looking out for her careing about her but she gets mad alright'
p266
aS'i care more then she does '
p267
aS'she wouldd gt'
p268
aS'ahaha wooooww '
p269
aS'59fitfty'
p270
aS'keep it fitted '
p271
aS'blowning up my phone dammmmm lol'
p272
aS'a bowl a cereal then knock the fuck out'
p273
aS'tired asf'
p274
aS'what a night ahah'
p275
aS'to me your a fucking beautiful piece of art'
p276
aS'tu 2night hell yeahh'
p277
aS'im out'
p278
aS'weather feels good to packs some bowls'
p279
aS'trying do something 2night'
p280
aS'hopefully i do something today\xf0\x9f\x98\x81'
p281
aS'i might dislike school but my ass still goes im trying to be someone in this shit we call life'
p282
aS'hell yeahh i wanna graduate to own this bitch'
p283
aS'ahhaha sickk as foooo'
p284
aS'started not to give a fuck and stopped fearing the consequence'
p285
aS'esta weyy la future baby'
p286
aS'shower time'
p287
aS'i jussst want a car already '
p288
aS'she my pickle head '
p289
aS'nahh aint going no more'
p290
aS'when it comes to hw i want to do it but i just cant i dont have the patience'
p291
aS'im glad to have herlt3'
p292
aS'my dad always says to never let shit get to you'
p293
aS'fat bitch'
p294
aS'awww i jst seen thtlt33 i fell for her spell to '
p295
aS'i take forever to reply sometimes because my phone doesnt vibrate loud enough or im sleeping'
p296
aS'ahha never gets old'
p297
aS'watching little rascals'
p298
aS'wtf what you mean expensive con eso 2300 you could get a clean ass one whit a swap in it'
p299
aS'ayyy weyyy sale it and get un hatch nigga'
p300
aS'mi linda guerita'
p301
aS'my life like no tommrw cuz i chse 2 live it up \xf0\x9f\x91\x8c\xf0\x9f\x92\xaa\xf0\x9f\x92\xb0\xf0\x9f\x94\xab'
p302
aS'clean looks better with white'
p303
aS'tht shitt does niggaaour new connect con beer ahha lol and my bro to fucuckk'
p304
aS'pa el otro yr ahah'
p305
aS'let go to la ill make una fake id weyy lol y si paso wey'
p306
aS'how was el hooka bar wey'
p307
aS'ahah el pinchie grifo weyyyy'
p308
aS'lmao xd'
p309
aS'y el tony y mota lol'
p310
aS'twitter confuses me sometimes'
p311
aS'o you dummyy'
p312
aS'ahha lol'
p313
aS'put tht you looking for a stock b18 intake'
p314
aS'orale post on socal see wasupp foo'
p315
aS'have it running already or what'
p316
aS'its gonna be real'
p317
aS'awww ima miss you babe lt3 hope you fell better tho beautifull '
p318
aS'asco'
p319
aS'yes i party but i still get my shit done'
p320
aS'lt3your such a cutie babe '
p321
aS'pancakes '
p322
aS'wait are you tlking bout the krespey kreme meet'
p323
aS'when is it'
p324
aS'on thursday will be 3 months whit my princesslt3'
p325
aS'i eat so much and never gain an ounce'
p326
aS'livin it up'
p327
aS'her booooootty so big its like a fairest wheel'
p328
aS'speed up gas pedal gas pedal gas pedal'
p329
aS'goodmoringg cutielt3'
p330
aS'love that movie'
p331
aS'fats and the furious never gets old'
p332
aS'this isnt a junkyard this is a garage'
p333
aS'boost cars'
p334
aS'i always give it to you full charge lmao'
p335
aS'the smell of burnrubba'
p336
aS'ahahha naahhhhh tht how you get when your phone dies'
p337
aS'rawwrrr'
p338
aS'tht picture made me laugh lol'
p339
aS'so true and looks like you babelt3'
p340
aS'lol'
p341
aS'ahahlt3 si ima tlk to you in spanish now'
p342
aS'ella me hace feliz'
p343
aS'she makes my day '
p344
asS'2013_47'
p345
(lp346
S'ima put double socks double sweats and double everthing lol'
p347
aS'cold as a modafcka'
p348
aS'good ass lil work out'
p349
aS'damm ima be kinda sore 2mrw ohh welll'
p350
aS'awww i like when she trips on me  ahha'
p351
aS'and ima bee straight killa'
p352
aS'miss this feeling'
p353
aS'just me amp you '
p354
aS'sasquatch'
p355
aS'fuucckkkkkk i get so mad when i see my self with out a hair cut gt'
p356
aS'ima keep on drinking cuz i love tht shit ima keep on smoking cuz i love tht shitt'
p357
aS'ohhh helll nooo'
p358
aS'omw '
p359
aS'mmmm should i'
p360
aS'to cold to function '
p361
aS'my back has been hurting all day \xf0\x9f\x98\xab'
p362
aS'i didnt do anything in my classes today just movies or like free time o thank you'
p363
aS'ahhaha jst alil lmao'
p364
aS'what a fcken dayy'
p365
aS'going talk to her on the phonelt3 then knock outt '
p366
aS'off this shit noww'
p367
aS'fuckkk its going rain 2mrw '
p368
aS'i get so high i touch the sky till i cant even function'
p369
aS'lets smoke some weed together'
p370
aS'damm kill my fcken nap gt'
p371
aS'fuckkkkkkk you'
p372
aS'pastel colombiana'
p373
aS'my stomach hurts to much laughing lol'
p374
aS'that was funny'
p375
aS'aahahhahahahhahahahahahah'
p376
aS'smokeampdrink'
p377
aS'im slowly dying'
p378
aS'this weather feels bomb to smoke some bowls'
p379
aS'why must you be so cute'
p380
aS'i think she bullshiting'
p381
aS'my mama said its going rain 2mrw '
p382
aS'lol'
p383
aS'yeahhh she dont got nothing on thissss'
p384
aS'im puffin and im poundin'
p385
aS'let me think'
p386
aS'ooooo she trying rap ightttttttt '
p387
aS'no importa si es lunes martes oh miercoles quiero amaneserme pistiando'
p388
aS'im tired and i want to smoke \xf0\x9f\x98\x9a'
p389
aS'mi vale pito'
p390
aS'fattasss '
p391
aS'im high definition if your blind you can listen you can probably hear me pissing on your crew ahaha'
p392
aS'ahahhaha i did o'
p393
aS'my shit so fly you can hear me zipping fluid'
p394
aS'meee ahahha wtf dont blame mee your jst always trowing ur self to the ground you have problems lol'
p395
aS'pancakes hit the spot '
p396
aS'high power'
p397
aS'te nada mi amor jajaj'
p398
aS'im happy you are coming friday with me '
p399
aS'awww mi baby a cutielt33'
p400
aS'awwwlt33 we cute '
p401
aS'ahaha sick ass foo'
p402
aS'got a gang of fuck niggas that be hating on me'
p403
aS'time to knock out'
p404
aS'crazy ass movie had me up ahha'
p405
aS'think ima knock out it but its early asf tho'
p406
aS'burgandy is a sexy ass color'
p407
asS'2013_44'
p408
(lp409
S'i wanna do something'
p410
aS'your to old to be snitchen'
p411
aS'beers sounds bomb right now'
p412
aS'buchanans y lavadero'
p413
aS'hahah lol'
p414
aS'dia de los muertos '
p415
aS'stuntingg'
p416
aS'playin with a nigga money thts disrespect'
p417
aS'smoke like a hippy'
p418
aS'finally home'
p419
aS'poes me sigue el rollo con mis camaradas'
p420
aS'me encanta que pida la banda i me de besos sabor a buchanans'
p421
aS'fruity pebbles'
p422
aS'bowl of cereal hit the spot'
p423
aS'my eyes are on fire'
p424
aS'damm this shower felt bomb'
p425
aS'wooowww'
p426
aS'ima thug'
p427
aS'jajaja uyy weyyy calmado lol que onda mija'
p428
aS'i dont give a fucc nipsey hussle'
p429
aS'done'
p430
aS'ahhah i could do both things at once'
p431
aS'wtf your on twitter but said your doing hw fucken liar'
p432
aS'ahha psshhh you funny'
p433
aS'el tony'
p434
aS'your triping cutiee '
p435
aS'got a white lamborghini call it sweet drug money'
p436
aS'yall dont even know what im train to do \xf0\x9f\x94\xab'
p437
aS'i need a bowl'
p438
aS'math makes my head hurt'
p439
aS'helll yeah done with my homework'
p440
aS'tht im keeping yoult33 for ever and ever '
p441
aS'i aint going bck to you wtfi got my princesslt3'
p442
aS'ahhah tht bitch is funny'
p443
aS'you deserve everything on this earth'
p444
aS' awwwwlt3'
p445
aS'lol'
p446
aS'ahhahaha lol all bad'
p447
aS'this weekend was great\xf0\x9f\x98\x98'
p448
aS'i enjoy every moment with you even if it just watching you sleep '
p449
aS'lt33 she made my day'
p450
asS'2013_45'
p451
(lp452
S'born to race is such a dope ass movie'
p453
aS'im half way there lol'
p454
aS'i want to do something tonight d'
p455
aS'fuckkk shouldnt have give her my rise crispy'
p456
aS'i need a nap \xf0\x9f\x98\x9e\xf0\x9f\x98\xaa'
p457
aS'bouta go munch '
p458
aS'hungry asf'
p459
aS'ahahh ohhhhhhhhh 0 fuck it shoot me an other one lmao'
p460
aS'hell yeahh the weather alll retarded tho one day its hot other its raining and then its windy like wtf lol'
p461
aS'nahh im feeling jst right whit one lol'
p462
aS'damm all badd nigga shits hot like a mothafcker huh'
p463
aS'ohh shitt 4reals wascracking over there hell yeah thts my hood lol'
p464
aS'ahah thts rightwere you been at bro'
p465
aS'team old school'
p466
aS'da9lt3'
p467
aS'lmao you funny girl'
p468
aS'lol you jelly'
p469
aS'lt she my angel babylt33'
p470
aS'put in work'
p471
aS'she knows already thts it me shittt lol im the boss'
p472
aS'ahahah lol'
p473
aS'damn thats so weird'
p474
aS'olor a kush'
p475
aS'put in work in my home worrkkkk '
p476
aS'fuck it not going lag on it'
p477
aS'feels late as fuck'
p478
aS'munchiess '
p479
asS'2013_39'
p480
(lp481
S'i got some gold bbs for my car'
p482
aS'pfffffffffff thank goodness you were'
p483
aS'i knew you were kidding i just knew it'
p484
aS'everyone in this house keeps making fun of my pimple '
p485
aS'dammm i knnock out for a pretty long time'
p486
aS'bout to ko'
p487
aS'im tired asf '
p488
aS'my babe has to wake up alreadyy '
p489
aS'im glad im with my beautifulll babelt3 no one else can replace her '
p490
as.