(dp0
S'2013_42'
p1
(lp2
S'why thank you hubspot peeps you read my mind perfectly imuk13 was a huge brain feast and worth every minute'
p3
aS'transform your business with my good friend louise walkers amazing new book marketing  from the ground up'
p4
aS'joes tv prog got us started on juicing too just need to find a magic juice machine washerupper now'
p5
aS'thoroughly enjoyed the entertaining keynote presentation from mumsnets at imuk in london yesterday what a journey'
p6
aS'how come a short london black cab journey costs \xc2\xa3720 one way amp \xc2\xa31140 return with return taking 1 min more both midmorning grrr'
p7
aS'ahh we must catchup on juicing favs you might like this too on my personal blog '
p8
aS'fascinating presentation shaun thank you although fiona was doing simultaneous translation'
p9
aS'a brilliantly entertaining amp enlightening presentation by kenny whitelawjones yesterday at inbound marketing uk thanks'
p10
aS'the tweet is mightier than the pen  speaking at imuk13'
p11
aS'i wonder if romeo tweets his insights'
p12
aS'eyeopening thoughtprovoking nicely controversial presentation from marketing genius brian halligan at imuk13'
p13
aS'at the congress centre with for the inbound marketing conference should be a great day imuk13'
p14
asS'2013_43'
p15
(lp16
S'google has stopped giving access to the the keywords in analytics'
p17
aS'thanks for the follow russell last time i saw you was on stage at kpi8 pitch fest you should have won obviously '
p18
asS'2013_40'
p19
(lp20
S'adam lt gt lucy you guys share a common passion in hotel successes so it seemed right to connect you'
p21
aS'thanks jonny very much appreciate the repost'
p22
asS'2013_41'
p23
(lp24
S'check out sumall  excellent aggregation site bringing your key online data together great daily summary too'
p25
aS'great to meet at today hes sold over 28 million books inc the excellent questions are the answers'
p26
aS'a real pleasure to see carol spiers speaking at breakfast this morning i left cogitating lots of tips'
p27
asS'2013_46'
p28
(lp29
S'the question is chloe did it make you want to go out and buy donuts '
p30
aS'good to meet you this morning at mike your experience and insight have really got me thinking'
p31
aS'i had the privilege today of enjoying a brilliant presentation by fergus mcclelland star of screen amp stage'
p32
aS'yes indeed chloe enjoyed meeting you too what an interesting business and field of expertise you have'
p33
aS'a paramount client\xe2\x80\x99s online sales increased 40 with the launch of their new website'
p34
aS'interesting innovative concept to massively raise your profile amp credibility online'
p35
asS'2013_47'
p36
(lp37
S'breaking news the new london domain name suffix will soon be available read more here'
p38
asS'2013_44'
p39
(lp40
S'social media and donuts read on'
p41
aS'excellent meeting on friday with our favorite bespoke erp developers amp'
p42
aS'show the world we want a phone worth keeping phonebloks'
p43
aS'sorry laura just me being pedantic your weather forecasting brings sunshine to dreary weather mustnotbesopicky'
p44
aS'ooh lisa my tongueincheek humour is clearly wasted on you '
p45
aS'your write lisa however lauras malapropism reminded me of this'
p46
aS'hope your safe this morning gt i hope youre safe too tut tut broadcasters '
p47
asS'2013_45'
p48
(lp49
S'by following im expecting some of his magnate magnetism to ruboff on me'
p50
asS'2013_16'
p51
(lp52
S'the clarity network daily is out \xe2\x96\xb8 top stories today via'
p53
aS'as we approach the end of the week remember that only robinson crusoe got everything done by friday'
p54
aS'reading the fantastic book clarity by amp cant recommend it highly enough stop thinking about it go get it for yourself'
p55
asS'2013_26'
p56
(lp57
S'google photos great photos in less time'
p58
asS'2013_20'
p59
(lp60
S'paramount is exhibiting at the south east business show  friday 17th  come and see us'
p61
asS'2013_22'
p62
(lp63
S'shaa wasmund is shy amp retiring with only a few friends but its her birthday so please rt to wish her a wonderful day'
p64
asS'2013_29'
p65
(lp66
S'do you have media sales experience and looking for a change in your career amscreen are hiring apply here'
p67
aS'10 browser extensions to streamline your workflow via'
p68
aS'microsoft finally reveals that no one wants the surface rt via'
p69
aS'exciting to see the secondscreen proposition from fournow live tweets in sync with programmes'
p70
aS'thanks for the retweet jody i take it you were at the figaro event today'
p71
aS'spinach celery cucumber ginger frozen wheatgrass apple pineapple lime wow fullofbeans '
p72
aS'thanks to for a brilliantly orchestrated digital marketing conference with a stellar speaker lineup a great day figdigconf'
p73
aS'im not sure is actually an adjudicator i think she may just be hungry'
p74
aS'proves quite how much rocks figdigconf'
p75
aS'brilliant fun informative engaging and entertaining 21s presentation by the shorthaired andy atalla at figdigconf'
p76
aS'would love a copy of andys 39 facts so i can regale my friends figdigconf'
p77
aS'very useful to be exposed to such insight and experience thanks yara'
p78
aS'yes the recommendation is great thanks if they were using social media we could engage them i feel a meeting coming on '
p79
aS'figdigconf yes finally sky scanner remind people its not volume of likes that counts but volume of engagement'
p80
aS'andy obrian from amaze  lovely factoids the information on the internet weighs the same as a grain of salt figdig\xe2\x80\xa6'
p81
aS'juicer is juicetastic half the time twice the juice 100 goodness might still have for lunch '
p82
aS'figdigconf sage advice from of  in your social media campaign focus on customer engagement not roi'
p83
aS'conference content is interesting enlightening eyeopening if a little dry and 100mph digital marketing seems to work'
p84
aS'massive congrats at winning silver at the enterprise awards i will raise a glass of green juice to you'
p85
aS'fascinating fact from andy obriens fun presentation www is a 9 syllable abbreviation for a 3 letter abbreviation figdigconf'
p86
aS'missing in action unable to attend figdigconf  fear not all content is being recorded and will be available  breathe'
p87
aS'discovering ryangoslingwonteatcereal via from figdigconf the power of retweets'
p88
aS'twitter uk at figdigconf demonstrates the power of 2nd screening combining what you watch with twitter usage eyeopening'
p89
aS'talk at figdigconf by steve ash from on implementing systems for the growing mobile market has really made me hungry'
p90
aS'brilliant talk at figdigconf by justin khaksar from on the incredible power of video marketing'
p91
aS'figdigconf eager anticipation at the figaro digital marketing conference london'
p92
aS'work on the tiny details to improve your business'
p93
aS'if you dont understand your roi you will always think your marketing is expensive bizwealth'
p94
aS'questions fuel social media its been said many times in this blog and it probably needs to be said again\xe2\x80\xa6'
p95
aS'watch this space '
p96
aS'is it a white glove are you surrendering already'
p97
aS'i feel a dinner party coming on'
p98
aS'just seen in your profile makes a mean lasagne i bet mines better i can see us having a cookoff '
p99
aS'if youre a linked in fan and like to make valuable connections check out opprtunity'
p100
aS'loving the mean green juices thanks to inspiring story incorporating not fully replacing but loving the energy'
p101
aS'sounds like a bit of a shambles gutted for you'
p102
aS'were you still able to get in do you know the result'
p103
aS'particular good meeting today with fiona and a great client to discuss social media engagement for their business'
p104
aS'very welcome jerry kpi will open your mind and change the way you think forever'
p105
aS'brilliant demo of concentration v focus by at his resourcefulme book launch monday with amp'
p106
aS'looking forwardbeing at the conference on thursday with such a fantastic agenda amp speakers figdigconf'
p107
asS'2013_17'
p108
(lp109
S'write a book now theres an interesting idea'
p110
aS'great to spend time yesterday and today with such a supremely talented financial life planner'
p111
aS'fantastic roundup day at kpi with looking forward to kpi9 pitchfest'
p112
asS'2013_37'
p113
(lp114
S'feed your photography sigma imaging uk september news'
p115
aS'firstever caterham beer festival is on nov 22nd amp 23rd ticket entry only want to sponsor it'
p116
asS'2013_36'
p117
(lp118
S'indeed it is a pair of shiny shorts youd think aunty would know better '
p119
aS'we are looking to employ qualified team leaders and climbing arborists to work from our reigate depot providing htt\xe2\x80\xa6'
p120
aS'good to meet innovative topnotch designer joerg again to discuss a potential project for a new york art gallery'
p121
aS'talks a huge amount of sense in making it easier for innovative people to start a business'
p122
aS'amazing view of microsoft nokia deal and mobile marketshare and strategy'
p123
aS'move over apple your days are numbered'
p124
aS'the art of negative space  15 amazing examples'
p125
asS'2013_35'
p126
(lp127
S''
p128
aS'well im not saying its a hard act to follow but '
p129
aS'looking forward to a meeting soon with legendary restaurant amp bar social media guru and author'
p130
aS'a positive and thoughtprovoking meeting yesterday with fiona sarah amp simon partnerships'
p131
aS'its not possible to have a shiney pair of anything tut tut'
p132
aS'spreading literacy spreading internet'
p133
asS'2013_34'
p134
(lp135
S'we found your phone a heartwarming story of kids ingenuity and honesty'
p136
aS'how to work with big companies to grow a small business via'
p137
aS'great to see you fi a really enjoyable and insightful evening i look forward to the return match'
p138
aS'the best home made lasagne this side of tuscany is about to be served even though a certain thinks she can do better '
p139
aS'one month to go for peace one day'
p140
aS'thanks for the follow great sound very chilled and soulful '
p141
aS'how to train your creative mind by'
p142
aS'everything you need to know about eating sushi'
p143
asS'2013_33'
p144
(lp145
S'the future is bright the future is green'
p146
aS'todays lesson in belief amp trust with if a train is said to be westbound it probably is'
p147
aS'just had an enlightening business development session with amp insight amp clarity on steroids thanks dan'
p148
aS'if youre still not sure about the power of a tweet this might convince you'
p149
asS'2013_32'
p150
(lp151
S'perseids meteor shower to shimmer over uk'
p152
aS'what fantastic customer service from who delivered my first order of frozen wheatgrass in under 24 hours thanks guys'
p153
aS'the digital entrepreneur autumn dinner interesting'
p154
aS'check out launching tomorrows leadership the language of trust via'
p155
aS'entrepreneurial thoughtoftheday youll never plow a field if you only turn it over in your mind'
p156
aS'is it rightpoliteetiquette to keep asking people to rt isnt the value in a retweet when it happens organically'
p157
aS'wow it turns out that google really is the internet'
p158
aS'the unstoppable attraction behind your personal brand'
p159
aS'send texts from your pc via your android phone with mightytext brilliant android sms'
p160
asS'2013_31'
p161
(lp162
S'were at gatwick enroute to berlin for our cultural realignment tour 3 days of building international relations in a social setting'
p163
aS'6 keys to writing for your small business blog via'
p164
aS'video self generating pr  the art of storytelling and marketing your brand  smarta'
p165
aS'i think emmetts daughter is 19'
p166
aS'find out why its important to keep uptodate on your industry if you want to be successful caree\xe2\x80\xa6'
p167
aS'really interesting article on the importance of creating your niche nicola'
p168
aS'congratulations andrew hope all is well for you'
p169
aS'definition of mad wildly excited it was a pleasure to meet you '
p170
aS'we miss your witty but insightful inciteful observations at vpr biz club will you be joining us again in the future'
p171
aS'upside of the other side you gain more influence by helping others see more of the upside in any initiativenegotiation'
p172
aS'looking forward to working with richard chambury on a clients project which needs commercial photography'
p173
aS'now theres a kpi pitch if ever i heard one '
p174
aS'will do looks like a great place'
p175
aS'really enjoyed your witty but informative and inteligent responses as a panelist last night at smarta100'
p176
aS'nice to meet you at this evening carol said in my best french accent will look out for your blog '
p177
aS'another belter of an event organised by amp expert panel all award winners great advice thanks guys'
p178
aS'ask your customers what your story is smarta100'
p179
aS'evernote is a brilliant cloud service to store and log anything from anywhere manually but it is free smarta100'
p180
aS'reall wise words from from seven hills  thinking about how to tell your story is as important as your product smar\xe2\x80\xa6'
p181
aS'is the only man qualified to sell you on jam tomorrow smarta100'
p182
aS'cant see marianne or rafael in the massive crowd at smarta100 pr event'
p183
aS'nice to meet away from facebook at smarta100 event with a few more familiar kpi faces too'
p184
aS'paramount digital marketing smarta100 event with and strutting her stuff'
p185
aS'a rotor flies off the helicopter theyre all standing around thats full health amp safety precautions in place really'
p186
asS'2013_30'
p187
(lp188
S'graze is brilliant get your free box with my feed your friends code 54l4gyyt at'
p189
aS'to the world you may only be one person but to one person you may be the world  thats me obviously'
p190
aS'learn from your successes they say learn from your failuresbut what you learn from your successes is key too'
p191
aS'send your mobile stuff to your tv'
p192
aS'just watched dont blame facebook incredible stories of events getting way out of control because of what people post or tweet'
p193
aS'this mornings yummy smoothie'
p194
asS'2013_39'
p195
(lp196
S'ebays 2012 revenue 82 billion dollars'
p197
aS'just seen you on surprise surprise and your website appears to be down'
p198
aS'success2013 james caan amazing success but on stage slightly dull and uninspiring disappointed'
p199
aS'morning everyone looking forward to speaking at success2013 today'
p200
aS'if youre the smartest one in your group you need to get a new group les brown at success2013'
p201
aS'success2013 rule no1 rules are made to be followed'
p202
aS'really good to meet you and maggie at tonight look forward to catching up again soon'
p203
aS'pleasure to meet the amazing find your thing at tonight thanks for a great networking evening tanya'
p204
aS'the train driver is trying to announce the stops ahead but it keeps breaking up into bits of words funny amilost'
p205
aS'junior webdevelopers looking for a change paramount digital marketing is looking for you'
p206
aS'thanks for the follow sally nice to make your acquaintance'
p207
aS'thanks for retweeting our vacancy michelle very much appreciated'
p208
aS'many thanks for the retweet much appreciated '
p209
aS'thank you for favouriting our vacancy tweet david'
p210
aS'thanks for retweeting our vacancy margaret much appreciated'
p211
aS'thanks for retweeting our vacancy emma much appreciated'
p212
aS'thanks for retweeting our vacancy bizitalk much appreciated'
p213
aS'thanks for the follow'
p214
aS'thanks for the follow alexander'
p215
aS'paramount digital marketing is on the hunt for a great junior developer if you know anyone please send them here'
p216
aS'paramount digital marketing is on the hunt for a great junior developer if you know anyone please send them here'
p217
aS'thanks guys much appreciated details emailed to you jonny'
p218
aS'paramount digital marketing is on the hunt for a great junior developer if you know anyone please send them here'
p219
asS'2013_38'
p220
(lp221
S'i\xe2\x80\x99m going to success 2013 london on sept 28th fancy coming too via'
p222
aS'looking forward to my first business meeting on fri 27th fancy joining me'
p223
aS'next wednesday i\xe2\x80\x99ll be hosting a live twitter qampa aimed at entrepreneurs and startups send over your qs usi\xe2\x80\xa6'
p224
aS'where is your business on the scale between productbudget and premiumrelationship'
p225
aS'huge congrats to louis for wowing a new client by delivering above their expectation on their rebrand'
p226
aS'get the new book be a people person for free on your kindle from amazon before midnight tonight'
p227
aS'thanks to fiona im now using the excellent justunfollow app anyone else'
p228
aS'i cant look at the choices to have at any more as its making me hungry tweet me to get a free box'
p229
asS'2013_11'
p230
(lp231
S'kpiday and just made the world smaller and infinitely accessible thanks to the little blue dot'
p232
aS'interesting informative engaging entertaining amp emotive are all words describing the excellent kpiday spent with'
p233
asS'2013_10'
p234
(lp235
S'selfridge and mr crabb sets the example of preempting the market by bringing forward umbrellas and rainwear genius'
p236
aS'north korea and cuba are the only two countries left in the world which do not sell coca cola'
p237
aS'archive turning a bad day into a good one'
p238
aS'had an amazing raw food lunch supplied by including artichoke salad falafel and some fantastic courgette spaghetti'
p239
aS'spent 2 days at expand your brand amazing speakers inc'
p240
asS'2013_12'
p241
(lp242
S'fomo joy jealousy and the lizard'
p243
aS'anyone can lose their trade mark intellectual property experts shows how innocent drinks has messed up'
p244
aS'very conscious being in a seminar with chiropractor and selfconfessed posture addict amp trying very hard not to slouch '
p245
aS'rt income seldom exceeds personal development  jim rohn'
p246
aS'nice to see again today we miss you at kpi '
p247
aS'just spent a hugely valuable afternoon with iconic brand creator mike harris 5 whys will always find the real question'
p248
aS'11 google products and services you might not know exist'
p249
aS'whatsapp give it away get zillions of users then charge for it genius only new users but well see '
p250
asS'2013_15'
p251
(lp252
S'fantastic day on publishing spent with and the team at plus bestselling author of clarity'
p253
aS'publishnow at a book publishing event with'
p254
asS'2013_14'
p255
(lp256
S'google is shuttingdown youtube at midnight tonight'
p257
as.