(dp0
S'2013_42'
p1
(lp2
S'england vs poland tues nightthree crownswhos coming promo 710pm pint of carling \xc2\xa3295 ruddington nottscityrocks'
p3
asS'2011_44'
p4
(lp5
S'had my vote do i get a follow '
p6
aS'just realised i got 3 beer glasses from rovers in me bag musta lifted em lastnite when i were pissed never mind il '
p7
aS''
p8
aS'u gonna call in and when u get bk salford sure theyd be well happy 2meet you hey girls  '
p9
aS'fooking kevin websters outside me window wanking while writing  i wanna shag deirdre with a sparkler hhhmmm should '
p10
aS'please vote its serious xfactor'
p11
aS'louis i totally agree with everything you said them 2only have good things 2say about each others winner'
p12
aS'if leaves this show the then you have one epicfail on ur hands and kelly and gary are livin in each others pockets'
p13
aS'have you actually watched ur own acts has more talent and stage presence than the lot of em'
p14
aS'tonight will be amazing xfactor'
p15
aS'you gonna grow the hair on ya mound for movember'
p16
aS'wer in bits earlia fort a was avin a brown period turnd owt ad jus sat on a walnut wip an it meltid into mi biff'
p17
aS'10 out of 10 you rocked nottingham concert hall and made that ladys night with her birthday kiss'
p18
aS'nottingham concert tonight 3 rows from front excited much '
p19
aS'10thingsifindattractive ken barlow'
p20
aS'eddie you only work in a shop you know you can drop the attitude'
p21
aS'fewmin blind eyeleen ran owt in frunta mi scoota jus now ad fert swurve so a dint kill the daft cunt av gorra fu '
p22
aS'pls release more dates nottingham tickets sold out when released i was on hol keep ringing to check for last min cancel cry'
p23
aS'patsy this isnt a rave its a happening abfab'
p24
aS'johnny and kitty are amazing '
p25
aS'thingslessmankythanfrankie washin ur nickers in one of them muddy rivers in india'
p26
aS'thingslessmankythanfrankie wen u leave a flowter int bog overnite an u go int mornin ferra piss an the water is brown'
p27
aS'thingslessmankythanfrankie mi mound after av let al the lads ont estate av a go on it'
p28
aS'thingslessmankythanfrankie mi mams used jam rag thats bin sat ont bathrewm floor fer 2 weeks coverd in pubes an blood'
p29
aS'eddy lights models guest list just do your best darling abfab'
p30
aS'no shave november mi mound is guna luck like subos head'
p31
aS'patsy oh you little bitch troll from hell abfab'
p32
aS'so i watched x factor today and for me the performances of the weekend were kitty and little mix really like them x'
p33
asS'2011_19'
p34
(lp35
S'well done guys amazing  come home proud the boys in blue were robbed in my eyes x'
p36
aS'so unlucky moldova'
p37
aS'cracked open the cava for tonights semi saving the champagne for saturday nights party  bring on jedward'
p38
aS'not portugal lmao'
p39
aS'if your biggest goals dont scare you at least a little theyre too small leadership'
p40
asS'2011_18'
p41
(lp42
S'excellent '
p43
asS'2012_49'
p44
(lp45
S'only one with any talent u can actually sing well creepysick'
p46
aS'there relationship advice is about as good as gemmas dedication to the gym towielive'
p47
asS'2012_47'
p48
(lp49
S'wow were through again down to you guys starting to run out of words to say thank you i will do all i can this '
p50
asS'2012_41'
p51
(lp52
S'greetings im back there in 5 weeks veronicas strip oneil up stairs modern room and cheesy room poles too lol'
p53
asS'2012_42'
p54
(lp55
S'did u tweet'
p56
asS'2011_41'
p57
(lp58
S'excellent result louis  love all ur acts'
p59
aS'patsy quite big tits'
p60
aS'track 12 from ur from now on album  the best  please do this at nottingham make my day '
p61
asS'2012_28'
p62
(lp63
S'starships are ment to fly'
p64
asS'2012_25'
p65
(lp66
S'if joe hart pulled this face to me i wud drop mi knickers an open mi legs'
p67
asS'2012_24'
p68
(lp69
S'omg this is my 4999th tweet rt if you want a shoutout in my 5000th tweet mingers'
p70
asS'2012_22'
p71
(lp72
S'follow me dude would be well ream shuuuuut ap'
p73
aS'just get here if you can'
p74
aS'you can windsurf into my life'
p75
aS'swing from rope to rope'
p76
aS'i dont care how you get here'
p77
aS'you can reach me by railway'
p78
asS'2012_21'
p79
(lp80
S'thats how we role lol'
p81
aS'outdoor eurovision party '
p82
asS'2012_20'
p83
(lp84
S'are we reem enough for a rt  twitpiccom9l3zgh'
p85
asS'2011_20'
p86
(lp87
S'how do u keep a straight face on buzzcocks'
p88
asS'2011_26'
p89
(lp90
S'omg amazing conversation u will have then lmao xx'
p91
aS'nope she requested payroll breakdown but if i here nothing tomorrow im gonna send her a sturn reply xx'
p92
aS'hows things dear  ready for the hol  xxx'
p93
asS'2011_24'
p94
(lp95
S'no dear nachos and pizza on balcony lol xx'
p96
aS'just seen your repeat on piers morgan i think you are amazing and your personality shined  missing you on the uk box xx'
p97
aS'happy birthday mr mc x'
p98
aS'shows wicked '
p99
asS'2011_25'
p100
(lp101
S'i do believe its oclock dear my iphone is smashing out song for the lonely as i type xx'
p102
asS'2011_28'
p103
(lp104
S'missing you already had great time come back soon for midnight swims xx'
p105
aS'omg pissmypants'
p106
asS'2012_16'
p107
(lp108
S'pounded now '
p109
aS'get that bus now lol x'
p110
aS'yes its vodka oclock'
p111
aS'r u on late'
p112
asS'2011_45'
p113
(lp114
S'rt if you would suckk on massiv fat juicy nob mmm thexfactor xtrafactor'
p115
aS'xfactor louis is off again telling craig he looks like a young gary barlow hope he doesnt tell misha shes a yo '
p116
aS'sort your ken out dude'
p117
aS'please vote for us tonight weve for so much more to give lots of love xx'
p118
aS'also down the elephant and castle where is the tree i need to visit lol x'
p119
aS'just having a stella black down landan town xfactor tonight cmon to the give us a follow \xf0\x9f\x98\x9d'
p120
aS'whats got 400 legs and no pubic hair  front row of a one direction concert am in bits ere'
p121
aS'young lady frig offand wash your bastard curtains eastiseast'
p122
aS'louis my mate lucy would be made up if you follow her it is ff tomorrow if you dont she will be fewmin'
p123
aS'love love love she is one of a kind and fearless xfactor'
p124
aS'bring back gamu'
p125
aS'lincoln on way now whats the night life like there much to do '
p126
aS'im fewmin about frankie'
p127
asS'2011_46'
p128
(lp129
S'when your standing on the edge of  '
p130
aS'of course \xf0\x9f\x98\x82\xf0\x9f\x98\x82 insecurity'
p131
aS'sort this owt pet'
p132
aS'follow follow follow  please please please '
p133
aS'whats with the claw misha'
p134
aS'marrrrrrcus give us a follow  \xf0\x9f\x8e\xa4\xf0\x9f\x8e\xa4'
p135
aS'i found em gorge xx'
p136
asS'2011_40'
p137
(lp138
S'craig and janet but did like the risk too '
p139
aS'please keep your xfactor tweets coming i love em '
p140
asS'2012_13'
p141
(lp142
S'please re tweet this griffin menswear ad link my brotherinlaw shot so we can get it loads of views '
p143
asS'2011_42'
p144
(lp145
S'i just need to lay down and admit was good'
p146
aS'you had my vote kitty 88333 kitty 88333 kitty 88333 kitty 88333 kitty 88333'
p147
ag8
aS'dont listen to his acts end up in the bottom two love cher love you'
p148
aS'follow   they would smash ur back doors in'
p149
asS'2011_43'
p150
(lp151
S'go team walsh '
p152
aS'result  x'
p153
aS'super brat is back cher lloyd'
p154
aS'hello miming on a singing show xfactor'
p155
aS'that rasist cunt wot wer on ere las nite as bin deleated by twita xx'
p156
aS'vote kitty and johnny '
p157
aS'you will be in bits there then bbe'
p158
aS'text kitty to 88333 rt everyone'
p159
aS'mi an are luv kitty an sexi jonny xx smashin fuk owta are biffs ere'
p160
aS'kitty was actually pretty good tonight '
p161
aS'oh fuck off frankie fingering a few slags and smoking weed in your bedroom doesnt make you keith richards xfactor'
p162
aS'should he stay or should he go go '
p163
aS'girl  you can sing my vote all day long'
p164
aS'should stay or go'
p165
aS'eddy i want total sensory deprivation and backup drugs alright abfab'
p166
aS'watched your new vid on vivo love it is that the bgt dog  via'
p167
aS'im watching come on by will young on for iphone'
p168
aS'eddy this is my daughter saffy jackie never mind too late to flush her now abfab'
p169
aS'my halloween special  you like  rt x'
p170
aS'u gurls giv me a reet ard on now im gonna splash me juice ova sofa thinkin of ya 2s tite uns'
p171
aS'mi nob iz frobin at fort biffin ya jon west cunt into nxt wk sausage surprise for everyone'
p172
aS'bbe id shit in ya mouf and pound ya mud passage ya cnt sit down fa a wk x'
p173
aS'its be reeet deep to up ya tite box if ya good ya mite get sum finga pye'
p174
aS'id beat ur mound lyk a salvation army drum ova a skip whyl eating my keebab u hot bitch xx txt bk'
p175
aS'me mate sent ya pitur of louis retweet it or i be round 2morrw n smash shit owt ya mams mound'
p176
aS'welovekitty omg this is so lovely thank you'
p177
asS'2012_52'
p178
(lp179
S'congrats on the mbe guys'
p180
asS'2012_51'
p181
(lp182
S'can you retake the december picture in your calendar holding the strictly trophy in the showdance outfit thanks then '
p183
aS'everyone dial 6225206 from your mobiles now winner '
p184
aS'fancy sending a signed photo to someone to make their xmas  she loves you when shes sober not just drunk op'
p185
aS'just had my first spray tan hahaha'
p186
asS'2012_18'
p187
(lp188
S'give us a follow i tweet nowt but would be reem 2 have the man that is essex follow us ff'
p189
aS'project implementation manager in bampq monday to friday '
p190
aS'left tesco new job week monday in london quick holiday before though funtimes'
p191
asS'2012_19'
p192
(lp193
S'on way to london new job starts tomorrow panic'
p194
asS'2012_36'
p195
(lp196
S'one word amazeing'
p197
aS'dude now is your time  watching and on edge of my seat go jonnie go go go'
p198
asS'2011_31'
p199
(lp200
S'being beaten at pool by a 10yr old theshameofitall'
p201
as.