(dp0
S'2013_42'
p1
(lp2
S'football  manuals nero scores td to cut st x lead to 147 with 524 remaining in the 2nd qtr'
p3
aS' this hurts repeat chances'
p4
aS'updated complete 6th and 7th region boys and girls soccer tournament pairings'
p5
aS'i liked a video nick delpopolo judo olympian full interview  take it uneasy 11'
p6
aS'kevin ware updates lsl on his progress  via'
p7
aS'congrats to shoni schimmel antonita slaughter amp sara hammond on being named to the preseason allamerican team toda\xe2\x80\xa6'
p8
aS'tues oct 15 pg 2 gsoccer \xe2\x80\x9325th disfinal v presentation \xe2\x80\x93530 \xe2\x80\x9325th disfinal v st francis 730 vb\xe2\x80\xa6'
p9
asS'2013_43'
p10
(lp11
S'noles like the noles'
p12
aS'poll update a unanimous no 3 in all four major polls soccertimes'
p13
aS'when i first was ul soccer fan in 80s 30 win over iu would have been pipe dream rt week in review'
p14
aS'2013 7th region boys soccer tournament dupont manual 4 christian academylouisville 2'
p15
aS'2013 7th region girls soccer tournament dupont manual 3 male 0'
p16
aS'this goal is amazing'
p17
aS'mizzou debuts in the bcs rankings at no 5 great start tigers'
p18
aS'louisville checks in at 20th in the first bcs rankings'
p19
aS'monday october 21 pg1  football male jv530 7th region tourn v cal 530 gsoccer \xe2\x80\x93 7th regi\xe2\x80\xa6'
p20
asS'2013_41'
p21
(lp22
S'depends r they using open flames to light venues rt if russians cant keep oly flame lit what chance sochi games not fiasco'
p23
aS'6a rankings t sc x male simon manual dixie butler mccracken henry clay'
p24
asS'2013_46'
p25
(lp26
S'scotland 0 usa 0'
p27
aS'ul hoops recruiting class'
p28
aS'wsoc cardinals host illinois state in ncaa first round on saturday'
p29
aS'super district playoffs in lou hs fb'
p30
aS'stat of the day a win for tim howard would tie him with kasey keller 53 for the most victories for a gk in usmnt history\xe2\x80\xa6'
p31
aS'in cricket'
p32
aS'shoni honing the v show right now'
p33
aS'rt orlando city confirms that they will be announced as an mls expansion franchise on nov 19 at cheyenne\xe2\x80\xa6'
p34
aS' louisville women set to sign five elite recruits via'
p35
aS'big news join us for a major announcement on november 19 in downtown orlandogt gocity'
p36
aS'improving scotland will want to claim scalp of a world cup team v usa live on espn2 245 friday et quite a good test for a\xe2\x80\xa6'
p37
asS'2013_47'
p38
(lp39
S'two plane crashes left michiganbound austin hatch parentless and clinging to life basketball has helped him heal htt\xe2\x80\xa6'
p40
asS'2013_44'
p41
(lp42
S'dupont manual82  54 eastern45  7'
p43
aS'scoop de ville blog with postseason play in sight louisville stays focused on the present'
p44
aS'we gon be good'
p45
aS'happy birthday to jimmy pedro '
p46
aS'msoc no 20 saint louis visits no 11 louisville on halloween night'
p47
aS'they fear the beard rt trouble for st louis cardinals team plane hasnt yet left for boston due to mechan prob'
p48
aS'mls to miami again'
p49
aS'becoming big time college athlete doesnt mean youre no longer a human  lay off these guys'
p50
aS'college soccer weekend rewind washington falls to ucla virginia hands notre dame first loss and more'
p51
aS'link to boys soccer state tournament bracket'
p52
aS'link to girls soccer state tournament bracket'
p53
aS'as regional volleyball tournaments begin around louisville tonight heres the latest statewide top 25 mercy is 1'
p54
asS'2013_45'
p55
(lp56
S'notre dame beats sacred heart 20 in girls soccer state final'
p57
aS'another group mitt romney john fish says its exploring a 2024 boston olympics'
p58
aS'this would be so hard  but this is what great players have to do generally'
p59
aS're report on orlandomls announcement on 1119 heres indepth qampa w city pres phil rawlins'
p60
aS'scoop de ville blog new season starts this weekend for louisville mens soccer'
p61
aS'sacred heart soccer team ranked 9 in the nation'
p62
aS'msoc louisville mens soccer week in review for oct 31nov 3'
p63
aS'congrats to kassey kallman named a first team academic alldistrict for district 4 by capital one 3yearsina\xe2\x80\xa6'
p64
aS'louisville with the 2013 american athletic conference regular season trophy'
p65
aS'on sunday night anna dufour received the 2013 ky miss field hockey award given to top all around senior ht\xe2\x80\xa6'
p66
aS'louisville mens soccer claims aac regular season title'
p67
aS'kevin ware went through full practice yesterday amp is likely to dress saturday for the season opener'
p68
aS'university of louisville fall sports are a combined 3342 872 in league play with three titles and counting everybodywin\xe2\x80\xa6'
p69
asS'2012_45'
p70
(lp71
S'and also the greatest long name in soccer history jan vennegoor of hesselink'
p72
aS'virginia upsets wake forest on pks after 22 draw secures acc semifinal berth vs north carolina on fri at maryland s '
p73
aS'the mens college top 25 features drexel at no 22 and two schools from '
p74
aS'you cant lose to wales its just not acceptable'
p75
aS'so far nobody has contacted me about the scotland job again ultimately its simple youve simply got to beat wales'
p76
aS'uf women win sec soccer champ'
p77
asS'2012_44'
p78
(lp79
S'lady cards gonna be pretty good this year too'
p80
aS'column reminded me how great david padgett was  loved that guy  uofl'
p81
aS'next up for wakulla 11 01 at godby on saturday wakullagirlssoccer'
p82
aS'florida high 3 wakulla 2 in dist game huge win for fh after wakulla went up 20 wak won reg season matchups last year by combined 91'
p83
aS'wdrb column  uofl coach rick pitino at 60 looking to add to his story'
p84
aS'2012 girls soccer state tournament notre dame 1 elizabethtown 0 khssog'
p85
aS'2012 girls soccer state tournament tates creek 5 bowling green 1 khssog'
p86
aS'why i wish mls would adopt relegationbalanced schedule get rid of playoffsgames meaningful and people w '
p87
aS'mls sets new attendance record of 18807 per game that folks is higher than french ligue 1 which is to say that i '
p88
aS'acc domination of womens soccer only threatened by pac 10'
p89
aS'harris and allen assist each other randi arnoldy and aliyah callahan dominate the midfield wakullagirlssoccer'
p90
aS'wakulla 5 jp ii 1 in season opener tonight wakulla gets hat from maddie harris and a brace from brook allen wakullagirlssoccer'
p91
aS'follow wakullagirlssoccer  season starts tonight after a win and a draw in preseason tourney'
p92
aS'formations are good  but good players are better'
p93
aS'wakulla girls soccer 00 tonight 5 pm at jp ii wakullagirlssoccer'
p94
aS'our top 10 college teams in the washington region hoyas uva '
p95
aS'wakulla girls soccer at jp ii tonight 5 pm wakullagirlssoccer'
p96
aS'fsu playmaker back from international duty and theyre back to winning'
p97
asS'2013_16'
p98
(lp99
S'kebede wins london marathon amid tight security'
p100
aS'whoa cool rt louisville football will reportedly play notre dame in 2014'
p101
aS'newsletter video highlights from lindsey wilson announcement of gk coach danny cepero'
p102
aS'sports illustrated magazine cover on the boston bombings'
p103
aS'london marathon to go on as scheduled on sunday'
p104
aS'greg cochrane\xe2\x80\x99s mls debut the lone bright spot in las loss to fc dallas mls cards'
p105
aS'sport is a pillar of our national soul and someone went after it monday on boylston street in boston'
p106
aS'lelisa desisa of ethiopia has won the mens race in the boston marathon rita jeptoo won the women '
p107
aS'sports tourism big econ driver'
p108
aS'spare a thought for the 96 who lost their life on this terrible day 24 years ago and the families who lost loved ones '
p109
asS'2012_41'
p110
(lp111
S'manual volleyball'
p112
aS'ky girls hs soccer'
p113
aS'presale tickets for friday\xe2\x80\x99s football game st xavier will be on sale for 6 during all lunches on friday in book '
p114
aS'yet still no mls rt miami becoming soccer hub concacaf bein sport univisionabc us training base'
p115
aS'miami becoming a soccer hub concacaf traffic bein sport univisionabc us training base new owner of world football '
p116
aS'smart move by wonga to buy naming rights for newcastle stadiumand return name to st james park old stadiums shouldnt '
p117
aS'rick pitino radio appearance on terry meiners show 10812  via'
p118
aS'tuesday  volleyball\xe2\x80\x9325th district tournament shawnee manual vs centralshawnee winner 730 pm '
p119
aS'ky cj hs football rankings kyhsfb'
p120
aS'awesome rt new akoy agau highlight mixtape '
p121
aS'crawford column  wes korir didnt get the finish he wanted in chicago but the story of his work in kenya is being tol '
p122
aS'upset for gators in womens soccer beating tex aampm'
p123
aS'w college soccer embry riddle rolls'
p124
asS'2012_40'
p125
(lp126
S'come on toon'
p127
aS'st xavier boys notre dame girls top state soccer polls'
p128
aS'a last second touchdown by manual resulted in the final score being trinity55 manual27'
p129
aS'part 4 of sis insidethesuperclubs barcelona  the most successful youth academy in world sports'
p130
aS'an update on bein sports pursuit of cable carriers'
p131
aS'americans abroad a look ahead friedel and dempsey lead tottenham against guzan and lichaj and more '
p132
aS'blog post seven hot matches'
p133
aS'hs vball chiles over lincoln'
p134
aS'male girls soccer defeats manual 20'
p135
aS'manual vs male girls soccer game is underway stay tuned for updates'
p136
asS'2012_43'
p137
(lp138
S'munchie lestop uofl'
p139
aS'munchie wasnt hungry enough uofl'
p140
aS'football except its dupont but still  dupont manual 35 moore 0 khsfb'
p141
aS'football dupont manual 35 moore 0 khsfb'
p142
aS'11 billion for us world cup tv rights at least 250 million for us premier league rights there might just be a future '
p143
aS'the english premier league on nbc media maven says its the frontrunner'
p144
aS'quarterfinals set for boys soccer state tournament'
p145
aS'the sporting news ranks louisville 2 on their top 25 countdown  via'
p146
aS'univ of evansville\xe2\x80\x99s emma roberson manual class of 12 was named missouri valley conf volleyball frosh of the we '
p147
aS'high schools with athletic trainers have more diagnosed concussions fewer overall injuries  '
p148
asS'2012_42'
p149
(lp150
S'manual keeps the barrel'
p151
aS'6th region champ mercy girls soccer team will play at 10 elizabethtown in semistate game at 7 pm monday game at tk sto '
p152
aS' the players on our first rivalry team were too old to fight in world war i'
p153
aS'and as points out 1 st xavier vs 3 trinity soccer might be biggest high school game tonight in any sport'
p154
aS'schedule set for state field hockey tournament'
p155
aS'friday  male varsity  730 pm beatmale'
p156
aS'looking at usmnt left back depth chart'
p157
aS'akron names embick mens soccer coach'
p158
aS'under half an hour until kickoff on espnu tune in and go cards'
p159
aS'independence vote may be important fine but first order in scotland is fire craig levein scottishfootballisadisaster'
p160
aS'uofls peyton siva is voted bigeast preseason player of the year by the leagues media'
p161
aS'rt  district 4 manual 10 reneedufour 5 hannahkingsbury 2 carajennings annhollindelahant '
p162
aS'usaguatemala match report concacaf hexagonal update usmnt notes video poll'
p163
aS'usa vs guatemala a look ahead'
p164
aS'kaelen foxs header from a corner kick campbell weyland gives stx a 20 lead over st francis with 68 seconds left in '
p165
aS'girls soccer6th region at mercy mercy 10 kayla richardson 4 grace fierle 3 tori dircksen 2 julia hodge bullitt c '
p166
aS'boys soccer6th region fern creek 4 ibrahim bagetti 2 cody oakes 2 southern 1 jorge acosta'
p167
aS'oof eastern leads 21'
p168
aS'at halftime of the boys soccer 7th region quarterfinal manual amp eastern are tied at 1'
p169
aS'with 22 min remaining in the 1st half of the boys soccer 7th region quarterfinal manual amp eastern are tied at '
p170
aS'manual goalie andrew hagan makes a couple saves to keep score at 11'
p171
aS'thoughtsprayers to ballard bruin family on the death this am of head girls soccer coach brian walters gone too so '
p172
asS'2013_24'
p173
(lp174
S'andrew farrell is mls rookie of the week again we could get used to this'
p175
asS'2013_25'
p176
(lp177
S'via great banner in brazilian stadium brazil has firstworld stadiums now we just need to build a count\xe2\x80\xa6'
p178
asS'2013_26'
p179
(lp180
S'fired up and ready to get to work lets go twolves'
p181
aS'siva on pistons i definitely had a great feel for them i\xe2\x80\x99m just so excited i\xe2\x80\x99m looking forward to getting out ther\xe2\x80\xa6'
p182
aS'hey fans its how do i look'
p183
aS'gorgui that is rt gogui getting presidential props'
p184
aS'gogui getting presidential props'
p185
aS'the cuba game will be the usmnts first on englishlanguage network tv outside of a world cup since 51902'
p186
aS'send our deepest condolences to please know you are in our thoughts hearts and pray\xe2\x80\xa6'
p187
asS'2013_27'
p188
(lp189
S'fun fact about  his father mother and sister all were mermaidsmerman at weeki wachee nowyouknow'
p190
aS'rt united media chief welcome to the first new manager press conference manchester united has held in 26 y\xe2\x80\xa6'
p191
aS'lsls friday links hancock will be flag bearer bush playing through pain siva will get long look from pistons  htt\xe2\x80\xa6'
p192
asS'2013_20'
p193
(lp194
S'mystic pizarro from dost till dawn grosskreutze blank american grafite kindergarten klopp schaaf bundesligamovies'
p195
aS'americans abroad weekend preview dempseys tottenham face mustwin hoffenheim duo fight relegation and more'
p196
aS'more beckham 38 says he feels now is the right time to finish his career ras'
p197
aS'the david beckham retirement story from of with much more to come'
p198
asS'2013_23'
p199
(lp200
S'i might have to wear a knit head band today bjorn borg much loved in my youth is 57 on this day'
p201
aS'ware on the court'
p202
asS'2012_49'
p203
(lp204
S'strong 2 playersa lot of you guys grew up wout a father figure and a lot of people have walked out of your life\xe2\x80\xa6i '
p205
asS'2012_25'
p206
(lp207
S'big win for us womens soccer monday 41 over reigning world champion japan in exhibition game in sweden has to build p '
p208
asS'2012_24'
p209
(lp210
S'if im usain bolts agent or prime minister of jamaica im giving him a 247 driver between now and the olympics 2d car '
p211
aS'cubs on pace for worst season ever sveum you laugh about it but its definitely there its a reality '
p212
asS'2013_28'
p213
(lp214
S'mls teams outdrawing mlb teams'
p215
aS'moneyball hits the nba'
p216
aS'nbcs first epl game over the air will be swansea city vs manchester united on saturday august 17 at 1230 pm et ht\xe2\x80\xa6'
p217
aS'when sports leads society rather than follows'
p218
aS'clint dempsey made available for transfer by spurs say reports'
p219
aS'shahid khan owner of jacksonville jaguars is nfl boss in talks with mohamed al fayed to buy fulham deal to be done by th\xe2\x80\xa6'
p220
aS'detroit seeing sivas louisville swagger'
p221
aS'nl finalvote update 1 freddie freeman atl 2 yasiel puig la 3 hunter pence sf 4 ian desmond wsh 5 adrian gonzalez la'
p222
asS'2013_29'
p223
(lp224
S'this is good'
p225
aS'rick pitino wins espy for best coach russ works the red carpet '
p226
aS'boss rt kevin ware leg pressing in july thats correct businessfirst'
p227
asS'2012_21'
p228
(lp229
S'pcb trying to get training center for synchro swim'
p230
asS'2012_48'
p231
(lp232
S'teddy freaking bridgewater one arm one leg doesnt matter allamerican'
p233
aS'late night quick hitters cards bcs bound after slaying knights 2017  via'
p234
aS'from uofl coach rick pitino via text messge we are in'
p235
aS'since its now 6 teams from big east going to acc is it really more of a merger'
p236
aS'breaking acc votes to add louisville sources tell cards will be 6th team to leave big east for acc'
p237
aS'updated acc expected to vote on uofl membership this morning'
p238
aS'losing gorgui even a month really sucks'
p239
aS'who made it to womens college cup and mens quarterfinals ncaa tournament updates with schedulespairingsvenues '
p240
asS'2013_4'
p241
(lp242
S'mia girls soccer'
p243
asS'2013_7'
p244
(lp245
S'hacking your education'
p246
aS'congrats tampaprep boys soccer 1a state champs 10 win'
p247
aS'in jurgen klinsmanns 23 games in charge the us has had 23 different starting lineups never the same '
p248
aS'top 5 in girls litkenhous ratings marion county anderson county henderson county manual mercy'
p249
aS'abby wambachs head would rank 7th on the uswnt career scoring list with 66 goals'
p250
aS'every team in college basketball will have a locker room harlem shake video by the end of the week'
p251
aS'source says big z may sign in japan or taiwan if he cant get major league deal craz'
p252
aS'twill is playing in guangdong well was'
p253
aS'video and details from usa womens 41 victory over scotland uswnt'
p254
aS'the trouble with being a big soccer fan my first thought this morning didnt eddie pope quit playing a long time ago'
p255
asS'2013_6'
p256
(lp257
S'rt rakeem buckles making a comeback looks good excited to coach him again next year '
p258
aS'icymi  heres rick pitinos interview from earlier this morning on mike amp mikes show'
p259
aS'photo of dishan romine who committed on wednesday to play football at the united states naval academy htt '
p260
aS'photo of kelsi white who committed on wednesday to play field hockey at miami university of ohio '
p261
aS'photo of max zimmer who committed on wednesday to play womens soccer at georgetown college '
p262
aS'also more coaches should dress like this \xe2\x80\xa6 usavhon'
p263
aS'usmnt falls 21 to honduras final chance headed over the bar by gonzalez usavhon next up for us is costa rica ma '
p264
aS'they havent actually seen any of them today but notre dame reports they have landed 12 topnotch recruits via internet'
p265
aS'more girls central at manual 25th and assumption at male 26th on friday will decide 1 district seeds'
p266
aS'in one of two hs boys basketball games in jefferson county tonight defeated fern creek 6655 crimson '
p267
aS'on wednesday february 6 brian hobbs will sign to play football at centre college'
p268
aS'on wednesday february 6 dishan romine will sign to play football at the united state naval academy '
p269
aS'on wednesday february 6 hannah kingsbury will sign to play field hockey for ohio university '
p270
aS'on wednesday february 6 kelsi white will sign to play field hockey at miami university of ohio '
p271
asS'2013_1'
p272
(lp273
S'the big east is 92 in bowl games against the sec in the bcs era no word on whether or not any sec schools want to joi '
p274
asS'2013_3'
p275
(lp276
S'whoa rt report lampard move to galaxy is all but done'
p277
aS'its gorgui diengs birthday all louisville schools and places of business will be closed for 24 hours '
p278
aS'ap  ap sources ioc strips lance armstrong of 2000 olympic bronze medal'
p279
aS'i hear goals are 10 ft there just like in hickory rt finest sports venue rt greetings from hinkle fieldhouse'
p280
aS'this manti teo story is one of the weirdest things ive ever heard'
p281
aS'john thomas first to clear 7 feet in high jump died tuesday at age 71'
p282
aS'certainly deeper rt this u of l team is more athletic than the doctors of dunk yowza still woudlnt mind having griff now'
p283
aS'play to the actual buzzer ulnotlookinglikeno1'
p284
aS'final score from game 2 of the 1st round of the lit at valley manual defeats iroquois 6053'
p285
aS'cards ascend to top of college basketball polls  via'
p286
aS'ul  uconn tonight'
p287
aS'congratulations to stacy pendleton for being selected the 2012 nfhs kentucky girls basketball coach of the year '
p288
asS'2013_2'
p289
(lp290
S'not so much the sport for the masses anymore ill watch epl on tv gladly but in person gimme the second division'
p291
aS'uofl with 12 steals tonight dieng was the only starter who didnt have multiple steals'
p292
aS'a 15 point win on the road with siva and smith having an off shooting night depth'
p293
aS'pitino on his post game show this team will learn to play that defense they played in the second half all the time '
p294
aS'seems dodgy football recruiting about to get much easier for coaches harder on kids'
p295
aS'crawford  pitino blows up defense clamps down in uofl win at seton hall wdrb'
p296
aS'you see this arsenals tribute shirt to those killed in the sandy hook school shooting in newtown'
p297
aS'courierjournal qampa with libby stout manual class of 2008 who is currently playing soccer professionally in f '
p298
aS'soccer night in newtown'
p299
aS' not sure if you saw this last night  pretty good'
p300
aS'a us woman hasnt won fifa player of year award in 11 years streak may end today wambach morgan or marta uswnt'
p301
asS'2012_23'
p302
(lp303
S'cubs lose their 12th straight 1run game elias tells us thats a franchise record previous mark of 11 set in 1915'
p304
aS'traffic update kennedy inbound down to one lane at harlem at 4 am cubs update 18 under 500 its great to be alive '
p305
asS'2013_8'
p306
(lp307
S'crawford  soccer stadium adds to u of l athletics sports corri  wdrb 41 louisville'
p308
aS'new stadium finally rumors have been validated congrats and my boys winning'
p309
aS'one more uofl soccer stadium photo a 5m gift from dr mark lynn and wife cindy is the key piece of funding '
p310
aS'at the end of the 3rd qtr in 25th district semifinal at central manual leads portland christian 61  37'
p311
aS'cubs plan to avoid inviting clueless celebrities to conduct seventh inning stretch modernize music at wrigley '
p312
aS'rt lets go crimsons'
p313
aS'wow rt goal of the season contender fikru tefera free state stars v kaizer chiefs '
p314
aS'thoughts on the week ahead russ'
p315
aS'americans abroad weekend rewind altidore scores again chandler delivers gametying assist and more '
p316
aS'girls basketball postseason play  manuals turnaround is welltimed '
p317
asS'2012_22'
p318
(lp319
S'usain bolts 976 in rome a few minutes ago ties for the fastest time he has run since his world record in berlin in '
p320
aS'if toon let this one go i may be done with them'
p321
aS'hmm brendan rodgers'
p322
asS'2012_8'
p323
(lp324
S'a great description of the way i check sports scores all the time on my phone  from 1977'
p325
aS'mls looking at nyc orlando'
p326
aS'lakeland view of the george jenkinsida baker finish'
p327
aS'congrats to west shore hswon the state 2 a high school soccer'
p328
aS'leon keeper leslie headed to u tampa'
p329
aS'ot win against doormat still good for moving up rt louisville up one spot to no 17 in this weeks coaches poll'
p330
aS'state wrestling coverage'
p331
aS'manual girls hoops  272 heading into districts'
p332
aS'pasco co girls track preview'
p333
asS'2012_32'
p334
(lp335
S'mr dong dong has been dethroned as my favorite named 2012 olympian meet the new champion'
p336
aS'probably wont end well for the kid'
p337
aS'rt usa looking for one more chanceoreilly crosses for morgan she heads it in uswnt 4 can 3 babyhorse'
p338
asS'2012_6'
p339
(lp340
S'three members of pace high girls soccer team sign to play in college'
p341
aS'chiles v fleming pics boys soccer'
p342
aS'chiles boys hoping for final four'
p343
aS'pen catholic bolles have rivalry in boys soccer too'
p344
aS'do not need a russ smith injury come on dude get up'
p345
asS'2012_20'
p346
(lp347
S'espn reports kerry wood retiring today'
p348
aS'sarasota area boys allarea soccer'
p349
aS'oly athletes lasting longer'
p350
asS'2013_17'
p351
(lp352
S'well yeah guess so'
p353
aS' yes pitino russ is going to come back for his senior year'
p354
aS'uofl press conference with rick pitino and russ smith streaming live at smiths dad told cbs he\xe2\x80\xa6'
p355
aS'english fa bans liverpool footballer luis suarez for 10 games for biting arm of chelsea player in sundays game'
p356
aS'goal bayern muller makes it 40 this ones over barcelona goin fishin they are a machine'
p357
aS'russ to decide on future tomorrow'
p358
aS'dont like man u dont understand japanese  but i like dogs that head new kagawa ad'
p359
aS'the train keeps rolling cards add 9th commit in 4star nilijah ballew '
p360
aS'my gold medal match at the pan ams gold for teamusa'
p361
aS'thistle '
p362
aS'i vote for the collar'
p363
asS'2012_9'
p364
(lp365
S'and this is why school sports is important'
p366
aS'awesome rt via'
p367
aS'the hard unfortunate truth about making us soccer competitive'
p368
aS'a very happy 74th birthday to mr denzil e denny crum'
p369
aS'what has he been waiting for rt pitino 1 thing im convinced of going into cuse  big east is i have to play blackshear'
p370
aS'usa lineup vs italy howard cherundolo bocanegra goodson johnson shea bradley williams edu dempsey altidore'
p371
aS'its february for ul basketball fans  always a good month'
p372
asS'2012_16'
p373
(lp374
S'u of louisville grad korir 29 on way to win in boston debut'
p375
asS'2012_17'
p376
(lp377
S'fgcu adds 2 womens soccer recruits'
p378
aS'duval schools to fund sports next year'
p379
aS'us women vs france for their first game thats huge uswnt rt las mujeresnde eeuu debutar\xc3\xa1n co '
p380
aS'us france north korea and colombia the uswnt gets what appears to be the group of death'
p381
aS'blog post united states women drawn with france colombia and north korea for summer olympics'
p382
asS'2012_14'
p383
(lp384
S'new patio section at wrigley'
p385
asS'2012_46'
p386
(lp387
S'manuals kayla styles 5 top 25 girls basketball players in kentucky as selected by the states coach '
p388
aS'u of l mens soccer to host winthrop sunday night in ncaat'
p389
aS'brown v drexel mens ncaa soccer stream'
p390
asS'2012_13'
p391
(lp392
S'as a nation of 6 million a little less than tennessee el salvador of course should prevent the us from going to olympics in soccer'
p393
aS'pitino said hes enjoyed coaching foreign players like gorgui dieng he said hes also enjoyed coaching one from anoth '
p394
asS'2012_10'
p395
(lp396
S'infrarediculous cardinals shooting 56 percent 28 field goals  20 assists siva with 13 points 9 assists'
p397
aS'manual lady crimsons heading to final 4 yet again'
p398
aS'temple will join the big east this fall  via'
p399
asS'2012_11'
p400
(lp401
S'braun not in lineup at hohokam today so there will be no chanting about urine samples'
p402
asS'2012_26'
p403
(lp404
S'uf swimmers on oly team'
p405
asS'2012_50'
p406
(lp407
S'sweet hope so '
p408
aS'wdrb  catholic schools set to announce split from big east uofl l1c4'
p409
aS'manual grad deja mcclendon featured in todays'
p410
aS'yeesh rt indiana high school girls basketball game ends 1072'
p411
aS'score is wakulla 2 fla high 1 at the half in critical 2a grudge match wakullagirlssoccer'
p412
asS'2012_51'
p413
(lp414
S'high school roundup  manual boys rally top eastern basketball 6157'
p415
aS'mls exhib matches in jax'
p416
aS'americans abroad weekend rewind bocanegra makes return guzan stellar again and more'
p417
asS'2012_19'
p418
(lp419
S'not ping pong table tennis'
p420
aS'louisville  indiana closer to scheduling a basketball series  via'
p421
aS'hmm cool chelsea v ac milan in miami'
p422
aS'cubs opening up a pitchfork concession at wrigley to capitalize on marmol rage'
p423
aS'fourteen years later kerry woods 20strikeout game is still amazing'
p424
asS'2013_37'
p425
(lp426
S'mls expansion team likely heading to atlanta mls owner recently told me atlanta orland\xe2\x80\xa6'
p427
aS'looks like us men will get honor and privilege of playing probly winning in the greatest palace of football'
p428
aS'premier league clubs back greg dykes fa commission on english talent via'
p429
aS'new kentucky high school rankings for boys and girls golf girls soccer and volleyball'
p430
aS'im sad to see thats from 2011 i was gonna look for tickets'
p431
aS'remember the pillsbury throwboy hes back in action'
p432
asS'2013_36'
p433
(lp434
S'looking forward to the 2020 tokyo olympics'
p435
aS'just 3 minutes to go for the cardinals against butler bu 1 lou 0  8700'
p436
aS'ukul in womens soccer tonight'
p437
aS'other louisvillearea girls soccer teams in top 25 7 assumption 12 manual 20 mercy 25 south oldham'
p438
aS'usa could clinch 2014 world cup berth friday heres how usmnt'
p439
aS'the latest nscaa coaches poll is out and the cardinals have moved up 3 spots to no 7 in the nation'
p440
aS'schedules too weak they may run table but id be embarassed if they were in champ hunt they play nobody'
p441
aS'louisville opened and remains a 40point favorite over eastern kentucky'
p442
aS'uofl up one spot to no 8 in both the ap and usa today coaches poll'
p443
asS'2013_35'
p444
(lp445
S'congrats'
p446
aS'peyton siva tells espn that this years louisville team is stacked'
p447
aS'yeah that was southern'
p448
aS'thankfully we had southern to beat up on'
p449
aS'landon donovan reaches agreement on multiyear deal with los angeles galaxy'
p450
aS'good morning major delays this morning at van ness udc metro station as fans flock to udc for swimming prelims'
p451
aS'sailing at annapolis rowing on the patomac'
p452
aS'baltimore lacrosse oly demonstration sport 2024'
p453
aS'baltimore lacrosse oly demonstration support 2024'
p454
aS'you see this rt what northern charm southern efficiency  great city but really '
p455
aS'what northern charm southern efficiency  great city but really '
p456
aS'who is on klinsmanns list for world cup qualifiers a roster breakdown usmnt'
p457
aS'basketball recruiting visits blackmon visiting friday bowers to visit september 27  via'
p458
aS'oops yes this is the rebecca lowe account'
p459
aS'happy birthday'
p460
asS'2013_34'
p461
(lp462
S'its not the jerseys theyre laughing at keegans hair'
p463
asS'2013_33'
p464
(lp465
S'yes have new nbc network missed liverpool but looking forward to newcastle v city tomorrow a civil war in our house'
p466
aS'prem preview on right now'
p467
aS'what a goal rt mustsee goal jozy altidore'
p468
aS'manual preseason 11 the preseason kentucky high school volleyball top 25 is out'
p469
aS'here is a look at the progress at the site of the future home of the cardinals  dr mark and cindy lynn stadium'
p470
aS'im guessing clyde is a thistle or maybe an asparagus'
p471
asS'2013_14'
p472
(lp473
S'madi harris  gonna miss coaching this kid'
p474
aS'lady cards leave for new orleans finalfour gocards'
p475
aS'louisvilles wayne blackshear was awarded the ncaa elite 89 award for di mens basketball at the 2013 final four salute l1c4'
p476
aS'this is so awesome'
p477
aS'international soccer coming to south florida  june 8 sun life stadium  spain vs haiti tickets on sale friday at 1 '
p478
aS'ware on what hell feel at that moment when he usually goes into the game i feel like tims gonna come in and knock '
p479
asS'2013_31'
p480
(lp481
S'source close to dempsey says hes not seattlebound will probably insist on being closer to home whenif he returns to \xe2\x80\xa6'
p482
aS'two things i like soccer and steve nash together in one place'
p483
asS'2013_30'
p484
(lp485
S'congrats to npr amp on 20 years of doing sports radio the right way happy anniversary guys'
p486
aS'power shift underway in world football no question'
p487
aS'and this would make both liverpool and arsenal much better'
p488
aS'arsenal tv'
p489
asS'2013_18'
p490
(lp491
S'will be missed but wish him luck rt dieng among 44 to file as early entry candidates for nba draft'
p492
aS'hoops is welcoming'
p493
aS'wrigleyville held hostage day 1'
p494
aS'anyone not readying a documentary is leaving money on the table the omaha beef indoor football offering t\xe2\x80\xa6'
p495
aS'looks like well have an announcement on a new girls basketball coach at manual today stay tuned'
p496
asS'2012_36'
p497
(lp498
S'fascinating epigenetics'
p499
asS'2012_37'
p500
(lp501
S'alice darling scores with 402 left in first half manual up 30 over male'
p502
aS'probably the last time youll read this armenia is atop group b in world cup qualifying'
p503
asS'2012_30'
p504
(lp505
S'usain bolt ive had 2 12 weeks of great training everything is coming together and my main goal is to become a l '
p506
aS'olympics'
p507
aS'may be a bit mentally checked out for a month or so olympics'
p508
aS'more than just vangelis'
p509
aS'an incredible day for an incredible man santo inducted into the baseball hall of famecooperstown ny \xe2\x80\x94 in o h '
p510
asS'2012_31'
p511
(lp512
S'finally another podcast with and up on itunes soon '
p513
aS'kayla harrison wins gold judo'
p514
aS'medal ceremony starting now watch kayla get her gold here'
p515
aS'presidents putin rus and cameron gbr are on the way to the judo venue for the final block rt putin cameron'
p516
aS'tough loss for my good friend and fellow olympian kyle vashkulat proud of you man and happy were on this '
p517
aS'usa lineup solo mitts rampone buehler ohara oreilly lloyd cheney rapinoe morgan wambach'
p518
aS'decision goes to bischoff judo'
p519
aS'stevensbischoff going to decision judo'
p520
aS'travis tries a big o uchi gari bischoff steps off judo'
p521
aS'stevens wants to do ne waza bischoff not so much judo'
p522
aS'stevens looks like a mummy from a movie with his head bandage judo'
p523
aS'thats time no score sudden death for stevens and bischoff judo olyjudo'
p524
aS'tries a big sumi gaeshi bischoff spins out'
p525
aS'travis has a head wrap on a cut and its falling down over his eyes looks like he maybe cant see too well'
p526
aS'stevens looking good attacking failed on a footsweep and uchi mata but attacking'
p527
aS'watching travis stevens v the german bischoff in 81 kilos'
p528
aS'agree and my livestream worked today so your netwk is off hook rt nice job with the updates'
p529
aS'updated uofls nonconference basketball schedule  gocards'
p530
aS'marti malloy gets bronze'
p531
aS'doh '
p532
aS'even if shes right hope should just play the game not talk'
p533
aS'malloy upsets 2 in world wins in golden score by yuko'
p534
aS'delpopolo wins by yuko and teamusa is now 40 on the day malloy and delpopolo could medal judo olympics londo '
p535
aS'and thats the match delpopolo advances to the quarerfinals a point and a thumbs up to his coach after the buzzer '
p536
aS'ippon 40 seconds thats all it takes for marti malloy to advance to the quarterfinals advances a '
p537
aS'btw teamusa is now 30 if youre keeping track at home judo'
p538
aS'victory for irina zabludina russia and thats who marti malloy will face in the semifinals judo olympics teamusa'
p539
asS'2013_39'
p540
(lp541
S'msoc no 18 cardinals extend hot streak with 30 win over temple'
p542
asS'2013_38'
p543
(lp544
S'print piece doesnt say anything  tv story on ajz amer right now is good rt piece on mongolian wrestling'
p545
aS'interesting piece on mongolian wrestling from al j here'
p546
aS'highlights from last nights 42 thriller over csu bakersfield'
p547
aS'6a rankings for 916 t sc x male simon ballard butler manual henry clay dixie heights'
p548
aS'the 2012 girls basketball state championship frame is now on display near the attendance office '
p549
aS'stephen ross miami mls talk'
p550
asS'2013_11'
p551
(lp552
S'girls basketball  in the state sweet sixteen with 241 remaining in the 3rd qtr manual leads mercy 5135'
p553
aS'soccer fan in me wants to know if pope francis is a boca juniors fan or river plate '
p554
asS'2012_7'
p555
(lp556
S'cubs'
p557
aS'money ball'
p558
aS'state wrestling finals to be streamed live'
p559
aS'guess where ill be may 26 tartanarmy'
p560
asS'2013_10'
p561
(lp562
S'national soccer hall of fame holding 2nd round of voting no one got 667 in first finalists armas etcheverry macmil '
p563
aS'well done'
p564
aS'in my perpetual search for the best sports mascotslogosjerseys heres todays find'
p565
aS'i am so much a bandwagon blackhawks fan'
p566
aS'old goat radio interview with mike mcdaniel manual alumni director they discuss hall of fame'
p567
aS'rt uswnt vs iceland replay from yesterday airing now on'
p568
aS'st catharines taylor steff manual class of 2010 named midsouth conference softball player of the week '
p569
aS'abby wambach scores 154th international goal today now 4 behind mia hamms alltime record 158'
p570
aS'the biggest game of the schedule accbound louisville vs big tenbound rutgers on a thursday night'
p571
aS'congratulations to sarah love for being selected as the kentucky hs coaches association 20122013 \xe2\x80\x9coutstanding sen '
p572
aS'goes for an undefeated home record tonight on senior night ceremony at 540 tip at 6 on lets go mizzou'
p573
aS'after the mercybutler game assumption and manual will tip off at 800 pm in the seventh region championship game'
p574
aS'kara wright basketball grad is first allnewcomer team honoree from semo since 2007 '
p575
aS'noooooooo rt pitino says gorgui dieng will participate in senior day festivities'
p576
asS'2013_13'
p577
(lp578
S'funny old game  uzbekistan look far more sure of a world cup place than england portugal or mexico'
p579
asS'2013_12'
p580
(lp581
S'well thats a shocker ncaamarchmadness'
p582
asS'2012_15'
p583
(lp584
S'all first coast girls soccer'
p585
asS'2013_15'
p586
(lp587
S'congrats to manual field hockey juniors anna and renee dufour on their verbal commitment to play for uofl'
p588
aS'breaking indiana sophomore cody zeller will declare for nba draft at 4pm news conference today '
p589
aS'final days for newton dad boston breakers girls soccer kickstarter campaign'
p590
aS'that was a really good huskies team rt 8 for 8 connecticut wins another womens hoops title'
p591
aS'today 1947 jackie robinson who at 3 saw cross burned on his lawn became 1st africanamerican on modern mlb team ht '
p592
asS'2012_38'
p593
(lp594
S'final score manual 31 seneca 6 gocrimsons cspnsports'
p595
aS'rt wes jackson publisher of courierjournal speaking at rotary club ten manual jampc students in audience '
p596
aS'in case you were wondering which college mascot is the best dancer heres my vote'
p597
aS'its official chris jones commits to louisville  via'
p598
aS'uf women over auburn in soccer'
p599
as.