(dp0
S'2013_42'
p1
(lp2
S''
p3
aS'photo society sucks'
p4
asS'2013_46'
p5
(lp6
S'photo nic0tinekisses i thought this gif died out months ago wow'
p7
aS'photo'
p8
aS'photo'
p9
aS'photo'
p10
aS'photo'
p11
aS'photo inkskinned poppunkiscoolerthanyou sexhairdontcare fuck fucking this thank you i\xe2\x80\x99ve been'
p12
aS'photo sadb0nes '
p13
aS'photo theblackcloud just my edit not mine'
p14
aS'photo'
p15
aS'photo mpiganaji the swing at the end of the world with no safety measures just simply a swing on the'
p16
aS'photo'
p17
aS'photo'
p18
aS'photo'
p19
aS'photo'
p20
aS'photo morphineandcigarettes sad black and white blog i follow back similar'
p21
aS'photo'
p22
aS'photo'
p23
aS'photo'
p24
aS'photo'
p25
aS'photo'
p26
aS'photo'
p27
aS'photo'
p28
aS'photo imdepressed lefous are you as alone as i am '
p29
aS'photo'
p30
aS'photo thatgurluknow me'
p31
aS'photo'
p32
aS'photo savemyfrommyself 1 likes  tumblr on we heart it'
p33
aS'photo'
p34
aS'photo'
p35
aS'photo'
p36
aS'photo'
p37
aS'photo survivinginnumbers submitted via email'
p38
aS'photo mysuicidesmile br\xe2\x80\x940k\xe2\x80\x943n if you see this on your dash today please wake up again tomorrow xoxo'
p39
aS'photo'
p40
aS'photo g0nebeyondrepair hopeless\xe2\x80\x94child hopeless\xe2\x80\x94child '
p41
aS'photo itsnotasuicide needtobethinner a promise doesn\xe2\x80\x99t mean a thing anymore nope'
p42
aS'youngstero someone thought about you a lot today probably'
p43
aS'photo howimetyourbobsaget mysterylnc thisisrelatable shithappensbutlifegoeson damn thats powerful one'
p44
aS'photo indebthofinsomniaticdreams deadgirlsdonotcry imdepressed mellodramatic'
p45
aS'photo psychotixc \xe2\x99\xa1'
p46
aS'photo'
p47
aS'photo'
p48
aS'photo'
p49
aS'photo'
p50
aS'photo sirdugs i promise'
p51
aS'photo this would be very handy'
p52
aS'i tried i died'
p53
aS'photo jwyo poems are fun i\xe2\x80\x99m not even in love and i never have been lol'
p54
aS'photo'
p55
aS'photo i lied i\xe2\x80\x99m not okay not gonna liei never was'
p56
aS'photo gnijacamodelka die bitch na we heart it'
p57
aS'photo blackandwhitesuicide before and after i fucking hate myself for relapsing again fuck'
p58
aS'i\xe2\x80\x99m sorry im alive but it wasn\xe2\x80\x99t my choice'
p59
aS'photo'
p60
aS'photo'
p61
aS'photo'
p62
aS'photo equivoco133 broken su we heart it'
p63
aS'photo westillhavetomorrow mostly black and white adviceblog trigger warning'
p64
aS'photo'
p65
aS'photo a relationship is between two people some bitches don\xe2\x80\x99t know how to count8'
p66
aS'photo depressedmale i\xe2\x80\x99m here for you\xe2\x80\xa6'
p67
aS'photo suicidalized sad bampw blog following back similar'
p68
aS'photo'
p69
aS'photo prettysuicidal \xe2\x80\xa0 suicide depression selfharm blog \xe2\x80\xa0'
p70
aS'photo prettysuicidal \xe2\x80\xa0 suicide depression selfharm blog \xe2\x80\xa0'
p71
aS'photo styleite lily allen comes out of musical retirement just to make you cry at this john lewis'
p72
aS'video louisvandriesscheart stunning british christmas advert for \xe2\x80\x98john lewis\xe2\x80\x99'
p73
aS'photo'
p74
aS'photo'
p75
aS'photo'
p76
aS'photo'
p77
asS'2013_47'
p78
(lp79
S'photo n'
p80
aS'photo claricestarlings althestuffilike dichotomization devil\xe2\x80\x99s tramping ground a wooded section of'
p81
aS'photo 1734miles thatgirlwiththescars cutsandcuts jacoblasher thirteenreasonsnottolive'
p82
aS'i was fifteen thinking about unzipping my veins  neil hilborn via perfect'
p83
aS'photo pierxetheveil tonight alive  wasting away'
p84
aS'photo'
p85
aS'photoset'
p86
aS'photo'
p87
aS'photo livingbeast jump on we heart it'
p88
aS'mindcutcutcut you need it c\xe2\x80\x99mon cut me\xc2\xbai dont need it i dont need it \xc2\xba dont be stupid as always'
p89
aS'photo'
p90
aS'photo'
p91
aS'photo'
p92
aS'photo'
p93
aS'photo'
p94
aS'photo setmefreefrommyself  on we heart it'
p95
aS'photo'
p96
aS'photo'
p97
aS'photo'
p98
aS'photo'
p99
aS'photo helpmeleave chanrel\xe2\x80\x94 im sorry'
p100
aS'photo'
p101
aS'photo'
p102
aS'photo'
p103
aS'photo'
p104
aS'photo alicesmaliceworld you have no fucking clue on we heart it'
p105
aS'photo sweetnovember19 \xe2\x98\x86 follow for more like this \xe2\x98\x86'
p106
aS'photo ilovecharts 11 sexting acronyms from the 1930s'
p107
aS'photo survivinginnumbers submitted via email'
p108
aS'photo'
p109
aS'meladoodle meladoodle meladoodle my granddad just called me to tell me how big his cauliflowers are'
p110
aS'photo'
p111
aS'photo'
p112
aS'photo'
p113
asS'2013_45'
p114
(lp115
S'photo'
p116
aS'photo b\xe2\x80\x94r\xe2\x80\x94ok\xe2\x80\x94e\xe2\x80\x94n please'
p117
aS'photo toallthebrokenpeople good night xx stay strong xx'
p118
aS'photo ialternativefashion tumblr on we heart it'
p119
aS'ever had one of those days when you just break ohbecause i do'
p120
aS'photo'
p121
aS'photo'
p122
aS'photo'
p123
aS'photoset shitborderlinesdo geekgirlsmash actual suicide prevention source 1 source 2 not sure if this'
p124
aS'photo sadb0nes \xe2\x98\xb9 sad bw blog \xe2\x98\xb9'
p125
aS'photo'
p126
aS'photo wipeawaythebadmemories this gets to me so much'
p127
aS'photo islaameliaoswald whosherlockedthestarkids frayfairchildmorgensternohmy its looks like its a'
p128
aS'photo aperfectsuicid3 psychotictorture sad black and white blog '
p129
aS'photo'
p130
aS'photo phyerfly depression doesn\xe2\x80\x99t care if you\xe2\x80\x99re on the football team and go to parties every weekend nor'
p131
aS'photo'
p132
aS'photo'
p133
aS'photo glorifiedanxiety wreckedblog phanequalsphriendship pharmaca hello everyone my name is danny'
p134
aS'photo from my rotten body flowers will grow and i am in them and that is eternity'
p135
aS'photo'
p136
aS'photo gay rights 1214'
p137
aS'photo barakkats partoftheband nathansfavouritenightmare forebidden it makes me sad that over'
p138
aS'photo acrylic pastel \xe2\x9c\xa9 spiritual'
p139
aS'photo'
p140
aS'photo existingindreamland if anyone wants to talk about anything my inbox is always open'
p141
aS'but my dear this is not wonderland and you are not alice8\xe2\x99\xa5'
p142
aS'photo'
p143
aS'photo \xe2\x88\x9e'
p144
aS'photo sadb0nes '
p145
aS'photo neutral milk hotel8'
p146
aS'photo secondandsebring hopeless\xe2\x80\x94child \xe1\x83\xa6'
p147
aS'photo'
p148
aS'photo existingindreamland suicidalatbestt musicandrazorblades blisfulness dreadfulsecrets'
p149
aS'photo'
p150
aS'photo'
p151
aS'photo'
p152
aS'photo worldfullofpain \xe2\x89\xa1'
p153
asS'2012_42'
p154
(lp155
S' i just got a iphone 5 for free get yours now the deal ends tomorrow'
p156
asS'2013_21'
p157
(lp158
S'hahaaad yay'
p159
aS'cant wait for wednesday wiv and 2 other people who dont have twitter d x x\xe2\x80\xa6'
p160
asS'2013_22'
p161
(lp162
S'photo  yum'
p163
aS'photo'
p164
aS'actually want to marry olly murslt3'
p165
aS'aimieyou were meant to be my best friendyou said you would kill anyone who hurt meguess you liedyou ditched meampnow make fun of mewhy'
p166
asS'2012_49'
p167
(lp168
S'i hate when im about to hug someone really sexy and my face hits the mirror'
p169
aS'thought you were nice thought you were different turns out your just like the rest of em'
p170
asS'2012_21'
p171
(lp172
S'i cant wait to watch amp on  i want to win the ipad wed may 23rd'
p173
asS'2012_20'
p174
(lp175
S'how long does it take you to put your makeup on in the morning  dlt3lt3'
p176
asS'2013_5'
p177
(lp178
S'where have you gone omfg oo'
p179
ag3
aS'nobodys perfect so before you start judging me go have a reality check  js'
p180
aS'its meeo joddiii gawwddlt33333'
p181
asS'2013_4'
p182
(lp183
g3
aS'loosing a friend you were so close to makes you feel like you have nothing'
p184
aS'this is prered lipstick 1940s'
p185
aS'ill make sure to tag you next time then oh and writing tweets aha lol k'
p186
aS'yeh your being rude'
p187
aS'urg be like that then friend'
p188
aS'uh no i dont think so tell me'
p189
aS'yeh like 3 so whats the other reasons '
p190
aS'ergh why are you ignoring me ive sent you textsampquestions on ask fm'
p191
aS'i want a long lasting relationship \xe2\x9d\xa4'
p192
aS'come see marcus live on watch'
p193
aS'some info about shows that are coming up a lot more to come different types of venues  for different ages '
p194
aS'no year 7 relationship would be complete without an edit of both their profile pictures cropped together'
p195
aS'saying goodbye is probably the hardest thing to do but when you know it will be the last time its even harder   '
p196
aS'you wanted me to talk to you on herelt3333333333333'
p197
aS'when people say i like your shirt i will always look down to see what im wearing'
p198
aS'ooh its like a versus on our online pollthe tweets are going crazy for them two celebsdi '
p199
aS' gr i think im going to die todaygtlt3333333333333333333'
p200
aS'yeh apparently thats what it says on the website anywaylt3333333333'
p201
asS'2013_7'
p202
(lp203
S'my awesome photography3 jk'
p204
aS'rt for a shoutout must be following  x'
p205
aS'dyou like itlt3lt3lt3lt3'
p206
aS'i feel so unloved gto'
p207
aS'aha nice picturedlt3lt3lt3lt3lt3lt3lt3'
p208
aS'just feel off my bedlaughing at myself nowl'
p209
asS'2013_6'
p210
(lp211
S'whats up boolt3'
p212
asS'2013_3'
p213
(lp214
S'idk your having a go at me on askfm  l'
p215
aS'i miss the days when i didnt care what i wore as noone would care'
p216
aS'wooh found yoult3lt3'
p217
asS'2013_2'
p218
(lp219
S'just played at an open mic night in new orleans old school playing 3 songs in a bar with 9 people watching truelove'
p220
aS'i passed my theory test whooooooop george \xf0\x9f\x99\x89\xf0\x9f\x9a\xb6\xf0\x9f\x99\x8f\xf0\x9f\x98\xba\xf0\x9f\x98\x85 x'
p221
asS'2013_9'
p222
(lp223
S'you okay hun x x x x x x x'
p224
asS'2012_8'
p225
(lp226
S'wheres da new vloog saan '
p227
aS'have you uploaded the prank yet cause if you have i cant find it'
p228
asS'2012_9'
p229
(lp230
S'can you give me a shout out to joddi please'
p231
asS'2012_5'
p232
(lp233
S'to her in one of you videos it would really mean alot sorry i had to do this in to tweets it wouldnt llet me fir it all in '
p234
asS'2012_6'
p235
(lp236
S'im so mad i made a list of all the things u guys wanted to see nylah do and i cant find it anywhere'
p237
aS'haha i read this just as i was watching it d'
p238
aS'how long left is it till the vlog will e uploaded'
p239
aS'this kitten will sleep anywhere  retweet if you said aww at least once'
p240
asS'2012_7'
p241
(lp242
S'i just typed in jesse wellens in google imaes and if you keep scroling down they have a picture of a cookie lol x'
p243
aS'haha i was just in a cake shop in england and i saw this it reminded me of you l xxxxx'
p244
aS'i nominate for a shorty award in videoblogger because he is the most awesomesst funny and generous guy'
p245
asS'2012_3'
p246
(lp247
S'is it true you work in a hospital d if it is its really good of you to do that oh and i almost forgot team jeana pvp'
p248
asS'2012_16'
p249
(lp250
S'i have a tummy ache gtlt'
p251
aS'hello l xx night nightt mum p'
p252
aS'heeyy xxxx d'
p253
asS'2012_14'
p254
(lp255
S'happy easter jeana nylah nd jessie lt33lt3'
p256
aS'found this while flicking through some friends photos on facebook lol'
p257
aS'i get a facetime call from  she is dancing around her kitchen making cupcakes this is why i love her'
p258
aS'dont you mean dogs are smarter  l'
p259
aS'wheres the vloog '
p260
aS'rip malachi'
p261
asS'2012_15'
p262
(lp263
S'shoutout please saann'
p264
aS'nooo i like your youtube username its sweet d lt3lt3'
p265
aS'women may not hit harder but they hit lower'
p266
asS'2012_12'
p267
(lp268
S'nooo noow i cant see you guys cause i have school tomorrow and its midnight in uk when your on not fait d'
p269
aS'the phone tricks easy d'
p270
asS'2012_13'
p271
(lp272
S'wait yes it is now since i just refreshed the page'
p273
aS'jesseee wheres the new vlog  its not in my subscription box'
p274
aS'jesseee wheres the new vlog '
p275
aS'wish i could have been at playlist to meet amp'
p276
asS'2012_10'
p277
(lp278
S'free topshop makeup  sprinkle of glitter via'
p279
asS'2012_11'
p280
(lp281
S'can you do another haul video and a follow me around vlog like sprikle of glitter lt3lt3'
p282
asS'2012_50'
p283
(lp284
S'i love yoult3333333333'
p285
aS'me and really want to meet we love you\xe2\x99\xa5 spragganers forever\xe2\x99\xa5'
p286
aS'my new best friend'
p287
aS'i knowwolt3'
p288
aS'cant believe union j was in cheltenham and i missed themlt3'
p289
aS'i knowlt3'
p290
aS'samelt3'
p291
aS'cant believe you came to cheltenha and i missed you damn yoult33333'
p292
aS'i want to meet you lucylt\xc2\xa33333333'
p293
aS'i\xe2\x99\xa5hertoo we love you\xe2\x99\xa5\xe2\x99\xa5\xe2\x99\xa5\xe2\x99\xa5\xe2\x99\xa5\xe2\x99\xa5\xe2\x99\xa5\xe2\x99\xa5\xe2\x99\xa5\xe2\x99\xa5\xe2\x99\xa5'
p294
aS'spraggeners for life\xe2\x99\xa5'
p295
aS'no3'
p296
asS'2012_19'
p297
(lp298
S'haha l xx'
p299
aS'everybody hawmo'
p300
asS'2013_11'
p301
(lp302
S'bitchez be staring canihelpyou'
p303
asS'2013_13'
p304
(lp305
S'your twitter nameo'
p306
asS'2013_12'
p307
(lp308
S'dont worry babalt3'
p309
aS'my whole life is being tore apartlt3'
p310
aS'hate being lied tocheated on and disrespectedyoure such an ass'
p311
aS'love you mwahhlt3'
p312
aS'you dipshit guess youve been talking to charlotte then'
p313
aS'phahaaa not really'
p314
aS'how am i mean then'
p315
aS'what has got into you'
p316
aS'um'
p317
aS'whos this about thenlt3lt3'
p318
aS'finefine yoult3lt3'
p319
aS'oo helloolt3lt3'
p320
aS'why thankss much appreciated'
p321
aS'if youre gonna write a tweet about metag me in it'
p322
aS'i know'
p323
aS'youre 12stop complaining that youve been hurt too many times  youre pathetic idiots'
p324
aS'smell mushrooms feelsick'
p325
aS'snowing really march'
p326
aS'cinema today with nathmolly  brad yippeeee'
p327
asS'2013_17'
p328
(lp329
S'finally back on twittero'
p330
asS'2013_19'
p331
(lp332
S'why did i type it inomgew'
p333
aS'no shit'
p334
aS'ooooooooooohi knoooooooow'
p335
aS'some guy just got hit with a train down my road oooooooooooh ambulanceseverywhere'
p336
aS'come back to askfm it misses youxoxo'
p337
aS'you disabled your askfm why'
p338
aS'hate fake friends like youha nevershouldoftrustedyou'
p339
aS'hehe3'
p340
aS'im always on twitteryou just dont talk to meo'
p341
aS'omg i knowo'
p342
aS'arwhi want to meet you tooooooooolt3lt3lt3lt3lt3lt3lt3lt3lt3lt3'
p343
aS'live life full'
p344
aS'god is great'
p345
aS'babyto1billion'
p346
aS'goodamparwhokaynight night baby boy\xe2\x99\xa5\xe2\x99\xa5\xe2\x99\xa5\xe2\x99\xa5\xe2\x99\xa5\xe2\x99\xa5\xe2\x99\xa5\xe2\x99\xa5\xe2\x99\xa5\xe2\x99\xa5\xe2\x99\xa5\xe2\x99\xa5\xe2\x99\xa5\xe2\x99\xa5\xe2\x99\xa5\xe2\x99\xa5\xe2\x99\xa5\xe2\x99\xa5\xe2\x99\xa5\xe2\x99\xa5\xe2\x99\xa5\xe2\x99\xa5\xe2\x99\xa5\xe2\x99\xa5\xe2\x99\xa5\xe2\x99\xa5\xe2\x99\xa5\xe2\x99\xa5\xe2\x99\xa5\xe2\x99\xa5\xe2\x99\xa5\xe2\x99\xa5\xe2\x99\xa5\xe2\x99\xa5\xe2\x99\xa5\xe2\x99\xa5\xe2\x99\xa5\xe2\x99\xa5\xe2\x99\xa5\xe2\x99\xa5\xe2\x99\xa5\xe2\x99\xa5\xe2\x99\xa5\xe2\x99\xa5\xe2\x99\xa5\xe2\x99\xa5\xe2\x99\xa5\xe2\x99\xa5\xe2\x99\xa5\xe2\x99\xa5\xe2\x99\xa5\xe2\x99\xa5\xe2\x99\xa5\xe2\x99\xa5\xe2\x99\xa5\xe2\x99\xa5\xe2\x99\xa5\xe2\x99\xa5\xe2\x99\xa5\xe2\x99\xa5\xe2\x99\xa5\xe2\x99\xa5\xe2\x99\xa5\xe2\x99\xa5\xe2\x99\xa5\xe2\x99\xa5\xe2\x99\xa5\xe2\x99\xa5\xe2\x99\xa5\xe2\x99\xa5\xe2\x99\xa5\xe2\x99\xa5\xe2\x99\xa5\xe2\x99\xa5\xe2\x99\xa5\xe2\x99\xa5\xe2\x99\xa5\xe2\x99\xa5\xe2\x99\xa5\xe2\x99\xa5\xe2\x99\xa5\xe2\x99\xa5\xe2\x99\xa5\xe2\x99\xa5'
p347
aS'arwh bbywhat upo \xe2\x99\xa5\xe2\x99\xa5\xe2\x99\xa5\xe2\x99\xa5\xe2\x99\xa5\xe2\x99\xa5\xe2\x99\xa5\xe2\x99\xa5\xe2\x99\xa5\xe2\x99\xa5\xe2\x99\xa5\xe2\x99\xa5\xe2\x99\xa5\xe2\x99\xa5\xe2\x99\xa5\xe2\x99\xa5\xe2\x99\xa5\xe2\x99\xa5\xe2\x99\xa5\xe2\x99\xa5\xe2\x99\xa5\xe2\x99\xa5\xe2\x99\xa5\xe2\x99\xa5\xe2\x99\xa5\xe2\x99\xa5\xe2\x99\xa5\xe2\x99\xa5'
p348
aS'why thankyou sweetieamparwhokay you better \xe2\x99\xa5\xe2\x99\xa5\xe2\x99\xa5\xe2\x99\xa5\xe2\x99\xa5\xe2\x99\xa5\xe2\x99\xa5\xe2\x99\xa5\xe2\x99\xa5\xe2\x99\xa5\xe2\x99\xa5\xe2\x99\xa5\xe2\x99\xa5\xe2\x99\xa5\xe2\x99\xa5\xe2\x99\xa5\xe2\x99\xa5\xe2\x99\xa5\xe2\x99\xa5\xe2\x99\xa5\xe2\x99\xa5\xe2\x99\xa5\xe2\x99\xa5\xe2\x99\xa5\xe2\x99\xa5\xe2\x99\xa5\xe2\x99\xa5\xe2\x99\xa5 ltlt double too'
p349
aS'heheits not the best profile picture but it says dan on itso i loves ityay\xe2\x99\xa5\xe2\x99\xa5\xe2\x99\xa5\xe2\x99\xa5\xe2\x99\xa5\xe2\x99\xa5\xe2\x99\xa5\xe2\x99\xa5\xe2\x99\xa5\xe2\x99\xa5\xe2\x99\xa5\xe2\x99\xa5\xe2\x99\xa5\xe2\x99\xa5'
p350
aS'how perfect is hei mean kfjshadfkjskjfska perfection'
p351
aS'yesssssssssssssssssssslt3lt3lt3'
p352
aS'oooh tell me sommin thenolt3lt3lt3lt3lt3lt3lt3lt3lt3lt3lt3lt3lt3lt3lt3lt3lt3lt3'
p353
aS'you deleted your askfm omg no im like cryingomgnowhynolt3lt3lt3lt3lt3lt3lt3lt3lt3lt3lt3lt3lt3lt3lt3lt3'
p354
aS'hehe  arwhlove you too bbylt3lt3lt3lt3lt3lt3lt3lt3'
p355
aS'you are so very welcomelt3lt3lt3lt3lt3lt3lt3lt3lt3lt3lt3lt3lt3'
p356
aS'oh dear i have a blackberry toobut dont use ithehe when you get a simi want your numberolt3lt3lt3lt3lt3lt3lt3lt3lt3lt3lt3lt3'
p357
aS'samsung galaxy acewith a smashed screenllt3lt3lt3lt3lt3lt3lt3lt3lt3lt3lt3'
p358
aS'i know that songaha not a fan of it that much though3 hehelt3lt3lt3lt3lt3lt3lt3lt3lt3lt3lt3'
p359
aS'oh goshi knowseems to happen to me alotlt3lt3lt3lt3lt3lt3lt3lt3 just happend to me againomg'
p360
aS'i tweeted youbut forgot o send itwoopsiesslt3lt3lt3'
p361
aS'heyalt3lt3lt3lt3'
p362
aS'heywhts wrong bbby'
p363
aS'if you coughand dont cover your mouthi will end your entire existence'
p364
as.