(dp0
S'2013_41'
p1
(lp2
S'this real '
p3
aS'are you aware of pi in kansas has explicite interview on kcs videos from last year his name is ruganty '
p4
asS'2012_44'
p5
(lp6
S'trash does not decompose garbage does'
p7
asS'2012_47'
p8
(lp9
S' cant wait to seehear what the evidence is he said baez was shaken'
p10
aS'ls this information for tonight at 11 pm'
p11
aS''
p12
aS'pipitone will present new evidence on caylee anthonys murder tonight at 11 and the most info on the story tomorrow night at 11 pm'
p13
aS'new evidence being told tonight on orlando tvpiupitone will show never seenheard evidence on caylee anthonyand the murder points to her'
p14
asS'2012_41'
p15
(lp16
S'ty holly for answering i knew it wasnt the real cindy she is so knowledgable thought she would know the answer'
p17
asS'2014_35'
p18
(lp19
S'hello cindya'
p20
asS'2013_20'
p21
(lp22
S'if you need to learn about ptsdlook at steven and other siblings of travis'
p23
aS'probation violation afelon communicating with another soon to be stopped'
p24
aS'if ng is so crazy why is she on your following listand why do you want to be on her show hypmocrityou are'
p25
aS'your a victim tell us about it donovan did you coach the creeperjodie bad job'
p26
aS'a victim of what donovan lieing murder whatsure as hell not domestic abuse shes a liar i am a survivor'
p27
aS'yes she does and so does alyce lavioletta'
p28
aS'just like her art she stole from dior and guessgot papers from them yetyou will'
p29
aS'o i see donovan writing a book lol two birds of a feather'
p30
aS'soon this will all be taken awaydonovan being a felon cant talk to creeperi call jodieanother felon'
p31
aS'not only a convicted murdererbut a felon no matter how long it may be'
p32
aS'further what cause if you get life wo paarole oo you will really get real abuse'
p33
aS'did you see the creeper in her black an white stripes lmao she doesnt even look good in those'
p34
aS'the only ones ordering is the ones from that crazy site'
p35
aS'millions now are going to clear traviss good name and show you lied'
p36
aS'god forgives when we askbut you wont ever ask asyou dont know what truth is or admit guilt'
p37
aS'thank you lord for guiding the jurors to the correct verdict'
p38
aS'i can see you all alone 24 hours a dayon dr'
p39
aS'that site is disgusting hope they all know your using them'
p40
aS'should of said 24 hours a day'
p41
aS'i can see you on death row all alone 4 hours a day'
p42
aS'who would send you or your family a penny fools only '
p43
asS'2014_33'
p44
(lp45
S'blaisse could the initials stand for casey mckenna on the new id you hadnt seen before misskriskmc42826 '
p46
asS'2013_22'
p47
(lp48
S'sorry for slaughtering travis all the lies lieing about abuse from travis or for sympathy you got caught'
p49
asS'2013_23'
p50
(lp51
S'i just started following after seeing your photo of casey anthonys house can you please get the street or address of it'
p52
aS'hello stranger miss you are you still on fb and here hugs dear fb friend'
p53
aS'why do they give donovan media attention makes me sick she is a liar just like the creeper jodie'
p54
aS'no its not gerri the lord has this under control'
p55
asS'2013_5'
p56
(lp57
S'it has been reported casey anthony is mad at you for reporting your conversation with her with cheney mason is this true'
p58
aS'amen to this lloyd'
p59
aS'amen '
p60
aS'the case didnt captivate the nationa little beautiful girls murder did'
p61
aS'have you met casey lloyd'
p62
asS'2013_6'
p63
(lp64
S'lol i could caare less if she likes it or noti follow who i want and some just to be noseylol'
p65
aS'five diy natural room scents with herbs spices amp fruits via'
p66
aS'invite via'
p67
aS'bullying attack leaves boy in coma  abc news blogs  yahoo via'
p68
aS'ty for adding me blaisseand i love your tweets'
p69
aS'christopher dorner manifesto uncensored via'
p70
asS'2012_6'
p71
(lp72
S'hello rochelle your my friend from fb right lolif nothello anyway'
p73
asS'2012_7'
p74
(lp75
S'glad to have found youherewondered where youve been as i hadnt seen you on fb hugssss'
p76
asS'2012_15'
p77
(lp78
S'hello rochelle i dont get on twitter very oftnen but thought i would today hope your doing great miss ya dear friend11'
p79
asS'2011_41'
p80
(lp81
S'hey dear daughter i jsut found ya on here hope your having a wonderful day love you and miss youxoxoxoxoxo'
p82
asS'2012_18'
p83
(lp84
S'it was said caylee drowned in the poolhoiow can you get in the pool and even look at it everyday'
p85
asS'2013_35'
p86
(lp87
S'are you still sending jodie gifts as in books or anything else'
p88
aS'how many times have you talked to or seen jodie since the trial'
p89
asS'2013_15'
p90
(lp91
S'justice for travis how abut you give the money you make to the state to pay for your own trial'
p92
asS'2013_17'
p93
(lp94
S'i pray the aleander family gets every penny '
p95
aS' they have made well over 1000000 on poor traviss slaughter they meaning her family and sick friends'
p96
aS'bet liz is puking in her grave'
p97
aS'not the creepers art she is drawing photo from a guess jeans a andselling it as her own '
p98
aS'help domestic vilence what a joke you abused and slaughtered travis'
p99
aS'not only a perpetual liar but a murderer and fraud at art'
p100
aS'how can you sell art when its not your artyou traceddrew from photos from guess jeans ads etc'
p101
asS'2013_16'
p102
(lp103
S' jodie admitted guilt she is a murderer all that follow her are wrong'
p104
aS'your hands hide them fold into eachother horrible hands god given talent of art and you chose to kill with them'
p105
aS' you lie and you have been caught justice or travis '
p106
aS'saw yo flip off the camera today donovan beringshame'
p107
aS'i believe her cut tendons in fingers was her wounds from killing travis'
p108
aS'lol jodie is satans spawn'
p109
aS'can you tell me where is evidence of abuse by travis court has none '
p110
aS'better to yell than stab decapitate almost and shoot '
p111
aS'jodie has made over 1000000 already from art ebay shut her off '
p112
aS'donovan bering is in love with jodie cant you tell lol'
p113
aS'its ok this twitter for jodie was brought up in court today they will all be shut down'
p114
aS'her jodiearies art site is bs as well no blood money for murderers '
p115
aS'dan needs to go look at the butcher photos jodie is nothing but a evil creepgt'
p116
aS'heydan you stoodstand for the twit kc anthony too right'
p117
aS'how can anyone believe anything you say i dont think anyone does '
p118
asS'2013_19'
p119
(lp120
S'jodie convicted herself when she slaughtered travis'
p121
aS'aw oo now you have been convicted no more luxuries like donovan tweeting for you no fun'
p122
aS'eat your words and choke on them jodie no jury will ever convict me '
p123
aS'1st degree murder premeditatedwheres your nastiness now wheres your smuggy grins '
p124
aS'guilty 1st degree murder premeditated thank you jesus'
p125
aS'her mom blames her dad as he forgot to squirt jodie on the walljustice for travis'
p126
aS'but she was only buttrumped maybe 4 times all those yearswonder how her crap stays in with a hole that big'
p127
aS'i also have proof from reports to solt pd and womens sheltersalso dr reports xrays jodie 0'
p128
aS'actually she needs to be in gp oooo what those mean women would do to her'
p129
aS'she cut a tendon when she butchered travis'
p130
aS'i am a survivor of every kind of abusethanks to ng for all she doesyour the disgrace to all of us l survivors jodie creeper'
p131
aS'she has already gotten into fight of course the creeper said it was the other inmates fault'
p132
aS'have you received court papers from dior and guess yet '
p133
aS'and the taxpayers lots of money'
p134
aS'no you did when you slaughted travis also keep talking you admitted guilt here'
p135
aS'the creeper ja new name is satans spawn '
p136
aS'trying to buy protection naaa your a liar and a butcher'
p137
aS'ng doesnt you doyouve never been abused'
p138
asS'2013_18'
p139
(lp140
S'perhaps she already haslol'
p141
aS'can you tell us about your fight in jail and blamed it on the other saying it also was self defense '
p142
aS'um juans lies wow the butcher photos of travis shows who lies'
p143
aS'your az is plastered online naked tell us allhow many years you have been az fducked you said 4 times lol what a lie'
p144
aS'can you tell us all what is so funny about your own lawyer saying i dont like jodie 9 of 10 days'
p145
aS'i dont think god thought your butchering is a talent or screwing men over with sex'
p146
aS' you dont know what love is'
p147
aS'and whose sperm donated in those panties'
p148
aS'how about drawing those butchering hands their so ugly like you'
p149
aS'how about using the 10s of thousands your proifiting to pay the taxpayers back'
p150
aS'how does it feel to have millions watching you and praying for the death penalty justice for travis'
p151
aS'commissary costs money and your family is also profiting'
p152
aS'i agree i dont think travis even knew she was thereno photo shootshe used timer'
p153
aS'slammed on tile she wouldnt be able to breath lies'
p154
aS'slaughtering travisshe is the devil and worships it'
p155
aS'she thinks she is but soon she will have disappeared into the dust'
p156
aS'also went through the trash can and flipped her hair lol'
p157
aS'i have been diagnosed with ptsd and i am a survivor of every form of abuse she is a liar'
p158
aS'lol people meet the new creepergtjodie arias'
p159
aS'she cant stand negative talk i tell the truthshe is ugly and all look at those hands '
p160
aS'she wanted to fluff her hair she is a narssasist who loves herself'
p161
aS'your ugly and your murderous hands tell it all those dark empty bottomless pits for eyes the jurys verdict coming soon'
p162
aS'stolen photos of art you say is yours lies about abused woman lies about yoga is there any truth at all'
p163
aS'she did amit it they needed to euthanize her immediately '
p164
aS'justice for travis lets see you smirk today '
p165
aS'today is the day justice for travis '
p166
aS'this time next week you will hopefully be on death row a few more days and justice for travis will prevail'
p167
aS'and also perhaps a large cork to plug your butt hole grosssss '
p168
aS'is not your art it belongs to dior and other art pieces to guess and several other owners'
p169
aS'also your butt sex was a practice for you often you said maybe 4 times lie '
p170
aS'then what was the headstand and bending while you was being interrogatd'
p171
asS'2012_32'
p172
(lp173
S'hello allie do you remember me i joined your group on fbsissym nice to see you checking things here as well '
p174
asS'2013_38'
p175
(lp176
S'no ty '
p177
aS'ive heard this pat mckenna married'
p178
aS'ty for reply'
p179
aS'her connections who are her connections and do you know who her bf is ty'
p180
ag12
aS'ive sent the fb page to several of us justice for caylee people'
p181
asS'2014_29'
p182
(lp183
S'get lots of pics of you and your brothers mom too pppllleeeaaaseee luv ya ill sing for you '
p184
asS'2014_28'
p185
(lp186
S'hello dear granddaughterluv you xoxo'
p187
asS'2014_25'
p188
(lp189
S'spiders exist dear to make you scream lol'
p190
aS'hello dearest granddaughter'
p191
asS'2013_21'
p192
(lp193
S'have you seen the interview the creeper did the night of guilty verdict'
p194
aS'have you seen what happened when jurors left croom'
p195
aS'the cause of what scamming'
p196
aS'prob already making  her and sj from the jodieisinnoscent site their both scammers'
p197
aS'i agree ger travis was the victim and jodie is the stalkerabuser'
p198
aS'if ng is crazy why call to be on her show'
p199
aS'defensing onself is different than slaughtering someone'
p200
aS'the jodieariasis innoscent site owner sj is a scammer sj is a scammer jodie would be around that kind'
p201
aS'the murder photos tell the whole storyfacts '
p202
aS'other than jodie and casey anthony their are honest people in the world'
p203
aS'if it was your bro sis what would you want for the butcher'
p204
aS'how could jodie take travis life and then lie about him and abuse she slaughtered him horrible '
p205
as.