(dp0
S'2013_42'
p1
(lp2
S'cant wait for windows81  be sure to have good broadband and be patient the download can take a while'
p3
aS'future cybersecurity when does sharing become tmi and can it negatively affect your children'
p4
aS'square offers a simple new way to send money by email are you comfortable doing this or still prefer a check'
p5
aS'the free vonage app looks great but where is the windowsphone version it is the 3rd largest phone os'
p6
aS'windows phone 8 update 3 will support new hardware and add driving mode and other features'
p7
asS'2013_43'
p8
(lp9
S'internet of everything ioe companies will have to adapt to ubiquitous connected devices in the workplace will be'
p10
aS'children indulge in highly risky behavior online \xe2\x80\x93 parents can action with gentle guided direction esetp\xe2\x80\xa6'
p11
aS'service update we\xe2\x80\x99ve experienced an incident on network solutions dns and we\xe2\x80\x99re in the process of restoring services th\xe2\x80\xa6'
p12
aS'how much do you know about ediscovery heres a good introduction'
p13
asS'2013_40'
p14
(lp15
S'adobe products has been a major attack vector along with java for sometime now i suspect we will see much more of'
p16
aS'the end of an era certainly looks to be so we also recommend to our customers that use blackberry to review'
p17
asS'2013_41'
p18
(lp19
S'a good reminder for a still ongoing scam is not likely to call and remotely fix your pc'
p20
aS'shared a link'
p21
aS'if you recognize the 85 logo you are a techie have square eyes or both'
p22
aS'how much does facebook cost you each month'
p23
asS'2013_46'
p24
(lp25
S'should a smb care about employees with their own devices at work we think so byod'
p26
aS'thanks for following'
p27
aS'fcc chairman wants carriers to start unlocking phones pronto'
p28
aS'we have a number of customers who uses surface windowstablet very effectively in their smb space'
p29
asS'2013_47'
p30
(lp31
S'join us today at 2 pm for the ribbon cutting at 6001 cornhusker hwy \xe2\x80\x93 sinclairsapp bros travel lodge'
p32
aS'how do you feel about telecommuting heres deb shinders take on the subject'
p33
aS'the cost of amazonworkspaces just does not make sense for most smb s add lack of control choice of software'
p34
asS'2013_44'
p35
(lp36
S'its daylightsavings again sunday make sure this dated idea doesnt mess up reminders calendars on smb devices'
p37
aS'great basic webdesign advise for smb owners ready for a cms web site contact'
p38
aS'windowsphone on the rise we use lumias exclusively and its a great smb smart phone'
p39
asS'2013_45'
p40
(lp41
S'30 years of windows  has it really been that long'
p42
aS'13 people who got fired for their tweets wow interesting article via'
p43
aS'faster better stronger ie11 on win7 should also benefit smb users with improved speed and security features'
p44
aS'hope to see support for windowsphone soon'
p45
aS'great guide to good sleep habits techies might have a genetic problem implementing this'
p46
aS'need more reasons for your smb to drop windowsxp '
p47
aS'cryptolocker malware is evolving again make sure your smb have backups in place for critical files'
p48
asS'2012_44'
p49
(lp50
S'well be livetweeting the windowsphone launch event starting at 10 am pst tune in live and join us '
p51
asS'2012_40'
p52
(lp53
S'do you have a fallback plan for when your favorite cloud service is axed what about in your business'
p54
asS'2012_42'
p55
(lp56
S'usiwireless lesson learned 3 days of paid minneapolis public wifi and only able to connect once'
p57
asS'2013_22'
p58
(lp59
S'apples cook hints at wearable devices via what if any impact will wearable devices have on the business user'
p60
asS'2013_23'
p61
(lp62
S'when can we expect a version that works with windowsphone 8 missing my favorite stations on lumia 920'
p63
asS'2012_27'
p64
(lp65
S'hopefully your smb have a solid backup and disaster recovery bdr strategy and will never need these 3 tips'
p66
aS'when the cloud goes dark who do you call'
p67
asS'2012_26'
p68
(lp69
S'still wonder if theres any reason to secure your wifi network'
p70
aS'does twofactor authentication need to be fixed via'
p71
asS'2012_25'
p72
(lp73
S'we still see browser plugins cause stability or even worse security issues'
p74
aS'1st stopthe petting zoo'
p75
aS'on the bus to family fun in nebraska'
p76
asS'2012_24'
p77
(lp78
S'owners may not be covered when hackers wipe out a business bank account'
p79
asS'2013_29'
p80
(lp81
S'email  business tool or necessary evil learn to love your email and azen can make it work better for you'
p82
asS'2013_5'
p83
(lp84
S'us government warns of hack threat to upnp are we really surprised about this azen have been disabling it for years'
p85
asS'2013_1'
p86
(lp87
S'thats great news making a lot users happy looking forward to recommending it to corporate clients in 2013'
p88
asS'2012_8'
p89
(lp90
S'our rmm tool alerted to increasing driver errors on clients sbs box pulled the drive and almost done cloning it no dead server monday'
p91
aS'iphone and android phones vulnerable to chinese malware program  now the hackers could record your calls in'
p92
aS'revealed plug in a usb cable the right way every time simple when you know in'
p93
aS'10 essential cloud apps for smbs  using any of these 10 is cloud really always better in'
p94
aS'new blog post  google privacy updates and the information google hold about you '
p95
aS'online computer security resources to protect yourself kids your computer and more mspartner'
p96
asS'2012_9'
p97
(lp98
S'malware hacking most common attacks in 2011  report smaller smbs are not immune we have your back azentech in'
p99
aS'byod security problem less than 10 of tablet owners use autolock rsac'
p100
aS'a whole new world of interacting with office is coming in the 15 release'
p101
aS'microsoft your account there can be only one good news if you use a number of microsoft services in'
p102
asS'2012_4'
p103
(lp104
S'microsoft provides tips to help protect your online image infographic mspartner'
p105
aS'how good are your passwords really test it here msft basicsecurity'
p106
aS'how to build a nearly hackproof password system i like roboform for my password management video'
p107
aS'beware the latest facebook scam'
p108
aS'nudge\xe2\x80\xa6ever seen apps on a phone do stuff like this smarter'
p109
aS'recharge your work style with and win a home office makeover see entry rules  '
p110
asS'2012_5'
p111
(lp112
S'heavy snow causing power issues at a few customer locations good thing all servers are protected by apc ups'
p113
aS'when a midwest snowstorm hits can your employees work seamlessly from home ask'
p114
aS'android adware story  win a windowsphone lesson here do not overlook mobile security for your business in'
p115
aS'iphones siri doesnt seem so smart in scotland not scottish but voice commands on my windowsphone just works'
p116
asS'2012_6'
p117
(lp118
S'still think your iphone or droid is fast time to get smokedbywindowsphone we use windowsphone to work in'
p119
aS'everything you need to survive losing your laptop video losing corporate data can pose a huge security risk in'
p120
aS'found brand new malware  we submit samples to our top vendors eset and vipre'
p121
aS'protecting yourself from phishing scams ebrochure mspartner safety'
p122
asS'2012_7'
p123
(lp124
S'6 official ways to speed up your pc'
p125
aS'why apple didn\xe2\x80\x99t include siri in os x mountain lion you wont be asking your macbook questions anytime soon in'
p126
aS'how about a blog post listing the wp7 missing apps you would like good ol challenge for the devs'
p127
aS'thanks for review link only app frustration we have is lack of quickbooks time billing come on intuit'
p128
aS'time to switch to windowsphone  sms to speech is all native to the os smokedbywindowspone it just works even with my accent'
p129
aS'hope the new name does not include suite too many products where that means useless features admins have to disable'
p130
aS'firefox on windows 8 metro build is in the works know what to expect from windows8  azentech can help in'
p131
aS'how could valentine\xe2\x80\x99s day cost your business'
p132
asS'2012_3'
p133
(lp134
S' correct after testing many solutions we settled on the chartec bdr product soon after it was released excellent support'
p135
aS'celebrating 26 years of malware security history nothing like an oldfashioned boot sector virus'
p136
aS'outdated software across your it estate could risk security top 10 most vulnerable applications '
p137
aS'when is the last time you reviewed your backup  disaster recovery plan dont have one contact us downtime will impact your business'
p138
asS'2012_16'
p139
(lp140
S'how to recover that microsoft office file you closed before saving mspartner'
p141
asS'2012_17'
p142
(lp143
S'love and been using roboform for years but where is our app for windowsphone '
p144
aS'congrats on the new launch looking forward to availability in the us facilities'
p145
asS'2012_14'
p146
(lp147
S'mac flashback trojan if you use java the time to patch your mac is now'
p148
aS'the new old threat to business it security  beware apps bearing unwanted gifts via in'
p149
asS'2012_15'
p150
(lp151
S'123abc is not a strong password weak passwords still the downfall of enterprise security in'
p152
asS'2012_12'
p153
(lp154
S'2012 news and announcements from sr web creatorsazen technology solutions llc '
p155
aS'can insurance cover cybercrime damages at your business'
p156
asS'2012_10'
p157
(lp158
S'why do we bother with daylight saving time anymore interesting and amusing video looking at dst '
p159
aS'alien code has researchers stumped'
p160
aS'early praise for windows8 and metro'
p161
asS'2012_11'
p162
(lp163
S'custom build quiet pc with windows 7 64bit'
p164
aS'hey somebody is posting nasty things about you here no they arent'
p165
aS'nod32 stopped fake av variant dead in its tracks on reboot helps that end user is not running as a local admin on winxp in'
p166
aS'its here if you ever watched star trek you know what the universal translator is imagine this with'
p167
asS'2012_52'
p168
(lp169
S'would love to refer my friends been using roboform for 10 years now but still no app for  will 2013 be the year'
p170
asS'2012_18'
p171
(lp172
S'smb systems can be used as cyberattack gateways symantec says can help secure your small biz it setup in'
p173
asS'2012_19'
p174
(lp175
S'phishing attacks are increasing azentech can help protect your smb network in'
p176
asS'2013_37'
p177
(lp178
S'still waiting for app 8 months later and still missing the must have app'
p179
aS'users personal devices poses a whole new security challenge for smbs'
p180
asS'2013_12'
p181
(lp182
S'in praise of the windows 8 desktop via we enjoy using win8 dont just buy all the negativity'
p183
asS'2013_14'
p184
(lp185
S'for those still relying on windows xp now is the time to seriously look at your upgrade paths'
p186
asS'2012_34'
p187
(lp188
S'the next frontier in hacking time to invest in a tinfoil hat'
p189
aS'its been a while sine we have seen destructive malware'
p190
asS'2012_36'
p191
(lp192
S'dont underestimate usb flash drives as malware carriers our azen managed antivirus frequently detects and stops these'
p193
asS'2012_37'
p194
(lp195
S'malvertising  the hidden threats behind web banners via talktechtometv video infosec advertising'
p196
aS'no thanks waiting for the new windowsphone'
p197
asS'2012_30'
p198
(lp199
S'using cloud services can be problematic for many smaller companies that needs to comply with regulatory requirements'
p200
aS'windows phone 8 coming in november'
p201
aS'yes very much so started with the original cloud aka webhosting cloud is still not a good fit for many of our customers'
p202
aS'from it will be much more expensive for end users but there will be no shortage of things to sell progress how'
p203
asS'2012_31'
p204
(lp205
S'yet another reminder why backups matter'
p206
asS'2012_33'
p207
(lp208
S'tesla one of the greatest of all time and maybe 1st to communicate with et look it up and the confiscated documents '
p209
asS'2008_50'
p210
(lp211
S'setting this up'
p212
asS'2012_39'
p213
(lp214
S'hack attack on energy giant highlights threat to critical infrastructure'
p215
as.