(dp0
S'2013_42'
p1
(lp2
S'me and my prince x'
p3
asS'2013_43'
p4
(lp5
S'having one of those days where your hair looks like hagrids from harry potter'
p6
aS'life is such a blessing treat everyday as a gift and be grateful'
p7
asS'2013_40'
p8
(lp9
S'thanku girlylets not leave it another 7 years before we do it again lol xx'
p10
aS''
p11
aS'my gawjus girly'
p12
aS'enroute to coventry for night out wiv my girly bringonthedrinks'
p13
aS'happy 5th birthday to my lil princess \xf0\x9f\x8e\x82\xe2\x9d\xa4\xf0\x9f\x98\x98xxx'
p14
asS'2013_46'
p15
(lp16
S'me and my girly nearly 8 years ago howtimeflies'
p17
aS'\xe2\x9d\xa4\xef\xb8\x8f'
p18
asS'2013_47'
p19
(lp20
S'a year ago today since new yorkwanna go back'
p21
asS'2013_44'
p22
(lp23
S'my gawjus new lil nephew lucas \xe2\x9d\xa4\xef\xb8\x8fproudauntie'
p24
aS'2 lil pussycats \xe2\x9d\xa4\xef\xb8\x8f'
p25
aS'congrats to my lil sis and my brother in law on the safe arrival of baby lucas \xf0\x9f\x91\xa3\xe2\x9d\xa4\xef\xb8\x8f'
p26
asS'2012_47'
p27
(lp28
S'thanx hun cant wait'
p29
aS'3 days til new york '
p30
aS'hey babe we tryin but could take a while lol xxx'
p31
ag11
asS'2013_16'
p32
(lp33
S'omg how funny lol xx'
p34
aS'aww wheres my baby gone lol whydotheyhavetogrowup'
p35
aS'aww thanku hun xx'
p36
aS'happy 9th birthday 2 my princess xxx'
p37
ag11
aS'happy 30th birthday girly hope u av a fab day xx'
p38
asS'2013_24'
p39
(lp40
S'no worries babe hope u had a gr8 nite  x'
p41
aS'gorgeous lil princesses lovethem'
p42
aS'happy 18th birthday sweetie xx'
p43
ag11
ag11
ag11
aS'my prince winning the darts tournament '
p44
aS'proud fan lol x'
p45
ag11
ag11
aS'fun in the pool xx'
p46
asS'2013_26'
p47
(lp48
S'laurengoodgerofficials photo'
p49
asS'2013_27'
p50
(lp51
S'just booked my princesss first horse riding lesson '
p52
aS'off to mummys for bbq  lovesummertime'
p53
aS'happy birthday to my brother in law x'
p54
aS'defo sort it out soon hun x'
p55
aS'yea brilliant thanx hun over 2 quick tho  x hows u and phoebe x'
p56
aS'and still u look beautiful in both hun  x'
p57
asS'2013_20'
p58
(lp59
g11
aS'happy 3rd birthday to my gawjus niece lailla lou loveher'
p60
asS'2013_21'
p61
(lp62
S'there are some utter sick sick individuals out there rip poor soldier a servant for our country murdered brutally si\xe2\x80\xa6'
p63
asS'2013_23'
p64
(lp65
S'my 2 princesses all excited bout goin on holiday xx'
p66
aS'aww bless her glad u had a good time hun xx'
p67
aS'thanx hun  did u av a nice time away did u get a pic of laila with peppa xx'
p68
aS'only 12hrs and we will be sipping cocktails in spain cantwait'
p69
aS'me and my prince at the stones roses amazingtime'
p70
aS'havin cuddles with my new lil nephew  leo proudauntie'
p71
aS'just got a \xc2\xa3200 pair of seven jeans brand new with tags for just \xc2\xa36 out the charity shop loveabargain'
p72
aS'congratulations to my gawjus sister lauren and angelo on the safe arrival of baby leo antonio verilli cant wait to meet my new nephew x'
p73
aS'awaiting some exciting news cantwait'
p74
asS'2012_49'
p75
(lp76
S'love it'
p77
asS'2013_28'
p78
(lp79
g11
asS'2013_29'
p80
(lp81
S'aliyah on her horse pepperx'
p82
aS'my princesss first horse riding lesson x'
p83
asS'2013_5'
p84
(lp85
S'wtf lol notinamillionyears'
p86
aS'how did u guess thats exactly what ur gonna b wearing  bet u cant wait lol xx'
p87
asS'2013_7'
p88
(lp89
S'im no cactus expert but i know a prick when i see one'
p90
aS'if that makes u feel better lil bro lol xx'
p91
aS'the eldest children in families tend to develop higher iq s than their siblings\xe2\x80\x9d explains a lot sis lol'
p92
aS'thanks hun xx'
p93
aS'vodka is made from potatoes potatoes are vegetables and vegetables are good for you youre welcome'
p94
aS'lol tell her she can definitely come stay over soon loveher'
p95
aS'tell laila lou to come round auntie lisas house i need wakin up lol xx'
p96
aS'my uncle getting his mbe from the queen veryproud'
p97
aS'me and my girlies 15yrs ago wheredoesthetimego'
p98
aS'happy 30th birthday 2 my gawjus girly ellen xx'
p99
asS'2013_6'
p100
(lp101
S'ellens 30th gettintipsy'
p102
asS'2013_1'
p103
(lp104
S'i know dad rang me while on holiday its brilliant news so proud 2  keep the newspaper so i can c it tuesday xx'
p105
aS'i know caught her in a good mood lol xx'
p106
aS'and we missed u all 2 cant wait 2 c ya tues xxx'
p107
aS'can u see the resemblance lol'
p108
aS'my lil princess'
p109
aS'my princess at jungle park'
p110
aS'happy times in tenerife'
p111
aS'cant believe its time 2 go home already dont want 2 leave sunny tenerife'
p112
asS'2013_3'
p113
(lp114
S'just got asked for id for the first time since turning 30that has made my day  lol'
p115
asS'2013_2'
p116
(lp117
S' lol'
p118
aS'what mate'
p119
aS'wish i cud just cant afford it make sure u take lots of pics so u can show me xx'
p120
aS'wish i could b'
p121
aS'hope all my sisters have a fab night 2nite xxx'
p122
aS'happy birthday 2 my lovely sisters sian and lauren  xx'
p123
asS'2013_8'
p124
(lp125
S'and her other aunties of course lol xx'
p126
aS'that must b why my laila lou is so awesome coz of her fab auntie lisa lol xx'
p127
asS'2013_17'
p128
(lp129
S'happy birthday 2 my gawjus sister xxx'
p130
asS'2012_51'
p131
(lp132
S'thanku hun x'
p133
aS'thanks sis love ya x'
p134
aS'lol yea defo til the next time lol'
p135
aS'i knowcant wait partytime'
p136
asS'2013_37'
p137
(lp138
S'you have to go through the worst to get the best'
p139
aS'happy 1st wedding anniversary hope u both av a lovely day xx'
p140
aS'hi i got app booked 4 weds 9th october 10am for hd brows was wondering if i could rearrange to mon 23rd september at 10 pls'
p141
aS'my lil rock star \xe2\x9d\xa4'
p142
aS'aww thanx hun xx'
p143
aS'my lil princesss first day at school sogrownup emotional'
p144
asS'2013_36'
p145
(lp146
S'the best feeling in the world is realizing that youre perfectly happy without the things you thought you needed the mos\xe2\x80\xa6'
p147
aS'thats gr8 thanku x'
p148
aS'so true xx'
p149
aS'not everybody is meant to stay in your life learn to let go \xf0\x9f\x91\x8c'
p150
aS'sorry that was meant to say i av app on weds 9th oct pls can i rearrange to mon 23rd sept 1030 if poss pls'
p151
aS'ive got an app wiv u on weds 9th at 1000 was wondering if can change it to mon 23rd sept 1030 pls'
p152
aS'ecardsdailyposts photo'
p153
asS'2013_13'
p154
(lp155
S'happy birthday 2 u happy birthday 2 u happy birthday 2 connor happy birthday 2 u happy 18th hope u av a fab day  xx'
p156
aS'happy 18th birthday lil bro  xx'
p157
ag11
ag11
ag11
ag11
aS'me and my prince  xx'
p158
asS'2013_12'
p159
(lp160
S'lol it was a really good nite nice to catch up with family we aint seen 4 years '
p161
aS'i know think bretts gettin fed up coz i avnt stopped goin on about how amazing their cake was lol x'
p162
ag11
aS'happy 60th diamond wedding anniversary to my auntie nell and uncle pete such an amazing achievement x'
p163
asS'2013_33'
p164
(lp165
S'brett avin his first taste of amsterdam cheese \xf0\x9f\x98\x89'
p166
aS'at the famous grasshopper'
p167
aS'first drink in amsterdam firstofmany'
p168
aS'well she is my daughter genius lol'
p169
aS'dunno mustve been lily she been on my phone lol'
p170
aS'what lashes r they from collection they look lovely i want some'
p171
aS'piglet \xe2\x80\x9chow do you spell love\xe2\x80\x9d  pooh \xe2\x80\x9cyou don\xe2\x80\x99t spell it you feel it\xe2\x80\x9d'
p172
aS'lol ok girly '
p173
aS'i wanna c a pic girly  xx'
p174
aS'shes been a lil angel \xf0\x9f\x91\xbcthey all slept all night up at 6 now they full of beens ready to come to nanny debs \xf0\x9f\x98\x84xx'
p175
aS'thanku for avin us over hun cant wait 2 av a proper night out in cov with u \xf0\x9f\x91\x8dxx'
p176
aS'ecards49s photo'
p177
asS'2013_32'
p178
(lp179
S'were good thanx hope ur all well 2 xx'
p180
aS'happy birthday to chloe and kacie hope they have a lovely day xx'
p181
aS'i\xe2\x80\x99m getting summer ready with and \xe2\x80\x93 rt and follow both brands to win a fab bikini and tan'
p182
aS'happy birthday 2 my gorgeous prince \xf0\x9f\x8e\x82\xe2\x9d\xa4xx'
p183
asS'2013_31'
p184
(lp185
S'love ur necklace wheres it from x'
p186
aS'my princesses \xe2\x9d\xa4'
p187
aS'its officially less than 12 months til the wedding soexcited'
p188
aS'just come home to see my gradual tan has arrived such speedy delivery thanku x'
p189
asS'2013_30'
p190
(lp191
S'congrats to and matt on their engagement wonderful news so happy for the both of u \xf0\x9f\x91\x8d\xf0\x9f\x92\x8d\xe2\x9d\xa4xx'
p192
aS'well done babe xx'
p193
aS'wow ive just met my babyme thanks to evianbabyandme app'
p194
aS'my gorgeous nephew \xe2\x9d\xa4'
p195
aS'iil angels \xe2\x9d\xa4'
p196
aS'lol she had a gr8 time it was so nice to see her doing something she absolutely loves x'
p197
asS'2013_19'
p198
(lp199
S'my lil lily lou off to her princess party '
p200
aS'i do that too  must b a stone thing lol xx'
p201
aS'dont blame it on baby fletcher coz u were like that b4 u fell pregnant lol xx'
p202
aS'there is not a more important job in the world than that of being a mum'
p203
asS'2013_18'
p204
(lp205
S'me and my prince new york last yr xx'
p206
aS'me and my prince in new york last yr xx'
p207
asS'2013_39'
p208
(lp209
S'im so excited been too long xxx'
p210
ag11
aS'think im gonna av to bring a siutcase to bring all my shoes and stuff next wk hope they gonna let me in the coach lol'
p211
aS'me neither woohoo\xf0\x9f\x98\x84 xxx'
p212
aS'at least if we feeling like crap next sunday we know weve had a good night lol \xf0\x9f\x91\x8dxx'
p213
aS'determined to do it thanku '
p214
aS'day 2 of detox woke up starving and feeling weak just hope its worth it x'
p215
aS'my essex glamour lashes have just arrived thanku such speedy service x'
p216
aS'thanku my 3 day detox has arrived '
p217
asS'2013_38'
p218
(lp219
S'just ordered my 3 day detox with cant to start it weds'
p220
asS'2013_11'
p221
(lp222
S'congrats on passing ur driving test  xx'
p223
asS'2013_10'
p224
(lp225
S'im not drunk floors need hugs too'
p226
aS'forget flowers bring me shoes '
p227
aS'ill show u a pick when i c u next wk  and dont worry hun ull av a fab party xx'
p228
aS'ive just bought mine 4 ur party cantwait'
p229
aS'just booked appointment to try wedding dresses on soexcited'
p230
asS'2013_15'
p231
(lp232
S'karma has no menu you get served what you deserve\xe2\x80\x9d'
p233
aS'been with my sister to her scan and seen my lil niece or nephew amazing'
p234
asS'2013_14'
p235
(lp236
S'just got back from my appointment trying on wedding dresses and found the one sohappy'
p237
ag11
ag11
ag11
aS'bowling with my lil family x'
p238
as.