(dp0
S'2013_5'
p1
(lp2
S'20 years ago we had johnny cash bob hope and steve jobs now we have no cash no hope and no jobs please dont let k '
p3
aS'my talents speed texting procrastination and sarcasm'
p4
aS'that awkward moment when someone asks whats wrong and theyre the problem'
p5
aS''
p6
aS'if disney channel had a throwback week gt'
p7
aS'my attitude changes in 5 seconds flat from sweetheart to bitch so i suggest you dont test that'
p8
aS'hoe youre as loose as that lady from 18 and counting ok'
p9
aS'admit it'
p10
aS'the cold tears of a warm heart hide the most pain you just dont realize it because they fake a smile and push through the day'
p11
aS'one big school full of fake bitches'
p12
aS'lmfao xd i laughed to hard at this why is peter pan always flying he neverlands'
p13
aS'when i tell you i dont want to talk to you dont continue to text me as talk to me at school what are you not processing'
p14
aS'that awkward moment when you have to stare at a text for five minutes to figure out how to reply'
p15
aS'oh that bitch that that shit i dont like sorrynotsorry'
p16
ag6
asS'2013_4'
p17
(lp18
S'dear iphone i have typed hahaha like a million times yet you continually give me hagaha bahaha gagaha '
p19
aS'psy concert'
p20
aS'oh hi'
p21
aS'boys until the day you have a monthly period give birth and deal with the female population youre not as strong as you think girls \xe2\x9c\x8c'
p22
aS'hakuna matata the pgrated version of i dont give a fuck'
p23
aS'oh my god its so cute gtlt'
p24
aS'sorry i cant hangout my uncles cousins sister in laws best friends insurance agents roommates pet rock die '
p25
aS'3 words 8 letters easy to say hard to prove'
p26
aS'this one time i hated you the end'
p27
aS'amen \xf0\x9f\x91\x8c\xf0\x9f\x99\x8f'
p28
aS'i need to talk to you is the one sentence that has the power to make you remember every bad thing youve ever done i '
p29
aS'xd'
p30
aS'i wish depression never existed im supposed to be happy but life fucks everyone sowhy try anymore'
p31
aS'brb dying \xf0\x9f\x98\x82\xf0\x9f\x98\x82\xf0\x9f\x98\x82\xf0\x9f\x98\x82 i wish my daughter would make a twerk videoso i can twerk a belt across that ass\xe2\x80\x9d'
p32
aS'i wish i had a cute laugh but instead i sound like a dying seal'
p33
aS'that annoying moment when you cant find the long side of your blanket'
p34
aS'\xe2\x98\xba\xe2\x98\xba\xe2\x98\xba'
p35
aS'no no no honey you dont call him a bad boyfriend like you just did  hes not so how about you stfu'
p36
aS'aliens'
p37
aS'where your pen disappears when u drop it 3 right where u dropped it 5 10 feet away from u 92 into another dim '
p38
aS'i hate awkward conversations like this gtlt'
p39
aS'motivational tweet of the day dont be a douche bag'
p40
aS'being a person is getting too complicated time to be a unicorn'
p41
aS'does yo momma know you a hoe'
p42
aS'its sad when you realize you arent as important to someone as you thought you were'
p43
aS'i say i dont know to everything when im in a bad mood'
p44
aS'social networking has become a club twitter is the dance floor instagram is the bar and facebook is the people c '
p45
aS'midnight bathroom trip eyes forward avoid mirrors happy thoughts'
p46
aS'amen \xf0\x9f\x91\x8c\xf0\x9f\x99\x8c'
p47
aS'oh you want her to kill herself how about you go get some help ass hole '
p48
aS'the worlds smallest man dancing with his kitty carry on'
p49
aS'maybe if i hit my head hard enough on the desk ill die '
p50
aS'i\xe2\x80\x99m in love with my bed but my alarm clock wont let us be together'
p51
aS'dear internet you should feel special im always choosing you over sleep'
p52
aS'i majored in procrastinationology'
p53
aS'you are not forever alone you are fucking 12 years old'
p54
aS'i hate it when im listening to music really loud and i have to keep pausing it because i think someones shouting my '
p55
aS'omfg someone pleasssseeeeeee text me or something im so bored its not even funny gtlt'
p56
aS'if procrastinating was an olympic sport id be the gold medalist'
p57
aS'every tear from your eyes are precious dont waste it for something that not worth it'
p58
aS'i want to learn how to long board soo baddddd '
p59
aS'fuking awesome'
p60
aS'i have done all'
p61
aS'youre so damn special'
p62
aS'\xf0\x9f\x98\x81'
p63
aS'awwww \xf0\x9f\x92\x95'
p64
aS'i know youre not supposed to have favorites but i definitely have favorite people sorry'
p65
aS'youre special i like it \xf0\x9f\x91\x8c'
p66
aS'i want someone to talk to becausewell because im a loner so text me kik or snapchat '
p67
aS'law amp order svu is the shitttt'
p68
aS'school tomorrow same shit fake people annoying teachers ratchet hoes fake thugs unnecessary drama and annoyi '
p69
aS'cant sleep at night cant get up in the morning'
p70
aS'i could eat like twenty pounds of food right now'
p71
aS'me after i shave my legs'
p72
aS'oh you wanna know what i do in my free time ohokumm i eat  and sleep andddd listen to music yup yup'
p73
aS'oh i knew you were trouble when you walked in now get the fuck out of my room'
p74
aS'society wonders why she fakes a smile and cries herself to sleep she wonders why all of this has to happen to her'
p75
aS'some days you just feel like a tomato in a fruit basket you technically belong but it just doesnt feel right'
p76
aS'pinky promise \xf0\x9f\x92\x95'
p77
aS'\xf0\x9f\x91\x8cone does not simply\xf0\x9f\x91\x8c got time for that'
p78
aS'please you dont know what love is youre 13 sit down and calm yourself i dont love anyone except my family and best friends '
p79
aS'so me and my brother have messed up knees he has disease and some nerves in my knees are swollen wow ok'
p80
aS'i hate it when people pour my cereal they dont know how much i want they dont know my life they dont know what i '
p81
aS'i tried to be normal once worst two minutes of my life'
p82
aS'its so cold in my houseeee'
p83
aS'salmonella my ass im still eating the fucking cookie dough'
p84
aS'lol'
p85
aS'blehhh'
p86
aS'im going to smile like nothing is wrong talk like everything is perfect act like its all a dream and pretend lik '
p87
aS'slowly drifting apart from your friends is the worst feeling ever'
p88
aS'when youre happy you enjoy the music but when youre sad you understand the lyrics'
p89
aS'i want dairy queenor jeremiahsbleh'
p90
aS'me every time i do homework completes one problem checks messages instagram and twitter'
p91
aS'dont judge a situation youve never been in'
p92
aS'if you can make me happy laugh amp smile when im depressed youre a god ok'
p93
aS'music makes me forget about the world around me'
p94
aS'the moment when youre like who the fuck took my   oh there it is'
p95
ag6
aS'its whatever because i dont fucking care anymore'
p96
asS'2013_12'
p97
(lp98
S'i dont hate you its just ok i hate you'
p99
aS'dont be mad i was able to forget about you you changeda lot'
p100
aS'that was way to fast '
p101
aS'bitch you always try and make the world revolve around you'
p102
aS'fuckin problems by aap rocky gtgtgt'
p103
asS'2013_41'
p104
(lp105
S'wearing mine tomorrow idk why i put that in caps but idgaf'
p106
asS'2013_1'
p107
(lp108
S'made a cake and frosting all by myself  from scratch too so proud'
p109
aS'teacher youre here to learn student no were here because its the law'
p110
asS'2013_3'
p111
(lp112
S'so uhtheres wifi where i am but kik wont connect  poo'
p113
ag6
aS'thank you'
p114
aS'its bad when you get used to being depressed'
p115
aS'if i reply to your one word texts then you must be really really really really really really really really really rea '
p116
aS'its gonna be okay  yeah because its not happening to you fucktard'
p117
ag6
aS'ohok fuck you too \xf0\x9f\x98\x92 '
p118
aS'jehovahs witnesss dont celebrate halloween i guess they dont appreciate random strangers coming up to their doo '
p119
aS'true hahaha'
p120
aS'im not conceded but i love compliments \xe2\x9d\xa4 thats the moment i feel important \xe2\x9d\xa4'
p121
aS'pizza gt people\xe2\x80\x9d right xd'
p122
aS'take me or leave me ill never be perfect im worth it \xe2\x9d\xa4'
p123
aS'it feels good when you made someone smile \xe2\x98\xba'
p124
aS'you know your tired when your alarm doesnt wake you up right away instead it just blends into your dream'
p125
aS'that awkward moment when you feel like youll do great on a test and you fail'
p126
aS'i used to care until i realized not giving a fuck is 100x better'
p127
aS'im moody like squidward sometimes selfish like mr crabs a bit dumb like patrick but ill be there for you like sp '
p128
aS'that awkward moment when you dont know which armrest is yours at the movie theater'
p129
aS'if you dont care anymore tell me i dont like felling like im doing something to make you feel that way'
p130
aS'if i dont mention you then the tweet wasnt about you but if the shoe fits then lace that bitch up and wear it'
p131
aS'can you text me or kik me when you get a chance i need to talk to some one \xf0\x9f\x98\x94\xf0\x9f\x98\xa3'
p132
aS'it doesnt matter how beautiful you are if your personality sucks youre ugly to me'
p133
aS'what if the first person to eat a poisonous berry was just allergic and were all missing out on a delicious berry'
p134
aS'does anyone else wake up in the middle of the night thirsty as hell and water tastes like it came from gods personal pond '
p135
aS'awwww ok \xf0\x9f\x98\xa8\xf0\x9f\x98\xa5'
p136
aS'you can tell me you care for me as much as everyone else but until you prove it i dont believe you'
p137
aS'i keep a lot of shit to myself because in reality nobody really gives a fuck'
p138
aS'i hate it when im in a good mood and suddenly something bad happens and ruins everything'
p139
aS'being depressed for no reason ok fuck you brain t'
p140
aS'sucks this is what its come too'
p141
aS'people say hates a strong word but so is love and they throw it around like its nothing'
p142
aS'bitch go back to your moms uterus please '
p143
aS'ok '
p144
aS'a lot of things o'
p145
aS'uggghhh why is this so confusing '
p146
aS'im so confusedddd o '
p147
aS'i want sleep but i don\xe2\x80\x99t want to sleep'
p148
asS'2013_6'
p149
(lp150
S'my moms always so nosey i know its because shes my mom but i would like some privacy '
p151
aS'oh im sorry i didnt realize you were an expert on my life and how i should live it please continue while i take n '
p152
aS'text her saying hey beautiful trust me itll make her whole day'
p153
aS'its awkward when youre just randomly looking around and a person happens to look up at you right as your eyes pas '
p154
aS'i need this'
p155
aS'i dont remember ever agreeing to this school thing it was probably in the terms and conditions'
p156
aS'im shy at first but i do the stupidest random shit when i get comfortable with someone'
p157
aS'if you rip out my headphones while im listening to music because you think its funny i will personally escort you '
p158
aS'being nice to someone you dislike doesnt mean youre being fake it means youre mature enough to tolerate that in '
p159
aS'you should stop posting pictures with your boobs pouring out of your bra and your shorts shouldnt look like underwear  its disgusting'
p160
aS'hahaha kik me'
p161
aS'eww gtlt i uhh walked in oo so i just stay in my room when they start to get too romantic'
p162
aS'i wish i could live inside my dreams'
p163
aS'lmao'
p164
aS'did you know if you scream bloody marry 3 times in the mirror at 3am your mom will tell you to shut up and go to bed'
p165
aS'if you watch mean girls backwards its about a girl that got so unpopular she moved to africa'
p166
aS'i don\xe2\x80\x99t like morning people or mornings or people'
p167
aS'i find it extremely awkward when i can hear my mom and her boyfriend making outi dont even know whyits justew oo weirddd'
p168
aS'if someone sits with me all day and watches law amp order or scary movies omfg \xf0\x9f\x92\x95'
p169
aS'i can\xe2\x80\x99t get out of bed these blankets have accepted me as one of their own and if i leave now i might lose their trust'
p170
aS'bitch dont interrupt me while im watching my law amp order '
p171
aS'\xf0\x9f\x91\x8c'
p172
aS'dont get too full of yourself im not depressed because of you hun'
p173
asS'2013_10'
p174
(lp175
S'oh hey twitter'
p176
asS'2013_2'
p177
(lp178
S'if karma doesnt hit you i gladly will'
p179
aS'is it that hard for you to realize how damn much that hurts me'
p180
aS'i really really really really wanted the broncos to win \xf0\x9f\x98\xa1 damn it'
p181
aS'amen by meek mill perfection'
p182
aS'i dont hate you i just its just that ok never mind i hate you'
p183
aS'so they pay 1 million for commercials of starving kids but they cant feed them'
p184
aS'when i had a twitter last year i was obsessed with it oo'
p185
aS'everything happens for a reason so if i punch you in your face bitch remember i have i reason'
p186
asS'2013_13'
p187
(lp188
S'when youre in pain dont fight it youll just get exhausted remember what shakespeare said feel the pain until it '
p189
aS'when i was a kid i couldnt wait to grow up and now that im grown i just wish i was a kid again'
p190
aS'1st female nfl referee throws flag player whatd i do ref well if you dont know im not telling you'
p191
aS'crying alone in your room then wiping the tears off your face and faking that smile like nothing happened ltlt'
p192
aS'yeah you made me feel special for a while but you faded away so i replaced you do me a favor amp leave me a l o n e'
p193
asS'2013_7'
p194
(lp195
S'golden corral for the step moms birthday \xe2\x9c\x8c\xf0\x9f\x92\x95'
p196
aS'thank you so much for making me feel like a worthless bitch \xf0\x9f\x91\x8c'
p197
asS'2013_24'
p198
(lp199
S'im sorry that i was a bad friend but you dont have to put up with my bullshit anymore thats good for you right'
p200
aS'i sleep less im tired i sleep more im tired life is impossible'
p201
aS'holy cramps'
p202
asS'2013_25'
p203
(lp204
S'singlesinglesinglesingle'
p205
asS'2013_26'
p206
(lp207
S'im a bitch to those who deserve it\xf0\x9f\x92\x81'
p208
asS'2013_27'
p209
(lp210
S'95 of my problems would be solved if i stopped overthinking everything amp calmed the fuck down amp stopped being such an an\xe2\x80\xa6'
p211
aS'you may think im a bitch but as soon as you get to know me you realize that first impressions are right and i am a bitch'
p212
asS'2013_14'
p213
(lp214
S'that awkward moment you say what three times and still have no idea what the other person said so you just agree'
p215
aS'ooooooohhhhhhhhh who lives in a \xf0\x9f\x8d\x8d under the \xf0\x9f\x8c\x8a spongebob \xf0\x9f\x94\xb2\xf0\x9f\x91\x96'
p216
aS'ill take you 2\xe2\x83\xa3 the \xf0\x9f\x8d\xac shop ill let ya \xf0\x9f\x91\x85 the \xf0\x9f\x8d\xad go ahead \xf0\x9f\x91\xa7 dont you \xe2\x9c\x8b keep going til ya \xf0\x9f\x91\x8a the spot woah'
p217
aS'do you ever just rub your eyes so hard that you just start entering some other galaxy of swirls and patterns\xf0\x9f\x91\x80\xf0\x9f\x92\xab\xf0\x9f\x8c\x9f\xf0\x9f\x8c\x8c'
p218
aS'i fucken swear i hate my feelings'
p219
aS'go on a diet go on a die go on a di go on a d go on a go on go o go g go go e go ea go eat go eat f go eat fo go ea '
p220
aS'if monday was a shoe it would be crocs'
p221
aS'so you want to call me weird or crazy because i was diagnosed with depression and i didnt choose to have it thanks bitch'
p222
aS'would you like a tampon or midol with that text you moody bitch'
p223
aS'i shouldnt stay with you if i still like him gtlt haha fml '
p224
asS'2013_17'
p225
(lp226
S'i miss being so close to this girl'
p227
asS'2013_23'
p228
(lp229
S'you have me all to yourself but you wanna be jealous of my ex ok'
p230
as.