(dp0
S'2013_42'
p1
(lp2
S'do malalahaters resent even hate independent women my sat dawn column'
p3
aS'abbas nasir s brilliant piece on the malaise afflicting most pakistanis a narrative to be discarded'
p4
asS'2013_40'
p5
(lp6
S'the circular debt has again crossed 100 billion within 3 months of clearing 500bn load shedding willl get worse amp lah\xe2\x80\xa6'
p7
asS'2013_46'
p8
(lp9
S'insaan ko bedar tu hu leney doharr qaum pukarey gi hamarey hain hussain'
p10
aS'imam hussain represents truth peace sacrifice amp tolerance whereas yazid represents terrorism oppression amp evil im\xe2\x80\xa6'
p11
aS'muslims are capable of committing most heinous crimes they slaughtered their prophets grandson amp family amp paraded female\xe2\x80\xa6'
p12
asS'2013_44'
p13
(lp14
S'people of pakistan want to get rid of ttps mass killers because their families dont hold american passports like ch nis\xe2\x80\xa6'
p15
asS'2013_45'
p16
(lp17
S'rt ehsasekarbala tujhay bhi ho jaye ga aik din  tanha kisi aziz ki mayyat utha kay dekh yahussain'
p18
asS'2012_46'
p19
(lp20
S'muharram moon has been sighted we have to adopt hussainayat to fight and defeat yazeedi tyranny'
p21
asS'2012_41'
p22
(lp23
S'my sat column some thoughts on the inspirational malala'
p24
asS'2012_40'
p25
(lp26
S'33 peace march was a huge success warm welcome by people of the area huge participation plus global awareness creat '
p27
aS'went past namal university what an amazing acgievement to have such a quality institution in such a remote area'
p28
aS'crowds of enthusiastic people greeting us all along the way heart warming response'
p29
aS'huge reception at balkasar'
p30
aS'if you want to be financiallyfree you need to become a different person than you are today and let go of whatever '
p31
aS'congratulations team pakistan on a fighting victory this has given it a good chance to qualify for the semis very we '
p32
aS'we will not be partisan in the indiasouth africa matchwe willl simply say in good sportmans spirit may the best afric '
p33
asS'2012_42'
p34
(lp35
S'passion is a powerful force passion properly directed is unstoppable'
p36
asS'2012_34'
p37
(lp38
S'special thanks to those who have critiqued will hope to learn from it and make further improvements as we do the follow '
p39
aS'mashallah bohat mubarak'
p40
aS'on eid it saddens me to see how we have lost the essence amp spirit of r great religion islam  the sense of justice '
p41
aS'killing of all innocent ppl is against the spirit of islam the loss of this essence of r faith is visible in the brut '
p42
aS'each year the us spends more on war and destruction than the entire planet spends on healthcare  googl '
p43
aS'cjp all r unable to end 11 yr old unwell childs illegal imprisonment we request the cjp to pl take suomotto notice a '
p44
asS'2012_26'
p45
(lp46
S'your thoughts are inspiring makes me think if i should start a business'
p47
asS'2013_3'
p48
(lp49
S'breaking news nawaz sharif ki zaire sadarat pmln ka aala satah ka ijlaas lunch main nehari khane pe ittefaq kiya gaya '
p50
asS'2013_2'
p51
(lp52
S'what level of patience is it that a mother sits with bodies of her young sons so others could be saved from a similar fate '
p53
aS'another view of karachi protest 7 sit ins happening in karachi right now v'
p54
aS'want to help the families of shiagenocide contribute at shaheed foundation please rt '
p55
asS'2013_9'
p56
(lp57
S'the youngest victim of the abbastownblast is a fewmonths old hur haider long live talibanistan pakistan shia '
p58
aS'no community in pakistan has suffered as massively as shias their cream eliminated with doctorsprofessionalsintellectu '
p59
aS'least you can do is to support shaheed foundation with donations they have done excellent work for welfare of '
p60
aS'lej terrorists have been detained for one month onlyamp yet bomb blasts continue they need to be hanged actionagain '
p61
aS'and what are you doing khakis and those lurking in the shadows this blood is on your hands ours too for letting you ge '
p62
aS'wake up pakistan before all get engulfed in these flames and there is nothing left'
p63
aS'whattay journey from raja rental to raja candle'
p64
asS'2013_8'
p65
(lp66
S'lej has received money from several persian gulf countries including saudi arabia and the united arab emirates '
p67
aS'lashkarejhangvi is part of ussaudi terror network'
p68
aS'bravo waseem badami of ary he had the guts to name malik ishaq and lashkarejhangvi as responsible for shiagenocide'
p69
aS'of 110 dead over 40 of them women amp childrenwhy no coverage of hazaratown sitin '
p70
asS'2013_10'
p71
(lp72
S'also strongly voiced my condemnation of the targeting of shias gave a commitment that pti would end all sectarian div '
p73
aS'condemned the attack ag christian community in lhr amp reminded r ppl that god is rab ul alameen not rabul musalmeen '
p74
aS'good message by ik while condemning attack on christians in lhr allah subka rub heyrabbul alameen hey sirf rabbul '
p75
aS'log toot jatey hain aik ghar bananey main  tum taras nahin khatey bastiean jalaney main'
p76
aS'inn ko islam kay lut jaanay ka darr itna hai kisi kaafir ko musalman nahin honay detay faiz saturdaysher'
p77
aS'who set malik ishaq and lej members house on fire when dr murtaza haider and his son was killed in lahore in series of '
p78
aS'why lahori mob never lit lej safeheavens on fire1000kg explosives bought from lahore and kill 90 ppl in quetta not s '
p79
asS'2013_12'
p80
(lp81
S'30 oct was massive but this is beyond all description truly amazing and overwhelming pti tsunami has taken over pt '
p82
aS'sense of anticipationexcitement i had going into 1992 world cup is back 2day with more intensity as we move 2 change '
p83
aS'wishing all the pakistanis a very happy republic dayhope it will mark the beginning of a peaceful and prosperous era '
p84
asS'2013_15'
p85
(lp86
S''
p87
asS'2013_32'
p88
(lp89
S'cm kpks charge of armys disinterest in stopping dik jailbreak is damning army high command has to explain its positi\xe2\x80\xa6'
p90
asS'2013_30'
p91
(lp92
S'in a normal country if 57 people died in bombings prime minister will be on tv telling his people what he is doing abo\xe2\x80\xa6'
p93
asS'2013_19'
p94
(lp95
S'what an incredible privilege to work with this amazing man in his quest to build a country this nation dreams of'
p96
asS'2012_35'
p97
(lp98
S'rabbe kaaba ki qasm hadd sey guzar jati hai jabsholae mashriq sey jal kar khak ho jati hai shaballama iqbal'
p99
asS'2012_36'
p100
(lp101
S'still keeping hope alive for ajmal to turn things around exciting match'
p102
aS'congratulations team pakistan well played australia an electrifying match indeed so glad i was able to see our boys '
p103
aS'pakistani health success children missed for 3 yrs finally get polio measles penta vaccines endpolio '
p104
aS'visited astore met with families of slain shias visited mosque amp prayed for these terrorism victims alongside th '
p105
asS'2012_37'
p106
(lp107
S'its said to be a rs5b firm but had no concept of health and safety responsibility of care to the poor workers corpo '
p108
asS'2012_33'
p109
(lp110
S'pakistan zindabaad'
p111
asS'2012_38'
p112
(lp113
S'a friends son wrote on fb today we are pakistan mess with us and we will destroy ourselves to teach you a lesson'
p114
aS'saba ney phir dar e zindaan pey akey dastak dee sehr qareeb hey dil sey kahoo na ghabraiey faiz ahmed faiz'
p115
aS'salman butt was on the flight with me todaytook a lot of will power to restrain myself from asking him how he felt b '
p116
asS'2012_39'
p117
(lp118
g87
as.