(dp0
S'2013_42'
p1
(lp2
S'eat something now'
p3
aS'i love my job but sometimes 45  50 hes is still stressful i get tired so quickly some days'
p4
aS'i want to sleep right now'
p5
aS'iamastrongandindependentwoman because cancer changed my whole view on life and helped me discover my path'
p6
aS'im feeling extra anxious right now'
p7
aS'lmfao nice'
p8
aS'theyre pretty big sorry lol p'
p9
aS'bills fan for life hahaha i wore my lucky bills earrings today'
p10
aS'lol i tried'
p11
aS'so happy right now i knew wearing my bills earrings would help p'
p12
aS'im happy with them today  '
p13
aS'i think you because youre too awesome to be single'
p14
aS'i thought we were close ahaha'
p15
aS'well fine'
p16
aS'lol i saw this lost of bad halloween ideas and one was a sexy chinese food box'
p17
aS'sexy pizza'
p18
aS'well tonight made me feel insecure'
p19
aS'top 4 sexiest zodiac signs  scorpio  leo  cancer  virgo\xe2\x80\x9d definitely \xf0\x9f\x98\x8a'
p20
aS'no its cool i like eating alone'
p21
aS'right haha best reason to never download it'
p22
aS'i avoided it because the only person i know with it takes pooping pics lmao'
p23
aS'i call them yo or hey you or how do you spell your name again haha'
p24
aS'same here it feels like one of those days'
p25
aS'im so bummed out right now what is this'
p26
aS'oh shit that must be my excuse too'
p27
aS'mindblowing sex can actually wipe your memory clean temporarily finds a study\xe2\x80\x9d lmfao'
p28
aS'whens the last time you cleaned out your wallet '
p29
aS'ill do a birthday shot because i was already planning on shots haha'
p30
aS'i feel like im silly all of the time'
p31
aS'seafood sounds so good right now'
p32
aS'can you use that in a sentence'
p33
aS'i hate when i try to give the sexiest person ive ever seen a hug and the mirror gets in the way \xf0\x9f\x98\x8f'
p34
aS'nah i like to say fuck you instead hah jk \xf0\x9f\x98\x8f'
p35
aS'happy birthday'
p36
aS'being nice really gets me taken advantage of a lot '
p37
aS'you too '
p38
aS'cute'
p39
aS'i really do like texting people but awkwardness'
p40
aS'can i be anymore awkward and embarrassing '
p41
aS'my life is crazy \xf0\x9f\x98\x82\xf0\x9f\x98\x82\xf0\x9f\x98\x82'
p42
aS'that awkward moment when'
p43
aS'stress relievers \xe2\x88\x99chocolate milk \xe2\x88\x99music \xe2\x88\x99sleep \xe2\x88\x99video games \xe2\x88\x99sex \xe2\x88\x99sarcasm \xe2\x88\x99hugging \xe2\x88\x99cuddling \xe2\x88\x99kissing \xe2\x88\x99reading \xe2\x88\x99exercise \xe2\x88\x99laughin\xe2\x80\xa6'
p44
aS'psychology says the person who tries to keep everyone happy often ends up feeling the loneliest\xe2\x80\x9d me '
p45
aS'i think it would be '
p46
aS''
p47
aS'lt3 ty'
p48
aS'exactly better to know and live as long and healthy as possible'
p49
aS'true when i get blood drawn im like lol throw all the tests in there'
p50
aS'rt if ur the ugly friend'
p51
aS'i know right \xf0\x9f\x98\x92 its not that hard to do'
p52
aS'the worst'
p53
aS'only 15 of sexually active adults have been tested for hiv\xe2\x80\x9d \xf0\x9f\x98\xb1 come on people'
p54
aS'k'
p55
aS'in my relationship i only need four things  1 trust 2 loyalty 3 good communication 4 good sex'
p56
aS'like my friend says going back out with an ex is like putting on dirty underwear'
p57
aS'all of my exes stay exes'
p58
aS'some girls are stupid if its time to move on move on'
p59
aS'watching an awkward sexual adventure'
p60
aS'my friends'
p61
aS'im dying with laughter lmao'
p62
aS'had a weird dream that involved haha wtf'
p63
aS'lack of sleep can lead to an increased desire for sex and substance abuse'
p64
aS'haha thats my team'
p65
aS'time i think some people are cut out for it but most are not'
p66
aS'maybe its my being jaded from previously being married but its just hard to stay happy the way you are we change all the'
p67
aS'i dont believe animals were meant to be monogamous although im a loyal person it just depends on views i think'
p68
aS'life'
p69
aS'i think it depends'
p70
aS'help me get reach 5k retweets so i can take the beautiful on a date pleaseretweet'
p71
aS'julie you need to play it cool'
p72
aS'flustered'
p73
aS'theres hell in hello good in goodbye lie in believe over in lover end in friend ex in next amp if in life'
p74
aS'that is amazing'
p75
aS'95 of the time i dont know is just an excuse given by someone who is avoiding the truth\xe2\x80\x9d i dont know'
p76
aS'me'
p77
aS'guys are silly sometimes'
p78
aS'people who dance often are likely to have higher selfesteem and a more positive outlook on life\xe2\x80\x9d i feel better when i dance'
p79
aS'i can only imagine i hate being away from my little one for a day of work cant imagine much more than that'
p80
aS'i get angry when im hungry lol'
p81
aS'dancing around my house to i love makeamove'
p82
aS'loneliness lack of sleep and hunger are the three top most common causes of mood swings\xe2\x80\x9d definitely hunger for me'
p83
aS'sometimes in the morning youre like lets do this and your body is like nooooope'
p84
aS'im not perfect but im always loyal'
p85
aS'it was enough the first time lets be real'
p86
aS'85 of apologies are literally meaningless a person is rarely sorry for what they did but sorry they got caught'
p87
aS'same here'
p88
aS'anybody i see on a flip phone i assume is talking to either walter white or jesse pinkman'
p89
aS'i hate it but cant find different youd think at 25'
p90
aS'that is also what happens as you get older'
p91
aS'psychology says you don\xe2\x80\x99t really need someone to complete you you only need someone to accept you completely'
p92
aS'beer lovers are 60 more likely to be ok with having sex on the first date than those who dont drink beer\xe2\x80\x9d what about rum drinkers'
p93
aS'selena was great i loved the clothes that she wears also'
p94
aS'once a virgo shuts down it takes forever to open them up again'
p95
aS'just got home from and and it was awesome'
p96
aS'i sure as hell wouldnt'
p97
aS'it was pretty freaking awesome i really enjoyed it'
p98
aS'end of the concert selenagomez'
p99
aS'more concert selenagomez'
p100
aS'at the concert concert selenagomez'
p101
aS'me at the concert haha concert selfie selenagomez'
p102
aS'i love and her outfits'
p103
aS'new fan in buffalo after tonight although i feel ancient compared to you guys haha'
p104
aS'are those tears'
p105
aS'its pretty awesome great night'
p106
aS'thanks'
p107
aS'yes i won tickets at work'
p108
aS'im digging this concert i wont lie'
p109
aS'great job in buffalo ny \xf0\x9f\x98\x84'
p110
aS'aw the guys are wearing buffalo sabres jerseys thats cool'
p111
aS'i hear that'
p112
aS'they arent yet i got the booklet from a fellow gavin fan though itunes only has credits'
p113
aS'i wish i had the lyrics to  makeamove'
p114
aS'spending the whole morning listening to and its making me happy'
p115
aS'i cant wait to hear exciting stuff'
p116
aS'haha yeah me all the time'
p117
aS'lt3 this cd is great lt3 \xe2\x99\xab make a move \xe2\x80\x93 gavin degraw nowplaying'
p118
aS'p'
p119
aS'hahaha im loving this andy you need to hurry but take your time so the new cd is perfection again'
p120
aS'im excited for this tour \xf0\x9f\x98\x8a'
p121
aS'this and \xe2\x9d\xa4\xe2\x9d\xa4 a great day for music'
p122
aS'well is flawless i love his new cd makeamove \xe2\x9d\xa4\xf0\x9f\x98\x98'
p123
aS'psychology says depression is often the result of over thinking our minds create problems that initially didnt exist\xe2\x80\x9d me'
p124
aS'whoa how does this work '
p125
aS'im glad people dont like me and also that i dont live in china'
p126
aS'i love when i get called a slut while playing video games leave me personal life out of it geez and are you stalking me'
p127
aS'video games are more effective at battling depression than counseling is\xe2\x80\x9d i agree '
p128
aS'ancient legend says finding it hard to fall asleep may indicate that youre awake in someones dream\xe2\x80\x9d some1 dreams about me a lot'
p129
aS'i find the weirdest things to find attractive about a guy'
p130
aS'so happy for this '
p131
aS'life is a mess sometimes luckily i can still smile through it all'
p132
aS'neck kissing lip biting back scratching all turn ons'
p133
aS'loneliness weakens your immune system  having friends and significant others can increase immunity by 60'
p134
aS'i think i might see once or twice next month hmm'
p135
aS'i could use a back massage right about now'
p136
aS'everyone has that one best friend whos now a stranger'
p137
aS'thanks ill keep that in mind p'
p138
aS'hoping to see in pittsburgh since i cant make the buffalo date ahhh'
p139
aS'i just stumble into some of them tbh sometimes i pay for it for better tickets and stuff'
p140
aS'ikr im a rebel'
p141
aS'i basically make parts for medical stuff yay'
p142
aS'its a medical facility move here and ill get you a job lol'
p143
aS'skipping work to see selena gomez and by skipping work i mean that i won tickets through my job and they are fully aware'
p144
aS'1 in 7 newlyweds will cheat in their first year of marriage\xe2\x80\x9d these odds \xf0\x9f\x98\x94'
p145
aS'if you mistreat a virgo you risk being shut out of their life forever'
p146
aS'sleeping with an ex is like masturbation you know youre fucking yourself but you do it anyway'
p147
aS'kissing against a wall gt'
p148
aS'its gross that it actually stayed though lol'
p149
aS'it wasnt and i was parked in the sun lol'
p150
aS'what is this i dont get it'
p151
aS'i miss its been way too long since ive seen him live i need to see him a 15th time p'
p152
aS'please tell me im not the only one alarmed by this its been in my car 2 days'
p153
aS'someone i know hasnt gone on a date in 10 years'
p154
aS'bahaha i just dont want to be alone'
p155
aS'i just cant do it let a guy take me on a date ill dump him afterwards lol jk maybe'
p156
aS'well thank you i appreciate that coming from you '
p157
aS'you can tell me to stop i know i have a terrible sense of humor lol'
p158
aS'more than 50 of american singles claim they have not had a date in over 2 years\xe2\x80\x9d d please never let this happen to me'
p159
aS'wtf'
p160
aS'let us take a moment to think about how fantastic cuddling is'
p161
aS'i want someone that will text me and tell me that im beautiful '
p162
aS'i just want someone to give me an extra reason to smile'
p163
aS'im a lazy texter unless youre hot or i like you'
p164
aS'shy people have the best observational skills making it easier to recognize the core of a problem then solving it'
p165
aS'lonely isn\xe2\x80\x99t a feeling when you\xe2\x80\x99re alone its a feeling when no one cares'
p166
aS'agreed thats why im pissed off 999 of the time'
p167
aS'catch no feelings feel no pain'
p168
aS'im having this problem right now with a best friend who ditched me in a town an hour away from my home yay'
p169
aS'i dont refer to myself as single i prefer to say independently owned and operated'
p170
aS'the nicest people are usually the ones suffering the most and they generally know what it truly means to feel alone'
p171
aS'disappointment changes a person\xe2\x80\x99s outlook on future relationships causing them to push others away when they get too close'
p172
aS'once i fix up my car im down last thing i want is to travel in my car at this moment  but soon'
p173
aS'cheating on a good person is like trading a diamond for a rock'
p174
aS'i need to make a trip to nyc its only 6 12 hours away'
p175
aS'whats that'
p176
aS'you wear your best apology but i was there to watch you leave'
p177
aS'enjoy it'
p178
asS'2013_43'
p179
(lp180
S'because people fucking suck'
p181
aS'sometimes some people just need to go fuck themselves'
p182
aS'i love them'
p183
aS'it is illegal to get a fish drunk in the state of ohio\xe2\x80\x9d bahaha'
p184
aS'listening to a song that causes you to think of someone youre not supposed to be missing indicates that youre truly in love'
p185
aS'for a virgo its all about love\xe2\x80\x9d yes'
p186
aS'aw how cute'
p187
aS'do they still have a million signs about him there'
p188
aS'lol not you never you silly'
p189
aS'yeeeessssss lt3 lt3'
p190
aS'i wish someone would punch you in the face'
p191
aS'you are really fucking annoying me'
p192
aS'yep all kinds of pancakes plain blueberry banana chocolate strawberry yum'
p193
aS'i cant wait until the next season of melissa amp joey'
p194
aS'sorrynotsorry'
p195
aS'what a sucky night'
p196
aS'and im just here like no i dont want to talk about my feelings with you you asshole'
p197
aS'exactly i can have a 100 in my wallet and just spend away but if i have 100 on my card im like im broke'
p198
aS'do exes have shitty mood radar like i bet shes in a shitty mood let me contact her'
p199
aS'ugh if i have cash its like im making it rain but if i use my card im super frugal'
p200
aS'i was eating a cupcake alone at the mall and a woman gave me the saddest smile ever '
p201
aS'i wish i look cute for once and im sad and lonely at the mall'
p202
aS'yeah i got all dressed up and my plans changed lol'
p203
aS'the best love is insane'
p204
aS'smiling too much is often the habit of someone who is experiencing emotional pain'
p205
aS'i feel awkward when people do that but to be fair i feel awkward a lot lol'
p206
aS'i dont care where we sleep tonight i dont care if its in or outside you know what to do oo oooo make a move oo oooo'
p207
aS'if youre on a date and reading this its probs not going well'
p208
aS'do you ever wish you had a second chance to meet someone again for the first time\xe2\x80\x9d i really do'
p209
aS'sometimes i really miss you but id never say it out loud i would rather pretend i dont care at all'
p210
aS'  '
p211
aS'ty'
p212
aS'wondering when i can see for the 15th time thoughts in my works parking lot lol'
p213
aS'crazy when strangers care more than friends'
p214
aS'welcome to adulthood chris lol'
p215
aS'i just got an id check to buy an r rated movie sobs'
p216
aS'having a lunch date with one of my besties one of the few people who have been there for me lt3'
p217
ag119
aS'aw i miss waves its been a while since i said hi'
p218
aS'i absolutely love it when a guy smells good \xf0\x9f\x98\x84'
p219
aS'oysters lean meat seafood and whole grains are all foods that have been proven to boost sex life\xe2\x80\x9d yum \xf0\x9f\x98\x88'
p220
aS'lol spotify'
p221
aS'the truth'
p222
aS'i give expert advice'
p223
aS'dont ever date a coworker unless they are hot then date away'
p224
aS'scorpios are like my 4th favorite sign'
p225
aS'jesse pinkman was originally planned to be killed off after the first season of breaking bad\xe2\x80\x9d glad that didnt happen '
p226
aS'nice pic'
p227
aS'i cant wait until i go to lunch tomorrow '
p228
aS'check out i love her music and you should too shes great live'
p229
aS'on the plus side i gave up dating'
p230
aS'i hate people'
p231
aS'you need to learn how to share \xf0\x9f\x98\xa2'
p232
aS'usually the people with the best advice are the ones with the most problems'
p233
aS'this is what happens when i drink ha'
p234
aS'i wish i wasnt cuddling with just my pillow as i watch this movie'
p235
aS'new beebs and her money makers ep dropping nov1 featuring aaronbarrett of want'
p236
aS'pretending not to care is the habit of someone who generally cares the most known as an emotional defense mechanism'
p237
aS'just watched sons of anarchy on mute with romantic songs playing a whole new show'
p238
aS'i need my phone taken away when i drink'
p239
aS'white chocolate doesn\xe2\x80\x99t actually contain any chocolate in it\xe2\x80\x9d white chocolate is gross'
p240
aS'seeing senses fail lol'
p241
aS'ugh a 20 year old is messaging me you arent even old enough to drink go away'
p242
aS'i know '
p243
aS'me too i feel ugly sometimes lol'
p244
aS'haha yeah hmm hes also probably like why did someone from buffalo look at my profile'
p245
aS'bahahaha'
p246
aS'really though'
p247
aS'oh whats his number lol jk jk'
p248
aS'that sounds dirty both of them haha'
p249
aS'i suck dick so jk'
p250
aS'whoa actually seeing tonight i feel like im in high school again'
p251
asS'2013_40'
p252
(lp253
S'weird my anxiety has been doing the same thing this past day '
p254
aS'fuckfuckfuckfuckfuckfuckityfuckfuckfuck'
p255
aS'i love it'
p256
aS'virgo women do not enjoy being parttime lovers'
p257
aS'i was trying to help you out by ending on that one '
p258
aS'lol'
p259
aS'a stick'
p260
aS'whats brown and sticky'
p261
aS'qwhat\xe2\x80\x99s the best time to go to the dentist atoothhurty'
p262
aS'q what do you call a fly with no wings a a walk'
p263
aS'because just reminded me i need chocolate'
p264
aS'were just fumbling through the grey trying to find a heart thats not walking away'
p265
aS'thats good im glad'
p266
aS'nice pic '
p267
aS'my one true love is pizza'
p268
aS'im drunk on pizza william'
p269
aS'im doing okay how are you'
p270
aS'people who are always too nice to others are more likely to be taken for granted'
p271
aS'pizza is the gift that keeps on giving  will'
p272
aS'congrats'
p273
aS'omg'
p274
aS'andy is the best'
p275
aS'happy birthday and love the hair'
p276
aS'mine was always at the end of a drinking night both times i woke up not remembering much ah'
p277
aS'exactly i did it twice and those were interesting nights'
p278
aS'um still omg no'
p279
aS'this idea is making me cringe as i chop things for a stew'
p280
aS'cause i forgot how she is pretty even when she has just woken up and i forgot how we cant make it through the evening without making love'
p281
aS'spending my day making beef stew and cotton candy cookies and blasting with my daughter'
p282
aS'breakeven hard choice but i love it'
p283
aS'i definitely need to make them then lol'
p284
aS'i need to make them i like the drinks when im drunk and thats a bad mix'
p285
aS'the drink or the cupcakes i like the drinks but i get fucked up on them the only thing that does that '
p286
aS'i should stay away from irish car bombs but cupcakes are okay right '
p287
aS'i want to make these '
p288
aS'willandersonhasthemostcomfybed ltcrazy hahah'
p289
aS'i actually want to know how true this is because ive seen some really comfy beds willandersonhasthemostcomfybed'
p290
aS'i wonder how many people are confused by willandersonhasthemostcomfybed'
p291
aS'this is probably the weirdest yet most fantastic trend on twitter'
p292
aS'obviously that follower doesnt think willandersonhasthemostcomfybed'
p293
aS'willandersonhasthemostcomfybed stupendous'
p294
aS'bahahahah'
p295
aS'dammit todd'
p296
aS'yes both of them ruin everything yet we love them sometimes'
p297
aS'kids always ruin shit'
p298
aS'i hate having songs stuck in my head at work because ill randomly hum them ha'
p299
aS'hahahaha its fact people fact  w'
p300
aS'look at that brat lol kidding'
p301
aS'my thoughts exactly i miss my old car because of the auto lights superlazy'
p302
aS'as someone who just battled cancer this makes me happy'
p303
aS'but he loves you and wants to marry you '
p304
aS'yep we even read each others thoughts bffs for life'
p305
aS'we replied to each other at the same time meant to be'
p306
aS'me too'
p307
aS'i have no trust in anyone or anything anymore'
p308
aS'thats purrfect'
p309
aS'i make lion puns we are perfect girlfriends'
p310
aS'i mean i tell cat puns cat puns'
p311
aS'i would be the perfect girlfriend its sad really not even in an arrogant way i just know what i have to offer'
p312
aS'well thanks i appreciate it lol'
p313
aS'good thing we havent talked in like a week'
p314
aS'i feel so ugly right now lol'
p315
aS'virgos cannot tolerate liars cheaters fakeness or ignorance'
p316
aS'awesome'
p317
aS'just had one of those dreams where you wake up out of breath because it was so scary wtf mind'
p318
aS'life is short live it love is rare grab it anger is bad dump it fear is awful face it memories are sweet cherish\xe2\x80\xa6'
p319
aS'right and it wasnt like those other crazies where only one kills a spouse or kills the others spouse true love'
p320
aS'at least it was mutual'
p321
aS'awwwwoh gt adorable old couple are actually both murderers who killed their exspouses'
p322
aS'rate me from 1lame last night teared up watching friday night lights alone today golf alone tonight dinner amp a movi\xe2\x80\xa6'
p323
aS'happy birthday danny \xf0\x9f\x98\x84'
p324
aS'i turn to food when im stressed also when im not'
p325
aS'if you date a virgo women you are subject to their honesty friendship amp motivation'
p326
aS'i take myself on dates all time'
p327
aS'so glad its wednesday and wednesday is almost over'
p328
aS'me too it shows the state of mind of some politicians that faux political statements are worth more than a childs life'
p329
aS'as someone who has gone through a battle with cancer this makes me depressed'
p330
aS'and im not there '
p331
aS'a virgos mind is always racing'
p332
aS'the \xe2\x80\x9cno sleveless tops\xe2\x80\x9d american public school dress code policy is impeding on our 2nd amendment right to bare arms'
p333
aS'text a girl hey beautiful and trust me you could make her whole day'
p334
aS'idk but i think he was hallucinating or shy or one of them was nuts'
p335
aS'i would love some tour dates'
p336
aS'thanks mom'
p337
aS'the one time i actually could have been there why '
p338
aS'no but im sure i can find someone lol'
p339
aS'xs'
p340
aS'nope but thank you for the flattery'
p341
aS'can we sacrifice someone or find a willing participant'
p342
aS'you can as long as the result is that i logged out completely lol'
p343
aS'can i just log out of life for the week can this be a possibility d'
p344
aS'im okay thanks for asking and lol shes wayyy prettier than me but thanks'
p345
aS'lt sounds like me tbh'
p346
aS'whats going on'
p347
aS'and you be the reason ill be the rhyme weve both got way too much ahead to worry bout what we left behind'
p348
aS'on that note if i ever get married again i have the perfect song in mind hahaha \xf0\x9f\x98\xb1\xf0\x9f\x98\xb1'
p349
aS'im obviously a romantic but not really'
p350
aS'its nice in theory but the thought of someone watching me while i sleep and counting when i breathe in a little weird'
p351
aS'i must be the only person who feels a little weirded out by the first verse in the other side by parachute'
p352
aS'my stomach hurts and this is making me laugh '
p353
aS'russian beautiesyour exotic flower awaits you how did i end up on a russian mail order bride mailing list'
p354
aS'so proud of you you sure told will lol'
p355
aS'aww she loves me i could smack you right now\xe2\x80\x9d'
p356
aS'i guess youre just waiting for that call'
p357
aS'disappear is my favorite song on overnight parachuteovernight'
p358
aS'cant will just love his songs in peace lol'
p359
aS'be the reason someone smiles today'
p360
aS'thanks lt3'
p361
aS'i can go through cancer mostly alone but apparently i become a big baby when my abdomen hurts amp im coughing all by myself'
p362
aS'i feel like crap amp i just want someone to cuddle with me amp take care of me'
p363
aS'it sucks and they wont tell me what they are going to do and i get so much pain i cant move sometimes '
p364
aS'i get this sharp pain in my lower abdomen from time to time probably the fibroid but whatever '
p365
aS'ugh the pain right now'
p366
aS'because you are full of greatness'
p367
aS'never waste an opportunity to tell someone you love them'
p368
aS'sometimes little things in the world can make me smile'
p369
aS'i do it pretty quickly lol i never understood waiting'
p370
aS'i wish i could see justin timberlake '
p371
aS'i want to cry'
p372
aS'i want to be sexy bacon 21 sexy halloween costumes that should never have been made'
p373
aS'and today was a pretty good day'
p374
aS'smiling'
p375
aS'not that much longer lol'
p376
aS'but hell probably die first '
p377
aS'i know some people who dont watch it yet lol'
p378
aS'truth ill wait can we share'
p379
asS'2013_41'
p380
(lp381
S'more like great evening'
p382
aS'well im fucked lack of sleep and going to sleep irregularly can lead to early death\xe2\x80\x9d'
p383
aS'and here i just thought you were trying to be friendly with me'
p384
aS'you wouldnt be an ugly clown and i say this as someone who really hates clowns'
p385
aS'we all need someone who wont give up on us'
p386
aS'single \xe2\x97\xbd taken \xe2\x97\xbd doin me \xe2\x9c\x94'
p387
aS'correction anybody you cant trust everybody\xe2\x80\x9d'
p388
aS'im afraid of clowns still '
p389
aS'maybe the guy in the no scrubs song wasnt hangin out the side of his bfs ride but was being kidnapped hence the h\xe2\x80\xa6'
p390
aS'chipotle'
p391
aS'how to get a woman to like you 1 make her laugh 2 if you cant do number 1 youre fucked'
p392
aS'cant wait'
p393
aS'my friends apparently do ha i was lucky the people who helped me out didnt kill me or sell me'
p394
aS'im also certain you wouldnt leave me in a town 50 minutes from home with no ride either hah'
p395
aS'fuck fake friends and friends who ditch you in a town where you know no one'
p396
aS'of course but overall i still hate people'
p397
aS'i hate people'
p398
aS'i do love reading its great because my life is full of comedy amp tragedy amp other odd antics amp im only a quarter in'
p399
aS'long story'
p400
aS'i should write a story about my life people always wtf when we talk about it'
p401
aS'you are obsessive holy shit'
p402
aS'did you hear will has the most comfortable bed in the world check out what could be the creepiest and most'
p403
aS'right tell him to spell his name right haha'
p404
aS'and 4 this is 2013 why is this a thing'
p405
aS'after someone hurts you youre not the same anymore'
p406
aS'a virgo easily forgives but never forgets'
p407
aS'that feeling you get when you hug someone and you just dont wanna let go'
p408
aS'bahaha people like to throw that around a lot'
p409
aS'hey baby wanna engage in some premarital handholding'
p410
aS'sometimes the smallest step in the right direction ends up being the biggest step of your life'
p411
aS'if only i were home'
p412
aS'everyone is getting their hair cut and im trying to get extensions haha'
p413
aS'romeo and juliet juliet i luh you romeo i luh u 2 j cum over lol r cant parents r being gay  lt3 j fack lets k\xe2\x80\xa6'
p414
aS'i know nothing about this word'
p415
aS'i never get text messages anymore wtf'
p416
aS'keeper'
p417
aS'not like i can help it though i had cancer '
p418
aS'yeah guys usually stop dating me when they find out even though they say its cute who knows'
p419
aS'mcdonalds put two apple bags in this happy meal oh shit'
p420
aS'me too good luck to us'
p421
aS'i always find shit out i might not say it right away but i know'
p422
aS'i think i have finally picked up my friends i dont give a fuckitis'
p423
aS'there are people who do that why though'
p424
aS'happy birthday'
p425
aS'im really awesome so i really dont care at the end of the day i am still me'
p426
aS'i think guys are the absolute worst no one deserves me at this point \xf0\x9f\x98\x8a'
p427
aS'over time you start noticing that some people just aren\xe2\x80\x99t worth it anymore'
p428
aS'cuddling before bed is 10 times more effective than sleeping pills'
p429
aS'when you fall in love with someones personality everything about that person tends to become beautiful'
p430
aS'me too '
p431
aS'after work and i just helped my friend with her dead fish i hate seeing her sad'
p432
aS'wish i would have seen this earlier we could have talked about breaking bad p'
p433
aS'thats why i dont snapchat haha'
p434
aS'i am literally the friend that gives relationship advice and is always single'
p435
aS'omg i want to ad you on facebook 0'
p436
aS'my stomach did not appreciate it lol'
p437
aS'note to self dont eat tacos while drinking rum'
p438
aS'smile its the greatest favor you can do for yourself'
p439
aS'no thanks people who have their shit together no fucking thanks'
p440
aS'i love sarah lt3'
p441
aS'i deserve to be happy fuck all this bullshit'
p442
aS'i meant to talk to lol but yeah'
p443
aS'this is the worst time for me to feel like i have no one'
p444
aS'am i ever going to reach a moment when i can be happy the worst part about being a nice person i always focus on others'
p445
aS'im just so sad right now maybe thats what im meant to be the sad person who can fake a smile ive gotten pretty good at it'
p446
aS'trying to figure out why the drive to work felt so intense haha'
p447
aS'the only one by parachute breaks my heart every time thanks for the emotional song guys'
p448
aS'i try learning and growing but i feel so empty right now and theres no real reason to feel this way i just do'
p449
aS'i wont lie gavin degraw  make a move \xf0\x9f\x98\x8d\xf0\x9f\x98\x8d\xf0\x9f\x98\x8d the song although the album is good too'
p450
aS'im so sorry to hear this gavin '
p451
aS'and i would love to be the song you sing to everyone for everything just tell me when this melody gets clear'
p452
aS'i agree with this it was out of no where to us'
p453
aS'i dont know i wish there was though '
p454
aS'i just see so many good kind people destroyed because of it why go through that hurt if the possible end isnt worth it'
p455
aS'the goodhearted ones are the weakest watching the fate of those who are kind is it worth it do i bother being that way anymore'
p456
aS'thats actually an honest question'
p457
aS'stay real stay loyal or stay away from me'
p458
aS'i know what you mean its pretty sad'
p459
aS'this is one of those days where i kind of feel alone '
p460
aS'you will notice that when dating a virgo the relationships gets better over time you just have to look past their first\xe2\x80\xa6'
p461
aS'because hes busy buying gta duuuuh'
p462
aS'nice guys guys finish last because they were at home making you a mix tape'
p463
aS'know your worth know what you deserve and know when its time to move on'
p464
aS'i will cry with you \xf0\x9f\x98\xa2'
p465
aS'virgo females are the sweetest of the zodiac but mess with them and youll wish you didnt'
p466
aS'stop trying so hard for people who arent even worth your time'
p467
aS'i definitely love cuddling an appropriate tweet since im alone and freezing ha'
p468
aS'me too'
p469
aS'still one of my favorites today'
p470
asS'2013_46'
p471
(lp472
S'thanks for a great time'
p473
aS'yall have someone in buffalo that owes you a pizza  i wasnt lying'
p474
aS'people who consume more pizza may actually be decreasing their risk of cancer pizza rules'
p475
aS'i like you but i dont have the decency to make you feel wanted at all should have been what was actually said'
p476
aS'sounds good'
p477
aS'lol this is killing me'
p478
aS'but dont tell me you like me and miss me if you cant even text me because i know youre full of shit \xf0\x9f\x91\x8d'
p479
aS'nothing pisses me off faster than a guy who can sell you the world but give you nothing except maybe getting k as a text'
p480
aS'i think we can top bat boy with enough thought we got this hmmm'
p481
aS'texting is always fun'
p482
aS'i know im awesome like that youre welcome'
p483
aS'hey thanks for the jamison that made my night all drunky'
p484
aS'me too'
p485
aS'could be worse could be a conversation about having nothing to talk about'
p486
aS'swiss cheese is the worst'
p487
aS'hell yeah it was great hangin thanks for coming out and almost joining the cult with us'
p488
aS'it was great for sure lets make our own cult to join next time'
p489
aS'story if my life now lol'
p490
aS'i wish i had someone to sleep with no booty calls or nuthin'
p491
aS'great job guys hope to see you guys again soon'
p492
aS'great look'
p493
aS'nothing much watching you play'
p494
aS'hey'
p495
aS'jk it wasnt a guy'
p496
aS'its awesome i hear from guys'
p497
aS'hey i see you is that weird'
p498
aS'hey i also see you hopefully thats not weird'
p499
aS'i havent eaten anything all day and now all i can think about is food'
p500
aS'found this from earlier '
p501
aS'70 of men admit that they like public sex\xe2\x80\x9d \xf0\x9f\x91\x8d\xf0\x9f\x91\x8d'
p502
aS'yeah me too im starving'
p503
aS'there right now ha'
p504
aS'great to not be in buffalo because its making me angry'
p505
aS'do not make a virgo feel like a clown unless your goal is to piss them off'
p506
aS'hmmmm '
p507
aS'flaccid or erect'
p508
aS'want me to send you a dick pic'
p509
aS'i get mad dick pics hah jk'
p510
aS'while missing someone your emotions are more likely to go from happiness to sadness instantly'
p511
aS'oh thats right people piss me off then i cant sleep'
p512
aS'why am i awake'
p513
aS'i want to punch a dude'
p514
aS'lol wrong site'
p515
aS'haha thats the way to do it'
p516
aS'let\xe2\x80\x99s get real ya\xe2\x80\x99ll since i\xe2\x80\x99m the only one on this tour bus tonight you know i\xe2\x80\x99m about to sleep in johnny\xe2\x80\x99s bunk buck as\xe2\x80\xa6'
p517
aS'drunk friends maybe '
p518
aS'on the inside and outside '
p519
aS'lol great convo'
p520
aS'yeah andy also has a familiar face lol maybe thats why they are so pleasant'
p521
aS'its still pizza though'
p522
aS'he has a familiar face i think that every time i see a pic of him'
p523
aS'you probably shouldnt do that'
p524
aS'thank you'
p525
aS'i hope this weekend is better than this week has been '
p526
aS'i want my heart and mind to be okay'
p527
aS'i ruin everything'
p528
aS'at the bottom of an empty bottle is where the truth starts to spill dont wanna wake up with regret from this feeling we cant kill'
p529
aS'i wish i never had cancer then i could live in an imaginary world where people care about me '
p530
aS'same here its such a good song'
p531
aS'obsessed with  teach me how love goes'
p532
aS'and i dont wanna believe that love is just a dream and now were waking up'
p533
aS'cause i just cant believe that this is how its supposed to be ive had enough'
p534
aS'is there someone to teach me how love goes'
p535
aS'hold me like the setting sun'
p536
aS'being ignored by someone whose attention means the world to you is the worst feeling\xe2\x80\x9d yes it really is'
p537
aS'over thinking is psychologically harmful the mind replays negative experiences in an endless loop which causes emotional distres\xe2\x80\xa6'
p538
aS'i rarely have feelings for guys but when i do i don know how to handle them'
p539
aS'i miss you so much'
p540
aS'that and the fact that its delicious'
p541
aS'i am soooo tired right now'
p542
aS'i think should give me a vip ticket because i totaled my car on the way to see them bahaha jk'
p543
aS'yeah parachute will you i missed 2 of them'
p544
aS'moldy stale bread'
p545
aS'i was actually thinking about going there after work'
p546
aS'if you are curious there are a few other places but they are good'
p547
aS'there is a pizza place called partners pizza they are open until 4am'
p548
aS'hahaha i like medication warnings though'
p549
aS'guys suck'
p550
aS'if you need advice on where to get good late night food in buffalo let me know p'
p551
aS'crazy that you guys followed me i like you guys '
p552
aS'there are times when a virgo needs to stop worrying you have done your best and now it is time to let go\xe2\x80\x9d me right now'
p553
aS'can i be happy just for a while'
p554
aS'but if they like pizza i can get that until 4am lol'
p555
aS'i work at 3 lol'
p556
aS'i dont have enough hours to call in sick i have to save them for the week between christmas and new years '
p557
aS'it sucks that i have to work the night they are in buffalo '
p558
aS'i was kind of joking lol i just meant that i wasnt going to'
p559
aS'i cant believe that you actually tweeted this gtlt'
p560
aS'omg haha'
p561
aS'is there one person you wish you could meet all over again what would you do if you had a second chance'
p562
aS'i agree '
p563
aS'nope  my car payment is due this week if they waited 2 weeks i would have been good'
p564
aS'lots of weird stuff you should never start a convo with then the ones ive actually dated '
p565
aS'i have so many online dating stories lots of colorful ones sugar daddies guys who want to take off panties with teeth'
p566
aS'i want to write about the times i was told i was too hot amp too kind to date or how no one actually wants to date anymore'
p567
aS'from my time spent on dating sites i think that time is already happening  so many of them singleforever'
p568
aS'maybe more douchey if thats possible'
p569
aS'i dont know about that'
p570
aS'ill probably always have feelings for people who dont feel that way about me'
p571
aS'sometimes i can appreciate the hard work ive put in '
p572
aS'i live too much like a recluse to meet people  i always end up getting used anyways'
p573
aS'i wish i didnt have to feel so alone all it takes is one good friend'
p574
aS'okay technically its tuesday'
p575
aS'i hope this weekend is filled with fun i dont care if its only monday'
p576
aS'he is amazing '
p577
aS'this is a scale that i can get behind great way to gauge how depressed you are'
p578
aS'i have never been more excited in my life i hope i dont crash into a mountain this time '
p579
aS'i want to learn a new dance preferably one with a partner '
p580
aS'it looks like im saving up time off to see and in april good thing its also my daughters birthday around then'
p581
aS'the fact that its gavin degraw and is making me so happy lt3'
p582
aS'i would love to have one close friend'
p583
aS'dancing often increases happiness\xe2\x80\x9d i need to dance more '
p584
aS'virgos go well with taurus cancer capricorn and scorpios  taurus guys are too emotionally draining for me though'
p585
aS'sometimes i love nothing more than a good cuddle its been way too long'
p586
aS'everything changes life happens in stages you wont have a story without turning pages  everything will change'
p587
aS'virgo likes the deep rich committed love not the light fluffy highschool love\xe2\x80\x9d so true'
p588
aS'virgo needs a loving patient and understanding lover who is willing to work through their sexual and romantic insecuriti\xe2\x80\xa6'
p589
aS'virgos are intelligent diligent and analytical\xe2\x80\x9d heeeyyyyyy'
p590
aS'i definitely need more in my life because they are my favorites'
p591
aS'um and musical heaven right now'
p592
aS'during their lifetime the average driver will have had sex in their car six times\xe2\x80\x9d hahaha'
p593
aS'ugh reminded of this and it sucks all over again'
p594
aS'man my favorite two favorite series end this year eastbound and down and breaking bad it will be hard to replace tho\xe2\x80\xa6'
p595
aS'im stuck on level 147 lol'
p596
aS'i worked hard to get my body back and so far i can say im pleased with my results'
p597
aS'if i do date ever again maybe i should find a cancer i never actually dated one amp they are one of my perfect matches'
p598
aS'i dont think im going to go on another date ever again i give up this is me waving my white flag'
p599
aS'no but then she told me im a piggy ha'
p600
asS'2013_47'
p601
(lp602
S'anuptaphobia describes a person who thinks and fears that theyll be forever alone'
p603
aS'guys need to stop saying they want a girl like them and stop being intimidated'
p604
aS'you also dont have to accept the fact that im nerdy someone else will '
p605
aS'avoiding hang overs is always good though'
p606
aS'i got fucked up on life '
p607
aS'started deleting people out of my life thanks for the support'
p608
aS'me too soberlife lol'
p609
ag47
aS'on and off or a month it was horrible drove me crazy'
p610
aS'most people will usually kiss on the second date as opposed to the first\xe2\x80\x9d i dont believe this one'
p611
aS'i knew one aries man and he was charming but no good but great in that way hed lie and say he liked me though'
p612
aS'i love aries but damn are aries men crazy lol'
p613
aS'virgo sex sign compatibility best with taurus cancer scorpio or pisces'
p614
aS'seriously though thats my number 1'
p615
aS'well hes exceptionally mine haha she can have thor'
p616
aS'captain america is my bf so back off'
p617
aS'i cant wait for more stuff from'
p618
aS'sober me is going to be so much better i just know it'
p619
aS'i agree with all of this'
p620
aS'i never thought it would be this hard'
p621
aS'come back again soon '
p622
aS'it might be their best game yet just kidding'
p623
aS'and now i feel more alone than ever'
p624
aS'wish me luck i am an alcoholic'
p625
aS'i am stopping drinking not in the im drunk and this is the last time i swear way but actually am not drinking'
p626
aS'me too'
p627
aS'i need friends to go get korean food with and go to concerts with and i dont know just be awesome with'
p628
aS'i so approve of this buffalo ny please'
p629
aS'home alone  blu ray because im awesome'
p630
aS'also late at night  alcohol amplifies the taste of said fries'
p631
aS'their fries are amazing the only place that comes close fry wise is five guys'
p632
aS'me'
p633
aS'i dont miss certain people but i miss waking up to special text messages its been a month'
p634
aS'im so excited'
p635
aS'but really i want a guy i can be sexy and nerdy with i am a full package although a little neurotic i deserve the full package'
p636
aS'okay guys the balls in your court im pretty awesome cute amp i love fun things stop being assholes'
p637
aS'taco bell doesnt have a playground because its hard to have fun when you might shit your pants'
p638
aS'i just say see you there since youre not supposed to judge'
p639
aS'im glad you think that lol'
p640
aS'thats how you know its a tour'
p641
aS'me too and the ps4 give me all the game systems lol'
p642
aS'thanks '
p643
aS'is it just you or am i fucking crazy'
p644
aS'i have absolutely no idea i never tweeted him or anything'
p645
aS'i tried i guess'
p646
aS'makes me wonder if i did or said the wrong thing'
p647
aS'virgo when stressed have sleeping problems poor appetite and bad posture thing is this happens a lot way too much'
p648
aS'waking up to a text message from the right person can effect a persons mood for the entire day'
p649
aS'aww happy birthday'
p650
aS'i dont get it how can one person talk to you and then not for no reason'
p651
aS'you sure do love general tso'
p652
aS'i was unblocked for a while and he followed me after now im blocked again lol'
p653
aS'rdgldgrn  power ups via  yessss'
p654
aS'because you are awesome'
p655
aS'sending pictures of my cat'
p656
aS'over thinking corrupts the mind destroys happiness and creates problems that never even existed in the first place'
p657
aS'yeah me too '
p658
aS'its 300 on the east coast though'
p659
aS'bummed out and slept the day away now all i have time for is a shower and going to work'
p660
aS'dont be afraid of being different be afraid of being the same as everyone else'
p661
aS'lol'
p662
aS'i should keep saying this my life is weird'
p663
aS'if you have struggled with shyness your whole life then you know what it means to battle endure and overcome difficult feeling\xe2\x80\xa6'
p664
aS'i have the weirdest story ever i am awkward'
p665
aS'love yourself'
p666
aS'4am'
p667
aS'every year there are more than 40000 toilet related injuries in the united states\xe2\x80\x9d fuckin toilets'
p668
aS'please understand if i see you again dont even say hello'
p669
aS'i have a lovehate relationship with alcohol'
p670
aS'yeah i cant stand heading christmas songs for two months ugh'
p671
aS'it is such a good show'
p672
aS'no reason not to be hes the greatest'
p673
aS'definitely i promise its great so many pizza places buffalo is alright we have niagara falls lol'
p674
aS'i do everything grocery shopping cafes bars dating sites im going to be alone forever'
p675
aS'dont worry its why people never leave even though buffalo kind of sucks haha'
p676
aS'male mice actually sing love songs for females the sounds they make are ultrasonic and humans are unable to hear them\xe2\x80\x9d awwww'
p677
aS'yesssa'
p678
aS'especially buffalo pizza and wings \xf0\x9f\x98\x89 always makes any day great'
p679
aS'in my favorites forever \xe2\x9d\xa4\xe2\x9d\xa4'
p680
aS'your day must have sucked just kidding pizza and wings are fucking awesome'
p681
aS'yep im marking it down'
p682
aS'call me maybe for an hour'
p683
aS'looks like i owe you guys pizza and wings \xf0\x9f\x91\x8d\xf0\x9f\x91\x8c'
p684
aS'friends with facebook add me'
p685
aS'but are you doing this in december because you need to see your biggest fan'
p686
aS'dating sites suck dating sucks people suck im going to be alone with 50 cats how do people even meet'
p687
aS'yes i need new best friends anyways p pizza is why people never leave and mighty taco time to eat'
p688
aS'just telling it like it is  yall became one of my favorites this year'
p689
aS'im so ready for this challenge so ready'
p690
aS'im glad that you have stopped smoking and that it feels that way  keep being x lol'
p691
aS'and its an a one at that'
p692
aS'also a professional pizza taster'
p693
aS'you will try it and itll be amazing and we will become best friends because youll trust my judgement'
p694
aS'do i win \xf0\x9f\x8d\x95\xf0\x9f\x8d\x95\xf0\x9f\x8d\x95\xf0\x9f\x90\xa4\xf0\x9f\x90\xa4\xf0\x9f\x90\xa4\xf0\x9f\x8e\x88\xf0\x9f\x8e\x89'
p695
aS'deal'
p696
aS'excuse you guys buffalo is famous for its pizza and wings p mmmm'
p697
aS'hi lol does that work p'
p698
aS'korea my home country lt3'
p699
aS'i deserve better even if i never find it i still deserve it'
p700
aS'or liquid dreams lol'
p701
aS'it kills me to let you go but if i dont let you go itll kill me inside'
p702
aS'no beards are sexy and you look fine with it ha'
p703
aS'thats pretty cool'
p704
aS'i just want to say that i love beards omg'
p705
aS'what but beards are amazing'
p706
aS'i probably did some of the most embarrassing stuff in my life today lol'
p707
asS'2013_44'
p708
(lp709
S'pft sometimes i need to hear it from everyone also lol'
p710
aS'virgo\xc2\x92s are competent intelligent rational and picky'
p711
aS'its really depressing'
p712
aS'i think the same thing'
p713
aS'syracuse is a nice city'
p714
aS'you dot tell me you love me wtf'
p715
aS'i love cooking with alcohol now if only i could save some for the recipe'
p716
aS'i love adding people on facebook lol'
p717
aS'any guys loss really'
p718
aS'youre full of it but ill take the compliment ha'
p719
aS'my duck face am i sexy lol'
p720
aS'god damn duck face what about mine'
p721
aS'im not pretty enough to be anyones twitter gf sooo lol'
p722
aS'i want to be someones twitter girlfriend lol i can make twitter brownies'
p723
aS'grrrrrr lmao'
p724
aS'thats why i work my legs i love being able to give someone a swift kick lol'
p725
aS'i have noodle arms but broad shoulders and extra strong legs'
p726
aS'time for you to get a watch'
p727
aS'\xe2\x9d\xa4'
p728
aS'okc guys never send me that text wtf'
p729
aS'where are these guys at if love a good morning beautiful text  lol'
p730
aS'excuses '
p731
aS'duck face 2 strikes lolol'
p732
aS'yeah that minus the concert hahaa jk jk that we are'
p733
aS'i was going to say i havent been to a concert since before my accident but i went to one since lol'
p734
aS'it was right after i found out the cancer was gone though'
p735
aS'its okay will told me it was okay because nate does it all the time lol'
p736
aS'dont do it todd its a trap p jk'
p737
aS'be careful with the crying i did that with parachute the last time i saw them lmfao'
p738
aS'how did i miss this lol'
p739
aS'crazy obsessed fans can be cool lol as long as you arent outside their windows or something'
p740
aS'true love '
p741
aS'its always great when an artist can do that for you '
p742
aS'haha aw   '
p743
aS'lol i think its cute its how i feel about and on the inside lol'
p744
aS'haha no him and gaining fans lately  not you lol'
p745
aS'i feel like im watching a child grow up hahaha x'
p746
aS'nah i havent noticed at all '
p747
aS'i know im getting fat you dont have to tell me \xf0\x9f\x98\xa2\xf0\x9f\x98\xa2\xf0\x9f\x98\xa2\xf0\x9f\x98\xa2'
p748
aS'lol duuuuh'
p749
aS'\xf0\x9f\x8e\xb5\xf0\x9f\x8e\xb6 \xf0\x9f\x8e\xb6\xf0\x9f\x8e\xb6\xf0\x9f\x8e\xb6\xf0\x9f\x8e\xa4\xf0\x9f\x8e\xa4\xf0\x9f\x8e\xb6\xf0\x9f\x8e\xb6\xf0\x9f\x8e\xb6'
p750
aS'hahaha thats cool there are girls that think its incredibly sexy a natural face is sexy usually p'
p751
aS'relationship status im done with playing nice'
p752
aS'me too gtlt'
p753
aS'unfortunately sometimes it kind of looks like im doing it but im not reasons i dont smile'
p754
aS'not to mention ill let you slide with one or two youre still young i see too many older people doing it and just no'
p755
aS'yours isnt even that bad lol im talking about the people who post from like ten different angles and shit'
p756
aS'me when i drink'
p757
aS'duck faces dont make you look cute i dont know what people are trying to do when they do it'
p758
aS'the sooner the better '
p759
aS'ooooo brand new \xf0\x9f\x98\x8d\xf0\x9f\x98\x8d\xf0\x9f\x98\x8d\xe2\x9d\xa4\xe2\x9d\xa4\xe2\x9d\xa4'
p760
aS'shes right'
p761
aS'yes my night is made'
p762
aS'i enjoy seeing everyone as unhappy as i am jk'
p763
aS'suits and beards for me'
p764
aS'unless you got arrested then maybe not so much'
p765
aS'phew at least im not alone on that lol'
p766
aS'yes i heard his voice and went lol thats marshall and had to look it up even though i know his name is jason haha'
p767
aS'i really cant stop laughing at the hashtag way to go'
p768
aS'its always fun to watch the clock change back lol easilyamused'
p769
aS'well when you put it that way'
p770
aS'is it sad that i knew that jason segel was the watermelon guy in cant hardly wait lol'
p771
aS'that awkward moment when you have to get over someone you never even dated'
p772
aS'so ashamed i did that before life'
p773
aS'extra hour no need'
p774
aS'extra hour cooking a pot roast lmao'
p775
aS'im making pot roast'
p776
aS'me too cries'
p777
aS'i dont know why but this sounds amazing'
p778
aS'lack of facetoface social contact increases a persons chances of heart disease stroke and dementia\xe2\x80\x9d help'
p779
aS'lack of diversity thats just a friendly and politically correct way of saying too many white people right it really\xe2\x80\xa6'
p780
aS'yes'
p781
aS'lol awesome'
p782
aS'fingers crossed haha a lot of the costumes i saw had no imagination cats kind of witches stuff like that'
p783
aS'i cant talk though i just dressed up as me '
p784
aS'lol but it can be like the movie mean girls except a cat instead of a mouse im a cat duh'
p785
aS'yes awesome'
p786
aS'you are pretty either way and they can go fuck themselves'
p787
aS'always a good time to get stuff like that'
p788
aS'idk i just like it'
p789
aS'thats the answer i like to hear'
p790
aS'they really are i didnt expect them to be this good yum'
p791
aS'i saw a million cats'
p792
aS'i dont care much for halloween but next halloween i want to be mad moxxi'
p793
aS'lmao at how creepy this sounds'
p794
ag47
aS'since these are healthy its okay to eat the whole bag right '
p795
aS'and im wearing my shirt from when was on tour with and hahah geez'
p796
aS'or for some people extra drinking'
p797
aS'im also sitting in my car listening to is there something wrong with me lol'
p798
aS'and here i am lonely sitting in a grocery store parking lot on twitter'
p799
aS'my daughter is an aries and acts just like one haha'
p800
aS'august 23rd so its at the end of the cusp usually the start of virgo although sometimes its the 24th'
p801
aS'it depends on the month but there is about a 4 day gap where the signs change i know for me my birthday is'
p802
aS'i retweet lots of stuff it cool to be noticed by anyone tbh hahaha'
p803
aS'also not afraid to say what im thinking and sensitive deep inside'
p804
aS'im generous but really shy and aloof around new people'
p805
aS'im actually a virgo with leo tendencies because of the cusp and i act just like it lol'
p806
aS'me too always a good time i love it'
p807
aS'youre probably one or the few i actually like lol p'
p808
aS'the taurus men at least are emotional and stubborn and can get angry quick'
p809
aS'yeah you should hear that one haha'
p810
aS'u less its salad x'
p811
aS'd'
p812
aS'lol the ones i met are alright but besides them im compatible with taurus and cancer and the ones i know whine a lot'
p813
aS'scorpios taurus and cancers are perfect matches for us virgos i think taurus and cancer are too emotional'
p814
aS'thank you none of my friends eat while drunk now i know why lol'
p815
aS'virgos are still number one though '
p816
aS'so i said scorpio is like my 4th favorite sign i take it back they are 2nd since none has ever pissed me off'
p817
aS'binge eating while drunk is considered an eating disorder called drunkorexia\xe2\x80\x9d oh'
p818
aS'thats how i root for teams when i dot care for either lol'
p819
aS'yeah they are i never feel like i can trust anyone'
p820
aS'no good ones thats for sure'
p821
aS'no lie people suck the end'
p822
aS'afraid sometimes just shitty because i have no one here really it sucks lol'
p823
aS'faking a smile will actually boost your mood\xe2\x80\x9d it helps but it also hurts'
p824
aS'it hurts right here points to heart love is dead'
p825
aS'i skipped my last doctors appointment and dont know why'
p826
aS'i could do all of the right now booooo life family friends men all suck right now'
p827
aS'can i though lyke omg'
p828
aS'have one for me  ive actually not been good physically yes but mentally exhausted depression has set in ha'
p829
aS'how have you been btw ive been out of the loop because of work '
p830
aS'sex on the beach and of you were here '
p831
aS'what is this drink of the night'
p832
aS'noooooooooo '
p833
aS'10 reasons why women everywhere should love'
p834
aS'women who are pregnant with a child who will be considered to be highly intelligent tend to experience morning sickness more ofte\xe2\x80\xa6'
p835
aS'if you ignore me at my lowest dont call me at my highest'
p836
aS'ate too much now stomach sounds like dubstep is it gross to yell wait for the sick drop if my mom is reading this\xe2\x80\xa6'
p837
aS'way too soon for me '
p838
aS'you guys are great wish i would have been able to see you guys'
p839
aS'me tooo '
p840
aS'psychology says sometimes silence is the most powerful scream and indication of something being terribly wrong'
p841
aS'oh no i hope that you are okay '
p842
aS'lots of love from over here in buffalo ny '
p843
aS'its ok and im fine are the two most common lies spoken in the world'
p844
aS'duuuuh halloween is just the day you cant judge them'
p845
aS'oh and i adore my phone case lol'
p846
aS'what about ha'
p847
aS'im going to enjoy this weekend hope you have a great one'
p848
aS'i gladly spend the money on both'
p849
aS'if you don\xe2\x80\x99t love yourself you\xe2\x80\x99ll always be chasing people who don\xe2\x80\x99t love you either'
p850
aS'still sad i didnt get to see you guys yesterday and cant make the trip tomorrow '
p851
aS'this sounds amazing '
p852
aS'haha this is very entertaining to me right now'
p853
aS'thanks '
p854
aS'thank you '
p855
aS'while angry people are more likely to have the courage to express things that they would have just kept to themselves'
p856
aS'i need a break from the thoughts that i think'
p857
aS'always too shy always too afraid always me'
p858
aS'i left it at friends because i was afraid of what was going to be lost and because i was afraid to say i wanted the person'
p859
aS'it depends are the feelings mutual what do you have to lose of it went further then friends'
p860
aS'holy crap lol'
p861
aS'i would be like oh you know it'
p862
aS'jealous'
p863
aS'i love this outfit'
p864
aS'i just hope that this weekend goes well'
p865
aS'yes'
p866
aS'me right now'
p867
aS'dang'
p868
aS'i have the same exact problem '
p869
aS'hugs me tooo'
p870
aS'im still lost ha'
p871
aS'and im stuck at work booo lol'
p872
aS'its only tuesday and i give up'
p873
aS'this is my feelings exactly although its 2am so'
p874
aS'coincidence catlady'
p875
aS'im glad its been forever lol'
p876
aS'seriously sometimes i go to different ones just so they dont recognize me too much in one week'
p877
aS'i should never talk about coffee ever again haha'
p878
aS'i eat more chipotle than my bank account likes but its worth it yum'
p879
aS'i wish i could tell you that i miss you but its too late for that'
p880
aS'awkward'
p881
aS'love it'
p882
aS'i need one that says fuck off or something'
p883
aS'im notorious for saying im fine when i really am not fine'
p884
aS'no really thats really awesome'
p885
aS'hahaha omg'
p886
aS'happy to do my part most replies are lol wtf is that and i go me  dont you like my sexy face'
p887
aS'wont someone think of all the shitty men '
p888
aS'we are '
p889
aS'or guys ya know'
p890
aS'when gus ask for a sexy pic i send this'
p891
aS'omg i dont believe it youd think with all the guys who asked for pics this month that such a thing doesnt ha'
p892
aS'thats what i heard omg'
p893
aS'eating bacon reduces stress\xe2\x80\x9d yum '
p894
aS'im sure there are like a million videos on the internet also'
p895
aS'its not like there was an invention that might help them with that '
p896
aS'but they neeeeed you to talk dirty to them to help them '
p897
aS'yeah im completely turned off by so many menguysboys lately lol no means no even through text'
p898
aS'yeah if i wanted it they would know the first time im shy but if a guy im interested in presents himself lol'
p899
aS'for real its like i cant have one guy friend who doesnt ask me for pics or sex fuck off'
p900
aS'no why i dont want to but why because i dont want to self explanatory yes'
p901
aS'i dont get why guys cant take no for an answer either or if youre at work and ignore them they whine'
p902
aS'yuck but people suck anyways'
p903
aS'although lately i deny it and the people wont fucking go away'
p904
aS'i always think that but then it happens'
p905
aS'it sounds horrible i havent had that problem yet and i dont think the odds are in my favor anymore'
p906
aS'i would honestly hate my life if that ever happened i dont care how awesome the guy is although who knows'
p907
aS'same depends though really still sucks to be her'
p908
aS'damn sucks for her unless shes one of those people who just arent really into it'
p909
aS'maybe hes good with his hands'
p910
aS'complimenting yourself each morning while looking into a mirror can improve self esteem\xe2\x80\x9d lol i just told someone this'
p911
aS'cuddling helps women feel safe confident secure and loved\xe2\x80\x9d truth'
p912
aS'you see yourselves 5 times more attractive in the mirror than you really are\xe2\x80\x9d i see ugly though so i must be really ugly '
p913
aS'boo hoo i guess you dont want to talk to me whines you sound desperate and sad'
p914
aS'guys stop trying to throw a pity party towards me i dont give a fuck'
p915
aS'ahh how have you been '
p916
aS'congrats'
p917
aS'thats awesome yay congrats'
p918
aS'so about that surgery that makes brown eyes blue'
p919
aS'good advice '
p920
aS'oh no'
p921
aS'fuck daves and ernest though'
p922
aS'but its such a cool name'
p923
aS'ancient legends claim that when a loved one or friend appears in your dreams its because that person misses you\xe2\x80\x9d if only \xf0\x9f\x98\xa2'
p924
aS'dont forget geoff'
p925
aS'things i dont want to do with guys i knew in high school well specific ones have sex'
p926
aS'relationship status pancakes'
p927
aS'debating on cleaning the dishes tonight so i can have spaghetti life'
p928
aS'carol is still my fave'
p929
aS'hes a dude at most hell laugh or make a passive aggressive status hell forget'
p930
aS'im sure he will if hes your fried also knows how you or some people behave when drunk'
p931
aS'ooo giiiirl'
p932
aS'singing when you are tensed helps you avoid depression and anxiety\xe2\x80\x9d it does help or i just cry'
p933
aS'i will totally cry with you over this'
p934
aS'swear id be a believer if you just came back'
p935
aS'this is sooo true '
p936
aS'i say this all the time'
p937
asS'2013_45'
p938
(lp939
S'my daughter just asked me if i was a cow '
p940
aS'if i had the cash i would'
p941
aS'yet i love them still'
p942
aS'i spent so much money on amp missed them twice must see them in rochester ny'
p943
aS'kk is fine k just seems cold'
p944
aS'i see is coming to rochester ny this makes up for me crashing my car on the way to virginia to see them '
p945
aS'i always want to run to the persons house an smash their phone k this'
p946
aS'i really hate when people send back the reply k it actually angers me'
p947
aS'jimmy eat world  my life'
p948
aS'virgo want both friendship and passionate romance from their lovers\xe2\x80\x9d yes '
p949
aS'pretty much wtf sprint'
p950
aS'im about 95 certain it did at least it would have for me'
p951
aS'70 of people view music as a friend because when everyone else leaves music is always there\xe2\x80\x9d \xf0\x9f\x8e\xb6\xf0\x9f\x8e\xb6\xf0\x9f\x92\xaf'
p952
aS'you guys should give nickelback a break theyre actually a super great amazing original band  chad kroger lead \xe2\x80\xa6'
p953
aS'over thinking is a special form of fear this fear becomes worse when adding anticipation memory imagination and emotion toget\xe2\x80\xa6'
p954
aS'haha thats funny and kind of cute'
p955
aS'its so good that i hope that they can'
p956
aS' my life'
p957
aS'my middle finger does it a lot too '
p958
aS'mine did that earlier '
p959
aS'i have had so many headaches this week i hate when the weather changes'
p960
aS' it has help to make me more positive and helped me figure out what i want to do in life though'
p961
aS'thanks i got super lucky because i caught it right before it spread it was attached to my lungs amp resting on my heart'
p962
aS'yep i found out sept 2012 that i had cancer had 5 months of large amounts of chemo then surgery last march'
p963
aS'i cant stop watching netflix'
p964
aS'its okay to be drunk alone amp watch hilarious shows when you find out youve been cancer free for 7 months right haha'
p965
aS'its actually hilarious great show to relax have a drink amp watch i just got a couple friends into it'
p966
aS'watching dont trust the b in apartment 23 whats going on with you lmao'
p967
aS'i hate when i meet someone cute and i have no idea what im doing'
p968
aS'dont be afraid to die cause to die would be an awfully big adventure'
p969
aS'right leave a little mystery dont be that eager to accept the request lol'
p970
aS'sounds like me '
p971
aS'round just be super cautious if you do she always should have hand sanitizer and possibly a medical mask'
p972
aS'to a theater or a restaurant is okay i did stuff like that once in a while until i got really sick that was like the 3rd'
p973
aS'i went to the casino about 2 months in shh you just have to be cautious i wouldnt recommend a casino but i think once'
p974
aS'things like grocery shopping'
p975
aS'she may be fine just be cautious i still went out from time to time for dinner and stuff they recommended that i avoid'
p976
aS'how i feel almost every day'
p977
aS'i got a small cold and i had a fever for almost a week also use salt water to rinse the smallest things arent so small'
p978
aS'yes i had to wear a mask if i went out and my white blood cells were so low i had to inject myself with something to boost'
p979
aS'the nicest people are usually the ones suffering the most and they generally know what it truly means to feel alone\xe2\x80\x9d '
p980
aS'i feel that way plus i over think at night bad mix'
p981
aS'be jealous my cats are the cutest cats ever'
p982
aS'i feel this way also'
p983
aS'you just reminded me what i needed to get my cats they are going to have a blast ha'
p984
aS'go the fuck to sleep'
p985
aS'yeah hes super funny laughter is a big part if my recovery and he has been someone who made me laugh a lot'
p986
aS'i need to see again '
p987
aS'i need to go to sleep is what i told myself 3 hours ago'
p988
aS'i love sex on the beach i can be such a girl sometimes'
p989
aS'yes amanda '
p990
aS'alcohol and aziz ansari my favorite things that start with a'
p991
aS'i love drunk texts no one ever drunk texts me  drunk tweets are number 2'
p992
aS'psychology says it becomes difficult to accept the truth when the lies told to you were exactly what you wanted to hear'
p993
aS'im not going to sugarcoat it it can be very tedious especially when they are babies'
p994
aS'yay'
p995
aS'great should always be chased'
p996
aS'i try to aim for every 30 seconds'
p997
aS'hahaha'
p998
aS'i will'
p999
aS'i love watching aziz ansaris comedy specials always makes me feel a little bit better'
p1000
aS'oh hey i think the same thing'
p1001
aS'some people are bitten less by mosquitoes than others because they have sweetsmelling sweat\xe2\x80\x9d so thats what it is'
p1002
aS'how i met your mother \xf0\x9f\x98\x8d\xf0\x9f\x98\x8d\xf0\x9f\x98\x8d i am forever a ted mosby'
p1003
aS'they make me so happy'
p1004
aS'night time anxiety please go away i am so tired and i want to sleep'
p1005
aS'people suck and are selfish where does someone like me fit in'
p1006
aS'life is exhausting'
p1007
aS'yep its pretty true'
p1008
aS'thanks'
p1009
aS'never trust anyone'
p1010
aS'jealous im always working through these things lol'
p1011
aS' noooo'
p1012
aS'wide awake oh no '
p1013
aS'i love it so much that i cant fit it into just 140 characters oops'
p1014
aS'i dont see whats wrong with this im 25 and would love to do this right now'
p1015
aS'sounds like a good idea do i make up a person and a list or do i harass some poor innocent person ha'
p1016
aS'this is killing me now i wish i had a worthy ex to do this to \xf0\x9f\x98\xad'
p1017
aS'i have a kid and two needy cats hahah'
p1018
aS'i feel like it is hes not just a random guy with a ponytail lol'
p1019
aS'i think my dad is an exception to this since his only reason is hes growing out his hair to donate it because of me '
p1020
aS'expresso'
p1021
aS'im never impressed'
p1022
aS'my dads explanation of sex was to not date until i was 30 i rebelled and dated at 18 i showed him'
p1023
aS'fuck cancer and everything its done in my life'
p1024
aS'im sure its a little bit of both the latter will also come with a sigh of relief'
p1025
aS'bad boys are the worst'
p1026
aS'loneliness causes people to take longer bathsshowers sleep longer and over think more\xe2\x80\x9d also true'
p1027
aS' im tired  is often used by an individual to hide the fact that theyre either sad and or depressed\xe2\x80\x9d its true'
p1028
aS'what a pretty pic'
p1029
aS'sometimes the feeling after going through cancer have been worse then when i went through it '
p1030
aS'virgo prefer to release their stress through rough sex\xe2\x80\x9d lmao'
p1031
aS'thanks'
p1032
aS'thanks'
p1033
aS'people who have a better understanding and perception of how the world really is are more likely to suffer from depression'
p1034
aS'this is me after 6 months of recovery from cancer with no wig fuckcancer'
p1035
aS'my hair is growing back in'
p1036
aS'the worst pain is when you smile just to keep the tears from falling and sleep just so you don\xe2\x80\x99t have to think about it'
p1037
aS'that would be me i talk about all the time lol such a good band'
p1038
aS'why cant you do a contest when im home and not at work ha at being locked in a room with no phone'
p1039
aS'virgos are an intelligent zodiac sign'
p1040
aS'i dont duck face hahah'
p1041
aS'hahaha omg you duck face sooo much'
p1042
aS'im really shy but still kind of fierce hahaha'
p1043
aS'yes im not a part of this unfollow away hahaha jk'
p1044
aS'jealous right now i need to save up money and vacation hours lol'
p1045
aS'hehehe'
p1046
aS'\xf0\x9f\x98\x8d'
p1047
aS'weeeee loooovvveeee yoooouuu todd lol p'
p1048
asS'2013_48'
p1049
(lp1050
S'one week down i feel like im going crazy'
p1051
aS'i appreciate you'
p1052
aS'looks like there is some really cool stuff there'
p1053
aS'i miss cuddling'
p1054
aS'do you ever think ur special to someone but then you see this person acting the same with everyone else and you just kind\xe2\x80\xa6'
p1055
aS'watching someone go through chaos and not knowing what to say is a horrible feeling'
p1056
aS'yeah your snapchats are the best'
p1057
aS'i loved this episode'
p1058
aS'yum hahah'
p1059
aS'that is pretty awesome i want one'
p1060
aS'when a woman is used to getting hurt she wont know how it feels for a man to genuinely like her so she ends up pushi\xe2\x80\xa6'
p1061
aS'except men can cause a shit ton of drama too'
p1062
aS'intelligent women have a lower tolerance for drama which is why they seek out friendships with more men than other women'
p1063
aS'if i had a nickel for every time a guy said weird crap id probably be rich'
p1064
aS'my thoughts exactly'
p1065
aS'twitterlove'
p1066
aS'guys are forever difficult all the time'
p1067
aS'i dont think i ate enough \xf0\x9f\x98\xa2'
p1068
aS'if you\xe2\x80\x99re able to instantly respond with sarcasm it is a sign of a healthy brain'
p1069
aS'i have been sober almost a week and you and are playing an even bigger role in my life so thanks'
p1070
aS'good choice plus if you like tech stuff its way better and physically safer'
p1071
aS'yay happy bday'
p1072
aS'i really hope that the pain goes away'
p1073
aS'i hope to meet you one day also '
p1074
aS'happy thanksgiving '
p1075
aS'right '
p1076
aS'that oddly looks like my family'
p1077
aS'people change  hide their ugly sides well sometimes it sucks'
p1078
aS'so has officially made me glad i downloaded snapchat lmao'
p1079
aS'its a full hoodie'
p1080
aS'you should delete the other tweet and just leave this one'
p1081
aS'the video snapchat from was amazing i hope theres more'
p1082
aS'i dont at all'
p1083
aS'id really like one day where i dont hear people complain thanks complaingaboutcomplaining'
p1084
aS'just toronto  but seriously they need to come here'
p1085
aS'we are lucky to know you guys thanks for many great years d'
p1086
aS'yep i heard buffalo taste good but i swear the city is in canada and who wants to go there p'
p1087
aS'pft who likes buffalo anyways isnt that like canada or something'
p1088
aS'great list to be thankful for'
p1089
aS'true love means never having to explain your how i met your mother jokes'
p1090
ag47
aS'clarinet and piano switched to singing though'
p1091
aS'trying to sell you the thankfuls and turkey'
p1092
aS'thank you and oh no mono is scary '
p1093
aS'i stopped drinking with the help of a support group and ive been sober since saturday iffy right now you '
p1094
aS'being sober i bought 4 plates of food last night i still woke up with more money than i would have just drinking'
p1095
aS'its been a while happy thanksgiving'
p1096
aS'so much love'
p1097
aS'remember how every time i hit a low keep your head up by comes on wherever i am'
p1098
aS'this is intriguing'
p1099
aS'of course you know you can talk to me anytime '
p1100
aS'snapchat is scary'
p1101
aS'the nicest people tend to often be the ones who have been mistreated the most'
p1102
aS'well i know ill make it one week sober because someone made charges on my card and i had to cancel it i only have gas money'
p1103
aS'i havent heard about him in a while i was pretty happy about that'
p1104
aS'no never'
p1105
aS'im so pissed idc if i should expect it'
p1106
aS'he still exists'
p1107
aS'i just got sober and now all i do is eat pizza and i used to eat it a lot before'
p1108
aS'so does julie  haha'
p1109
aS'now that im sober all i do is eat i was hoping to get  stay toned lol'
p1110
aS'lets do it '
p1111
aS'fine i wont then '
p1112
aS'ill send you one lol'
p1113
aS'i like them but when i buy them myself ha'
p1114
aS'thanks'
p1115
aS'the best feeling comes when you realize that youre perfectly happy without the people you thought you needed most'
p1116
aS'aw sorry to hear that'
p1117
aS'thats true never thought of it like that'
p1118
aS'i did not  i havent gone to a lot of concerts especially in buffalo lately  being down sucks'
p1119
aS'i can be kinda im a sarcastic smart ass'
p1120
aS'well thanks i can only hope im not sucky lol'
p1121
aS'sobriety is hard when you walk through a grocery store the joys of living in a drunk city'
p1122
aS'i could actually just be a sucky person though lol'
p1123
aS'i said that a couple times'
p1124
ag47
aS'that awkward moment when you make a how i met your mother reference that nobody understands'
p1125
aS'hmmm maybe'
p1126
aS'i will forever say yall idc if i live in buffalo'
p1127
aS'thanks i appreciate it'
p1128
aS'how am i so confident and so insecure'
p1129
aS'i think it is at least somewhat considered that because it involves taking off clothes but idk fully'
p1130
aS'i say yall all the time '
p1131
aS'aw thanks those are pretty cool'
p1132
aS'haha its okay'
p1133
aS'for 200000 would you never again consume an alcoholic beverage\xe2\x80\x9d yes'
p1134
aS'its been a rough year cancer for me lead to divorce and a drinking problem lack of support '
p1135
aS'yep ive had so many problems'
p1136
aS'dell is horrible in every aspect'
p1137
aS'psychology says the desire too sleep a lot may reveal feelings of loneliness\xe2\x80\x9d i believe it'
p1138
aS'ahh twerking'
p1139
aS'show her the video first'
p1140
aS'cool hash tag'
p1141
ag47
aS'some people make it hard to stay sober but im doing it'
p1142
aS'or things even'
p1143
aS'i can think if a million thugs'
p1144
aS'ugh moes is gross compared to chipotle and qdoba im sorry but im not sorry'
p1145
aS'im trying really hard but its a struggle sometimes'
p1146
aS'how does one do things sober'
p1147
aS'macklemore is amazing all the time and an inspiration to me'
p1148
ag47
asS'2013_49'
p1149
(lp1150
S'i have no neutral just like or dislike lol'
p1151
aS'guys always make me nervous if i like them or whatever'
p1152
aS'i wish i had that courage lol'
p1153
aS'that feeling you get when you hug someone and you just dont wanna let go'
p1154
aS'oh snap'
p1155
aS'quit what i quit life'
p1156
aS'sad eating is my favorite thing lately'
p1157
aS'i cant catch a break ever'
p1158
aS'every 1 in 3 men cannot see their penis while standing\xe2\x80\x9d sorry to hear that'
p1159
aS'lol why tho that shit is easy to get for free'
p1160
aS'i feel liberated tonight'
p1161
aS'quickies gtgtgt morning sex gtgtgtgt i miss you sex gtgtgtgtgtgt make up sex gtgtgtgtgtgtgtgtgtgtgtgt \xf0\x9f\x99\x8a\xf0\x9f\x99\x89\xf0\x9f\x99\x88'
p1162
aS'generally speaking what seems like the right thing to do could also be the hardest thing you have ever done in your life'
p1163
aS'what'
p1164
aS'why do people care that i dont celebrate christmas i dont exactly have any reason to why are you so angry '
p1165
aS'insanity'
p1166
aS'cuddling would be perfect right now \xf0\x9f\x91\x8c'
p1167
aS'never give up on something you really want'
p1168
aS'just dont lie to me ever'
p1169
aS'your mind is currently tired of wishing hoping and waiting for something that most likely will never happen'
p1170
aS'i wish i didnt know sometimes'
p1171
aS'do feelings ever go away'
p1172
aS'yeah buffalo people are cool '
p1173
aS'same here except guy instead of girl'
p1174
aS'text me haha'
p1175
aS'60 of people have an unlimited text message plan with no one to text on a regular basis\xe2\x80\x9d me hahaha'
p1176
aS'people who dont understand what im going through right now really piss me off dont try and make me feel guilty about this'
p1177
aS'virgos have a tremendous but hidden sex drive'
p1178
aS'now i just want to spend my night listening to'
p1179
aS'i started listening to because of and i dont hate it'
p1180
aS'me too'
p1181
ag47
ag47
aS'not yet lol i never get systems first gen '
p1182
aS'kind of'
p1183
aS'the best relationship is when you can act like lovers and best friends at the same time'
p1184
aS'i just want a coffee just plain black coffee'
p1185
aS'cute'
p1186
aS'i could use a big coffee right now'
p1187
aS'i had this problem not that long ago but i cant laugh for a second ever'
p1188
aS'also only wanting to hang with your friend when they drink and when they are in aa never talk to them again lol'
p1189
aS'this is day two of week two without a drink holy crap'
p1190
aS'virgos are always horny amp love to have sex\xe2\x80\x9d \xf0\x9f\x99\x88\xf0\x9f\x99\x89\xf0\x9f\x99\x8a\xf0\x9f\x98\x82'
p1191
aS'well love me or hate me at least im honest'
p1192
aS'thanks its probably going to happen a lot im really moody right now'
p1193
aS'i agree i just cant wait until im passed the first couple months itll still be hard but holy crap my emotions right now'
p1194
aS'i will whatever keeps me sober and alive maybe end up diabetic haha'
p1195
aS'im sober eating so i feel you lots of sweets too'
p1196
aS'ive had a lot of fun this week the meetings are great the people are great but i feel a hurricane inside'
p1197
aS'your shoes are the first thing people subconsciously notice about you\xe2\x80\x9d i believe it my shoes and eyes get complimented right away'
p1198
aS'i love that my daughter walked up to me hugged me and said im so glad youre here mommy i wish i saw her more '
p1199
aS'nasal sprays suck thanks being sick for like 2 months'
p1200
asS'2014_36'
p1201
(lp1202
S'when dating a virgo it is best to always be honest unless you dont mind having an enemy for life we hold grudges'
p1203
aS'im only glad because i work 12 to late at night so this is okay saturday would have been nice though'
p1204
aS'i always seem to date broken guys'
p1205
aS' i just got this email'
p1206
aS'so should i go see and in december '
p1207
asS'2014_37'
p1208
(lp1209
S'im hoping to at least go to the buffalo date'
p1210
aS'though good or bad virgo will always be true'
p1211
aS'virgos are the most trustworthy and loyal sign of the zodiac'
p1212
asS'2014_34'
p1213
(lp1214
S'having fun celebrating my birthday with my bf and my daughter '
p1215
aS'thanks'
p1216
aS'thank you'
p1217
aS'if he cares hell catch up '
p1218
asS'2014_35'
p1219
(lp1220
S'a good relationship is with someone who knows all your insecurities and imperfections but still loves you for who you ar\xe2\x80\xa6'
p1221
aS'never get too attached to anyone unless they also feel the same towards you because one sided expectations can mentally destroy \xe2\x80\xa6'
p1222
aS'being single makes me feel sad but is the best choice'
p1223
asS'2014_33'
p1224
(lp1225
S'i have the worst headache right now and cant sleep'
p1226
asS'2014_31'
p1227
(lp1228
S'scott is so smooth'
p1229
asS'2014_18'
p1230
(lp1231
S'take care of the people you love but take even better care of the people that love you'
p1232
aS'ahhaha'
p1233
aS'me why am i so lonely person hey me leave me alone'
p1234
aS'i cant wait to play my new songs for you on tour 200 rt im giving away 10 signed handwritten ly\xe2\x80\xa6'
p1235
aS'all you need is love and star wars'
p1236
aS'i love pop psychology it just might be my favorite cd that came out this year'
p1237
asS'2014_19'
p1238
(lp1239
S'dating an awkward person is less stressful you laugh more and have more fun which improves quality of life and overall health'
p1240
aS'which one  ha just kidding '
p1241
aS'that awkward moment when you realize you cant celebrate mothers day because your mom was killed by sandpeople'
p1242
aS'when someone loses a virgos trust it\xc2\x92s hard to get it back'
p1243
aS'love it '
p1244
aS'im a lucky girl'
p1245
aS'awe when he randomly says this i melt'
p1246
aS'ugh'
p1247
aS'i love you means'
p1248
aS'my boyfriend is so cute why does he have to be asleep right now i miss him'
p1249
aS'you havent lived yet if you havent been cheated on'
p1250
aS'i had the same problem i feel like its missing a lot'
p1251
aS'yes'
p1252
aS'my baby makes me really happy he even surprised me with dark chocolate sponge candy '
p1253
aS'isnt the key to a healthy relationship being able to actually communicate'
p1254
aS'sometimes i care too much and i wish i didnt'
p1255
aS'everything hurts right now'
p1256
aS'saying i love you is so easy and so hard'
p1257
asS'2014_14'
p1258
(lp1259
S'thats pretty awesome'
p1260
aS'when older guys come on to me or give me random compliments i feel incredibly awkward'
p1261
aS'of course anytime '
p1262
aS'have you ever just really wanted to kiss someone but you cant'
p1263
aS'nope'
p1264
aS'oh no now im nervous about seeing it with my friends'
p1265
aS'captain america in the morning'
p1266
aS'i think so id like to go more than once'
p1267
aS'i was thinking the same thing'
p1268
aS'i bought it twice once to help you '
p1269
aS'me too want to do mine for me'
p1270
aS'yes '
p1271
aS'let me zapdos pants off you\xe2\x80\x9d lol'
p1272
aS'its a nice picture though'
p1273
aS'ass make me finna go steady with her'
p1274
aS'in my car waiting for work watching it rain and listening to and it feels nice but the rain is cold'
p1275
aS'me im excited'
p1276
aS'cute \xe2\x98\xba\xe2\x98\xba\xe2\x98\xba'
p1277
aS'yet when im actually watching it always feels like im being asked if i would like to continue'
p1278
aS'i bet my friend said it was too i need sunday to be here now'
p1279
aS'i did that all the time fake extra confidence and smile but not too much because youll look crazy'
p1280
aS'im so excited to see captain america this weekend i keep hearing amazing things'
p1281
aS'i just got out  i wanted to go there is still pizza because this is buffalo'
p1282
aS'i am officially free to bring pizza lol'
p1283
aS'captain america the winter soldier starring those pecs and dat ass'
p1284
aS'thats what im saying'
p1285
aS'dont send me snapchats of your junk i want to see your comics'
p1286
aS'stuck at work until 1100 or i would have'
p1287
aS'let me bring you guys a pizza lol'
p1288
aS'its still cold in buffalo maybe thats just me'
p1289
aS'i wonder if i will ever meet the perfect guy or have met the perfect guy and one of us over looks the other tragic'
p1290
aS'why captain america is the most tragic avenger'
p1291
aS'so many girls fall in love with the wrong guy simply because the wrong guy usually says all the right things'
p1292
aS'that sounds nice'
p1293
aS'excitement but worst day to post it i spent 20 minutes figuring out if it were true'
p1294
aS'one person did on mine and i was just like k'
p1295
aS'you can rewire your brain to be happy by simply recalling 3 things youre grateful for every day for 21 days'
p1296
aS'you are 40 more likely to get divorced if your commute to work is more than 45 minutes'
p1297
aS'youre welcome its been a year now and i still love your voice '
p1298
aS'women are twice as likely to suffer from insomnia than men this is mostly due to the hormonal changes that women often experienc\xe2\x80\xa6'
p1299
aS'im going to fall asleep listening to when i get out of work '
p1300
aS'in a really weird mood'
p1301
aS'the first thing i do on a date is not go on one'
p1302
aS'also you need to come back to buffalo because your super fan needs to see you again'
p1303
aS'aw andy i love and miss you this makes me lol'
p1304
aS'i can only imagine  '
p1305
aS'i talked about super heroes all day its okay we all have our quirks'
p1306
aS'maybe then you can tweet him about your dreams  never mind'
p1307
aS'lol you should learn how to sleep tweet him'
p1308
aS'me too i cant even see it when it opens i have to wait \xf0\x9f\x98\xa2\xf0\x9f\x98\xa2'
p1309
aS'hahaha thats advice from an insomniac \xf0\x9f\x98\x89\xf0\x9f\x98\x89\xf0\x9f\x98\x89'
p1310
aS'captain america captain america captain america captain america captain america captain america captain america captain america'
p1311
aS'go the fuck to sleep \xf0\x9f\x98\x9c'
p1312
asS'2014_15'
p1313
(lp1314
S'best friends can see the difference between your fake smile and the real one'
p1315
aS'a nice day to have the windows down and blast'
p1316
aS'thats the real way to do it'
p1317
aS'your body is a wonderland and id like to be alice'
p1318
aS'not having enough sex can put you at risk of anxiety paranoia and depression'
p1319
aS'i suck at keeping in contact with people even if i like them'
p1320
aS'yes '
p1321
aS'in the mood to cuddle for 2 days straight'
p1322
aS'i found a third wheel table'
p1323
aS'i hate allergies \xf0\x9f\x98\xa2 my head has been hurting on and off for 4 days straight'
p1324
aS'i want a hot body but i also want hot wings'
p1325
aS'women who frequently over think tend to be more generous and affectionate to their significant other and close friends'
p1326
aS'forever spilling food on myself'
p1327
aS'cant have beauty without pain lol'
p1328
aS'anchorman'
p1329
aS'restraining yourself from making inappropriate jokes in a new friendship because you don\xe2\x80\x99t know if they\xe2\x80\x99ll laugh or start \xe2\x80\xa6'
p1330
aS'rude i already wore dresses all winter now its time for the tanks and shorts lol'
p1331
aS'same im exhausted'
p1332
aS'new songs are always good unless they are bad but i doubt that'
p1333
aS'im going to go take a pic of mcdonalds brb'
p1334
aS'stephen colbert is officially replacing david letterman as the new \xe2\x80\x9clate show\xe2\x80\x9d host'
p1335
aS'good sex is 10 times more effective than sleeping pills engaging in sexual intercourse before bed reduces insomnia risk'
p1336
aS'someone help me find this dress or one similar i need it in my life'
p1337
aS'its amazing honestly'
p1338
aS'im just tired'
p1339
aS'the moment you feel like giving up remember all the reasons you held on for so long'
p1340
aS'since you favorited them i realize i tweeted you both yes and no within minutes haha'
p1341
aS'no'
p1342
aS'yes'
p1343
aS'thank you '
p1344
aS'thanks i beat it this time around ive been cancer free for nearly a year im ready if it happens again '
p1345
aS'thanks yeah no problem'
p1346
aS'looks like is playing 3 hours away this summer should i go '
p1347
aS'so  backhome is an amazing song everyone needs to download it and listen'
p1348
aS'a year amp a half ago i met it was a week before i got diagnosed with cancer it was a great weekend'
p1349
aS'it was nice knowing you enjoy'
p1350
aS'thats really scary'
p1351
aS'do you ever just want to pack up and leave out of the blue without saying anything to anyone like just leave and start \xe2\x80\xa6'
p1352
aS'yeah its going to end with you watching the whole season within 2 days then coming on twitter and saying dammit julie'
p1353
aS'it is going to end well very very well'
p1354
aS'i wont because its that good of a show tv is a legit reason to not have a social life especially arrow'
p1355
aS'im up at 3am watching it haha yeah its really good'
p1356
aS'never get too attached to anyone unless they also feel the same towards you because one sided expectations can mentally destroy \xe2\x80\xa6'
p1357
aS'i wish it were video games but in my case its arrow right now'
p1358
aS'sleep is for the weak'
p1359
aS'im 999 sure im the ugly friend'
p1360
aS'lol i will yell at you for sure lmfao'
p1361
aS'ha that never works for me i always say ill talk to people then i dont good luck lol'
p1362
aS'back to step one because conversing is too hard lol'
p1363
aS'and thats why i dont watch horror movies anymore thats a bad night waiting to happen'
p1364
aS'hahaha sorry to laugh at that'
p1365
aS'most nights i am okay with being alone for some reason not tonight'
p1366
aS'whats that lol'
p1367
aS'me too'
p1368
aS'lol thats pretty funny'
p1369
aS'haha naa i shouldnt be venting on the internet i should probably write this in a journal or something'
p1370
aS'haha now youre making me feel bad'
p1371
aS'im barely good at that hahaha '
p1372
aS'yeah its great not really having no real social skills is amazing '
p1373
aS'its more of a aha haha holy shit i have no friends and im laughing alone foreveralone kind of moment'
p1374
aS'a funny thing happens when you push someone away over and over they leave'
p1375
aS'that was my life once now i just laugh alone'
p1376
aS'i love korean food '
p1377
aS'when you start catching feelings'
p1378
aS'i bet you didnt notice these easter eggs hidden in captain america 2 check them out here htt\xe2\x80\xa6'
p1379
aS'i have to make these '
p1380
aS'even though im 25 and i feel old i will say 25 is a super going age to die'
p1381
aS'this sounds amazing'
p1382
aS'one pillow for under the head and one pillow for hugging that\xe2\x80\x99s how it goes'
p1383
aS'do you ever just wake up and go nope and roll over and go back to sleep'
p1384
aS'women who bottle up their emotions are considered more likely to develop the habit of chronic over thinking and depression'
p1385
aS'im hoping for this this '
p1386
aS'why is saying i like you so hard'
p1387
aS'yes could always use more music'
p1388
aS'i love her \xf0\x9f\x98\x8d'
p1389
aS'its been fun spreading it around for the hell of it lol love'
p1390
aS'captain america was amazing and definitely one of my top newer movies marvel  \xf0\x9f\x98\x8d\xf0\x9f\x98\x8d\xf0\x9f\x98\x8d'
p1391
aS'hahaha this pic is too cute'
p1392
aS'game of thrones is one of the best tv shows out there ever'
p1393
aS'sushi is amazing'
p1394
asS'2014_16'
p1395
(lp1396
S'all hell breaks loose when a virgo is mad run'
p1397
aS'i so wish i was going to this tour'
p1398
aS'generally people are more likely to assume youre being rude when youre actually being honest'
p1399
aS'i missed reading the news you post'
p1400
aS'dayuuuum'
p1401
aS'uh i would pass'
p1402
aS'keep it long'
p1403
aS'you wish your selfie game was as strong as spiderman'
p1404
aS'thats what im saying '
p1405
aS'i would probably get emotional too \xf0\x9f\x98\x8a'
p1406
aS'its funny because i think they were from florida hahaha'
p1407
aS'listen to the new song from then buy it   \xe2\x99\xab back home \xe2\x80\x93 andy grammer nowplaying'
p1408
aS'thank you so much for everything \xf0\x9f\x98\x8a\xf0\x9f\x98\x8a\xf0\x9f\x98\x8a'
p1409
aS'thanks for the reminder i need to check it out still'
p1410
aS'since i cant sleep maybe i should listen to because that will maybe help i still love them goradio'
p1411
aS'another sleepless night'
p1412
aS'when you realize youre attached to someone'
p1413
aS'purple is badass though'
p1414
aS'if we date if you need me call me i dont care if im  sleeping  having my own problems  angry with you il\xe2\x80\xa6'
p1415
aS'its my entire life everyday  i dont understand it'
p1416
aS'man i hate clothes shopping but lol at the way you phrased it'
p1417
aS'but it adds character'
p1418
aS'thats one way to cure boredom'
p1419
aS'they are painful and i dont even know how to deal or talk to them or life'
p1420
aS'crushes man'
p1421
aS'how many females can rt that they never wore these before \xf0\x9f\x92\x81'
p1422
asS'2014_17'
p1423
(lp1424
S'nowadays i love you seems easier to say than i like you'
p1425
aS'together but not together'
p1426
aS'going to see my favorite dude on lunch today the only short break in my busy day'
p1427
aS'i want to meet someone who is afraid to lose me'
p1428
aS'if only i wasnt going to work right now '
p1429
asS'2014_10'
p1430
(lp1431
S'this sounds like a great idea to me'
p1432
aS'it makes my inability to sleep look worse'
p1433
aS'i like to think im raising my daughter right'
p1434
aS'time change now i really cant sleep'
p1435
aS'holy shit lol'
p1436
aS'i laughed because i am physically 25 but mentally 15'
p1437
aS'that super sweet'
p1438
aS'looks badass'
p1439
aS'yeah if you get more than you pay for with alcohol you should probably tip better because its super expensive lol'
p1440
aS'what a perfect mix i love mkto shakira and pharrell'
p1441
aS'i guess if you cant figure out how to drink it all but i cant imagine they have that much'
p1442
aS'two of my favorite men \xf0\x9f\x98\x8d\xf0\x9f\x98\x8d\xf0\x9f\x98\x8d'
p1443
aS'im trying to relate it to others things and yeah id never be like this sub is too big id just enjoy it lmao'
p1444
aS'sacrifice people or soak in nice smells'
p1445
aS'i dont drink anymore but lol'
p1446
aS'im going to be an assassin due to my love of assassins creed or maybe ill hunt dragons'
p1447
aS'you sound like you know how to have a good time'
p1448
aS'jealous i dont have a shoe collection i have a converse collection p'
p1449
aS'thanks \xf0\x9f\x98\x8a\xf0\x9f\x98\x8a'
p1450
aS'as violent of video games i play you would think id be a hardened criminal by now'
p1451
aS'about to hit one year cancer free \xf0\x9f\x98\xb3'
p1452
aS'cold weather everywhere just needs to stop'
p1453
aS'kissing someone is more sanitary than shaking hands with them'
p1454
aS'i need to go back to the city i love it there especially the style'
p1455
aS'awesome shit ha'
p1456
aS'it happens when i go commando'
p1457
aS'yeah this shot is pretty cool'
p1458
aS'nothing is true everything is permitted'
p1459
aS'are woman held to unrealistic standards i telepathically asked my wife but for some reason she hasnt answered'
p1460
aS'stop worrying about someone that isnt worried about you never leave your key of happiness in someone elses pocket'
p1461
aS'life tbh '
p1462
aS'lol shaggy didnt think of read that anytime soon'
p1463
aS'youre right life is totally boring because i dont drink whatever will i do now that im not blacked out and puking'
p1464
aS'dating a virgo talk things over virgos enjoy analysis and mental exploration'
p1465
aS'if you are lucky enough to gain the affections of a virgo trust that they will be loyal and loving'
p1466
aS'a virgo does not give love freely you must be intelligent ambitious and kind'
p1467
aS'never the choice forever the option'
p1468
aS'i just did it earlier oops glad im not alone'
p1469
aS'amazing'
p1470
aS'if you feel like you know everything then youve just limited yourself '
p1471
aS'i did it no shame \xf0\x9f\x98\x8a'
p1472
aS'im no weather man but you can expect more than a few inches tonight'
p1473
aS'love that show so much no one around me understands'
p1474
aS'never leave the house thats what i did lol'
p1475
aS'feel your boobies but dont do it so much you pass out at a light guy i still need to drive home'
p1476
aS'people with awkward personalities tend to be more faithful when in a relationship'
p1477
aS'so i love for the song happy and his hats among other things he always puts me in a good mood'
p1478
aS'well if any guy can do it'
p1479
aS'i think zac efron just caught a glimpse of his own reflection in the teleprompter and almost left himself speechless oscars'
p1480
aS'i dont think i saw that one'
p1481
aS'lmfao'
p1482
aS'ugh he has good moves but he isnt attractive to me'
p1483
asS'2014_11'
p1484
(lp1485
S'i would strongly suggest it p'
p1486
aS'that kid looks like they are trying to figure out what is going on'
p1487
aS'me too'
p1488
aS'sleep is overrated insomniac'
p1489
aS'yeah i made my completely private i saved it to remind myself how i was then though hope its never hacked haha'
p1490
aS'drunk girls always think their friends with everyone'
p1491
aS'i know your ass aint sleeping hahaha'
p1492
aS'mint chocolate doesnt even sound clean i feel like the freshness would fade quickly'
p1493
aS'we are more likely to fall in love with someone who actually makes us feel better about ourselves\xe2\x80\x9d really you dont say'
p1494
aS'lmfao ah old livejournal entries the angst was strong and embarrassing'
p1495
aS'i mustache you for some cupcakes shirt i bought for my daughter'
p1496
aS'had a big and powerful experience tonight \xe2\x98\xba'
p1497
aS'you are awesome \xe2\x98\xba\xe2\x98\xba\xe2\x98\xba'
p1498
aS'obviously i wish someone would think of a cool nickname for me its usually just jewels'
p1499
aS'im like a kid i always nap on trips'
p1500
aS'its easy though and i had a few people remember me after 7 years that only met me once lmfao'
p1501
aS'you always look so happy i love and admire it'
p1502
aS'i thought that said virgin'
p1503
aS'hahaha drinking donuts sounds delicious'
p1504
aS'studies show that it is harder to tell a convincing lie to someone you find sexually attractive'
p1505
aS'i dont know if you do you should add honey it is a natural sweetener and good for colds'
p1506
aS'its good to see that you still make music'
p1507
aS'sounds like a great idea right '
p1508
aS'today is my cancerversary because 1 year ago today after months of chemo i had my surgery to remove it \xf0\x9f\x98\x8a'
p1509
aS'well if he comes to buffalo ill bring him a pizza bribery'
p1510
aS'starbucks has this iced tea  lemonade mix that i love the green tea they use is minty'
p1511
aS'casiddee lol people ask me how to spell my name all the time and im done'
p1512
aS'butting in but iced green tea is delicious super tea fan ha'
p1513
aS'then he should totally come to buffalo ny too we have the best pizza and wings  lol'
p1514
aS'sounds legit'
p1515
aS'it must suck to be them lol'
p1516
aS'your mom mentioned it being your birthday a while ago so happy birthday '
p1517
aS'there are men who are allergic to their own orgasms'
p1518
ag47
aS'nah im at home playing plants vs zombies garden warfare after a long day of work i think thats pretty right'
p1519
aS'looks more like an oval'
p1520
aS'dont search for a guy that will solve all of your problems because he wont find the one that wont let you face them al\xe2\x80\xa6'
p1521
aS'it does \xf0\x9f\x91\x8d'
p1522
aS'just sitting in my car before work and listening to and it is just magical hes something else \xf0\x9f\x98\x8d'
p1523
aS'im always so tired'
p1524
aS'surprises \xf0\x9f\x91\x8d\xf0\x9f\x91\x8d\xf0\x9f\x91\x8d'
p1525
aS'this will never not be funny'
p1526
aS'you need to learn how to share lol jk'
p1527
aS'dont chase people be you do your own thing and work hard the right people who belong in your life will come to you\xe2\x80\xa6'
p1528
aS'well i have some stuff to buy in the future'
p1529
aS'aww those are really sweet'
p1530
aS'you guys should come to buffalo ny \xf0\x9f\x98\x84'
p1531
aS'anticipating sex makes your hair grow faster\xe2\x80\x9d lmfao its not that either though'
p1532
aS'life man'
p1533
aS'im glad thats there because you never really know'
p1534
aS'teenagers who spend much of their time listening to music are 83 times more likely to be depressed\xe2\x80\x9d that was me'
p1535
aS'how could someone not love them '
p1536
aS'do you ever just meet one person and at first it is awkward then you start talking and its like holy shit where have y\xe2\x80\xa6'
p1537
aS'that might be an otter disaster no just me'
p1538
aS'i missed this earlier and was confused about why you sent a  haha'
p1539
aS'congrats i support you in every way possible'
p1540
aS'ha thats pretty cool'
p1541
aS'i just had to rt it '
p1542
aS'guys thanks for all your amazing energy amp sharing my 1st vid nintendo watch share amp rtgt'
p1543
aS'im not single im not taken im simply on reserve for the one who deserves my heart'
p1544
aS'dont let this kind of thinking sink in  you are wonderful'
p1545
aS'yeah its pretty bittersweet ive grown a lot being single and enjoy it but still sometimes i dislike being single'
p1546
aS'sometimes cats are just really weird'
p1547
aS'aw thats really sweet'
p1548
aS'i think it would scare the crap out of people i wonder what makes my hair grow quickly already'
p1549
aS'my hair grows quickly i wonder how fast it would grow if i ate salmon'
p1550
aS'keep smiling '
p1551
aS'i like your description haha'
p1552
aS'haha this is killing me'
p1553
aS'snow day from work spent it sleeping \xf0\x9f\x98\xa2'
p1554
aS'and i thought today was going to suck \xf0\x9f\x98\x8a'
p1555
aS'those are words i need to remember thanks \xe2\x9d\xa4'
p1556
aS'no problem you are even more awesome \xf0\x9f\x98\x84'
p1557
aS'thats badass'
p1558
aS'love the video'
p1559
aS'this is absolutely wonderful it makes me happy'
p1560
aS'i didnt see it coming'
p1561
aS'happy birthday'
p1562
aS'my favorite shirt'
p1563
aS'7 years jk but i think it depends'
p1564
aS'autocorrect is weird some of them dont even make sense'
p1565
aS'oral sex was illegal in canada until 1969\xe2\x80\x9d ha'
p1566
aS'one of the great things about virgo is their dependability and how far theyll go when they love you'
p1567
aS'i dont know what sleep is'
p1568
aS'i always like things that prevent me from sleeping'
p1569
aS'i cant wait to eat this corned beef and cabbage and im like halfway through season 4 of archer already \xf0\x9f\x98\xb1'
p1570
aS'i could only imagine ha'
p1571
aS'making corned beef and cabbage at 1 in the morning no biggie'
p1572
aS'that is obnoxious i never did that with my daughter lol'
p1573
aS'you are my hero for this chipotle is the shit'
p1574
aS'i just saw 3 rat tails in a row last week it was glorious'
p1575
aS'whats a month birthday i mean i know koreans celebrate 100 day birthday but thats for a different reason'
p1576
aS'archer \xe2\x9d\xa4'
p1577
aS'sometimes i miss certain things but overall i dont mind being single but i do hope theres more sometimes'
p1578
aS'i am so glad i gave up on dating sites months ago i think im meant to be alone'
p1579
aS'what is life'
p1580
aS'and if youre that needy off the bat ew'
p1581
aS'i know thats how things work i dont have to reply thats the beauty of life no requirement'
p1582
aS'\xe2\x9d\x92 single \xe2\x9d\x92 taken \xe2\x9c\x94 doesnt matter i\xe2\x80\x99m awesome'
p1583
aS'i just cant handle the amount of creepiness and desperation that happens all the dudes that think i need to talk to them'
p1584
aS'it got too ridiculous i deleted my account maybe im just meant to be single lol'
p1585
aS'i may or may not miss you'
p1586
aS'yeeesss'
p1587
aS'women are more attracted to men who pay attention someone who remembers details about them without having to be reminded'
p1588
aS'quote like this are why i love pharrell'
p1589
aS'ugh i cant even handle this cold right now i feel so icky'
p1590
aS'what can i say just love me'
p1591
aS'this time change really has me messed up im tired but not'
p1592
aS'kind of jealous right now'
p1593
aS'i dont know if i can disagree'
p1594
aS'im not sure i could feel much better than i do right now things are missing but slowly falling into place'
p1595
aS'that hacking was pretty intense'
p1596
aS'alright ill let you slide this time \xf0\x9f\x98\x9c'
p1597
aS'i think the world knows \xf0\x9f\x98\x89\xf0\x9f\x98\x98'
p1598
asS'2014_12'
p1599
(lp1600
S'one day it will all just fall into place'
p1601
aS'do like i do and just make friends with random people haha dont do that'
p1602
aS'your life is fucked'
p1603
aS'maybe you need to talk to friends'
p1604
aS'happy birthday  i hope its a good one \xf0\x9f\x8e\x89\xf0\x9f\x8e\x89\xf0\x9f\x8e\x89\xf0\x9f\x8e\x89\xf0\x9f\x8d\xb0\xf0\x9f\x8d\xb0'
p1605
aS'same'
p1606
aS'being a woman wtf lol'
p1607
aS'consider how hard it is to change yourself and youll understand what little chance you have in trying to change others'
p1608
aS'i havent seen in almost a year remember when i got cleared by my surgeon so i could see him 6 times on his spring tour'
p1609
aS'thiscouldbeusbutyouplayin'
p1610
aS'i found the engagement ring i want foreveralone'
p1611
aS'aw thats awesome'
p1612
aS'\xf0\x9f\x98\x8a'
p1613
aS'yes for sure good people '
p1614
aS'fantastic pic is fantastic'
p1615
aS'same night they just jumped off the stage lol thats 1 way to do it'
p1616
aS'kinda weird im a coffee addict lol'
p1617
aS'cracks me up hes really good live though'
p1618
aS'well shit good job'
p1619
aS'i mean ive heard worse reasons to get married but good choice'
p1620
aS'i got a very interesting pic last summer i was fortunate to be there because damn'
p1621
aS'i knew a couple of his songs but really gave him a listen after the tour '
p1622
aS'its funny how things happen in life'
p1623
aS'just thinking probably not a good thing'
p1624
aS'me too \xf0\x9f\x98\xa2'
p1625
aS'thats different'
p1626
aS'both of you need to get rest \xf0\x9f\x98\x87'
p1627
aS'i like walliewednesday better than humpday \xf0\x9f\x98\x9c\xf0\x9f\x98\x8d'
p1628
aS'yep i love helping out with this kind of stuff \xf0\x9f\x98\x84'
p1629
aS'and the commercials are usually worse than the regular commercials'
p1630
aS'never forget that on any day you can step out the front door and your whole life can change forever himym'
p1631
aS'time for some lego marvel \xf0\x9f\x98\x8d\xf0\x9f\x98\x8d\xf0\x9f\x98\x8d i lt3 my ps3'
p1632
aS'finally retweeting the joys of working late i miss all the fun \xf0\x9f\x98\x86 lots of love'
p1633
aS'im so pumped to announce  im making my first full length solo record check out my kickstarter page for details'
p1634
aS'i will have to save this link for after i get paid'
p1635
aS'i would probably cry i dont think id even ever share my story lol'
p1636
aS'i played while i went to sleep last night well it was 4am is that still night'
p1637
aS'i think that depends'
p1638
aS'tortilla chips with cheese jalape\xc3\xb1os and a bunch of other stuff with salsa and sour cream'
p1639
aS'i dont know why i swear so much or tell so many dirty jokes or wear retro shirts lol im weird\xf0\x9f\x98\x81'
p1640
aS'fuck yeah the shit that comes out of my mouth is hilarious my friends labeled me the old pervert hahahaha'
p1641
aS'haha good one'
p1642
aS'i just say a whole bunch of swear words im have a foul mouth sometimes hah'
p1643
aS'marrying your best friend eliminates the risk of divorce by over 78 these marriages are the ones most likely to last a lifetime'
p1644
aS'reasons i love he was one of the few people who gave me a kind word amp hope while i fought cancer'
p1645
aS'ah yes happy birthday to adam levine'
p1646
aS'its a struggle to put the phone down \xf0\x9f\x98\x81'
p1647
aS'trying to sleep thats not happening lol'
p1648
aS'admit it at some point you tried to see if you had superpowers'
p1649
aS'a little over a year ago i became cancer free and one of the kindest people to me at the time was go figure what a guy \xf0\x9f\x98\x8a'
p1650
aS'i know but throw in a little extra for me \xf0\x9f\x98\x84'
p1651
aS'also fan girl like you know i would \xf0\x9f\x98\x84\xf0\x9f\x98\x84\xf0\x9f\x98\x84'
p1652
aS'send him my love \xf0\x9f\x98\x89'
p1653
aS'especially other young adults who go through health struggles like cancer '
p1654
aS'thanks i always feel sad to hear anyone has gone through chemo its rough stuff but i hope to use my experience to help'
p1655
aS'thanks it took forever to wear my natural hair after i lost it during chemo but now i wear it proudly  thanks for being you'
p1656
aS'i stay up way too late too often playing video games \xf0\x9f\x98\x82\xf0\x9f\x99\x8a\xf0\x9f\x99\x88'
p1657
aS'i love that he seems like a good dude'
p1658
aS'also stop dating the wrong guy guys i dont share interests with'
p1659
aS'reminder to self find a guy who loves superheroes and especially marvel as much as me or more also they must play video games with me'
p1660
aS'on a side note im nerdy and proud'
p1661
aS'i probably wouldnt have laughed about that in the past \xf0\x9f\x98\x9c life has changed'
p1662
aS'when i listen to nintendo all i think about is how much rejection i got for being a gamer instant thought then i laugh'
p1663
aS'thanks for helping us hit 10k dont forget you can get a bunch of free or almost free music at'
p1664
aS'yes this will be a good night'
p1665
aS'when you want to just be able to play a video game but there is a system update '
p1666
aS'i wish i could go home and play video games right now or take a nap'
p1667
aS'i want something like this for koreans lmao maybe something like play video games with me im korean ha'
p1668
aS'me too \xf0\x9f\x98\x98\xf0\x9f\x98\x8d well im 25 irish does that count'
p1669
aS'i feel this way every time i make my brownies but the end result makes up for it'
p1670
aS'former guitarist has officially joined  come say hi on the'
p1671
aS'everyone please welcome one of our best friends to the family livefreedieyoung'
p1672
aS'im excited to announce that i am officially 15 of  i feel blessed to be welcomed\xe2\x80\xa6'
p1673
aS'yep im definitely excited about this'
p1674
aS'this makes me happy '
p1675
aS'its much better to regret doing something than to regret not doing something go for it'
p1676
aS'agreed'
p1677
aS'progress'
p1678
aS'studies suggest that people who appear to be constantly distracted have more working memory and sharper brains'
p1679
aS'my mcm  \xf0\x9f\x98\x84 i think its a fantastic choice since he plays my favorite superhero captain america \xf0\x9f\x98\x84\xf0\x9f\x98\x84'
p1680
aS'good choice'
p1681
aS'being sarcastic on a regular basis can add up to 3 yrs to your life sarcasm is extremely healthy for the mind'
p1682
aS'boys who can pull off facial hair are hot'
p1683
aS'these last 3 months have been everything i ever needed'
p1684
aS'breaking news the news is really really really depressing whats the point lets celebrate people doing happy things \xe2\x80\xa6'
p1685
aS'i think this on a regular basis'
p1686
aS'fries before guys all foods before dudes'
p1687
asS'2014_13'
p1688
(lp1689
S'aw this is nice'
p1690
aS'this sounds delicious'
p1691
aS'i know right just give me the whole thing'
p1692
aS'me too lets be weird together except im also super awkward'
p1693
aS'is it bad that i was excited to hear playing on the weather channel'
p1694
aS'\xe2\x80\x9cyou get the car  i\xe2\x80\x99ll get the cash  we\xe2\x80\x99ll take the money and run\xe2\x80\x9d  you and me'
p1695
aS'i just heard on the weather channel \xf0\x9f\x98\xb1'
p1696
aS'backhome'
p1697
aS'im rting it its so catchy and wonderful'
p1698
aS'ps if you like my first ever music video nintendo would you rt amp share this 135000 views i\xe2\x80\xa6'
p1699
aS'im not sure what day ill see it but either way i need it here now'
p1700
aS'haha okay and he is fine in many ways \xf0\x9f\x98\x8d'
p1701
aS'my new favorite shirt'
p1702
aS'the story of my life'
p1703
aS'music has been shown to improve relationships it can strengthen a couples bond and helps to relieve emotional tension'
p1704
aS'aww well im just really emotional lol'
p1705
aS'i cant wait to see the new captain america movie \xf0\x9f\x98\x8d\xf0\x9f\x98\x8d\xf0\x9f\x98\x8d'
p1706
aS'me every single time'
p1707
aS'its because the song is great youre amazing and your fans are amazing '
p1708
aS'thats pretty cool im happy for you   '
p1709
aS'i just really love a whole bunch always good music from them'
p1710
aS'i feel like im missing something'
p1711
aS'one does not simply beat starwars in marchmadness voting ends soon lets secure the victory'
p1712
aS'research conducted on comedians and people generally perceived as humorous shows that funny people are usually more depresse\xe2\x80\xa6'
p1713
aS'late night chinese food'
p1714
aS'do you know your abcs cause i wanna give you the 4th letter of the alphabet'
p1715
aS'uh'
p1716
aS'virgos sometimes find it hard to relax thats why they always have back and stomach problems'
p1717
aS'this is beautiful im so jealous'
p1718
aS'yeah still havent found my physical copy of push rewind by i need a new cd \xf0\x9f\x98\xa2\xf0\x9f\x98\xa2\xf0\x9f\x98\xa2'
p1719
aS'the cutest pic ever'
p1720
aS'yeah she thought it was a really cute song but she introduces me as being a bit nerdy to everyone lol'
p1721
aS'i made her listen to nintendo and she said it sounds like its about me hahaha'
p1722
aS'she was really confused even better i work with this girl so she was like what was that i saw it and fell back asleep'
p1723
aS'i sent it to someone else first she has no idea who he is lol'
p1724
aS'that pic i sent you lmfao'
p1725
aS'i lost my physical copy of  push rewind \xf0\x9f\x98\xa2\xf0\x9f\x98\xb1\xf0\x9f\x98\xa9'
p1726
aS'just sent something random about to a random friend shes going to be so confused sorrynotsorry'
p1727
aS'every 10 years you literally become a new person our desires wants and needs change every 10 years'
p1728
aS'this is super sweet'
p1729
aS'what is spring'
p1730
aS'after i press it 10 times'
p1731
aS'happy birthday enjoy it'
p1732
aS'i am probably the worst friend sometimes'
p1733
aS'i loveee the snow but im so ready for summer how cute is this gotta love it'
p1734
aS'okay this picture is absolutely adorable congrats on taking a pic where i dont hate snow'
p1735
aS'good afternoon to one of my favorite people on this fine walliewednesday'
p1736
aS'happy people need to vent'
p1737
aS'no makeup also supporting still just because'
p1738
aS'your anxiety doesnt come from thinking about the future it comes from trying to control it'
p1739
aS'im hilarious \xf0\x9f\x98\x9c'
p1740
aS'yeah they are really good'
p1741
aS'its been so long probably not \xf0\x9f\x98\xa2\xf0\x9f\x98\xa2\xf0\x9f\x98\xa2'
p1742
aS'how to tell the difference'
p1743
aS'today i lost my hall of fame mentor friend amp father figure his impact on my life is immeasurable i will forever cheris\xe2\x80\xa6'
p1744
aS'those who spend more time in the sun are happier more optimistic and less likely to suffer from depression'
p1745
aS'btw readdicted to'
p1746
aS'lol tinder'
p1747
aS'\xe2\x80\x9cyou don\xe2\x80\x99t have to know where you\xe2\x80\x99re going  just where it is you want to be\xe2\x80\x9d  disappear'
p1748
aS'is that a question or is he the answer \xf0\x9f\x98\x9c'
p1749
aS'im fairly certain i am always going to be single lol \xf0\x9f\x98\xad\xf0\x9f\x98\xad'
p1750
aS'insomnia sucks'
p1751
aS'also i need to marathon star wars'
p1752
aS'im going to listen to all night i feel like everyone should do this \xf0\x9f\x98\x84\xf0\x9f\x98\x84\xf0\x9f\x98\x84 hell forever be one of my faves'
p1753
aS'im jealous i want to see it'
p1754
aS'retweet if youre single af \xf0\x9f\x91\x8c'
p1755
aS'i hear that'
p1756
aS'i always wanted to go there maybe one day'
p1757
aS'i miss even though he probably doesnt even remember me \xf0\x9f\x98\xa2'
p1758
aS'hi'
p1759
aS'cool hat'
p1760
aS'im just messing with you food motivates me'
p1761
aS'this picture has me laughing in the best way'
p1762
aS'nothing is motivating'
p1763
aS'love it'
p1764
aS'i did for some reason'
p1765
aS'you are amazing and humble and i love it'
p1766
aS'i need more in my life'
p1767
aS'i need to find a guy who loves food and laughter we will be super awesome together'
p1768
aS'that makes it look creepy'
p1769
aS'ditto'
p1770
aS'thiscoudbeusbutyoudontlikeme'
p1771
aS'5678 jk'
p1772
aS'yeah'
p1773
aS'and now im wide awake'
p1774
aS'super perfect '
p1775
aS'youre also perfect todd '
p1776
aS'stuck in my head'
p1777
aS'youre welcome and i know i just want to listen to it everywhere'
p1778
aS'pretty much forcing everyone to listen to  backhome and making everyone happy'
p1779
aS'i think it comes out on 48 on itunes which is way too long to own it \xf0\x9f\x98\xa2\xf0\x9f\x98\xa2\xf0\x9f\x98\xa2'
p1780
aS'i have listened to back home 10 times already im so happy about this im going to share it as much as possible backhome'
p1781
aS'andy grammer is perfect'
p1782
aS'you know what makes me feel good  back home or andy grammers music in general andygrammer backhome'
p1783
aS'everyone needs to listen to  back home its so good his super fan has spoken p andygrammer backhome perfection'
p1784
aS'how could you forget its soooooooooo good im so happy for andy'
p1785
aS'premiere unveils new feelgood single backhome'
p1786
aS'my new song backhome is here listen amp rt to spread the word 1000 rts amp ill call 5 of you'
p1787
aS'um back home is amazing i hope you know how much i love you and support you cant wait to see you for the 15th time '
p1788
aS'i have a strong hunch that todd knows how much you love him '
p1789
aS'women who frequently over think tend to be more generous and affectionate to their significant other and close friends'
p1790
aS'being sarcastic on a regular basis can add up to 3 yrs to your life sarcasm is extremely healthy for the mind'
p1791
aS'its better to be alone rather than being with someone who makes you feel like youre alone'
p1792
aS'no im pretty sure we do \xf0\x9f\x98\x9c'
p1793
aS'makes a joke about how hard it is to hide a stiffy in spandex'
p1794
aS'we accept the love we think we deserve\xe2\x80\x9d truth'
p1795
aS'obviously'
p1796
aS'i hate how a majority believe that when a girl\xe2\x80\x99s silent she\xe2\x80\x99s falling apart crying inside over thinking but maybe she\xe2\x80\x99s j\xe2\x80\xa6'
p1797
aS'i also love the new friends i hold close to my heart'
p1798
aS'i love getting picked on when its all in good fun'
p1799
aS'if only i had time off from work \xf0\x9f\x98\xa1\xf0\x9f\x98\xa1\xf0\x9f\x98\xa1\xf0\x9f\x98\xa1'
p1800
aS'crushing my hopes and dreams with weekday dates in buffalo lol'
p1801
asS'2013_52'
p1802
(lp1803
S'i love right now because my daughter is so happy'
p1804
asS'2013_51'
p1805
(lp1806
S'i love this you guys are wonderful'
p1807
aS'one day im going to wake up roll over on my side and kiss the love of my life good morning'
p1808
aS'when i see you smile i smile'
p1809
aS'yeah poeple suck'
p1810
aS'awesome'
p1811
aS'seriously though buffalo why are the bar parking lots better plowed than the streets i need to drive'
p1812
aS'haha all the truth in this statement'
p1813
aS'buffalo because bars should always be plowed better than the roads i love sobriety'
p1814
aS'remember when we were going to start a band and tour with andy grammer and parachute hahaha'
p1815
aS'there are two types of virgo the conservative homebody virgo and the crazy freaky virgo'
p1816
aS'did that really happen '
p1817
aS'the average american woman owns approximately 21 pairs of underwear approximately 10 of women own over 35 pairs\xe2\x80\x9d gtlt'
p1818
aS'miss you too dont be a stranger'
p1819
aS'the hardest part of acting like you dont care is knowing how much you actually do'
p1820
aS'hey anna i havent seen you guys in a long time'
p1821
asS'2013_50'
p1822
(lp1823
S'and fuck this snow btw'
p1824
aS'i feel surprisingly happy right now'
p1825
aS'does it really hurt so bad or hurt so good'
p1826
aS'thats how many it takes to dry one hand'
p1827
ag47
aS'trueromantic'
p1828
aS'cuddling makes women more optimistic open minded trusting and helps the mind fight off thoughts that lead to depression'
p1829
aS'and then shoot people in grand theft auto'
p1830
aS'i want to cry and watch sappy romantic movies got no real reason'
p1831
aS'buffalo wings and pizza are the best though i hope you found some thats what im going to do today'
p1832
aS'you should have asked me i would have gotten wings'
p1833
aS'im in selfish mode and i dont care'
p1834
aS'thats not how it works until i get through the process thats the thought process'
p1835
aS'i was always suspicious'
p1836
aS'dont do it its a trap'
p1837
aS'alcohol stopping drinking to me feels like losing my best friend'
p1838
aS'score'
p1839
aS'if you can retweet this with your bottom lip then youre a good kisser'
p1840
aS'you get to be number 1 buffalo girl lol the rest can be a bunch'
p1841
aS'maybe they need like 10 buffalo girls or something lol'
p1842
aS'and their buffalo chick they never met hah but seriously wtf'
p1843
aS'im happy for them'
p1844
aS'i would follow you 4 times since you mentioned fantasy football but i cant'
p1845
aS'hahahaha true true oh well all you can do is love them'
p1846
aS'well they seem to have seasonesia lmao'
p1847
aS'they never specify which season  maybe they think winter is the better weather haha nothingbutlove'
p1848
aS'this is a true statement i think they just throw seasons out there hahah'
p1849
aS'maybe they dont understand seasons and time'
p1850
aS'the best thing about not drinking is when people text you about what they are drinking cool story'
p1851
aS'im well aware i can sing so this was never an issue lol'
p1852
aS'the story of my life'
p1853
aS'all i ever seem to be doing is killing time until i\xe2\x80\x99m hungry enough to justify eating again william'
p1854
aS'i could have done without lol'
p1855
aS'good choice'
p1856
aS'happy birthday'
p1857
aS'if i fall in love with you that means i accept your past present and future no matter what'
p1858
aS'someone wished me a merry christmas today stop it'
p1859
aS'confession thats not a confession your smile is perfect seriously'
p1860
aS'marrying your best friend eliminates the risk of divorce by more than 70 these marriages are more likely to last a lifetime'
p1861
aS'psychological fact sometimes you must become weak so you can realize how strong you really are'
p1862
aS'both lmao'
p1863
aS'i love when the saints win'
p1864
aS'166000 people are having sex at this very minute 14th of them are cheating on someone\xe2\x80\x9d depressing'
p1865
aS'the loneliest people are the kindest the saddest people smile the brightest the most damaged people are the wisest'
p1866
aS'thats how i survive'
p1867
aS'do it'
p1868
aS'having similar issues'
p1869
aS'there comes a time when you have to stop crossing oceans for people who wouldnt even jump puddles for you'
p1870
aS'you never choose sleep over home alone never'
p1871
aS'sometimes i want to let go but i cant'
p1872
asS'2014_8'
p1873
(lp1874
S'geez and i couldnt even get one in high school \xf0\x9f\x98\x82\xf0\x9f\x98\x82'
p1875
aS'dont get into a relationship with someone unless they love you as much as kanye west loves kanye west'
p1876
aS'hes just amazing all around '
p1877
aS'good luck'
p1878
aS'your smile is literally the cutest thing i have ever seen'
p1879
aS'oh no '
p1880
aS'happy birthday have a good one'
p1881
aS'good luck '
p1882
aS'ha ha ha i wish that were true honestly because that would be the best dictator story ever'
p1883
aS'just found this old pic with of i cant believe that i found it'
p1884
aS'they are delicious'
p1885
aS'im good they just finally fixed some near my house ha'
p1886
aS'good to hear i was thinking about starting that next but wasnt sure'
p1887
aS'i got told i was pretty today in a weird and awkward way that sounds like the story of my life'
p1888
aS'my bro is releasing a solo cd this year he has a few days left to raise some money help him out'
p1889
aS'hmmm might have to do this when my check clears'
p1890
aS'i try to live by this always'
p1891
aS'i hope so because its a hard thing to admit'
p1892
aS'ive been a fan for over half my life 1415 years now and they completely changed my life'
p1893
aS'intelligent men tend to be more faithful'
p1894
aS'change'
p1895
aS'a few months now'
p1896
aS'aw this is super sweet'
p1897
aS'oh shit i would never make that mistake now thats crazy'
p1898
aS'we are friends i have too much of a fear to even show i feel more so its kind of my fault too'
p1899
aS'i did it it sucked i was naive as hell'
p1900
aS'someone tell this guy that so i dont have to ha i feel like im too old to have this problem'
p1901
aS'the song ill be there by has so much meaning in my life i wish it were true in my life'
p1902
aS'sometimes you just feel like youre not good enough'
p1903
aS'i never feel that way '
p1904
aS'i need positive vibes on dealing with a long time crush that i feel like im not good enough for feel better girl'
p1905
aS'youre not perfect and thats why i love you whether you ever know this or not doesnt really matter but someone somewhere thinks of you'
p1906
aS'these are so badass'
p1907
aS'for 7 million would you undergo an operation that permanently doubles the size of your lips'
p1908
aS'yeah i almost took off my jacket'
p1909
aS'and somehow will makes a prettier girl than i do wtf'
p1910
aS'that song always puts me in a good mood i love pharrell'
p1911
aS'aw thats super sweet'
p1912
aS'im still very addicted to skyrim right now'
p1913
aS'i know i play a lot of video games'
p1914
aS'i would not hate this at all'
p1915
aS'this makes me happy because of how much ive loved you guys all these years thanks for the retweet'
p1916
aS'thats a lot of os'
p1917
aS'we have the best pizza and wings in buffalo ny just so you know'
p1918
aS'for 5000 would you let 10 strangers watch you poop'
p1919
aS'life always interferes with fun \xf0\x9f\x98\xa2'
p1920
aS'im still sad i was sick and couldnt make it to pittsburgh'
p1921
aS'you are such a true inspiration to me just simply because you are always so positive which i can always use more of in life'
p1922
aS'sad i missed it'
p1923
aS'chinese food makes any day better'
p1924
aS'fuck yeah it is'
p1925
aS'i think its pretty tasteless honesty there are better ways to get attention'
p1926
aS'thanks to from for this interview last summer via'
p1927
aS'needs to come to buffalo ny ill bring him pizza and wings lol'
p1928
aS'yeah im not feeling it i didnt even realize at first there were two \xf0\x9f\x98\xa2'
p1929
aS'this picture is absolutely fantastic and also inspiring me to start doing squats again'
p1930
aS'cat lady for life'
p1931
aS'cuddling with my cat'
p1932
aS'it gets better if you tweet something negative or neutral about justin bieber'
p1933
aS'watching wicked attraction late at night was a brilliant idea sarcasm'
p1934
aS'still excited about this i am hoping i can make the trip'
p1935
aS'a virgo will go out of their way to make you feel special but they expects the same in return'
p1936
aS'were playing this year with tix on sale tomorrow at 3pm nj rules'
p1937
aS'shopping is always a solution to free time'
p1938
aS'love'
p1939
aS'truth love it'
p1940
aS'love is just a word kindnesssupport understandingpositivity and genuine happiness are what give the word real power sp\xe2\x80\xa6'
p1941
aS'mattress'
p1942
aS'sleep lol jk'
p1943
aS'insomniacs like me'
p1944
aS'true for life though'
p1945
aS'this is awesome '
p1946
aS'awesome '
p1947
aS'aw i hope some good stuff comes out for you'
p1948
aS'sick cant sleep watching to make me feel better'
p1949
aS'i wish i wasnt sick because i would have driven there'
p1950
aS'eating way too many raspberry flavored hersey hugs this is the single life'
p1951
aS'i love animals so much because of things like this'
p1952
aS'made me laugh'
p1953
aS'i bet when they kiss she has her eyes open'
p1954
asS'2014_9'
p1955
(lp1956
S'i am feeling more confident than i ever have in my life'
p1957
aS'loners people who feel like outsiders tend to become more confident over time and are more likely to be great leaders'
p1958
aS'first you mailed dvds to my house now you stream them on my tv whats next liam neeson yells a movie into my m\xe2\x80\xa6'
p1959
aS'1111 i can pretend a little longer'
p1960
aS'if a woman is interested during a date shes more likely to play with her hair poutpucker her lips stumble over words or lean \xe2\x80\xa6'
p1961
aS'im glad about this because it gives me a chance to give something'
p1962
aS'on a wednesday though i want to go '
p1963
aS'im curious about it'
p1964
aS'i want to go back to nyc lol'
p1965
aS'i also hate being really sensitive and wish that would go away'
p1966
aS'hearts are fucked up i really hate anything having to do with them'
p1967
aS'people get mad when you treat them how they treat you'
p1968
aS'goosebumps lesson if you see a red substance stick your fingers in it'
p1969
aS'aw thats really nice'
p1970
aS'i actually really like that song its pretty catchy also'
p1971
aS'i need to remember that in life'
p1972
aS'its all worth it'
p1973
aS'there are two kinds of secrets those we keep from others and those we hide from ourselves'
p1974
aS'this medication is kicking my ass though almost done'
p1975
aS'aw yeah that would be amazing '
p1976
aS'truth i think andy will be releasing amazing stuff'
p1977
aS'just got startled when i thought i was alone but then saw myself in the mirror\xe2\x80\xa6\xe2\x80\xa6 w'
p1978
aS'ive done this way too many times'
p1979
aS'its such a good song and super cute at that'
p1980
aS'crazy beautiful   \xf0\x9f\x98\x8d\xf0\x9f\x98\x8d\xf0\x9f\x98\x8d'
p1981
aS'my new shirt p'
p1982
aS'when i think about you its easy to want to do anything'
p1983
aS'im glad im not sitting next to you'
p1984
aS'life after cancer can be very challenging we have free resources to help you transition back to your new normal'
p1985
aS'yeah this goes on my list of things that make me happy i love friends that care'
p1986
aS'did you invent the airplane because you seem wright for me'
p1987
aS'do you ever talk to someone and feel really happy no matter how shit the conversation is'
p1988
aS'i choose you not pokemon hahaha'
p1989
aS'this whole time its always been you cheesy'
p1990
aS'if you care about someone should you tell them how you feel do you wait do you deny'
p1991
aS'this makes me happy'
p1992
aS'thats kind of sad'
p1993
aS'i got carded all the time once even on a date but i look 161718 sometimes i dont like to brag about it though'
p1994
aS'almost home good trip but it was long'
p1995
aS'when you fall in love with someones personality everything about that person tends to become beautiful'
p1996
aS'virgo worries too much about imperfection and sets their standards way too high  and always falling short which makes t\xe2\x80\xa6'
p1997
asS'2014_6'
p1998
(lp1999
S'it is the perfect reason to bond with someone '
p2000
aS'nerdy guys are my shit i love them'
p2001
aS'every single day'
p2002
aS'aw this picture is absolutely precious i love it'
p2003
aS'sailor moon is the shit'
p2004
aS'the seesaw of loving and hating myself'
p2005
aS'i so wish i was going to this but work interferes '
p2006
aS'you never know '
p2007
aS'we both make good staplers p'
p2008
aS'perfect'
p2009
aS'that you guys like and attract crazy '
p2010
aS'amazing this is why i love you chris'
p2011
aS'remember when told me i was invincible best day ever i still say he helped me recover while i caught cancer \xf0\x9f\x98\x8a\xf0\x9f\x98\x8a'
p2012
aS'well chris does have the song keep me crazy maybe i can be just the lunatic hes looking for \xf0\x9f\x98\xad'
p2013
aS'i think i tweet about chris wallace way too much lol hopefully he doesnt see most of them'
p2014
aS'thats a nice little video clip'
p2015
aS'this is a really cool idea'
p2016
aS'so just may be one of my favorite people just saying'
p2017
aS'i agree with this i always try to although work interfers'
p2018
aS'you may have escaped this time'
p2019
aS'cps time'
p2020
aS'samuel l jackson sees a pretty girl sam hi girl hi sam  girl can i help you sam valentine mothafucka\xe2\x80\xa6'
p2021
aS'tweeting to your chicken makes it cool faster '
p2022
aS'im the best that you had face it'
p2023
aS'my otp'
p2024
aS'thats why i play video games lol'
p2025
aS'true its been a good couple years with him '
p2026
aS'me too ive been promoting him for a while now'
p2027
aS'mostly because i need to stop thinking'
p2028
aS'skyrim'
p2029
aS'i oddly do the same thing but this is adorable'
p2030
aS'hey a happy birthday is a form of talking ha'
p2031
aS'yeah wheres the brain bleach when you need it'
p2032
aS'its how i find out where everywhere is in the world'
p2033
aS'this whole conversation \xf0\x9f\x91\x8e'
p2034
aS'i really did it was an accident i cant undo '
p2035
aS'truelove'
p2036
aS'yeah im dying laughing at this'
p2037
aS'this should be a thing if its not'
p2038
aS'heeeyyy mee tooo'
p2039
aS'curdled sounds kind of gross lol just kidding'
p2040
aS'morning to you'
p2041
aS'i was going to put brack bamba but thatd be too easy'
p2042
aS'love this song love them so much'
p2043
aS'48 billion people own mobile phones whereas only 42 billion own a toothbrush'
p2044
aS'wtf way to spoil this old movie that no one has ever seen'
p2045
aS'followed twice because you are that awesome'
p2046
aS'love that song its so good'
p2047
aS'let me know how many sticks of butter are there i need to know these things'
p2048
aS'sounds delicious'
p2049
aS'naps are the best i wish i had more in my life'
p2050
aS'rt if youd rather be taking a nap right now naptime'
p2051
aS'just updated twitter on my phone what the fuck '
p2052
aS'the liberals'
p2053
aS'black and white pictures are the shit'
p2054
aS'i havent been there in so long'
p2055
aS'yeah im at work until 11 so its any other day'
p2056
aS'i wish her all the best'
p2057
aS'this is so true'
p2058
aS'i dont understand it at all'
p2059
aS'you better get up and dance'
p2060
aS'happy birthday but bacon should be for everyday p'
p2061
aS'lol this made me laugh really hard'
p2062
aS'telling a virgo you love them isnt enough to satisfy their desire to feel wanted you must display your love with daily \xe2\x80\xa6'
p2063
aS'aw i love it'
p2064
aS'aw so cute'
p2065
aS'almost got into 2 car accidents in 15 minutes stop driving recklessly in this weather people'
p2066
aS'i love '
p2067
aS'im looking forward to this '
p2068
aS'awesome'
p2069
aS'id watch it'
p2070
aS'and sometimes the pain can take a long time to recover from'
p2071
aS'you dont have to feel that bad about it'
p2072
aS'lol ridiculous stuff'
p2073
aS'hahaha perfect'
p2074
aS'your brain must be something else this picture is pretty awesome though'
p2075
aS'i like the way you tweet'
p2076
aS'thats the motto'
p2077
aS'9 actual porn comments turned into valentines'
p2078
aS'9 actual porn comments turned into valentines the sweetest ever'
p2079
aS'hahaha why am i laughing'
p2080
aS'this is true but sometimes the hours are overwhelming oh well money is a nice thing to make'
p2081
aS'this makes me incredibly happy'
p2082
aS'yeah thats the best time to not get a tattoo haha'
p2083
aS'so im curling up and watching netflix alone watching the iceman seems legit'
p2084
aS'i waste my whole day and night at work '
p2085
aS'i hope so thanks for this'
p2086
aS'ugh'
p2087
aS'working until tonight and hoping the snow stops '
p2088
aS'it said i was going to marry young and get divorced omg the rest too'
p2089
aS'everything about this weather sucks i already got stuck in a snow bank now its off to work '
p2090
aS'yes '
p2091
aS'when it comes to my situation is the only company who hasnt understood my situation like i predicted cancer and a divorce'
p2092
aS'i have no problem saying that is the worst company ive ever dealt with unpleasant people and shitty computers'
p2093
aS'me too'
p2094
aS'well fuck im screwed'
p2095
aS'i wish it was a snow day in buffalo \xf0\x9f\x98\xa2'
p2096
aS'i live for the snapchat updates'
p2097
aS'just remember if you feel alone this valentines day my only gift is a rose someone else didnt want'
p2098
aS'i love it'
p2099
aS'i need to find good gym music'
p2100
aS'good thing im at work so no one sees me at that time'
p2101
aS'sometimes i still listen to to help me sleep '
p2102
aS'julie go the fuck to sleep'
p2103
aS'sleep is for the weak'
p2104
aS'smoking is one of the grossest things ever i dont understand it and it smells too'
p2105
aS'dont say that'
p2106
aS'one time i saw and it made me happy'
p2107
aS'i love good snapchats i rarely get good ones though my friends rarely use it '
p2108
aS'thank you'
p2109
aS'womens tears have been proven to biologically reduce sexual desire in men\xe2\x80\x9d is this if you rub it on them or'
p2110
aS'im really weird i know'
p2111
aS'this weekend this was how i looked ha'
p2112
aS'how you make me smile you have no idea and neither do i'
p2113
aS'same here there would be so much confusion'
p2114
aS'i prefer apple anyway'
p2115
aS'joys of motherhood excuse me im glad youre interested in my poop but i can do it alone'
p2116
aS'im the shit either way'
p2117
aS'no problem always happy to check out stuff like that'
p2118
aS'awesome im going to check it out'
p2119
aS'thanks '
p2120
aS'it feels good to know i survived cancer'
p2121
aS'shout out to those who have been diagnosed with cancer and cancer survivors today'
p2122
aS'happy birthday'
p2123
aS'i always get sick at the worst time'
p2124
aS'triple dog dare you now you have to do it'
p2125
aS'i need more than one a day i want to capture their every workout movement'
p2126
aS'when you really care about someone their happiness matters more than yours'
p2127
aS'i dont even know how it happened'
p2128
aS'i just want your love'
p2129
aS'this looks so good i need to cook at home more inspiration'
p2130
aS'i cant deny that i want you but ill lie if i have to'
p2131
aS'hahahaha these are the best keep it up'
p2132
aS'also im going to be 26 this year \xf0\x9f\x98\x8f'
p2133
aS'some people are annoying as fuck'
p2134
aS'they are going to be so thrilled'
p2135
aS'hahaa'
p2136
aS'why would you ever want to be so mature that you dont do something like that haha'
p2137
aS'good afternoon'
p2138
aS'trying is where its at because if you dont try you never will succeed'
p2139
aS'up until a little bit ago i didnt even think i was pretty no matter what others said that was messed up'
p2140
aS'i hope that there is someone out there for me'
p2141
aS'uh that doesnt look safe at all'
p2142
aS'hey i just met you and this is crazy but heres my belly pet me maybe'
p2143
aS'late night rocking out to'
p2144
aS'me either and he has such a naturally good voice too'
p2145
aS'i got pizza wings skyrim and netflix forevralone'
p2146
aS'i love buffalo because i can almost always get pizza and wings'
p2147
aS'chicken wings are amazing anytime'
p2148
aS'i wont wait around for you to decide whether im worth it or not'
p2149
aS'peyton woke up still not being tom brady so i think hes okay p'
p2150
aS'or better yet you can influence someone the way jimmy eat world influenced many'
p2151
aS'you can they are called jimmy eat world they are still my favorite '
p2152
aS'my poor peyton but at least bruno mars was there'
p2153
aS'ugh his smug face has been all over mine lately'
p2154
aS'hahaha i love the broncos but i love your kids response'
p2155
aS'give it a week after the win wears off  jk'
p2156
aS'seeing his disappointed face made me sad'
p2157
aS'omaha omaha'
p2158
aS'i was pretty excited when i saw that not gonna lie'
p2159
aS'i actually hate when people talk shit about him because you can dislike the guys music but dont discredit that hes talented'
p2160
aS'meh peyton is my number 2 after drew brees of course'
p2161
aS'steroids mess with your brain it was a double commercial'
p2162
aS'and this is where you get a piece about how you condone child abuse written about you '
p2163
aS'i dont care peyton is still my number two'
p2164
aS'hahaha i thought the same thing'
p2165
aS'yo this game is like a digiorno pizza because it was done after twenty minutes superbowi supersmack digiornoyoudidnt'
p2166
aS'i agree bruno is amazing'
p2167
aS'noooooo but seriously congrats to them i wont be a sore loser'
p2168
aS'i think hes a full package i love him'
p2169
aS'haha'
p2170
aS'you should get it because you only want a couple bucks haha its thrifty'
p2171
aS'such a great and talented mix'
p2172
aS'its only okay when they do it no one else'
p2173
aS'no such thing as too much confetti or glitter'
p2174
aS'definitely i thought it mixed well and bruno mars is so talented and people overlook that a lot because f his type of music'
p2175
aS'am i missing something or dont a lot of sports players thank god'
p2176
aS'i dont get people sometimes no need to be cruel and american is not easy to learn since we butchered it so they can chill'
p2177
aS'20 times peyton manning looked superduper sad during the super bowl awww'
p2178
aS'yes he is'
p2179
aS'i super sad about the super bowl right now but at least bruno mars was there'
p2180
aS'that one you need an adult for'
p2181
aS'you\xe2\x80\x99ll never guess how old anthony kiedis is old enough for a youll never guess how old he is'
p2182
aS'the real super bowl winner was bruno mars with a touch of rhcp just saying'
p2183
aS'and just think of all the movies and shows that are coming this month'
p2184
aS'i agree im sad'
p2185
aS'my real team isnt even there so i dont care as much'
p2186
aS'rude im not mad but im just a peyton fan'
p2187
aS'i dont think they are realizing anything right now '
p2188
aS'im sorry im so difficult'
p2189
aS'i agree i would love to see more bruno'
p2190
aS'when rhcp were talking about giving it away did they mean their shirts'
p2191
aS'i love rhcp but hahahaha'
p2192
aS'i like the broncos but i like peyton mannings faces more'
p2193
aS'best halftime show ever'
p2194
aS'bruno and rhcp yeeees'
p2195
aS'thats what im saying'
p2196
asS'2014_7'
p2197
(lp2198
S'probably a place to not take advice from'
p2199
aS'im a really nice person  lol'
p2200
aS'i hate being sick'
p2201
aS'im ready to go to sleep right now'
p2202
aS'make it happen we need more of those in the world'
p2203
aS'i dont know about them but i approve'
p2204
aS'the sooner the better  from someone who lives in buffalo ny'
p2205
aS'lol'
p2206
aS'if i dont have to shave my legs regularly can i truly have my shit together'
p2207
aS'new meaning to there are other fish in the sea'
p2208
aS'badass'
p2209
aS'this makes me happy '
p2210
aS'i want to hear  keep me crazy '
p2211
aS'i know you would have i hate when that happens'
p2212
aS'i need to do this \xf0\x9f\x98\xa2'
p2213
aS'dont forget i saw andy 14 times in a year amp it would have been more if i didnt have chemo and surgery haaa'
p2214
aS'yeah i hear ya i saw them 6 times in a month and a half \xf0\x9f\x98\xb3 its fun being crazy'
p2215
aS'lets be real though if your crazy for that im insane for seeing and as much as i did'
p2216
aS'completely and totally crazy and thats okay'
p2217
aS'about 10 people a week are hospitalized from injuries suffered while playing wii games'
p2218
aS'driving home at 3 am and i hear  keep me crazy on and it just makes me happy every time'
p2219
aS'combine them'
p2220
aS'took myself out to a nice lunch by myself'
p2221
aS'thats how single people do it after they feel miserable enough from a lovers holiday lol'
p2222
aS'i love todd too '
p2223
aS'being single is great today all about perspective  i had a great valentines day'
p2224
aS'i agree with this 100'
p2225
aS'i would be too'
p2226
aS'nope this is really sad '
p2227
aS'love you too'
p2228
aS'i love you too chocolate'
p2229
aS'aw what a sweet tweet'
p2230
aS'i agree i think we would too '
p2231
aS'aw i got valentines at work'
p2232
aS'you should be have as your valentine we all know how sweet she is'
p2233
aS'aw this is really cute'
p2234
aS'hahah so many people that this could be used for'
p2235
aS'thank you happy valentines day to you also  lt3'
p2236
aS'probably my favorite valentines day card \xf0\x9f\x98\x89\xf0\x9f\x98\x98'
p2237
aS'\xf0\x9f\x98\xb1\xf0\x9f\x98\xb1 nope lol i could never hah'
p2238
aS'everyone tell the person they have a crush on that you love them but only if youre hot'
p2239
aS'i would totally ask to be my valentine lol \xf0\x9f\x98\x82'
p2240
aS'i never asked anyone im too afraid of rejection lol'
p2241
aS'happy valentines day i dont have a valentine either lol'
p2242
aS'who says you cant be single and enjoy valentines day \xf0\x9f\x98\x8d great excuse to treat myself extra special'
p2243
aS'all i want for today is for to play  keep me crazy that would make my valentines day '
p2244
aS'hope that makes you feel better '
p2245
aS'dont worry half of them are probably for their mom'
p2246
aS'happy valentines day chris you are the best i hope that its a good one '
p2247
aS'that works there is chocolate on it ha'
p2248
aS'listening to on valentines day so my day is going to be great'
p2249
aS'only if its chocolate or conversation hearts'
p2250
aS'im not in a relationship amp i still love today i bought my grandma a box of chocolate  no reason to be down about today'
p2251
aS'happy valentines day everyone now someone be my valentine '
p2252
aS'happy valentines day'
p2253
aS'badass'
p2254
aS'i think its funny that people who treat you like shit get offended when you finally do the same to them'
p2255
aS'you are weird ad awesome ha but yay '
p2256
aS'plus august is my birth month so this is a nice treat '
p2257
aS'i am really excited you guys are amazing love seeing you guys live '
p2258
aS'yeah i might be a little crazy'
p2259
aS'this is going to be a good one'
p2260
aS'i cant wait for album 2'
p2261
aS'such a precious picture'
p2262
aS'no problem i like supporting things like that and yeah good times'
p2263
aS'if you want to make an asian woman angry leave a mess'
p2264
aS'definitely the cutest thing ive seen '
p2265
aS'i would if i could i cant though it would make the work day faster though'
p2266
aS'i am super sick and i feel like i could sleep for days'
p2267
aS'stuck at work id rather be listening to'
p2268
aS'i want one of those'
p2269
aS'this is me but every night'
p2270
aS'hahaha i wish he sent more'
p2271
aS'maybe he can snapchat you a new dong ha jk'
p2272
aS'wish i could have been there '
p2273
aS'25 going on 12 because i could make songdong joke all night'
p2274
aS'i have this new dong stuck in my head'
p2275
aS'i have a nice dong for you just sounds so wrong and so right'
p2276
aS'a writers reference was my shit back in the day'
p2277
aS'i was just thinking about them yesterday'
p2278
aS'when your crush likes a picture of you'
p2279
aS'1 in 5 women would rather give up sex than facebook access\xe2\x80\x9d what '
p2280
aS'i have to fully agree with you'
p2281
aS'and none now'
p2282
aS'stay strong'
p2283
aS'i just want someone to love me like kanye love kanye'
p2284
aS'run'
p2285
aS'bruno mars for sure'
p2286
aS'im good on that'
p2287
aS'that would be pretty cool'
p2288
aS'gavkn lol'
p2289
aS'you could blast who let the dogs out lol'
p2290
aS'happy birthday matt hope its a good one'
p2291
aS'i mean you like what you like i guess lol weird choice to repeatedly play but hey'
p2292
aS'you might as well be walkin on the sun'
p2293
aS'i think thats more of a d'
p2294
aS'i feel super lonely right now'
p2295
aS'for 100000 would you sing karaoke to a crowd of 500 people every night for four years\xe2\x80\x9d hell yeah'
p2296
aS'i wish i would have taken pics of my hair as it grew in'
p2297
aS'there are two types of virgo the conservative homebody virgo and the crazy freaky virgo'
p2298
aS'aw love this picture'
p2299
aS'february 15 where single girls like me can buy all the discounted candy i want'
p2300
aS'its true'
p2301
aS'you did there was a lot of love but im sure it carried over to today '
p2302
aS'sleep never comes fast enough'
p2303
aS'i feel all the love in here right now '
p2304
aS'sometimes the hardest thing to believe is the truth'
p2305
aS'the brain naturally craves 4 things food sex water and sleep'
p2306
aS'gta v is so good love that game'
p2307
aS'a study finds most men believe that brunettes make good wives and blondes make better girlfriends'
p2308
aS'happy birthday to him birthdays are awesome'
p2309
aS'men and women who listen to similar music tend to be better communicators and have longer lasting relationships'
p2310
aS'\xf0\x9f\x8e\xb6\xf0\x9f\x8e\xb6\xf0\x9f\x8e\xb6 music just makes life easier \xf0\x9f\x8e\xb6\xf0\x9f\x8e\xb6\xf0\x9f\x8e\xb6'
p2311
aS'\xf0\x9f\x98\xa2'
p2312
aS'yep hes a doll and is doing what he does for the right reasons i hope he never changes \xf0\x9f\x98\x8a'
p2313
aS'you know it chris but only because youre the best and you deserve it'
p2314
aS'you guys are the best wallies'
p2315
aS'i like announcements'
p2316
aS'i love when guys do things like this so i know to avoid them'
p2317
aS'yep thats where my love for him started heh'
p2318
aS'i saw chris once solo i miss but thats okay hes great on his own \xf0\x9f\x98\x8a'
p2319
aS'yes for sure maybe a chris wallace one too '
p2320
aS'hes good like that chris is seriously the best '
p2321
aS'nope i have to work '
p2322
aS'im over it its overdue cuz the worst part of me i left with you i could listen to all day and night'
p2323
aS'i so wish i could that would be amazing'
p2324
aS'i agree'
p2325
aS'i dont even know life is just insanity right now  listening to music though'
p2326
aS'grounded4life'
p2327
aS'just going back and forth with insanity i feel so lost and unloved'
p2328
aS'also i deserve love too \xf0\x9f\x98\x81'
p2329
aS'im in the middle of the never ending panic attack'
p2330
aS'who am i kidding'
p2331
asS'2014_4'
p2332
(lp2333
S'waiting'
p2334
aS'so true'
p2335
aS' '
p2336
aS'lets be best friends and all that shit'
p2337
aS'don\xe2\x80\x99t ruin today by worrying about yesterday\xe2\x80\x99s problem'
p2338
aS'all that i can do'
p2339
aS'the background on my phone is all of the shields from throughout the legend of zelda so im feeling pretty nerdy right now'
p2340
aS'ever just laugh at how stupid someone could be yeah me too'
p2341
aS'meeeee too what the fuck'
p2342
aS'um ill listen to all day and night please their songs just really hit me'
p2343
aS'edward and bella in twilight meet all 15 criteria set by the national domestic violence hotline for being in an abusive relations\xe2\x80\xa6'
p2344
aS'yeeah \xf0\x9f\x98\xad'
p2345
aS'what girls really want for valentines day hahahaha \xf0\x9f\x98\xad\xf0\x9f\x98\xad\xf0\x9f\x98\xad'
p2346
aS'you are doing it right ill have to bring my homemade desserts to a concert sometime'
p2347
aS'i know a lot of johns that doesnt sound right'
p2348
aS'immature jokes for the win'
p2349
aS'i absolutely adore '
p2350
aS'my head hurts so bad that im breaking into a sweat fuck migraines'
p2351
aS'gta v  the most expensive video game production in history 265 million'
p2352
aS'me too it was full of angsty teen stuff it probably still classifies as that at 25'
p2353
aS'amazing'
p2354
aS'dave grohl and pharrell williams star in rdgldgrns new music video'
p2355
aS'congrats you deserve it you are an amazing writer'
p2356
aS'hey it gave me a good laugh what next juno mail'
p2357
aS'tell me you love how i met your mother so i know its real'
p2358
aS'you win all throwbacks'
p2359
aS'happy thursday and i agree today is a wonderful day to be alive im grateful'
p2360
aS'saving up time off to see yet again i could see them 100 times and it would feel like the first time'
p2361
aS'i need to see and live again really really soon not sure about driving to nyc again but it needs to happen'
p2362
aS'oh yesss i do that too haha'
p2363
aS'lmao luckily i was in my car and no one could hear me but ive never been so excited to hear a song on the radio'
p2364
aS'heard  keep me crazy on the radio and yelled really loud with excitement it was awesome'
p2365
aS'id love to date a guy who is smart cute and a bit nerdy and you know appreciates me and the things i do as much as i appreciate him'
p2366
aS'making one person smile can change the world maybe not the whole world but their world'
p2367
aS'im mostly glad i gave up on dating although i hope one day someone comes into my life that cares about me idk how to do this shit'
p2368
aS'8yearold boy saves six family members from fire but dies trying to save a 7th this is sad '
p2369
aS'our amigos have a new video for their song doing the most and is that a grohl appearance too it is'
p2370
aS'i always become loyal to the wrong people'
p2371
aS'are they grown men that enjoy asses jk '
p2372
aS'truestory'
p2373
aS'damn girl i hate this shit though stupid cars fix yourself'
p2374
aS'i dont understand it at all im not even actively trying to find a guy and i still get shitty outcomes with guys'
p2375
aS'it took two to have mine changed and there was like no one there lmao'
p2376
aS'im so excited'
p2377
aS'do decent guys exist probably not where i live no matter what its always the same thing'
p2378
aS'i love me way too much to put myself through this'
p2379
aS'im really interested in the half time show im looking forward to it'
p2380
aS'those relationships where you can both act like complete idiots around each other'
p2381
aS'singing in the shower helps boost your immunity lower your blood pressure reduce stress and improve your mood\xe2\x80\x9d every day'
p2382
aS'well if there was a place they were going to be'
p2383
aS'dancing to in my car to get energy for work hah'
p2384
aS'virgo is the perfect lover they believe in loyalty love respect and most of all they have a very healthy sexual appeti\xe2\x80\xa6'
p2385
aS'i dont understand sleep'
p2386
aS'i really love'
p2387
aS'i like who is there but this would be a nice addition'
p2388
aS'i want to fall in love but i want to know someone can fall in love with me'
p2389
aS'hanging out and watching portlandia'
p2390
asS'2014_5'
p2391
(lp2392
S'rude hes actually talented lol'
p2393
aS'this joke was a strike'
p2394
aS'yeah theres too much going on for me with that now'
p2395
aS'this is from last night '
p2396
aS'the broncos'
p2397
aS'he is im glad you were there '
p2398
aS'remember when i met last year and he was the sweetest person ever \xe2\x98\xba'
p2399
aS'broncos and bruno mars '
p2400
aS'nah its like a deep pain doesnt feel like a clot but it hurts to do excessive movement glad im not a guy'
p2401
aS'my shoulder that has the port in it is killing me '
p2402
aS'can we talk about how shitty cancer is for a moment my tumor is gone but all the extra pain is there'
p2403
aS'love is better than anger hope is better than fear optimism is better than despair so let us be loving hopeful and\xe2\x80\xa6'
p2404
aS'my shoulder is killing me'
p2405
aS'i think they get paid in airtime alone though'
p2406
aS'for 40 million would you time travel to the year 2113 and live out your life\xe2\x80\x9d depends'
p2407
aS'my invites to things always gets lost in the mail or id like to believe'
p2408
aS'we all have a favorite child but dont want to say it out loud'
p2409
aS'buffalo chicken wing dip duuh'
p2410
aS'seeing again last night has made me happy i love them'
p2411
aS'glad you clarified you are a grown man'
p2412
aS'psychology says the better you become as a person the better you attract finding the right person begins with you'
p2413
aS'ooooo is about to come on'
p2414
aS'i absolutely adore chris and hes the biggest sweetheart too has been since twta and that makes me happy'
p2415
aS'as long as you approve you were a great help while i had cancer amp hopefully next time i see you itll still be had '
p2416
aS'haha of course not '
p2417
aS'very nice i love black and white'
p2418
aS'is 25 too old to fan girl for because i do it anyway'
p2419
aS'you always make the best most animated faces'
p2420
aS'but if i dont motivate me who will plus i have to show off my progress somehow'
p2421
aS'you still have a long way to go hah'
p2422
aS'one day youre going to meet someone who makes you feel happy beautiful and stands by you even when you feel you dont de\xe2\x80\xa6'
p2423
aS'lucy knows how to text '
p2424
aS'wow this lineup \xf0\x9f\x98\x8d\xf0\x9f\x98\x8d\xf0\x9f\x98\x8d'
p2425
aS' classic is stuck in my head'
p2426
aS'no lol'
p2427
aS'bye january and hi february is trending thats because today is the last day of january and tomorrows the first day of \xe2\x80\xa6'
p2428
aS'hmmmm i might have to see how much time off i have'
p2429
aS'\xe2\x99\xab just announced buffalo ny  apr 3 at the forvm'
p2430
aS'i already do and i encourage other people to do it also'
p2431
aS'yeah'
p2432
aS'i know what you mean'
p2433
aS'amazingly perfect'
p2434
aS'ha i love you guys'
p2435
aS'be nice and smile to everyone you meet you dont know what they are going through and they may need that smile and \xe2\x80\xa6'
p2436
aS'it sucks doesnt it feeling like youre not good enough'
p2437
aS'reminding me to update my live account'
p2438
aS'not so guilty pleasure '
p2439
aS'i dont do that like once a week or own any of their cds or anything'
p2440
aS'remember when we hash tagged usher songs'
p2441
aS'sounds legit'
p2442
aS'haha i love your mom'
p2443
aS'just because you miss someone that doesnt mean they belong in your life'
p2444
aS'i probably eat more than any one person should oh well they have delicious food'
p2445
aS'i really dont care about a lot of things but when i do care i care too much'
p2446
aS'if your makeup isn\xe2\x80\x99t done your hair is a mess and he still can\xe2\x80\x99t resist taking you into his arms he\xe2\x80\x99s a keeper'
p2447
aS'\xe2\x9a\xaa'
p2448
aS'askparachute what if your favorite animal'
p2449
aS'askparachute if you could travel anywhere right this second where would you go'
p2450
aS'songs are just like everything else in life easy to start and hard to finish'
p2451
aS'its only wednesday \xf0\x9f\x98\xa2\xf0\x9f\x98\xa2\xf0\x9f\x98\xa2'
p2452
aS'super excited for this right now'
p2453
aS'askparachute do you ever listen to a song of your own and go wow i dislike this song'
p2454
aS'askparachute if someone needed some encouragement through life what would you say'
p2455
aS'askparachute whats the best part of touring'
p2456
aS'for 500000 would you never again play a video game\xe2\x80\x9d oh hell no'
p2457
aS'seeing this weekend'
p2458
aS'ted the chances of one person being another persons the one are like 6 billion to one himym'
p2459
aS'today is one of those days where i just want to cuddle up and watch movies'
p2460
aS'one bad relationship could make you never want to fall in love again'
p2461
aS'okcupid makes for some good hate reading'
p2462
aS'ugh okcupid i cant even make a full sentence about it'
p2463
aS'finally happy birthday p'
p2464
aS'the fortress of solitude is where superman went to be alone but i dont want to be alone anymore himym'
p2465
aS'lmfao'
p2466
aS'i need more in my life i can never have enough'
p2467
aS'im really excited for what this could mean and to see more of you shine through '
p2468
aS'a person who is strongly attracted to someone\xe2\x80\x99s intelligence is called a \xe2\x80\x9csapiosexual\xe2\x80\x9d'
p2469
aS'what a way to start the morning'
p2470
aS'yes im smiling but youre not the reason anymore'
p2471
aS'its official hits buffalo june 30th gt who wants to go \xe2\x98\xba\xf0\x9f\x98\x9c'
p2472
aS'i just want to listen to right now'
p2473
aS'yeah it can stop being so cold already'
p2474
aS'i really just love though everything about them makes me happy'
p2475
aS'yall tryna start a roast beef \xf0\x9f\x98\x84\xf0\x9f\x98\x98 hey can we have our hat back grammys\xe2\x80\x9d'
p2476
aS'amazing hahah'
p2477
aS'whenever i see a new snapchat from i smile'
p2478
aS'filled with joy cant sleep i can never sleep'
p2479
aS'i would wait as long as possible'
p2480
aS'these tweets keep me entertained at work on my break thanks'
p2481
aS'thank you'
p2482
aS'i dont think he ever really left'
p2483
aS'i agree'
p2484
aS'you are amazing so not entirely far fetched '
p2485
aS'im drinking tea and doing the same thing'
p2486
aS'i wish its freaking cold here '
p2487
aS'i am not a fan of them either for multiple reasons'
p2488
aS'i cant wait for warm weather go away winter'
p2489
aS'hahaha a highlight of tonight really'
p2490
aS'i agree with all of this 100'
p2491
aS'i am shocked'
p2492
aS'so did you buy any'
p2493
aS'he is a beautiful person'
p2494
aS'truth'
p2495
aS'pharrell williams is 40 years old this image is from this year grammys'
p2496
aS'i say this every time i see him'
p2497
aS'me too shes super awesome i love her stuff so much'
p2498
asS'2014_2'
p2499
(lp2500
S'sex is better when its with someone you care about the emotional attachment heightens your feelings of satisfaction'
p2501
aS'im not even embarrassed about this haha'
p2502
aS'sweet korean jesus'
p2503
aS'yeah they do being an adult sucks sometimes i would buy them pizza haha'
p2504
aS'i can express my love for because just saw them and im jealous i want to see them again'
p2505
aS'you know what band i really love'
p2506
aS'virgo tend to seduce with finesse charm and subtlety so you may not even realize you\xc2\x92re being seduced'
p2507
aS'what is sleep '
p2508
aS'yeah me too they fucking suck every last one of them'
p2509
aS'i am absolutely over it'
p2510
aS'i really cant stand guys i wish it was a choice to be into girls because im seriously over guys yall are the worst'
p2511
aS'hallmark needs to make an apology card that says inside jk go fck yourself'
p2512
aS'cut negative people out of your life the people you spend time with influence your attitude and thoughts more than you think'
p2513
aS'its been a while twitter'
p2514
asS'2014_3'
p2515
(lp2516
S'i would have noticed if you were one if i actually had been on '
p2517
aS'im not either'
p2518
aS'i still like you im just tired of trying'
p2519
aS'just blasting no biggie really'
p2520
aS'worst feeling ever when skyrim freezes'
p2521
aS'kind of off the radar im better than i was and thats a lot how are you'
p2522
aS'i love movies that make me emotional now i want to check it out more'
p2523
aS'virgos hate the unknown'
p2524
aS'oh dear'
p2525
aS'ha ha ha okay'
p2526
aS'omg call me if this happens all the crazy things that could happen from this situation'
p2527
aS'im just happy for once in my life and its over nothing seriously i never thought i would say that'
p2528
aS'video games train the human brain to make faster real life decisions'
p2529
aS'its hard when someone special ignores you its harder pretending that you just dont care'
p2530
aS'friendly people tend to have more friends than mean people'
p2531
asS'2014_1'
p2532
(lp2533
S'aw '
p2534
aS'happy new year \xf0\x9f\x8e\x89\xf0\x9f\x8e\x89\xf0\x9f\x8e\x89\xf0\x9f\x8e\x89'
p2535
aS'heres hoping that 2014 kills it'
p2536
aS'i think about it every single day'
p2537
aS'or it could be the start to the best marriage ever'
p2538
asS'2014_43'
p2539
(lp2540
S'im overprotective of whats mine'
p2541
aS'never say goodbye when you still want to try never give up when you can still take it never say you dont love them w\xe2\x80\xa6'
p2542
aS'i saw you \xf0\x9f\x98\xb3 i wanted you \xf0\x9f\x98\xb1 i got you \xf0\x9f\x98\xac i liked you \xf0\x9f\x91\xab i loved you \xf0\x9f\x92\x8f now im not losing you \xf0\x9f\x92\x91\xf0\x9f\x94\x90\xf0\x9f\x94\x91\xf0\x9f\x91\x8c'
p2543
aS'and finally someone gets it'
p2544
aS'i hate the nights where i have to sleep by myself im so used to sharing my bed and i hate not sharing it'
p2545
aS'a relationship where you can sit around doing nothing but still have fun cause youre together gtgt'
p2546
aS'it\xe2\x80\x99s annoying when youre fed up with someone\xe2\x80\x99s shit but you don\xe2\x80\x99t want to start something so you have to pretend like \xe2\x80\xa6'
p2547
aS'he has my name in his phone with his last name \xf0\x9f\x98\x8d\xf0\x9f\x98\x8d\xf0\x9f\x98\x8d'
p2548
aS'if were in a car and i love the song on the radio and you turn it down to tell me something please know that i now hate\xe2\x80\xa6'
p2549
aS'brian and i took lily to the pumpkin farm it was a great day minus the car trouble i love them lt3'
p2550
asS'2014_42'
p2551
(lp2552
S'bless my fianc\xc3\xa9 because he has watched me play through diablo 3 at least twice now and has hardly complained'
p2553
aS'sucks the sabres lost but i still had a great time'
p2554
aS'so my fianc\xc3\xa9 and i ended up at a sabres game for free thanks to a nice stranger'
p2555
aS'\xf0\x9f\x98\x98'
p2556
aS'i have the bestest \xf0\x9f\x98\x8d'
p2557
aS'psychologically it hurts the most when the person who made you feel so special yesterday makes you feel so unwanted to\xe2\x80\xa6'
p2558
aS'not at all i am at my lowest i have dated a guy long enough that i pushed myself into misery'
p2559
aS'i feel so lonely'
p2560
aS'if a girl is stupid enough to love you after you broke her heart i guarantee you she is the one'
p2561
aS'this weekend went by too fast and now i have to be at work by 1030 and stay until 900 \xf0\x9f\x98\xb1'
p2562
asS'2014_41'
p2563
(lp2564
S'i guess maybe im just not worth loving'
p2565
aS'maybe i spoke too soon'
p2566
aS'on the road to happiness'
p2567
aS'be with someone who wont stay mad at you who cant stand not talking to you and whos afraid of losing you'
p2568
aS'virgos are good with details and especially good with money'
p2569
aS'the moment when you say youre getting married and someone asks if youre pregnant hahaha'
p2570
asS'2014_40'
p2571
(lp2572
S'big news '
p2573
asS'2014_44'
p2574
(lp2575
S'like honestly sleeping next to someone is the nicest thing like you wake up at 4 am and squeeze them or they move in tigh\xe2\x80\xa6'
p2576
aS'a girlfriend is a bestfriend that touches you inappropriately'
p2577
aS'i believe everything happens for a reason and since i met you i believe it even more'
p2578
aS'when he tells me he misses me \xf0\x9f\x98\x8d\xf0\x9f\x98\x8d\xf0\x9f\x98\x8d'
p2579
aS'surprise '
p2580
aS'when you lose your heart to another don\xc3\xadt make the mistake of losing yourself in the process true love should enhance \xe2\x80\xa6'
p2581
aS'winter \xe2\x9d\x84\xef\xb8\x8f'
p2582
aS'it\xe2\x80\x99s a beautiful day to give me money'
p2583
aS'kissing can increase your lifespan'
p2584
aS'dont feel sad over someone who gave up on you feel sorry for them because they gave up on someone who would have never g\xe2\x80\xa6'
p2585
aS'thanks for loving me because youre doing it perfectly'
p2586
aS'\xf0\x9f\x98\x8a'
p2587
ag47
aS'this is oddly accurate'
p2588
aS'sometimes we need to be hurt in order to grow we must lose in order to gain sometimes some lessons are learned best t\xe2\x80\xa6'
p2589
aS'its painful to say goodbye to someone you dont want to let go but more painful to ask someone to stay when you know th\xe2\x80\xa6'
p2590
aS'don\xe2\x80\x99t let yourself be controlled by three things people money or past experiences'
p2591
aS'currently craving taco bell im sober wtf 2am taco bell craving'
p2592
aS'forever is a long time but i would spend it with you'
p2593
aS'when couples fights so much and theyre not breaking up theyre really in love'
p2594
aS'me and my best friend  love \xf0\x9f\x98\x8d\xf0\x9f\x98\x8d\xf0\x9f\x98\x8d'
p2595
aS'true but tacos tacos are amazing'
p2596
aS'i want grilled cheese now thanks a lot'
p2597
aS'but i can eat tacos and they are delicious plus the tacos i can get at the local pizza place \xf0\x9f\x98\x8d\xf0\x9f\x98\x8d\xf0\x9f\x98\x8d'
p2598
aS'todds cool and all but taco tuesday is my favorite thing about tuesdays lol'
p2599
aS'my mcm  man i plan on spending the rest of my life with \xf0\x9f\x98\x8d\xf0\x9f\x98\x98\xe2\x9d\xa4\xe2\x9d\xa4\xe2\x9d\xa4'
p2600
aS'yeah hes really good at it lol but its just one more way i know i love him'
p2601
aS'a good relationship is with someone who knows all your insecurities and imperfections but still loves you for who you are'
p2602
aS'truth'
p2603
aS'its great and scary he drives me insane but both in a good and bad way lol'
p2604
aS'thanks he drives me crazy both good and bad'
p2605
aS'i have fallen completely in love and it is wonderful and scary and amazing and nerve wrecking my heart is filled'
p2606
aS'youre the only one who matters to me'
p2607
aS'dont let the shadows of yesterday block out the sun from today'
p2608
asS'2013_39'
p2609
(lp2610
S'drinking a whiskey sour in your honor '
p2611
aS'you have made my day successful yes'
p2612
aS'my face exactly'
p2613
aS'lol your pic makes it even more funny when you favorite things'
p2614
aS'haha damn chill children'
p2615
aS'but netflix told me it loved me  21 signs your relationship with netflix has gotten out of control'
p2616
aS'wth im the happiest person in the world damn my odds suck'
p2617
aS'fyi if i ever get engaged let it be known that i would like an engagement ring of equal or greater value as well  w'
p2618
aS'also my ex husbands ring was worth more than mine not a far fetched idea'
p2619
aS'dying at equal or greater value what kind of cut would you eye '
p2620
aS'yes'
p2621
aS'9 year old and their drama also lol'
p2622
aS'not tonight i thought about going out tomorrow though sundayfunday lol'
p2623
aS'whats your favorite drink'
p2624
aS'i wouldnt be able to either lol'
p2625
aS'bahahaha'
p2626
aS'i glanced at the tv and there were naked people omg dad youre supposed to change the channel like im 5'
p2627
aS'happy birthday ill drink for you later '
p2628
aS'i cant wait to drink watch the game tomorrow'
p2629
aS'good old john lol'
p2630
aS'gta'
p2631
aS'sounds like my life'
p2632
aS'oops'
p2633
aS'when a virgo talks about their problem to you it means they already solved it and just want to know your opinion'
p2634
aS'\xf0\x9f\x98\x92\xf0\x9f\x98\x92\xf0\x9f\x98\x92'
p2635
aS'nails'
p2636
aS'i have not not much anyways'
p2637
aS'this is something i wish i could have been there for'
p2638
aS'lol i love this'
p2639
aS'fb drama '
p2640
aS'a mosquito'
p2641
ag47
aS'this happened today'
p2642
aS'okay '
p2643
aS'meeeee'
p2644
aS'story of my life'
p2645
aS'getting weird tonight'
p2646
aS'i wish i knew more people here so that i had someone to get a drink with tonight lol'
p2647
aS'its fairly big and it was looking at us and making noises haha'
p2648
aS'i want to see it '
p2649
aS'sad im not seeing tonight \xf0\x9f\x98\xa2\xf0\x9f\x98\xa2 they need to come back soon'
p2650
aS'darcy and i are trapped outside by a bug lmao'
p2651
aS'i want to see it tell me how it is'
p2652
aS'how many bandz does it take to make her dance'
p2653
aS'not a bad day'
p2654
aS'one time i said let me get my manager and the woman goes do you speak english nope just learned those words'
p2655
aS'i actually did say something to a few of them before they asked which really blew my mind'
p2656
aS'now youll never forget it'
p2657
aS'so many excuses and they are the worst sometimes i get asked if i speak english haa'
p2658
aS'white people suck sometimes does that make them feel better'
p2659
aS'that is pretty disappointing  and im jealous what a cutie'
p2660
aS'this would be the greatest news ever'
p2661
aS'i know i need to get out lol'
p2662
aS'i know and omg your pic'
p2663
aS'that feeling between ordering a pizza and waiting for the pizza is one of the worst feelings'
p2664
aS'id even pay for myself wtf'
p2665
aS'i hear this i go to restaurants with bars in them so i can feel better about going alone i dont'
p2666
aS'thats the way to do it '
p2667
aS'omg drink heavily'
p2668
aS'haha true i try to keep it to one every few days at least haha but thats still excessive sometimes'
p2669
aS'they ditched me when i got cancer '
p2670
aS'loyalty is extremely important to a virgo break that and you will never be forgiven\xe2\x80\x9d very true for me'
p2671
aS'i love hearing good cute romantic real life love stories the kind that give you hope'
p2672
aS'i love the pumpkin farm i need to find someone to take me lol'
p2673
aS'yum pizza my favorite meal'
p2674
aS'exactly i do this all the time'
p2675
aS'go thing i come to you with my problems im helping you while you help me '
p2676
aS'it sure does'
p2677
aS'i should get paid for how many people ive gotten hooked on breaking bad'
p2678
aS'virgo will only open up to those closest to them and are hurt deeply if criticised by those very same people'
p2679
aS'sounds like a creeper i mean keeper'
p2680
aS'you mean you dont like going on your or when you see a band thats on your worst autocorrect ever besides ducking'
p2681
aS'cherophobia is the fear of being too happy because you think something tragic will happen'
p2682
aS'i also appreciate this comment '
p2683
aS'thank you  i appreciate it and it was amazing'
p2684
aS'lt3 lt3 lt3'
p2685
aS'if you can watch it'
p2686
aS'mmhmm last year '
p2687
aS'thats the song i sang with them p'
p2688
aS'i love feels good at first right now'
p2689
aS'it was im sure they will they have too'
p2690
aS'at the bottom of an empty bottle is where the truth starts to spill dont wanna wake up with regret from this feeling we cant kill'
p2691
aS'me too best moment of my life was singing with them they are so good'
p2692
aS'whos gonna save whos gonna save us tonight tonight'
p2693
aS'you know its cold when you are alone and cuddling a pillow lol'
p2694
aS'i love saturday can it be sunday'
p2695
aS'i pretty much just heard the last thing i wanted to hear haaaah'
p2696
aS'thoughts that i think all the time'
p2697
aS'itll be a good time for sure  yall can help me celebrate my new found job security p'
p2698
aS'sunday would be perfect and yes buffalo is well known for food and i know awesome places ill share '
p2699
aS'we can be friends and that way we both have 1 only need 1 more friend a piece '
p2700
aS'this is me are you me'
p2701
aS'i will get food lol'
p2702
aS'come to buffalo ny but on the weekend please that way i can go because otherwise ill be at work p'
p2703
aS'social psychology  we only need two close friends in which we can trust having too many friends is linked to depression and s\xe2\x80\xa6'
p2704
aS'virgo is the perfect lover they believe in loyalty love respect and most of all they have a very healthy sexual appeti\xe2\x80\xa6'
p2705
aS'bored and tired i want to sleep but i cant '
p2706
aS'should i buy myself a pizza when i get out'
p2707
aS'they have my favorite chips tonight'
p2708
aS'sitting in my car listening to and eating chili before i punch in for work living the life lt3'
p2709
aS'this just made me laugh way too hard lol'
p2710
aS'i hope that one day i can watch love begin again emotionalamptired'
p2711
aS'nice'
p2712
aS'shy people are more likely to express more and admit to things during late night text conversations'
p2713
aS'sometimes i want to believe in feelings again i really do'
p2714
aS'yes lets make a club '
p2715
aS'throwbackthursday late selfie'
p2716
aS'aw yay does that mean i have to whine less because i wont'
p2717
aS'just sitting in a car in gta v and listening to the talk radio lol'
p2718
aS'ill except this correction because ive watched the show for hours multiple times ha'
p2719
aS'thats a great show though'
p2720
aS'big whiny depressed baby hug'
p2721
aS'sorry'
p2722
aS'me too girl and sick so add big baby'
p2723
aS'thats what im good for lol'
p2724
aS'i should be sleeping so i can feel better but gta v'
p2725
aS'im down for a best friend  especially one that likes breaking bad'
p2726
aS'best show ever'
p2727
aS'go away cold ive got plans this weekend gasp and i want to stop coughing by then'
p2728
aS'lol'
p2729
aS'i love niagara falls'
p2730
aS'21 things you\xe2\x80\x99re sick of hearing if you don\xe2\x80\x99t watch \xe2\x80\x9cbreaking bad\xe2\x80\x9d eww'
p2731
aS'bryan cranston reads his favorite erotic fan mail aloud'
p2732
aS'scientists now say adolescence lasts until age 25 to which 25yearolds responded no it doesnt god get out of my ro\xe2\x80\xa6'
p2733
aS'were you stoked'
p2734
aS'i thought about running today and it felt almost as good as running'
p2735
aS'it kind of feels like my head is spinning ha'
p2736
aS'virgo does not play the game of love they deal with mature love only thanks'
p2737
aS' life'
p2738
aS'wow maybe i will i wont'
p2739
aS'this seems to be my rule i never date people who like good music haha'
p2740
aS'a great feeling'
p2741
aS'i kinda do'
p2742
aS'ill fight him for that title'
p2743
aS'i just want someone to cuddle with me while i am sick is that too much to ask'
p2744
aS'i will be happier than i have ever been '
p2745
aS'though virgo seems shy and introverted get them alone and you will see they are amazing thinkers'
p2746
aS'i do it for fun lol'
p2747
aS'i would make my followers a cake'
p2748
aS' lol i never did understand that term lol'
p2749
aS'virgo is more persistent than most they can deal with setbacks better than you can'
p2750
aS'maybe she thinks you are a thick cake that is fruity and lasts a really long time'
p2751
aS'im quickly reminded of why i love so much give me weed instead of roses whiskey instead of wine'
p2752
aS'some of it but im pretty stressed thats good '
p2753
aS'im good how have you been it has been a while ive been so over worked lately'
p2754
aS'i love hearing this '
p2755
aS'what is money'
p2756
aS'ive woken up to worse ashamed'
p2757
aS'i dont remember how i got to the tub lol'
p2758
aS'i had a moment of weakness '
p2759
aS'i drank so much that i passed out in the bathtub the other night im living the life'
p2760
aS'well i cant argue this '
p2761
aS'if i had some id probably be eating that lol'
p2762
aS'i love you for this  we could find them together we have lots to offer'
p2763
aS'hehehe plz move to pdx so we can find you a cute dude who will respect you'
p2764
aS'18 types of people you encounter when youre out drinking as told by breaking bad gifs'
p2765
aS'i think we established how alike we are lol'
p2766
aS'hopefully next time i will avoid hitting a mountain lol'
p2767
aS'making mac and cheese at 2 in the morning what is my life'
p2768
aS'dont ever be that guy who pulls out the guitar at a party those are the worst kind of people'
p2769
aS'i want someone who knows i\xe2\x80\x99m completely insane but wouldn\xe2\x80\x99t want me any other way'
p2770
aS'my feelings right now'
p2771
aS'twitter i dont understand why i care about you this is so silly fuck you dont go i love you'
p2772
aS'its called divorce lol'
p2773
aS'dont forget your yoga pants'
p2774
aS'if you ever need a gaming and drinking buddy let me know'
p2775
aS'oh no this halloween is going to be the worst'
p2776
aS'i got a phone call and they asked me if they woke me up nope thats just my voice because im sick '
p2777
aS'we all pick the branches that then becomes the roots lt3 this song'
p2778
aS'yeah but at that point everyone else already looks old so its fine with me lol'
p2779
aS'i woke up im the bathtub what is my life'
p2780
aS'sex  the thing that takes up the least amount of time and causes the most amount of trouble'
p2781
aS'my thoughts about this past sunday lol'
p2782
aS'who would judge that i think the general consensus is that he is the best'
p2783
aS'its a good thing i dont worry amp let my mind race in the middle of the night when i should be sleeping because that would be\xe2\x80\xa6'
p2784
aS'i want more lol'
p2785
aS'great songs are great in any form and that\xe2\x80\x99s what makes them last  will'
p2786
aS'i have two drawers full of nail polish i have a fucking problem'
p2787
aS'thank you '
p2788
aS'thank you'
p2789
aS'super sick having a coughing fit at work '
p2790
asS'2013_38'
p2791
(lp2792
S'i wont stop being an attention whore p'
p2793
aS'this is going to be one of those weeks i think yay'
p2794
aS'no'
p2795
aS'all of this makes me happy lol'
p2796
aS'virgo is always searching for greater understand and more knowledge'
p2797
aS'best way to stay awake and its cheaper'
p2798
aS'lol new jersey jets is very accurate'
p2799
aS'that will teach you about smiley faces'
p2800
aS'good thing i married myself and got a deal on my new phone so i can spoil myself'
p2801
aS'me and breaking bad probably its part of my dating application that they like it  watch it'
p2802
aS'you schooled me'
p2803
aS'i dont need to fictionalize a shitty relationship  i have plenty of ammo for that  what is reading'
p2804
aS'sundayfunday  sports and grand theft auto wooo'
p2805
aS'its because you dont think im hot  you can tell me'
p2806
aS'im hot and have a great personality and im better then shitty guys hahahahaha '
p2807
aS'i thought this was to my last tweet for a second and i thought you were mocking me lol'
p2808
aS'very nice im jealous at least'
p2809
aS'on top of my hotness i have a great personality im way too good for you and im seeing that now cockymoment'
p2810
aS'im way too hot to be sad over a guy who is a douchebag like my friend said fuck em on to the next one'
p2811
aS'and its only 105'
p2812
aS'thanks '
p2813
aS'there were no nudes i missed it at first'
p2814
aS'btw its international rabbit day celebrate by liking rose city rabbit for daily perfect bunny pics around pdx htt\xe2\x80\xa6'
p2815
aS'yeah totally the ugliest person ever not lol'
p2816
aS'hmmm i think i have both of those covered i mean im pretty awesome and i take myself on dates hahaha'
p2817
aS'lol so should that be my calling im ultra sensitive lmao'
p2818
aS'lol sounds like my life minus watching them with my mom'
p2819
aS'me too life is grand'
p2820
aS'actually it was only kind of good better  i get what youre saying though'
p2821
aS'fuck dudes ill just play grand theft auto 5 thanks'
p2822
aS'guys are the worst sorry to all my male followers your fellow males suck'
p2823
aS'why is loving bad bitches such fucking problem'
p2824
aS'why the hell was drake in marvins room to begin with'
p2825
aS'ill call my cell a smart phone the day it starts telling me dude i wouldnt send this text if i were you'
p2826
aS'me too its the worst feeling sometimes be quicker brain'
p2827
aS'i always think of the best things to say long after the conversation is over frustrating'
p2828
aS'shitty country group'
p2829
aS'of course i know lt3 lt3 lt3'
p2830
aS'give me all your issues hugs'
p2831
aS'lt3 lt3 lt3'
p2832
aS'some super smooth guy should come and sing bruno mars to me you can be off key ill just think of him anyway '
p2833
aS'happy for you sad for me lol'
p2834
aS'black black black and blue beat me til im numb tell the devil i said hey when you get back to where youre from'
p2835
aS'well i have a load and a half myself at the end of a week haha'
p2836
aS'youre next bb'
p2837
aS'wtf wtf wtf'
p2838
aS'running into that guy you have  had feelings for that told you he liked and missed you then ignored you yeah not a good feeling'
p2839
aS'theres 2 sides to every story yours is that you are an asshole i have the proof'
p2840
aS'im a smart girl who makes the wrong decisions when it comes to men'
p2841
aS'i do its how i avoid the world'
p2842
aS'good idea'
p2843
aS'someone bring me grand theft auto 5 lol'
p2844
aS'spam '
p2845
aS'100'
p2846
aS'no problem i am hilarious i know d'
p2847
aS'we all have a dumb close friend though '
p2848
aS'oh google'
p2849
aS'im in love with food'
p2850
aS'good point lol true story'
p2851
aS'lolol dont have sex youll die'
p2852
aS'lol i thought id share'
p2853
aS'lmao'
p2854
aS'idk anyone irl or no one has told me with either but i still get paranoid lol'
p2855
aS'lol oh i didnt mean it like that lol'
p2856
aS'im glad that you dont hiv or and std thatd be weird'
p2857
aS'also im really hungry'
p2858
aS'probably i dont have access there lol'
p2859
aS'a lot of shit has been happening it sucks'
p2860
aS'i feel like im wading through shit to find more shit'
p2861
asS'2014_29'
p2862
(lp2863
S'my boyfriend cant even make popcorn ha'
p2864
aS'my past experience with hospitals an surgery prevented me from telling anyone i was having surgery'
p2865
aS'i wonder'
p2866
aS'ive always wondered'
p2867
aS'dont lie dont cheat and dont make promises you cant keep'
p2868
aS'danny trejo walks into a bar this is not the beginning of a joke part of the new angel in blue jeans mv by'
p2869
aS'shoulder pain surgery sucks'
p2870
asS'2014_28'
p2871
(lp2872
S'had a guy from my past text me told him i was in a relationship he still tried to talk to me \xf0\x9f\x98\x92'
p2873
aS'will you be my girlfrien ill give you the d later'
p2874
aS'just want to listen to and feel sad i missed him because i have been severely sick \xf0\x9f\x98\xa2'
p2875
aS'when i see someone flirting with bae'
p2876
aS'people break up all the time mainly for the wrong reasons they let the smallest things tear apart something so beautifu\xe2\x80\xa6'
p2877
ag47
ag47
ag47
aS'happy 2nd anniversary im so happy for you two \xf0\x9f\x98\x8a'
p2878
asS'2014_21'
p2879
(lp2880
S'stay or go'
p2881
aS'rt if youd ever wear one of these'
p2882
aS'i need a dollar but i only have 90 cents do you want to be my dime'
p2883
aS'we and our makes me happy'
p2884
aS'tonight is going sooooo slooow i want to go home'
p2885
aS'making someone laugh when theyre feeling down can literally improve your own mood'
p2886
aS'be with someone who wont stay mad at you who cant stand not talking to you and whos afraid of losing you'
p2887
aS'round and round'
p2888
ag47
aS'we met for a reason either youre a blessing or a fucking useless piece of shit'
p2889
aS'are you a cat cause you are purrrfect'
p2890
aS'a pretty face cant hide a fucked up personality'
p2891
aS'basically my fucking life \xf0\x9f\x91\x8f'
p2892
aS'yes \xf0\x9f\x91\x8f\xf0\x9f\x91\x8f\xf0\x9f\x91\x8f'
p2893
aS'being called babe baby girl amp princess never gets old \xf0\x9f\x92\x81\xf0\x9f\x91\x91'
p2894
aS'a good morning text does not only mean good morning it also has a silent loving message that says i think of you \xe2\x80\xa6'
p2895
aS'pistanthrophobia is the common fear of trusting people due to past experiences with relationships gone bad'
p2896
aS'raises hand'
p2897
aS'if we date \xf0\x9f\x91\x8c'
p2898
aS'when bae falls asleep on you and youre just left there like'
p2899
aS'when bae starts acting up'
p2900
aS'alexithymia describes a person who has a difficult time expressing their feelings to others'
p2901
aS'i agree probably one of my favorites'
p2902
aS'if we treated physical illness like we treat mental illness pretty much'
p2903
aS'if you dont treat me right i wont stay'
p2904
aS'virgo will show you how to be a better person'
p2905
aS'\xe2\x80\x9ci should have kissed you there i should have held your face i should have watched those eyes instead of run in place\xe2\x80\x9d\xe2\x80\xa6'
p2906
aS'i love that show'
p2907
aS'this made me smile'
p2908
aS'who knows what to think anymore lt3'
p2909
aS'thats good lots of love and hugs your way from me '
p2910
aS'women generally ask questions in which they already know the answer to this is why its best to simply tell her the truth'
p2911
aS'yum i want one'
p2912
aS'maybe im too late to be your first but right now im preparing myself to be your last'
p2913
aS'i want a relationship like this \xf0\x9f\x98\x8d'
p2914
aS'im serious about your big ass'
p2915
aS'haha love it'
p2916
aS'psychology says the more loyal you are the more disappointment you encounter and experience'
p2917
aS'i want to see otown again'
p2918
aS'go with it'
p2919
aS'you know what'
p2920
aS'we all are'
p2921
aS'never trust a mirror'
p2922
asS'2014_20'
p2923
(lp2924
S'brunettes do everything better'
p2925
aS'i dont love myself but i love you'
p2926
aS'no gorilla is allowed in the back seat of any car massachusetts'
p2927
aS'you know someone means a lot to you when their mood affects yours'
p2928
aS'when bae texts first'
p2929
aS'i remember having my dad rush out and buy me this because i needed everything otown ha'
p2930
aS'the more you fear something the bigger it appears'
p2931
aS'when u had a good conversation with bae'
p2932
aS'i love phone calls at 6am but now i wish i could fall back asleep'
p2933
aS'missing someone makes it harder to fall asleep at night'
p2934
aS'the best feeling in the world is knowing that you actually mean something to someone this can literally add years to your life'
p2935
aS'while in love people typically become jealous anger easily over small things curious amp often worry about losing that individua\xe2\x80\xa6'
p2936
aS'thanks i am surprised because of how we met amp i dont know its been a short time amp hes already like my best friend '
p2937
aS'yes i have have you'
p2938
aS'the most important part of being a good boygirlfriend is being a good best friend'
p2939
aS'cats \xe2\x80\x9cheadbutt\xe2\x80\x9d people because they make them feel safe or they trust them'
p2940
aS'just kidding i love that my boyfriend seems to genuinely care about me thats a change for me '
p2941
aS'he needs to stop being so cute i swear'
p2942
aS'virgo is a sincere lover they cant make love to you if they dont feel love'
p2943
aS'once virgo finds true love they are faithful to the core'
p2944
aS'tell a virgo bullshit it will be a mistake you will regret for the rest of your life'
p2945
asS'2014_23'
p2946
(lp2947
S'i want to let go'
p2948
aS'i kinda like someone who gets jealous and protective but still trusts me'
p2949
aS'you deserve to be happy'
p2950
aS'i agree with this 100'
p2951
aS'why do people think its okay to buy you gifts when they lie to you or that you should forget they lied'
p2952
aS'not in the mood'
p2953
aS'i didnt even know that was an option in cars sounds glorious'
p2954
aS'dear guys'
p2955
aS'be straight up with me thats all i ask'
p2956
aS'fuck cancer and all these other health issues in my life though'
p2957
aS'35 of the most concerning autocorrect fails of all time'
p2958
aS'my bf is kind of cute sometimes \xe2\x98\xba'
p2959
aS'thank you '
p2960
aS'bad relationships change good people'
p2961
aS'the bad news there is no key to happiness the good news it isnt locked'
p2962
aS'there comes a time when you have to stop crossing oceans for people who wouldnt even jump puddles for you'
p2963
aS'your boyfriendgirlfriend should be your best friend who you just have really great sex with'
p2964
aS'virgo will try to perfect you and make you a better person'
p2965
aS'guaranteed \xf0\x9f\x91\x8c'
p2966
aS'your girlfriend is gorgeous and loyal why flirt with other girls why cheat its like throwing away a diamond and pick\xe2\x80\xa6'
p2967
aS'people with socially awkward personalities tend to be more loyal to their friends and faithful when in a relationship'
p2968
aS'i miss smiling i need to get into a better situation'
p2969
aS'what kind of info'
p2970
aS'if we date you can have my phone password read my texts answer my phone get on my twitter and read my dms i have noth\xe2\x80\xa6'
p2971
aS'im sick of trying'
p2972
aS'its impossible to remain angry at someone you truly love anger lasting for more than 3 days indicates that youre not \xe2\x80\xa6'
p2973
aS'being called babe or baby is just a really good feeling'
p2974
aS'i think so and yeah thats true he makes me pretty happy lol'
p2975
aS'that makes me feel better p'
p2976
aS'hahaha thats generally true'
p2977
aS'hahah its only 15 years difference p'
p2978
aS'lol okay i just feel awkward sometimes and the whole me being born in 1988 and him being born in 1990 is weird sometimes'
p2979
aS'hahaha hes 15 years younger so he definitely is i just feel weird about it sometimes i was born in 88 amp him in 1990'
p2980
aS'he just turned 24 in march and im about to turn 26 not a huge gap but still feels weird sometimes'
p2981
aS'stay positive'
p2982
ag47
aS'is it weird that im dating a younger guy lol'
p2983
aS'i met the bfs best friend so im feeling pretty good'
p2984
aS'the truth is never as painful as discovering a lie'
p2985
asS'2014_22'
p2986
(lp2987
S'are you from korea because i think youre my seoul mate'
p2988
aS'be with someone who is proud to have you'
p2989
aS'relationship goals'
p2990
aS'buffalo '
p2991
aS'im a sucker for the i miss you message'
p2992
aS'virgo likes you better if you are romantic and creative in expressing love'
p2993
aS'im super excited i need this in my life'
p2994
aS'marrying your best friend eliminates the risk of divorce by over 70 these marriages are more likely to last a lifetime'
p2995
aS'aww'
p2996
aS'yum funnel cakes'
p2997
aS'nobody appreciates a good girl until she doesnt give a fuck anymore'
p2998
aS'shit talking in an intelligent'
p2999
aS'the difference between like love and in love is the same as the difference between for now for a while and for\xe2\x80\xa6'
p3000
aS'one of my favorites'
p3001
aS'i love you too'
p3002
aS'yay thank you '
p3003
aS'rt if olive garden breadsticks have impacted your life in a positive way'
p3004
aS'i wish i could go '
p3005
aS'virgos are stupid for love'
p3006
aS'i can\xe2\x80\x99t wait to move in with someone and cook for them and own dogs and watch movies and have a liveinbestfriend who \xe2\x80\xa6'
p3007
aS'i wish someone would bring me popeyes once in a while'
p3008
aS'i wish someone loved me p'
p3009
aS'i want real'
p3010
aS'the sudden moments'
p3011
aS'i love this dog so much'
p3012
aS'do you ever write a really long message and about halfway through youre like you know what they dont even care an\xe2\x80\xa6'
p3013
aS'but sadly i was born in the era where a good morning text is considered the most romantic gesture ever'
p3014
aS'its funny how you can do nice things for people all the time and they never notice but once you make one mistake its never forg\xe2\x80\xa6'
p3015
aS'i like it i want it'
p3016
aS'dont come into my life unless you want to stay'
p3017
aS'the worst feeling is feeling unwanted'
p3018
aS'the 3 rules of a relationship dont lie dont cheat and dont make promises you cant keep'
p3019
aS'unfortunately i cant make you love me the way i love you \xf0\x9f\x98\x94'
p3020
asS'2014_25'
p3021
(lp3022
S'virgo will only open up to those closest to them and are hurt deeply if criticised by those very same people'
p3023
aS'sometimes holding on makes us strong but other times it is letting go never hold on for too long know when its time t\xe2\x80\xa6'
p3024
aS'if you don\xe2\x80\x99t use an empty house to sing obnoxiously and off key in your underwear you are doing life wrong'
p3025
aS'virgos are good with details and especially good with money'
p3026
aS'im so hungry but my stomach hurts'
p3027
aS'some people are actually afraid of being too happy because they think something tragic is going to happen soon this is \xe2\x80\xa6'
p3028
aS'the female mind has the unique ability to remember everything it experiences especially things that trigger an emotiona\xe2\x80\xa6'
p3029
aS'on sunday the website turns 13 we cannot believe how long its been already thanks to everyone who has helped us in any\xe2\x80\xa6'
p3030
aS'virgo is a realist'
p3031
aS'falling in love is not a choice to stay in love is'
p3032
ag47
aS'live right now yeah just be yourself it doesnt matter if its good enough for someone else jimmy eat world the \xe2\x80\xa6'
p3033
aS'love meant that you care for another persons happiness more than your own no matter how painful the choices you face migh\xe2\x80\xa6'
p3034
aS'i will never stop trying because when you find the oneyou never give up crazy stupid love'
p3035
aS'a date where we can get all dressed up like this would be lovely'
p3036
aS'go for someone who is not only proud to have you but will also take every risk just to be with you'
p3037
aS'im not happy right now'
p3038
aS'cuddling in bed and falling asleep is probably the best feeling in a relationship'
p3039
aS'u can only bring sexy back if u have the receipt'
p3040
aS'boys are so dumb like they could stab you in the face with a knife and be like whats wrong why are you mad what did i do'
p3041
asS'2014_24'
p3042
(lp3043
S'never lie to someone who trusts you and never trust someone who lies to you'
p3044
aS'im so hungry \xf0\x9f\x98\xa9\xf0\x9f\x98\xa9\xf0\x9f\x98\xa9'
p3045
aS'women generally care more within a relationship but are also more likely to walk away and stay away once reaching a breaking poin\xe2\x80\xa6'
p3046
aS'this the saddest thing i have ever seen'
p3047
ag47
aS'this is so relevant'
p3048
aS'age has no direct link to life experience and maturity you may be young but youve already been through a lot'
p3049
aS'my kind of diet'
p3050
aS'i agree i never put pics with my kid or involving them on mine its weird and idk not a good idea'
p3051
aS'i se'
p3052
aS'do you ever just look at me and just think that im beautiful every morning gtlt'
p3053
aS'dont take a good woman for granted someday someone will come along and appreciate what you didnt'
p3054
aS'everyone needs to read this \xf0\x9f\x91\x8f'
p3055
aS'homer simpson is so on point \xf0\x9f\x91\x8f'
p3056
aS'onerepublic'
p3057
aS'muse'
p3058
aS'do not let your dreams always be dreams'
p3059
aS'pretty much sums it up'
p3060
aS'i wish i didnt have all this pain in my stomach and that i could actually eat a meal'
p3061
aS'fear'
p3062
asS'2014_27'
p3063
(lp3064
S'seriously so true'
p3065
aS'aw 823 is my birthday too '
p3066
aS'psychologically damaged people are the strongest bc they know they can survive anything pain strengthens the mind'
p3067
aS'lying to yourself about how you truly feel is heavily associated with depression not accepting the truth is what make\xe2\x80\xa6'
p3068
aS'i have to see again in lewiston ny next week'
p3069
aS'heartbroken i guess i just dont deserve happiness or love'
p3070
aS'instagram is just twitter for people who go outside'
p3071
aS'not trying to brag but it\xe2\x80\x99s 915am and i was just told that the club can\xe2\x80\x99t even handle me right now  will'
p3072
aS'happiness'
p3073
aS'every relationship has its problems but what makes it strong is when you still want to be in it when everything sucks'
p3074
aS'a true relationship is when you can tell each other anything and everything no secrets and no lies'
p3075
aS'what a fucking joke'
p3076
asS'2014_26'
p3077
(lp3078
S'a virgo is quick to make breakfast pay the bills hold down the home but dont cross them theyre quick to tear you\xe2\x80\xa6'
p3079
aS'i just want to eat pizza every day'
p3080
aS'simple things make me happy \xe2\x98\xba'
p3081
aS'the worst person to be around is someone who complains about everything and appreciates nothing'
p3082
aS'all these vehicles and we still arent getting anywhere'
p3083
aS'i just want someone who actually gives a shit about me and treats me like i matter for more than a few months'
p3084
aS'its kinda cute when a guys a little crazy about a girl'
p3085
aS'57 of people talk to people more online than they do in real life'
p3086
ag47
aS'well if i was going to go to work drunk that would be the job'
p3087
aS'same here lol'
p3088
aS'yes yes yes \xf0\x9f\x99\x8c'
p3089
as.