(dp0
S'2013_42'
p1
(lp2
S'is it just me or do i have to many blue things\xf0\x9f\x98\x95'
p3
asS'2013_40'
p4
(lp5
S'unexpected curls'
p6
aS'when cant the preorder of midnight memories be like avril lavignes cd \xf0\x9f\x98\xa1'
p7
aS'just another ordinary day'
p8
asS'2013_41'
p9
(lp10
S'i just dont like wearing tight clothing'
p11
asS'2013_46'
p12
(lp13
S'when you do cuddle with him \xf0\x9f\x98\x8d'
p14
aS'i keep running in to people i know'
p15
aS'i have no fear when im with you'
p16
aS'cant wait to give you your birthday present'
p17
aS'i think id have a heart attaaaaaaaaccckkk dead soexcited'
p18
aS'never'
p19
aS'haha '
p20
aS'if a girl is silent its dangerous shes either'
p21
aS'lmao'
p22
aS'true \xe2\x9d\xa4'
p23
aS'after when you stole my friend '
p24
aS'it sounds good '
p25
aS'i wish \xf0\x9f\x98\x98'
p26
aS'i need you'
p27
aS'dont'
p28
aS'i would'
p29
aS'i love'
p30
aS'\xf0\x9f\x91\x8c'
p31
aS'basically'
p32
aS'me every morning'
p33
asS'2013_47'
p34
(lp35
S'mtvstars one direction mtvstars one direction mtvstars one direction mtvstars one direction mtvstars one direction'
p36
aS'sitting in class like'
p37
aS'1dday dct3 1 storyofmylife 2 rightthere 3 letitgo'
p38
aS'i wanna play twister with someone really hot oops i fell amp touched your whole body'
p39
aS'i really worry about which selfie my family would put on the news if i ever went missing'
p40
aS'lets play \xe2\x80\x9chow rude can i be until u realize i dont like u\xe2\x80\x9d'
p41
aS'parents want u to be outgoing amp do fun stuff with friends but also want u home by 11 amp not high on meth like c\xe2\x80\x99mon on mom\xe2\x80\xa6'
p42
aS'storyofmylifefollowparty \xf0\x9f\x92\x84rt \xf0\x9f\x92\x84follow me \xf0\x9f\x92\x84ill follow back ask \xf0\x9f\x92\x84follow all who rts \xf0\x9f\x92\x84gain \xf0\x9f\x92\x84followtrick'
p43
aS'miley is so pretty \xf0\x9f\x92\x95'
p44
aS'when someone keeps looking at you'
p45
aS'you know youre attached'
p46
aS'mom im sick i think i need to go to the doctor'
p47
aS'me with haters'
p48
aS'happy friday tgif happyfriday '
p49
aS'midnightmemoriesfollowparty storyofmylifefollowparty \xf0\x9f\x8d\xad rt this \xf0\x9f\x8d\xacfollow me \xf0\x9f\x8d\xad \xf0\x9f\x8d\xacfollow everyone that rts gain \xf0\x9f\x8d\xachelp me \xe2\x80\xa6'
p50
aS'is it just me or is one direction just the most awesome perfumer \xf0\x9f\x8e\xa4'
p51
aS'harry styles vs justin bieber harry  rt justin  fav'
p52
aS'893 one direction vs jonas brothers best photoshoot rt for 1d fav for jonas'
p53
aS'niall horan vs harry styles rt  harry fav  niall'
p54
aS'harry styles vs demi lovato harry  rt demi  fav'
p55
aS'justin bieber vs harry styles harry  rt justin  fav'
p56
aS'891 ariana grande vs mitchel musso best holding a heart rt for ariana fav for mitchel'
p57
aS'890 miley cyrus vs victoria justice best photoshoot rt for miley fav for victoria'
p58
aS'884 miley cyrus vs max george best wink rt for miley fav for max'
p59
aS'883 harry styles vs nathan sykes best singer rt for harry fav for nathan'
p60
aS'881 miley cyrus vs taylor swift best touching hair rt for miley fav for taylor'
p61
aS'878 little mix vs victoria justice best shoot with candies rt for little mix fav for victoria'
p62
asS'2012_10'
p63
(lp64
S'whats up peeps how to rock a news cast premiers this saturday dont mis it '
p65
aS'what '
p66
aS''
p67
aS'your welcome'
p68
aS'i saw the video  i want to be your subject a person in control of someone else ha ha'
p69
aS'hey'
p70
aS'loves you too selena gfans1'
p71
aS'i am so a fan of selena gomez'
p72
aS' when is the ustream i want to see it just askinglol p'
p73
asS'2013_45'
p74
(lp75
S'i love this baby picture if'
p76
aS'love hello kittyby avrillavigneonitunesnow'
p77
asS'2013_48'
p78
(lp79
S'i hate when you have to be nice to someone you really want to throw a brick at'
p80
aS'parents problems friends fakes love crush dating responsibility drama heartache failures stress happiness i\xe2\x80\xa6'
p81
asS'2012_12'
p82
(lp83
S'ohnot me my friend'
p84
aS'gonna watch the hunger games tomorrow i hope i love it perf power got to go sleep matanee 1120 am'
p85
aS'i loved it yeah yep awesome'
p86
aS'i do'
p87
aS'and that was hilarious barbies with eagle or pigeon'
p88
aS'i loved it best one yet more to come'
p89
aS'it was two things funny and awesome i loved it like always'
p90
aS'today is the all new how to rock rt if you are going to watch it   p tomorrow is the all new shake it up rt if u r going to c'
p91
aS'hey joyand rocky who rafael keeps staring at'
p92
aS'who likes or loves aksquared what will you be when you grow up a '
p93
aS'i am how to rock a prank night'
p94
aS'is how to rock the best show on nick explain'
p95
aS'who is the best and hottest nickelodeon star  how will sibuna mysteries appear mystericly on nick '
p96
aS'hey i am making a fun game you want to play or i can just tweet it and someone answers'
p97
aS'when a girl is in love u can see it in her smile when a guy is in love u can see it in his eyes rt if u think th '
p98
aS'heydo you want to play a game a fun one'
p99
aS'hey im bella thorne from shake it up and your watching disney channel rt if you read that in her voice'
p100
aS'you guys want to play starts in 2 minutes'
p101
aS'does anybody want to play my fun game'
p102
aS'omg how is the hunger games so pop '
p103
aS'i am making a game whom wants to play i mean who'
p104
aS'hey max  i hope you have an amazing saturday so excited for the new how to rock d'
p105
aS'good night perf power max schneider monkey lulu fan bellarina and zswaggers all the things i want to be called by'
p106
aS'yeo'
p107
aS'my friend loves that song he is a boy'
p108
aS'3 more followers for '
p109
aS'hi perf power ready for prank night'
p110
aS'sorry me and my friend havent been on for a long time i was busy with a friend of mine'
p111
asS'2012_14'
p112
(lp113
S'i changed my username from into'
p114
aS'300 followers for my friend'
p115
asS'2013_35'
p116
(lp117
S'why is my mom like that i cant believe her \xf0\x9f\x98\xa1'
p118
asS'2013_34'
p119
(lp120
S'voteonedirection'
p121
asS'2013_6'
p122
(lp123
S'cute little nialler'
p124
aS'yay honor roll in my school'
p125
asS'2013_16'
p126
(lp127
S'i have no idea what to wear for picture day mood grumpy'
p128
asS'2012_35'
p129
(lp130
S'day 2 out of 7 in my week in follows im about to follow another hundred random people now who wants one x'
p131
asS'2012_11'
p132
(lp133
S'cece is prettier totes pretts'
p134
aS' i loved it you guys were funny yeah we should do it again'
p135
aS'i would die if i win this thing to all the bellarinaamp39s out there who wants to win this thing'
p136
aS'and stevie and molly for the 1st time are actually getting along like vanilla and dark chocolate'
p137
aS'night '
p138
aS'could or could not be dating '
p139
aS'sure'
p140
aS'i agree that you guys are the vest rockinamp39 couple of course you guys know how 2 hold it down '
p141
aS'ttylxox siu'
p142
aS'i seriously want to be your bff if you were my bff i would do anything for you seriously'
p143
aS'heyyyy hi '
p144
aS'ok i will'
p145
aS'thatamp39s very sad when was that news come along'
p146
aS'bellaamp39s amplt3 broken'
p147
aS'omg bellaamp39s amplt3 got broken '
p148
aS'i did'
p149
aS'cool'
p150
aS'it'
p151
aS'hey hey hey first i want to tell you guys about my friend her and a boy had been like friends or best friends itamp39s so weird but worth'
p152
aS'are you guys like hanging out all the time my friend and a boy is doing the same thing'
p153
aS'really what game are you guys talking about'
p154
aS'i can be a little rude'
p155
aS'good night guys'
p156
aS'what '
p157
aS'and  what game are you guys talking about  reply'
p158
aS'sweet i love it'
p159
aS' what is it '
p160
aS'who is the winner'
p161
aS'friend'
p162
aS' if i were to be emmaamp39s best friend i would tell her in fashionable clothes and pretty face if you want to be my best'
p163
aS'perf power amp39poseamp39'
p164
aS'what channel'
p165
aS'who is a fan of bella thorne max schneider lulu antariksa and selena gomez reply to'
p166
aS'i do not like rafa alyssa does ps alyssa this is my tweeter not yours'
p167
aS'hey hey vote for selena gomez on the kcu kids choice'
p168
aS'oh one more thing jhoana doesnt like rafael she loves him proof is at my school tomorrow'
p169
aS'hey peeps ttylxox rocks d'
p170
aS'hey this is so fun i just wish some of my friends has tweeter ps i am not in a relationship with josiah alyssa just said that'
p171
aS'who here knows how to sign out of'
p172
aS'oh yeah bbkof means quotbest boy kind of friendquot'
p173
aS'my frenemy became my best friend  alyssa my frenemy became my bbkof  lol'
p174
aS'what39s up to all 39schneider monkeys39 and 39lulu fans39  '
p175
aS'if i were in new york i would be lucky enough to see 2 of the best characters on how to rock and'
p176
aS'and are you guys like best friends  p'
p177
aS' i loved the ttylxox and something to dance for mashup me and my friend and someone else loved it too'
p178
aS' are you really in new york right now if you are my friend could possibly see you '
p179
aS'hey hey i love tweeter this is cool '
p180
asS'2012_13'
p181
(lp182
S'ttylxoxxoxoxoxo xox'
p183
aS'happy early bday  jhoana your biggest fan not kat'
p184
aS'can i go up to 50 followers and i will follow back'
p185
aS'hi grace big perf fan i love how you pose gtlt it could look like this'
p186
aS'caption this and win a tshirt rt'
p187
as.