(dp0
S'2013_43'
p1
(lp2
S'salman was not at all fair gauhar is the best contestant and i wish she wins bb7'
p3
aS'hi nigaar i really like your sis gauhar in bb7 she is playing well thr i wish she wins bb7'
p4
aS'salmaan and bigg boss team is clearly favouring tanisha kushal n gauhar u rock'
p5
aS'clearly yessss'
p6
aS'salman wots wrong with u y r u supporting tanisha even whn she is wrong in bigg boss house'
p7
aS'salmank is clearly supportin tanisha just coz she comes frm kajol familyso its salman who is spoiling his image n nt kushal'
p8
asS'2013_46'
p9
(lp10
S'bb7 ofcourse arman changed her mind'
p11
aS'yes ofcourse it is'
p12
aS'robert vadra 2g cwg onion tomato  where will this all end  its ends with aap joinaapindelhi this december'
p13
aS'joinaapindelhi \xe0\xa4\x85\xe0\xa4\x97\xe0\xa4\xb0 \xe0\xa4\x95\xe0\xa5\x81\xe0\xa4\x9b \xe0\xa4\xac\xe0\xa4\xa6\xe0\xa4\xb2\xe0\xa4\xa8\xe0\xa4\xbe \xe0\xa4\xb9\xe0\xa5\x88'
p14
aS'evry1 is responsible'
p15
aS'uncensored elli has a protective bodyguard gt'
p16
aS'aap4transparency how about congress bjp  funding ticket distribution dynasty  peopleschoice aap'
p17
aS'aap4transparency how about congress bjp  funding ticket distribution dynasty  ihopefor aap'
p18
aS'bb7 so candy u think it ws bbs right decision'
p19
aS'the people of the country have the right to know about the ppl who rule them aap4transparency'
p20
aS'aap has started a new trend of honest politics in india let the honesty prevail vote for aap vote for better future a\xe2\x80\xa6'
p21
aS'bb7 u r right candy but did tanisha followed dat'
p22
aS'classic twitter praise for debate on govt targeting aap criticism for raising modis history gaffes'
p23
aS'despite no real power aap amp arvind kejriwal have been a much better opposition than bjp4delhi'
p24
aS'bb7 he has done dat 4 almst evr1 in d house'
p25
aS'is salman watching these exclusive videos abt the contestants he says aloud tht they playing right  indeed they r bb7'
p26
aS'we want 2 support u arvind ji pls tell us hw can v do it'
p27
aS'look wot sangram is doung'
p28
aS'uncensored sangram bitches about gauahar gt think he is losing his cool too bb7'
p29
aS'plz do support at this crucial time of election u can visit website or here is the direct link'
p30
aS'i am following aap on twitter how to donate money i cn ask my frens also to donate money for aap'
p31
aS'bb7we support u gauhar'
p32
aS'no he is nt he is clearly targeting gauhar'
p33
aS'retweet and show your support its my birthday todat dont say no '
p34
aS'pls let us know how v can support u'
p35
aS'aapsweepingdelhi \xe0\xa4\x9c\xe0\xa4\xbf\xe0\xa4\xa8\xe0\xa4\x95\xe0\xa5\x87 \xe0\xa4\x98\xe0\xa4\xb0 \xe0\xa4\xb6\xe0\xa5\x80\xe0\xa4\xb6\xe0\xa5\x87 \xe0\xa4\x95\xe0\xa5\x87 \xe0\xa4\xb9\xe0\xa5\x8b\xe0\xa4\xa4\xe0\xa5\x87 \xe0\xa4\xb9\xe0\xa5\x88 \xe0\xa4\xb5\xe0\xa5\x8b \xe0\xa4\x95\xe0\xa5\x89\xe0\xa4\x82\xe0\xa4\x97\xe0\xa5\x8d\xe0\xa4\xb0\xe0\xa5\x87\xe0\xa4\xb8 \xe0\xa4\xaf\xe0\xa4\xbe \xe0\xa4\xac\xe0\xa5\x80\xe0\xa4\x9c\xe0\xa5\x87\xe0\xa4\xaa\xe0\xa5\x80 \xe0\xa4\x9c\xe0\xa5\x8b\xe0\xa4\x87\xe0\xa4\xa8 \xe0\xa4\x95\xe0\xa4\xb0 \xe0\xa4\xb2\xe0\xa5\x87\xe0\xa4\xa4\xe0\xa5\x87 \xe0\xa4\xb9\xe0\xa5\x88 cleanmoney4aap'
p36
aS'dont worry gau v all r wid u v no u r a strong girl'
p37
aS'rt if u agree'
p38
aS'votee for gauhar all her fans who love her vote for gauhar common she shud get d highest votes eva vote for g\xe2\x80\xa6'
p39
aS'bb7 bcoz salman doesnt likes kushal and gauhar is his friend simple'
p40
aS'bb7 yes he did bt he still din clear his supprt 4 tanisha whn she pushd kushalif tan ws rght den y ws kushal wrng'
p41
aS'bb7 bigg boss if it was bb1 2 3 4 5 or 6 i wud hav chosen but he z nt one of my fav anymore '
p42
aS't1 angry kajol and her family ignored tanisha on diwali and sends no greetings or messages when they were requested by b\xe2\x80\xa6'
p43
aS'rt the name weekend ka wow with salman ke saath should be replaced with weekend ka badla wth gauhar amp kushal u\xe2\x80\xa6'
p44
aS'seriously if u dont like plz dont watch even if 1 family member does not like it the rest shld respect that n chan\xe2\x80\xa6'
p45
aS'ur humorous side is fun 2 watch but dis time u r unfair 2 sm of d contestans on the show dnt know y'
p46
asS'2013_47'
p47
(lp48
S'bb7 sooo cute'
p49
aS'bb7 because he is nt a bad person like tanisha armaan or '
p50
aS'bb7 he actually lost 2 ellie apni haar chupane k liye kuch to story bolega'
p51
aS'bb7 never'
p52
aS'bb7 sangram shud b nominated'
p53
aS'kushal amp gauhar reunited gauhar cant seem to control her happiness on seeing kushal can you bb7'
p54
aS'bb7 kushals entry of course in bb house'
p55
aS'spoiler kushalisback on rt if you cant wait to watch him bb7'
p56
aS'omg kushal is back wow cant wait till 9pm today'
p57
aS'bb7 shame on tanishaif its true tanisha proved her class'
p58
aS'bb7 waiting to c him enter d house '
p59
aS'breaking hot news kushal entry pushed by a day to thursday due to this'
p60
aS'bb7 ofcourse they shouldnt hav sold her pic gauhar is being targeted again'
p61
aS'i guess its a joke again'
p62
aS'tanisha is armaans chamchi and bb is armaans n tanishas chamchalolso wtevr arman does is alwys justified'
p63
aS'gauhar no doubt'
p64
aS'ajaz nd andy'
p65
asS'2013_44'
p66
(lp67
S'tanisha is a looser'
p68
aS'nothing more can b expected frm tanisha'
p69
aS'what rubbish explanation did he gave n v still hvnt got d ans for y tanisha ws nt askd 2 leave d house 4 pushing kushal'
p70
aS'not at allsalman was talking all non sense stuff'
p71
aS'salman v want ans 4 4 just 1 thing y ws tanisha nt sent out of d house whn she pushed kushal'
p72
aS'dont go 2 lucknow go to d bb house plzzzz'
p73
aS'what with his gf elena who is elena '
p74
aS'if salman is still biased towards tanisha thn sorry v r nt waiting 4 him 2 spk on this matter'
p75
aS'andy u r wrong wo sirf ye keh rahi hain ki agar tanisha ko ghar se nahi nikala to kushal ko kyo nikala'
p76
aS'i am wid gauhar'
p77
aS'but ghar se bahar nikala to nahi na yehi to partiality ki hai bb ne'
p78
aS'it can not b counted lol'
p79
aS'andy its u who has lost his izzat'
p80
aS'so wots wrong in this he was'
p81
aS'we want kushal bak in bb house'
p82
aS'want kushal bak in d house plzzzzzz'
p83
aS'so glad dat gauhar is bak in d housekushal shud b bak 2'
p84
aS'kushal shud b bck in d house othrwise bb decision wud b biased'
p85
aS'ofcourse he should wot he did ws absolutely wrong'
p86
aS'she is comming bak on d condition dat kushal will also b bak'
p87
aS'salman y dnt u declare tanisha as d winner of bb7'
p88
aS'thn wot is tanisha doin in d bb house salman does nt deserves 2 host d show'
p89
aS'we all r proud of her evry word spoken by hr n evry action taken by hr in bb house is justified'
p90
aS'bb ws again biased by nt showing d kissing scene betwn arman n tanisha'
p91
aS'whoevr enters now the show is so boring widout kushal n gauhar'
p92
aS'respect 4 gauharwhtevr she said 2 bb ws absolutely rght this shd hav happd wid tanisha last wkhow unfair'
p93
aS'andy should also go arman should also go'
p94
aS'if kushal is leaving then tanisha should also go bb not fair at all'
p95
aS'gauhar should nt leave nor should kushal'
p96
aS'gauhar drama queen wot rubbish she is d best contestant in d show'
p97
aS'he sould be back in d house along wid gauhar'
p98
aS'i support kushal n gauhar'
p99
aS'tanisha was nt punished for pushing kushal so shouldnt b kushalsimple'
p100
aS'wow how fair was dat kushal is asked to leave if he holds andys neck n tanisha is supported for pushing kushal'
p101
aS'sorry andyno vote for andy'
p102
aS'yess absolutely classless act by andy'
p103
aS'absolutely pratyusha is thaali ka baingan'
p104
aS'pratyusha should hav gone'
p105
asS'2013_45'
p106
(lp107
S'bb7 i do '
p108
aS'bb7 any1 wud '
p109
aS'hw cn she say thsshe hrself pushd kushal thrice in the house'
p110
aS'just bcoz gauhar supports kushal salman is targeting gauharhow unfair'
p111
aS'u r loosing respect salmankdont b biased dnt lie ki ye hindustan bol raha haiomg pls'
p112
aS'gauhar ws right den n will remain so hr decision 2 return 2 d house ws so absolutely right'
p113
aS'bb7 kushals return to d house wd b a tight slap on tanishas facewill love it '
p114
aS'bb7 tanisha ovr reactd to it she picks up fight evry1 who is on gauhars side'
p115
aS'ellie is spineless n sophia is brainless'
p116
aS'andysphiaellie will realise soon dat dey r in d wrng compnytanisha is playin a bad game'
p117
aS'ha ha ha best joke'
p118
aS'r u going bak 2 d bb house gr8 if its true'
p119
aS'yes she is d best person in d bb house'
p120
aS'gauhar always tries to understand n solve everyone issues n makes sure she is not partial  bb7'
p121
aS'yes she never lies'
p122
aS'just like manmohan singh lol'
p123
aS''
p124
aS'ajan khan shud stay'
p125
aS'v want hr out but bb team n salman k will nt let dat happen they r partial 2wards tanisha'
p126
aS'lol how right u r'
p127
aS'wewantkushalback'
p128
aS'coz wtevr happend 2 him ws unfairtanisha ws nt askd 2 leave d house 4 hr violence thn y shd kushal b out'
p129
aS'really bt i just read 1 of his tweets saying dat as of now hez nt entering bb house'
p130
aS'ha ha ha so true'
p131
aS'oh no but wot was done 2 u ws not fair so u shud b bak in d house'
p132
aS'wot else can arman do shout scream n abuse'
p133
aS'ha ha ha good one'
p134
aS'even i think they will b good frens'
p135
aS'apoorva u r right it ws kushals decision to stand 4 gau n his decision ws absolutely right'
p136
aS'bcoz salman ws wrong he apologised gr8 appreciate his step'
p137
aS'so rght u r thr r so many othr celebrities who r more than dis'
p138
aS'kushal v want u bck in d house'
p139
aS'tanisha will b more jealous than andy if kushal comes bck'
p140
aS'bb get kushal bck in bb house n prove dat u wr nt biased'
p141
aS'yes absolutely right'
p142
aS'tanisha if u do dat dat wud b d ur only wisest decision in bb house p'
p143
aS'no'
p144
aS'ha ha ha joke of d century'
p145
as.