(dp0
S'2014_6'
p1
(lp2
S'want the formula to a healthy relationship here you go'
p3
aS'i want to know your opinions are tattoos okay replytweet'
p4
aS'so set a fire down in my soul that i cant contain and i cant control i want more of you god'
p5
aS'if yall wanna laugh your butts off look up gary owen 1st amendment on youtube you are welcome'
p6
aS'changed my avi guys thoughts btw its my smile'
p7
aS'its hard being a christian but gods reward for you is much greater than any human can take away from you'
p8
aS'i just love these things'
p9
aS'just wait youll realize he has all the plans for you'
p10
aS'2 yes i have self harmed but since i accepted christ as my savior i realized that cut on my skin wont solve any problems'
p11
aS'1 yes i have scars one above my eye one on my leg and some on my wrists'
p12
aS'might as well for you guys to get to know me \xe2\x98\xba\xef\xb8\x8f'
p13
aS'jesus god pray'
p14
aS'god has wrapped his arms around me and changed me on the greatest way possible'
p15
asS'2014_7'
p16
(lp17
S'nights like these i just break'
p18
aS'please pray for me guys im having a real rough night tonight'
p19
aS'sorry i havent been on lately ive been so caught up in school and life its ridiculous'
p20
aS'im always a dm away for any of you \xe2\x98\xba\xef\xb8\x8f'
p21
asS'2014_5'
p22
(lp23
S'smile you never know whos falling in love with it \xe2\x98\xba\xef\xb8\x8f\xf0\x9f\x92\x9c'
p24
aS'did you act in a way jesus would be proud today'
p25
aS'all i wish to accomplish with this account is to put a smile on just one persons face that would make me happy'
p26
aS'me soon as i get in the house'
p27
aS'every single one of you are beautiful handsome god even said so \xe2\x98\xba\xef\xb8\x8f'
p28
aS'i hope yall had an awesome day and made the most of it \xe2\x98\xba\xef\xb8\x8f'
p29
aS'im seriously like a little girl on christmas when i find out someones a christian'
p30
aS'when i find out someone loves jesus'
p31
aS'simply retweet this and bell will donate 5\xc2\xa2 towards mental illness programs you could help save someones life bell\xe2\x80\xa6'
p32
aS'dont look to your left and right for guidance in terrible times look down at your bible to raise your head up to god'
p33
aS'guys who express their love for jesus openly are so so attractive \xf0\x9f\x98\x8d\xf0\x9f\x98\x8d\xf0\x9f\x92\x9e'
p34
aS'guys who love jesus gtgt \xf0\x9f\x98\xad\xf0\x9f\x98\xad\xf0\x9f\x92\x95\xf0\x9f\x92\x95\xf0\x9f\x92\x95\xf0\x9f\x98\x8d\xf0\x9f\x98\x8d\xf0\x9f\x98\x8d'
p35
aS'ladies and gents chase after god as fast as you can the people who keep up are the ones you need in your life'
p36
aS'its ridiculous '
p37
aS'having a bad day go out and compliment people itll make their day and make you feel 100 times better'
p38
aS'what are the odds you will  ylgame'
p39
aS'antarctica can have its weather back ohio doesnt want it anymore \xf0\x9f\x99\x85\xf0\x9f\x99\x85'
p40
aS'i have a surprise once i get to 100 '
p41
aS'no dont follow your heart the bible says the heart is deceitful above all things jeremiah 179 follow jesus no\xe2\x80\xa6'
p42
aS'but forreal why wasnt on the grammys he couldve easily beat out macklemore'
p43
aS'just a daily reminder for my followers \xe2\x98\xba\xef\xb8\x8f'
p44
aS'in the end itll all be okay if its not okay its not the end'
p45
aS'8 perfect date is go paintballing then out for pizza im into ambitious guys surprise me \xf0\x9f\x98\x8f'
p46
aS'knowyouranon go ahead im an open book \xe2\x98\xba\xef\xb8\x8f'
p47
aS'i actually cant wait to get married we are going to be so fun together and in love \xe2\x9d\xa4\xef\xb8\x8f'
p48
aS'love it when my music shuffles from tenth avenue north to maroon 5 its perfect'
p49
aS'remember jesus is just a prayer away'
p50
aS''
p51
aS'dear single christians'
p52
aS'jesus loved you enough to die for your sins praise him worship him like no other'
p53
aS'is it hot in here or is that just the holy spirit burning inside you \xf0\x9f\x98\x8f christianpickuplines'
p54
aS'john 843 jesus is so sassy'
p55
aS'when satan tryna get involved in yo life u be like'
p56
aS'alright followers 15 favorites and ill do a smile picslip '
p57
aS'ummm hey boy i heard jesus called you mind if i do the same \xf0\x9f\x98\x80'
p58
aS'never be ashamed of your faith jesus will dois doing way more for you than any of your peers'
p59
aS'\xf0\x9f\x91\xab  \xe2\x98\x9d\xef\xb8\x8f  \xe2\x9d\xa4\xef\xb8\x8f'
p60
aS'when you find that person god made for you youll finally realize why previous relationships didnt work'
p61
aS'ifwedate youll have to love jesus as much as me he will be the center of our relationship'
p62
aS'snow ice cream is delish you all should make it '
p63
aS'anything you praise more than jesus is an idol dont have idols'
p64
aS'how great is our god'
p65
aS'jesus can save anybody that includes homosexuals compulsive liars murderors and thieves get that through your head'
p66
aS'let jesus break your heart'
p67
aS'i always love a good worship \xf0\x9f\x98\x8c'
p68
aS'god knew what he was doing with you before you were born dont ever think your life is a mess youre exactly where he wants you to be'
p69
aS'amazing story'
p70
aS'yourgodiswithyou hewillguideyou hewillprotectyou'
p71
aS'truth amp i thought of this haha x'
p72
aS'lord i pray that all who is unsaved will repent and become saved amp ready for heaven in jesus name amen teamprayer'
p73
aS'the need for more flannels scarves and cardigans is a lot right now'
p74
aS'my friends brother has cancer and isnt expected to make it very much longer please pray for him and h\xe2\x80\xa6'
p75
aS'the second best feeling was being reborn again the best feeling is knowing jesus loves me everyday'
p76
aS'speaks for itself'
p77
aS'ifwedate god will be at the center of our relationship\xe2\x9d\xa4\xef\xb8\x8f'
p78
aS'im curious are any of my followers involved in their countys younglife'
p79
aS'love everyone even those who are mean nasty people pray for those people the most they really need gods undying love'
p80
aS'if i ever saw a boy wearing a purity ring my heart would just melt'
p81
aS'whenihaveafamily i want my kids to know they are always my 1 priority besides christ that i was always there not at a\xe2\x80\xa6'
p82
aS'youre the sons and daughters of the king you are royalty if thats not a mood changer i dont know what is'
p83
aS'a relationship with christ is more important than a relationship with a significant other'
p84
aS'its not about you its about our lord and savior jesus christ'
p85
aS'knowyouranon im actively involved in younglife and it has changed my life so much'
p86
aS'bless the lord o my soul o my soul'
p87
aS'your love never fails it never gives up it never runs out on me'
p88
aS'agreed whole heartily'
p89
aS'my god is mighty to save'
p90
aS'this just came on my pandora '
p91
aS'all aboard christianfollowtrain this train is bound for glory jesus is the conductor 1 retweet 2 follow christian br\xe2\x80\xa6'
p92
aS'how are you guys doing lately i wanna get to know my followers replytweet'
p93
aS'i give you all of me for all you are here i am take me apart well take me apart '
p94
aS'pray about everything nothing is too big or too small \xf0\x9f\x99\x8f'
p95
aS'you are never alone god sees you crying struggling and he is still holding you in his arms i promise you'
p96
aS'do not download flappy bird retweet to save a life'
p97
aS'my heart will sing no other name jesus jesus \xf0\x9f\x99\x8c\xf0\x9f\x99\x8f\xf0\x9f\x92\x9e'
p98
aS'hey yall give a follow an amazing account just getting started\xf0\x9f\x92\x9e\xf0\x9f\x92\x9e'
p99
aS'hi guys im new here just inspired to tweet my thoughts and spread jesus to all the corners of the world get me some followers aye \xe2\x98\xba\xef\xb8\x8f'
p100
asS'2014_8'
p101
(lp102
S'thank you so so much'
p103
aS'i pray you release everything to the lord that he gives you peace that passeth all understanding and gives st\xe2\x80\xa6'
p104
aS'im stressing over school and just life in general and it finally got to me'
p105
aS'i was doing so well but i broke down tonight please pray for me'
p106
aS'boys are frustrating ya feel me'
p107
asS'2014_9'
p108
(lp109
S'thank you so much '
p110
aS'thank you '
p111
aS'thank you so much \xe2\x98\xba\xef\xb8\x8f\xf0\x9f\x92\x9c'
p112
aS'sorry i havent been on lately but i have news ive been diagnosed with depression ive started medication amp im on the road to recovery'
p113
as.