(dp0
S'2013_51'
p1
(lp2
S'i miss this a lot'
p3
aS'ive literally been watching this for an hour i cant breathe'
p4
asS'2014_8'
p5
(lp6
S'if u cover up one more already existing tattoo i will hunt u down and re draw it with a sharpie thank u love u bye'
p7
aS'i swear to god if larry doesnt come out of the closet soon im going to scream their too cute to hide'
p8
aS'the live stream link for the brits tonight there is a timer on the screen '
p9
aS'everyone is doing it so yeah'
p10
asS'2014_9'
p11
(lp12
S'i love you \xe2\x99\xa5'
p13
aS'the hair oh my gawd'
p14
aS'psh look at u waking up all late and i had to be up at the ass crack of dawn for work'
p15
aS'after two years of increasingly worse symptoms i was just diagnosed with severe depression'
p16
aS'ur perfect sthap'
p17
asS'2014_6'
p18
(lp19
S'did i even spell elounor right you know what i dont even care lol'
p20
aS'elounor fanfics make me want to vomit like can u not like y would you even'
p21
aS'i wish it was possible to marry cartoon characters oh my goooood'
p22
aS'yass woe'
p23
aS'got bruises errrywhere from all this damn ice'
p24
aS'curves'
p25
aS'did louis say with my boyfriend im drowning in tears he did smsmzma holy shitjjdc'
p26
aS'harrys laugh i just'
p27
aS'i spy with my little eye lous tattoooooo'
p28
aS'my sunshine'
p29
aS'in which harry is a slave and louis is his master oh my god this is just wow'
p30
aS'yeah i am so done with winter this year'
p31
aS'two inches youre getting off easy were supposed to have 6 at least thats what ive been told'
p32
aS'it really seems like it '
p33
aS'really really cold '
p34
asS'2014_7'
p35
(lp36
S'can i just go back to sleep or nah time for wooork'
p37
aS'dominant harry sex addictcan i go die now satan god damn it'
p38
aS'shit mother shit shit i cant breathe cries sex addict chokes louis hell om'
p39
aS'this is beautiful angel niall kinda cryin right now baifiwkan gwudjjaifbw'
p40
aS'i have yet to understand why the fuck he did this but i think everyone needs to thank satan omdg'
p41
aS'keegan allen and troian bellisario i ship this so hard like omg'
p42
aS'me when i see louis'
p43
aS'management better find this and make it work bc this is perfect yes omg'
p44
aS'the unbreakable bond between brothers becomes a little more twincest louisonlouis ouch'
p45
asS'2013_52'
p46
(lp47
S'hey heres a punch in the face twink louis'
p48
asS'2014_10'
p49
(lp50
S'young louis was so happy and springy and delicate so precious can we go back'
p51
aS'iiiiiiiiiiiight whos copying who'
p52
asS'2014_11'
p53
(lp54
S'hes so cute tho'
p55
asS'2014_12'
p56
(lp57
S'holy thirst fuck'
p58
aS'nouis i cant stop watching tomvajjd'
p59
aS'i can listen to this all day lou'
p60
aS'imagine what dem moufs do'
p61
asS'2014_1'
p62
(lp63
S'louis cant sleep and neither can the boy on the bridge'
p64
as.