(dp0
S'2013_46'
p1
(lp2
S'help and raise money for the philippines donate guys its worth it lt3'
p3
aS'i really wish theatre class were more like glee'
p4
aS'kurtblaine chemistry peopleschoice wheeeee'
p5
aS'kurtblaine chemistry peopleschoice lalala'
p6
aS'kurtblaine chemistry peopleschoice oh its on'
p7
aS'kurtblaine chemistry peopleschoice lets go'
p8
aS'kurtblaine chemistry peopleschoice cmon guys'
p9
aS'kurtblaine chemistry peopleschoice cmon guys '
p10
aS'kurtblaine chemistry peopleschoice doing well guys keep it up'
p11
aS'kurtblaine chemistry peopleschoice were doig great guys'
p12
aS'kurtblaine chemistry peopleschoice'
p13
aS'kurtblaine chemistry peopleschoice homophobic delena fans make me want this even more aholes'
p14
aS'kurtblaine chemistry peopleschoice we can do this'
p15
aS'kurtblaine chemistry peopleschoice come on guys'
p16
aS'i voted kurtblaine chemistry peopleschoice please do the same'
p17
aS'kurtblaine chemistry peopleschoice'
p18
aS'i just voted for chris colfer comedictvactor peopleschoice retweet to vote via'
p19
asS'2011_50'
p20
(lp21
S'maybe you ian and ryan can take a look at this'
p22
asS'2011_13'
p23
(lp24
S'i dont wanna study maths but if i dont ill fail if i fail icant go out during spring break if i dont go out during on springb ill die'
p25
asS'2011_12'
p26
(lp27
S'icet got vanilla ice pregnant theyd give birth to an ice ice baby lol x'
p28
asS'2011_11'
p29
(lp30
S'lt3'
p31
asS'2011_10'
p32
(lp33
S'how you can supportjapan  for every retweet will give 1 to japan quake victims up to 100k'
p34
aS'europewantscody europewantscody europewantscody europewantscody europewantscody europewantscody europewantscody europewantscody d'
p35
aS'started seeing gossip girl i think im in love lt3 d xx'
p36
aS'arent we all '
p37
aS'charlie sheen is only winning because chuck norris isnt playing happy birthday chucknorris'
p38
aS'rt if you like school holidays'
p39
aS'24 hours one full turn of the earth around its axis most days blend into all the others but some we remember the rest of our lives'
p40
aS' lt3'
p41
aS'i did hear willows and i wanna hear selenas but i think imma skip jbs just 4 once  xx'
p42
aS'lol xd lt3'
p43
aS'srsly xd he actually made a song about it docta bieba docta bieba lmao  xx'
p44
aS'gtlt i guess u just cant cure this kinda sickness xd x'
p45
aS'poor kiddie  why do u try anyway p'
p46
aS'why would you '
p47
aS'friday to the movieees lt3 lt3 xx'
p48
aS'my hair just refuses to cooperate today gtlt x'
p49
aS'just did makeup n did mah nailzz dd x'
p50
aS'bakin a cake yay d x'
p51
aS'i wanna go back to sleep '
p52
aS'off to gymnastics  xx'
p53
aS'of course  pinky swear '
p54
aS'yay  ly2  lt3'
p55
aS'wouldnt u like to know aye  no im still noninfected  x'
p56
aS'i lt3 backyard trampolines first time since last summer d x'
p57
aS'its allright hun youre not alone i fear   x'
p58
aS'says the girl posting a thousand imagine ujustin tweets '
p59
aS'reading the vamire diaries addicted d xx'
p60
aS'life is like a box of chocolates at least in the sense that its empty and i feel fat and guilty thanks forest gump de '
p61
asS'2011_17'
p62
(lp63
S'school tomorrow but i had the best vacation evva'
p64
asS'2011_15'
p65
(lp66
S'going to the sea for a week with 2 friends d x'
p67
asS'2013_26'
p68
(lp69
S'my sister is leaving i miss her already'
p70
asS'2011_9'
p71
(lp72
S'why doesnt he text meeeeeeeee  xx'
p73
aS'kweegeeet  mjah keb wl beter dinge t doen eh  youtube fb xx'
p74
asS'2013_4'
p75
(lp76
S'twitition warbler spinoff'
p77
aS'twitition darrencriss for the role of aladdin aladdinbroadway'
p78
asS'2013_9'
p79
(lp80
S'still pondering the lifelong question of to nap or not to nap'
p81
aS'u kno it gurl we belgians can only be mean and sarcastic and hungry come to think of it we can be a lot'
p82
aS'nolan gerard funk can funk me anytime glee season4rewatchparty'
p83
aS'i want to read nietsche on a bumpy couch in a dingy apartment and dance in the cereal aisle of the supermarket with you stupiddreams'
p84
aS'home sick from school yaaaaaaaaaaaaaay thatwassarcasm'
p85
aS'dont trust people who smell like ketchup school nosrsly ifyouregonnamakemesmellketchup atleastgetmefries'
p86
asS'2013_8'
p87
(lp88
S'glow in the dark condoms remind me of star wars'
p89
asS'2011_23'
p90
(lp91
S'lol now he has like 50 glee songs '
p92
aS'syncin my lil bros ipod to my itunes '
p93
asS'2011_26'
p94
(lp95
S'just chilling on tumblr love it d enjoying it now cuz next 2 weeks i wont have any internets d'
p96
asS'2012_6'
p97
(lp98
S'blaineandkurttopcouple please '
p99
asS'2011_45'
p100
(lp101
S'whenblainemetkurt he smiledhe smiled backand slowmotion halway running ensuedthen kisses and then laterhappy anniversary klaine '
p102
aS'whenblainemetkurt whenblainemetkurt whenblainemetkurt whenblainemetkurt whenblainemetkurt whenblainemetkurt whenblainemetkurt lalalaa'
p103
aS'whenblainemetkurt whenblainemetkurt whenblainemetkurt whenblainemetkurt whenblainemetkurt whenblainemetkurt whenblainemetkurt come on'
p104
aS'whenblainemetkurt whenblainemetkurt whenblainemetkurt whenblainemetkurt whenblainemetkurt whenblainemetkurt whenblainemetkurt'
p105
aS'congratsonklainehavingsex congratsonklainehavingsex congratsonklainehavingsex congratsonklainehavingsex congratsonklainehavingsex yay'
p106
aS'congratsonklainehavingsex congratsonklainehavingsex congratsonklainehavingsex congratsonklainehavingsex'
p107
aS'congratsonklainehavingsex congratsonklainehavingsex congratsonklainehavingsex congratsonklainehavingsex congratsonklainehavingsex'
p108
asS'2011_48'
p109
(lp110
S'chris pretty pretty please don\xe2\x80\x99t you ever ever feel like you\xe2\x80\x99re less than less than perfect hugs4chris'
p111
asS'2013_11'
p112
(lp113
S'thanks for accepting me into the college program'
p114
aS'just got back from the yfu candidate weekend im so excited i love all of these people wheeee yfuflanders yfuusa'
p115
aS'long distance high five then crumple to the ground in pain'
p116
aS'my uterus is quite literally committing suicide oh joy'
p117
asS'2013_10'
p118
(lp119
S'i feel like i ran a marathon in siberia where the finish line ribbon was an iron curtain no history pun intended whatflufeelslike ohjoy'
p120
aS'hashtagging on facebook is like wearing sunglasses in winter completely unnecessary and it makes you look like a douche facebook'
p121
asS'2013_13'
p122
(lp123
S'so my friends birthday is coming up and hes a big fan of ginger jokes so if you could all send me ginger jokes thatd be nice ginger'
p124
aS'peel off face masks are like the ultimate school glue experience'
p125
aS'the sun is shining and im well rested for the first time in ages this is gonna be a good day'
p126
asS'2013_12'
p127
(lp128
S'everything went better than expected and im still in deep shit guess that says something about the depth of the shit to begin with'
p129
aS'i am royally and completely fucked andnotinthefunway'
p130
asS'2013_15'
p131
(lp132
S'wow ok this is bad creep'
p133
asS'2013_14'
p134
(lp135
S'shoe shoppin awww yissss'
p136
aS'false alarm also incorporating fanfiction in my final paper was a very very very very very good idea rolls around in academic lit on ff'
p137
aS'tumblr is down i repeat tumblr is down this is not a drill '
p138
aS'\xf0\x9f\x98\x8d\xf0\x9f\x98\x9b\xf0\x9f\x91\x85\xf0\x9f\x91\x85\xf0\x9f\x98\xa9\xf0\x9f\x98\xa9\xf0\x9f\x98\xa9\xf0\x9f\x98\xab\xf0\x9f\x92\xa6\xf0\x9f\x92\xa6\xf0\x9f\x91\x89\xf0\x9f\x91\x8c\xf0\x9f\x98\x81'
p139
aS'but klainebut seblaine but kurtbastianbut sebklaine multishipperproblems'
p140
aS'hey i got to longdistancekiss your shins dude my day has been made \xf0\x9f\x98\x89'
p141
aS'oh no my baby cupcake come here ill kiss it better mwah'
p142
aS'gaat de tweetroman nog altijd door'
p143
aS'reminder spring into action  become a yfu host family'
p144
asS'2013_16'
p145
(lp146
S'in other news i fucked up again \xf0\x9f\x98\x80\xf0\x9f\x98\x80\xf0\x9f\x98\x80\xf0\x9f\x98\x80\xf0\x9f\x98\x80\xf0\x9f\x98\x80\xf0\x9f\x98\x80\xf0\x9f\x98\x80\xf0\x9f\x98\x80\xf0\x9f\x98\x80\xf0\x9f\x98\x80\xf0\x9f\x98\x80\xf0\x9f\x98\x80\xf0\x9f\x98\x80\xf0\x9f\x98\x80\xf0\x9f\x98\x80\xf0\x9f\x98\x80\xf0\x9f\x98\x80\xf0\x9f\x98\x80\xf0\x9f\x98\x80\xf0\x9f\x98\x80\xf0\x9f\x98\x80\xf0\x9f\x98\x80\xf0\x9f\x98\x80\xf0\x9f\x98\x80\xf0\x9f\x98\x80\xf0\x9f\x98\x80\xf0\x9f\x98\x80\xf0\x9f\x98\x80\xf0\x9f\x98\x80\xf0\x9f\x98\x80\xf0\x9f\x98\x80 killme'
p147
aS'please stop tweeting the actors its incredibly disrespectful ship what you want god knows i do but please keep it to yourself'
p148
asS'2013_19'
p149
(lp150
S'im trying real hard to be funny but no'
p151
aS'im just so tired of it all'
p152
asS'2013_18'
p153
(lp154
S'just told a jehovas witness that in this house we actually like satan better old family friend and all that but thanks anyways'
p155
aS'so i broke up with my boyfriend today freedom'
p156
asS'2012_31'
p157
(lp158
S'shameless selfpromotion'
p159
aS'somewhere lea salonga just burst into tears'
p160
aS'rt if you think should now release i want you back featuring '
p161
aS'chris colfer giveaway  signed copy of the land of stories chriscolfer thelandofstories'
p162
aS'omg these little adorable far too strong perfectly proportioned gymnasts are u kidding me usaolympicawesomeness'
p163
asS'2013_39'
p164
(lp165
S'gleeeeeeeeeeeeeeeeeeeeeeeeeeeeeeeeeeeeeeeeeeeeeeeeeeeeeeeeeeeeeeeeeeeeeeeeeeeeeeeeeeeeeeeeeeeeeeeeeeeeeeeeeeeeeeeeeeeeeeeeeeee'
p166
asS'2013_38'
p167
(lp168
S'to celebrate the hogwarts collection by daily to win one of five 100 prizes'
p169
aS'this is really cool via'
p170
aS'to celebrate the hogwarts collection by enter daily to win one of five 100 prizes'
p171
aS'to celebrate the hogwarts collection by enter daily to win one of five 100 prizes'
p172
asS'2010_10'
p173
(lp174
S'luckily my parents arent on twitter or else they would be killing me by now p xx'
p175
aS'wondering if she shouldnt be studying greek nah '
p176
aS'watching youtubee  xx'
p177
asS'2011_35'
p178
(lp179
S'chriscolferisatwillionaire chriscolferisatwillionaire chriscolferisatwillionaire chriscolferisatwillionaire'
p180
aS'chriscolferisatwillionaire chriscolferisatwillionaire chriscolferisatwillionaire chriscolferisatwillionaire lets get this trending guys'
p181
aS'chriscolferisatwillionaire chriscolferisatwillionaire chriscolferisatwillionaire chriscolferisatwillionaire chriscolferisatwillionaire'
p182
asS'2011_34'
p183
(lp184
S'what the actual fuck all the hate in thechris colfer tag on tumblr let counteract with some luurve you guys chriscolferlove'
p185
asS'2011_37'
p186
(lp187
S'emmyforchris emmyforchris emmyforchris emmyforchris emmyforchris emmyforchris emmyforchris emmyforchris emmyforchris emmyforchris'
p188
asS'2011_31'
p189
(lp190
S'just voted  for top twitter lovers vote'
p191
aS'i just voted  for top twitter lovers vote'
p192
aS'i just voted  for top twitter lovers vote'
p193
aS'please vote  for top twitter lovers'
p194
aS'vote  for top twitter lovers'
p195
aS'please vote  for top twitter lovers'
p196
asS'2011_30'
p197
(lp198
S'i just voted  for top twitter lovers vote'
p199
aS'i voted  for top twitter lovers vote'
p200
aS'just voted  for top twitter lovers vote'
p201
aS'just voted  for top twitter lovers vote'
p202
aS'vote  for top twitter lovers'
p203
aS'please vote  for top twitter lovers'
p204
asS'2011_38'
p205
(lp206
S'vote  for top twitter lovers'
p207
aS'is blaine a junior or a senior'
p208
as.