(dp0
S'2011_19'
p1
(lp2
S'asians are cool its the closest your ever gonna get to fucking an alien'
p3
aS'come over then '
p4
aS'there should be at least 2 pages about me'
p5
aS'i look lik an azn girl dress like a white girl and dance like a black girl'
p6
asS'2013_41'
p7
(lp8
S'photo weepling jane birkin amp serge gainsbourg'
p9
aS'photo'
p10
asS'2013_46'
p11
(lp12
S'video'
p13
asS'2013_17'
p14
(lp15
S'photo brunch w \xe2\x9d\xa4bestie\xe2\x9d\xa4 credits davidyurman and hermes price upon request'
p16
aS'photoset'
p17
asS'2013_44'
p18
(lp19
S'photo'
p20
aS'photo tmagazine hair at rick owens t offers a short primer on how to get the best hairstyles from the'
p21
aS'photo alltheprettythings givenchy'
p22
aS'audio'
p23
asS'2011_50'
p24
(lp25
S'easy breezy theory shoot today wish everyday was like this'
p26
aS'ill only work out if i can show up in leather leggings katelanphearquotes'
p27
aS'business idea alcoholic ice cream  beer vodka tequila whisky myfavoritethings'
p28
asS'2012_44'
p29
(lp30
S'photo'
p31
aS'currently obsessed with sky and this song'
p32
aS'video'
p33
asS'2012_47'
p34
(lp35
S'photo'
p36
aS'photo'
p37
aS'photo'
p38
aS'idonline the wise up issue lara stone the seventh cover star is the ever stunning lara stone shot by danie\xe2\x80\xa6'
p39
asS'2012_41'
p40
(lp41
S'fuckyeahdirectors wes anderson'
p42
aS'fuckyeahtimburton weird girl amp mr whiskers'
p43
aS'elle good news kickaholics wedge sneakers are sticking around for spring \xe2\x80\x9813 taken with instagram\xe2\x80\xa6'
p44
asS'2012_40'
p45
(lp46
S'some real stunna shades photo by nylon'
p47
aS'photo'
p48
aS'wiz khalifa  remember you ft the weeknd'
p49
aS'fleurdelys carey mulligan by craig mcdean for another fw 1213 craig mcdeansooo gooood'
p50
aS'fade into you pierre debusschere film  dazeddigital photographer pierre debusschere describes the inspirat\xe2\x80\xa6'
p51
asS'2012_42'
p52
(lp53
S'photo in givenchy werq it cc'
p54
aS'photo armand de brignac bar \xf0\x9f\x8d\xb8 at barclay'
p55
aS'vogue jayne min and her customdesigned c\xc3\xa9line morrocanprint skateboard decked out ten fashionforward ska\xe2\x80\xa6'
p56
aS'cityoflove dolsk poland via maciejk'
p57
asS'2013_24'
p58
(lp59
S'photo 106oxford alexander wang resort 2014'
p60
aS'photo i mean\xe2\x80\xa6this is what dreams are made of'
p61
asS'2011_18'
p62
(lp63
S'squuuuueal you make me melt'
p64
aS'thought brian atwood was a backstreet boy member'
p65
aS'hahaha you tweeted my drunk quotes from that soho party i see you girl'
p66
aS'it would be really cool if u visited me this summer to figure that out'
p67
asS'2013_20'
p68
(lp69
S'photo'
p70
asS'2013_22'
p71
(lp72
S'photo miucca getting in some sun'
p73
asS'2012_28'
p74
(lp75
S'photo love this cunt'
p76
aS'photoset wishlist apc x nike photos from fashionista'
p77
aS'photoset kenzo mens ss2013 pics by'
p78
asS'2012_27'
p79
(lp80
S'photo'
p81
aS'photo elle'
p82
asS'2012_25'
p83
(lp84
S'link'
p85
asS'2012_23'
p86
(lp87
S'photo'
p88
asS'2012_21'
p89
(lp90
S'video'
p91
aS'photo'
p92
asS'2012_48'
p93
(lp94
S'photo'
p95
asS'2013_5'
p96
(lp97
S'elle accessories spring 2013  elle accessories magazine ss13  hitting stands this april lookout for my str\xe2\x80\xa6'
p98
aS'notebooknumberfour this is the kind of fashion i like bon qui qui spring 2013 t by alexander wang'
p99
asS'2011_22'
p100
(lp101
S'just landed 1st stop inandoutburger obviouslyand carton of cigs'
p102
asS'2013_7'
p103
(lp104
S'photo my mom\xe2\x80\x99s valentine flower from dad truelove valentine'
p105
aS'photo terrysdiary me and asap rocky'
p106
aS'photoset atianafiorella se hawthorne i miss this'
p107
aS'photo love love love'
p108
aS'photo phillip lim fw\xe2\x80\x9913\xe2\x80\xa6obsessed amazing i dont know how to express how perfect his collection is'
p109
asS'2013_1'
p110
(lp111
S'hypebeast givenchy 2013 prefall cufflink collection'
p112
aS'mynameisjee power couple'
p113
asS'2011_51'
p114
(lp115
S'photo'
p116
aS'the ppl boarding the south america bounds are so much hottermerryxmaseve'
p117
aS'yeaaa i graduated  aint working for free no mo'
p118
aS'tequila cocktails white wine and goodbyes fig and olive ellemagazine youve been good to me'
p119
aS'what xmasbdaygoodbye gift do i get for the coolest  most badass editor ever holidaystress'
p120
asS'2012_29'
p121
(lp122
S'photo'
p123
aS'how do i get popular on this thing'
p124
asS'2013_8'
p125
(lp126
S'photo'
p127
asS'2011_46'
p128
(lp129
S'see you wednesday giiirllll'
p130
aS'photo livin the good life'
p131
aS'u me salad alcohol these are a few of mu favorite things'
p132
asS'2011_23'
p133
(lp134
S'another day another shoot'
p135
asS'2011_20'
p136
(lp137
S'7am and thats a wrap'
p138
asS'2011_21'
p139
(lp140
S'did u find a new gf why are you ignoring me'
p141
aS'im like a puppy  all i want is food  attention'
p142
aS'was excited for the brooksbrothers shoot 2morrow until i got the call sheet w all female cast kidding kinda'
p143
aS'october 5th jamesblake in nyc who wants to go '
p144
aS'immovingtoeurope'
p145
asS'2012_8'
p146
(lp147
S'photo rip raf simons for jil sander'
p148
asS'2012_9'
p149
(lp150
S'photo want'
p151
asS'2011_24'
p152
(lp153
S'abbey lee kershaw 5 leaves bk is def worth the commute i love beautiful ppl'
p154
asS'2011_25'
p155
(lp156
S'galliano\xe2\x80\x99s lawyers will claim antidepressantsalcoholsleeping pills made him \xe2\x80\x98ill\xe2\x80\x99 at his trial that excuse nvr works 4 me'
p157
asS'2012_5'
p158
(lp159
S'fatgirl'
p160
aS'video \xe2\x80\x9ci\xe2\x80\x99ma ruin you cunt\xe2\x80\x9d'
p161
asS'2011_28'
p162
(lp163
S'working with alessandraambrosio tomorrow worked with constance jablonski yesterdaymy girl boner cant handle this right now'
p164
asS'2012_20'
p165
(lp166
S'photo my old boss w my new boss'
p167
asS'2012_1'
p168
(lp169
S'photoshoot w katelanphear loooove my fav ppl'
p170
aS'fianc\xc3\xa9 beyonce'
p171
aS'photoset'
p172
aS'fur is a necessity in this weather'
p173
aS'my inner loves buffets fatgirl'
p174
asS'2012_2'
p175
(lp176
S'fridaythe13th 13 tattoos should i '
p177
aS'photo'
p178
aS'photoset balenciaga pf 2012 80s'
p179
aS'how was your interview with guchee fobdad'
p180
aS'photoset the row prefall 2012'
p181
aS'photoset yigal azrouel pf 2012'
p182
aS''
p183
asS'2012_3'
p184
(lp185
S'im just trying to get inspired again'
p186
aS'where can i find mens beaded necklace not too gay pastel colorssomething a marc by marc boy would wear assistantstylistproblems'
p187
asS'2012_16'
p188
(lp189
S'photoset badass new jewelry designer'
p190
aS'photo beyonce in louboutins cavalli  cartier'
p191
asS'2011_45'
p192
(lp193
S'holly fulton just packed up holly fulton samples grounded'
p194
aS'is the 31hourbag a shoulder bag looks more of an arm bag'
p195
asS'2012_14'
p196
(lp197
S'photo this makes me feel happy'
p198
aS'photo this picture makes me feel weird'
p199
asS'2011_47'
p200
(lp201
S'me too my hollar status cut down 65'
p202
aS'so proud of my family were the skinniest ppl here momquotes'
p203
aS'nba players back on market as employed eligible bachelors'
p204
aS'i need a job hire me please im a well trained fashion asst  obsessed w ur mag'
p205
aS'are there any deals on cigarettes blackfriday'
p206
aS'happy thanksgiving wes lang detail from castles in the sky gt'
p207
aS'photoset fur season is here'
p208
aS'already too many over friendly conversation starters on this portlandbound plane donttalktome'
p209
asS'2011_42'
p210
(lp211
S'video so last night\xe2\x80\xa6i was drunk it was almost dawn was on my friend\xe2\x80\x99s east village rooftop and i met'
p212
aS'photo'
p213
asS'2011_43'
p214
(lp215
S'is there a surgery that will make my boyfriend taller whitegirlproblems'
p216
aS'photoset one of my all time favourite spreads harper\xe2\x80\x99s bazaar october 2009 styled by jacob k'
p217
asS'2012_52'
p218
(lp219
g183
aS'from'
p220
aS'love'
p221
aS'photoset'
p222
aS'video'
p223
asS'2011_17'
p224
(lp225
S'how do i like thisfuck twitter is confusing'
p226
aS'i gained 7 pounds in 20 mins artichokepizza'
p227
asS'2012_50'
p228
(lp229
S'photo'
p230
asS'2012_51'
p231
(lp232
S'photo'
p233
aS'thecoveteur \xe2\x80\x9cplease don\xe2\x80\x99t do coke in the bathroom\xe2\x80\x9d \xf0\x9f\x99\x88\xf0\x9f\x99\x89\xf0\x9f\x99\x8a cc'
p234
asS'2011_48'
p235
(lp236
S'agree i need my irish drinking partner'
p237
aS'photo'
p238
aS'photo team christopher kane'
p239
aS'endmarriagediscrimination'
p240
asS'2011_49'
p241
(lp242
S'can u see pass those cheeks he said'
p243
aS'hey hey small town or big city i am always the hottest'
p244
aS'giggling with you  lt3 lt3 lt3'
p245
asS'2012_18'
p246
(lp247
S'photo hypebeast'
p248
aS'photoset i want'
p249
aS'photo accessorize'
p250
asS'2013_11'
p251
(lp252
S'audio current obsession autre ne veut  counting'
p253
asS'2013_10'
p254
(lp255
S'photo home sweet'
p256
asS'2013_13'
p257
(lp258
S'video'
p259
asS'2013_15'
p260
(lp261
S'photo thecoveteur \xe2\x80\x9cfashion is almost like a religion for me at least i don\xe2\x80\x99t give a fuck about what'
p262
asS'2012_39'
p263
(lp264
S'photo'
p265
asS'2013_31'
p266
(lp267
S'photo'
p268
aS'how sex changed in the 90s  dazeddigital source'
p269
asS'2013_30'
p270
(lp271
S'photo i love you brooklyn dumbo'
p272
asS'2013_19'
p273
(lp274
S'photo so good'
p275
asS'2012_36'
p276
(lp277
S'photo granny is in gregoryparkinson ss2013 taken with instagram'
p278
aS'photo birthday girl\xe2\x80\x99s shoes for the night prada leopard taken with instagram'
p279
asS'2012_37'
p280
(lp281
S'my lovely boss and accessories director of elle in the sartorialist'
p282
aS'audio'
p283
aS'phillip lim ss 2013 is my fav by far'
p284
aS'alexander wang  asap rocky  lt3 lt3 lt3 lt3 lt3 '
p285
asS'2012_30'
p286
(lp287
S'joseph in black amp white'
p288
asS'2013_38'
p289
(lp290
S'photo phillip lim ss\xe2\x80\x9914'
p291
asS'2013_37'
p292
(lp293
S'video my first marcjacobs show and the end of nyfw goodnight'
p294
asS'2012_7'
p295
(lp296
S'video a little last season but\xe2\x80\xa6so good'
p297
aS'photoset love j crew fw 2012'
p298
asS'2013_36'
p299
(lp300
S'photo nolita'
p301
aS'photo \xf0\x9f\x90\xa0tail braid at mercedes benz fashion'
p302
asS'2011_31'
p303
(lp304
S'never trust a doctor smoke and drink always you\xe2\x80\x99ll live longer  wise words from lanphear'
p305
asS'2011_52'
p306
(lp307
S'woke up to the scene from thehangover whathappensinvegasstaysinvegas'
p308
aS'lol why am i not surprised'
p309
aS'vegas bound happynewyearseve'
p310
aS'blazers 111 nuggets 102 final blazers move to 30 on season with 25 felton with 23 crawford with 2 '
p311
aS'all you need to seduce nice korean husband is plastic surgery and classy burberry trench momquotes'
p312
aS'jadore '
p313
aS'headin to rose garden to kick some philly ass goblazers'
p314
asS'2012_38'
p315
(lp316
S'photo'
p317
aS'photo by'
p318
asS'2011_26'
p319
(lp320
S'it is a fashion a way of life inspired by the homeless the vagrants the crack whores that make this '
p321
aS'woa woa why am i not there with you right now with a bottle of wine'
p322
aS'being an ugly girl is like being a man youre going to have to work'
p323
as.