(dp0
S'2013_15'
p1
(lp2
S'dont judge when u dont know'
p3
aS'a follow'
p4
aS'myfavoriteaccount'
p5
aS'control'
p6
aS''
p7
ag7
ag7
aS'thinspo \xe2\x9d\xa4'
p8
aS'thinspo'
p9
aS'so my mom tried to move my scale dropped it and it brokekill me now \xf0\x9f\x98\xa3\xf0\x9f\x98\xb0'
p10
aS'follow back love'
p11
aS'i find it funny when ppl make assumptions about ppl who cutu know my name not my story'
p12
aS'follow back love'
p13
aS'follow back love'
p14
aS'follow back love'
p15
aS'i cut \xf0\x9f\x94\xaai purge \xf0\x9f\x9a\xbdi fast \xf0\x9f\x9a\xabi feel better \xf0\x9f\x98\x8a'
p16
aS'follow back love'
p17
aS'follow back love'
p18
aS'follow back love'
p19
aS'selfie'
p20
aS'follow back love'
p21
aS'follow back love'
p22
aS'follow back love'
p23
aS'follow back love'
p24
aS'follow back love'
p25
aS'follow back love'
p26
aS'when i dont eat my hands shake and i love iti no longer feel hungry watching ppl eat i look at them disgusted as they indulgeewwww \xf0\x9f\x98\x96'
p27
aS'why am i so fucking fat'
p28
aS'thx for the follow love'
p29
aS'follow back love'
p30
aS'follow back love'
p31
aS'follow back love'
p32
aS'follow back love'
p33
aS'follow back love'
p34
aS'follow back love'
p35
aS'follow back love'
p36
aS'follow back love'
p37
ag7
aS'follow back love'
p38
aS'thank u so much \xe2\x9d\xa4'
p39
aS'follow back love'
p40
aS'follow back love'
p41
aS'follow back love'
p42
aS'follow back love'
p43
aS'follow back love'
p44
aS'follow back love'
p45
aS'i love how this app reminds me tht im a fat whalethank u'
p46
aS'no prob '
p47
aS'sleep is amazinghours without eating and u dont even half to think about it '
p48
aS'i dont want my thighs to ever touch'
p49
aS'thanks so much hun'
p50
aS'of course x'
p51
aS'hey are u hungry me nawww im good i already ate yesterday'
p52
aS'follow back love'
p53
aS'am i the only one who gets headaches after i purge gtlt'
p54
aS'so i ate todaythen i purged feeling good water for the rest of the night then off to bed \xf0\x9f\x98\x8a'
p55
aS'thanks for the follow back love'
p56
aS'thanks for the follow back love'
p57
aS'youre welcome sweetie lt3'
p58
aS'follow back love'
p59
aS'follow back love'
p60
aS'no probbs'
p61
aS'no problem bby'
p62
aS'thanks for the follow love'
p63
aS'thanks for the follow love'
p64
aS'thanks for the follow love'
p65
aS'her body is perfecti want to see bones'
p66
aS'idgaf i just wanna be beautiful'
p67
aS'no prob p'
p68
aS'perfectiontoo bad ill always look like a whale'
p69
aS'thank u so much for the follow back \xe2\x9d\xa4'
p70
aS'give me her body '
p71
aS'follow back love'
p72
aS'follow back love'
p73
aS'follow back love'
p74
aS'follow back love'
p75
asS'2013_22'
p76
(lp77
S'why the fuck am i always depressed'
p78
asS'2013_16'
p79
(lp80
S'idk just like her interviews seem so in genuine'
p81
aS'ikr omg yessss i dont like her personality either like shes kinda bitchy to me sorrynotsorry'
p82
aS'omfg no i dont like her either n im usually just like \xf0\x9f\x99\x8a'
p83
aS'my art teacher said he wanted us to convey a lot of emotion so'
p84
aS'follow back love'
p85
aS'follow back love'
p86
aS'your welcome love lt3'
p87
aS'your not worthless lt3'
p88
aS'lol i like them too '
p89
aS'falling in reverse hell yeahhh d'
p90
aS'falling in reverse'
p91
aS'awwwww '
p92
aS'i wont i just feel like it'
p93
aS'dont kill yourself please your my favorite'
p94
aS'yes maam '
p95
aS'heheh youre wonderful stay strong bby lt3 lt3 lt3'
p96
aS'its hard to be happy when everyone around u is pushing u down'
p97
aS'0 u love me i love you more  lt3 lt3 lt3'
p98
aS'awwww this is too cute  ilylt3'
p99
asS'2013_24'
p100
(lp101
S'havent eaten in 48 hell fucking yes'
p102
aS'school is prison'
p103
aS'life is hell'
p104
aS'feeling alone'
p105
aS'so i went to the hospital and they diagnosed me with severe depression ptsd anxiety and bulimiawonderful'
p106
aS'gym membershipfuck yes'
p107
asS'2013_25'
p108
(lp109
S'when i dont eat my hands shake my heart beat speeds up n i cant seem to focuspain is beauty and its worth every minute'
p110
aS'i really dont'
p111
aS'its funny how u can blink u can breath and your heart can be beatingbut your just empty inside'
p112
aS'i lost 4 pounds in 2 days'
p113
asS'2013_26'
p114
(lp115
S'u r hun'
p116
aS'so are you'
p117
aS'thankyoult3'
p118
aS'follow back love'
p119
aS'your beautiful and loved'
p120
aS'your beautiful and loved'
p121
aS'your beautiful and loved'
p122
aS'follow back love'
p123
aS'follow back love'
p124
aS'follow back love'
p125
aS'your beautiful and loved'
p126
aS'your beautiful and loved'
p127
aS'your beautiful and loved'
p128
aS'your beautiful and loved'
p129
aS'your welcome hun '
p130
aS'your beautiful and loved'
p131
aS'your beautiful and loved'
p132
aS'your beautiful and loved'
p133
aS'your beautiful and loved'
p134
aS'your beautiful and loved'
p135
aS'your beautiful and loved'
p136
aS'im just gunna be an inspiration to others since im not okay'
p137
aS'so im bipolaroh'
p138
aS'hating myself ayye whats new'
p139
aS'i care about everyone else except myself'
p140
aS'letters of encouragement'
p141
aS'id say fuck u but i care too much about what you think'
p142
aS'awww thank u'
p143
aS'if u dont like your weight do something about itgo big or go home'
p144
aS'i see girls with a thigh gapwtf is wrong with me i need to work harder'
p145
aS'follow back love'
p146
aS'follow back love'
p147
aS'follow back love'
p148
aS'follow back love'
p149
aS'loosing about a pound a day and im loving it'
p150
aS'pain is beauty'
p151
asS'2013_20'
p152
(lp153
S'this pic is so powerful'
p154
aS'idgaf what you think yes i doi say tht so youll stop if i pretend idc will u leave me alone'
p155
asS'2013_21'
p156
(lp157
S'i follow ed and sh accountsidk its good to know other ppl hate themselves as much as i do'
p158
aS'why am i even alive'
p159
aS'may be triggering my new cut \xe2\x99\xa5its suppose to say fat'
p160
asS'2013_31'
p161
(lp162
S'im getting thinner'
p163
aS'dont'
p164
asS'2013_30'
p165
(lp166
S'tell me im dead'
p167
aS'picslip'
p168
aS'im loosing weight i think'
p169
aS'one less meal 300 less calories'
p170
aS'dont underestimate my abilityi will change'
p171
asS'2013_19'
p172
(lp173
S'i feel so empty tonighttheres no soul inside this body'
p174
aS'demi lovato'
p175
aS'if your stomach isnt growling your not doing it right'
p176
aS'im not looking for attention or sympathy i just want somebody to listen to me'
p177
asS'2013_18'
p178
(lp179
S'thank u so much '
p180
aS'but it would matter ive never met a person that doesnt matter and that includes you'
p181
aS'i feel like if i was gone it wouldnt even matter'
p182
aS'i act like im okay i tell ppl im okay i look like im okay but inside im not okayim not okay'
p183
aS'when i cut ppl tell me its dangerous what if u go too far and thts a problem becauseeee'
p184
aS'when im thin ill be happy'
p185
aS'oh okay i understand'
p186
aS'ohhh okay i see'
p187
aS'how come your not suppose to diet'
p188
aS'oh awesome '
p189
aS'n then when i eat too much i purge and cut to punish myself but ive been pretty good lately sticking to my diet'
p190
aS'then bam it just drops off like flies'
p191
aS'eat small portion controlled meals 3 times a day then i combine tht with a 30 minute power walk everyday after dinner'
p192
aS'eat fruit for lunch and vegetables for dinner then for breakfast i have a protein shake for me i loose more weight when i'
p193
aS'unbearably hungry n i was like omg there has to be a better way so i watch every calorie i eat 3 times a day and no more i'
p194
aS'it takes a lot of restraint and hard work i dont binge as much as i used to because i would binge but then get like'
p195
aS'lol u can'
p196
aS'im dropping weight like crazzyyyyyyyyy im so happy 2 lbs in one day fuck yeah'
p197
aS'if you ever need anyone i will be there tweet me at 3pm or 3am and i will answer \xe2\x9d\xa4'
p198
aS'you shouldnt hate yourself your worth more then that \xe2\x9d\xa4'
p199
aS'your loved lt3'
p200
aS'you have ever feltdone any of the following i wanna show u i care purging cutting burning binging low self worth not good enough'
p201
aS'i would like to die right about now'
p202
aS'ask me questions'
p203
asS'2013_28'
p204
(lp205
S'thanks for the follow love'
p206
aS'akathe cutter'
p207
aS'they burn'
p208
aS'thank youuu'
p209
aS'it burns it stings it bleeds its worth it'
p210
aS'somebody love me'
p211
aS'no probbs'
p212
aS'theyaremyguys i swear your account is flawless'
p213
aS'alisshoran your dope as fuck tbh'
p214
aS'done love'
p215
aS'an indirect comon ppl'
p216
aS'give me death'
p217
aS'if you dont eat we will stick a tube down your nose leave me alone i wanna be beautiful'
p218
aS'dont threaten my diet'
p219
aS'follow back love'
p220
aS'i jus wanna be skinny'
p221
aS'so im doing better with my weight yay'
p222
asS'2013_29'
p223
(lp224
g7
aS'fuckkkkk'
p225
aS'vomit loose weight yay'
p226
aS'1 lb at a time why cant i loose more '
p227
aS'account rates'
p228
aS'i eat so much and couldnt purge can i just die now gonna workout all night'
p229
aS'i harm myself i starve myself i hate myself'
p230
aS'can u see my bones yet no not good enough'
p231
asS'2013_17'
p232
(lp233
S'so i broke down in golden corral never going to a buffet ever again'
p234
as.