(dp0
S'2013_42'
p1
(lp2
S'football sunday with the boys football'
p3
aS'bonding with my son aj beatboxing soly ramos'
p4
aS'i like this idea could an ignitionactivated \xe2\x80\x9ccar mode\xe2\x80\x9d keep drivers from texting'
p5
aS'mmmm lunch was delicious'
p6
aS'buenos dias hows your morning so far'
p7
asS'2013_43'
p8
(lp9
S'lol but your previous posts are cool i think your just stuck on some testies p'
p10
aS'i think im going to report her for spam period'
p11
aS'boys hunting for birds birdfun family follow for full vid'
p12
asS'2013_40'
p13
(lp14
S'aj preparing for war'
p15
asS'2013_46'
p16
(lp17
S'i tried making a friend on nasioc failed subaru wrx forum'
p18
aS'its always so tricky'
p19
aS'oh my goodness a zonkey'
p20
aS'how fast were you going thats whats important p'
p21
aS'ewww phil peed himself pointandlaugh  '
p22
aS'arghghghghghgh fmlllllllllllllllllllllllll fml'
p23
aS'my life'
p24
aS'my subaru wrx family help me out with some likes on my biz page  thanks subiewave'
p25
aS'gotta move to a state where it is legal'
p26
aS'listenin to some ol stevie ray von at work oldermusicians'
p27
aS'looks like a day of hardwork'
p28
aS'windows discovery hold down the windows key and press your tab key boom techy'
p29
aS'facebook is making it easier for you to donate to help in the philippines at the top of your news feed there is now a link go donate'
p30
aS'17 hour workday only 8 paid adultlife'
p31
aS'looking good wrx'
p32
aS'you might not be worthy chpt 3 subaru owners bible only thee who are worthy shall drive the almighty wrx'
p33
aS'my thoughts exactly and if things go as planned by the time that car should be released i should be in a good place to buy that'
p34
aS'summer left and i didnt get to borrow someones motorcycle for a ride i miss riding maybe next year'
p35
aS'volunteer by liking my small business fb page two clicks away gtgt'
p36
aS'why are so many people upset that one world trade center is the tallest a lot of negativity im glad they turned on lightsto honor vets'
p37
aS'holds'
p38
aS'addboobstotvtitles is useless without pictures '
p39
aS'i agree with you i am trying to wonder what is so interesting about this '
p40
aS'my subaru wrx is ready for this snow '
p41
aS'white sky white air put a skully on so it doesnt mess up your hair snow'
p42
aS'111213 hoooeee see what i did there who can guess what those numbers mean'
p43
aS'i love getting new pc equipment so refreshing and makes you think you just leveled up '
p44
aS'starting in south jersey too firstflakes'
p45
aS'preciate that brotha things are looking promising for today'
p46
aS'respect for you my friend feels like when something falls apart in my life its an important component'
p47
aS'i think i have more suicidal thoughts than your average person'
p48
aS'its sad to see relationships that are in it for the kids i pay that shall never be me'
p49
aS'the 2015 subaru wrx is coming to the tune into witness history subaruwrx'
p50
aS'get involved people  save the children and families who were affected'
p51
asS'2012_48'
p52
(lp53
S'hmmm this appim using chaton to keep in touch with buddies discover features that youve never seen before'
p54
asS'2013_44'
p55
(lp56
S'aj smashes the floor away vinemagic soly ramos'
p57
aS'happy birthday to me birthdaytweet'
p58
aS'never take things for granted'
p59
aS'i think i have serious problems mad  maybe im bipolar 0o'
p60
aS'sillyfaces with my son jojo'
p61
asS'2013_45'
p62
(lp63
S'defying gravity in this pic man nice work'
p64
aS'since my girlfriend is pregnant i cant go to sleep this weird thing is happening when im up she sleeps when i sleep shes in pain'
p65
aS'your mobile app sucks so bad when it comes to images 3yrs later dive i first downloaded and still disappointed'
p66
aS'an ultimate patience test is harder than you always think'
p67
aS'so dumb when a girl lies about her feelings mad badmood this is going to be a long night'
p68
aS'share the love of my side business'
p69
aS'is everything okay'
p70
aS'beatbox with my son jojo '
p71
aS'aaaahhh '
p72
aS'hashbrowns on humpday'
p73
aS'friendly humpday reminder when your feeling low remember life is full of waves and its going to get better  positivity'
p74
aS'i learned on my own and with a little help of a friend i can teach you basics then you lookup songs online to play'
p75
aS'sometimes in life you need to just stop listen smile agree and move on'
p76
asS'2012_45'
p77
(lp78
S'whether you have two dads or one mom what matters above all is the love we show one another  htt '
p79
aS'for those of you who supported the president in his bid for a second term i encourage you to watch his thank ht '
p80
aS'well look what we have here legalize recreational marijuana'
p81
aS'its snowing subiweather'
p82
aS'four more years'
p83
aS'what 20000 fired up iowans look like obama2012'
p84
asS'2012_44'
p85
(lp86
S'is it just me or do these redskins have the most creative plays in the '
p87
aS'wear til i die'
p88
aS'happyhalloween battle of the offices  florida vs new jersey who do you think won'
p89
aS'sandy cant stop us emaint created their own emergency response team so that our service on 11 can continue '
p90
aS'data companies reacting to sandy ready for disaster recovery via'
p91
asS'2012_46'
p92
(lp93
S'on a scale of 1bad how bad have the multi fly delays been w delta first them flying them in a while and it will be '
p94
aS'if i wouldve known you were flying delta i wouldve stopped you we learned our lesson flying to dr'
p95
aS'it feels amazing to take a load off your shoulders even if it makes other people suffer holding back is almost as bad as lying'
p96
asS'2012_43'
p97
(lp98
S'i think im going to start rooting for my hometeam'
p99
aS'when we can no longer change a situation we are challenged to change ourselves  viktor frankl'
p100
aS'what about them i drive one'
p101
aS'dont complain about your relationship when your on your phone more than your partner'
p102
aS'pretty awesome idea this will be very useful commented on google street view hits the trails  discovery news'
p103
asS'2013_20'
p104
(lp105
S'love me some papa johns phillies5'
p106
aS'emaint for the win voltageawards'
p107
asS'2013_19'
p108
(lp109
S'listening to the soft and soothing in spanish and english room on join me now'
p110
asS'2013_28'
p111
(lp112
S'listening to the bachata room on join me now bachata dominicanos music'
p113
as.