(dp0
S'2013_35'
p1
(lp2
S'guess i shouldnt use it ok'
p3
aS'keep this and use it or delete it replytweet'
p4
asS'2013_34'
p5
(lp6
S'i guess nobody would actually like to continue talking to me so peace out girl scouts \xe2\x9c\x8c\xf0\x9f\x91\x8b'
p7
aS'ty rt ff'
p8
aS'ff'
p9
aS'ok im deleting my twitter in about a half hour \xe2\x9c\x8c\xf0\x9f\x91\x8b'
p10
aS'if people could read minds id get punched in the face alot haha so would i'
p11
aS'better question how can you listen to his music lol'
p12
aS'ill be deleting this tonight'
p13
aS'wecantdateif you dont like to fish'
p14
aS'im going to delete this when l get home so if you want to know my personal let me know byebye'
p15
aS'no but really dm me if you wanna be my new textingsnapchat buddy'
p16
aS'who wants to be my new texting buddy '
p17
aS'i have a stalker \xf0\x9f\x91\x8c sick'
p18
aS'ok im not private again finally'
p19
aS'ok lets try this again goingoffprivate hopeshedoesntstalkmeagain'
p20
aS'a kid ive talked to once to ask for the answer just asked me to add him on snapchat \xf0\x9f\x98\xb3\xf0\x9f\x98\x82'
p21
aS'i hate school so pointless elementary school taught you the fundamentals you will use everyday i dont need any of this'
p22
aS'obviously nobody wants some more followers'
p23
aS'i love how unless im blowin twitter up i have no interactions ohwell'
p24
aS'i need a day just to sleep'
p25
aS'retweet this and ill give you a shout out mustbefollowingthough'
p26
aS'ok picture with whiskey is from yesterday yellow shirt is from today'
p27
aS'it gets stuck in my head everytime though but i agree i just saw somewhere that its actually a drug'
p28
aS'its a drug lol'
p29
aS'this is the most comfortable ive dressed since school started'
p30
aS'its not weird to refuse to eat jello with a spoon'
p31
aS'sorry but i dont care i dont want to watch videos of this guy singing right now so stop'
p32
aS'its sad i have to change my name often so she doesnt find me again crazybitch'
p33
aS'someone help me get a new name so i dont have to be private'
p34
aS'tweetyourflirtingtechnique hi youre hot i like youre truck'
p35
aS'tweetyourflirtingtechnique i like your truck and boots \xf0\x9f\x98\xb3'
p36
aS'my stomach sounds like a volcano starving'
p37
aS'im bored entertain me thanks'
p38
aS'ok actually takin my instaslip down in a few now'
p39
aS'i have to be up at 645 can you shut the hell up and let me just relax'
p40
aS'ok stop asking me stupid questions or im going to rip your head off'
p41
aS'instaslip is coming down in two minutes'
p42
aS'i need arias boyfriend now'
p43
aS'unless i fall asleep totallypossible'
p44
aS'ok picslips are coming down in 9 minutes'
p45
aS'oh i have picslips up \xf0\x9f\x98\xb3'
p46
aS'aw thank you \xf0\x9f\x98\x8d\xf0\x9f\x98\x8d\xf0\x9f\x92\x8b'
p47
aS'my wcw list \xf0\x9f\x98\x98'
p48
aS'aw thanks beautiful'
p49
aS'who said girls cant do wcw too mine are amp favorites'
p50
aS'aw yay youve made mine so i love returning the favor '
p51
aS'i love you youre perfect'
p52
aS'wcw'
p53
aS'wcw'
p54
aS'wcw'
p55
aS'is my wcw of course'
p56
aS'wcw obviously'
p57
aS'thank you i want to take a picture like that so bad '
p58
aS'no but really abby is eating with me and acting goofy guiltyhigh'
p59
aS'this kid just handed me his bowl and said have fun he definitely doesnt love me'
p60
aS'two guys are talking to me about hooking up imaslut notreally thatstheproblem'
p61
aS'i want a new name help me'
p62
aS'did i get hacked what the hell '
p63
aS'for anyone who claims they have the best followers is delusional i definitely do'
p64
aS'im down for that whos messing with my baby octopus '
p65
aS'im not trying to start shit i just want her to stop harassing me'
p66
aS'if you would like to help me get her to stop favorite this or my last tweet and ill dm you with her name'
p67
aS'anyone wanna help me get the crazy bitch that stalks and harasses me off twitter'
p68
aS'whats my avi lol'
p69
aS'no really is my avi an octopus or a girl'
p70
aS'impossible for you to look ugly'
p71
aS'no lol of course not \xe2\x98\xba'
p72
aS'i hope you have fun at school babycakes begood'
p73
aS'what is my avi confused'
p74
aS'how could i ever delete this i have met some amazing people who make my day so much better lovemyfollowers \xf0\x9f\x92\x9a\xf0\x9f\x92\x8b\xe2\x98\xba'
p75
aS'youre most welcome pretty girl have a great day'
p76
aS'so pretty'
p77
aS'well im definitely going to now \xf0\x9f\x92\x8b'
p78
aS'aw thanks \xe2\x98\xba\xe2\x98\xba\xe2\x98\xba\xe2\x98\xba'
p79
aS'help get to her goal follow follow follow \xf0\x9f\x92\x8b'
p80
aS'lol it wouldnt be my main cake but like a fun one better truck and cuter dress though \xf0\x9f\x98\x82\xf0\x9f\x91\x8c\xf0\x9f\x92\x9a'
p81
aS'i found this like five months ago i told my mom its my wedding cake lol'
p82
aS'ok guess nobody wants to know my personal well tomorrow if i get time ill be getting on the computer and probably deleting this'
p83
aS'if you could enlarge any part of your body what would it be \xe2\x80\x94 my boobs'
p84
aS'possibly deleting this if you want my personal dm me'
p85
aS'i just dont understand why you cant move on you have him i dont talk to either of you nor do i want to so just stop please'
p86
aS'honesty thinking about deleting this'
p87
aS'but its either be private or delete this'
p88
aS'yep im one of those annoying anons that are private'
p89
aS'i asked for one thing a good last year fourth day of school and i already want to drop out'
p90
aS'this is the second anon twitter shes stalked third including my personal believe me crazy is a perfect definition for her'
p91
aS'shes on twitter but yeah its so annoying hes in the navy now and so its not like i can talk to him so why stalk me'
p92
aS'stalks me starts shit with me she wont admit her boyfriend cheated on her with me so i dont know why she does it lol'
p93
aS'im beyond done dealing with this fucking psycho bitch'
p94
aS'i just activated on my account to automatically delete my old tweets'
p95
asS'2013_30'
p96
(lp97
S'if he sings hey pretty girl to you hesakeeper'
p98
as.