(dp0
S'2013_42'
p1
(lp2
S'followerfix retweet 2 enter giving away 2 realtreextragreen camo hats winners chosen at 4 est 2day'
p3
asS'2013_43'
p4
(lp5
S'dont ever forget that there are people praying to have the everyday abilities you take for granite use them apprecia\xe2\x80\xa6'
p6
aS'pro is the opposite of con what is the opposite of progress congress merica'
p7
aS'if someone asks what you\xe2\x80\x99re doing tonight \xe2\x80\x9cgame 2\xe2\x80\x9d is the perfect response'
p8
aS'follow me'
p9
aS'its ok if you think baseball is borin its kind of a smart persons sport merica'
p10
aS'womens basketball head coach rick stein addresses the media at the ford center usiwbb'
p11
aS'amazing congrats rt 32pt shot in belmont county oh by sherri potts'
p12
asS'2013_40'
p13
(lp14
S'the government just wants to take a break for deer season merica'
p15
aS'huntin adds years to your life and life to your years\xe2\x80\x9d amen'
p16
aS'education is important but goin huntin is importanter'
p17
asS'2013_41'
p18
(lp19
S'you never mess with a mans flag faith or family rip merica'
p20
aS'this country needs a little more phil and kay robertson and a little less kim and kanye merica'
p21
aS'this is sen obamas statement on the debt ceiling on 2006 rt until your fingers bleed'
p22
asS'2013_46'
p23
(lp24
S'couldnt agree more congrats to you all love that young man'
p25
aS'whoa now'
p26
aS'can someone shed light on cals gray activities'
p27
aS'possible new illinois state record wow giant whitetail'
p28
asS'2013_47'
p29
(lp30
S'followerfix retweet 2 enter giving away 2 realtreextra iphone 44s cases winners at 4 est 2day'
p31
asS'2013_44'
p32
(lp33
S'congrats to mark owen of ohio who shot this worldclassbuck last week near wooster oh 256 green score whitetail'
p34
aS'trailcammonday taken by a friends cam in fulton mo'
p35
asS'2013_45'
p36
(lp37
S'can twitter acct be hacked i think mine may have been'
p38
aS'if u prefer hunter hayes youre a 14 yr old girl'
p39
aS'what are you 70 yrs old'
p40
asS'2013_24'
p41
(lp42
S'nice'
p43
aS'congrats to m hartnagel amp t houston for making allhcc and t mccoy amp h shipman for making allhcc honorable mentio\xe2\x80\xa6'
p44
aS'strong tornado amp damaging wind threat today for places not as accustomed to it heres where please look amp share'
p45
asS'2013_25'
p46
(lp47
S'who are u playing'
p48
asS'2013_26'
p49
(lp50
S'if this shows on your timeline you should retweet it respect amen'
p51
aS'crossroads baseball showcase at iu dont get btr then that be blue'
p52
aS'rims are a rough ride without tires'
p53
asS'2013_27'
p54
(lp55
S'congrats to tanner marcum on area player of the year very well deserved'
p56
aS'girls athlete of the year marcum earns her inaugural honor via'
p57
aS'indiana bulls white 17u everybody wants you  via'
p58
aS'garrett sherrell n albany trent astle jeff and zack brown seymour named to ind hs baseball coaches assoc no\xe2\x80\xa6'
p59
asS'2013_20'
p60
(lp61
S'make an uncommon effort ordinary to become extraordinary be uncommon'
p62
aS'gods word is a lion it doesnt need anyone to defend it let it loose and get out of the way it will defend itself when t\xe2\x80\xa6'
p63
asS'2013_21'
p64
(lp65
S'nice job'
p66
asS'2013_22'
p67
(lp68
S'bulls season starts tomorrow in bloomington  looking forward to a great summer with our bulls family good luck to all stil\xe2\x80\xa6'
p69
asS'2013_23'
p70
(lp71
S'that is a pathetic decision how can you let a team have home field advantage this deep in the \xe2\x80\xa6'
p72
aS'2014 chandler dale from jeffersonville touched 88 last night the junior was impressive closing out the region\xe2\x80\xa6'
p73
asS'2013_28'
p74
(lp75
S'officially committed to coastal carolina university thank you to all my former coaches and my family'
p76
aS'favorite reds player of all time go\xe2\x80\x9d barry larkin'
p77
asS'2013_29'
p78
(lp79
S'brandon johnson from new albany commits to xavier johnson was a tp games participate up to 89 with plus slider\xe2\x80\x9d congrats'
p80
asS'2013_5'
p81
(lp82
S'whats for brunch'
p83
asS'2013_6'
p84
(lp85
S'tanner marcum new albany hs 56 pgg unsigned 2013  hoosier basketball magazine top 100 senior'
p86
asS'2013_2'
p87
(lp88
S'great write up over tanner marcum and her success so far'
p89
asS'2013_17'
p90
(lp91
S'final stat line for brandon johnson 40 cg 0 er  0 r 15ks 1bb 2h the bulldogs improve their record to 114 on th\xe2\x80\xa6'
p92
aS'bulldogs defeat evansville north by a score of 3 to 0 marcum goes 13 striegel goes 13 and sherrell goes 23 hr\xe2\x80\xa6'
p93
aS'the bulldogs complete the comeback and take the victory johnson shuts the door final score na 5  mc 4'
p94
aS'usi wbb announces kendyl dearing amp tanner marcum have signed nlis to compete for usieagles usiwbb'
p95
aS'tanner marcum suiting up 4 screaming eagles of usi next season bulldog fam is proud congrats tan tan'
p96
aS'congrats to tanner marcum on signing today to play basketball at the university of southern indiana'
p97
aS'sam comer and tyler houston both hit homeruns tonight big win against nc91 at westfield on wednesday godogs \xf0\x9f\x98\x8e'
p98
aS'this deserves endless retweets respect'
p99
asS'2013_36'
p100
(lp101
S'flipping back amp forth between college football amp like short attention span theater1 of the teams i root for b\xe2\x80\xa6'
p102
aS'rt an open letter to johnny manziel via  wow good stuff here for all \xe2\x80\xa6'
p103
asS'2013_35'
p104
(lp105
S'310'
p106
asS'2013_34'
p107
(lp108
S'real heroes aint the ones hittin homers amp scorin touchdowns theyre the ones riskin their lives to protect the stars \xe2\x80\xa6'
p109
asS'2013_15'
p110
(lp111
S'congrats to tanner marcum new albany hs 56 pgg 2013  on her commitment to the university of southern indiana fo '
p112
aS'best wishes to josh rogers glad the surgery went well  just a reminder tommy john won 164 mlb games after the surgery'
p113
aS'every 27 yrs isnt bad lol'
p114
asS'2013_32'
p115
(lp116
S'many things in basketball as in life are optional but then again so is success'
p117
asS'2013_31'
p118
(lp119
S'louisville officer why were you going 100 mph driver my tire was flat click to read how things'
p120
asS'2013_19'
p121
(lp122
S'drew barker the no 6 qb in 2014 chooses kentucky over south carolina and tennessee bbn'
p123
aS'eliminated a prospect today because of his twitter account unreal cantwont bring you to the table thinkbeforeyoutwe\xe2\x80\xa6'
p124
asS'2013_18'
p125
(lp126
S'that would be tucker marcum not tannee'
p127
aS'southern indiana prep sports daily is out \xe2\x96\xb8 top stories today via'
p128
aS'amen brother hard to understand'
p129
aS'a pro athlete confesses he is gay and the media calls him a hero a pro says he is a christian and a virgin amp the media \xe2\x80\xa6'
p130
aS'taylor swift meets matthew mitchell and gets her own uk jerseybecause well why not '
p131
aS'reds family lost a great man brad the animal lesley heart is heavy today retweet and let reds fans remember him \xe2\x80\xa6'
p132
asS'2013_38'
p133
(lp134
S'why wld anyone ever want to be quiet about their faith in christ be bold stnd up and spk out if god is for us who then shall\xe2\x80\xa6'
p135
aS''
p136
asS'2013_14'
p137
(lp138
S'in breaking news senior lhp josh rogers is out for the year and will undergo tommy john surgery thoughts and prayer '
p139
as.