(dp0
S'2013_42'
p1
(lp2
S'no writtenemotionstitle'
p3
asS'2012_49'
p4
(lp5
S'johnny cash writes to his wife may moisten the eyes via'
p6
aS'tweethearts and facebook friends lets all have a good safe and warm weekend i send hugs and love to you all'
p7
aS''
p8
asS'2012_48'
p9
(lp10
S'mood hummmzoned out a little'
p11
aS'thetalk big mistake firing leah and holly miss you both'
p12
aS'thetalk i miss leia and holly'
p13
aS'thetalkhoping lindsey gets the help she needs'
p14
aS'beautiful '
p15
aS'need support person part of my release papers i knowright not the paper but because out on twiter just a person in need'
p16
aS'mustread story about power of voice amp personal narrative horrors of sex slavery with a breakthrough radio show ht '
p17
aS'is that your foot bcause you actually have a nice looking foot '
p18
aS'diagnosed with ptsd former victim of spousal abuse wanting to raise awareness'
p19
aS'mood  thoughtful post traumatic stress disorder thought it was just for former veterans apparently spousal abuse can cause it too'
p20
aS'of healthy canned amp nonperishable food are needed help us provide food security as apart of the '
p21
aS'a local redhook business could use a particle maskrespirator for clean up if you have one to give '
p22
aS'its cold people in the disaster zones of the nyc area need heaters help spread the word '
p23
aS'ill be supporting troops amp veterans on givingtuesday with a donation to '
p24
asS'2011_51'
p25
(lp26
S'growth is the willingness to let reality be new every moment'
p27
aS'instead of reacting observe your reaction to react'
p28
aS'i think i may be a little too conceited to do that anyway lol d'
p29
aS'words make you think a thought music makes you feel a feeling a song makes you feel a thought dailystrength'
p30
aS'rt your attitude is either the lock on or the key to the door of success  denis waitley'
p31
aS'just as the sun rises from the night and winter becomes spring so life arises from death \xe2\x80\x93 mufasa the lion king'
p32
aS'there are no seven wonders of the world in the eyes of a child there are seven million  walt streightiff'
p33
asS'2011_50'
p34
(lp35
S'rt dream lofty dreams and as you dream so shall you become  james allen'
p36
aS'the poverty numbers are unacceptable in the country'
p37
aS'mornin will you embrace this day makeitdowhatitdo'
p38
aS'cmon lets see how many followers we can get for today go go go and pls rt far and wide '
p39
asS'2012_45'
p40
(lp41
S'what i mean although u wonder whos who its inspiring to have this ability to connect with inspirational people in all walks of life'
p42
aS'love following ron howard on tweeter its so interesting that we have this technology inspired by others its a wonderful gift '
p43
aS'wondering if anyone ever see me'
p44
aS'actually ive said that bfore'
p45
aS'so funny to realize after all this time not one soul knows mine'
p46
aS'post'
p47
aS'i hate feeling like i am not in a stable place so i feel like im on pause all the time i need to go forward'
p48
aS'i hate how l keep letting my fear take over ny life i seem to b my worst enemy'
p49
aS'this man drove a truck for 28 years amp look what the sun did to the one side that was facing the window wearspf '
p50
aS'thank you'
p51
aS'had a horrible day please say hi to lift my spirits'
p52
aS'i honestly have no idea what im doing'
p53
aS'could i get a hello'
p54
asS'2012_47'
p55
(lp56
S'so sorry for your loss praying for strength and peace of mind'
p57
aS'today we celebrate the life of rest in peace and love my dear beautiful friend i miss you so much'
p58
aS'may bret rest in peace  a sweet pic of you amp '
p59
aS'good morning hope you have a wonderful day'
p60
aS'if you get a chance and feel so inclined could you sign this or at least rt it thanks appreci '
p61
aS'our english princess'
p62
aS'thank u 4 speaking up rt a frank brave amp heartbreaking piece by abt child sexual '
p63
aS'to  its about people and honesty  yeah'
p64
aS'rt after a few probs with my itunes i have now managed to dload great new single i luv it '
p65
aS'it is a phenomenal cd great variation of genres fantastic vocals guitars drums just a fantastic '
p66
aS'beach channel dr in rockaways needs h2otoiletriestoiletpaperdiapers size 45amp6cleaning su '
p67
aS'please rt heroes needed  paralyzed nj manfamily lost everything in sandy'
p68
aS'\xe2\x80\x9c \xe2\x98\x86wish granted\xe2\x98\x86single mom of 2 young boys needs heroes after sandy destroyed their home \xe2\x99\xa5 '
p69
aS'nice job perk'
p70
aS'i dont think hes too young i would just make sure nothing is too little to swallow that age everything goes in mouth first'
p71
aS'mood twilight zone yes i know thats not a real mood but how im feeling i can not describe right now emotions in over drive'
p72
asS'2012_46'
p73
(lp74
S'husband rescued woody the kids threw in a tree he pulled the string while walking in the house it said boy am i glad to see you lol'
p75
aS'happy thanksgiving hoping everyone has a family friends somewhere to go im so thankful for my family    '
p76
aS'reinventing the kids thanksgiving table'
p77
aS'want to make a difference today see how you can help protect the polar bear helpthepolarbear'
p78
aS'theyre too cute to go extinct so lets helpthepolarbear \xe2\x99\xa5 rt if you agree'
p79
aS'some relationships are like tom amp jerry they tease each other knock each other down hate each other but can '
p80
aS'hey 2 hours later whats up no its too late i dont want to talk to you anymore'
p81
aS'frustratedwater is off amp dont know for how longi hope its fixed today'
p82
aS'yawning is your bodys way of saying 20 of battery remaining'
p83
aS'so funny your so right'
p84
aS'you could win my entire collection\xe2\x80\xa6 just rt to enter organicallygorgeous'
p85
aS'great mood its the i want to go dancing mood   o'
p86
aS'of course sometimes i have several different moods at one time amp have no idea what im feeling'
p87
aS'funny i just all of a sudden started thinking about moods    so i will just start letting you know what mood im in amp why'
p88
aS'i wish at times my brain had a slow down button'
p89
aS'the best relationship is when you can completely act yourself and they can still love you for who you are'
p90
aS'have a service that could help sandy victims get through the week laundry salon daycare let us help you connect'
p91
aS'sandy need food blankets cleaning supplies at our bk office 24 nevins stampvolunteers 107pm cars b '
p92
aS'just announced hopemob is going to have 10 flash mobs w gifts for families in need this holiday season intere '
p93
aS'new drop off redhook all donations accepted including clothing 110 wolcott st brooklyn ny 11231 '
p94
aS'love your work just saying  '
p95
aS'your compassion is inspiring we need more like you '
p96
aS'whatmakesmesmile when i see my children smiling '
p97
aS'apparently i am now being told i talk in my sleep what'
p98
aS'wife mother of three grandmother of nine   '
p99
aS'you actually have goodlookimg foot  '
p100
aS'you won\xe2\x80\x99t know what your brain can do until you test its limits and push beyond them'
p101
aS'christmas help for a struggling family granted'
p102
aS'nj college student whose parents died in sandy receives 50000 in donations  abc news '
p103
aS'help a single mother have clothes for her daughter  granted'
p104
aS'its so wonderful to see this kind of compassion my heart amp prayers goes out to everyone'
p105
aS'so much leah 4 sponsoring me 2 sleep out 2 help homeless kids hurt by sandy pls join '
p106
aS'leahoccupysandy registry updated witems to help w cleanout amp rebuild efforts lots to choose from '
p107
aS'we will be christ comchurch to provide hot meals pls spread the word sandy \xe2\x80\x9d'
p108
aS'current needs winter hats gloves scarves underwear sandy\xe2\x80\x9d pls help very c '
p109
aS'in the near future well only be able to communicate through devices actual human contact will be outlawed by the apple '
p110
aS'still weird should i ask again'
p111
aS'woke up feeling like i was in a twilight movie ask for a separation last night and this morning hes acting like its just another day'
p112
aS'try dawn for dishes really works '
p113
asS'2013_26'
p114
(lp115
S'posting'
p116
asS'2013_28'
p117
(lp118
S'working on a poem posted via livejournal app for android '
p119
asS'2012_22'
p120
(lp121
S'try dawn for dishes really works '
p122
aS'me'
p123
asS'2011_52'
p124
(lp125
S'kuumba creativity to do as much as we can in order to leave our community more beautiful  beneficial than we inheri '
p126
aS'watch it rt new episode of body of proof jan 3 on abc at 10pm please retweet'
p127
aS'every wall is a door 2011lessons'
p128
asS'2012_8'
p129
(lp130
S'post'
p131
aS'this is my life stuff'
p132
aS'following you making this film is so awesome'
p133
asS'2012_9'
p134
(lp135
S'if at least 60 tornadoes are confirmed today it will go down in history as the most tornadoes in a single day in march'
p136
aS'lucky i moved to this side of atlanta  not even raining here  no torando  to rockdale county from paulding'
p137
aS'rt rt roswell and alpharetta ga  take cover now this is a very dangerous tornado '
p138
asS'2012_4'
p139
(lp140
S'congratuations american idol'
p141
aS'the present moment is a conspiracy of the total universe to resist it is to resist the universe let go and flow'
p142
aS'this brighteyed gal snuck under my table at cafe she hangs at we all know what she wanted right'
p143
aS'to bring yourself love and happiness do what you can to bring them to others'
p144
aS'i have been here before wondering if this i will tweet pretty funny i stare  90 of the time i tweet i go back  delete why'
p145
aS'people will hate you rate you shake you and break you how strong you stand is what makes you'
p146
aS'congratulations american idol'
p147
asS'2012_5'
p148
(lp149
S'bag lunch'
p150
aS'big big sound for our 70s wedding high style in london'
p151
aS'beautiful'
p152
aS'looking for some new country music to listen to why not check out jeff scott stevens music here'
p153
aS'also wanted to thank you for tweeting this experience with us so awesome'
p154
aS'i love the pictures'
p155
aS'ghost writers really could they have left that out so disappointed'
p156
asS'2012_6'
p157
(lp158
S'just saw an advertisement for a new car with a feature callled heated steering wheel ive got that on my car too it '
p159
aS't4td my mother taught me that when you stand in the truth and someone tells a lie about you dont fight it whit '
p160
aS'feel better'
p161
aS'looks like so much fun'
p162
asS'2012_1'
p163
(lp164
S'my good friend always says change your story change your life  what story are you going to tell in 2012 '
p165
asS'2012_10'
p166
(lp167
S'feck has become one of my favorite words\xe2\x80\x9d what the feck'
p168
aS'fecki like it '
p169
asS'2012_50'
p170
(lp171
S'good job loved working with you babys1stchristmas heartofchristmas hallmarkchannel'
p172
aS'my costars babys1stchristmas so talented '
p173
aS'troll legs relaxing '
p174
aS'loved that movie'
p175
aS'alright youre a reindeer heres your motivation the best part watch '
p176
aS'hello  having a really stressful day can i get a hello back'
p177
aS'congratulations on upcoming series in 2013 abc family tools'
p178
aS'also my youngest daughter dayna 1 year clean prescription pain medication should be monitored closer'
p179
aS'i want 2sign a petition to put metal detectors and armed guys in plain clothes i want schools to make entr '
p180
aS'i am extremely sick over this what is wrong with our country it so saddens me xoxo'
p181
aS'rt interviewing a new chef for team judah this one is hi '
p182
aS'could you send back a hello '
p183
aS'my brother mike cowrote amp produced this song aintnotrain now available on records get it on itunes her '
p184
aS'fund has awarded nearly 625000 in grants to over 40 nonprofits in brooklyn see list here '
p185
aS'le im going to send off items no need to thank me hope the kids have a great christmas\xe2\x80\x9d t '
p186
ag8
aS'her name is cassie thank you'
p187
aS'playing around'
p188
aS'please say a prayer for my daughter fighting prescription pain addiction only 2 months clean but shes having a bad day'
p189
aS'there is a twitter campaign to stopchildabuse please join us donate a tweet here i did gt '
p190
aS'anytime jeffsorry i missed your tweet doing awesome  hope your the same'
p191
aS'i bet you get pictures like this all the time'
p192
aS'william shatner '
p193
aS'merry christmas'
p194
aS'who do you think the villain is in the new star trek movie\xe2\x80\x9d i hear its benedict cumberb '
p195
aS'what about a shout back  please'
p196
aS'nothing worth accomplishing in life that is worthwhile is easyworkhard when no one is looking be amazing  li '
p197
aS'info for the new followers this week check out jeff scott stevens music on itunes here'
p198
aS'turns out i also have post tramatic stress disorder ptsd from first marriage im in therapy positive i will get better'
p199
aS'jim parsonstroll legs relaxing no im not crazy my mom had me tested lol'
p200
asS'2012_51'
p201
(lp202
S'not finshed'
p203
aS'my tree  '
p204
aS'is it wierd to feel like you have to reply to your own tweet'
p205
aS'on my house not in '
p206
aS'i do have right now a woodpecker i call charlie'
p207
aS'at this time i dont have any pets and not ready for any i do not know when or if that will change'
p208
aS'yes i have moved too many times feel like a gypsy been told i look like one to'
p209
aS'truthfully i would only want to not have to worry about moving i would b happy'
p210
aS'if i had millions i would still want a jeep wrangler'
p211
aS'when i say hurt i am talking intentionally'
p212
aS'five i respect others beliefs and what they feel important'
p213
aS'when i say i have a open mind means i will listen think it over and decide for me whats best'
p214
aS'two i know you could leave anything and i would not steal three i am softspoken four i am open minded'
p215
aS'i have wondered if i was crazy but i do know some basic facts about me one i will never in a emotional or physical way hurt anyone'
p216
aS'attn students want to travel the world enter to win my global giveaway with \xe2\x80\xa6 ht '
p217
aS'started a project so excided'
p218
aS'rt hope you have a merry christmas friend thank you brittany to you and your family as well '
p219
aS'getting ready for a show august 27th in santa monica the main focus in band rehearsal is how to better rock '
p220
aS'i love country music '
p221
aS'try amp empress anyone with my intellectual prowess '
p222
aS'i am shooting video in jan  i think that\xe2\x80\x99s a good place for winners to listen to cd amp watch video \xe2\x80\xa6 now someone is figur '
p223
aS'i am so sorry your the best and always will b i know i dont actually know you but i know your one of the best'
p224
aS'i am so sorry your the best and always will b i know i dont actually know you but i know your one of the best dont'
p225
aS'troll legs relaxing'
p226
aS'in fact if youre going anywhere and plan to drink have a designated driver dontbeadick'
p227
aS'will we have armed guards everywhere who can afford that will there be armed guards on every floor of every buildin '
p228
aS'video  remembering the victims of the newtown tragedy a response to the nra demandaplan vi '
p229
aS'rt hi amp congrats on ur new single out thank u for the follow \xf0\x9f\x98\x98\xf0\x9f\x92\x97\xf0\x9f\x8e\xb6 thanks very m '
p230
aS'rt haha your poise commercial came in 10 in the wackiest celebrity comme '
p231
aS'i always have a blast w thanks for letting me launch my hollyday giveaway wendy htt '
p232
aS'willl be posting more on my art coming soon'
p233
aS'good to know you are all still here would hate the world to end this way we have work to do people we are getting an '
p234
aS'travel safely'
p235
aS'weareuk abused by my husband for 11 years as a result i have been diagnosed with ptsd'
p236
aS'no i did not but good to know'
p237
aS'do you know weareuk has firstever scholarships for survivors of intimate partner violence center for gend '
p238
aS'i am half cherokee and on dads sideummmmm need to do some research '
p239
aS'i so appreciate robinson scholar program it starts home visits to appalachian kids early who are first in their familie '
p240
aS'too many'
p241
aS'welcome to all the new folks who have recently joined us glad youre here whats your passion amp how do you make t '
p242
aS'passion is to help others like me get free from domestic abuse'
p243
aS'big fan have a beautiful day'
p244
aS'maybe it\xe2\x80\x99s time for a sacred pause a breathing in of the day and your place in it'
p245
aS'i have a southern accent but because of my fathers constant grammar corrections im told my accent is too proper '
p246
aS'music has always moved us and now tweets from musicians do more so than ever before'
p247
aS'ok please be patient with my tweets doing this on a phone with bad connections at times and no spell check o'
p248
aS'i uploaded a video youtube invideo programming  part 3  viralizers'
p249
aS'all kids flew the nest one came back and brought with her three more    '
p250
aS'dear santa i wish for a laptop gt'
p251
aS'good morning from nyc'
p252
aS'if i wanted i could start over but to do so  would mean leaving people who counts on me so me being happy will have to wait'
p253
aS'give the gift of unlimited video games this holiday season giftoftheday'
p254
aS'goes mobilefirst to reach teens innovationindex'
p255
aS'this is how a turntable really works whatsinside'
p256
aS'turntablefm cofounder billy chasen explains the art of pivoting techinnovators'
p257
aS'pudding monsters continues puzzle fun from cut the rope creator'
p258
aS'last yr handguns killed 48japan 8great britain 34switzerland 52canada 58israel 21sweden 42wgermany 1072 '
p259
aS'hi one of your fans hope you have a great night '
p260
aS'take a look and add your support to the mental health in schools act'
p261
aS'i feel lost'
p262
aS'stop take a deep breath ok'
p263
aS'happy birthday to 1 of my fave mommy girlfriends weve known each other so long and i am so proud of t '
p264
aS'do your part to end gun violence via'
p265
aS'rewire your brain for higher consciousness by paying attention to love compassion and joy'
p266
aS'mom against the writing of pain medication to young adults and after they are addicted for a fee keep writing'
p267
aS'ps22 kids choir sings sandy hook school song as tribute via'
p268
aS'i know i keep asking but did not give names last time please say a prayer for daughter cassie shes addicted to presc pain'
p269
aS'daughters school winter recital just dedicated their opening song one candle one flame to the sandy hook victims rip'
p270
ag8
aS'experience the new years eve ball drop in gifs'
p271
aS'tonight water war with the one and only sofun lnjf'
p272
aS'long day'
p273
aS'could you give me a hello'
p274
aS'who is out there'
p275
aS'recovering from long depression what yoga moves would yo start with'
p276
aS'd     '
p277
aS'great job on chrismastwister on with the awesome'
p278
asS'2013_37'
p279
(lp280
S'where do you go when everywhere you look you see the disappointed in their eyes as if they have nothing to\xe2\x80\xa6'
p281
aS'memory'
p282
asS'2013_38'
p283
(lp284
S'manic mixed with obsessive panic unknown fighting the storm until i found the calm withinampnbsp choosing to\xe2\x80\xa6'
p285
as.