(dp0
S'2013_24'
p1
(lp2
S'i dont understand how someone can sit behind a computer screen click anonymous and say kill yourself'
p3
asS'2013_4'
p4
(lp5
S'rt of your a ed or selfharm accounti want to follow you alllt3'
p6
aS'equalloveequalrights just watched the video cried so much'
p7
aS'where abouts in derbyshire are you from 3 xx'
p8
aS'rt if youd care if i died tonight'
p9
aS'yes it was really good but really weird  xx'
p10
aS'a bit of james blunt helps me get through anything'
p11
aS'10 rts for a picslip'
p12
aS'retweet if your parents dont understand what youre going through'
p13
aS'everyone'
p14
aS''
p15
aS'people at my school think all time low are a screamo band w h a t e v e n  '
p16
aS'killjoysmcrmy'
p17
aS'artiststhatilike where do i start'
p18
aS'i meant 13 eek o xx'
p19
aS'you can be depressed at any age sweetie i was diagnosed with depressionanorexia at the age of 23 too '
p20
aS'love this \xe2\x9d\xa4'
p21
aS'thats really annoyed me o she obviously has no idea whatsoever careless bitch'
p22
aS'stupid twat how dare she '
p23
aS'i will two ticks c'
p24
aS'hey 3 will you message me on kik maisierosej c xxx'
p25
aS'think before you speak'
p26
aS'rt for a shout out x'
p27
aS'fed up of being the fat friend'
p28
aS'rt if you lift your shirt and stare at your fat every time your alone with a mirror'
p29
aS'him why dont you accept compliments me it feels like im being lied to'
p30
aS'cross the line if you cant go anywhere without being paranoid of how fat you look'
p31
aS'starvation  self hate  willpower  perfection'
p32
aS'when a guy says hell text you waited 3 days still no text he doesnt like me because im fat thats it ive realised fast tomorrow \xee\x90\x8c'
p33
aS'crying im fat worthless and freakin depressed \xee\x90\x88'
p34
aS'my secret life ana edproblems'
p35
aS'i always sit on the floor and cry edproblems anaproblems'
p36
aS'when youre about to binge rt'
p37
aS'every single fucking day rt edproblems'
p38
aS'me too o i dunno what everyones talking about seems a little fucked up to be honest o hahalt3'
p39
aS'wow just read'
p40
aS'no dont use oil  use that spray stuff you can if you want it just adds around 50 calories per tsp  xx'
p41
aS'your never too fat for an ed'
p42
aS'i wanna follow some more accounts like this rt for a follow back 3'
p43
aS'stir frys got hardly no calories whatsoever just put loads of peppers onions and carrots in a pan for like 20minutes lt3'
p44
aS'rt if youre an eating disorder or self harm account i want to follow as many as possible \xe2\x99\xa1'
p45
aS'once on the lips forever on the hips motto'
p46
aS'every rt i will do 10 minutes of sit ups please guys motivation anasisters \xe2\x9d\xa4\xe2\x9d\xa4'
p47
aS'i want to be that skinny people are worried'
p48
aS'without twitter i would never have lost any weight'
p49
aS'schools closed why am i annoyed because i can hide my disorder at school i cant at home edproblems ana'
p50
asS'2013_9'
p51
(lp52
S'rt if you have 2 twitter accounts im curious to see how many people hide their feelings'
p53
aS'yes please lt3'
p54
aS'been in a bad state gained 20lbs please i need help im begging im self harming again its uncontrollable'
p55
asS'2013_3'
p56
(lp57
S'be strong and get skinny'
p58
aS'i want you to worry about me i want you to be scared of how thin ive gotten'
p59
aS'this '
p60
aS'hunger hurts thinspo please rt lt3'
p61
aS'dont give up thinspo please rt lt3'
p62
aS'thinspo please rt lt3'
p63
aS'thinspo please rt lt3'
p64
aS'thinspo please rt lt3'
p65
aS'thinspo please rt lt3'
p66
aS'thinspo please rt lt3'
p67
aS'thinspo please rt lt3'
p68
aS'coffee and smokes and cold diet cokes thats what pretty girls are made of'
p69
aS'ill make them regret the day they called me fat'
p70
aS'looking into the sky and thinking thatll be me up there someday lifes too short to be fat'
p71
aS'good also take yourself away from food go to your room listen to music have a little dance etc keeps you motivated '
p72
aS'i crave to be skinny'
p73
aS'someone do me a shoutout please more followers  more motivation thanks please rt love you all anasisters lt3'
p74
aS'thankyou so much  drink cold water fills you up eat ice cubes and gum no calories but you burn off like 10 per cube lt3'
p75
aS'fine chicken hungry though 18 hours into my fast c'
p76
aS'ill do 10 crunches as well as for every rt'
p77
aS'howre you hun  lt3'
p78
aS'did this oh my god i feel so energised thanks for posting it c lt3'
p79
aS'youre beautiful lt3'
p80
aS'feel so freakin fat every rt ill do 10 crunches 123 go'
p81
aS'this is what being anorexic is like'
p82
aS'feel so much better after that workout woo motivationworked'
p83
aS'its not always obvious'
p84
aS'people think that we throw up our food because we are vain but no its self hate realityproject'
p85
aS'me breathes messes everything up'
p86
aS'nobody would notice or care'
p87
aS'rt if any of these bands have saved your life'
p88
aS'all time low \xe2\x99\xa5'
p89
aS'how most people see my music'
p90
aS'ok so rt and ill do this ok'
p91
aS'\xe2\x80\x98i should not have eaten that\xe2\x80\x99 a documentary by me'
p92
aS'sleepy just a little fitspo before bedtime'
p93
aS'girls who pretend to act stupid because they think its cute needs to fucking stop leaveitin2012'
p94
aS'do you'
p95
aS'this summer i will be tiny'
p96
aS'nothing tastes as good as skinny feels morningmotivation please rt'
p97
aS'eatingdisorder eatingdisorderprobz'
p98
aS'eaten an apple today so pleased with my willpower'
p99
aS'thankyou hun 3lt3'
p100
aS'follow anasisters edfamily show her the support ampmotivation she deserveslt3'
p101
aS'rt if you can see your hero'
p102
aS'anyone else'
p103
aS'follow backlt3'
p104
aS'i wont stop until im perfect and if i die in the process then so be it'
p105
aS'thankyou lt3'
p106
aS'yes '
p107
aS'bed time hopefully wake up lighter fingerscrossed'
p108
aS'im not stupid i see you looking at all the beautiful girls we walk past in the street i see you watching them wi '
p109
aS'will you do me a shoutout please  thanks xx'
p110
aS'i just ate a load if celery then did 100 sit ups keep drinking water kinda filling me uplt3'
p111
aS'im so freakin hungry lt3'
p112
aS'thankyou hun lt3'
p113
aS'will you do me a shoutout please thanks anasister'
p114
aS'whatever youre craving is not alive you are in control you are way too sexy amp self disciplined to give in'
p115
aS'follow back  xx'
p116
aS'follow back  xx'
p117
aS'follow back  xx'
p118
aS'follow back 3 xx'
p119
aS'follow back  xx'
p120
aS'follow back  xx'
p121
aS'follow backxx'
p122
aS'why oh why can i pinch this fat on my belly fatfatfat'
p123
aS'depressed cut cut cut away'
p124
aS'hate being fat need thinspirationthinspo anafamilymotivation'
p125
aS'no guy wants a fat girl'
p126
aS'mum keeps shouting at me for not eating'
p127
aS'someone do me a shoutout please  thanks \xe2\x9d\xa4'
p128
aS'retweet if this is your secrate account'
p129
aS'hun dont binge youll regret it so much'
p130
aS'i havent baby its so hard o lt3'
p131
aS'once you are disciplined in both your eating and your exercise everything else will fall into place'
p132
aS'rt if your a ana mia ednos thinspo fitspo account following allll'
p133
aS'thankyou 3 lt3'
p134
aS'thankyou  will you do me a shoutout thing please  lt3'
p135
aS'youre so curvy i want your figure shut the hell up you do not understand'
p136
aS'i wonder what its like to be truly skinny'
p137
aS'thank you hun '
p138
aS'will you follow back please  x'
p139
aS'will you follow back please  lt3'
p140
aS'hey will you help me please i wanna binge so bad craving chocolate cant do it  lt3'
p141
aS'its snowing\xf0\x9f\x98\x81'
p142
ag15
aS'15 min work out'
p143
aS'story of my life projectskinny'
p144
aS'i can and will do it too thinspo beforeandafter'
p145
aS'excuse me '
p146
aS'will someone do me a shoutout please thanks anasisters'
p147
aS'yess ana'
p148
aS'anybody wanna play'
p149
aS'thinspo lt3'
p150
aS'thinspo thighgap edfamily ana mia'
p151
aS'yesss'
p152
aS'why cant i be like the pretty girls boys want'
p153
aS'thinspiration  please rt thanks guys xx'
p154
aS'starving only had a black coffee and a bread roll argh'
p155
aS'goodnight my anasisters lets see what tomorrow brings o'
p156
aS'the words what do you want for dinner send my heart into a panic'
p157
aS'were pretty far away jeez'
p158
aS'motivation thanksguys'
p159
aS'sheffield england yourself lt3'
p160
aS'perfection thigh gap'
p161
aS'when a guy tells you youre beautiful just the way you are and you feel like crying because in your head you know hes wrong'
p162
aS'perfection if only'
p163
aS'lt3'
p164
aS'i wish i had a stomach like yours seriously i have fat all in the wrong places i need motivation its so hard'
p165
aS'so jealous of you youre my motivation 3 xx'
p166
aS'f is for friends that fuck with your feelings'
p167
aS'rt for a follow backkk'
p168
aS'thank you 3'
p169
aS'dear thighs why do you have to be so chubby dear stomach why do you have to be so flabby dear me why do you have so many imperfections'
p170
aS'this is so hard i need people on here to help me stomachs literally growling'
p171
aS'will you help me please '
p172
aS'adventure time i must have this'
p173
ag15
aS'hey there please can you follow me back im new to twitter and i need thinspo thank you so much thin'
p174
asS'2013_17'
p175
(lp176
S'if you retweet this youve gained my respect'
p177
as.