(dp0
S'2013_46'
p1
(lp2
S'do you know officer doug harris '
p3
asS'2014_36'
p4
(lp5
S'paris watching cast away lol silly puppy akita akitasofinstagram puppylife'
p6
aS'this little girl lol akita akitalife akitalove akitasofinstagram layinonmyleg sleepybaby\xe2\x80\xa6'
p7
asS'2014_37'
p8
(lp9
S'hi americanakita puppy akitalove babyboy mamasboy mylove akitasofinstagram'
p10
aS'my friend brought me birthday donuts to work loveher'
p11
asS'2014_34'
p12
(lp13
S'so this just happened at my house smh darn my cravings peep the sign in the background lol\xe2\x80\xa6'
p14
aS'this one nail is pissin me off keeps getting messed up so u can stay in painted for the night\xe2\x80\xa6'
p15
aS'this is whats going on in my house akita akitalife akitalove americanakita akitasofinstagram\xe2\x80\xa6'
p16
aS'bear please close ur eyes when u sleep ur creepin mommy out sleepingpuppy akita akitalife\xe2\x80\xa6'
p17
aS'love new song x super dope cant wait for the album'
p18
aS'i love waking up like this my boy right next to me'
p19
aS'kisses not sure while i looked surprised lol'
p20
aS'my look saturday heading to chrisbrownofficial charity flag football game curlyhairdontcare\xe2\x80\xa6'
p21
aS'life is so hard when ur a dog in my house akita akitalove akitasofinstagram spoiledpup\xe2\x80\xa6'
p22
asS'2014_35'
p23
(lp24
S'god knew i needed u more than u needed me he brought u into my life when i most needed u and now\xe2\x80\xa6'
p25
aS'getting faded yummy cirocandapplejuice getting hungry turntup'
p26
aS'my babies my loves my heart love them sooo much akita akitalife akitalove\xe2\x80\xa6'
p27
aS'ugh i feel like i have spiders crawling on me after killing that huge spider over my bed ihatespiders'
p28
aS'so my psychiatrist prescribed me a new med to help with my out of wake ptsd should be here in a few days hope it helpsat least alittle'
p29
aS'so the quality sucks but there is a big ass spider right over my bed where is my man when i need\xe2\x80\xa6'
p30
aS'on his nightly watch akita akitasofinstagram nosey watchdog akitalife'
p31
aS'on his nightly watch akita watchdog noisy akitalove akitasofinstagram'
p32
aS'we are loyal lol preordered xthealbum cant wait 91614'
p33
aS'scary u dont wanna come into my house lol akita akitalife mybaby mamasboy scary\xe2\x80\xa6'
p34
aS'a saturday afternoon akita akitalife akitalove akitasofinstagram lazyakita'
p35
aS'preordered my xthealbum cant wait xthealbum chrisbrown 91614'
p36
aS'preordered my chrisbrownofficial xthealbum cant wait xthealbum chrisbrown teambreezy'
p37
aS'highway 105 selfie lol losangeles tgif'
p38
aS'this boy is loyal hehehehe akita addicted akitalove akitasofinstagram mamasboy cutie cantstop\xe2\x80\xa6'
p39
aS'look how cute i am akita akitalife akitalove akitasofinstagram cutie paris love puppylife'
p40
aS'he thinks he blends in with the curtain lol akita sillyboy akitalife akitalove\xe2\x80\xa6'
p41
aS'ordered about 10 iphone covers tonight before i buy the others i think its time for cake and then bedtime \xf0\x9f\x92\x95'
p42
aS'i think i have a problem i have ordered about 10 chrisbrownofficial iphone cases and i see a few\xe2\x80\xa6'
p43
aS'omg i cant stoplol new chrisbrownofficial iphone case teambreezy chrisbrown iphone shopaholic'
p44
aS'i tore this watermelon up today yummy favoritefruit refreshing sweet'
p45
aS'omg i think im addicted to chrisbrownofficial iphone covers i love them all i cant choose just\xe2\x80\xa6'
p46
aS'ok for real last one i hope lol this is the last chrisbrownofficial iphone cover i ordered\xe2\x80\xa6'
p47
aS'if yall know me u know it love two things shopping and chrisbrownofficial so dont be surprised\xe2\x80\xa6'
p48
aS'i decided on this chrisbrownofficial iphone cover too gotta have options lol teambreezy\xe2\x80\xa6'
p49
aS'last but not least the last bday gift to myself is this chrisbrownofficial black pyramid iphone\xe2\x80\xa6'
p50
aS'so u cant see the whole cover but this another chrisbrownofficial iphone cover i got teambreezy\xe2\x80\xa6'
p51
aS'this the other chrisbrownofficial xalbum iphone cover i bought myself for my bday teambreezy\xe2\x80\xa6'
p52
aS'happy early birthday to me again just ordered me an chrisbrownofficial xalbum iphone cover \xe2\x80\xa6'
p53
aS'happy early birthday to me pre order chrisbrownofficial x album bout to be turnt up chrisbrown\xe2\x80\xa6'
p54
aS'just posted a photo'
p55
aS'every day i pray for a normal day '
p56
aS'just posted a photo'
p57
aS'are you a true hero '
p58
aS'just posted a photo'
p59
aS'best dog tags i will ever wear '
p60
aS'just posted a photo'
p61
aS'if we can save at least one life by educating someone who didnt know we are succeeding '
p62
aS'please '
p63
aS'youre not alone '
p64
aS'only one can judge me '
p65
aS'just posted a photo'
p66
aS'spread the word '
p67
aS'make this promise to yourself '
p68
aS'just posted a photo'
p69
aS'as with any illness or disease awareness matters even with ptsd '
p70
aS'awareness and acceptance go hand in hand with ptsd '
p71
aS'i found out that a lot of people dont even know what ptsd is'
p72
aS'silence is deadly '
p73
aS'just posted a photo'
p74
aS'not all wounds are visible '
p75
aS'enough said '
p76
aS'my scars are still open but getting better each day awareness is key '
p77
aS'seen this pic and it hit home for me i recently had some girls make fun of me when i showed up to\xe2\x80\xa6'
p78
aS'thats awesome im doing the same after being made fun of multiple timessmhif u need help let me know'
p79
aS'this boy help me get through the day he is ready to go on our walk with his cesarsway backpack he\xe2\x80\xa6'
p80
aS'awwww thanks i appreciate that it does suck and people are so unaware about it kinda like als '
p81
aS'been having a rough few days with my ptsd need either more meds or either to like my ig or send a tweet lol'
p82
aS'please can i have some food bear prada paris akita americanakita akitalife akitalove\xe2\x80\xa6'
p83
aS'makes average life so much more bearable lol terribrady we rockin chrisbrownofficial loyal on\xe2\x80\xa6'
p84
aS'here we go terribrady'
p85
aS'here we go ghetto roller coaster terribrady'
p86
aS'ghetto roller coaster continued terribrady'
p87
aS'me and terribrady ridin the ghetto roller coaster lol rockin chrisbrownofficial loyal while we\xe2\x80\xa6'
p88
aS'the beast akita americanakita akitalife akitalove akitasofinstagram bigteeth spoiledpup\xe2\x80\xa6'
p89
aS'this what happens when i leave the house for an hour and come home lol akita akitalife akitalove\xe2\x80\xa6'
p90
aS'singin the shyt outa new flame at the dmv people lookin at me like stfulolsmh people dont know good music nowa days '
p91
aS'made a friend fishing last night he was soooo cute longbeach sealion feeditmyfish itrainedit\xe2\x80\xa6'
p92
aS'just preorders the new chrisbrownofficial album cant wait been turnt up all morning x\xe2\x80\xa6'
p93
aS'yay just got the new album been turnt up all morning'
p94
asS'2014_32'
p95
(lp96
S'prada is pissed off cuz she gotta wear my ghetto version of hot pants right now akita akitalove\xe2\x80\xa6'
p97
aS'paris loves the looney tunes \xf0\x9f\x98\x8d\xf0\x9f\x98\x8d\xf0\x9f\x98\x8dakita akitalove akitasofinstagram puppylife cartoons'
p98
aS'paris loves the looney tunes'
p99
aS'watch as your lashes transform into'
p100
aS'have you been looking for a new makeup that wont leave you feeling heavy this is the makeup for you younique'
p101
aS'are your makeup brushes living up to your makeup standards '
p102
aS'what is in your purse'
p103
aS'true and its more fun'
p104
aS'the benefits of our rose water mist'
p105
aS'for those who are like me and like to play with color our 32 different pigment colors will satisfy all your'
p106
aS'want fabulous lashes try our 3d lash mascara it wont leave you short'
p107
aS'you only get one face doesnt it deserve to be loved with the right makeup'
p108
aS'no worry ordering'
p109
aS'get yours today you wont regret it'
p110
aS'even barbie knows the importance of fabulous lashes '
p111
aS'3d lash mascara is amazing never wear false lashes again '
p112
aS'love love love this mascara '
p113
asS'2014_33'
p114
(lp115
S'hi cesarplease please please help memy service dog growls and tries to bite certain people i am afraid he is going to bite'
p116
aS'was hoping to meet tonight to give him something of gratitude maybe next time im getting closer each event '
p117
aS'bear watching chrisbrownofficial'
p118
aS'had so much fun at the flag football game chrisbrownofficial staff was soooo nice and accommodating\xe2\x80\xa6'
p119
aS'bear enjoyed watching chrisbrownofficial at the flag football game '
p120
aS'just left charity flag football staff was so nice and accommodating to me and my service dog'
p121
aS'chris brown feat usher amp rick ross  new flame love ft usher new video its super hot watchin all day'
p122
aS'wonder how 3d lashes work'
p123
aS'want to be your own boss or earn a little extra cash while having fun become a presenter for younique it is a'
p124
aS'never use false lashes again this hassle free mascara will be your new best friend for your makeup routine'
p125
aS'stop moving fish so i can get the hook out and send u home longbeach blackpyramid\xe2\x80\xa6'
p126
aS'got the hook out yay blackpyramid mystepdadwouldbesoproud nightfishing longbeach lovefishing'
p127
aS'night fishing in my gear longbeach catchampreleasefishing nightfishing blackpyramid\xe2\x80\xa6'
p128
aS'last nights catch'
p129
aS'fishing'
p130
aS'fishing in my sweatshirt  blackpyramid longbeach oceanfishing catchampreleasefishing\xe2\x80\xa6'
p131
aS'thank you lisa carter for you order i hope you enjoy your 3d mascara it is amazing '
p132
aS'hello everyone i will be hosting a virtual party starting this friday during this time you will be able to'
p133
asS'2014_30'
p134
(lp135
S'ying and yang kinda lol akita lazyakita puppylove'
p136
aS'knocked out sleepingpuppy'
p137
aS'i have one super dominant one submissive and one to young to figure it out lol'
p138
aS'dominant or submissive which is your dog'
p139
aS'good morning '
p140
aS'sleeping baby she loves my lap lol'
p141
aS'i would love to have a flag flown over afghanistan in ur name in honor of all the charity u do'
p142
aS'really prada lazyakita akita puppylife spoiledpup'
p143
aS'they love mcdonalds '
p144
aS'thats why my family and i prep better safe than sorry when chaos happens'
p145
asS'2014_31'
p146
(lp147
S'anyone want an akita fur coat lol akita akitalove akitasofinstagram sheddingakitas somuchhair'
p148
aS'start of the furmanator lol akita akitalove akitasofinstagram sheddingakitas'
p149
aS'please mama can i have some nachos im looking soooo cute right now akita akitalove\xe2\x80\xa6'
p150
aS'i wonder what shes dreamin over akita akitalove dreaminpuppy akitasofinstagram puppylove\xe2\x80\xa6'
p151
aS'yup i can think of a couple puppies getting shaved this weekend akita sheddingakitas\xe2\x80\xa6'
p152
asS'2012_26'
p153
(lp154
S'just got and am sooo excited to read '
p155
asS'2014_38'
p156
(lp157
S'yezzzzz that ac feels so good americanakita akitasofinstagram hotday'
p158
aS'loving the ac on a hot la day akitasofinstagram americanakita babyboy hotday mamasboy mylove'
p159
aS'my baby boy \xe2\x9d\xa4\xef\xb8\x8f\xe2\x9d\xa4\xef\xb8\x8f\xe2\x9d\xa4\xef\xb8\x8f\xe2\x9d\xa4\xef\xb8\x8f akitas akitalove akitasofinstagram americanakita mamasboy lovehim babyboy'
p160
aS'eeeewwwww bear drool on my leg lol akitas akitalove akitasdrool lovehim gross'
p161
aS'paris looks so cute in her hot pantslol cutie akitalove akitasofinstagram puppy americanakita'
p162
asS'2014_39'
p163
(lp164
S'i had a question i want to start a ptsd campaign here in la but i dont know where to start is there somewhere i can learn'
p165
aS'hes lookin like  mama quit takin selfies and drive me home lol americanakita akitasofinstagram\xe2\x80\xa6'
p166
asS'2014_19'
p167
(lp168
S'when you ask someone a question and you know they\xef\xbf\xbdre bullshiting'
p169
asS'2014_12'
p170
(lp171
S'how much do u charge for private parties or workouts '
p172
asS'2014_13'
p173
(lp174
S'u should stop by kuwait on ur way home '
p175
asS'2012_21'
p176
(lp177
S'you ever think about doing uso tours for the troops deployed and overseas '
p178
aS'hi chris thank you for your music it helped me get through some of the hardest times in the worst place in the world luv u '
p179
aS'r u planin any shows in la soon i been waitin years to c u and unfortunately was in afghanistan the last time you came out'
p180
aS'hey hun will u follow me i just created my accountlol'
p181
aS'r u planin any shows in la soon i been waitin years to c u and unfortunately was in afghanistan the last time you came out'
p182
asS'2014_8'
p183
(lp184
S'cant wait for workout videos so i can get toned and sexier on this deployment '
p185
asS'2013_52'
p186
(lp187
S'is it too late to donate a toy to your toy drive was unable to make it today due to military obligations '
p188
asS'2014_7'
p189
(lp190
S'had a rough night was suppose to have a party to send me off but my baby got hit by a car right in front of my face '
p191
aS'just pledge and backed cant wait to get my lounge shorts '
p192
aS'my babies and my neighbor whos gonna walk them while im deployed  soooo cute'
p193
aS'those are super cute i want some '
p194
asS'2014_5'
p195
(lp196
S'when are your workout videos suppose to come out '
p197
asS'2014_3'
p198
(lp199
S'off to another deployment gotta make sure i have all my on my ipod before i go to keep me sane'
p200
asS'2014_29'
p201
(lp202
S'charity celeb kickball game tonight with chrisbrownofficial was amazing great time teambreezy\xe2\x80\xa6'
p203
aS'chrisbrownofficial car game is sick '
p204
aS'a pic with chrisbrownofficial car at charity kickball game amazing time '
p205
asS'2014_28'
p206
(lp207
S'wore my new pants to the va hospital and had all these ww2 men trynna holla '
p208
aS'this dog break my nose again and hes the one gonna be having surgery lol'
p209
asS'2014_20'
p210
(lp211
S'any one able to tell whats happening in this picture lol'
p212
aS'enjoying the new air cooler on a hot la day '
p213
aS'hey boo love u'
p214
aS'u like or nah '
p215
asS'2014_22'
p216
(lp217
S'please help i just returned from deployment after being diagnosed with ptsd and now my 14 month old akita is aggressive'
p218
asS'2014_25'
p219
(lp220
S'the stuffed orca was a dog chew toy'
p221
aS'they are called killer whales'
p222
aS'look chad they are giving the orcas to the dogs now '
p223
aS'found in big lots '
p224
aS'really hope got some shows in la planned so i can finally make one been waitin soooo long to see him '
p225
asS'2014_27'
p226
(lp227
S'hip hop rumors reality show  via not into to many reality shows but i think i would watch'
p228
asS'2014_26'
p229
(lp230
S'my ptsd support met me lax'
p231
aS'bear got his new backpack today he loves it already cesarsway akita puppylove packleader'
p232
aS'after 30 something hours of traveling to get home this was what i needed to meet me at the airport\xe2\x80\xa6'
p233
aS'is your dvd coming out around the same time'
p234
aS'i cant wait im super excited '
p235
aS'love when is your app coming out i cant wait '
p236
aS'trying to be like  cant wait for fresh eggs yummy '
p237
as.