(dp0
S'2013_48'
p1
(lp2
S'un ba\xc3\xb1ador en corte b\xc3\xa1sico luce muy hermoso en unicolor '
p3
aS'cada ropa interior tiene un estilo que nos cautiva y llega a convertirse en nuestra preferida'
p4
aS'get in my bed'
p5
aS''
p6
ag6
ag6
ag6
ag6
ag6
ag6
ag6
ag6
ag6
ag6
ag6
ag6
ag6
ag6
ag6
ag6
ag6
asS'2013_46'
p7
(lp8
g6
ag6
ag6
ag6
ag6
ag6
ag6
ag6
ag6
ag6
ag6
ag6
ag6
ag6
ag6
ag6
ag6
ag6
ag6
ag6
ag6
ag6
ag6
ag6
ag6
ag6
ag6
ag6
ag6
ag6
ag6
ag6
ag6
ag6
ag6
ag6
ag6
ag6
ag6
ag6
ag6
ag6
ag6
ag6
ag6
ag6
ag6
ag6
ag6
ag6
ag6
ag6
ag6
ag6
ag6
ag6
ag6
ag6
ag6
ag6
aS'bodybuilding muscle musclegod biceps muscles muscleworship abs gay gaymuscle pecs model'
p9
ag6
ag6
ag6
ag6
ag6
ag6
ag6
ag6
ag6
ag6
ag6
ag6
ag6
ag6
ag6
ag6
ag6
ag6
ag6
ag6
ag6
ag6
ag6
ag6
ag6
ag6
ag6
ag6
ag6
ag6
ag6
ag6
ag6
ag6
ag6
ag6
ag6
ag6
ag6
ag6
ag6
ag6
ag6
ag6
ag6
ag6
ag6
ag6
ag6
ag6
ag6
ag6
ag6
ag6
ag6
ag6
ag6
ag6
ag6
ag6
ag6
aS'perfection'
p10
aS'hhhot'
p11
aS'the pride of upstate new york legendary'
p12
aS'tough man grimace from darrell thomas'
p13
aS'flexing darrell thomas'
p14
ag6
ag6
ag6
ag6
ag6
ag6
ag6
ag6
ag6
ag6
ag6
ag6
ag6
ag6
ag6
ag6
ag6
ag6
ag6
ag6
ag6
ag6
ag6
ag6
ag6
ag6
ag6
ag6
ag6
ag6
ag6
ag6
ag6
ag6
ag6
ag6
ag6
ag6
ag6
ag6
ag6
ag6
ag6
ag6
ag6
ag6
ag6
ag6
ag6
ag6
ag6
ag6
ag6
ag6
ag6
ag6
ag6
ag6
ag6
ag6
ag6
ag6
ag6
ag6
ag6
ag6
ag6
ag6
ag6
ag6
ag6
ag6
ag6
ag6
ag6
ag6
ag6
ag6
ag6
ag6
ag6
ag6
ag6
ag6
ag6
ag6
ag6
ag6
ag6
ag6
ag6
ag6
ag6
ag6
ag6
ag6
ag6
ag6
ag6
ag6
ag6
ag6
ag6
ag6
ag6
ag6
ag6
ag6
ag6
ag6
ag6
ag6
ag6
ag6
ag6
ag6
ag6
ag6
ag6
ag6
ag6
ag6
ag6
ag6
ag6
ag6
ag6
ag6
ag6
ag6
ag6
ag6
ag6
ag6
ag6
ag6
ag6
ag6
ag6
ag6
ag6
ag6
ag6
ag6
ag6
ag6
ag6
ag6
ag6
ag6
ag6
ag6
ag6
ag6
ag6
ag6
ag6
ag6
ag6
ag6
ag6
ag6
ag6
ag6
ag6
ag6
ag6
ag6
ag6
ag6
ag6
ag6
ag6
ag6
ag6
ag6
ag6
ag6
ag6
ag6
ag6
ag6
ag6
ag6
ag6
ag6
ag6
ag6
ag6
ag6
ag6
ag6
ag6
ag6
ag6
ag6
ag6
ag6
ag6
ag6
ag6
ag6
ag6
ag6
ag6
ag6
ag6
ag6
ag6
ag6
ag6
ag6
ag6
ag6
ag6
ag6
ag6
ag6
ag6
ag6
ag6
ag6
ag6
ag6
ag6
ag6
ag6
ag6
aS'hunk'
p15
aS'the hero wow\xe2\x80\x9d'
p16
ag6
ag6
ag6
aS'photo bench post from on twitter'
p17
asS'2013_47'
p18
(lp19
g6
ag6
ag6
ag6
aS'i want to go to bed with him'
p20
ag6
ag6
aS'wouldnt mind to sleep next to him \xe2\x80\x9d'
p21
aS'bulge bigdick bigmen'
p22
ag6
aS'inspiration pic'
p23
aS'who wants him'
p24
ag6
aS'muy buenos dias'
p25
ag6
ag6
ag6
ag6
ag6
ag6
aS'perfect damn handsome i want it '
p26
aS'great macho'
p27
ag6
ag6
ag6
aS'gorgeous rt'
p28
ag6
ag6
aS'whew \xe2\x80\x9c\xe2\x80\x9d'
p29
aS'sexy'
p30
aS'wishing all a snuggling good time if you are home tonight'
p31
ag6
ag6
ag6
ag6
aS'will \xe2\x80\x9d'
p32
aS'damn cute guy'
p33
aS'very beautiful'
p34
aS'sexy cute handsome'
p35
aS'rt perfect muscle'
p36
ag6
aS'retweeting this because i love horses\xe2\x80\xa6and hot guys'
p37
aS'night y\xe2\x80\x99all'
p38
aS'miami'
p39
aS'i\xe2\x80\x99m suddenly keen to exercise \xe2\x80\x9d'
p40
ag6
ag6
ag6
aS'wishing all a snuggling good time if you are home tonight'
p41
aS'sport'
p42
aS'street boy'
p43
aS'water boy'
p44
aS'guy'
p45
aS'velvet'
p46
aS'nuestro descanso siempre debe ser con m\xc3\xa1xima comodidad en nuestra ropa interior'
p47
aS'nice boy'
p48
aS'con una hermosa ropa interior no necesitas llevar pantalones en la calle'
p49
aS'hot guy'
p50
aS'mr muscle'
p51
aS'nuestro descanso siempre ser\xc3\xa1 m\xc3\xa1s placentero con una buena ropa interior  '
p52
aS'dise\xc3\xb1amos ropa interior masculina y la fabricamos para ti hechoenvenezuela'
p53
ag6
ag6
ag6
ag6
ag6
aS'stud\xe2\x80\x9c\xe2\x80\x9d'
p54
aS'perfect'
p55
ag6
aS'let\xe2\x80\x99s start today with some sexy men that\xe2\x80\x99s a great way to start the day \xe2\x80\x9d'
p56
aS'\xc2\xa1menuda pequet\xc3\xb3n oo'
p57
ag6
aS'a good reason to like new york rt'
p58
aS'hot vpl bulge\xe2\x80\x9c\xe2\x80\x9d'
p59
ag6
aS'buenos d\xc3\xadas tweeteros i love \xe2\x99\xa5 \xe2\x99\xa5 \xe2\x99\xa5 \xe2\x99\xa5'
p60
aS'sexy in his ck\xe2\x80\x99s\xe2\x80\xa6 damn sexy getmeinthatshower lol\xe2\x80\x9d'
p61
aS'a good one to have a male crush on mancrush for sure wow what a beautifulman \xe2\x80\x9d'
p62
ag6
ag6
ag6
ag6
ag6
ag6
ag6
aS'sexy in his cks'
p63
aS'sexy in his cks'
p64
aS'sexiest soccer player ever'
p65
aS'henry spurrier'
p66
ag6
ag6
ag6
ag6
ag6
ag6
ag6
ag6
ag6
ag6
ag6
ag6
ag6
ag6
ag6
ag6
ag6
ag6
ag6
ag6
ag6
ag6
ag6
ag6
ag6
ag6
ag6
ag6
ag6
ag6
ag6
ag6
ag6
ag6
ag6
ag6
ag6
ag6
ag6
ag6
ag6
ag6
ag6
ag6
ag6
ag6
ag6
ag6
ag6
ag6
ag6
ag6
aS'nos encanta lucir muy bien y seleccionamos la prenda \xc3\xadntima que m\xc3\xa1s nos guste '
p67
ag6
ag6
ag6
ag6
ag6
ag6
ag6
ag6
ag6
ag6
ag6
ag6
ag6
ag6
ag6
ag6
ag6
ag6
ag6
ag6
ag6
ag6
ag6
ag6
ag6
ag6
ag6
ag6
ag6
ag6
ag6
ag6
ag6
ag6
ag6
ag6
ag6
ag6
ag6
ag6
ag6
ag6
ag6
ag6
ag6
ag6
ag6
ag6
ag6
ag6
ag6
ag6
ag6
ag6
ag6
ag6
ag6
ag6
ag6
ag6
ag6
ag6
ag6
ag6
ag6
ag6
ag6
ag6
ag6
ag6
ag6
ag6
ag6
ag6
ag6
ag6
ag6
ag6
ag6
ag6
ag6
ag6
ag6
ag6
ag6
ag6
ag6
ag6
ag6
ag6
ag6
ag6
ag6
ag6
ag6
ag6
ag6
ag6
aS'todos necesitamos una ropa interior que nos haga sentir m\xc3\xa1xima comodidad'
p68
aS'so glad its football season \xf0\x9f\x8f\x88'
p69
aS'i need a vacation'
p70
aS'dirty boysgtgtgt'
p71
aS'im in gitty up'
p72
aS'swimmersgtgtgt'
p73
aS'yes lawddd'
p74
aS'its hump me day'
p75
aS'its hump me day'
p76
aS'enjoy  share the love and rt hotguys sexyguys hotmen ladywood'
p77
aS'enjoy  share the love and rt hotguys sexyguys hotmen ladywood'
p78
aS'enjoy  share the love and rt hotguys sexyguys hotmen ladywood'
p79
aS'enjoy  share the love and rt hotguys sexyguys hotmen ladywood'
p80
aS'enjoy  share the love and rt hotguys sexyguys hotmen ladywood'
p81
aS'enjoy  share the love and rt hotguys sexyguys hotmen ladywood'
p82
aS'enjoy  share the love and rt hotguys sexyguys hotmen ladywood'
p83
aS'enjoy  share the love and rt hotguys sexyguys hotmen ladywood'
p84
aS'un b\xc3\xa1sico en color blanco sin el\xc3\xa1stico nos permite sentir mucha m\xc3\xa1s comodidad todo el d\xc3\xada'
p85
aS'un interior blanco es clase prestigio categor\xc3\xada distinci\xc3\xb3n y muy buen gusto '
p86
aS'un hombre que usa ropa interior blanca siempre ser\xc3\xa1 virgen en su intimidad'
p87
aS'con una buena ropa interior no necesitas llevar pantalones mientras conduces en moto'
p88
aS'feliz d\xc3\xada para todos un cordial saludo hoy puede ser un excelente d\xc3\xada para ir a la playa'
p89
aS'aprendamos a dar y veremos lo bueno que ser\xc3\xa1 recibir m\xc3\xa1s adelante '
p90
aS'un interior blanco no hace ver m\xc3\xa1s atractivos muy masculinos y extremadamente sexy'
p91
ag6
ag6
ag6
ag6
ag6
ag6
ag6
ag6
ag6
ag6
ag6
ag6
aS'hot undies'
p92
ag6
ag6
ag6
ag6
ag6
ag6
ag6
ag6
ag6
ag6
ag6
ag6
ag6
ag6
ag6
ag6
ag6
ag6
ag6
ag6
ag6
ag6
ag6
ag6
ag6
ag6
ag6
ag6
ag6
ag6
ag6
ag6
ag6
ag6
ag6
ag6
ag6
ag6
ag6
ag6
ag6
ag6
ag6
ag6
ag6
ag6
ag6
ag6
ag6
ag6
ag6
ag6
ag6
ag6
ag6
ag6
ag6
ag6
ag6
ag6
ag6
ag6
asS'2013_44'
p93
(lp94
S'thierry pepin wears gregg homme 2013 western collection snakeskinambiance mmmm'
p95
aS'mike stalker really hot in his cin2s'
p96
aS'hunkoftheday lets bike with model and actor rusty joiner'
p97
aS'my biggest crush till date coz hes hot and sweet \xf0\x9f\x98\x98\xf0\x9f\x98\x98'
p98
aS'my crush is so cute \xf0\x9f\x98\x98\xf0\x9f\x98\x8d\xf0\x9f\x98\x8d'
p99
aS'you are so sweet and cute \xf0\x9f\x98\x98'
p100
aS'missing you hunk on my timeline i hope all is well with you \xf0\x9f\x98\x98\xf0\x9f\x98\x98\xf0\x9f\x98\x8d'
p101
aS'you are really perfection personified you are so dreamy'
p102
aS'bless us and splash us precious that is a meaty mouthful'
p103
aS'have a good day \xf0\x9f\x98\x9c'
p104
ag6
ag6
ag6
ag6
ag6
ag6
ag6
ag6
ag6
ag6
ag6
ag6
ag6
ag6
ag6
ag6
ag6
ag6
ag6
ag6
ag6
ag6
aS'smoldering look'
p105
aS'muscle hotness'
p106
aS'luke guldan'
p107
aS'hola'
p108
ag6
aS'jake campione'
p109
aS'jake campione'
p110
ag6
ag6
ag6
aS'jake campione'
p111
ag6
ag6
ag6
ag6
aS'jake campione'
p112
ag6
ag6
ag6
aS'martin pichler'
p113
aS'martin pichler'
p114
aS'martin pichler'
p115
aS'martin pichler'
p116
aS'martin pichler'
p117
aS'martin pichler'
p118
aS'matthew stone'
p119
aS'matthew stone'
p120
aS'matthew stone'
p121
aS'matthew stone'
p122
aS'matthew stone'
p123
aS'matthew stone'
p124
aS'matthew stone'
p125
aS'matthew stone'
p126
aS'matthew stone'
p127
aS'matthew stone'
p128
aS'matthew stone'
p129
aS'matthew stone'
p130
aS'matthew stone'
p131
aS'matthew stone'
p132
aS'ricardo baldin'
p133
aS'ricardo baldin'
p134
aS'ricardo baldin'
p135
aS'ricardo baldin'
p136
aS'ricardo baldin'
p137
aS'ricardo baldin'
p138
aS'ricardo baldin'
p139
ag6
ag6
ag6
ag6
aS'ricardo baldin'
p140
ag6
ag6
ag6
aS'ricardo baldin'
p141
aS'ricardo baldin'
p142
ag6
ag6
aS'il attend mon appel'
p143
ag6
ag6
ag6
ag6
ag6
aS'sexy'
p144
aS'sexy'
p145
aS'handsome de lujoooooo waoo'
p146
aS'sexy shirtless grrrrr'
p147
aS'humpy\xe2\x80\x9d'
p148
aS'rob green'
p149
aS'hot bulge sexy chest'
p150
aS'paul knops'
p151
aS'one hell of a h o t selfie'
p152
aS'sidney allan'
p153
ag6
ag6
aS'josh coburn'
p154
aS'aaron thornton'
p155
aS'rt'
p156
aS'daniel rumfelt'
p157
ag6
aS'michicodeldia para pararnos a gusto buenos d\xc3\xadas \xe2\x98\x80'
p158
aS'a la playawow\xe2\x80\x9d'
p159
aS'muscles rt '
p160
ag6
aS'football time can be my quarterback anytime photo by'
p161
aS'it\xe2\x80\x99s shower time gayporn gaymuscle via'
p162
aS'hose me down bernardo velasco 1'
p163
aS'oh baby please breed me i wanna have your babies'
p164
aS'our 1st sex god nick ayler'
p165
aS'an excellent place for to wear his undies'
p166
aS'the sexy italian hopes to score in these undies thats why hes mr underwear'
p167
aS'pnv inspiration in some fancy undies'
p168
aS'be sure to follow on twitterhe is a sweetheart and stay tuned for more colby in the days ahead ht\xe2\x80\xa6'
p169
aS'for a while lived in australia very well traveledhe dreams of seeing all the earths historic sites \xe2\x80\xa6'
p170
aS'healthy curves are beautiful says  no debate from me on that one'
p171
aS'chris farrell by tom cullis'
p172
aS'ripped rt si te gusta esta macho'
p173
aS'here is a provocative tyler p scott pic by tom cullis that i have never tweeted before'
p174
aS'carrying the pigskin daniel rumfelt with a bit of torso hair'
p175
ag6
ag6
ag6
ag6
ag6
aS'beautiful fall colors surround hunky'
p176
aS'very beautiful'
p177
aS'some ebony beauty of the day'
p178
aS'very cute boy'
p179
aS'muscle hottie tim gabel ripped hottie muscles'
p180
aS'hot perfect'
p181
aS'another photo of darrell thomas by tom cullis'
p182
aS'awesome oiled up image of rob sager by tom cullis'
p183
aS'all kinds of bulges on hottie model'
p184
aS'sexy bampw of kansan daniel rumfelt posing in the sand'
p185
aS'cmon on in sexy boy daniel rumfelt lingering in the garden'
p186
aS'now my continuing series on sexy allamerican super stud model who lives in la pic by tom cullis'
p187
aS'megapopular has such a chiseled face with blue eyes amp sexy lips to go with his brown hair he is 28 \xe2\x80\xa6'
p188
aS'i have pics coming this wk frm fashion wk selfies and the beach promise selfie'
p189
aS'yes crazy busy but having a blast so much fun have a good night modelstatus'
p190
aS'colbylefebvre for nothing feels better on the skin then these madeinheaven mentionperfection'
p191
aS'umm mylifeinoneword amazing'
p192
aS'excited for a very cool magazineshoot i have coming up leaning out starting 2day modelstatus cantwait hungry ht\xe2\x80\xa6'
p193
aS'this wk 2 new interviews out filming amp a public covermodel signing this wkend disneyland mondaymotivation fun'
p194
aS'off 2 bed how much do i luv my shoot many new shoots 2 post soon htt\xe2\x80\xa6'
p195
aS'thanks for the love '
p196
aS'chilling with a cup of tea sixpack fitness fitnessmodel model physique tea friday photography weekend'
p197
aS'shoot model fitness calvinklein shoot photo physique sixpack pose fitnessmodel underwear friday weekend'
p198
aS'asd'
p199
aS'be sure to follow on twitterhe is a sweetheart and stay tuned for more colby in the days ahead ht\xe2\x80\xa6'
p200
ag6
aS'says industry standards for runway models r sadto competethey r severely underwgt amp malnutritioned \xe2\x80\xa6'
p201
ag6
ag6
ag6
ag6
ag6
ag6
ag6
ag6
ag6
ag6
ag6
ag6
ag6
ag6
ag6
ag6
aS'radoslav vanko'
p202
aS'radoslav vanko'
p203
aS'radoslav vanko'
p204
aS'radoslav vanko'
p205
aS'radoslav vanko'
p206
aS'radoslav vanko'
p207
aS'radoslav vanko'
p208
aS'radoslav vanko'
p209
ag6
aS'sexy bampw of kansan daniel rumfelt posing in the sand'
p210
ag6
ag6
ag6
ag6
ag6
ag6
ag6
ag6
ag6
ag6
ag6
ag6
ag6
aS'ren\xc3\xa9 grincourt'
p211
aS'jake cassar'
p212
ag6
aS'alex santaniello'
p213
aS'jerome ortiz'
p214
aS'jerome ortiz'
p215
aS'jerome ortiz'
p216
aS'jed hill'
p217
aS'jed hill'
p218
ag6
ag6
ag6
ag6
ag6
ag6
ag6
ag6
ag6
ag6
ag6
ag6
ag6
ag6
ag6
ag6
ag6
ag6
aS'jed hill'
p219
aS'jed hill'
p220
ag6
aS'ryan terry'
p221
aS'ryan terry'
p222
aS'ryan terry'
p223
aS'ryan terry'
p224
aS'ryan terry'
p225
aS'ryan terry'
p226
aS'hottie of the day m lukas stripping down hot'
p227
aS'marc fitt'
p228
aS'marc fitt'
p229
aS'marc fitt'
p230
aS'marc fitt'
p231
aS'marc fitt'
p232
aS'marc fitt'
p233
ag6
ag6
ag6
ag6
ag6
ag6
ag6
ag6
ag6
ag6
ag6
ag6
ag6
ag6
ag6
ag6
ag6
ag6
aS'kacey carrig'
p234
ag6
ag6
aS'julian schratter'
p235
aS'the today winner'
p236
aS'good morning tweeps gayporn gaymuscle maleperfection fotogay pornogay hunglatin'
p237
aS'save a horse and ride a cowboy nakedsunday go follow him'
p238
aS'buenas noches'
p239
aS'almost friday yay'
p240
aS'so call me maybe'
p241
aS'sweet dreams '
p242
aS'blue or white'
p243
aS'morning peeps'
p244
aS'enjoy  share the love and rt hotguys sexyguys hotmen'
p245
aS'saturday history saturdayknight saturdaylibrarian saturdaylook'
p246
aS'i dont always send pink wednesdays pics but when i do theyre hot yes yes t\xe2\x80\xa6'
p247
ag6
aS'samuel dixon'
p248
aS'nick duffy abs out time from this morning gc '
p249
ag6
aS'benjamin godfre'
p250
aS'hangin\xe2\x80\x99 all day with his teammates'
p251
aS'justice joslin'
p252
aS'hot hunk sexy abs muscle'
p253
aS'nice'
p254
aS'brian freeman'
p255
ag6
ag6
ag6
ag6
ag6
ag6
aS'daniel wearing the rugby scout square cut brief'
p256
aS'adam cowie'
p257
aS'hot damn'
p258
aS'jesse roberts'
p259
aS'hot'
p260
aS'mike stalker'
p261
aS'levi jackson'
p262
aS'julien sabaud'
p263
asS'2013_45'
p264
(lp265
g6
aS'edited this killer outtake from our shoot last night'
p266
ag6
ag6
ag6
ag6
ag6
ag6
ag6
ag6
ag6
ag6
ag6
ag6
ag6
ag6
ag6
ag6
ag6
ag6
ag6
ag6
ag6
ag6
ag6
ag6
ag6
ag6
ag6
ag6
ag6
ag6
ag6
ag6
ag6
ag6
ag6
ag6
ag6
ag6
ag6
ag6
ag6
ag6
ag6
ag6
ag6
ag6
ag6
ag6
ag6
ag6
ag6
ag6
ag6
ag6
ag6
ag6
ag6
ag6
ag6
ag6
ag6
ag6
ag6
ag6
ag6
ag6
ag6
ag6
ag6
ag6
aS'el es lucas bernardini'
p267
ag6
ag6
ag6
ag6
ag6
ag6
ag6
ag6
ag6
ag6
ag6
ag6
ag6
ag6
ag6
ag6
ag6
ag6
ag6
ag6
ag6
ag6
ag6
ag6
ag6
ag6
ag6
ag6
ag6
ag6
ag6
ag6
ag6
ag6
ag6
ag6
ag6
ag6
ag6
ag6
ag6
ag6
ag6
ag6
ag6
ag6
ag6
ag6
ag6
ag6
ag6
ag6
ag6
ag6
ag6
ag6
ag6
ag6
ag6
ag6
ag6
ag6
ag6
ag6
ag6
ag6
ag6
ag6
ag6
ag6
ag6
ag6
ag6
ag6
ag6
ag6
ag6
ag6
ag6
ag6
ag6
ag6
ag6
aS'johnny sins'
p268
ag6
ag6
ag6
ag6
ag6
ag6
ag6
ag6
ag6
ag6
ag6
ag6
ag6
ag6
ag6
ag6
ag6
ag6
ag6
ag6
ag6
ag6
ag6
ag6
aS'morning wood of cody'
p269
ag6
aS'edilson nascimento'
p270
ag6
aS'adam becker'
p271
ag6
ag6
ag6
ag6
ag6
ag6
ag6
ag6
ag6
ag6
ag6
ag6
ag6
ag6
ag6
ag6
ag6
ag6
ag6
ag6
ag6
ag6
ag6
aS'fix em up towel time iv'
p272
ag6
ag6
ag6
aS'como est\xc3\xa1n  mmmmmmmmmm rico\xe2\x80\x9d'
p273
aS'damn handsome rt rt sexy'
p274
aS'papasoote mi amorr'
p275
aS'ready to sleep perfectionat least on the outside \xe2\x80\x9d'
p276
aS'you like'
p277
ag6
ag6
ag6
ag6
ag6
ag6
ag6
ag6
ag6
ag6
aS'typical but still eye catching \xf0\x9f\x98\x95\xe2\x80\x9d\xe2\x80\x9d'
p278
aS'alex ceobanu'
p279
aS'alex ceobanu'
p280
ag6
ag6
ag6
ag6
ag6
ag6
ag6
ag6
ag6
ag6
ag6
ag6
ag6
ag6
ag6
ag6
ag6
ag6
ag6
ag6
ag6
ag6
ag6
ag6
ag6
ag6
ag6
ag6
ag6
ag6
ag6
ag6
ag6
ag6
ag6
ag6
ag6
ag6
ag6
ag6
ag6
ag6
ag6
ag6
ag6
ag6
ag6
ag6
ag6
ag6
ag6
ag6
aS'thursday blog thursdayblogministry thursdaybloghop thursdayblog'
p281
aS'damn is he coming or what '
p282
aS'royal thursday thursdayisladiesday thursdayinterviews thursdayinhistory'
p283
aS'gle\xc3\xb0ilega hrekkjav\xc3\xb6ku \xd1\x81 \xd0\xbf\xd1\x80\xd0\xb0\xd0\xb7\xd0\xb4\xd0\xbd\xd0\xb8\xd0\xba\xd0\xbe\xd0\xbc \xd1\x85\xd1\x8d\xd0\xbb\xd0\xbb\xd0\xbe\xd1\x83\xd0\xb8\xd0\xbd \xe4\xb8\x87\xe5\x9c\xa3\xe8\x8a\x82\xe5\xbf\xab\xe4\xb9\x90 \xe0\xa4\x96\xe0\xa5\x81\xe0\xa4\xb6 \xe0\xa4\xb9\xe0\xa5\x87\xe0\xa4\xb2\xe0\xa5\x8b\xe0\xa4\xb5\xe0\xa5\x80\xe0\xa4\xa8 fr\xc3\xb6hliches halloween happy halloween'
p284
aS'friskypicks morninglovelies'
p285
aS'mornin yall x'
p286
aS'friskypicks morninglovelies'
p287
aS'friskypicks morninglovelies'
p288
aS'friskypicks morninglovelies'
p289
aS'friskypicks morninglovelies'
p290
aS'nite yall x'
p291
ag6
ag6
ag6
ag6
ag6
ag6
ag6
ag6
ag6
ag6
ag6
ag6
ag6
ag6
ag6
ag6
ag6
ag6
ag6
ag6
ag6
ag6
ag6
ag6
ag6
ag6
ag6
ag6
ag6
ag6
ag6
ag6
ag6
ag6
ag6
ag6
ag6
ag6
ag6
ag6
ag6
ag6
ag6
ag6
ag6
ag6
ag6
ag6
ag6
ag6
ag6
ag6
ag6
ag6
ag6
ag6
ag6
ag6
ag6
ag6
ag6
ag6
ag6
ag6
ag6
ag6
ag6
ag6
ag6
ag6
ag6
ag6
ag6
ag6
ag6
ag6
aS'like it'
p292
ag6
ag6
ag6
ag6
ag6
aS'countryboy thatweallwanttosuck dry and fuck right after a horseride a cowb\xe2\x80\xa6'
p293
ag6
ag6
ag6
ag6
ag6
ag6
ag6
ag6
ag6
ag6
ag6
ag6
ag6
ag6
ag6
ag6
ag6
ag6
ag6
ag6
ag6
ag6
aS'great male model andrew cooper by arseto addiputra'
p294
ag6
ag6
ag6
ag6
ag6
ag6
ag6
ag6
ag6
ag6
ag6
ag6
ag6
ag6
aS'hot'
p295
ag6
ag6
aS'hot cowboy'
p296
ag6
ag6
ag6
ag6
ag6
ag6
ag6
ag6
ag6
ag6
ag6
ag6
ag6
ag6
ag6
ag6
ag6
ag6
ag6
ag6
ag6
ag6
ag6
ag6
ag6
ag6
ag6
ag6
ag6
ag6
ag6
ag6
ag6
ag6
ag6
ag6
ag6
ag6
ag6
ag6
ag6
ag6
ag6
ag6
aS'sexy\xe2\x80\x9d'
p297
ag6
ag6
ag6
ag6
ag6
aS'colin aveline'
p298
ag6
aS'chris papas'
p299
aS'j\xc3\xa9r\xc3\xa9my pitouu'
p300
aS'radoslav vanko'
p301
aS'via'
p302
aS'alex santaniello via'
p303
aS'rt what are you staring at  damn perfect teamgay muscle stud'
p304
ag6
ag6
ag6
ag6
ag6
ag6
ag6
ag6
ag6
ag6
ag6
aS'terrorista uno asi\xe2\x80\x9d'
p305
ag6
aS'bulge'
p306
aS'sexy'
p307
ag6
aS'chicosguapos'
p308
aS'chicosguapos byn sexy'
p309
ag6
aS'chicosguapos hot sexy amp wet'
p310
aS'sexy'
p311
aS'ryan terry'
p312
aS'ryan terry'
p313
aS'goodmorning  '
p314
aS'2 wink'
p315
aS'gym time'
p316
ag6
aS'nathan lewis'
p317
ag6
aS'que se quite todo '
p318
ag6
ag6
aS'love a man in eampa \xe2\x80\x9d'
p319
aS'winsome come hither sir'
p320
ag6
aS'malebasics'
p321
aS'new at gear the varsity collection from'
p322
ag6
ag6
ag6
ag6
ag6
ag6
ag6
ag6
ag6
ag6
ag6
ag6
ag6
ag6
ag6
ag6
aS'hornyydude'
p323
ag6
ag6
ag6
aS'noel kirvendows'
p324
aS'noel kirvendows'
p325
ag6
as.