(dp0
S'2013_42'
p1
(lp2
S'wake up put my dank in my swisher'
p3
aS''
p4
aS'just take a hit no time to quick'
p5
aS'i was expecting cold weather to start occurring'
p6
aS'someone come to the fucken library'
p7
asS'2013_43'
p8
(lp9
S'aint gonna do that again for a long time haha'
p10
aS'somethings wrong with her'
p11
aS'best night'
p12
aS'out here ballin'
p13
aS'weed isnt a drug \xf0\x9f\x8d\x81'
p14
aS'whats his name'
p15
aS'ive always wanted to live in new york'
p16
aS'waken baken\xf0\x9f\x8d\x81'
p17
aS'i need some peace in my life'
p18
aS'im tierd of this my only way out is to get in the game'
p19
aS'hate waiting for your ass'
p20
aS'why cause he looks like ronnie banks lol'
p21
asS'2013_40'
p22
(lp23
S'craziest party last night'
p24
aS'party at jesses'
p25
aS'birches care too much about my personal life\xf0\x9f\x98\x92'
p26
aS'im awake and i feel good now its time to get baked'
p27
aS'im in love with mary jane shes my main thang she makes me feel alright she makes my heart sang \xf0\x9f\x92\x95\xf0\x9f\x98\x8e\xf0\x9f\x92\x95'
p28
aS'yayyyy\xf0\x9f\x98\x83'
p29
aS'fuck you ima do whats best for me'
p30
aS'ill always fail so why even try'
p31
aS'this girl just cant cooperate with me just for once'
p32
aS'the way you people talk is just humiliating lol'
p33
aS'theres 3 types of niggas in life niggas that make it happen niggas that watch it happen and niggas that dont know wtf is going on'
p34
aS'everything bugs me'
p35
aS'its my choice not yours'
p36
aS'on grind\xf0\x9f\x99\x8c'
p37
aS'lil snupes verse in this song is raw  rip lil snupe \xf0\x9f\x99\x8f'
p38
aS'dream chasers 3 so far so good \xf0\x9f\x98\x8c\xf0\x9f\x91\x8f'
p39
aS'not going to bed until i have downloaded dreamchasers 3'
p40
asS'2013_41'
p41
(lp42
S'bola just took a hit for the first time \xe2\x9d\xa4\xef\xb8\x8f'
p43
aS'havent been this cross faded in fucken days '
p44
aS'turn the fuck up'
p45
aS'i did my best'
p46
aS'have to start doing whats best for me'
p47
aS'fucking stupid'
p48
aS'all we doing is hustlin'
p49
aS'why didnt you play lol'
p50
aS'ha'
p51
aS'your gonna take a fat shit in the morning girl'
p52
aS'your a stranger now\xf0\x9f\x99\x8d'
p53
aS'omg super negro is alive \xf0\x9f\x91\xb3\xf0\x9f\x98\xb1\xf0\x9f\x98\x83'
p54
aS'mind your own mothafuckin business bitch '
p55
aS'fuck this teacher everyday she keeps cattin'
p56
aS'we all get addicted to something that takes the pain away '
p57
asS'2013_46'
p58
(lp59
S'i love living in santa cruz\xf0\x9f\x8d\x81\xf0\x9f\x92\xa8'
p60
aS'east'
p61
aS'honestly '
p62
aS'im going over to eat'
p63
aS'raging weekend\xf0\x9f\x91\x8c'
p64
aS'loving this weather\xf0\x9f\x98\x8d'
p65
aS'locals only bitch'
p66
asS'2013_47'
p67
(lp68
S'just hit me up'
p69
aS'yad'
p70
asS'2013_44'
p71
(lp72
S'it aint your beauty its your booty'
p73
aS'time of my life tonight'
p74
aS'lies'
p75
aS'once again'
p76
aS'fuck this shit im just gonna get baked'
p77
aS'not in the mood for anything fuck everyone amp everything right now me lleva madre \xf0\x9f\x98\x92\xf0\x9f\x98\x94\xf0\x9f\x98\xa0\xf0\x9f\x98\xa1\xf0\x9f\x98\xa4\xf0\x9f\x91\x8a'
p78
aS'no school for me greatest feeling ever'
p79
aS'feel numb'
p80
aS'tried to shotgun a beer funniest shit ever \xf0\x9f\x98\x82\xf0\x9f\x98\x82\xf0\x9f\x98\x82'
p81
aS'drunkie'
p82
asS'2013_45'
p83
(lp84
S'lastnight was rage'
p85
aS'fuck everyone going to soja tonight'
p86
aS'sketchy ass shit\xf0\x9f\x91\x8c'
p87
aS'cant wait till sunset 2014'
p88
aS'watsonville  ghetto ass beaners \xf0\x9f\x98\x82'
p89
aS'waken baken\xf0\x9f\x91\x8c'
p90
aS'same here'
p91
aS'ill go visit you guys soon\xf0\x9f\x98\x8b'
p92
aS'i miss you too bestfriend\xf0\x9f\x98\x9f'
p93
aS'jason homieee i miss youuu \xf0\x9f\x98\x94'
p94
aS'you definately killed my night'
p95
aS'my heart breaks day by day more amp more'
p96
aS'bipolar ass people'
p97
aS'fuck weed legalize my tia first'
p98
aS'its not a drug its a plant'
p99
aS'soccer fegs'
p100
aS'maldito alcolico'
p101
aS'shout out to bola for being a selfish bitch'
p102
aS'gonna be a pretty crazy ass weekend rage'
p103
aS'so fucking cold\xe2\x9d\x84\xef\xb8\x8f'
p104
aS'you swear you get head'
p105
aS'thinking of transfering to soquel\xf0\x9f\x98\x81'
p106
aS'i think watsonville girls are gorgeous'
p107
asS'2013_25'
p108
(lp109
S'raleigh nc tonight gkmc tour'
p110
asS'2013_26'
p111
(lp112
S'no one left'
p113
aS'i seriously look up to people that could talk in front of a lot of people with confidence\xe2\x80\x9d'
p114
aS'alumni clothing online store'
p115
aS'showtime sac'
p116
aS'all my day ones will get that last part'
p117
aS'moneyandthepower need for all my real fams to request that with your local radio stations and djs i think i got a single\xe2\x80\xa6'
p118
aS'we on bullshit batgang'
p119
aS'fuck the haters \xf0\x9f\x98\x8e'
p120
aS'smokin in da club'
p121
aS'the hamilton manor jackrabbit az rollup'
p122
aS'smoking out  ogonly rollup'
p123
aS'nothing like that cali og'
p124
aS'because summer hates you lol'
p125
aS'feels good to be home'
p126
aS'almosthome on itunes'
p127
aS'why you lying huh huh huh \xf0\x9f\x98\xbc'
p128
aS'yea'
p129
aS'thats gay i fell lol'
p130
aS'cool'
p131
aS'ohh yea '
p132
aS'ohh yea'
p133
aS'almost home freestyle via'
p134
aS'call in and request money amp the power at your local radio stations almosthome'
p135
aS'sactown friday assembly'
p136
asS'2013_27'
p137
(lp138
S'i hate it when you go to the bathroom and theres a fucken nug of shit just chilling in the toilet  wtf\xf0\x9f\x98\xa1'
p139
aS'sucks lol'
p140
ag4
aS'why do you get mad lol '
p141
aS'ahah were crazy lol\xf0\x9f\x98\x8c'
p142
aS'yea with me lmfao\xf0\x9f\x98\x8c'
p143
aS'girll im just letting you know because we about to party hard'
p144
aS'purple haze is in my brain lately things dont seen the same'
p145
aS'k'
p146
aS'almosthome ep 4 rip'
p147
aS'i can take a little pain it means nothing to me'
p148
aS'pig'
p149
aS'keep requesting i think we got 1 \xf0\x9f\x92\xb0and'
p150
aS'ants just wanna get high too rollup'
p151
aS'money and the power'
p152
aS'shop alumni'
p153
asS'2013_28'
p154
(lp155
S'where my day 1 fans dont lie lol'
p156
aS'here\xe2\x80\x99s our new take on chips amp dip'
p157
aS'dont ever ever call me in the morning  \xf0\x9f\x91\x8c'
p158
aS'why would such an amazing girl would possibly ever talk to a guy like me'
p159
asS'2013_29'
p160
(lp161
S'looks like is scared of you'
p162
aS'if you dont score im not gonna pleasure you '
p163
aS'did i say you can type'
p164
aS'did i say you can talk'
p165
aS'lost in the sause'
p166
ag146
aS'official alumni clothing webstore'
p167
aS'in the boothback in my zone'
p168
aS'hongo boy\xf0\x9f\x8d\x84'
p169
aS'stfu '
p170
aS'cock boy\xf0\x9f\x8d\x86'
p171
ag146
aS'lost everything\xf0\x9f\x98\x9e'
p172
asS'2013_37'
p173
(lp174
S'hittin milky'
p175
aS'chill night with the homies'
p176
aS'good dank'
p177
aS'now i see who i trust ahahah \xe2\x9c\x8c'
p178
aS'out here getting this cash you will never get'
p179
aS'theres levels to this shit boy'
p180
aS'finally cold weather\xf0\x9f\x99\x8c'
p181
aS'tomorrow'
p182
aS'im down tell your bro then to get us the usual\xf0\x9f\x98\x98'
p183
aS'were turning up tomorrow'
p184
aS'me toooo\xf0\x9f\x98\x9f'
p185
aS'jason i misss youuu '
p186
aS'bitch idgaf sue me'
p187
aS'someone seems scerd\xf0\x9f\x98\x84'
p188
aS'i fuck wit it'
p189
aS'fucking hate this bitch ass teacher shes fucking me over badly god damn'
p190
asS'2013_36'
p191
(lp192
S'bring my hat to aarons or ima fucking drop your black ass'
p193
aS'im a person that doesnt hold any grudges but im not trusting you this time'
p194
aS'you have a new number'
p195
aS'beer pong and kings cup after hours tomorrow night\xf0\x9f\x98\x8c'
p196
aS'cloud 9 \xf0\x9f\x98\x8f'
p197
aS'fuck you bitch you dont even kick it no more faggots'
p198
aS'why babes\xf0\x9f\x98\x86'
p199
aS'fuck that nigger'
p200
aS'first mexico now usa im fucking mad'
p201
aS'virgin'
p202
aS'i like hairy fat dicks'
p203
aS'boutta smoke it up'
p204
aS'apple needs to do something about these damn chargers breaking so easy\xf0\x9f\x98\x92'
p205
aS'wait for me there'
p206
aS'cant wait till it starts raining'
p207
aS'most boring class ever fuck'
p208
aS'at my pad amp you'
p209
aS'anytime\xf0\x9f\x98\x8a amp ahahahhaah sorry for that lol\xf0\x9f\x98\x85 amp love you too\xf0\x9f\x98\x8b\xe2\x9d\xa4'
p210
aS'happy birthday to one of my favorite girls in the world \xe2\x98\xba\xf0\x9f\x8e\x89\xf0\x9f\x8e\x81\xf0\x9f\x8d\xbb'
p211
asS'2013_35'
p212
(lp213
S'i dont care im put here for a reason getting this paper'
p214
aS'we dont say no to drugs we say hello to drugs'
p215
aS'poppin'
p216
aS'yea nigger'
p217
aS'fat bitch'
p218
asS'2013_34'
p219
(lp220
S'im never going on another stupid trip no more they can go fuck themselves'
p221
aS'almost home\xf0\x9f\x99\x8c'
p222
aS'amp you wonder why girls dont take you seriously ahah ill tell you your one disrespectful motherfucker'
p223
aS'make me cock boy'
p224
aS'youre not part of our pussy pussy pussy marijuana crew so change your bio \xe2\x9c\x8b\xf0\x9f\x98\x92'
p225
aS'im bout that pussy pussy pussy marijuana life\xf0\x9f\x98\x8b so shut up cock boy'
p226
aS'ohhh thats girl well i just hit it nigga live with it'
p227
aS'thats cute\xf0\x9f\x98\x98\xf0\x9f\x91\x8c'
p228
aS'dab rig'
p229
asS'2013_33'
p230
(lp231
S'ill feed you my cock'
p232
aS'virgin'
p233
aS'fat bitch'
p234
aS'nigga barly woke up its the morning still'
p235
aS'its so fucking hot'
p236
asS'2013_32'
p237
(lp238
S'cock boy\xf0\x9f\x8d\x8c'
p239
aS'cool'
p240
aS'tell that fucker to give me my hat back or ill chop his tiny little asian chode'
p241
aS'if she stares at your balls shewantsthed'
p242
aS'honestly stop bitchin god damn your annoying'
p243
aS'are you as black as my knee'
p244
aS'tell me about it'
p245
aS'you better grab your girl tight cause i know shes grillin me'
p246
asS'2013_31'
p247
(lp248
S'i miss the old us'
p249
aS'lastnight was too sick\xf0\x9f\x91\x8c'
p250
aS'too funny\xf0\x9f\x98\xad'
p251
aS'had the best time with her\xe2\x9d\xa4'
p252
aS'puffin fat like a chiminey\xe2\x9c\x8a'
p253
aS'shes the best\xe2\x98\xba\xe2\x9d\xa4'
p254
aS'bossin up\xf0\x9f\x91\x8c'
p255
aS'yall ready bossinup remix coming soon'
p256
asS'2013_30'
p257
(lp258
g146
aS'alright doors open right'
p259
aS'arroyo seco later on\xf0\x9f\x91\x90'
p260
aS'was it really that one\xf0\x9f\x98\x9b\xf0\x9f\x98\x84'
p261
asS'2013_39'
p262
(lp263
S'live party lastnight\xf0\x9f\x91\x8c'
p264
aS'poppin party'
p265
aS'chuckys party come through'
p266
aS'ha'
p267
aS'saturday school wasnt too bad\xf0\x9f\x8d\x81\xf0\x9f\x91\x8c'
p268
aS'its not called being whipped its called respecting your girlfriend\xe2\x80\x9d'
p269
aS'so over school already'
p270
aS'wish i had never updated my phone fuck ios7'
p271
aS'meek mill straight up embaressed cassidy bossshit'
p272
aS'im addicted to your hugs and your kisses and your love'
p273
aS'i got so much to figure out'
p274
aS'know your worth'
p275
asS'2013_38'
p276
(lp277
S'ughhh miss my girlfriend\xf0\x9f\x98\x93'
p278
aS'average in talent'
p279
aS'finally raining'
p280
aS'once again damn'
p281
aS'get your ass to the the library'
p282
aS'virgin'
p283
aS'i need some sleep'
p284
aS'the resistance'
p285
aS'i wanna get out early i dont wanna go to health careers at harbor\xf0\x9f\x98\xa2'
p286
aS'thanks homieee \xf0\x9f\x98\x8a\xe2\x9d\xa4'
p287
aS'anytime bf\xf0\x9f\x98\x8c\xf0\x9f\x92\x95'
p288
aS'happy birthday hope you have a blast\xf0\x9f\x99\x85\xe2\x98\xba\xf0\x9f\x8e\x89\xf0\x9f\x8e\x8a\xf0\x9f\x8e\x81'
p289
aS'fuck first period '
p290
aS'feeling sick'
p291
aS'everythings gone fuck'
p292
aS'whats the hurry'
p293
as.