(dp0
S'2013_47'
p1
(lp2
S'never thought id be excited to feel queasy catching fire was amazing the wait for the 3rd is going to kill me'
p3
aS'so ready for hunger games tomorrow'
p4
aS'ive just updated my professional profile on linkedin connect with me and view my profile in'
p5
asS'2013_48'
p6
(lp7
S'im not sure if its innocence or ignorance but girl its time to wake up'
p8
aS'happy thanksgiving'
p9
asS'2013_49'
p10
(lp11
S'had a stressful day got through it thinking at least theres walking dead tomorrow damn what am i gonna do on sunday nights now'
p12
aS'guess its nap time'
p13
aS'im smiling but only because if not id scream'
p14
aS'not sleeping tonight walking dead was to intense thewalkingdead'
p15
asS'2012_43'
p16
(lp17
S'im so excited my piece guppy girl seems to doing good i was asked if it could be displayed in a special gallery'
p18
asS'2013_24'
p19
(lp20
S'check out phoenix girl by beautifuldescent on'
p21
asS'2014_35'
p22
(lp23
S'check out new work on my portfolio tattoo design'
p24
asS'2014_32'
p25
(lp26
S'check out new work on my portfolio third day of painting worked on the red today'
p27
aS'check out new work on my portfolio second day of painting '
p28
aS'check out new work on my portfolio mermaid collection guppy girl glass'
p29
aS'check out new work on my portfolio not sure this is going to be the look might thin\xe2\x80\xa6'
p30
asS'2013_21'
p31
(lp32
S'having computer issuesit really sucks'
p33
asS'2014_31'
p34
(lp35
S'working on my painting skills pictures for ya later '
p36
asS'2014_38'
p37
(lp38
S'check out new work on my portfolio phoenix girl glass'
p39
asS'2012_48'
p40
(lp41
S'updated my deviant art check out my photography portfolio'
p42
asS'2014_18'
p43
(lp44
S'ive under estimated my foenot again thoughmuawh hahaha'
p45
asS'2014_14'
p46
(lp47
S'should have new art work up on sunday or monday night hopefully the witch of the waste will be one of them'
p48
asS'2014_15'
p49
(lp50
S'check out new work on my portfolio sophie pin up'
p51
aS'check out new work on my portfolio '
p52
asS'2014_17'
p53
(lp54
S'think ill just cash my pay check amp trash it thats what it seems like im doing anyway'
p55
asS'2014_10'
p56
(lp57
S'about to see the wind rises'
p58
aS'check out new work on my portfolio sleeping beauty'
p59
asS'2014_11'
p60
(lp61
S'check out new work on my portfolio first sketch she once was beautiful my witch \xe2\x80\xa6'
p62
aS'check out new work on my portfolio howls moving castle vintage tattoos'
p63
asS'2014_12'
p64
(lp65
S'my other brother made me cupcakes'
p66
aS'my early birthday gift from my brother'
p67
asS'2012_50'
p68
(lp69
S'posted more photos on deviantart check them out'
p70
asS'2013_52'
p71
(lp72
S'merry christmas everyone'
p73
asS'2013_51'
p74
(lp75
S'eating a slim jim amp i see the sasquatch on the package first thing that came to mind was beefsquatch think ill watch bobs burgers later'
p76
asS'2014_8'
p77
(lp78
S'check out new work on my portfolio howl and sophie'
p79
aS'was trying to get some drawing done but it looks like my cat thinks ive done enough'
p80
aS'i was diagnosed with ptsd last yr due 2 a traumatic childhood event idk how 2 but if they can test civilians they should'
p81
asS'2014_9'
p82
(lp83
S'sometimes i wonder when did i get married i dont remember a wedding or being in a relationship oh yeah i didnt youre just crazy'
p84
aS'never been so angry in my life'
p85
aS'check out new work on my portfolio what do you think so far'
p86
aS'check out new work on my portfolio snow white'
p87
aS'check out new work on my portfolio first sketch'
p88
aS'check out new work on my portfolio decided to go in a different direction i think i\xe2\x80\xa6'
p89
aS'check out new work on my portfolio cinderella'
p90
aS'check out new work on my portfolio cinderella'
p91
asS'2014_6'
p92
(lp93
S'check out olivia by beautifuldescent on'
p94
aS'check out blood moon by beautifuldescent on'
p95
aS'check out new work on my portfolio olivia'
p96
aS'check out new work on my portfolio blood moon'
p97
aS'if u wanted moral value u should have taught it u cant make laws telling people how to dress amp who can have sex makes you look desperate'
p98
aS'check out new work on my portfolio olivia'
p99
aS'my kitten is snoringhe sounds like a wookie so cute'
p100
aS'super exhausted'
p101
aS'kid posted a video of him fighting another to add insult to injury facebook denied the request to remove it bullying'
p102
asS'2014_7'
p103
(lp104
S'so messed up i want pudding now pudding'
p105
aS'getting pumped for walking dead and comic book men tonight thewalkingdead comicbookmen'
p106
asS'2014_4'
p107
(lp108
S'job interview on monday'
p109
aS'almost forgot check out sisters by beautifuldescent on'
p110
aS'tough choicewatch perks of being a wallflower and cry or miss out on watching a good movie i dont yet own'
p111
aS'give me feedback on sisters a workinprogress on'
p112
aS'give me feedback on fight on a workinprogress on'
p113
asS'2014_5'
p114
(lp115
S'i took zimbios once upon a time quiz and im rumpelstiltskin who are you zimbioquiz'
p116
aS'check out new work on my portfolio snow white'
p117
aS'we shouldnt have to make laws to make people be respectful livefrome'
p118
aS'retweet if you are ready to govice tomorrow'
p119
asS'2014_2'
p120
(lp121
S'well no luck with northern lights that just means i have to visit alaska sometime'
p122
aS'hoping to see the northern lights tonight'
p123
asS'2014_3'
p124
(lp125
S'i know its years later but my brother and i just noticed sid the sloth in the background of robots'
p126
aS'sorry to tired for clever banter'
p127
aS'whoa'
p128
aS'doesnt know a thing about xmen lame bro p'
p129
aS'dude i suck played eve and the score was sad'
p130
aS'mikes and the archer drinking game archerfx'
p131
aS'check out beauty by beautifuldescent on'
p132
aS'check out my latest piece on behance beauty a project on '
p133
asS'2014_1'
p134
(lp135
S'give me feedback on rosies song a workinprogress on'
p136
aS'happy new year happynewyear'
p137
asS'2014_41'
p138
(lp139
S'check out new work on my portfolio progress '
p140
aS'check out new work on my portfolio chiropteran'
p141
asS'2014_44'
p142
(lp143
S'just a few more days till halloween'
p144
asS'2013_18'
p145
(lp146
S'check out mals pals 2013 by beautifuldescent on'
p147
asS'2012_37'
p148
(lp149
S'so i heard our flag is being burned i also heard a preacher started this by burning the koran people its time to grow up'
p150
asS'2014_21'
p151
(lp152
S'so pumped in line for the new xmen movie '
p153
asS'2014_23'
p154
(lp155
S'check out new work on my portfolio first sketch of hearts change vintage style ta\xe2\x80\xa6'
p156
aS'check out new work on my portfolio '
p157
asS'2014_27'
p158
(lp159
S'happy 4th of july'
p160
asS'2014_26'
p161
(lp162
S'i wish i was in denver watching american ninja warrior'
p163
asS'2013_27'
p164
(lp165
S'check out making pain pretty by beautifuldescent on'
p166
aS'tonight sucks'
p167
aS'horse by beautifuldescent'
p168
as.