(dp0
S'2013_42'
p1
(lp2
S'short absence will make you miss a thingbut as it goes longeryoull gonna learn to live without it'
p3
aS'true love is like playing chess a boy plays and always afraid of losing his queen and a girl risking everything just to p\xe2\x80\xa6'
p4
asS'2013_43'
p5
(lp6
S'houseandlot in baniladcebu via'
p7
aS'houseandlot in mandue cebu via'
p8
aS'the heart hides what you can\xe2\x80\x99t say but the eyes say what you try to hide'
p9
aS'sagittarius signs are like free birds they live a life as if everyday is sunday'
p10
aS'believe none of what you hear and only half of what you see'
p11
aS'headache sucksgrrrr'
p12
aS'relationships are about give and give not give and take youll know youre with the right person when they give as muc\xe2\x80\xa6'
p13
aS'every one knows right from wrong but its the special ones who take the wrongs amp make them right'
p14
aS'bohol needs water food meds amp other basic supplies spare whatever you can save someone\xe2\x80\x99s life bangonsugbohol'
p15
aS'when someone hurts you you learn to be stronger when someone leaves you you learn to be more independent'
p16
aS'it\xe2\x80\x99s better to be single than to be in a wrong relationship'
p17
aS'everything that dont make sense about me makes sense when im with you  hunter hayes'
p18
aS'one of the hardest things in life is figuring out the difference between friendship and love'
p19
aS'the worst thing in life is not losing the one we love but losing yourself in the process of loving someone too much'
p20
aS'i really like you a lot i know sometimes i mess up and do things that make it seem like i dont care but trust me y\xe2\x80\xa6'
p21
aS'my life isnt perfect but im thankful for everything i have'
p22
aS'every relationship has its problems but what makes it perfect is if you still want to be together when things go wron\xe2\x80\xa6'
p23
aS'i dont care how we met im just happy we did'
p24
aS'emotionally im done mentally im drained spiritually i feel dead physically i smile'
p25
aS'i hate how much i miss you'
p26
aS'yes i flirt but once im yours im yours ill stay committed to you and only you no one else'
p27
aS'girls over think boys never think'
p28
aS'dear music thank you for being there when no one else was'
p29
aS'sleeping is so hard when you cant stop thinking'
p30
aS'not everyone is meant to be in our future some people are just passing through to teach us lessons in life'
p31
aS'i try to find the right words but they never come out the way i plan them to all i can say is you make me happy and i love\xe2\x80\xa6'
p32
aS'once you find someone who can make you laugh uncontrollably hang onto that person because they will make you happy'
p33
aS'he makes me smile easily he is the reason i wake up happy he is the one i cant forget he is everything for me and he still\xe2\x80\xa6'
p34
aS'my life is okay but it would be better if you were mine'
p35
aS'being called babe or baby is just a good fucking feeling'
p36
aS'wish i could read your mind to know what you really think of me'
p37
aS'worry less smile more dont regret just learn and grow'
p38
aS'have you ever just stopped and realized that if you hadn\xe2\x80\x99t met a certain person in your life your life would be completely\xe2\x80\xa6'
p39
aS'i hate that feeling the feeling when youre sad and you have no idea why but you just are'
p40
aS'you dont need a perfect boyfriend all you need is one who loves your weirdness wants to spend time with you amp respects y\xe2\x80\xa6'
p41
aS'all i want is someone who will stay no matter how hard it is to be with me'
p42
aS'one bad relationship could make you never want to fall in love again'
p43
aS'its simple never lie to someone who trusts you and never trust someone who lies to you'
p44
aS'missing you'
p45
asS'2013_46'
p46
(lp47
S'listen to my performance on sing by smule'
p48
aS'pnoy project in negros occidental saves p188m budget from pgmas version'
p49
aS'your job in life is to find your flow this was a huge lesson for me everything else is gravy supersoulsunday'
p50
aS'when you fall for someones personality everything about them becomes beautiful'
p51
aS'i wish you could hear all the words im too afraid to say'
p52
aS'inqhotread \xe2\x80\x98tabo\xe2\x80\x99 dipper is a must for relief package  yolandaph'
p53
aS'dont call me yours if youre flirting with someone else'
p54
aS'dont worry if youre single god is looking at you right now saying im saving this one for someone special'
p55
aS'laag2x pag may time walalingaw friends bff gfdaily wtf ayala center'
p56
aS'arnel pineda journey to donate 2m food packs to yolandaph victims'
p57
aS'47 earthquake 203km ese of kamaishi japan nov 16 1542 at epicenter 46m ago depth 28km lvia'
p58
aS'journey to donate 350k to help yolanda relief efforts'
p59
aS'uk pm david cameron doubles contribution for yolanda to \xc2\xa350m two c130 s added to transfer supplies within the philippines'
p60
aS'us hospital ship readied for deployment to phl '
p61
aS'with aid amp assistance compassion amp care this place these people they will make it through haiy\xe2\x80\xa6'
p62
aS'youtube we are the world for philippines typhoon haiyan'
p63
aS'nba bulls rout raptors for first road win'
p64
aS'uae telco cuts sms rates for pinoys to contact kin affected by yolanda'
p65
aS'dfa foreign aid for yolandaph victims now total p54 b philippines  via'
p66
aS'to donate to help out our friends in the phillipines all you have to do is text to give 10 text med to 80888'
p67
aS'worrying is stupid its like walking around with an umbrella waiting for it to rain  wiz khalifa'
p68
aS'sleep tah blik ani damn headache earthquake'
p69
aS'grrrrearthquake again '
p70
aS'police training director found dead in tacloban fate of 50 trainees still unknown via'
p71
aS'earthquake  aftershock here in cebu city at 216 am friday'
p72
aS'tulong sa mga biktima ni yolanda sa iloilo dumating na canada nagpadala ng rescue team'
p73
aS'australian firm donates a500000 to red cross for reliefph via yolandaph'
p74
aS'donasyong galing sa ibang bansa hindi papatawan ng buwis kung ipadaraan sa dswd ndrrmc at mga grupong accredited ng mga ito ay\xe2\x80\xa6'
p75
aS'pagasa 934pm update thunderstorm is more likely to develop over metro cebu within 12 hours  via'
p76
aS'ormoc city nagbabaliknormal na 6 araw matapos tumama si yolanda'
p77
aS'bir chief donations are taxexempt if coursed through right agencies'
p78
aS'gsis and sss have already activated their calamity loan packages for yolandaphaffected members and pensioners  via'
p79
aS'ikea doing more in philippine relief efforts than the worlds secondlargest economy'
p80
aS'the hardest part of the trip was seeing 4 children lying lifeless on the shore just 300 meters from the airport tower'
p81
aS'my heart is weeping right nowto all of you in the philippineswere coming to helpthe destruction you are enduring ha\xe2\x80\xa6'
p82
aS'taiwan president urges people to give generously to yolanda victims'
p83
aS' ayala center'
p84
aS'after haiyan 10 things filipinos shouldnt be doing on social networks via'
p85
aS'take twitter with you via'
p86
asS'2013_47'
p87
(lp88
S'2bedroom condo unit for rent fully furnished via'
p89
aS'infinitydepps photo'
p90
aS'taken yesterday at the rooftop'
p91
aS''
p92
aS'if you have pics of public schools damaged by yolandaph share them with us pls include school name amp its location'
p93
aS'appreciate what you have \xf0\x9f\x91\x8f\xf0\x9f\x91\x8f'
p94
aS'some people'
p95
aS'charity event in phuketthailand for philippines'
p96
aS'todays sunset sunset sunrise nature natural clouds cloudporn skies blue skyporn'
p97
aS'ka busy aning bataa ui son kid kids my love life family children angels angel bored\xe2\x80\xa6'
p98
aS'supah hot afternoon gt paki explain hot sunny cloudporn cloudy skies blue beautiful\xe2\x80\xa6'
p99
asS'2013_44'
p100
(lp101
S'house and lot in minglanilla cebu via'
p102
aS'house for sale in talamban cebu city via'
p103
aS'house and lot for sale in consolacion cebu via'
p104
aS'5 bedrooms house and lot for sale in consolacion cebu via'
p105
aS'brandnew house and lot for sale in talamban cebu via'
p106
aS'house for sale in mandaue city via'
p107
aS'3 bedrooms condo for rent near ayala mall cebu via'
p108
aS'4 bedroom house in talisay cebu via'
p109
aS'minglanilla townhouse via'
p110
aS'house for sale in banilad cebu via'
p111
aS'when mind says quit heart says just wait a bit'
p112
aS'every now and then it takes a little superman moment to make you realize that you are strong but youre not invinci\xe2\x80\xa6'
p113
aS'bird cant swim fish cant fly nothings wrong with both you just need to know who you are'
p114
aS'there are five types of fear 1 terror 2 panic 3 14 missed calls from mom 4 username or password is incorrect 5 we ne\xe2\x80\xa6'
p115
aS'i am a sagittarius because life is always an adventure'
p116
aS'studio condo in lahug at mivesa garden residences via'
p117
aS'house and lot for rent in guadalupe cebu citysemi furnished via'
p118
aS'house amp lot for sale in guadalupe cebu via'
p119
aS'lot for sale in lahug cebu city via'
p120
aS'warehouse for rent near ayala and sm 1000sqm 90k negotiable cebu city cebu  for sale'
p121
aS'house for rentsale maria luisa banilad cebu city cebu  for sale philippines  27516779'
p122
aS'townhouse in minglanilla via'
p123
aS'house for rent in consolacion via'
p124
aS'house for rent in mandaue via'
p125
aS'house for rent in banilad near usc via'
p126
aS'apartment for rent in banilad via'
p127
aS'2 bedroom condo for rent city lights garden lahug via'
p128
aS'house and lot for sale tabunok talisay via'
p129
aS'house for rent townhouse talamban via'
p130
aS'house for rentsale maria luisa banilad via'
p131
aS'house for rent banawa 3bedrooms via'
p132
aS'6br bungalow type house for rent via'
p133
aS'5br house for rent in banilad via'
p134
aS'4br house in mabolo for rent via'
p135
aS'4br house for rent banilad via'
p136
aS'house and lot for sale in talamban cebu via'
p137
aS'house for rent in lahug 3br via'
p138
aS'apartment for rent banawa near rustans via'
p139
aS'house for rent talamban cebu 2 bedroom via'
p140
aS'commercial space for rent via'
p141
aS'factory or warehouse for rent in liloan with office 2329sqm via'
p142
aS'warehouse for rent near ayala and sm 1000sqm 90k negotiable via'
p143
aS'for rent building ideal for call center bpo n mandaue via'
p144
aS'condo for rent crown regency cebu loft type big area via'
p145
aS'house for rent in banilad cebu city via'
p146
aS'condo for rent 1 bedroom fuente via'
p147
aS'condo for rent fully furnished via'
p148
aS'house for rent in banawa via'
p149
aS'condo for rent with pool in persimmon mabolocebu city via'
p150
aS'house for rent in talisay near gaisano tabunok talisay cebu via'
p151
aS'for rent condo apartment via'
p152
asS'2013_45'
p153
(lp154
S'rt us military helping philippine armed forces conduct yolanda damage assessment '
p155
aS'portions of the national highway in midellin cebu passable to light vehicles only'
p156
aS'if someone really loves you they will never hurt you and if they do youll see that in their eyes theyre hurting too'
p157
aS'nasasanay na yata itong miss universe na tayo ang huling tawagin sa top 16 kasi alam nila wild tayo at malakas tayo mag c\xe2\x80\xa6'
p158
aS'russias not part of the top 16 so no home court advantage this time'
p159
aS'top 16 missuniverse2013 33 11 usa 12 nicaragua 13 switzerland 14 india 15 brazil 16 philippines'
p160
aS'top 16 missuniverse2013 23 6 indonesia 7 venezuela 8 dominican republic 9 puerto rico 10 spain'
p161
aS'miss philippines is part of top 16 of missuniverse2013'
p162
aS'top 16 missuniverse2013 13 1 costa rica 2 ukraine 3 china 4 ecuador 5 great britain'
p163
aS'that awkward moment when you sing the wrong part of a song with confidence'
p164
aS'hourly update yolandaph 12am november 8 2013 the eye of typhoon \xe2\x80\x9cyolanda\xe2\x80\x9d was located at 210 km east'
p165
aS'12 signal 4 masbate northern samar eastern samar samar leyte southern leyte biliran yolandaph'
p166
aS'over thinking makes your mind create negative scenarios and replay painful memories'
p167
aS' my amnesia girl part 2   starring juan ponce tanda enrile and janet napoles soon in theaters nationwide'
p168
aS'kamusta ang hearing ni janet napoles today may napala ba tayong mga mamamayang pilipino  di ko po alam napole\xe2\x80\xa6'
p169
aS'singing when youre stressed has been proven to help avoid depression and anxiety'
p170
aS'santiago to napoles naniniwala ka ba sa commandment you should not steal and yet you steal magdasal ka na lang bantay\xe2\x80\xa6'
p171
aS'napoles denies having 28 houses she has only 3 acdg to her'
p172
aS'santiago kung si enrile ang most guilty sabihin mo na para di ka ipapatay bantaykaban'
p173
aS'napainom ng tubig si napoles ngayon na si na ang kausap niya lagot ka wahahahaha'
p174
aS'don\xe2\x80\x99t rush anything when the time is right it\xe2\x80\x99ll happen'
p175
aS'hourly update yolandaph 11am november 7 2013 the eye of typhoon \xe2\x80\x9cyolanda\xe2\x80\x9d was located at 714 km southeast'
p176
aS'sometimes its the little things that make the biggest change'
p177
aS'santiago to napoles i wont bully you i wont outshout you pero pag magsinungaling ka lagot kanagsumpa ka e bant\xe2\x80\xa6'
p178
aS'kapatid ng magnanakaw ang sinungaling kaya wag na kayo magtaka kung hindi aamin si napoles'
p179
aS'janet napoles sa kung totoo ang advanced kickbacks ng mga mambabatas hindi po your honor benhur luy nagsisinungaling siya'
p180
aS'bedtime kulitan lt3  kids kid niece happy sleepingtime bedtime play angels love smile'
p181
aS'thunderstorm advisory no 08 mprsd 1045 am 06nov13 thunderstorm is affecting zamboangadelnortesibutad'
p182
aS'video signal 4 posibleng itaas dahil sa paparating na bagyo'
p183
aS'morning'
p184
aS'1005am light to moderate rains affecting zamboangadelnortedipolog city dapitan city rizal northern'
p185
aS'house for rent with spool 7bedroom in banilad cebu via'
p186
aS'house for rent in maluisa banilad cebu via'
p187
aS'house for rent with swimming pool in banilad cebu via'
p188
aS'house for rent in banilad 5bedrooms via'
p189
aS'house for rent in banilad with swimming pool via'
p190
aS'house for rent in consolacion cebu via'
p191
aS'house for rent near gaisano mactanlapulapu citycebu via'
p192
aS'house for rent in mandaue cebu via'
p193
aS'apartment for rent in banilad via'
p194
aS'2 bedroom apartment for rent in banawacebu city via'
p195
aS'apartment for rent in banilad cebu city via'
p196
aS'single doesnt always mean lonely and relationship doesnt always mean happy'
p197
aS'breaking news tornado hits mandaue city and lapulapu city around 750 pm monday'
p198
aS'make your ex regret losing you and make your next want to thank him for letting you go because the best revenge is movin\xe2\x80\xa6'
p199
aS'everybody has gone through something that has changed them in a way that they could never go back to the person they o\xe2\x80\xa6'
p200
asS'2013_30'
p201
(lp202
S'tamah'
p203
aS'goodnight'
p204
aS'maltover'
p205
aS'off to handuraw'
p206
aS'lets pray for them'
p207
aS'lol'
p208
aS'always pray to god to have eyes that see the best a heart that forgives the worst a mind that forgets the bad'
p209
aS'nice one'
p210
asS'2013_24'
p211
(lp212
g92
ag92
aS'may brt day'
p213
aS'deiannes brt day'
p214
aS'deiannes brt day'
p215
aS'deiannes brth day'
p216
asS'2013_25'
p217
(lp218
S'will'
p219
ag92
ag92
aS'mr smith'
p220
aS'old people love quotes pictures  cute love love love pictures young love highschool love teenage lo'
p221
asS'2013_27'
p222
(lp223
S'cute chihuahuas image via'
p224
aS'cute chihuahuas image via'
p225
aS'the owners make pit bulls vicious they are not born that way'
p226
aS'revenge a 1 year old red nose pitbull taking a bath with his human mekyha after getting into choc'
p227
ag92
aS'never forget what you have'
p228
aS'haute couture street style fall 2013'
p229
aS'haute couture street style fall 2013'
p230
aS'cheating is easy try something more challenging like being faithful'
p231
aS'is he gone'
p232
aS'hello beautiful friends by victor sosunov'
p233
aS'lick'
p234
aS'pitbulls love kids'
p235
aS'baby love'
p236
ag92
ag92
aS'beware of this poser '
p237
aS'for sale mountain bike php 12k negotiable'
p238
asS'2013_22'
p239
(lp240
S'love is a gift we accept and make it as our own but when its damaged we try to give it away'
p241
asS'2012_28'
p242
(lp243
S'i got 2480 points while escaping from demon monkeys in temple run beat that'
p244
asS'2012_49'
p245
(lp246
S'can you please recommend my skills'
p247
asS'2012_48'
p248
(lp249
S'akoy nauuhaw'
p250
aS'mkasapooottt '
p251
aS'sometimes your mind doesnt want you to be in love but deep down you know you are'
p252
aS'gutoooommmmmmmmmm'
p253
aS'when u are downthere is nowhere else to go but upso never lose hopejust believe that there is something meant for you that god prepared'
p254
aS'gudnyt'
p255
aS'lunchtym '
p256
asS'2013_4'
p257
(lp258
S'i reached level 10 in tinytribe download it for free in the appstore'
p259
aS'im done eateateat food eat tasty soup lunch'
p260
aS'i reached level 8 in tinytribe download it for free in the appstore'
p261
aS'true'
p262
aS'watching zodiac sign'
p263
aS'i reached level 7 in tinytribe download it for free in the appstore'
p264
aS'i reached level 6 in tinytribe download it for free in the appstore'
p265
aS'play tinytribe with me and explore the island get it for free in the appstore'
p266
aS'mr amp mrs san diego sinulog cebu sandiego beauty family people festivities mardigras'
p267
asS'2013_6'
p268
(lp269
S'go jr mclivecookoff'
p270
asS'2011_51'
p271
(lp272
S'merry christmas to all '
p273
asS'2013_3'
p274
(lp275
S'nyt mamthankz sa tawag'
p276
aS'goodnight mamthank u sa tawaghehelets continue our chika dp'
p277
aS'see you guys later '
p278
asS'2011_43'
p279
(lp280
S'life is better when youre happy but life is at its best when other people are happy because of you'
p281
aS'despite the numbness of the world there will always be the one wholl give us the warmest hug'
p282
aS'sometimes its not really a matter of choosing the right choice its a matter of proving that you made the right choice'
p283
asS'2013_9'
p284
(lp285
g92
aS'i reached level 13 in tinytribe download it for free in the appstore'
p286
asS'2013_8'
p287
(lp288
S'i got 516615 points while escaping from a giant demon monkey in temple run 2 beat that'
p289
ag92
aS'i reached level 12 in tinytribe download it for free in the appstore'
p290
aS'i rescued another survivor in tinytribe do you have what it takes to survive the mysterious island'
p291
aS'lunch na po tayo food igerscebu pinoy lutongpinoy lunch yummy soup'
p292
aS'kristvofficial happy birthday wish u more more blessings to come'
p293
aS'goodmorning '
p294
asS'2012_16'
p295
(lp296
S'if you spend too long holding on to the one who treats you like an optionyoull miss finding the one who treats you like a priority'
p297
asS'2012_46'
p298
(lp299
S'rememberalways treat others the way u want to be treatedthey may forget what you said but they will always remember how u made them feel'
p300
asS'2011_41'
p301
(lp302
S'short absence will make you miss a thingbut as it goes longer youll gonna learn to live without it good morniiiiing '
p303
aS'happy sweetest day everyone treat your loved ones like candies lick them'
p304
aS' never say life is so unfair life is not at fault its the people around you'
p305
aS'have a blessed saturday morning '
p306
aS'no matter how wasted you think you are there will always be someone who will love you because youre not like anyone else'
p307
aS'have a safe flight'
p308
ag92
ag92
aS'life has its way of painting colors out of the ashes it has a beautiful way of singing good songs out of broken via'
p309
aS'cool pattern check out outer space on'
p310
aS' never compare your love story with those in the movies because those are written by scriptwriters but yours is written by god'
p311
asS'2011_42'
p312
(lp313
S'do you know why cars windshield is large and the rearview mirror is small coz your past is not as important as your future so move on'
p314
aS'halu dinghehehe'
p315
aS'always try to be more sensitive about peoples feelings because there are times that a tear means happiness and a smile means hurt'
p316
asS'2012_11'
p317
(lp318
S'u dont need to prove something to anyone just to win their favorsbecause the real you will always be enough for those who really cares'
p319
asS'2012_52'
p320
(lp321
S'8hours to go xmas eve na '
p322
asS'2012_51'
p323
(lp324
S'its cooking time'
p325
aS'how many chances do people deserve to haveenough to make things right but not too much to ruin the importance of chancegoodnight'
p326
asS'2011_49'
p327
(lp328
S'never think that you are not good enough for anyone sometimes you should ask yourself if they are good enough for you '
p329
asS'2013_37'
p330
(lp331
S'piti jd ang mgbinuang bahlol'
p332
aS'lt3'
p333
asS'2013_10'
p334
(lp335
S'frameurlife c'
p336
aS'i reached level 15 in tinytribe download it for free in the appstore'
p337
aS'i rescued another survivor in tinytribe do you have what it takes to survive the mysterious island'
p338
asS'2013_13'
p339
(lp340
S'happy easter everyone '
p341
aS'exactly '
p342
aS'can you read this'
p343
aS'off to bed goodnight'
p344
aS'goodnight sleepy and tired'
p345
aS'true'
p346
aS'true'
p347
aS'where is our yesterday you and i could use it right now but is this goodbyehahaha boring'
p348
aS'good job chicago bulls '
p349
asS'2013_12'
p350
(lp351
S'im the best youll never have again you had me you lost me your loss ill save my love for someone who'
p352
aS'asa naman ka derek rose ui luoi na au ang bulls faet gogogo pa rin chicago bulls weeeeee'
p353
aS'god when i lose hope help me to remember that your love is greater than my disappointments and your plan for my'
p354
aS'i reached level 18 in tinytribe download it for free in the appstore'
p355
aS'true'
p356
aS'heal my pain'
p357
aS'without music life would be a mistake'
p358
asS'2013_33'
p359
(lp360
S'house for rent basak mandauecebu ideal homes  cebu ideal homes'
p361
asS'2013_14'
p362
(lp363
S'\xd1\x82\xd0\xbd\xd0\xb0\xd0\xb8\xd0\xbasgoodnight'
p364
aS'join me in this awesome game  tinytribe use my promo code s377bf to get a gift'
p365
aS'im using viber to make free calls and send free messages on my iphone'
p366
aS'im using viber to make free ugcalls and send free messages on my iphone'
p367
ag92
aS'i love those memories that make me smile no matter what is going on in my life right now'
p368
asS'2013_16'
p369
(lp370
S'i rescued another survivor in tinytribe do you have what it takes to survive the mysterious island'
p371
asS'2013_19'
p372
(lp373
g92
asS'2013_39'
p374
(lp375
S'amen'
p376
aS'are you looking for a house and lot in cebuif youre interested please pm here or calltxt 639428462596 or to'
p377
asS'2013_38'
p378
(lp379
S'goodnight headaches '
p380
asS'2013_11'
p381
(lp382
S'i reached level 17 in tinytribe download it for free in the appstore'
p383
aS'i reached level 16 in tinytribe download it for free in the appstore'
p384
asS'2013_35'
p385
(lp386
S'true'
p387
aS'goodafternoonamen'
p388
aS'happy fiesta carmen \xe2\x80\x94 at carmen cebu'
p389
aS'amengoodnight'
p390
aS'goodmorning'
p391
aS'life can be hard life can be fun life can be kind and life can be mean have the right attitude and life can be'
p392
aS'our 3rd time \xe2\x80\x94 watching the conjuring at home nivel hills lahug'
p393
asS'2011_52'
p394
(lp395
S'i hope everyone have a great new years eve enjoy your last day of 2011 goodbye 2011 and welcome 2012 dboom'
p396
asS'2013_15'
p397
(lp398
S'another awesome malting session lastnight koa tree house'
p399
aS'rooftopbeauties walay mga lingawp'
p400
aS'lakwatsa'
p401
aS'however far away i will always love you however long i stay i will always love you whatever words i'
p402
aS'chillin'
p403
asS'2012_38'
p404
(lp405
S'im back'
p406
asS'2013_32'
p407
(lp408
S'if we make up our mind what we are going to make our lives  then work hard toward that goal we never lose somehow we win out goodnyt'
p409
as.