(dp0
S'2013_42'
p1
(lp2
S'be who you are not who you wish you were'
p3
aS'\xe2\x9d\xa4\xef\xb8\x8f'
p4
aS'hiiiiiiiiiiiiiii'
p5
aS'\xe2\x9d\xa4\xef\xb8\x8f'
p6
aS'just keep swimming ellens voice'
p7
aS'so lucky to be born a human rather then something like an ant'
p8
aS'perth telethon with this loverly lady'
p9
aS'\xe2\x9d\xa4\xef\xb8\x8f'
p10
aS'wow wakin up to find that i now have 15million followers nice one guys thank you love you lots like jelly tots'
p11
aS'cant believe this tours almost done loved every single show dont want it to endddd'
p12
aS'confused i get sometimes'
p13
aS'just wanted to say thank you to everyone thats helped us along the way'
p14
aS'midnight memories cant wait till you hear our new album '
p15
aS'cant wait for you guys to hear midnight memories  think youre gona love the new tracks weve written '
p16
aS'new video is finally out like and share retweet this for a follow '
p17
asS'2013_43'
p18
(lp19
S'just dropped my phone on my face'
p20
aS'ily\xf0\x9f\x99\x8a\xf0\x9f\x92\x97'
p21
aS''
p22
aS'hi niall\xf0\x9f\x99\x88 please follow me it would mean everything to me\xf0\x9f\x99\x89 ily\xf0\x9f\x99\x8a\xf0\x9f\x92\x97\xf0\x9f\x92\x95\xf0\x9f\x8e\x80'
p23
aS'so story of my life is out tomorrow but who wants a follow today '
p24
aS'please follow me\xf0\x9f\x92\x97'
p25
aS'right follow spree also remember if you preorder midnight memories youll get story of my life tomorrow '
p26
aS'thank you sydney was everything i expected it to be  see you when we see you next everybody'
p27
aS'ily\xe2\x9d\xa4\xef\xb8\x8f'
p28
aS'think im getting on instagram very soon hopefully its better than my youtube aha think it might be easier'
p29
aS'thank you for all your support on story of my life'
p30
aS'also rt this for a follow will check both xx'
p31
aS'last day in sydneyyyy gotta say i cant believe i got to visit here this many times thanks everyone for getting us thi\xe2\x80\xa6'
p32
aS'also last day here gotta say the crowds have been great beans as its our last day here lets go out with something to\xe2\x80\xa6'
p33
aS'story of my life is amazinggg cant wait for the new album\xf0\x9f\x92\x95\xf0\x9f\x92\x97\xf0\x9f\x92\x9d'
p34
aS'story of my life is prefect\xf0\x9f\x92\x95 love \xf0\x9f\x8e\x80\xf0\x9f\x92\x95\xf0\x9f\x92\x97'
p35
aS'luke brooks janospy'
p36
aS'messy room el pop zi traceo'
p37
aS'i love it so much\xe2\x9d\xa4\xef\xb8\x8f'
p38
aS'you can hear story of my life on the radio now what do you guys think'
p39
aS'cant believe its one month till 1d day  lovin your suggestions  keep em coming  '
p40
aS'so has been nominated for favourite band duo or group at the amas thaaaaaaaank youuuuuuu'
p41
aS'\xe2\x9d\xa4\xef\xb8\x8f'
p42
aS'thinking about it ive been in australia for a while now and nobody has put any shrimp on any barbies'
p43
aS'i went to the perth concert it was the best night of my life thankyou so much love you\xe2\x9d\xa4\xef\xb8\x8f'
p44
asS'2013_40'
p45
(lp46
S'my homemade 1d pie hope you like'
p47
aS'sydney lets do this u ready'
p48
aS'goodmorning 5 hours sleep later and here i am would love a coffee'
p49
aS'if youre coming to tonights show in sydney please bring a we love mill sign thank you for your cooperation'
p50
aS'1d day is coming soon im quite looking forward to it i reckon'
p51
aS'perth you were amazing the last few days thank you so much for having us struth'
p52
aS'amazin night last night at the 1d concert didnt want it to end'
p53
asS'2013_41'
p54
(lp55
S'yay im back retweet for a follow'
p56
aS'rt if you would like us to come to your country'
p57
aS'is that jai or luke i cant tell'
p58
aS'sometimes just the sound of someones voice can make you happy d x'
p59
aS'watching the up all night concert movie\xf0\x9f\x8e\x80 love you guys\xf0\x9f\x92\x95\xf0\x9f\x92\x97\xf0\x9f\x8c\xb8'
p60
aS'yay listening to harry and niall on nova love you guys  niallsnurseryonnova harryshouse'
p61
aS'follow spree time rt for a follow gonna check all night'
p62
aS'should we make a 1d fanboy mockumentary rt if you think this is a good idea'
p63
aS'goodmorningafternoon whatever it is whats goin on'
p64
aS'cant wait until thursday night at 700gonna be listening\xf0\x9f\x8c\xb8\xf0\x9f\x92\x95 \xf0\x9f\x92\x97\xf0\x9f\x92\x9d'
p65
aS'sydney you have been great last few days cya soon xx'
p66
aS'midnight memories  whos preordered it'
p67
aS'harry and niall on nova fm just now full via cay'
p68
aS'when are one direction on smallzy  xx'
p69
asS'2013_46'
p70
(lp71
S'omg hahaha \xf0\x9f\x98\x82\xf0\x9f\x92\x95'
p72
aS'ily\xe2\x9d\xa4\xef\xb8\x8f'
p73
aS'thats so cute\xf0\x9f\x92\x97\xf0\x9f\x8e\x80'
p74
aS'theo is a g'
p75
aS'\xe2\x9d\xa4\xef\xb8\x8f'
p76
aS'oh hi'
p77
aS'ily\xf0\x9f\x98\x8d\xe2\x9d\xa4\xef\xb8\x8f'
p78
aS'how do you like your eggs in the morning'
p79
aS'millions in the philippines need clean water amp shelter now is there donate to their haiyan appeal'
p80
aS'ily\xf0\x9f\x92\x97'
p81
aS'how are u all '
p82
asS'2013_47'
p83
(lp84
S'this is our 1d pudsey  its up for auction right now for a great cause please give what you can'
p85
aS'only 5 not a lot haha \xf0\x9f\x92\x95'
p86
aS'ily\xf0\x9f\x92\x97'
p87
aS'hahaha ikr sorry about thati only just saw it coz i got a new twitter\xf0\x9f\x98\x82\xf0\x9f\x98\x98'
p88
asS'2013_44'
p89
(lp90
S'the soml video comes out in 2 hour we have 24 hours to make it to 20m views the boys have done so much for us so let\xe2\x80\xa6'
p91
aS'new sick tune from my babe and her lovely bandmates and its out today xx xx'
p92
aS'wowweee tour finished  thank you to everyone who made it brilliantttt'
p93
aS'134 shows and i wasnt bored for one show because we have the best fans on the planet and we do all this for ucoz u g\xe2\x80\xa6'
p94
aS'ive had an amazing year thank you all soo much  never forget this tour  tmhworldtour2013'
p95
aS'feels like years ago we started on that freezing cold night in february at the o2 in london '
p96
aS'thats it  tmht is over thank you soo much everyone who made it what it was what a year  xxxx'
p97
aS'ily\xf0\x9f\x92\x97\xf0\x9f\x92\x95\xf0\x9f\x8e\x80'
p98
aS'me and my brother greg in the sittin room storyofmylife'
p99
aS'as long as i got my suit and tie storyofmylife'
p100
aS'today was so fun at music station in tokyo  had such a laugh with the lads and  love that girl '
p101
aS'hiiiii heres me in the new video with a bowl of sausages'
p102
aS'screen debut for the grandparents haha  love it  '
p103
aS'what do you think of my cricket jumper from soml video'
p104
aS'confused to all these different time zone halloweens i think i missed it'
p105
aS'not long till you get to see story of my life video d'
p106
aS'ily\xf0\x9f\x92\x97\xf0\x9f\x92\x95\xf0\x9f\x8e\x80'
p107
aS'happy halloween\xf0\x9f\x91\xbb\xf0\x9f\x8e\x83 ily\xf0\x9f\x92\x95\xf0\x9f\x92\x97\xf0\x9f\x8e\x80'
p108
aS'ello everyone whats new'
p109
aS'ily so much \xf0\x9f\x92\x95\xf0\x9f\x92\x97\xf0\x9f\x8e\x80\xf0\x9f\x92\x9d\xf0\x9f\x8c\xb8'
p110
aS'soooooo excited for you to see the new videooo'
p111
aS'cant wait for you guys to see the video'
p112
aS'ily\xf0\x9f\x92\x97\xf0\x9f\x92\x95\xf0\x9f\x92\x9d\xf0\x9f\x8e\x80'
p113
aS'this is my chillin listenin t soml face '
p114
aS'happy birthday skipleeeeeeeett'
p115
aS'vas sapning halloween  '
p116
aS'\xf0\x9f\x8e\x83happy halloween\xf0\x9f\x91\xbb'
p117
aS'fingers crossed for the weekend with story of my life thank you guys who have bought it so far really means a lot '
p118
aS'also thank you to all the crew who make the show happen  the band and all our australian team and of course yo\xe2\x80\xa6'
p119
aS'what a great end to an amazing tour and experience thank you so much aus this is something i wont ever forget ive ha\xe2\x80\xa6'
p120
aS'every audience has been simply incredible its been hard to tell who was the loudest because every show you give us su\xe2\x80\xa6'
p121
aS'cant wait to come back thanks to all our crew and everyone at the label in aus lets keep having a great time over h\xe2\x80\xa6'
p122
aS'132 shows of 134  cant believe its nearly over sad times but im ready to go again in the new year for where we are\xe2\x80\xa6'
p123
aS'well that was mental australia and nz thank you soo much for an amazing tour gona miss u lot 2 shows t go  tokyo u \xe2\x80\xa6'
p124
aS'there we all are  gona miss all the australian crew who are not comin to japan but its been a great tour'
p125
aS'come back to perth pleaseeee ily\xf0\x9f\x92\x97\xf0\x9f\x8e\x80\xf0\x9f\x92\x95\xf0\x9f\x8c\xb8'
p126
aS'the show was sick tonight thank you australia for being so welcoming and amazing  big love you all xx'
p127
aS'story of my life is amazing\xf0\x9f\x98\x8d\xf0\x9f\x92\x97\xf0\x9f\x92\x95\xf0\x9f\x8e\x80'
p128
aS'all ur messages are amazzzzing  cant believe so many of you are listening to story of my life this week '
p129
aS'storyofmylife is amazing i bought it so many times im so excited for midnight memories love you  '
p130
aS'we can\xe2\x80\x99t thank you guys enough if you\xe2\x80\x99ve bought our single  '
p131
aS'ily\xf0\x9f\x92\x97\xf0\x9f\x92\x95\xf0\x9f\x8e\x80'
p132
aS'rigggght show done gonna do a few follows for story of my lifeeeee '
p133
aS'ily\xf0\x9f\x92\x95\xf0\x9f\x92\x97\xf0\x9f\x8e\x80'
p134
aS'sorry the line got toooooo big i didnt expect that x glad i made some people happy'
p135
aS'ily\xf0\x9f\x92\x95\xf0\x9f\x92\x97\xf0\x9f\x8e\x80'
p136
aS'thank you for downloading story of my life '
p137
aS'you guys can get story of my lifeeeeeeeeeeee now '
p138
aS'ily\xf0\x9f\x92\x97\xf0\x9f\x92\x95\xf0\x9f\x8e\x80'
p139
aS'thanks melbourne sorry if i was a bit slow my bloody back was hurting dam it  im getting old \xf0\x9f\x91\xb4'
p140
aS'where would u be in 10 years harryi hope i would be touring with one direction fandom'
p141
aS'interviewer where would you be in 10 years harry i hope i would be touring with one direction us right now h\xe2\x80\xa6'
p142
aS'i love story of my life ily\xf0\x9f\x92\x97\xf0\x9f\x92\x95\xf0\x9f\x8e\x80'
p143
aS'our new single story of my life is out now enjoy'
p144
asS'2013_45'
p145
(lp146
S'cheerleading was so fun this afternoon\xe2\x9c\x8c\xef\xb8\x8f\xf0\x9f\x92\x97\xf0\x9f\x8e\x80love it\xf0\x9f\x92\x95\xe2\x9c\x8c\xef\xb8\x8f\xf0\x9f\x8e\x80'
p147
aS'i love my lil rockers  your all the best ever'
p148
aS'hi everyone whats newwww'
p149
aS'ily\xe2\x9d\xa4\xef\xb8\x8f'
p150
aS'sooo ive been asleep for about 3 days breakfast'
p151
aS'you have the voice of an angel your voice is like a combination of fergie and jesus'
p152
asS'2013_37'
p153
(lp154
S'just posted a photo'
p155
aS'hey everyone whats newwwwwww'
p156
aS'happy birthday'
p157
asS'2013_36'
p158
(lp159
S'sittin in the garden for the day gona do nothing '
p160
aS'i like fields'
p161
aS'yay going to see cosentino in november cant'
p162
asS'2013_35'
p163
(lp164
S'the top 5 most controversial award show moments featuring watch'
p165
aS'onedirectionfollowspree follow our sound technician retweet when youre done'
p166
aS'retweet if you want a follow on must be following amp and me \xe2\x9d\xa4'
p167
aS'happy birthday have a great day ily\xf0\x9f\x92\x93\xf0\x9f\x92\x95\xf0\x9f\x92\x97\xf0\x9f\x92\x9e'
p168
aS'liamwillturn20followparty follow me amp i follow back follow who rts realliampaynefollowparty'
p169
aS'rest time'
p170
aS'ya alright there pablo '
p171
aS'thank you to all the fans that have come down to the premier tonight  your support is always recognized love you guys  xx'
p172
aS'so excited about the us premiere whos watching the live stream red carpet cant be seen from the street so make sure\xe2\x80\xa6'
p173
aS'just posted a photo'
p174
asS'2013_34'
p175
(lp176
S'wow  was soo good nypd'
p177
aS'nypd have said there was 18000 people out thereunbelievable'
p178
aS'back in nyc  cant wait t do today show in the morning for the third time thanks for having us back  its been a huge\xe2\x80\xa6'
p179
aS'retweet to win this '
p180
aS'are you online \xe2\x95\xb0\xe2\x87\xa2\xe2\x87\xa2\xe2\x87\xa2\xe2\x95\xae \xe2\x95\xad\xe2\x87\xa0\xe2\x87\xa0\xe2\x87\xa0\xe2\x95\xaf \xe2\x95\xb0\xe2\x87\xa2\xe2\x87\xa2\xe2\x87\xa2\xe2\x95\xae \xe2\x95\xad\xe2\x87\xa0\xe2\x87\xa0\xe2\x87\xa0\xe2\x95\xaf \xe2\x95\xb0\xe2\x87\xa2\xe2\x87\xa2\xe2\x87\xa2\xe2\x95\xae \xe2\x95\xad\xe2\x87\xa0\xe2\x87\xa0\xe2\x87\xa0\xe2\x95\xaf \xe2\x95\xb0\xe2\x87\xa2\xe2\x87\xa2\xe2\x87\xa2\xe2\x95\xae \xe2\x95\xad\xe2\x87\xa0\xe2\x87\xa0\xe2\x87\xa0\xe2\x95\xaf \xe2\x95\xb0\xe2\x87\xa2\xe2\x87\xa2\xe2\x87\xa2\xe2\x95\xae \xe2\x95\xad\xe2\x87\xa0\xe2\x87\xa0\xe2\x87\xa0\xe2\x95\xaf \xe2\x95\xb0\xe2\x87\xa2\xe2\x87\xa2\xe2\x87\xa2\xe2\x95\xae \xe2\x95\xad\xe2\x87\xa0\xe2\x87\xa0\xe2\x87\xa0\xe2\x95\xaf \xe2\x95\xb0\xe2\x87\xa2\xe2\x87\xa2follow'
p181
ag22
aS'whats up crazy mofos yall good lyin in bed and i aint goin anywhere for a while'
p182
aS'retweet if you want a follow on my main must follow and woahdirection'
p183
aS'giving away some of these retweet for your chance to win'
p184
aS'again i cant believe what an amazing night we hadddd thankyou all cant wait for all of you to see the film and he\xe2\x80\xa6'
p185
aS'im deffinately wearing nappies tonight  im that excited '
p186
aS'can you pleaseeee follow me xo'
p187
aS'1dmoviepremiere today d'
p188
aS'tonight is the night 1dmoviepremiere'
p189
aS'yay so happy you got through well done ily\xe2\x9d\xa4'
p190
aS'leicester square tonight u can all turn to eachother and be like we did this so thank you so much'
p191
aS'the talk dirty dance yay 700000 views '
p192
aS'im so excited to see the this is us movie though d'
p193
aS'great to be back with the lads today cant wait for the movie  x'
p194
aS'big day of press today for this is us havin a laugh'
p195
aS'over 10000000 followers thankyou '
p196
aS'cant believe its twoyearsofwhatmakesyoubeautiful and this week we premiere our movie this is us thank you'
p197
aS'caution hot surface 1dmovie'
p198
aS'killed it lil sis well done  love choo'
p199
aS'strike a pose'
p200
asS'2013_33'
p201
(lp202
S'\xe2\x80\x9cthis is us\xe2\x80\x9d presents the payno '
p203
aS'back for one day and im in another state already i miss my baby'
p204
aS'our new profile photo looks like a family photo hehe'
p205
aS'wish i could meet them in real life\xf0\x9f\x98\xa2\xf0\x9f\x98\x9e\xf0\x9f\x92\x95'
p206
aS'look at them'
p207
aS'truth  nice meeting u'
p208
aS'my bestfriends back but shes so sleepy'
p209
aS'me and my friends were just dancing to this and replayed it like 100 times ily one directionlt3'
p210
aS'loved wentworth today with the new sldr is sick thanks for having me guys sldr'
p211
aS'the tommo in action '
p212
aS'4 days till our premiere cant wait see you there'
p213
aS'almost 1 million views holy hdfjggcgds girlnextdoorto1million'
p214
aS'nz here we come'
p215
aS'look whos glad to see me'
p216
aS'soooooo excited for the premiere of our movie in london'
p217
aS'if this is us starts playing best song ever can we all get up and start dancing'
p218
aS'oh yeh  went dentist today and got the braces off my bottom teeth im officially brace free'
p219
aS'i cant freaking wait for this is us'
p220
aS'this is us is coming out soon'
p221
aS'thisisusfollowspree d'
p222
aS'thisisusfollowspree follow me please zayn love you lt3 xxx'
p223
aS'hear a bit of the live version of last first kiss d'
p224
aS'thanks'
p225
aS'cash is looking after me with my cold'
p226
aS'hey buddy  xoxox'
p227
asS'2013_32'
p228
(lp229
S'just about to walk up jacobs ladder 300 steps i think i might die'
p230
aS'love this picture love you\xf0\x9f\x92\x97\xf0\x9f\x92\x95\xf0\x9f\x8e\x80'
p231
aS'sisterslt3'
p232
aS'unicorn\xf0\x9f\x8e\xa0\xf0\x9f\x92\x99\xf0\x9f\x8e\x80\xe2\x9c\x8c'
p233
aS'me and gewlt3'
p234
aS'my girls love yalt3'
p235
aS'hot dogs hahahalt3'
p236
aS'love all the videos you sent to my app they were funny if you want to join its here'
p237
aS'beau acting like a sick cunt'
p238
asS'2013_31'
p239
(lp240
S'goodmorning '
p241
aS'went to watch cirque du soleil tonight i now feel very not bendy'
p242
aS'bed timelt3 with my beautiful sister and cute little doggy loves them\xe2\x9c\x8c\xf0\x9f\x92\xa4\xe2\x9d\xa4'
p243
aS'follow your dreams always'
p244
aS'defiantly the cutest human lt3'
p245
aS'your such a cutie\xf0\x9f\x98\x98 please follow xoxox'
p246
asS'2013_30'
p247
(lp248
S'good night world\xf0\x9f\x92\xa4\xe2\x9c\x8c\xf0\x9f\x92\x99'
p249
asS'2013_39'
p250
(lp251
S'omg i wanna meet them so bad '
p252
aS'they were walking down the road and she saw them so she got them to sings her tshirt and she got pictures with all of them'
p253
aS'yeah my sisters friend just meet them  so unfair haha '
p254
aS'haha see you tomorrow'
p255
aS'\xf0\x9f\x92\x9d'
p256
aS'omg so excited for sunday cant wait\xf0\x9f\x98\x86\xf0\x9f\x98\x86 \xe2\x9d\xa4\xef\xb8\x8f\xe2\x9d\xa4\xef\xb8\x8f'
p257
aS'adelaide  you were fin unbelievable  couldnt believe how loud it was in there doin it all again tomorrow  cant wa\xe2\x80\xa6'
p258
aS'yessss adelaide  one of the loudest crowds ever what a night  thats it tmht is back on the road'
p259
asS'2013_38'
p260
(lp261
S'ily harry\xf0\x9f\x92\x97\xf0\x9f\x92\x97'
p262
aS'omg the one direction movie was so good loved it so much\xe2\x9c\x8c\xef\xb8\x8f\xf0\x9f\x92\x95 \xf0\x9f\x8e\x80'
p263
aS'omg cant wait gonna see 1d this is us 3d tonight so excited'
p264
aS'australia '
p265
as.