(dp0
S'2013_42'
p1
(lp2
S'do you have volunteerhands  \xc3\xb0\xc3\xbf\xe2\x84\xa2\xc5\x93 getinvolvedasapmrw but tonight i just wanna do this nothing lol'
p3
aS'your present circumstances dont determine where you can go they mes 1000 a day for public appearances royalbabyabc'
p4
aS'americandream09 great thank you  you really made my day n galway ireland job jobfairy chef'
p5
aS'a real boyfriend knows his girl like the back of his hand he knows when i hate it when im trying to text someone but'
p6
aS'i logged on and literally the first thing i saw was rhiannamator and u described an aries in your taurus tweet haha'
p7
aS'ive preordered a copy of gottabeyou for everyone in my family im sscottcawley yeah my 3 for water polo didnt get a'
p8
aS'rihannas diamonds is certified gold in new zealand congrats robyn bridge anniversary go bagless listen lhnln yeg'
p9
aS'two kinds of people who shape me the most those who support me and thniall has lost 600000 followers he used to have'
p10
aS'i dont care how many times i say im over you seeing you with someone else kills meve no idea how pure it really is'
p11
aS'those girls who cry in the bathroom and wait 20 minutes to tell you cked out what you do so playtime for the weekend '
p12
aS'love is like a bus if you miss it dont worry youll catch anothightly crazy things via inc k4pxt rt marlatabaka'
p13
asS'2013_43'
p14
(lp15
S'don\xc3\xa2\xe2\x82\xac\xe2\x84\xa2t compare yourself to others compare yourself to the person you were yesterdayrd work and learning from failure '
p16
aS'\xc3\xa2\xe2\x82\xac\xc5\x93today many will awaken with a fresh sense of inspiration why not you\xc3\xa2\xe2\x82\xac\xc2\x9dmollypoppins im here as long as youre ok'
p17
aS'you don\xc3\xa2\xe2\x82\xac\xe2\x84\xa2t forget the face of the person who was your last hope  katniss everdeenyou back arthur rubinstein melodies'
p18
aS'forget cheesy pickup lines we need better breakup lines hey baby are yost to sell shares yqnuz via breitbartnews'
p19
aS'haveing funand not careing if you look stupid teensdothissy wizard on wizards of waverly place my childhood is gone'
p20
aS'skill to do comes of doing  ralph waldo emerson regards to the ios  android is better  amp note 2 has better specs'
p21
aS'old friend we need to hang out  never happensing is a miracle the other is as though everything is a miracle'
p22
aS'dear guys never tell a girl she is ugly or fat she will remember it k 1hunnah jus ask her to follow back tbhshe hot'
p23
aS'the things he says make me believe he really likes meother thin leaderboards for kills wins and score they r hacked'
p24
aS'maxfisher no offense taken of course want to get it right we noted thachild mom i love you  mom i love you too'
p25
aS'there are a million things in the world i want but all i need is you lt3e bill how irresponsible teenagedreamsss'
p26
aS'at the end of the day you can either focus on what\xc3\xa2\xe2\x82\xac\xe2\x84\xa2s tearing you apae nativeproblems nativeproblems rezlife'
p27
aS'\xc3\xa2\xcb\x9c\xc2\xbb beauty is about living your life amp being happy with yourself inside amp youre amazing and i love you mrlukebenson'
p28
aS'how to survive a layoff dadu says something completely stupid and you both burst into laughter'
p29
aS'\xc3\xa2\xe2\x82\xac\xc5\x93i suppose ill have to add the force of grav hypocrites amp misleading rulers umarra is this not the case today'
p30
aS'quotes looking forward to going to spain to be in benidorm and im playiny be in the usa \xe2\x80\x9d yess askfma5ehp8faj'
p31
aS'high school made me realize that a lot of people will change just to fit injarvismike i take that back tlc was foun'
p32
aS'sorry not sorry defiantly not sorry too fabulous to be sorrybelieve the way i feel about you girl  brad paisley then'
p33
aS'the best way to stand out is to stop trying to fit in id rathbout investment  ubs chairman weber wef wef2013agenda'
p34
aS'rihannas love affair with ink 15 tattoos and countingwhich are ya chick just flashed the barge a chick just flashed'
p35
aS'good actions give strength to ourselves and inspire good actions in othersmt abfalecbaldwin i want all my followers'
p36
aS'\xc3\xa2\xe2\x82\xac\xc5\x93if youre too openminded your brains will fall out\xc3\xa2\xe2\x82\xac\xc2\x9d  lawrence ferlinghetti  wake me up'
p37
aS'youll never love yourself half as much as i love you youll never and in case you forgot my name too call me yours '
p38
aS'i not only bow to the inevitable i am fortified by itthornton wilder quoteyour family admit youve done it before \xc2\x90\xc2\xb7'
p39
aS'be truebe kindbe truly kindbe kindly true  sayquotes skinnier nicer calmer clearer stronger better than me'
p40
aS'someone will always be prettier someone will always be smarter soone elses i bet we would be quick to grab ours back'
p41
aS'teenagestories\xc3\xa2\xe2\x80\x9e\xc2\xa2 \xc3\xa2\xe2\x82\xac\xc2\x8fteenagestories 15 feb 12 when they do theyre scared to death at the thought of losing it'
p42
aS'you can never get enough of what you dont really want eric hoffer quotesmy boyfriend thinks that im a stalker'
p43
aS'life isnt worth living unless it is lived for someone elseast not give them less than what we inherited if not more'
p44
aS'momentosquenoolvidaredel2011 todos mis momentos de risa que terminan en d bumped into pac president letlapa mphahlele'
p45
aS'awww thanks for the messages im so glad ive got some really awesome followers  can also disappear without it  love'
p46
aS'every child needs to know that they are not alone himself with at least some amount of competence'
p47
aS'i wish that i could fall asleep and wake up with all of my problems goneou make it its not a mistake its a choice'
p48
aS'katrinayork oh mayn\xc3\xb0\xc3\xbf\xe2\x84\xa2\xcb\x86 the silver samsung i was a laughing stock with it\xc3\xb0\xc3\xbf\xcb\x9c\xe2\x80\x9aki walk dance celebrate your life\xc3\xa2\xe2\x82\xac\xc2\x9d'
p49
aS'derekmarks not half as much as ive missed pinning them on  call 8004367734 so our crews can respond thank you'
p50
asS'2013_40'
p51
(lp52
S'waking up amp checking your twitter like its the morning papert much more to do with love william shakespeare melodies'
p53
aS'life consists in what you are thinking of all day think stand out dont blend inbroadcasting live at '
p54
asS'2013_41'
p55
(lp56
S'in dreams begin responsibilities \xc3\xa2\xe2\x82\xac\xe2\x80\xa2 wb yeatsin if i dont talk to u itll always feel like somethings missing'
p57
aS'my silence means youre not worth the argumenting horrible stuff the good things never get reported so sad'
p58
aS'only those who risk going too far can possibly or sense of obligation as our creator he did it bc he loves us aw'
p59
aS'\xc3\xa2\xe2\x82\xac\xc5\x93the weak can never forgive forgiveness is tgets like buttons amp other stuff that the page takes ages to load'
p60
aS'idesirequotes 22 rt from my faves pleaseeecy caboosey i hated the way i looked i had zits i was chubby'
p61
aS'i just wish you would care a little bit morefriendship way like u are so compatible and perfect for each other'
p62
aS'the fixity of a habit is generally in direct f in a hospital me with a face amp me without its really messed up'
p63
aS'never stop smiling not even when youre sadgary neville hes proved me wrong brilliant article on daily mail'
p64
aS'they say kissing is the language of love anya brazilian girl shouts were world champions yaaaay ahbless'
p65
aS'making one person smile can change the worldted i have feelings dont judge when your hands arent even clean'
p66
aS'the brave little toaster crossover with alice of human sacrificeto their eyes and seeing the miracle you cant have lt3'
p67
aS'overhearddublin irish customer service ah itll be grand pictwittercomqzq67gawfie small ones phillips brooks quote'
p68
aS'portmanfox haha thanks i definitely will have to take a jog tomorrow morningthey put devotion and loyalty on a pedestal'
p69
aS'men play the game women know the score  roger woddis but yet you cling desperately to your chains ultimatequotes'
p70
aS'retweet this if youre not the same person that you were an year agol of my own spill auspol instagrampbbfud4w51w'
p71
aS'that awkward moment when your friend is friends with the person you hatell never really know how strong your love is'
p72
aS'ifyoumarryme i wont make the promise to be perfect but ill promise yout what you just about to say omgthatsateen'
p73
aS'1lesslonelybob please read my story love scars i promise youlone to teamservants rt sk874e dothedownton downton'
p74
asS'2013_46'
p75
(lp76
S'what people think about us what we let people know about us and what i like to stop the microwave with 001 to go make'
p77
aS'so i guess theres 7 billion people in the worldomotes her at least twice will get shoutout from me just wait '
p78
aS'0054 adopt a pet because no one sees you like your dog does  video  with can become just another stranger you dont know'
p79
aS'in a relationship on facebook not in real lifeth them wout the troubles which r w the wealth of the wicked mh'
p80
aS'everything happens for a reason and a purpose and it serves youh to see and feel the light of happiness in your life'
p81
aS'no matter how much she has given a woman will forgive no matter how y means i cant do it with them\xc3\xa2\xe2\x82\xac\xc2\x9d  karen miller'
p82
aS' quotes i really do look like i\xc3\xa2\xe2\x80\x99ve done eigen not cared for losing scared assuming nervous letting go\xc3\xa2\xe2\x82\xac\xc2\x9d'
p83
aS'a true athlete spends the extra hour in the gym refuses to give in to theapproval is not something you fear and avoid'
p84
aS'how can i sleep when im broken apart letting go of all that ive knodhulhijjah starts at dusk prophet muhammad s s'
p85
aS'smile so the tears dont show laugh like you dont hurt at allacrx up 5 days in slow and steady green were screamin'
p86
aS'aaronlove4ever haha i think its a repeat it wasnt from feb hirt with a bulls eye on the back rodney dangerfield'
p87
aS'those anglotapes would cause anyone to projectile vomitnfollow mustfollow 500aday rt \xc3\xa2\xe2\x84\xa2\xc2\xa5thf teamhitfollow 437'
p88
aS'wondering if there is anything between the tweets with ddlovato amp 1lograzarumi kar aitbaar mera main karaan intezar'
p89
asS'2013_47'
p90
(lp91
S'ba billy gunn the power house of the team unloadingday wisdom is letting go of something every day zen proverb'
p92
aS'how does kyle walker keep getting in the squado \xc3\xa2\xe2\x82\xac\xc5\x93so on a scale of one to ten how much am i not allowed in\xc3\xa2\xe2\x82\xac\xc2\x9d'
p93
aS'rereading what michael horton said about the covenant of grace in chile and ecuador'
p94
aS'love looks through a telescope envy through a microscope josh billingsitch off mobile phones and blueberry devices'
p95
aS'last ever french lesson now and then the last ever re lesson happy days\xc3\xb0\xc3\xbf\xc5\xbe\xe2\x80\xb0she said shes the biggest fan of justin bie'
p96
aS'carien du plessis \xc3\xa2\xe2\x82\xac\xc2\x8fcarienduplessis 22 jun'
p97
asS'2013_44'
p98
(lp99
S'shut up you have no idea how hard i wanna fuck youtes \xc3\xa2\xe2\x82\xac\xc5\x93don\xc3\xa2\xe2\x82\xac\xe2\x84\xa2t ever let anybody tell'
p100
aS'its me who yearns for u at nite its me who cries wishin u were herethat anna kendrick song cups is so bad it'
p101
aS'fact joel mccrea turned down the role of frank chambers in the postman aluld never believe that could ever be changed'
p102
aS'youre on my mind all the time even if i wake up in the middle of the\xc5\x93pandy92 what i love about people if theres a pr'
p103
aS'the breaking of a wave cannot explain the whole sea  vladimir nabokov trying to stalk a boyband in la thats for sure'
p104
aS'using the phone very strategically when it hits low battery latest specs for the new generation'
p105
aS'if you love someone tell them because hearts are often broken by words left unspokenopening your book to the exaxct page'
p106
aS'gt these are the best pictures ere used to and moving on with something youre not'
p107
aS'sure god loves you but everyone else thinks youre a jerk  wtfqzou and your family a very merry christmas ho ho ho'
p108
aS'hagel boston attack a cruel act of terrore wall whisper love you  brantley gilbert whenever were alone fcg'
p109
aS'and off he went to stamford bridge he hates tottenham he hates tottlistening to mariah carey feat bone thugsnharmo'
p110
aS'hope4hollywood propheticsound pastorbjgray holtsd jackyd1992 gelp but it is a solution jk but i hope you laugh'
p111
aS'lalechuguita when i make promises i keep my promises luv ya lettu had loser written on my forehead teensdothiss'
p112
aS'he that cant endure the bad will not live to see the good  yiddish proverbave lots of other fine bands booked rf13'
p113
aS'behind that charcoal skyconfluence of snowall white and glittery me less  charles lamb rt manhattanwriter'
p114
aS'a good movie is three good scenes and no bad scenes  howard hawkspoleon bonaparte quote leadership'
p115
aS'the breastcancer journal is out \xc3\xa2\xe2\x80\x93\xc2\xb8 top stisten live espngoespnradiochicagoplay nbafinals game1'
p116
aS'once you begin being naughty it is easier to go and on and on and sonot choose one that helps you feel great right now'
p117
asS'2013_45'
p118
(lp119
S'unless you change how you are you will always have what youve got  jim rohn quoteinstead think amp act local bizitalk'
p120
aS'truth is not beauty beauty is not love love is not music music is thesuccess is the good fortune that comes from asp'
p121
aS'find your storm and speak to it you will prevailsing it incorrectly and applying the wrong remediesgroucho marx'
p122
aS'the awkward moment when youre waiting for a text but then you realizegood humor is the health of the soul sadness is'
p123
aS'we have enough religion to make us hate but not enough to make us love one anotherdoesn\xc3\xa2\xe2\x82\xac\xe2\x84\xa2t actually get you anywhere'
p124
aS'totallymufc breaking manchester united and everton have reporwe all have a friend that only gets called by their nic'
p125
aS'stay positive even when it feels like your life is falling apart and not the taildeut 2813 as we think so are we'
p126
aS'1 minute cant change ur lifebut the utilisation of every minute will deht she was so stunning as well xfactorfinal'
p127
aS'men often act knowingly against their interest david humee how good real love feelstake it slowenjoy the time u have'
p128
aS'umar ibn alkhattaab ra said to attend fajr prayer in congt falling so deeply in love is usually where it ended'
p129
aS'\xc3\xa2\xe2\x82\xac\xc5\x93when someone tells you it can\xc3\xa2\xe2\x82\xac\xe2\x84\xa2t be done it\xc3\xa2\xe2\x82\xac\xe2\x84\xa2s more a reflection of theto magnify god is a stretch if you dont'
p130
aS'goodmorning becbecbobec itona gleeforcoke '
p131
aS'imagine just moving away and starting a fresh'
p132
aS'disconnect while on vacation \xc3\xa2\xe2\x82\xac\xc2\xa6 via anitafiander'
p133
aS'\xc3\xa2\xe2\x80\x94\xc2\x8f\xc3\xa2\xe2\x80\x94\xc2\x8f\xc3\xa2\xe2\x80\x94\xc2\x8f\xc3\xa2\xe2\x80\x93\xc2\xac\xc3\xa2\xe2\x80\x93\xc2\xac\xc3\xa2\xe2\x80\x93\xc2\xac\xc3\xa2\xe2\x80\x93\xc2\xac\xc3\xa2\xe2\x80\x93\xc2\xac\xc3\xa2\xe2\x80\x93\xc2\xac\xc3\xa2\xc5\x93\xc2\xae\xc3\xa2\xe2\x80\x9c\xe2\x80\xa6\xc3\xa2\xe2\x80\x9c\xe2\x80\xa1\xc3\xa2\xe2\x80\x9c\xe2\x80\x9e\xc3\xa2\xe2\x80\x9c\xe2\x80\x9a\xc3\xa2\xe2\x80\x9c\xe2\x80\x9e\xc3\xa2\xc5\x93\xc2\xae\xc3\xa2\xe2\x80\x9c\xcb\x86\xc3\xa2\xe2\x80\x99\xc2\xbd\xc3\xa2\xe2\x80\x9c\xe2\x80\x9e\xc3\xa2\xe2\x80\x9c\xc5\xa1\xc3\xa2\xe2\x80\x9c\xe2\x80\xb0\xc3\xa2\xe2\x80\x9c\xe2\x80\x9e\xc3\xa2\xe2\x80\x9c\xc5\xa1\xc3\xa2\xe2\x80\x9c\xe2\x80\xb0\xc3\xa2\xc5\x93\xc2\xae\xc3\xa2\xe2\x80\x93\xc2\xac\xc3\xa2\xe2\x80\x93\xc2\xac\xc3\xa2\xe2\x80\x93\xc2\xac\xc3\xa2\xe2\x80\x93\xc2\xac\xc3\xa2\xe2\x80\x93\xc2\xac\xc3\xa2\xe2\x80\x93\xc2\xac\xc3\xa2\xe2\x80\x94\xc2\x8f\xc3\xa2\xe2\x80\x94\xc2\x8f\xc3\xa2\xe2\x80\x94\xc2\x8f \xc3\xa2\xc2\xaf\xc3\xa2\xe2\x82\xac\xe2\x84\xa2\xc3\xa2\xcb\x9c\xe2\x80\xa6\xc3\xaf\xc2\xbd\xc2\xa1\xc3\xa2\xe2\x80\x9e\xc2\xb1\xc3\xa2\xe2\x80\x9e\xc2\xb4\xc3\xa2\xe2\x80\x9e\xe2\x80\x9c\xc3\xa2\xe2\x80\x9e\xe2\x80\x9c\xc3\xa2\xe2\x80\x9e\xc2\xb4\xc3\xaf\xe2\x80\xb0 \xc3\xa2\xcb\x9c\xe2\x80\xa6\xc3\xa2\xcb\x9c\xe2\x80\xa6'
p134
aS'are u really trying 2 convert me 2 ur religion via a tweet if 16years of religious babbling didnt do it 140 characters aint going 2 work'
p135
aS'whenever i go on a diet it lasts about 15 minutes girlproblems'
p136
aS'its a movie weekend\xc3\xa2\xe2\x82\xac\xc2\xa6 nowwatching paycheck\xc3\xa2\xe2\x82\xac\xc2\xa6 cant forget the similar 3d holographic screen i built years ago'
p137
aS'everyone loves a dirty bird dirtybirdsf is back at sankeys tonight vonstroke shadowchild mrjustinmartin amp bones ibiza ibiza2013'
p138
aS'when people sing all serious and youre just like lol youre shit'
p139
aS'uk firms respond to 78 of customer queries on average vithorky smi13'
p140
asS'2013_37'
p141
(lp142
S'megaupload trial may never happen judge says  torrentfreak \xe2\x80\xa6'
p143
asS'2013_35'
p144
(lp145
S'cbo says immigration bill reduces federal deficit they also said obamacare would lower premiums bs tcot 13rwpkh'
p146
aS'every time a developer talks about cloud gaming iimgurcomyhgzt0vpng lol'
p147
aS'lady chopping fruit certainly seemed unhappy theprojecttv'
p148
aS'overcome the difficult situations with faith and a positive attitude'
p149
asS'2013_34'
p150
(lp151
S'my ceiling fan has 3 settings 1 very slow 2 slow 3 im about to detach from the ceiling and kill you in a freak ceiling fan accident'
p152
aS'wanna eat it till u dripping wet tease that pussy with my dick smack it around and give it some twitterafterdark'
p153
aS'my friends are absolutely crazy but i love them anyway\xf0\x9f\x92\x8b'
p154
aS'scientists have recently discovered that bitches do in fact be trippin'
p155
aS'i know we will win the power of beliebers everybody mtvhottest justin bieber'
p156
aS'amen rt mareo17 str8edgeracer im going to disney today gonna eat a churro in youre behalf to send my good vibes pma'
p157
aS'looks from the michaelkors fall 2013 fashion show allaccesskors'
p158
aS'country artist miranda lambert is wearing roberto cavalli grammyglam'
p159
aS'im 15  \xe2\x80\x9cselenalovato bieberpower how old r u\xe2\x80\x9d'
p160
aS'hoes give real women a bad name men who dont clean cook work and know how to treat her makes them think theyre all the same'
p161
aS'this incident proves why yall shouldnt even think of trying drugs cory monteith had so much potential ripcorymonteith'
p162
aS'it is in the shelter of each other that the people live irish proverb'
p163
aS'st louis cardinals first baseman albert pujols backs mark mcgwire looks forward to spring training albert pujol'
p164
aS'you come to love not by finding the perfect person but seeing an imperfect person perfectly'
p165
asS'2013_39'
p166
(lp167
S'that god does not exist i cannot deny that my whole being cries out ftgirlprblembigcartel orderorderorderorder  '
p168
aS'honesty is probably the sexiest thing a man can give to a womanto the eyes of your lover and and saying i love you'
p169
aS'just as peter was denied access 2 marys house in ac 1216 bc of unbelief my god rt drudgereport outrage as bananas'
p170
asS'2013_38'
p171
(lp172
S'quoteswhy would there be rivalry in my opinion sebastian coe e committed \xc3\xa2\xe2\x80\xa0\xe2\x80\x99 i loved \xc3\xa2\xe2\x80\xa0\xe2\x80\x99 you cheated \xc3\xa2\xe2\x80\xa0\xe2\x80\x99 were done'
p173
aS'blaine to kurt the only times youve texted me in the past few daysou became friends you just suddenly were friends'
p174
aS'sorry im not perfect good luck on finding someone who is\xc3\xa2\xe2\x82\xac\xc2\x9dhat today isnt his birthday and its on june 1 hahahaha'
p175
aS'word biblical commentary psalms 150 hardcover e mirror and put it into your pocket quick '
p176
aS'ginaaarrr first world problems not being considered worthy of the 454 theredheadriter afternoon d amp happy humpday'
p177
aS'everyone said it was just young love but we knew it was so much more than that q4atows to know you can never look back'
p178
aS'jaskarn lol you listen to the new song by imran khan is mccutchen available to pinch hit if needed\xc2\x9d'
p179
aS'justin should just make a porno with love me like you do playing in the rt aninews lk advani will not attend todays'
p180
aS'her boyfriend left her because she is too fat so she decides to get sexicken bones out of thier windows while driving'
p181
aS'theres only one way in which one can endure mans inhumanity to man and that is to try to exemplify mans humanity to man  alan paton'
p182
as.