(dp0
S'2013_42'
p1
(lp2
S'i cant wait for christmas music\xe2\x98\xba'
p3
aS'back in the studio working on new music again today'
p4
aS'rt for a chance to win a signed maroon 5 aa laminate from the hondacivictour'
p5
aS'answers the phone walks fifty laps around the house while talking'
p6
aS'i will never understand the physics behind british people losing their accents when they sing'
p7
aS'music makes me happy'
p8
aS'apple cider donuts\xf0\x9f\x98\x8d'
p9
aS'there arent enough hours in a day'
p10
aS'a leo on a mission means that they will get what they want at the end of the day'
p11
aS'whats a frogs favorite drink croaka cola'
p12
aS'do u think a stranger has ever tweeted about something uve done in public'
p13
asS'2013_43'
p14
(lp15
S'leos enjoy travel especially to tropical destinations'
p16
aS'every italian enjoys sunday because of the food\xf0\x9f\x8d\x9d\xf0\x9f\x87\xae\xf0\x9f\x87\xb9'
p17
aS'i use all of my is7 tshirts as pajamaas'
p18
aS'i cannot wait until abc family has the 25 days of christmas special\xf0\x9f\x8e\x84\xf0\x9f\x8e\x85'
p19
aS'i am a leo because ill stand by your side through thick and through thin'
p20
aS'dogs amp puppies gtgtgt'
p21
aS'my horoscope is always so accurate its scary'
p22
aS'when did it randomly get so cold '
p23
aS'u never truly appreciate how nice it is to be able to breathe through your nose until u get a cold'
p24
aS'stop it just stop it'
p25
aS'cell phones ruined the fun of pushing a fully clothed person into a pool'
p26
aS'\xf0\x9f\x8c\x99'
p27
aS'dress down makes me so happy catholicschoolprobems'
p28
aS'came home to the house decorated for halloween and smelling like vanilla\xf0\x9f\x8e\x83\xf0\x9f\x91\xbb'
p29
aS'all i want when i grow up is to have a group of people as close as phoebe rachel monica ross joey and chandler were'
p30
aS'david guetta feat the person who sings the entire song'
p31
aS'never had an interest in pll\xf0\x9f\x98\x81'
p32
aS'only 29 more mondays until summer \xe2\x98\x80\xef\xb8\x8f\xf0\x9f\x8c\xb4\xf0\x9f\x91\x99\xf0\x9f\x8e\x89\xf0\x9f\x99\x8c'
p33
aS'i cant believe october is almost over\xf0\x9f\x8d\x81\xf0\x9f\x98\xb1'
p34
aS'see you tonight at 98c teamadam'
p35
aS'new jersey thanks for all the love see you again soon welcometoparadisebooktour'
p36
aS'such an honor to meet today hes so sweet and incredibly talented\xf0\x9f\x92\x97\xf0\x9f\x98\x8d'
p37
aS'paramus i just got to barnes and nobles and im staying here until i sign every book you bring me im also playing my gu\xe2\x80\xa6'
p38
asS'2013_40'
p39
(lp40
S'hold on to whatever keeps you happy'
p41
aS'\xe2\x9d\xa4\xef\xb8\x8f\xe2\x9d\xa4\xef\xb8\x8f\xe2\x9d\xa4\xef\xb8\x8f'
p42
aS'looking forward to spending tomorrow with my bestfriend lt3'
p43
aS'one of the best feelings in the world is accomplishing something you wanted to do\xf0\x9f\x92\x95'
p44
asS'2013_41'
p45
(lp46
S'i love you so much\xf0\x9f\x92\x93'
p47
aS'leos are trustworthy'
p48
aS'life is full of questions you just have to wait for yours to be answered'
p49
aS'when you click a button you didnt mean to click so you just kinda hold the click and drag your cursor around hoping i\xe2\x80\xa6'
p50
aS'monica amp chandlers twins would be 9 this year pheobes triplets 14 ben 18 and emma 11 lets just take a moment to\xe2\x80\xa6'
p51
aS'met the most inspiring girl just a reminder to everybody reading this be kind to each other everybodys fighting a b\xe2\x80\xa6'
p52
aS'love all the coaches but im on teamadam \xe2\x9d\xa4\xef\xb8\x8f\xf0\x9f\x98\x8d watchingblinds'
p53
asS'2013_46'
p54
(lp55
S'yes'
p56
aS'lol sounds good'
p57
aS'omg can we please but if u dont mid ur house cause before we eat it everyone else will  lol'
p58
aS'omg we should try to make this\xf0\x9f\x98\x8d'
p59
aS'cant wait for christmas\xe2\x9d\x84\xef\xb8\x8f\xf0\x9f\x8e\x84\xf0\x9f\x8e\x85'
p60
aS'new clothes gtgtgtgtgtgtgtgtgtgtgtgtgtgtgt'
p61
aS'i love wearing scarves they make your outfit look 10x better'
p62
aS'do u realize our handwriting is like our own personal font'
p63
aS'im so ready for thanksgiving break'
p64
aS'adam levine gtgtgtgtgtgtgtgtgtgtgtgtgtgt'
p65
aS'monica amp chandlers twins would be 9 this year pheobes triplets would be 14 ben would be 18 and emma would be 11 let that sink in\xf0\x9f\x98\xa8'
p66
aS'its fridaay\xf0\x9f\x8e\x89\xf0\x9f\x8e\x8a'
p67
aS'watch adams interview on and'
p68
aS'the best is when you wake up at like 3am for no reason amp look at the clock amp realize that you have three more hours of slee\xe2\x80\xa6'
p69
aS'disney world gtgt'
p70
aS'ross what do i do now joey you play hard to get ross she already lives in london joey you go to tokyo friends'
p71
aS'exciting news '
p72
aS'i miss is7'
p73
aS'every morning i have separation anxiety from my bed'
p74
aS'i prefer talent over antics'
p75
aS'i am obsessed with christmas music omg\xf0\x9f\x98\x8d\xf0\x9f\x8e\x85\xe2\x9d\x84\xef\xb8\x8f'
p76
aS'i love s new hairstyle omg\xf0\x9f\x98\x8d\xf0\x9f\x98\x8d voicetop12'
p77
aS'love seeing how excited you guys are your tweets make me laugh will post a preview tomorrow pinky promise \xe2\x9d\x84\xef\xb8\x8f 8daysun\xe2\x80\xa6'
p78
aS'thank you thank you thank you \xf0\x9f\x87\xba\xf0\x9f\x87\xb8'
p79
aS'i want to go ice skating this year at rockefeller center \xe2\x9d\x84\xef\xb8\x8f'
p80
aS'i like staying up at unhumanly hours but i also like getting 12 hours of sleep do u see my problem'
p81
aS'can we go back to summer'
p82
aS'happy veterans day\xf0\x9f\x87\xba\xf0\x9f\x87\xb8'
p83
aS'after i buy new clothes  i wear all of it and then complain i have none'
p84
aS'thanksgiving and christmas break cant come soon enough'
p85
aS'i hate when i wake up from a good dream and i realize its not real'
p86
asS'2013_47'
p87
(lp88
S'im pregnant brandon and i are so excited best early christmas present ever '
p89
aS'voicesave austin retweet this please hurry '
p90
aS'retweet to voicesave austin'
p91
aS'rt voicesave austin'
p92
aS'voicesave'
p93
aS'i cant wait for black friday\xf0\x9f\x98\x81\xf0\x9f\x91\x97\xf0\x9f\x92\xb0'
p94
aS'i cant describe how excited i am to go to is7 tomorrow'
p95
aS'cant wait to go to the city during christmas time\xe2\x9d\xa4\xef\xb8\x8f\xf0\x9f\x8e\x84\xf0\x9f\x94\x94'
p96
asS'2013_44'
p97
(lp98
S'some people go out of their way to make other people miserable its horriblee'
p99
aS'the answers are easy to find if you understand what questions to ask'
p100
aS'i wanna go to hawaii california italy paris and london \xe2\x9c\x88\xef\xb8\x8f\xf0\x9f\x9a\xa2\xf0\x9f\x97\xbc'
p101
aS'vacations gt'
p102
aS'emojis just make everything more interesting'
p103
aS'clock change tonight which means extra hour of sleep \xf0\x9f\x98\x8d\xf0\x9f\x98\x8d'
p104
aS'tbh why am i so amused by this'
p105
aS'staten island needs to invest in a chipotle asap'
p106
aS'i actually really like one directions new song'
p107
aS'when i get comfortable with people i start using them as pillows and foot rests when i get used as a pillow or foot rest i f\xe2\x80\xa6'
p108
aS'you complete me'
p109
aS'2014 is 2 months away thats crazy'
p110
aS'just another day'
p111
aS'awh thanks dan thankyou amp miss you too\xf0\x9f\x99\x88\xf0\x9f\x92\x9c'
p112
aS'happy birthday clarissa hope you had a great birthday miss you\xf0\x9f\x92\x97\xf0\x9f\x98\x9a'
p113
aS'you know someones your best friend when you have no serious pictures together'
p114
aS'\xf0\x9f\x8d\x82\xf0\x9f\x8d\x81november is here\xf0\x9f\x8d\x81\xf0\x9f\x8d\x82'
p115
aS'time to start the christmas list '
p116
aS'every single store is playing christmas music and i absolutely love it'
p117
aS'i swear october lasted like 5 minutes'
p118
aS'ill be a guest on this sunday at 9pm etpt on'
p119
aS'i love fridays so much'
p120
aS'hard work beats talent when talent doesnt work hard\xf0\x9f\x91\x8a'
p121
aS'the fact that my girls showed up at my house and got me to come trickortreating made my night love you girls soo much\xf0\x9f\x92\x95\xf0\x9f\x8e\x83\xf0\x9f\x91\xbb'
p122
aS'currently drowning in homework'
p123
aS'\xf0\x9f\x8e\x83\xf0\x9f\x91\xbb\xf0\x9f\x8e\x83\xf0\x9f\x91\xbb\xf0\x9f\x8e\x83\xf0\x9f\x91\xbb'
p124
aS'halloween was done right when we were kids'
p125
aS'i love how my teachers give me more homework today than on any other day'
p126
aS'it doesnt feel like halloween to me'
p127
aS'what an awesome halloween itll be in the city'
p128
asS'2013_45'
p129
(lp130
S'omg aw'
p131
aS'aww '
p132
aS'imagine that shirt st\xe2\x80\xa6'
p133
aS'awwwww'
p134
aS'awwh thats so cute i miss you all\xf0\x9f\x92\x95'
p135
aS'ready for a surprise'
p136
aS'big sweatshirts gt'
p137
aS'chipotle gt gt gt gt gt gt gt'
p138
aS'winter break needs to hurry up'
p139
aS'refreshing twitter just to hear that little pop sound tho'
p140
aS'report cards today\xf0\x9f\x93\x9a'
p141
aS'november is like the thursday of the year'
p142
aS'fuzzy socks gtgtgtgtgtgt'
p143
aS'always exhausted'
p144
aS'maroon 5\xf0\x9f\x98\x8d\xf0\x9f\x8e\xb6 band peopleschoice'
p145
aS'thank you fans for nominating us for favorite band at the peopleschoice awards'
p146
aS'its so early but so dark'
p147
aS'the monster is perfect eminemanrihanna'
p148
aS'how much does a hipster weigh an instagram'
p149
aS'days until thanksgiving\xf0\x9f\x8d\x97\xf0\x9f\x99\x8f 24 days christmas \xf0\x9f\x8e\x85\xf0\x9f\x8e\x81 51 days new years\xf0\x9f\x8d\xb7\xf0\x9f\x8e\x89 58 days valentine\xe2\x80\x99s \xf0\x9f\x92\x8f\xf0\x9f\x92\x97 102 days'
p150
asS'2012_45'
p151
(lp152
S'if you treat me right ill treat you better'
p153
aS'knowing youve made someone happy gt'
p154
aS'ryan gosling gtgtgt \xf0\x9f\x98\x8d\xf0\x9f\x98\x8d\xf0\x9f\x98\x8d\xf0\x9f\x98\x8d'
p155
aS'love winter cozzy sweaters and pjs with hot chocolate \xe2\x9c\xa8\xe2\x9d\x84\xe2\x9b\x84\xe2\x98\x95'
p156
aS'time to get out the big winter jackets the warm gloves and cozy scarfs\xe2\x9b\x84\xe2\x9d\x84'
p157
aS'good things come to those who wait but great things come to those who go after what they want'
p158
aS'it feels so late'
p159
aS'my handwriting depends on what pen im using notkidding'
p160
asS'2013_16'
p161
(lp162
S'frappaccinos gtgtgtgtgtgtgtgt'
p163
aS'music is everything to me'
p164
asS'2012_42'
p165
(lp166
S'snuggling on a cold day gtgtgt'
p167
aS'summer nights gt'
p168
aS'hot cocoa on a winter daygt'
p169
asS'2013_24'
p170
(lp171
S'i wanna go to the beach ugh'
p172
aS'according to a study spending money on experiences rather than material things will bring more enjoyment'
p173
aS'over thinking ruins happiness'
p174
aS'psychologists suggest that our brains find simple things beautiful'
p175
aS'regents are oveer\xf0\x9f\x8e\x89\xf0\x9f\x98\x8d'
p176
aS'i need a longer iphone charger \xf0\x9f\x98\x94'
p177
aS'dont stress over what it could have been chances are if it should have been it would of been'
p178
aS'prom tomorroww\xf0\x9f\x8e\x89'
p179
aS'never give up hope maybe it is all you have but it will definitely lead you to all that you want'
p180
aS'late night conversations gt gt gt'
p181
aS'believe it or not theres someone out there waiting to meet someone just like you'
p182
aS'got nails done for prom with my girls soexcited'
p183
asS'2013_25'
p184
(lp185
S'things that make me happy  lazy weekends  family amp friends  food  music  cute texts  concert tickets  su\xe2\x80\xa6'
p186
asS'2013_27'
p187
(lp188
S'so excited for the hondacivictour w this summer tickets are on sale today  '
p189
aS'thank you for nominating lovesomebody for choice group single vote here'
p190
asS'2013_20'
p191
(lp192
S'thankyouu bri\xe2\x9d\xa4'
p193
aS'great job in the show tonight so proud of u '
p194
asS'2013_21'
p195
(lp196
S'i love going on vacation'
p197
aS'cold side of the pillow gt'
p198
aS'i love the beach\xf0\x9f\x8c\x8a\xe2\x98\x80'
p199
aS'have a great time ella \xf0\x9f\x92\x9c'
p200
aS'just do whatever makes you happy'
p201
aS'we won the hot 100 award tonight at the music awards thank you everybody for the support'
p202
aS'coach and open up the show performing lovesomebody watch the new video m5o\xe2\x80\xa6'
p203
asS'2013_22'
p204
(lp205
S'oh gosh phoebe i think i caught your cold you mean you stole it'
p206
aS'leos live for love and appreciation'
p207
aS'season 2 is going to be even better than season 1 was chicagofire returns this fall on tuesdays at 109c'
p208
aS'youre never too old to be young \xe2\x80\x93snow white'
p209
aS'i really love my friends so happy lately '
p210
aS'eminem lady gaga megan fox liam payne taylor swift justin bieber miley cyrus and demi lovato were all bullied when they wer\xe2\x80\xa6'
p211
aS'i have the best group of girls as bestfriends \xf0\x9f\x98\x9c\xf0\x9f\x91\xaf\xf0\x9f\x92\x9e'
p212
aS'what team wildcats\xf0\x9f\x8f\x80'
p213
aS'i wish my eyes could take pictures'
p214
asS'2013_23'
p215
(lp216
S'music can change a persons perception of the world'
p217
aS'stay loyal stay faithful stay true'
p218
aS'life is a journey to be experienced not a problem to be solved \xe2\x80\x93pooh'
p219
aS'leo women need a partner who is passionate about everything in life and who strives for the best  because she does too'
p220
aS'dream the biggest dreams you can imagine because nothing will stop you except yourself'
p221
asS'2012_49'
p222
(lp223
S'what makes you so beautiful is that you dont know how beautiful you are to me'
p224
aS'i have a lovehate relationship with my hair'
p225
aS'i really love when people remember little things'
p226
aS'the most heartbreaking thing ever is when a dog is hurt omg awh \xf0\x9f\x92\x94\xf0\x9f\x98\xa5'
p227
asS'2012_39'
p228
(lp229
S'one day youll be treated the way you treat other people and youll realize how it feels'
p230
aS'some people just dont know how good they have it'
p231
asS'2013_29'
p232
(lp233
S'for one moment in time you were the youngest person in the world'
p234
aS'i want to go on a shopping trip where i am the only one in the shopping mall and everything i want is free'
p235
aS'will be at 1220pet to talk iheartradio music festival amp more listen live'
p236
aS'forever is a long time make sure to spend it with someone that makes you laugh'
p237
asS'2012_48'
p238
(lp239
S'watching elf \xf0\x9f\x8e\xa5'
p240
asS'2013_5'
p241
(lp242
S'i dont think i can wait any longer for summer \xf0\x9f\x91\x99\xe2\x98\x80\xf0\x9f\x8c\xba'
p243
aS'less then 3hours believeacoustic'
p244
asS'2013_4'
p245
(lp246
S'i cant wait until ralphs ices opens up again\xf0\x9f\x8d\xa8\xf0\x9f\x8d\xa7\xf0\x9f\x98\x8d'
p247
asS'2013_7'
p248
(lp249
S'you were amazing tonight best concert ever love you all\xf0\x9f\x98\x8d\xf0\x9f\x92\x9c'
p250
aS' xperiencemaroon5 super excited to be here with cant wait to c my baby'
p251
aS'im obsessed with stay by rihanna'
p252
aS'ok msglets dance'
p253
aS'omg my tweet was on the screen xperiencemaroon5'
p254
aS'so excited for this concert xperiencemaroon5'
p255
aS'so excited to see you tonight at msg \xf0\x9f\x92\x99\xf0\x9f\x98\x98'
p256
asS'2013_6'
p257
(lp258
S'id wanna be able to read peoples mind for one day'
p259
aS'and all of the sudden this is a game'
p260
aS'super bowl \xf0\x9f\x8f\x88\xf0\x9f\x8f\x86'
p261
asS'2013_1'
p262
(lp263
S'i miss the beach \xf0\x9f\x8c\xb4\xf0\x9f\x8c\x9e\xf0\x9f\x8c\x8a'
p264
asS'2013_3'
p265
(lp266
S'thankyouu\xf0\x9f\x90\xa8\xf0\x9f\x92\x95'
p267
aS'made honors in hill and villa \xf0\x9f\x90\xa8'
p268
asS'2013_2'
p269
(lp270
S'i love shopping'
p271
asS'2013_9'
p272
(lp273
S'i cant live a day without music'
p274
aS'thanks for all the birthday love'
p275
asS'2013_8'
p276
(lp277
S'118 days until summer\xe2\x98\x80\xf0\x9f\x91\x99\xf0\x9f\x8c\xb4'
p278
aS'life is so short do what makes you happy'
p279
aS'i really just cant wait for summer\xe2\x98\x80'
p280
aS'i want a pina colada \xf0\x9f\x92\x9b'
p281
asS'2012_46'
p282
(lp283
S'i love big sweaters \xf0\x9f\x98\x8d\xf0\x9f\x98\x8d\xf0\x9f\x91\x8b'
p284
aS'when there is nothing else to do just smile'
p285
aS'confidence is the key if you don\xe2\x80\x99t believe in yourself then nobody will'
p286
aS'wake me up when its christmas \xf0\x9f\x8e\x84\xf0\x9f\x8e\x85'
p287
asS'2013_37'
p288
(lp289
S'to be honest this year kinda flew by fast'
p290
aS'over thinking causes the same stress on the human mind as someone suffering from chronic depression'
p291
aS'it takes me 10 seconds to write my text and 3 minutes to pick an emoji that i think goes with it'
p292
aS'adam levine'
p293
aS'i hate the cold but i love my sweatshirts and uggs\xf0\x9f\x8d\x82'
p294
aS'i love music so much omg'
p295
aS'it would mean the world to me if you followed me\xe2\x9d\xa4'
p296
aS'life is not about finding yourself life is about creating yourself'
p297
aS'leo summer hair gets lighter skin gets darker water gets warmer music gets louder nights get longer life gets better'
p298
asS'2013_10'
p299
(lp300
S'waking up and finding out you have a snow day gtgt'
p301
asS'2013_35'
p302
(lp303
S'cannot believe im this close touching maroon 5s stage\xf0\x9f\x98\x8d hondacivictour'
p304
aS'beginnings are usually scary and endings are usually sad  but its everything in between that makes it worth living'
p305
aS'true friendship isnt being inseparable its being separated and nothing changes'
p306
aS'dear youtube i will always \xe2\x80\x9cskip this ad'
p307
aS'you only fail when you stop trying'
p308
aS'the vmas seriously used to be so awesome'
p309
asS'2013_34'
p310
(lp311
S'i miss my bestfriend'
p312
aS'never forget who was with you from the start'
p313
aS'the simple things in life are always the most beautiful'
p314
aS'dream it believe it achieve it'
p315
aS'its not a true car ride unless blurred lines comes on the radio at least 74 times'
p316
aS'anyone who doesn\xe2\x80\x99t like musicals because \xe2\x80\x9cno one just starts singing in dancing in real life\xe2\x80\x9d has clearly never visited\xe2\x80\xa6'
p317
aS'nothing good comes out of being a follower'
p318
aS'i wish some nights lasted forever'
p319
aS'this summer lasted a good 30 seconds'
p320
aS'confessyourunpopularopinion reading is fun'
p321
aS'we should have wifi bracelets so you can wear them anywhere and have a wifi connection'
p322
aS'family is everything'
p323
aS'i cant wear socks to bed i always kick them off'
p324
aS'messy buns are harder to do than you think'
p325
aS'people who are funny without being rude are my favorite kinds of people'
p326
aS'if your mom cant find it its gone forever'
p327
aS'i seriously think about my future everyday '
p328
asS'2013_33'
p329
(lp330
S'i love summer but i cannot wait to wear sweaters this fall\xf0\x9f\x98\x8d'
p331
aS'breaking bad starts up again tonight at the same time we go on stage at jones beach if youre in the crowd dont yell out\xe2\x80\xa6'
p332
aS'drum roll wake up call for and the hondacivictour  whos going tonight'
p333
asS'2013_32'
p334
(lp335
S'i want dip n dots \xf0\x9f\x98\xad'
p336
asS'2013_17'
p337
(lp338
S'i love falling asleep to music it just calms me down relieves my stress'
p339
aS'starbucks is the key to my heart'
p340
aS'familys everything to me'
p341
aS'new york city gtgtgtgt'
p342
aS'someone says something me breaks into a song with a word they just said'
p343
aS'vanilla bean frap from starbucks gtgtgtgtgtgtgtgtgtgtgtgtgtgtgtgtgtgtgt'
p344
aS'sending love to everyone in boston'
p345
asS'2013_30'
p346
(lp347
S'leo is the ultimate friend'
p348
aS'beauty gets the eyes but personality gets attention'
p349
aS'what comes easy won\xe2\x80\x99t last long and what lasts long won\xe2\x80\x99t come easy'
p350
asS'2012_34'
p351
(lp352
S'late summer night with friendsgt'
p353
aS'be great'
p354
asS'2013_39'
p355
(lp356
S'2 yrs ago today i signed a record deal with 222 records shits been pretty rad since then id say eh'
p357
aS'starbucksgtgtgtgtgtgt'
p358
aS'so much goes on behind closed doors people who seem happy may not be always be nice to people you never know what t\xe2\x80\xa6'
p359
aS'leo has a strong need to express their inner loving nature'
p360
aS'i saw you twice on the honda civic tour  hope to see you again soon\xf0\x9f\x98\x8d'
p361
aS'thanks gf \xf0\x9f\x98\x9c\xf0\x9f\x98\x8d'
p362
aS'youre amazing\xf0\x9f\x92\x93'
p363
aS'try to create a culture of positivity and inspiration everywhere you go smile be kind laugh and love live well live \xe2\x80\xa6'
p364
aS'the fear i have of halloween is pathetic yet i cannot wait to dress up \xf0\x9f\x8e\x83\xf0\x9f\x91\xbb'
p365
aS'a leo makes decisions based on their future not on their present'
p366
aS'i really want my video yearbook\xf0\x9f\x92\x97'
p367
aS'new york city'
p368
aS'every teacher before drawing something im not an artist'
p369
aS'the calendar on the new iphone software is not amazing'
p370
aS'love my fans so much'
p371
aS'as a leo you are or can be utterly ruthless at getting what you want when obstacles stand in your way'
p372
aS'is7 is hands down the best school in the entire world'
p373
aS'i want my video yearbook'
p374
aS'thanks to everyone who has been out at the shows this has honestly been one of my favorite tours cant believe it ke\xe2\x80\xa6'
p375
aS'when claps the whole world claps with him or at least the audience voicereunited'
p376
aS'you got served son voicereunited'
p377
aS'weekends just go by too fast'
p378
aS'an emmy tonight and the season 5 premiere tomorrow this is the best week ever'
p379
asS'2013_38'
p380
(lp381
S'omg'
p382
aS'i unabashedly love writing and performing pop music for both myself and everyone around me thats it it doesnt need any \xe2\x80\xa6'
p383
aS'this week went by soooo fast woah'
p384
aS'the difference between like love and in love is the same as for now for a while and forever'
p385
aS'i have lost 18946674 bobby pins in my whole entire life'
p386
aS'maybe the sun doesn\xe2\x80\x99t want to be called \xe2\x80\x9chot\xe2\x80\x9d maybe it wants to be called \xe2\x80\x9cbeautiful\xe2\x80\x9d think before you speak'
p387
aS'dragging my bestfriend to the tottenville game tomorrow '
p388
aS'the only person that can make you happy is yourself'
p389
aS'okay'
p390
aS'if leo believe in something they live up to it'
p391
aS'starbucks\xe2\x98\x95'
p392
aS'ive been loving beanies lately\xe2\x98\x85'
p393
asS'2013_11'
p394
(lp395
S'driving in the summer with the windows down music up gtgtgt'
p396
asS'2013_13'
p397
(lp398
S'you are braver than you believe stronger than you seem smarter than you think and twice as beautiful as youd ever '
p399
aS'im pretty sure its gonna be way too hot this summer for justin and jay z to wear suits and ties thats more of an ind '
p400
aS'i know its too early to call itbut im calling it teamadam wins'
p401
aS'a beautiful mind is a terrible thing to waste'
p402
aS'i cant wait until its over 80 degrees'
p403
asS'2013_12'
p404
(lp405
S'laughing gtgtgtgtgt'
p406
aS'looks like summer but feels like winter'
p407
aS'what a wonderful winter were having this spring'
p408
aS'always take the high road'
p409
aS'yeah because all i ever wonder is why havent they made a cool ranch dorito taco keeps me up most nights'
p410
aS'staying out all night to watch the sunrise gtgtgt'
p411
aS'i thought the weather was supposed to be nice in march'
p412
aS'infinity scarves gt'
p413
asS'2013_15'
p414
(lp415
S'editing'
p416
asS'2012_38'
p417
(lp418
S'dont know what i would do without music \xf0\x9f\x8e\xb6\xf0\x9f\x8e\xb5'
p419
asS'2013_14'
p420
(lp421
S'if its meant to be it will be'
p422
aS'count your blessings and not your troubles'
p423
as.