(dp0
S'2013_42'
p1
(lp2
S'delusional ams these days'
p3
aS'today stats 14 followers 9 unfollowers and followed 27 people via'
p4
aS'whos still awake'
p5
aS'found you guys lol'
p6
aS'mean'
p7
aS'i can tell you have a nice ass lol'
p8
aS'ii'
p9
aS'killing myself'
p10
aS'inv'
p11
aS'hi '
p12
aS'ayyeeee '
p13
aS''
p14
aS'15 away from 300 some1 pwease'
p15
aS'i didnt get an invite wutttt lol invite me now'
p16
ag14
aS'are you done with ur game yet duo'
p17
aS'i just seen this you didnt put meh in the'
p18
aS'fav for a rate '
p19
ag14
aS'bottom am'
p20
aS'alright im done playing 8s leggo'
p21
aS'im still waiting on the add bruh i only dropped 30 '
p22
aS'lmao stop you are awful'
p23
aS'add me on xbox bby'
p24
aS'lol'
p25
aS'just invite me when you want to'
p26
aS'me bby '
p27
aS'wanna play something im bored'
p28
aS'who can i add i want 100 friends'
p29
aS'goat'
p30
aS'still awake '
p31
aS'or talk in a party and chill or play pubs lmk'
p32
aS'who wants to play these 8s are boring'
p33
aS'i need a team going into ghosts whos going to be the duo'
p34
aS'follow this cutie'
p35
aS'optic fav for unite'
p36
aS'8s add mutiny brim'
p37
aS'inv people for 8s babe'
p38
aS'im bout to eat get on in 10'
p39
aS'who wants to play pubs'
p40
aS'damnn shawty dat ass '
p41
aS'leggo duo'
p42
aS'join my party'
p43
aS'im playing like shit today i need to start playing smarter and more aggressive hopefully i dont get judged for that game'
p44
aS'hiii'
p45
aS'8s add mutiny brim'
p46
aS'no inv me to a party'
p47
aS'where are you'
p48
aS'we dont talk you should follow me so i can dm you my gt '
p49
aS'hold up let me finish sexting'
p50
aS'done'
p51
aS'thats what you get for unfollowing me ricky'
p52
aS'beast mode'
p53
aS'holy fucking shit is the goat no questuons asked'
p54
aS'i did'
p55
aS'nevremind now it does can i dm you '
p56
aS'i didnt get it babe'
p57
aS'can i get a follow pwease '
p58
aS'perfect body '
p59
aS'follow so we can take this to the dms baby '
p60
aS'you should follow me '
p61
aS'hi'
p62
aS'lmk'
p63
aS'who do you guys think the hottest e girl is'
p64
aS'luv me'
p65
aS'you must have ass to date me'
p66
aS'follow back '
p67
aS'you got ass'
p68
aS'hiiiiii'
p69
aS'red headsgtgt'
p70
aS'i love your tattoos'
p71
aS'add me'
p72
aS'is trying to get it in with him lol'
p73
aS'quote with a selfie'
p74
aS'do you play xbox '
p75
aS'holy fuck you are perfect'
p76
aS'hi'
p77
aS'it can be anything you name it bby'
p78
aS'tell me what impresses you and ill do it '
p79
aS'no follow yet  lol'
p80
aS'doneeeee'
p81
aS'my nigga guard'
p82
aS'what the fuck nv'
p83
aS'i can impress you in the dms bby '
p84
aS'you are beautiful'
p85
aS'how do i do that bby '
p86
aS'hi'
p87
aS'you are hot '
p88
aS'can i get a follow back bby '
p89
aS'done'
p90
aS'done'
p91
aS'done'
p92
aS'who wants to be my sweetest day girllt3'
p93
aS'lol did he ever end up hittint you off with his shitty shell booter lol'
p94
aS'who wants to play favvvvv this tweet so i know'
p95
aS'where in ny do you live'
p96
aS'ugh you a gorgeous'
p97
aS'your ass gtgt'
p98
aS'i want everyone to retweet this now'
p99
aS'i already follow can i still have one lol'
p100
aS'follow back '
p101
aS'follow shes is gorgeous and is one from 3500 gogogo '
p102
aS'check dms '
p103
aS'i like how you support breast cancer awareness'
p104
aS'can i get a follow bby '
p105
aS'you are fucking hot'
p106
aS'someone push me off a cliff'
p107
aS'you should add me on xbox '
p108
aS'roses can still get the d '
p109
aS'that tweet was so long ago bby '
p110
aS'today stats 6 followers one unfollower and followed 24 people via'
p111
aS'gn'
p112
aS'good night '
p113
aS'nahhh im bout to go to bed'
p114
aS'i bet you no one has a better fantasy team then i do lol'
p115
aS'hbu'
p116
aS'eating chilling hub'
p117
aS'you need jesus'
p118
aS'smaller stupid autocorrect '
p119
aS'goonjar makin moves '
p120
aS'you mad because mah dick bigguh then urs niqqa'
p121
aS'done with life'
p122
aS'my lil cuz terio'
p123
aS'see those are times i can let go'
p124
aS'why are you being mean to me nexxx'
p125
aS'bye niqqa'
p126
aS'im very complemental today lol'
p127
aS'shes tellin you to back up shes mine'
p128
aS'roasted'
p129
aS'who lol'
p130
aS'im being serious'
p131
aS'hi you are gorgeous '
p132
aS'rock the pacgoat gt tomorrow man lol'
p133
aS'my last retweetgtgt oomf'
p134
aS'mhm'
p135
aS'you are fucking perfect'
p136
aS'who wants to be waken up in the morning with a good morning tweet '
p137
aS'good night babes im hungry as fuckkkk and i need to sleep lol'
p138
aS'heyy babe'
p139
aS'why did this nigga block me wut'
p140
aS'okay ill tweet you tomorrow bby '
p141
aS'win for me tomorrow okay babe '
p142
aS'how about add me on xbox then we can settle this astro thing another time'
p143
aS'hahahahahah perfect screen shot'
p144
aS'someone sub tweet me something you think about me and if i dont see it me'
p145
aS'how about buy yourself astros then buy me some then add me on xbox '
p146
aS'help the community bby '
p147
aS'whats the point of arguing over twitter and you dont like someone block them holy fuck'
p148
aS'buy me red ones and ill luv you foreverrrrr '
p149
aS'watch you fav your own tweet nakedlife'
p150
aS'what color lol'
p151
aS'idk how to bot followers'
p152
aS'stoppppp lol'
p153
aS'you fucking botted that lol'
p154
aS'you will recieve candy if you do '
p155
aS'someone get me to 300 pwease'
p156
aS'i get it'
p157
aS'someone blow up my interactions k thanks'
p158
aS'lol have of these ams get no ass and grind the game all day and still suck'
p159
aS'yo who made your header babe'
p160
aS'who wants to play league playyyyyy'
p161
aS'lol ryno probably hits with a shitty shell booter lol'
p162
aS'thanks lol'
p163
aS'lol rynos getting unfollowed whats his twitter'
p164
aS'what the fuck is his twitter so i can unfollow him lmao cant find it'
p165
aS'kill your self'
p166
aS'rynos getting the unfollow lol'
p167
aS'i need more warriors on my friends list hm who should i add'
p168
aS'your online right now wut a dumb am lol'
p169
aS'by the way you never added me babe'
p170
aS'bro i respect you a lot man you are a very talented player keep it up'
p171
aS'still awake'
p172
aS'holy fuck im about to throw up why did you post that'
p173
aS'im probably the nicest am lol'
p174
aS'its time'
p175
aS'how old are you'
p176
aS' life life life '
p177
aS'someone volunteer to be mah friend lonely life'
p178
aS'join party'
p179
aS'k'
p180
aS'im boredddd'
p181
aS'done with life'
p182
aS'someone fun come play league play or pubs'
p183
aS'can i have a rematch tomorrow goat'
p184
aS'i let you win '
p185
aS'my b haha'
p186
aS'join girl'
p187
aS'obvssssss lol hold up im ii you'
p188
aS'what are we playingggggggggg'
p189
aS'whats your gt'
p190
aS'i cant find the ass '
p191
aS'dumb sosh'
p192
aS'you declined it killing myself bye'
p193
aS'accept my friend request it took time to send that shit'
p194
aS'im sorry but if you are pretty but you dont have a nice ass we just cant date im sorry'
p195
aS'turn upppppp'
p196
aS'underage egirls be like scumpii \xf0\x9f\x98\x89\xf0\x9f\x98\x8d\xf0\x9f\x98\x98\xf0\x9f\x98\xad\xf0\x9f\x94\xa5\xf0\x9f\x91\x8c\xf0\x9f\x92\x8f\xf0\x9f\x92\x9b\xf0\x9f\x92\x99\xf0\x9f\x92\x9c\xf0\x9f\x92\x9a\xe2\x9d\xa4\xef\xb8\x8f\xf0\x9f\x92\x97\xf0\x9f\x92\x93\xf0\x9f\x92\x95\xf0\x9f\x92\x96\xf0\x9f\x92\x9e\xf0\x9f\x92\x98\xf0\x9f\x92\x8b\xf0\x9f\x92\x8d'
p197
aS'sex'
p198
aS'like damnnn she fine'
p199
aS'hiiii'
p200
aS'go retweet if you think you are sexyyyyy forreal'
p201
aS'i would roast kids back on mw2 like kid look at your hairline it looks like the rocky mountains and lebron james had a baby im done kid'
p202
aS'i remember when i always made ahirline jokes lol'
p203
aS'damn bby you 0 thats how cute you are '
p204
aS'top 5 cutest gamers'
p205
aS'fuck i missed wcw kms'
p206
aS'fuck imessage'
p207
aS'thank you'
p208
aS'dead'
p209
aS'i being so serious right now favorite this tweet if you dont respect me and the person that i am like this is a dead ass tweet'
p210
aS'i didnt know you made a new twitter lol'
p211
aS'that kid is ugly as fuck lol'
p212
aS'im following your whole squad lol'
p213
aS'kate uptongtgtgtgt'
p214
aS'preach man i fucking respect you so much'
p215
aS'the event is for fucking cancer jesus christ umgstrong'
p216
aS'okay im freaked the fuck out the girl im having problems with right now her name is just randomly on my screen and it wont come of wut'
p217
aS'sit on my lap pls'
p218
aS'kinda scared there you just tweeted swag kms'
p219
aS'and i know just what you want poetic justice put it in a song alright'
p220
aS'scumbags'
p221
aS'theres a difference when someone is going through a tough time and you say something or you dont say anything at all'
p222
aS'i hope thanks i needed that'
p223
aS'rt if u crid'
p224
aS'to me and shes just beautiful and i love talking to her but i dont want to lose her'
p225
aS'i know im young but she is my everything you can say that im to young for love or whatever but shes literally perfect'
p226
aS'frank ocean when you are going through tough timesgtgt'
p227
aS'its hard to solve this situation'
p228
aS'i know its not but i was just saying it because its relevant to whats going on and i just cant keep my head up anymore'
p229
aS'haha sorry im just not in the right state of mind right now and i dont know what to do anymore'
p230
aS'is that better haha'
p231
aS'i would never cheat on anyone im with if im yours im only yours'
p232
aS'im sorry hold up'
p233
aS'this is when times are tough you just gotta keep moving'
p234
aS'why cant she just be mine forever ugh'
p235
aS'iim sorry im going through a tough time with this girl and i liked that tweet'
p236
aS'im srryyyyy it looked cool i told you im turnttttttttttt lol some1 save meh'
p237
aS'hahahahahahah pls dnt roast'
p238
aS'no lmfao you just took it nigga lolololol'
p239
aS'lmao im playing i did dnt roast'
p240
aS'no'
p241
aS'really  you look older'
p242
aS'srry guys im turntttttt if im being outragous over twittahhhh tel meh'
p243
aS'how old are you'
p244
aS'fuck wit me and get bodied'
p245
aS'roasted'
p246
aS'hi'
p247
aS'rip umg stream you lasted a whole 4 hours'
p248
aS'babeeee play gta wiff me im bored'
p249
aS'd8 meh'
p250
aS'be right there'
p251
aS'fav my last selfie if cutie c'
p252
aS'are you in dallas bby'
p253
aS'who wants to play 8s or league lovesss'
p254
aS'you should follow me k '
p255
aS'lmk'
p256
aS'color day for school '
p257
aS'today stats 6 followers 6 unfollowers and followed 8 people via'
p258
aS'why you unfollow me'
p259
aS'you unfollowed me'
p260
aS'watching cute couples on youtube makes me want a girlfriend ladies just so you know i will treat you like a princess forreal'
p261
aS'okay bae'
p262
aS'luh yew'
p263
aS'when are we playing babe'
p264
aS'hi duo'
p265
aS'is the goat'
p266
aS'drew brees'
p267
aS'saints'
p268
aS'meh'
p269
aS'define big dick'
p270
aS'what grade are you in'
p271
aS'cutayyyyyy'
p272
aS'the fucking kids that play 200 dollars a month for there internet are making the good kids quit fucking stupid i blame vondehaar'
p273
aS'broo noooo'
p274
aS'fav my last pic if im some what attractive someone pls boost up my self confidence'
p275
aS'girls always win no matter what'
p276
aS'dm '
p277
aS'you are very pretty'
p278
aS'do you want the fan sign'
p279
aS'actually i might do fan signs who wants there name on my abs'
p280
aS'go fav this im bored'
p281
aS'you are pretty'
p282
aS'im jealous'
p283
aS'was it lol dont leave meh hanging'
p284
aS'for what'
p285
aS'cant tell if being sarcastic lol'
p286
aS'not at all lol she favorited my tweet for a compliment whattt'
p287
aS'lt3'
p288
aS'you literally have a perfect body and you are really pretty and you have a nice ass '
p289
aS'theres honestly a lot i can say but you are beautiful and i love your laughgtgt and your eyes are pretty'
p290
aS'your hands are so smooth like a babies butt'
p291
aS'well you never followed me but you should now lol'
p292
aS'you can make someones day by just doing something little but no one ever does something for me'
p293
aS'haha you are welcome bby you are probably like one of the prettiest gamers '
p294
aS'is it bad that i have an 11 in living environment lol'
p295
aS'mah mans politic i love you man the old days playing league play and just hit the other team offlinegtgt lets play soon hmu babe'
p296
aS'yes thats not being prude trust me your first time should be special with someone you love when your ready'
p297
aS'hoe shut the fuck up'
p298
aS'doing honest opinions dm me numbers for an honest opinion or fav and ill tweet it at you gogogogogo'
p299
aS'dont be mean maybe she jost dosnt want to follow you lmfao'
p300
aS'tamaleeeeee tamale tamale tamale'
p301
aS'well what if its like you have dated that person for a while'
p302
aS'hahahahah you are like gorgeous i would never think you were prude'
p303
aS'hahahahaha but i didnt get my follow killing myself k'
p304
aS'how prude lol to the point where you like dont want to kiss a guy or like make out'
p305
aS'omg same lol'
p306
aS'liessssssssssssss what grade are you in'
p307
aS'you are so welcome babe '
p308
aS'i wish narnia was on a gps i wish rihanna was dtf'
p309
aS'my bitch suck she a vacuum fuck her in the ass every time im in a bad mood'
p310
aS'damn shawty bad '
p311
aS'you think all egirls are prude as fuck besides the ones that have boyfriends'
p312
aS'bitch your ass flatter than the back of my head'
p313
aS'if you have friends you should probably retweet or fav this k bye'
p314
aS'you can get it you can get it you can get'
p315
aS'oh yesssss text me and see if i was lying or not '
p316
aS'i text back '
p317
aS'yeah bae'
p318
aS'heyy beautifulllll '
p319
aS'that was fucking sweet'
p320
aS'hi'
p321
aS'hold up i know this nigga did not just say jumps bad ohh my'
p322
aS'girl you twerk twerk that kitty girl make it purr'
p323
aS'wanna sing it with me bby '
p324
aS'i know right haha i love big sean and lil wayne so them combined music porn'
p325
aS'why you let these hoes tear what we had right apart'
p326
aS'when you said it was over you shot right through my heart lt3'
p327
aS'you are fucking gorgeous'
p328
aS'shake your bubble butt yeah'
p329
aS'youre not following me'
p330
aS'can i get a dm '
p331
aS'you have a nice ass'
p332
aS'hi'
p333
aS'girls with good voicesgtgtgt omg date me'
p334
aS'is that you '
p335
aS'lol'
p336
aS'i said bitches'
p337
aS'today stats 11 followers 6 unfollowers and followed 7 people via'
p338
aS'youd get smacked'
p339
aS'do you have a phone'
p340
ag180
aS'why'
p341
ag14
aS'school selfie bitches'
p342
aS'who wants to text during this boring school day'
p343
aS'haha oh boi get some of your friends that will carry too lmao like tell him you will give him a bootee if he plays lol'
p344
aS'lol modem hit man was the shit to bad it got banned lol love you bud lets play today like tl or somethinglt3 go get your top ams'
p345
aS'rt for an honest opinion from poli '
p346
aS'someone blow up my interactions of im a cutie lol '
p347
aS'that nigga bitching yesterday was hella funny he woulda got slept if he did something'
p348
aS'good morning babes'
p349
aS'head gt'
p350
aS'hahaha xoxo'
p351
aS'its almost as beautiful as your face boo xoxoxo'
p352
aS'thanks bby'
p353
aS'ofwgkta'
p354
aS'youd get slept nigga foh'
p355
aS'if i date you i will tell you youre beautiful every day'
p356
aS'i know lol'
p357
aS'i honestly did not mean to tweet that lol'
p358
aS'still awake and beautiful '
p359
aS'ili'
p360
aS'dm babe'
p361
aS'shaniiuh babe'
p362
aS'can i dm'
p363
aS'james harden lol'
p364
aS'8s add mutiny brim'
p365
aS'cute'
p366
aS'dont know what to do'
p367
aS'hit him with a jab and he was done lol everyone was like ooohhhhhh worldstar'
p368
aS'who the fuck are you nigga stop talking'
p369
aS'i gotchu'
p370
aS'feeling like a dick is bad '
p371
ag14
ag14
aS'omg did anyone hear the eminem diss to kendrick llamar rt if you didnt hear it and ill link you em still got it boi'
p372
aS'hoe shut the fuck up'
p373
aS'kk'
p374
aS'you know my gt'
p375
aS'add me on box mah nigga we gotta play some time or some shit'
p376
aS'nigga straight up woulda got slept lol'
p377
aS'youre a little late lol'
p378
aS'i love when people d ride lol like youre calling me a fan or d rider but you the one d riding lol'
p379
aS'oh mah nigga what you been up to brah'
p380
aS'lol everybody around the city think the g i would love for a nigga to come where i live lol people dont care around where i live'
p381
aS'ohh kill em'
p382
aS'what was your gt'
p383
aS'fans lol'
p384
aS'do you know me'
p385
aS'blunt u suk breh pls stahp'
p386
aS'dmmmmm '
p387
ag14
aS'icn is fucking stupid look at this nigga'
p388
aS'dblock'
p389
aS'brah'
p390
aS'yeah'
p391
aS'no bro apparently rosters get locked now and it wont let me invite anyone for 2nd round so im fuckked'
p392
aS'talking shit get you head popped'
p393
aS'icn is fucking stupid bro'
p394
aS'fucking icn is saying that rosters locked and he wont let me invite anyone else shits stupid'
p395
aS'i have 1 maybe two add me'
p396
aS'nigga get slept'
p397
aS'bro you wanna do the icm its second round'
p398
aS'me'
p399
aS'2nd round'
p400
aS'i need people hurry anyone for the icn anyone'
p401
aS'bruh do the icn with me hurry its second round i need youuu'
p402
aS'nigga really thinks my tweets are about him lol'
p403
aS'brah my tweets arent about you what are you saying mah nigga get on box brah'
p404
aS'ill get 2'
p405
aS'add me on live'
p406
aS'username'
p407
aS'nah im playing lol thanks for reminding me i forgot'
p408
aS'need 3 for the icn right now 2nd round hurry'
p409
aS'split an o in half and now its a parenthesis'
p410
aS'this nigga almost got the hands forreal'
p411
aS'caio what is you saying brah why you getting so reckless the fuck'
p412
aS'suck my dick niqqa '
p413
aS'delusional ams'
p414
aS'i fucked your bitch pussy'
p415
aS'i got my eyes on you '
p416
aS'why not'
p417
aS'id rather have weed'
p418
aS'i already faved it do i still get a cup cake bby '
p419
aS'duolt3'
p420
aS'my b bro lol i fell asleep'
p421
aS'cigarettes are fucking scummy'
p422
aS'today stats 32 followers 8 unfollowers and followed 45 people via'
p423
aS'ask me something if youre not gay rt'
p424
aS'girls that dont send picslt'
p425
aS'im in the eating out mood right now '
p426
aS'better charge your phone'
p427
aS'freesidney'
p428
aS'do you give bomb head bby'
p429
aS'these hoes take my money and i take there virginity'
p430
aS'down'
p431
aS'hmu'
p432
aS'right like at least sit on my face'
p433
aS'can i dm you bby '
p434
aS'well i know girls that if youre making out with them that dont let you grab ass or finger them like wut'
p435
aS'i think and ok'
p436
aS'do you like ass grabbing '
p437
aS'really thats cool soo anyways when we scrimming or at least playing together babeb'
p438
aS'im pretty sure its that kid that joined the party when you left it has to be'
p439
aS'i live in buffalo lmao'
p440
aS'im getting fucking fried by your friend lmao'
p441
aS'do you really where'
p442
aS'starts friday'
p443
aS'thats like impossible for me seeing that i live in new york'
p444
aS'god damn bro lol'
p445
aS'when is dallas'
p446
aS'thrust brim i can feel it'
p447
aS'as a team'
p448
aS'idk my xbox just froze but get on babe'
p449
aS'whats your name'
p450
aS'fucking love that kid'
p451
aS'im a sophomore lol this shits crazy you know taylor windsor or boron windsor'
p452
aS'get back on bro'
p453
aS'i know right what grade are you in'
p454
aS'i go to west lmfao'
p455
aS'killing myself'
p456
aS'holy fuck same what school do you go to'
p457
aS'are you an e girl'
p458
aS'lol i just say the vine of you at the bills game thats why haha i was like shittttttt a fellow buffalo friend lol'
p459
aS'8s msg mutiny brim'
p460
aS'same that sounded creepy as fuck tho lol'
p461
aS'do you live in buffalo'
p462
aS'8s or league anyone'
p463
aS'me brooo pls'
p464
aS'tweet please im bored'
p465
aS'kittenful c'
p466
aS'everyone ask me something pussyyyyyyyy'
p467
ag180
aS'follow me beautiful '
p468
aS'you aint losing me bby'
p469
aS'57'
p470
aS'done'
p471
aS'im sorry cutie '
p472
aS'whats wrong bby'
p473
aS'hii'
p474
aS'youre fuckin perfect fuck me'
p475
aS'speedtest warrior'
p476
aS'lmk'
p477
aS'2 pros just unfollowed me wut kms'
p478
aS'why did you unfollow me '
p479
aS'why did you block me'
p480
aS'who can i talk to'
p481
aS'hi bby'
p482
aS'scumbagggggggggggggggg '
p483
aS'honestly when it comes to women im probably the best boyfriend in this community'
p484
aS'what girls want to help me work out '
p485
aS'you have big tits lol '
p486
aS'see gab she wants it'
p487
aS'im playing league to get warmed up and just trying to relax mentally for a bit a lot of shit going on ill play later k'
p488
ag14
aS'2 hours later'
p489
aS'i have cheezitz'
p490
aS'come play league with me im bored'
p491
aS'sorry i stole her gabgoat'
p492
aS'lets be besties'
p493
aS'talk to me they do call me the pussy pounda\xe2\x80\x9d dead'
p494
aS'i only follow cute girls sorry'
p495
aS'this is when i need a girls advice only guys help me with serious stuff its annoying i just need a girl i can talk to about these things'
p496
aS'meeeee'
p497
aS'fucking perfecttttt explains me lol'
p498
aS'heyy'
p499
aS'i got cheezitz bitchez'
p500
aS'hi'
p501
aS'lol'
p502
aS'i will cuddle the fuck out of you'
p503
aS'no lol'
p504
aS'you are a horrible person'
p505
aS'someone come give me a massage and cuddle and watch a movie all day  singleprobs'
p506
aS'im really in need for a massage'
p507
aS'im not good at this shit you do it'
p508
aS'it probably has fleas doe its so cute and fluffyyyyyy'
p509
aS'theres a cute kittie on my front porch what do i do'
p510
aS'cole world'
p511
aS'youre above the age of 14 not following young ins lol'
p512
aS'prude girlsltlt'
p513
aS'delete someone off your friends list for me today babe pls'
p514
aS'y u do dis pls dnt roast'
p515
aS'he said faze temper hacked him offline \xf0\x9f\x98\x82\xf0\x9f\x98\x82\xf0\x9f\x98\x82'
p516
aS'some kid thinks im an mlg pro in my english class dead'
p517
aS'i dont settle for idiots'
p518
aS'trueeeeeeee be yourself girl lol'
p519
aS'youre a qewdiiii '
p520
aS'i didnt mean e date im just saying in general you are like the most beautiful e girl and all the ratchet ones have boyfriends'
p521
aS'nooo stop youre really pretty dont do it'
p522
aS'youre one of the most beautiful e girls how dont you have a boyfriend'
p523
aS'sorry but if you dont know how to give good head we cant date'
p524
aS'hi'
p525
aS'every time i have something perfect i always fuck it up some how'
p526
aS'youre cute as fuck'
p527
aS'rt if you want a faze avatar done by me ill pick one random winner'
p528
aS'hi bby'
p529
aS'can you sit on my face baby '
p530
aS'what grade are you in'
p531
aS'can i dm you  '
p532
aS'omg fuck me babe your hot'
p533
aS'haha follow me '
p534
aS'make me cum'
p535
aS'your bodygtgt'
p536
aS'i need pussy right now'
p537
aS'like i would fuck you hard'
p538
aS'date me please your perfect'
p539
aS'you have big tits lol'
p540
aS'can i be your 125th follow '
p541
aS'cant am you because you dont follow me'
p542
aS'shit it didnt send lol but youre cute text me '
p543
aS'yes baby'
p544
aS'fuck me'
p545
ag14
aS'can i get a follow back baby '
p546
aS'hi'
p547
aS'your assgtgt'
p548
aS'your hot as fuckkkk'
p549
aS'im toooo horny right now lol i gotta slow down'
p550
aS'id fuck you baby'
p551
aS'why not im dying im so soar'
p552
aS'ill give you a massage if you give me one '
p553
aS'labrador retriever'
p554
aS'im a sophomore too your ass is nice as a 10th grader '
p555
aS'my duos a cutie '
p556
aS'you can get the dick '
p557
aS'is anyone hot awake'
p558
aS'lt3'
p559
aS'niqqa wut'
p560
aS'damn bby'
p561
aS'you can get the dick '
p562
aS'out b4 i get roasted lol'
p563
aS'tattoos are so fucking attractive ugh fuck meeee'
p564
aS'haha forreal doe'
p565
aS'masterbating is always better at night '
p566
aS'girls with tattoos just give me another reason to fuck you'
p567
aS'duh your supposed to let me get you '
p568
aS'sheeeee can get the dick lol'
p569
aS'lol'
p570
aS'you never added me'
p571
aS'i need a girlfriend  someone to listen to music  kiss slowly and talk on the phone while falling asleepit would be dream\xe2\x80\xa6'
p572
aS'it makes your boobs look bigger haha lt3'
p573
aS'your tattoo on your chestgtgt'
p574
aS'killing myself heart broken 4ever'
p575
aS'hmu  dm'
p576
aS'marry me'
p577
asS'2013_43'
p578
(lp579
S'you are gorgeous ughhhhhhhh'
p580
aS'ill be home in like 1015 whats your gamer tag beautiful'
p581
aS'meeeee bae'
p582
aS'good bye peasant'
p583
aS'for them selves'
p584
aS'i have much respect for women but the women i call bitches are the slutty ones that have no respect'
p585
aS'dont speak to me if you dont know proper english'
p586
aS'you would want to faggot because you cant do that to no bitches\xf0\x9f\x98\x82\xf0\x9f\x98\x82\xf0\x9f\x98\x82'
p587
aS'im a loser okay learn how to use proper english then you are allowed to speak to me fan'
p588
aS'kids are getting roasted left and right lmfao'
p589
aS'you are still a pussy lmfao dont roast me you will get roasted right back'
p590
aS'get your illegal immigrant ass out of here'
p591
aS'get your faggot ass out of here lmfao i def have a chode neck get your mexican ass out of here'
p592
aS'lmfao he blocked me because he knows hes wrong'
p593
aS'omg are you retarted you dont know what the word sense means holy fuck you are illiterate'
p594
aS'no you fucking retard its sense you illiterate fuck'
p595
aS'oh you guys are competitive players makes sence why you pussys arent known lmfao cause you suck'
p596
aS'love you babe \xf0\x9f\x98\x82\xf0\x9f\x98\x82\xf0\x9f\x98\x82'
p597
aS'i have calvin johnson and stafford for fantasy megaton had 52 points stafford had 35 they are a crazy duo'
p598
aS'what are you what do you do mlg trick shot tell me please i want to know'
p599
aS'another person i have to roast i already roasted 5 of you guys'
p600
aS'calvin johnson is insane'
p601
aS'lmao but still you are tagging them to get attention stop'
p602
aS'you guys have 18 in like 2 months lol these kids are stupid its what text me'
p603
aS'they said faith isnt known lmfao'
p604
aS'no'
p605
aS'why you keep tagging them im talking to you pussy fight your own fights lmfao'
p606
aS'i am known lmfao look who follows me look at my friends list stop your ugly as fuck middle schooler'
p607
aS'roastingking'
p608
aS'that argument tho lmfao kids are retarted he had like 6 irrelevant kids try roasting me and they all got fucked up lmfao'
p609
aS'you are still in middle school pussy'
p610
aS'lol stop your ugly as fuck look at you you un athletic fuck'
p611
aS'my dude these kids are stupid lmfao'
p612
aS'shut the fuck up peasant'
p613
aS'exactly lmfao go somewhere fan'
p614
aS'im a virgin okay you can stop now take a seat thats all you said so far and its not true'
p615
aS'faith isnt known stop'
p616
aS'you are not known'
p617
aS'yeah you edit trick shots and feeds you are irrelevant and your terrible at what u do quit'
p618
aS'such as the leader of faith lmfao you cant win'
p619
aS'known trick shotters on my friends list'
p620
aS'im a comp player i dont do youtube lmfao but hes not known i dont trick shot but i have'
p621
aS'stop you edit im done lmfao you suck at it too you will never get in a 5k clan lol'
p622
aS'lmao do it while your at it take a knife and cut your wrists'
p623
aS'annoying accents stop'
p624
aS'oh your british you can just kill your self there because british people are ugly and have'
p625
aS'lol wut'
p626
aS'ladies ladies lets calm down'
p627
aS'lmao i dont give a fuck i still get more pussy than you your ugly and who are you you are not known stop'
p628
aS'lemon who are you stop'
p629
aS'dude you are gay you are sending guys pictures lmfao kill your self no one loves you'
p630
aS'not at all haha im done with you bro get the fuck out of my interactions dumb virgin faggot you just got out on blast kys'
p631
aS'not at all\xf0\x9f\x98\x82\xf0\x9f\x98\x82\xf0\x9f\x98\x82 who the fuck are you you are irrelevant also kill yourself pussy'
p632
aS'and the way you stand looks like you just got a dick up your ass haha'
p633
aS'lmfao hahahahaha is your lip peirced kill your self you sent me a picture shirt less you have no abs or bicepts lmfao'
p634
aS'im done talking to these ugly ducking scumbag virgin ams that act big on twitter but will get dropped on there neck irl lmfao'
p635
aS'im 15 and not scrawny at all lol you will get dropped on your neck'
p636
aS'sorry lol'
p637
aS'please tell me how i proved it please come to new york so i can fuck you up'
p638
aS'are you gay im not skyping you lmfao this kids a fucking queer kys'
p639
aS'the swat team comes to your house and and you get fucking shook'
p640
aS'please get your ugly as off my interactions im asking nicely before'
p641
aS'cut your wrists you irrelevant pussy no one loves you adopted pussy'
p642
aS'take care of the ugly virgins please they dont deserve to live lmfao'
p643
aS'dad'
p644
aS'yeah because my parents are dead\xf0\x9f\x98\x82\xf0\x9f\x98\x82\xf0\x9f\x98\x82 pretty sure i just left my moms house with my das'
p645
aS'omg your an irrelevant am and i was kidding with her lmfao your delusional'
p646
aS'oh yeah im def a virgin\xf0\x9f\x98\x82\xf0\x9f\x98\x82\xf0\x9f\x98\x82 shut the fuck up you pussy trick shotter you get no pussy'
p647
aS'get girls irl because your ugly as fuck mah nigga'
p648
aS'lmao not butthurt lmfao i get bitches nigga your d riding an e girl cause you cant'
p649
aS'shit your faggot asses up you guys are irrelevant lmfao fucking delusional'
p650
aS'your fans keep tweeting at me lmfao'
p651
aS'dez bryant is a beast'
p652
aS'haha duhh your a cutie'
p653
aS'im  1 holy shit lt3'
p654
aS'who do you want to win'
p655
aS'add me on xbox beautiful'
p656
aS'top 5 e girls 1 5'
p657
aS'who the fuck are you nigga you will get slept foh'
p658
aS'wanna taste mine'
p659
aS'damnnnn its whatever you can drive me places '
p660
aS'selfiesunday'
p661
aS'i kind of wish i could just grab you and hug the shit out of you'
p662
aS'lmao nahh'
p663
aS'buffalo'
p664
aS'why do all the hot girls live so far away then im just here in new york with so ratchet ass hoes'
p665
aS'and you play xbox date me please'
p666
aS'your italian'
p667
aS'im fucking hilarious how do i not have 1645614650645945198757865986845967 followers'
p668
aS'oh your italian so when is our marriage being planned'
p669
aS'dead haahahahahahahah'
p670
ag14
aS'get her plu7o '
p671
aS'youre ugly as fuck stahp'
p672
aS'lol your right im so ugly pussy'
p673
aS'ily2 can i wheel you pls'
p674
aS'hmm i think im going to do a top 5 e girl list'
p675
aS'your eyes are so pretty'
p676
aS'megan will never see that tweet lol subtweets4lifeeeeeee'
p677
aS'can i have some '
p678
aS'you makee me feel like a natural womennnnn'
p679
aS'megan is cute i cant lie'
p680
aS'slow down with that weed and everything will be alright '
p681
aS'welcome cutie  lt3'
p682
aS'thanks duo'
p683
aS'you are high'
p684
aS'quick question what the fuck is jfc stand for'
p685
aS'uh oh senders wheeling sarah '
p686
aS'you dm me '
p687
aS'roll my weed on it thats an asstray'
p688
aS'built a house upon that ass thats an assstate'
p689
aS'make the ground move thats an assshake'
p690
aS'you are beauitful '
p691
aS'whats wrong bby'
p692
aS'why is like every pro unfollowing me lol'
p693
aS'sweet way to ignore me brahh'
p694
aS'realize im very angry that you unfollowed me thoo'
p695
aS'i am in the singing mood'
p696
aS'find one and ill do it im nasty at mw2'
p697
aS'is it paid for'
p698
aS'why is sxpreme so hot ughh'
p699
aS'trueeeee'
p700
aS'today stats 10 followers 4 unfollowers and followed 4 people via'
p701
aS'you kik me  nicklongosexy'
p702
aS'well maybe you can dm me babe  its about to get dirty '
p703
aS'oomf fuck me '
p704
aS'finee ill subtweet you'
p705
aS'why doesnt it bby '
p706
aS'fuckk meeee'
p707
aS'you can be my e girl'
p708
aS'no problem '
p709
aS'lol you are a cutieeee '
p710
aS'oomf sext meh'
p711
aS'd8 me'
p712
aS'still awake'
p713
aS'heyy bby'
p714
aS'lol the more i play black ops 2 the more i get stressed out'
p715
ag14
aS'i want a fan sign bby '
p716
aS'300 followers turnup'
p717
aS'be right there'
p718
aS'and get me 2 more followers while your at it '
p719
aS'what grade are you in again'
p720
aS'ill give you head if you give me a shout out kkk'
p721
aS'okay 2 moreeeeee ughhh'
p722
aS'luv youu'
p723
aS'play gta with me bby'
p724
aS'i will follow 5 random people who follow rt when done'
p725
aS'literally 3 followers away from 300 k'
p726
aS'ok'
p727
aS'accept my shit it says it s pending'
p728
aS'wanna play bby'
p729
aS'im about to snap chat you babe its nicklongoishot'
p730
aS'my time to shine  supp duo'
p731
aS'everyone follow get him to 100 followers hes chill as fuck rt'
p732
aS'inv to party'
p733
aS'yes'
p734
aS'text me'
p735
aS'sub tweet me so i know its real'
p736
aS'i know right haha'
p737
aS'whats wrong '
p738
aS'terrible day to wear shorts'
p739
aS'it was cold as fuckkk today'
p740
aS'im so fucking tired ugh'
p741
aS'tell her that she should text me '
p742
aS'that girl you were with was cute  haha'
p743
aS'damnnn fo reallllll shhh dont tell no oneeee'
p744
aS'nooo wayyyy which one were you lol'
p745
aS'where were you'
p746
aS'dead ass lol'
p747
aS'gotchu '
p748
aS'thats so fucking weird i was just singing that song in my head right before i read this tweet'
p749
aS'the girl i just was with was perfect country type of girl blonde hair mmm she was perfect'
p750
aS'ctf goat'
p751
aS'follow back '
p752
aS'you lol she retweeted it but you leggo'
p753
aS'yesss right now'
p754
aS'mw2 8s me'
p755
aS'ill also follow 10 random people who rt this and follow'
p756
aS'done'
p757
aS'you still hosting 8s'
p758
aS'mw2 8s anyone'
p759
aS'i know right'
p760
aS'lmfao lost to kids with no thumbs'
p761
aS'hold on give me 5'
p762
aS'kk'
p763
aS'inv to prty at 150'
p764
aS'what you mean im on the team'
p765
aS'lmk '
p766
aS'you got 4'
p767
aS'nooo haha are you doing the 4v4 snd'
p768
aS'nigga your 1 away from 1000'
p769
aS'kk'
p770
aS'why are you so pretty ugh'
p771
aS'get your asses online'
p772
aS'lol them'
p773
aS'yeah haha'
p774
aS'leggo dude'
p775
aS'me if you want to do this 4v4 snd gb tournament'
p776
aS'wanna do it'
p777
aS'what free gb tourney'
p778
aS'who wants to do the mw2 am'
p779
aS'8s anyone i just got back home for good now i cant be bothered lmfao'
p780
aS'today stats 5 followers 4 unfollowers and followed 6 people via'
p781
ag14
aS'my vagina hurts'
p782
aS'got you'
p783
aS'get this fucking pussy of my timeline'
p784
aS'anyone want to play league play or pubs fav if you do'
p785
aS'you are the definition of perfect'
p786
aS'i like your face a lot'
p787
aS'whats wrong'
p788
aS'still wondering how im awake right now'
p789
ag180
aS'bo2'
p790
aS'its so fucking cold'
p791
aS'stahp'
p792
aS'sooo tiredddd'
p793
aS'i need to get turnt tomorrow'
p794
aS'you are perfect'
p795
aS'im not on right now my dude i got you tomorrow tho just hmu'
p796
aS'whos still awake'
p797
aS'them niggas were yelling to much lmfao im playing bops2 accept dat fr bby '
p798
aS'rt if youre awake '
p799
aS'how did you know'
p800
aS'join boi'
p801
aS'got you for 8s'
p802
aS'need 1 for mw2 8s'
p803
aS'join'
p804
aS'need 1 more for mw2 8s hmu'
p805
aS'get on'
p806
aS'mw2 8s hmu'
p807
aS'or maybe an invite back to the 8s lmfao'
p808
aS'think i can get a follow man haha i held my weight lol'
p809
aS'it was nice playing 8s with these guys lmao i held my weight against pros ay'
p810
aS'lmfao'
p811
aS'maybe if you followed me'
p812
aS'idk we need like a treaty'
p813
aS'kk we gotta make it official doe'
p814
aS'if you arent even in high school yet you are getting unfollowed'
p815
aS'can we be besties pls'
p816
aS'hiiiii'
p817
aS'you are a cutie '
p818
aS'like 1'
p819
aS'im starting mw2 8s back up would you like an inv'
p820
aS'i would hope that you werent 12 lol'
p821
aS'anyone wanna do mw2 8s'
p822
aS'start up some mw2 8s babe'
p823
aS'follow him his dicks hugeeeeeeee go'
p824
aS'im not mexican ok stop'
p825
aS'whats wrong '
p826
aS'i love when people talk shit online but whem they see me irl they know they will get dropped on there neck'
p827
aS'prude girlsltlt'
p828
aS'i dont understand why guys hate on girls for sending nudes like do you not want to see a girls tits'
p829
aS'why did you delete me'
p830
aS'anyone down for 8s'
p831
aS'take a seat on my face'
p832
aS'someone come play league play or gta v please someone fun and entertaining'
p833
aS'come play league or gta wiff me '
p834
aS'where dem chill e girls at'
p835
aS'some1 do a ff for me babes '
p836
ag14
ag14
aS'today stats 5 followers 3 unfollowers and followed 5 people via'
p837
aS'last tweet dead'
p838
aS'huge dick a guy withwella huge cock'
p839
aS'define huge dick'
p840
aS'i can give you one of those'
p841
aS'i can pretend to be an e girl and we can be besties'
p842
aS'luh yew'
p843
aS'ff amp '
p844
aS'who wants to watch netflix wiff me'
p845
aS'12 from 300 fuck someone shout me out pls'
p846
aS'and tell tony parker that i found his vision'
p847
aS'ugh hate life'
p848
aS'oh haha you popped up on my irl twitter and i was like what the fuck lmao'
p849
aS'haha im sorry if i offended you'
p850
aS'hold up where are you from'
p851
aS'theres only like 5 e girls i would fuck'
p852
aS'damn haha you look like you are like 18 hahaa'
p853
aS'how old are you'
p854
aS'put him in the dirt'
p855
aS'why not niqqa'
p856
aS'wanna do gbs im boredddd'
p857
aS'hi'
p858
aS'lol that girl fucked her up i for having sex with her boyfriend i didnt get it on video tho ill find it'
p859
aS'i think i added you'
p860
aS'nicklongoshot'
p861
aS'this grind for basketball tryouts is going to be real last year i couldnt try out due to surgery but now im good and ready for this season'
p862
aS'luxury chidichingching could buy anything cop that collard greens three degrees low make it hot for me drop that'
p863
aS'your gay lol'
p864
aS'why you talking shit brah lmfao'
p865
aS'that school bathroom doe '
p866
aS'at least theres going to be a girl fight today ill record it for you guys'
p867
aS'everybody else got to sit with there friends but i have to sit with some shitty boring ass people in geometry fuck this shit'
p868
aS'today stats 3 followers 3 unfollowers and followed one person via'
p869
aS'fine truce no more being mean k'
p870
aS'what all i said is you are going to be his e girl lmfao fine ill stop'
p871
aS'stop being mean'
p872
aS'lol chill'
p873
aS'hahaha get your girl and calm her down lol'
p874
aS'fuck it im on one'
p875
aS'haha the connection between you guys is perf i can see it'
p876
aS'i can see it now humors new e girl is 4shtonn remember who said it'
p877
aS'13 away from 300 please someone help me out'
p878
aS'these bitches posing for instagram in the middle of the street'
p879
aS'im on 14 hours of sleep lmfao'
p880
aS'do me'
p881
aS'holy fuck i literally slept from when i got home yesterday 4 pm to this morning at 6am im dead'
p882
aS'shy girls are cute but i dont think i can date a shy girl for a long time'
p883
aS'be nice guys'
p884
aS'my dog i had for 16 years died 2months ago i know how you feel hope everything is okay if you need anyone to talk to im here'
p885
aS'added you'
p886
aS'snap chat me then'
p887
aS'you are cute haha '
p888
aS'who wants to have a selfie war lmfao'
p889
aS'hi'
p890
aS'today stats 10 followers 8 unfollowers and followed 20 people via'
p891
aS'welcome you should add me on xbox'
p892
aS'lets make this clear ifyou unfollow me im going to unfollow you back thats how it works'
p893
aS'lmfao'
p894
aS'yeah lol you are still a cutie doe'
p895
aS'men r born between womans legsampthen they spend the rest of their lives tryin to get back in themcoz lets face it theres no \xe2\x80\xa6'
p896
aS'you want to be wcw'
p897
aS'thinking about you being my wcw after how bad you just roasted that kid'
p898
aS'am i the only one that wheres there beats to school and just listen to music for this pointless 6 hours'
p899
aS'fav if you want the d '
p900
aS'follow this beautiful girl she is a cutie '
p901
aS'ahh i live in the city'
p902
aS'have you ever touched a girls ass before no just kill yo self you are a nerd low life stop talking shit'
p903
aS'lol'
p904
aS'i wish there were locals in new york'
p905
aS'wut lol'
p906
aS'where'
p907
aS'does anyone not like my tweets let me know because i can give you directions to unfollow me'
p908
aS'haha wut'
p909
aS'lol i get more pussy then all of these nerds have even seen watching porn lol'
p910
aS'11 from 3hunna pwease sum1'
p911
aS'i do cute sub tweets '
p912
aS'i cant lie danii is gorgeous'
p913
aS'what ever happened to lynch'
p914
aS'who else lives in new york or around there'
p915
aS'bandz a make her you know what'
p916
aS'finally someone explains'
p917
aS'thank you babe'
p918
aS'what does that mean'
p919
aS'bounce it bounce it bounce it bounce it i\xe2\x80\x99m about to throw a couple thousand'
p920
aS'i love her'
p921
aS'killing myself bye'
p922
aS'rock paper scissor shoot for her gab'
p923
aS'do you have everyone gab god damn save some'
p924
aS'follow back  '
p925
aS'you are doe bby '
p926
aS'your body is perfect '
p927
aS'where dem e sluts at '
p928
aS'idk either beautiful'
p929
aS'theres so many pros and cons of being horny'
p930
aS'can i dm '
p931
aS'snap chat me nudez'
p932
aS'it\xe2\x80\x99s hard to resist a bad boy who\xe2\x80\x99s a good man'
p933
aS'this fucking describes me so much'
p934
aS'have any of you girls ever had a lesbian moment lol i think every girl does'
p935
aS'hi there'
p936
aS'15'
p937
aS'lmao im so done mom is roasting kalen'
p938
aS'if you had to pick one tho what would you picj'
p939
aS'if u spilled it in ur lap ill blow it for u '
p940
aS'dead'
p941
aS'just spilled hot chocolate on me in the car almost died'
p942
aS'a question for you girls do you like getting eaten out or sucking dick just wondering'
p943
aS'how about you all just come over and have a big orgy '
p944
aS'i need sex like now'
p945
aS'hi bby '
p946
aS'nudes or gtfo'
p947
aS'nonono it was not my mom it was you im sure'
p948
aS'when i have a son he is going to get mad pussy and be in the nfl ggs to life'
p949
aS'you should know this stuff you did a real good job '
p950
aS'not you'
p951
aS'she rides that dick and she handles her liquor'
p952
aS'you are so gullible hahaha'
p953
aS'why is she so mean to me '
p954
aS'dm '
p955
aS'wow well that wasnt nice '
p956
aS'i have all of her nudes so you my friend are wrong '
p957
aS'stop lying you know one or 2 of those nudes are you '
p958
aS'ask me funny ass questions only cool people do it you should too '
p959
aS'someone get me to 300 pls i will luv you forever and we can be besties '
p960
aS'pretty much im questioning if some of these pics you put up are you lmao'
p961
aS'one time i was at a party and went to go finger this girl and all i felt was pubes i was like nope peace lol'
p962
aS'suck it'
p963
aS'forreal doe'
p964
aS'you are perfect holy fuck '
p965
aS'i want a girl that knows how to be nice and respectful but also know how to take a dick whenever i want to give it to her '
p966
aS'ally is really pretty  lol'
p967
aS'hiii '
p968
aS'hi '
p969
aS'today stats 10 followers 6 unfollowers and followed 16 people via'
p970
aS'girls that play sportsgtgt oomf'
p971
aS'you are beautiful '
p972
aS'what does that meeeaannnnn'
p973
aS'hi'
p974
aS'please someone explain to me what i d a f b 4 u is i keep seeing it'
p975
aS'follow and dm '
p976
aS'hi'
p977
aS'please cutie thanks'
p978
aS'if i kiss your neck you know its real'
p979
aS'lets fuck cuddle then fuck again pls'
p980
aS'holy fuck your body is perfectgtgtgtgt pls date me'
p981
aS'only slut i fuck with is my girl maryjane \xf0\x9f\x98\x8d\xf0\x9f\x98\x8d\xf0\x9f\x98\x8d'
p982
aS'why do you get to roll i wanna roll my weed on that ass '
p983
aS'your assgtgt '
p984
aS'can we smoke loud together please bby '
p985
aS'who needs when you have twitter page'
p986
aS'you are cute '
p987
aS'holy ass lol'
p988
aS'being bored and horny is the worst combination ever'
p989
aS'thirstiest guy on twitter award goes to me  lol'
p990
aS'hello cutie '
p991
aS'now you hate meh '
p992
aS'follow back so i can dm '
p993
aS'stop dont run from'
p994
ag14
aS'mah mans 1310h4n4rd is trying to wheel you lexi '
p995
aS'you are attractive '
p996
aS'wait how old are you lexi'
p997
aS'stahpppp goatilicious'
p998
aS'shhh im trying to wheel her you are ruining my chances'
p999
aS'i mean i guess were not besties since you dont follow me back '
p1000
aS'why you roasting i thought we were besties'
p1001
aS'hi '
p1002
aS'you are perfect omg'
p1003
aS'nooooo yankees errrr day'
p1004
aS'ewwww red sox'
p1005
aS'yeah i am i just got home hold upppp'
p1006
aS'mean'
p1007
ag14
aS'do you have a mic yet'
p1008
aS'wanna play league play'
p1009
aS'stahhhhhp'
p1010
aS'killing myself'
p1011
aS'add me on xbox bby'
p1012
aS'yo bro following 334 people is a mile stone follow me '
p1013
aS'i know its deleted k bye dnt roast'
p1014
aS'ugh you are sooo gorgeous'
p1015
aS'deleting it anyways lol no one luvs me'
p1016
aS'rt'
p1017
aS'fuck it im just going to delete it'
p1018
aS'go fucking retweet my tweet for top 10 pls'
p1019
aS'i cant wait for my birthday in a month in a half im going to get so much pussy lol'
p1020
aS'im just not loved enough for people to retweet my last tweet lmfao'
p1021
aS'you are beautiful stahhpppp'
p1022
aS'you are really pretty  haha'
p1023
aS'i was nobodies mcm pwease someoneeeeeeeeeee'
p1024
aS'he gets out at 600 im sorry bae'
p1025
aS'ill see if my brother can send me money when he gets out of work when does it start'
p1026
aS'i cant lol it wont let me do anything on icn haha'
p1027
aS'i would but i got banned from icn lol'
p1028
aS'just sit on my lap babe'
p1029
aS'if she doesnt let go of you when you hug her she likes you'
p1030
aS'aint nothing more important then the mula'
p1031
aS'that song is so old lol'
p1032
aS'hes calling me bad after 1 hard point and he left the game first dead'
p1033
aS'red heads with piercingsgtgtgtgt oomf fuck me'
p1034
aS'follow back bby  lt3'
p1035
aS'lmao forsyth is so bad and butt hurt'
p1036
aS'perfect '
p1037
aS'read headsgtgtgt'
p1038
aS'fuck a fake friend where the real friends at'
p1039
aS'you are cute'
p1040
aS'just to keep from crying i laughed'
p1041
aS'you used to ride a nigga like a moped'
p1042
aS'im cold as fuck come on new york'
p1043
aS'today stats one follower 7 unfollowers and followed 3 people via'
p1044
aS'whos awake'
p1045
aS'lol i dont want that shit back why did you leave'
p1046
aS'lol'
p1047
aS'who are all these random girls you post bby lol'
p1048
aS'roasted'
p1049
aS'i need an e girl ugh'
p1050
aS'make yo bitch wetter than niagara falls'
p1051
aS'you cant win'
p1052
aS'and im 30x better than him i got dropped over 1 hardpoint and he did bad too just stop'
p1053
aS'youre stop riding dick slut'
p1054
aS'did he tell you hes a bottom am and hes terrible'
p1055
aS'why do you have a lock next to your'
p1056
aS'stahpppp no you are just getting to ahead of your self pussy forsyth prob told you to say that'
p1057
aS'supp cutie'
p1058
aS'add me '
p1059
aS'do you have xbox'
p1060
aS'cuteeeeeeee '
p1061
aS'how old are you'
p1062
aS'youre'
p1063
aS'are you an e girl lol'
p1064
aS'wes welker better go off'
p1065
aS'hi '
p1066
asS'2013_46'
p1067
(lp1068
S'today stats 2 followers 4 unfollowers and followed 7 people via'
p1069
aS'gn'
p1070
aS'im always horny at night lol'
p1071
aS'done'
p1072
aS'someone let me get there brazzers pls'
p1073
aS'i just got shut down'
p1074
aS'take that as a no '
p1075
aS'hit the dms '
p1076
aS'hii '
p1077
aS'whos awakegt lol'
p1078
aS'lmk'
p1079
aS'please step into my dms'
p1080
aS'hii cutie '
p1081
aS'lets play with eachother soon'
p1082
aS'do you still have me added bby'
p1083
aS'y u hate me '
p1084
aS'lol'
p1085
aS'if i were an e girl id follow me'
p1086
aS'you are all over my timeline lmao'
p1087
aS'damn your beautiful'
p1088
aS'leggo'
p1089
aS'why are you quitting man '
p1090
aS'if you are a good singer you are already 10x more attractive'
p1091
aS'lmao im laughing so hard from your retweets lmfaoooo'
p1092
aS'shes soo hot'
p1093
aS'on the bright side of call of duty ghosts i havent dropped a donut yet '
p1094
aS'where are the snd stars at'
p1095
aS'yupppp'
p1096
aS'alive its basically just a chill lobby'
p1097
aS'you get a bunch of trickshotters in a pub and they all join the same game then you just trade rounds where someone is last'
p1098
aS'anyone with thumbs wanna play tl doesnt matter what game i just want to grind'
p1099
aS'you better accept that lmfao'
p1100
aS'i send nudezzz '
p1101
aS'20 rts and i wont quit'
p1102
aS'lets have sex and cuddle'
p1103
aS'you are like an e girl dictionary'
p1104
aS'how did you find that tweet from like a month ago lmfaooo'
p1105
aS'ill see if my dad could drive me but idk he just got surgery ill try making arrangements'
p1106
aS'what will we be doing'
p1107
aS'lmfao'
p1108
aS'where are the fun people right now'
p1109
aS'brah inv me you got my username'
p1110
aS'is hilarious when she rages lmfaoooooooo'
p1111
aS'you should follow me back on instagram '
p1112
aS'what'
p1113
aS'yeah im mad af'
p1114
aS'damn qewdi is so fucking hot if i got a follow from her im hitting the dms asap'
p1115
aS'okai'
p1116
aS'come play with me babeeeee'
p1117
aS'im not loved anymore'
p1118
aS'lemme get it '
p1119
aS'is the person in your header more importnant than me '
p1120
aS'you have one'
p1121
aS'damn ill be right there ok '
p1122
aS'there you go bby same category as my babeeee'
p1123
aS'610 hot peeps 6 7 8 9 10'
p1124
aS'who has a kik'
p1125
aS'are you high lmfao'
p1126
aS'inv'
p1127
aS'kms'
p1128
aS'get this beautiful ass girl to 1200 on some real shit'
p1129
aS'when we get that 10 racks we gon go to the mall and ball like kobe and pau gasol yeah these bitches love me these bitches all on my balls'
p1130
aS'lil snupe was just so cold on some real shit tho rip man ive been following you for a while man miss you bro'
p1131
aS'lt3'
p1132
aS'where do we ask you questions for the q n a just tweet you them'
p1133
aS'damn girl we gotta chill lmfao'
p1134
aS'i just woke up like a half hour ago cant believe i slept that late smh'
p1135
aS'im snapchatting you nudez baeeeee'
p1136
aS'lmk'
p1137
aS'fas for umg philly rt this we have a pass'
p1138
aS'if youre a fa for philly rt team has a team pass'
p1139
aS'today stats 2 followers no unfollowers and followed 2 people via'
p1140
aS'two deer walk out of a gay bar one turns to the other and says \xe2\x80\x9cman i can\xe2\x80\x99t believe i blew thirty bucks in there\xe2\x80\x9d \xf0\x9f\x98\x82\xf0\x9f\x98\x82\xf0\x9f\x98\x82\xf0\x9f\x98\x82'
p1141
aS'the other guys lol'
p1142
aS'step brothers'
p1143
aS'yah boy grim'
p1144
aS'like i need to pee and i need food'
p1145
aS'longest masterbation session ever'
p1146
aS'1 hour long session'
p1147
aS'ill take you '
p1148
aS'join my party bby'
p1149
aS'heyy girl '
p1150
aS'soooooo does anyone feel lonely on xbox right now and want to chill in a party '
p1151
ag14
aS'when can you joinnnnn'
p1152
aS'invites 10 people to a party none of them come'
p1153
aS'lol'
p1154
aS'nigga hurrryyyyyyyy'
p1155
aS'im sick and i sound like a walrus'
p1156
aS'what e girls play gb yet to find one that does'
p1157
aS'who cares we have to challenge another e party in a 2v2'
p1158
aS'if you love me you willlt33'
p1159
aS'i inv you to party joinnnnn'
p1160
aS'slow down grab tha wall'
p1161
aS'come on duo im bored and need yah'
p1162
aS'rt for free gfx'
p1163
aS'bitch im 10 feet tall when im standing on top of my dick'
p1164
aS'i dont mind when people use them but i just will never smoke one weeds good doe'
p1165
aS'i hate cigarettes with a passion'
p1166
aS'i got bitches on my cellular callin and confessing but i dont reply cause thats the clearest way to send a message'
p1167
aS'let her ride this dick say i had a hard day'
p1168
aS'all that ass in them jeans'
p1169
aS'me bby'
p1170
aS'those pants thooo'
p1171
aS'mlgcolumbus is in exactly a week from today letssss goooo'
p1172
aS'brookes crying brb'
p1173
aS'lmaoooooo get back on cutie'
p1174
aS'i did it to her'
p1175
aS'50 rts and ill post a picture of me passed out in the back of my friends car its hilarious'
p1176
aS'fineeee'
p1177
aS'grim the goat can we like play something pls im bored '
p1178
aS'add me on xbox bby'
p1179
aS'hahahhaah so im doing all the work and you split the 10 with me haha'
p1180
aS'check dms im dming you my paypal'
p1181
aS'hahaha'
p1182
ag14
aS'does it matter when it was'
p1183
aS'so about you sitting on my face'
p1184
aS'this girl got punched in the face by this kid in my geometry class and the girls brother came in and started flipping and tried killing him'
p1185
aS'i knowwwwww i know him irl zoo he has to be lying'
p1186
ag14
aS'lmao whatttt who hasnt taken a selfie'
p1187
aS'you are so gayy'
p1188
aS'that one kiss where you can just feel the connection gtgt'
p1189
aS'sit on my face'
p1190
aS'no1 luvs meh'
p1191
aS'why do i always wait until my phone gets to 2 for me to plug it in'
p1192
aS'who wants to chill in a party and talk or play pubs on any game fav or me or do something so i know you want to'
p1193
ag14
aS'start a new one up'
p1194
aS'duo '
p1195
aS'who would like a spot on my friends list '
p1196
aS'where dud everyone go'
p1197
aS'can i get into 1 good 8s lobby pls'
p1198
aS'lmao'
p1199
aS'i wanna walk to the highway 30 mins down the road amp take my phone xboxlaptop amp just throw them off the over pass '
p1200
aS'i dont feel like doing anything tonight'
p1201
aS'hows your day '
p1202
aS'today stats 2 followers 2 unfollowers and followed one person via'
p1203
aS'good morning '
p1204
aS'that titty thooo '
p1205
aS'twitter rn  dead'
p1206
aS'you have a tongue ribng holy fuck date me gtgt'
p1207
aS'puerto ricans gt'
p1208
aS'damn bby'
p1209
aS'ayeee that tittie doe'
p1210
aS'girls that play sports gtgt yumm'
p1211
aS'holy shit your ass when you twerk gtgt oomf'
p1212
aS'i have heart burn '
p1213
aS'retweet if your eyes are currently open'
p1214
aS'rt if youre a fa for umgphilly'
p1215
aS'hands is on her you know what cause bands a make her you know what'
p1216
aS'dont worry about them girl be yourself lt3'
p1217
aS'dont fuck with kate she can do want she wants to do and what she thinks is completely up to her'
p1218
aS'good shit tonight squad solid 50 start'
p1219
aS'i was just on omegle with the most perfect girl for like an hour and her thing froze and shes gone '
p1220
aS'see you think you know my life but i only tell you what i want you to know '
p1221
aS'ill play get ahold of poli'
p1222
aS'holy fuck'
p1223
aS'throw that cash on jenna shea ass to nipsey hussle jennashea lnv'
p1224
aS'8s me'
p1225
aS'why'
p1226
aS'my room'
p1227
aS'link me funny videos pls'
p1228
aS'i dont have anyone yet'
p1229
ag14
aS'8s anyone'
p1230
aS'snd goat niqqa'
p1231
aS'k be there in 5'
p1232
aS'get a match'
p1233
ag180
aS'follow this gorgeous girl and get her to 800 asap'
p1234
aS'i had to stay after obvs but you say get on after school i get on and you dont invite me and politic are waiting in a prty'
p1235
aS'you can tweet but cant invite me lmfao yeah'
p1236
aS'invite me to the party'
p1237
aS'see me getting guap right now'
p1238
aS'today stats 4 followers 4 unfollowers and followed 8 people via'
p1239
aS'cutay'
p1240
aS'my teacher just made me call my mom in the middle of class because im failing and i said i wasnt going to stay after now im in trouble smh'
p1241
aS'damn well thats cook'
p1242
aS'damn thats fucked up did you get your money back'
p1243
aS'i wouldnt go to that gym anymore lol'
p1244
aS'dont tell her i said it tho'
p1245
aS'ssxpreme is fucking gorgeous'
p1246
aS'your are so perfect oh my'
p1247
aS'sext me'
p1248
aS'y u no luv meh'
p1249
aS'who wants to text me all day on some real shit'
p1250
aS'kiss me'
p1251
aS'i hate when there isnt a cage under the desks bc i have nothing to put my feet on'
p1252
aS'id love to touch your butt'
p1253
aS'one retweet could save 2 lives'
p1254
aS'dont fuck with her brah'
p1255
aS'way to dm me back '
p1256
aS'still wondering why you dont follow me '
p1257
aS'hii '
p1258
aS'damn im sorry bby  dm me'
p1259
aS'really'
p1260
aS'what happened '
p1261
aS'lt333'
p1262
aS'why lmao'
p1263
aS'oh my if she follows me'
p1264
aS'sooo about you following me '
p1265
aS'shes fucking fine bruh'
p1266
aS'holy shit qwedi is so hot sry all other e girls shes really a qt'
p1267
aS'awee my duo loves me and makes love tweets about melt3'
p1268
aS'well that escalated quickly'
p1269
aS'i love grim so much awee love you too babelt3'
p1270
aS'15 bud'
p1271
aS'wow you look like you 17 haha damn '
p1272
aS'you are 15'
p1273
aS'how many you teaming with'
p1274
aS'lmao follow then unfollow'
p1275
aS'kill yourself drink some bleach or cut your wrists ill give you the first decision you will ever make because your parents beat you'
p1276
aS'pussy'
p1277
ag14
aS'holy fuck thats perf'
p1278
aS'and dont disrespect my girl or you will have a fucking swat team outside your house'
p1279
aS'luh yewlt3'
p1280
aS'hahahah way to reply to my tweet pussy you know you were about to get roasted'
p1281
aS'chain hang to mah ding a lang'
p1282
aS'im ignorant oh my i didnt even say anything to you lmfao dont make me roast the fuck out of you'
p1283
aS'hit him with the meme'
p1284
aS'noooooooooooooooo'
p1285
aS'try and roast me now queer'
p1286
aS'wcw'
p1287
aS'btw i forgot some wcw'
p1288
aS'how dont you have school '
p1289
aS'heyy guys real quick give me good song names i need new music to listen to gogogo'
p1290
aS'that avi doeegt'
p1291
aS'aweelt3 tl tomorrow after school'
p1292
aS'idk where you get these words from lmao'
p1293
aS'damn'
p1294
aS'fuckkkkkkkkk motive you will get roasted im waiting for it'
p1295
aS'hahahahahhahahahahahahhahhaahah motive got roasted hahahahhaha'
p1296
aS'interactionsblown'
p1297
aS'oooh haha my b what happened with you guys'
p1298
aS'damn wtf did i miss'
p1299
aS'who lol'
p1300
ag14
aS'i hope people know im just joking with them i just say that shit to get away from my problems i have right now irl sorry guys'
p1301
aS'im sorry for being thirsty as fuck im done with these bad terrible disgusting actionslt3'
p1302
aS'im always weird and thirsty as fuckk at night whats wrong with me'
p1303
aS'why not'
p1304
aS'rt for career ender on'
p1305
aS'lol just cause miranda shut you down doesnt mean come running to me'
p1306
aS'i just want friends'
p1307
aS'heyy bby'
p1308
aS'why no'
p1309
aS'omg'
p1310
aS'whos awake thats fun'
p1311
aS'following a low amount is boring rt for a follow selective mbf'
p1312
aS'gotta sign on my dick that say bad bitches only'
p1313
aS'lmfao'
p1314
aS'wut'
p1315
aS'you never added melt3'
p1316
aS'lol'
p1317
aS'send me nudez'
p1318
aS'omg'
p1319
aS'no its not'
p1320
aS'suck me dick'
p1321
aS' stop being mean'
p1322
aS'whats your gt'
p1323
aS'hit the dms if you werent joking '
p1324
aS'lmao where did mah girl mikaykaykaykaykay'
p1325
aS'im serious '
p1326
aS'omg'
p1327
aS'right pope tell him bae'
p1328
aS'do i really lmfao'
p1329
aS'nigga stop riding dick with the memes lmfao'
p1330
aS'both of you guys add me on xbl'
p1331
aS'we are not starting this again'
p1332
aS'love yoult3'
p1333
aS'i should prob delete that tweet because im getting roasted lmfao'
p1334
aS'no'
p1335
aS'lmfao motive'
p1336
aS'wanna fight'
p1337
aS'when e girls show cleavage or ass gt'
p1338
aS'come here now'
p1339
aS'i dont smoke crack motha fucka i sell it'
p1340
aS'what'
p1341
aS'omg'
p1342
aS'tongue action'
p1343
aS'wet mirror'
p1344
aS'me your gamertag if you finna try to chill in a party with me and nex'
p1345
aS'grim the goat'
p1346
aS'mah nigga mah nigga'
p1347
aS'you know you trying to tap that'
p1348
aS'lol'
p1349
aS'lt3'
p1350
aS'fuck a nigga'
p1351
aS'follow me backlt3'
p1352
aS'while your doing that follow me back bby lol'
p1353
aS'that was creeps af'
p1354
aS'wut'
p1355
aS'get your aids out of the game'
p1356
aS'wut'
p1357
aS'some1 make me food '
p1358
aS'damn i need a team that i can just grind with everyday'
p1359
aS'worst host ever award goes to lmao cant get shots on him'
p1360
aS'grim the goat'
p1361
aS'y u unfollow me'
p1362
aS'y u unfollow me'
p1363
aS'8s anyone'
p1364
ag14
ag14
aS'retweet if you want a 50 giftcard ill choose a random retweeter in 4hrs must be following'
p1365
aS'when isnt moving in game or talking shit just went down dont hit me nigga freegrim'
p1366
aS'lost to randoms fuck'
p1367
aS'brah you gotta cop retros'
p1368
aS'hannahhhhh montanaaaa'
p1369
aS'supp bby'
p1370
aS'lmao we had this convo before hi bestieslt3'
p1371
aS'mr steal yo e girl'
p1372
aS'your tits  huge'
p1373
aS'bestbodyontwitter'
p1374
aS'holy tits'
p1375
aS'done'
p1376
aS'cootieeee'
p1377
aS'motive get on'
p1378
aS'leggo blake'
p1379
aS'get the fuck on pussy'
p1380
aS'lmk'
p1381
aS'bench players talking like starters i hate it'
p1382
aS'ill be home in 5'
p1383
aS'coolin in the hallway listening to music fuck school'
p1384
ag14
aS'today stats 8 followers 6 unfollowers and followed 6 people via'
p1385
aS'ill give you the hands brah'
p1386
aS'nigga do it boi im strapped up too boi'
p1387
aS'you the best you deserve a crown bitch'
p1388
aS'\xf0\x9f\x98\x8d\xf0\x9f\x98\x8d'
p1389
aS'me and smacked you and up in 2v2s\xf0\x9f\x98\x82\xf0\x9f\x98\x82\xf0\x9f\x98\x82'
p1390
aS'wcw'
p1391
aS'wcw'
p1392
aS'bitch nigga'
p1393
aS'\xf0\x9f\x98\x8d'
p1394
aS'wcw'
p1395
aS'wcw'
p1396
aS'wcw'
p1397
aS'huumppppp dayyyyy'
p1398
aS'who wants to be my wcw'
p1399
aS'damn shawty'
p1400
aS'cause ive been thinking bout forever'
p1401
aS'everyone has a team and im here masturbating in a corner watching optic play on the xbox 360 dashboard twitch app'
p1402
aS'charge yo phone niggaaaaa'
p1403
aS'i just dont understand how people could be so heartless'
p1404
aS'i still love her'
p1405
aS'damn thats yours '
p1406
aS'your a fa or your a to3 looking for 1'
p1407
aS'heyy babe'
p1408
aS'follow meh back babelt3'
p1409
aS'we gon slow it down like we up in houston'
p1410
aS'whos in 8s'
p1411
aS'ill make that shit break'
p1412
aS'ill make your bedrock girl'
p1413
aS'jays on my feet'
p1414
aS'8s anyone'
p1415
aS'im serious snapchat me nudezz nicklongosexy'
p1416
aS'i dont even smoke really anymore bc of when i got surgery then after that i had to do a pee test sooo'
p1417
aS'the most i ever smoke was 2 blunts 2 joints 3 bowls and a few bong hits all in one day shit was crazy'
p1418
aS'snapchat meh nudez'
p1419
aS'depends what kind of weed you smoke he prob smoke purp so it gets you kinda high'
p1420
aS'wait a half a gram nigga thats like 1 joint lmfaoo'
p1421
aS'we all have to have a weed smoking tl day together  lmfao'
p1422
aS'lmfao you prob smoke dime bags and are like damn im high as fuck'
p1423
aS'i smoke way more loud than you guys do stop'
p1424
aS'stahp'
p1425
aS'brah i only smoke loud you smoke that purp shit'
p1426
aS'i dont alright brah'
p1427
aS'if you smoke weed chances are youre chill as fuck'
p1428
aS'why you talkin you aint smoking cali yeah i bring it back rep this shit just for mah family catch me in 3 years bring back a grammy'
p1429
aS'no problem '
p1430
aS'following back next 25 followers pls rt'
p1431
aS'you look like you just smoked a pound lmao'
p1432
aS'you are cute '
p1433
aS'you look like you just smoked a pound lmao'
p1434
aS'titties'
p1435
aS'heyy cutie'
p1436
aS'im to high for this shit takes out mic doesnt come back kms'
p1437
aS'okay ill try not to die'
p1438
aS'nobody else is talking and im just here like wuttt'
p1439
ag14
aS'where did you go im all lonely in this party '
p1440
aS'motive is always tweeting memes lmfao'
p1441
aS'you know that shit was poppin brah'
p1442
aS'pull up in the bentley pop out with the 45 snatch your ass up thiss nigga crying like lord why'
p1443
aS'i kill bars when i try to'
p1444
aS'grew up in riverside see me with the whole squad man i swear to god ill put this nigga right on world star  grim killing it'
p1445
aS'invite me grim the goat'
p1446
aS'this nigga just said selfie bitch lmfao'
p1447
aS'i was static nigga and mine wasnt that on mine started on 7477 but it was different lol'
p1448
aS'ayee i used to be a thug'
p1449
aS'man i miss lis snupe brah that nigga was real'
p1450
aS'oomfgtgt'
p1451
aS'i added yoult33'
p1452
aS'your avi gtgt'
p1453
aS'hii'
p1454
aS'hi'
p1455
aS'or pubs lol im bored'
p1456
aS'8s anyone or tl'
p1457
aS'you are following 420 people suspect'
p1458
aS'today stats 9 followers 5 unfollowers and followed 13 people via'
p1459
aS'follow meh back because we were the money team in mw2 8s that one timelt3 haha'
p1460
aS'supp nigga'
p1461
aS'i have 3 battery bye you terrorist cunts'
p1462
aS'leaving school early leggo'
p1463
aS'i just want this day to be over '
p1464
aS'good morning'
p1465
aS'your still awake'
p1466
aS'hi'
p1467
aS'well im not sowwy'
p1468
aS'nah im not i used to be but im not anymore im trying to change'
p1469
aS'how do you figure'
p1470
aS'i will do this'
p1471
aS'im a hopeless romantic with a dirty mind'
p1472
aS'gn'
p1473
aS'is hardpoint and ctf really coming back'
p1474
aS'you'
p1475
aS'so are they really bringing back ctf and hard point'
p1476
aS'happy birthday man'
p1477
aS'wowww i gotchu'
p1478
aS'its funny listening to because censor is the only white person on the team lmao'
p1479
aS'good night beautiful '
p1480
aS'mah nigga fucked yoshi up with them hands brah lmao'
p1481
aS'watch yoshi cry when saken bops his ass in slap boxing'
p1482
aS'5743701081 lets do it'
p1483
aS'damn nigga lmao'
p1484
aS'im the best sexter na'
p1485
aS'only if you followed me i could'
p1486
aS'its alright i already hit that so shes all yours'
p1487
aS'how about we all just be friends'
p1488
aS'you cant steal shit youre not black stay away from me lady'
p1489
aS'im black on the inside and i just stole yo girlll'
p1490
aS'too late look at da name girl mr steal yo e girl niqqa'
p1491
aS'holy perf'
p1492
aS'and she gon shake it like a red nose'
p1493
aS'but seriously do it'
p1494
aS'good pick up line right '
p1495
aS'i know come make my tongue better '
p1496
aS'you are the funniest man alive'
p1497
aS'ofwgkta'
p1498
aS'i just sneezed and coughed at the same time and i bit my tongue oww'
p1499
aS'kk ill hit you up tomorrow beautiful '
p1500
aS'what time are you getting on tomorrow'
p1501
aS'whats something good to listen to right now'
p1502
aS'im serious babe'
p1503
aS'were playing together tomorrow okay cutie'
p1504
aS'cutiee'
p1505
aS'i miss you bby you never get on anymore lt3'
p1506
aS'duo '
p1507
aS'im being to weird right now brb kms'
p1508
aS'i know man it killed'
p1509
aS'why you unfollow me '
p1510
aS'gotta sign on my dick that says bad bitches only'
p1511
aS'nigga runnnnn homeeee'
p1512
aS'add me on xbox cutie i stopped using my other account'
p1513
aS'damnn i gotta start working the clit more lmfao'
p1514
aS'guys make everything easier watchu mean'
p1515
aS'lol we didnt talk about the clot lmfao you tell me'
p1516
aS'hahahhahhahha'
p1517
aS'why do girls like the clit so much it always turns them on the most'
p1518
aS'sometimes i hate being horny because i just fuck everything up with everyone lmfao'
p1519
aS'sit on my face pls'
p1520
aS'heyy babeeeeeee'
p1521
aS'no1 is active '
p1522
aS'fav if your active'
p1523
aS'did the optic house get swatted again'
p1524
aS'whos dms can i slide into '
p1525
aS'brb kms i luv u 4everrrr'
p1526
aS'dont fuck with my emotions right now is that real '
p1527
aS'rt if youre missing my friend right about now'
p1528
aS'want to play tl'
p1529
aS'yeah'
p1530
aS'i havent really played yet do you want to'
p1531
aS'who wants to play something i dont care what game it is just lmk and im down'
p1532
aS'idk'
p1533
aS'wut'
p1534
aS'woah lordy lordy i just took more shots than kobe'
p1535
aS'hmu'
p1536
aS'start up 8s'
p1537
aS'i seen that one he went in'
p1538
aS'ayee thats when he smoked blunts haha did you ever see the big sean one tho he killed it'
p1539
ag14
aS'what happened with that kid hes all over my news feed'
p1540
aS'i cant stop coughing fuck'
p1541
aS'hahahahahah'
p1542
aS'fix the ghosts servers please'
p1543
aS'you got bars girl'
p1544
aS'i got rich with these rap songs all the drug problems now the cash gone'
p1545
aS'the packers just signed matt flynn gg'
p1546
aS'swimming in xp'
p1547
aS'im swimming in pussy nigga'
p1548
aS'baby girl thats my water fall'
p1549
aS'splash'
p1550
aS'im about to diveee in'
p1551
ag180
aS'hurry up boi im trying to play 8s'
p1552
aS'where did you go babe'
p1553
aS'funniest shit ever lmfaooo'
p1554
aS'all the shit talking goes down in 8s lmfao'
p1555
aS'8s me retweet plssss'
p1556
aS'grim the goat'
p1557
aS'dont invite me to 8s if you are just going to kick me before the games starts smfh'
p1558
aS'i just fucking died hahaha'
p1559
aS'anyone want to start up 8s'
p1560
aS'ill be your mcm dont worry '
p1561
aS'gm babe'
p1562
aS'can i be someones mcm pls'
p1563
aS'anyone want to do a connected franchise with a draft on madden 25 please be good'
p1564
aS'wassup'
p1565
aS'hi'
p1566
aS'today stats one follower 5 unfollowers and followed 9 people via'
p1567
aS'little kid fights'
p1568
aS'i have like 13 different people favoriting that tweet that dont even follow me lmfao the struggle'
p1569
aS'lmao i tweeted the same thing are you getting spammed by the beliebers to lmfao'
p1570
aS'get more than 5 followers peasant '
p1571
aS'staystrongjustin is trending on twitter worldwide stfu he has food poising hes not going to die stupid beliebers'
p1572
aS'welcone cutie lt3'
p1573
aS'you are perfect omg'
p1574
aS'whos still awake'
p1575
aS'15'
p1576
aS'you are also like 3 years older than me lol'
p1577
aS'stoppp'
p1578
aS'my goal is to get head while plain cod'
p1579
aS'you stay under 100 followers bro'
p1580
aS'doing gfx for the night i guess so gx giveaway picking 2 winners if it hits 40 3 winners if it hits 50 rts must be followin\xe2\x80\xa6'
p1581
aS'lmk'
p1582
aS'you gon get some dick tonight'
p1583
aS'and lonely '
p1584
aS'wanna play pubs im bored '
p1585
aS'heyy bby'
p1586
aS'honestly i still wonder why people give other people shit for sending a nude like its there body let them be able to show it off stfu'
p1587
aS'can you right now'
p1588
aS'tl or gbs anyone be someone i havent really played with before i want to chill with new people hmu'
p1589
ag14
aS'holy fuck stacies gorgeous omg'
p1590
aS'is that really you'
p1591
aS'bitch you talking to me oh no sit down you werent even around'
p1592
aS'cute as fuckk'
p1593
aS'mah nigga'
p1594
aS'well why did he do it'
p1595
aS'text mee duo'
p1596
aS'did you get your live account back yet'
p1597
aS'how can some one do something to a beautiful girl like you '
p1598
aS'done'
p1599
ag14
aS'doneee'
p1600
aS'this was mine steelerrrrrr lmfao'
p1601
aS'i miss you  come play pubs with me cutie'
p1602
aS'i just fucking died lmfaooooooo'
p1603
aS'help rt spread the word'
p1604
aS'gimme top'
p1605
aS'lmfaooo'
p1606
aS'hahahaha why cant we be friends'
p1607
aS'that shit scared the fuck out of me lmao'
p1608
aS'hellloooo there '
p1609
aS'duo '
p1610
ag14
aS'i mean she can follow me too if she wants to shes a cutie '
p1611
aS'damn brah you better hit her with some nudes or else you aint getting a follow back from her lmao'
p1612
aS'dude how many e girls are left savaged is making them all disappear'
p1613
aS'lmk'
p1614
aS'what happened with your xbl account'
p1615
aS'bitch takin a selfie with a riot shield rt selfie yassss lookin gudd'
p1616
asS'2013_47'
p1617
(lp1618
S'gets rated 6 kms'
p1619
ag14
aS'niceee haha'
p1620
aS'i live in buffalo'
p1621
aS'where in ny'
p1622
aS'you live in ny'
p1623
aS'i have a foopa'
p1624
aS'damnn only if i had a penis'
p1625
aS'im homosapien'
p1626
aS'ummm is it rape if i like it'
p1627
aS'sweg'
p1628
aS'helloooooo'
p1629
aS'trueee man people have to stop being so negative in games and just get hyped up'
p1630
aS'i hope your penis feels better soon'
p1631
aS'hype is everything in this game'
p1632
aS'anyone in 8s'
p1633
aS'my purp strong like its lifting weights'
p1634
aS'oh thats your girl damn nigga you aint learn shit'
p1635
aS'shorty give me all that brain still aint never learned shit'
p1636
aS'let that shit burn'
p1637
aS'hit your girl in that whip not that pussy got the new car smell'
p1638
aS'thats the way we like to fuck'
p1639
aS'face down ass up'
p1640
aS'all this shampoo and you still wont give me head'
p1641
aS'welcome to my house party'
p1642
aS'sour patch kids gtgt'
p1643
aS'rightttt hereee nigga'
p1644
aS'you dont know what you do'
p1645
aS'ochocincoooo'
p1646
aS'lmk'
p1647
aS'mee '
p1648
aS'alright rt this if you want a shout out or to be followed picking 2 of each'
p1649
aS'follow bc cutie'
p1650
aS'retweet if your going to columbus or your already there'
p1651
aS'hii'
p1652
aS'hiiiii '
p1653
aS'fuck dat bitch'
p1654
aS'brah theres nothing to be annoyed by bc you wont see it anymore bc no longer dehydrated'
p1655
aS'unfollow me 4everrrrrr'
p1656
aS'yes i willlllll dead ass like nigga i will not be dehydrated any longer i make that a promise and if i am you can'
p1657
aS'youll never change youre forever dehydrated'
p1658
aS'what if i vowwww that i wont be thirst any more'
p1659
aS'folloowwww me backkkk babeeeee  lt3'
p1660
aS'you wonder why i unfollowed you'
p1661
aS'jump unfollowed me bc thirsty '
p1662
aS'nigga nooooo i told you i was thirsty af follow back and ill stoplt3'
p1663
aS'thirsty grim'
p1664
aS'why are you not followinggg me your hot af haha'
p1665
aS'whos tryna chill at cbus if i decide to go after school'
p1666
aS'today stats 7 followers no unfollowers and followed 5 people via'
p1667
aS'morning'
p1668
aS'i an a sinner thats probably gonna sin again lord forgive me'
p1669
aS'do you see my face please take a seat on it\xf0\x9f\x98\x8f'
p1670
aS'whats up '
p1671
aS'your avigtgt mmm'
p1672
aS'wut'
p1673
aS'fav for a good morning post'
p1674
aS'hi'
p1675
aS'girl shake that bodyy'
p1676
aS'gn'
p1677
aS'y u no follow back lt3'
p1678
aS'whos ruse 4th'
p1679
aS'sleep is funn'
p1680
aS'grim making moves'
p1681
aS'can i get a follow so i can dm '
p1682
aS'that ass thooo gtgt'
p1683
aS'your prettyyyy'
p1684
aS'38 minutes ago you woulda been my wcw lmao'
p1685
aS'sleeping naked gt'
p1686
aS'that tongue ring thoooo'
p1687
aS'some1 come cuddleee'
p1688
aS'hi'
p1689
aS'lmk'
p1690
aS'you play college basketball'
p1691
aS'gatoradegtgt'
p1692
aS'bust it on the beat hoe'
p1693
aS'im different yeah im different'
p1694
aS'lmao'
p1695
aS'why is my mac being so slow'
p1696
aS'who wants to text meh'
p1697
aS'school is not for me all these lame ass niggas bumping into me that cant walkthen teachers thinking they the best smh'
p1698
aS'i luv bahd bitchezzzzz'
p1699
aS'wcw'
p1700
aS'your cute i like your face lets date'
p1701
aS'how could you be so low tko'
p1702
aS'\xf0\x9f\x98\x8d\xf0\x9f\x98\x8d'
p1703
aS'today stats 5 followers 4 unfollowers via'
p1704
aS'wcw'
p1705
aS'im unfollowing you if you keep retweeting that shit'
p1706
aS'wcw \xf0\x9f\x98\x8d\xf0\x9f\x98\x8d\xf0\x9f\x98\x8d'
p1707
aS'im here if you need me if you need to talk'
p1708
aS'what if all the e girls we think would not be a catfish were a catfish'
p1709
aS'wcw'
p1710
aS'wcw'
p1711
aS'wcw'
p1712
aS'ily2 bby'
p1713
aS'wcw'
p1714
aS'wcw'
p1715
aS'looks like mboze is doing good '
p1716
aS'send me nudez'
p1717
aS'follow shes very pretty '
p1718
aS'4th one to rt gets a fansign'
p1719
aS'i guess not'
p1720
aS'rt for so'
p1721
aS'who wants to talk in a party right nowwwww'
p1722
aS'pls'
p1723
aS'some1 get meh to 400'
p1724
aS'what is happening lol'
p1725
aS'retweet or youre gay'
p1726
aS'she really just said why am i getting mad that she doesnt like me anymore like what its obvious i fucking love you but you led me on'
p1727
aS'where them to3s at'
p1728
aS'i dont give a flying fuck'
p1729
aS'you can hate me but i hope you eat a giant nut'
p1730
aS'anyone in 8s actually'
p1731
aS'anyone want to play something'
p1732
aS'skip to 440 so u cn cri'
p1733
aS'best fucking song ever anonymuz killed it if you like rap listen to it'
p1734
aS'youre a fa'
p1735
aS'why did it get taken'
p1736
aS'why'
p1737
aS'it doesnt tell you how old or young minded someone is we all start at the same starting point of a girls legs each have our own finish line'
p1738
aS'today i woke up and realized every day gets shorter every minute turns to the longest second yet never ending age is nothing but a reminder'
p1739
aS'welcomeee '
p1740
aS'your eyes are really pretty haha'
p1741
aS'you are always retweeting such hot girls on my timeline and im just here like wut'
p1742
aS'i d a f b 4 u'
p1743
aS'thinking about posting a selfie tbh'
p1744
ag14
aS'im in a bad mood now'
p1745
aS'ughhhh shit gets on my nervess'
p1746
aS'nothing'
p1747
aS'you are a fucked up person'
p1748
aS'like it is literally the most scummy disrespectful immature thing you can do by putting someone nudes on the internet let me find out'
p1749
aS'if i find out who did that there getting fucking roasted'
p1750
aS'dm me'
p1751
aS'gab'
p1752
aS'mah nigga terrible i have 40s and 50s'
p1753
aS'lmfaoooo'
p1754
aS'i meant irl lol'
p1755
aS'i wanted to see how many people know who she is because i know her url lmfaooo'
p1756
aS'does anyone know who giovanna plowman is'
p1757
aS'new york is full of sluts'
p1758
aS'literally just saw hunter moore retweet a girl i know irl wut'
p1759
aS'fav if ugly'
p1760
aS'optics coach got 4k in 10 minutes i can get 10 followers in a day smh'
p1761
aS'lets playy somethingggg'
p1762
aS'why did you unfollow me '
p1763
aS'these niggas claim 3hunna but we bdk'
p1764
aS'fuck science'
p1765
aS'today stats 6 followers 5 unfollowers and followed 8 people via'
p1766
aS'i will no longer be as thirsty as i am i apologize everyone'
p1767
aS'just dm me if you want to talk tbh'
p1768
aS'id cry'
p1769
aS'is that trig'
p1770
aS'does anyone have a kik or snapchat or phone bc bored in study hall'
p1771
aS'say that your horny af and he will not be sleeping haha'
p1772
aS'wut'
p1773
aS'girls with 2 vaginas gtgtgtgt \xf0\x9f\x98\x8d\xf0\x9f\x98\x8d\xf0\x9f\x98\x8d'
p1774
aS'see people are favoriting it i new i wasnt that thirsty lol'
p1775
aS'cuz ur a pimp'
p1776
aS'retweet if you think im the thirstiest kid on twitter fav if not i honestly dont think i am'
p1777
aS'i do get some brahhhh im just naturally thirsty idk'
p1778
aS'this dude needs to get some hes turning delusional'
p1779
aS'my teacher asked me what an ego was and then stated nick has such a big ego wut'
p1780
aS'morning '
p1781
aS'love you toolt3'
p1782
aS'you really are the thirstiest person i have ever followed'
p1783
aS'bc thirsty'
p1784
aS'srry bby kik me'
p1785
aS'someone snap chat me'
p1786
aS'snap chat meh'
p1787
aS'ill stop being weird haha im so weird tbh'
p1788
aS'im actually about to unfollow you'
p1789
aS'for what haha'
p1790
aS'any of them tbh'
p1791
aS'or marry her'
p1792
aS'or fuck her'
p1793
ag14
aS'id date her'
p1794
aS'omg the girl in my header is so hot shenbfhxikdnrbtbdjdjidid'
p1795
aS'there you go bby '
p1796
aS'someone make me laugh or something so i dont flip the fuck out in school right now'
p1797
aS'rt if ur blak'
p1798
aS'im fucking done with it you think it doesnt fucking hurt but it does this is not the time for me to get stressed out bye'
p1799
aS'what the fuck this is why i didnt want to have you in my life anymore because you just do this shit every time and think i wont care'
p1800
aS'its perf'
p1801
aS'cant wait for thanksgiving break mmm'
p1802
aS'trueeeeee'
p1803
aS'it should be illegal for me to leave my bed when its cold out and or i can still see the moon'
p1804
aS'your avigtgt'
p1805
aS'follow this beautiful ass girl'
p1806
aS'hiiii'
p1807
ag14
aS'gm'
p1808
aS'you will be my wcw when the day comes holy fuck'
p1809
aS'steel series and giveaway retweet this and follow to enter this giveaway will end the 18th'
p1810
aS'nah brah not in the song'
p1811
aS'im so fucking ugly smh'
p1812
aS'along came molly then came doobie then codeine in a styrofoam cup'
p1813
aS'i was never someones mcm fuck meeeee i forgot'
p1814
aS'i just want a girl i can cuddle and watch movies all day with is that shit too much'
p1815
aS'quote with a selfie whoever fav thinks youre hot\xe2\x80\x9d'
p1816
aS'does anyone want to play something or just chill im bored af '
p1817
aS'holy tits'
p1818
aS'someone let me get some xbox live lmao'
p1819
aS'george zimmerman was arrested again for something different fucking kill that scumbag'
p1820
aS'whats a good song'
p1821
ag14
aS'got bitches on omegle showing me there tits lol'
p1822
aS'i will in like 10'
p1823
aS'im home bitches'
p1824
aS'today stats 3 followers 2 unfollowers and followed 8 people via'
p1825
aS'whos awake tho'
p1826
aS'why do my followers not love me'
p1827
aS'hey babeee'
p1828
aS'so whos mcm will i be some1 pls'
p1829
aS'gn'
p1830
aS'hii'
p1831
aS'hii'
p1832
aS'someone skype me'
p1833
aS'oomf gt'
p1834
aS'rt if can go positive by a lot and still lose bcuz clueless'
p1835
aS'this is what you wanna see upon entering the bedroom'
p1836
aS'rack city bitch'
p1837
aS'why did you delete me broooo'
p1838
aS'what i thought'
p1839
aS'y u no luv meh'
p1840
aS'lmaoo sorry babelt333'
p1841
aS'ayeeee your back'
p1842
aS'why did you unfollow bro'
p1843
aS'why is everyone saying oh my god '
p1844
aS'yayaya'
p1845
aS'wes welker must go off'
p1846
aS'hi'
p1847
asS'2013_44'
p1848
(lp1849
S'so why dont we have school tuesday'
p1850
aS'gamer follow train 1 follow me 2 retweet this 3 follow all who retweets 4 gain followers'
p1851
aS'adrian peterson carries 3 defenders into the endzone because hes a machine mustsee'
p1852
aS'my head hurts so bad ugh'
p1853
aS'ill be online soon'
p1854
aS'mutiny brim'
p1855
aS'add me so we can set this date'
p1856
aS'maybe we can have a 3 way date'
p1857
aS'is she single'
p1858
aS'her tits are huge wow i just want to lick them'
p1859
aS'i can imagine it now shes tweaking while eating fried chicken while saying im a boss ass bitch bitch bitch'
p1860
aS' awee thats cute'
p1861
aS'that is totally ok she twerks for kfc btw so just like'
p1862
aS'damn kfc so she can twerk on me and eat fried chicken at the same time '
p1863
aS'i cant lie red heads are hot as fuck'
p1864
aS'are you a red head'
p1865
aS'that tattoo is sick'
p1866
aS'can i join you bby'
p1867
aS'is it ok if i make love to it'
p1868
aS'everyone go follow hes close to 1000 gogogo'
p1869
aS'9 away from 1000 followers help me out and rt this'
p1870
aS'your header is hilarious lmfao'
p1871
aS'omg yes'
p1872
aS'me'
p1873
aS'what map'
p1874
aS'top ten states for stds  retweet if yours is on there'
p1875
aS'that washington game tho'
p1876
aS'the bills are holding up leggo'
p1877
aS'today stats 3 followers one unfollower and followed 10 people via'
p1878
aS'sameee come chill with me'
p1879
aS'whats up '
p1880
aS'sweat pants hair tied chilling with no makeup on thats when youre the prettiest i hope that you dont take it wrong'
p1881
aS'i dont always want to text you i want to see your face'
p1882
aS'you are mean by unfollowing me k'
p1883
aS'wtf  wheres the food'
p1884
aS'a naked girl can get 100k rts how many can jesus get \xf0\x9f\x99\x8f\xe2\x9d\xa4'
p1885
aS'whos awake'
p1886
aS'heart burn ugh'
p1887
aS'like im such a nice kid and i just get disrespected so much'
p1888
aS'why the fuck does everyone hate me'
p1889
aS'now back it up beep beep like a trucker'
p1890
aS'y u always do dis '
p1891
aS'how old are you'
p1892
aS'hangoversltlt'
p1893
aS'girls that are to skinny for yoga pantsltlt'
p1894
aS'lol'
p1895
aS'15 lol'
p1896
aS'ill send you pics hit the dms '
p1897
aS'damn i just remeasured and surprisingly it grew 19 inches so its 19111'
p1898
aS'in the last minute and 30 seconds ive ben asked how big my dick is'
p1899
aS'how big yo dick'
p1900
aS'i told you 0111'
p1901
aS'no its 0111 inches'
p1902
aS'them feels soo deep '
p1903
aS'i meant marriage'
p1904
aS'do your dance on my dick girl you know you love this shit'
p1905
aS'fuck this pussy boy fuck it'
p1906
aS'date me'
p1907
aS'me babe'
p1908
aS'i am nasty at infinity ward games all i have to say is remember the name'
p1909
ag14
aS'you still playing 8s'
p1910
aS'its 1 o clock again lmfao yayy'
p1911
aS'who wants to play origins with me'
p1912
aS'the zombie map origins is so fucking hard'
p1913
aS'i will tonight babe'
p1914
aS'that new zombies map is fucking sick'
p1915
aS'just got intel that and are all playing snd 2 snd gods and the goat himself who can hit people off uh oh'
p1916
aS'heyy babe'
p1917
aS'wanna date'
p1918
aS'lets do it again me you and your friend'
p1919
aS'why'
p1920
aS'you are pretty'
p1921
aS'what do you want'
p1922
aS'heyy babe'
p1923
aS'are you fun '
p1924
aS'where are the fun people at'
p1925
aS'bout to skype with this girl shes horny gg'
p1926
aS'hi'
p1927
aS'want a massage'
p1928
aS'good morning'
p1929
aS'today stats no new followers 3 unfollowers via'
p1930
aS'hows that being thirst lmfao'
p1931
aS'lol i forgot people have school today lmao'
p1932
aS'im not shaving my pubes for a whole month'
p1933
aS'ssxpreme is hot as fuck'
p1934
aS'that ass '
p1935
aS'today stats one follower 2 unfollowers and followed 3 people via'
p1936
aS'you can get it'
p1937
aS'should i be scared your name is bigblackcockteen27'
p1938
aS'hows your day beautiful'
p1939
aS'good morning '
p1940
aS'you are awake at this point of time'
p1941
aS'dead'
p1942
aS'lmk'
p1943
aS'im hoping i dont fuck up my best mans speech'
p1944
aS'being the best man in a wedding is so stressful'
p1945
aS'done'
p1946
aS'follow this beautiful girl and help her get to 4k '
p1947
aS'31 followers from 4k rt thisamphelp me outt'
p1948
aS'this bitch trying to fuck but she on her period wut'
p1949
aS'hi'
p1950
aS'im in such a good mood \xf0\x9f\x92\x95'
p1951
aS'kik mee backk'
p1952
aS'dont think i feel like going out tonight'
p1953
aS'i willlllllll'
p1954
aS'lets do it bby'
p1955
aS'so hows everyones day '
p1956
aS'today stats 6 followers 3 unfollowers via'
p1957
aS'fan sign okokok sorry for bad handwriting lmao'
p1958
aS'nexxx is going to be fucking sick at ghosts because he was fucking sick at mw3'
p1959
aS'mutiny brim'
p1960
aS'hit the dms '
p1961
aS'bounce it bounce it im about to throw a couple thousands'
p1962
aS'you can get the dick'
p1963
aS'follow me pls'
p1964
aS'everything can fuck off today pls'
p1965
aS'day off just going to watch opticgrind'
p1966
aS'boo you whore'
p1967
aS'snap chat me babe'
p1968
aS'bitch told me to kik her and didnt respond'
p1969
aS'anyone want to play somethingggg'
p1970
aS'sarakateee is gorgeous'
p1971
aS'nudez or diee'
p1972
aS'snap chat anyone'
p1973
aS'dont die c'
p1974
aS'yeah man everyone in the community wants it to be comp rules so if they wont change it its going to be a bad game in my opinion'
p1975
aS'turn up'
p1976
aS'its going to be similar to league play its called clan wars'
p1977
aS'youre going offline'
p1978
aS'happy halloween you fucks'
p1979
ag14
aS'happy halloween \xf0\x9f\x8e\x83'
p1980
aS'lmao are you home bby'
p1981
aS'oh your mom lol'
p1982
aS'damn your going in on your sister'
p1983
ag14
aS'im always miserable now'
p1984
aS'that ignored life'
p1985
aS'yeah man i hope its good but idk'
p1986
aS'are you guys both home'
p1987
aS'so if ghosts is shit do you think we are going to stay on black ops 2'
p1988
aS'i know man kids are to happy i hope ghost is shit'
p1989
aS'i love how everyone is breaking there black ops 2 disc\xf0\x9f\x98\x82\xf0\x9f\x98\x82\xf0\x9f\x98\x82'
p1990
aS'who else stayed home today '
p1991
aS'decided to stay home from school today who wants to play something'
p1992
aS'100 dosddos prevention go outside'
p1993
aS'you are to much candy didnt you bby'
p1994
aS'happy halloween\xf0\x9f\x91\xbd\xf0\x9f\x8e\x83\xf0\x9f\x91\xbb\xf0\x9f\x8e\x8a'
p1995
aS'go home youre drunk '
p1996
aS'she rides that dick and she handles her liquor'
p1997
aS'lmk'
p1998
aS'birthday sex'
p1999
aS'because shes cute and your not so you dont get to speak to her'
p2000
aS'i dont give a fuck if she dosnt fav rt or reply im just telling you the truth brah dont argue with pretty girls'
p2001
aS'dont argue with her shes fucking beautiful you are not aloud'
p2002
aS'i need new friends on xbox who can i add'
p2003
aS'wcw'
p2004
aS'i wanna try dis'
p2005
aS'id fuck the shit out of you'
p2006
aS'im a boss ass bitch'
p2007
aS'seriously how come i cant'
p2008
aS'wait how come i cant retweet your tweets'
p2009
aS'\xf0\x9f\x98\x82\xf0\x9f\x98\x82\xf0\x9f\x98\x82 stahppp you love me'
p2010
aS'delete someone for me babe'
p2011
aS'fine i guess ill start swallowing'
p2012
aS'you are cheating on me '
p2013
aS'if i get home in time i got you babe'
p2014
aS' will you be on tonight'
p2015
aS'i cant get on right now dm'
p2016
aS'what happened beautiful '
p2017
aS'when is it'
p2018
aS'am i the only one that hates kids that talk shit about your pics but dont post any pics lmfao pussy'
p2019
aS'bye bitch boy'
p2020
aS'you arent denying it and oh yeah lets why off new york smart'
p2021
aS'2nd time i said it lmfao shut up you sound stupid and yes it is its hilarious that you dont know how to take care of yourself'
p2022
aS'it was auto correct and i guarantee you wouldnt come to where i live and say that shit please do it so i can drop you on your neck'
p2023
aS'you are scared to post a pic of yourself because you know your ugly as fuck and you probably have more acne than the other kid'
p2024
aS'let me roast you to dont talk shit to me pussy you wont dont shit your probably a small ass middle schooler that has no friends'
p2025
aS'they all got roasted so hard that they stopped tweeting me lmfao\xf0\x9f\x98\x82\xf0\x9f\x98\x82\xf0\x9f\x98\x82'
p2026
aS'lmfao i just went hard on that fan everyone check how bad i just roasted that kid'
p2027
aS'and 6 you have acne all over your face get some face was bud gg'
p2028
aS'your parents dont love you and you should just kill yourself now lmfao 4 you are a fan of me'
p2029
aS'touching the ceiling with your small ass house you broke bitch 3 you suck at everything in life'
p2030
aS'1 im 15 and i guarentee i get more pussy than your virgin ass 2 look at your avi lmfao your head is'
p2031
aS'the fuck lmfao stop let me roast the fuck out of you really quick'
p2032
aS'lmao like idk why kids talk shit like i know you are a fan but come on boi stop d riding'
p2033
aS'lol kids are getting roasted'
p2034
aS'you havent roasted me yet lmfao i know im 10 times better looking than you'
p2035
aS'haha thats all your doing is me my pics please show what you look like so i can roast you more'
p2036
aS'still waiting for you guys to tell me what problem you have with me'
p2037
aS'who are you you are a little queer not known sucky trick shotter you are terrible stop'
p2038
aS'lmfao im 15 what are you 16 guarentee you wont talk shit to me at columbus pussy'
p2039
aS'there are many people that do just stop you cant win what are you trick shotter your not known lol'
p2040
aS'ruse i roasted you and you didnt respond you have nothing to say please proceed to leave'
p2041
aS'tell me your problem with me please do it'
p2042
aS'and you are to ugly to post your self on twitter kill you fucking self pussy i rest my case'
p2043
aS'the fuck i play comp you obviously dont because most people have similar you are irrelevant pussy'
p2044
aS'why do kids talk shit when i post selfies but they have no pictures on there twitter lmfao'
p2045
aS'how am i an idiot please explain'
p2046
aS'lol i didnt have time to tweet and roast those kids haha i just roasted everyone of them and they didnt respond zipemup'
p2047
aS'oh your talking shit to nice 17 followers you ugly ass un known pussy kill your self'
p2048
aS'and i still want to know why blakes talking shit hes ugly as fuck to and hes so scared to post pics'
p2049
aS'bro why are you talking shit you are ugly as fuck you are talking shit but your to scared to post a pic of your self'
p2050
aS'im done tweeting you peasants you all are ugly un athletic fucks and to ugly to post yourself on twitter bye'
p2051
aS'yeah because you retweeting my shit and talking shit if you said that shit to my face you would get dropped on your neck'
p2052
aS'wait cmethyy who are you a little pussy trick shotter that sucks and cant get into 1k clans'
p2053
aS'exactly pussy you cant say shit about it you are probably ugly as fuck you arent fucking known ugly ass tweeting at me'
p2054
aS'i dont have to block you lmfao i dont give a fuck at least i post picture other than your ugly ass thats to pussy'
p2055
aS'i live in the ghetto and am around black people everyday i get used to it'
p2056
aS'just for you bby\xf0\x9f\x98\x98'
p2057
aS'mah nigga i dont know you stop stalking my shit you dont follow me i dont follow you get the fuck out of here'
p2058
aS'lmao pussys are retweeting my shit\xf0\x9f\x98\x82\xf0\x9f\x98\x82\xf0\x9f\x98\x82 should they be the next people to get roasted i mean i only career ended the last people'
p2059
aS'exactly pussy'
p2060
aS'you gotta problem brah'
p2061
aS'sweat roast ill give you that one \xf0\x9f\x98\x82\xf0\x9f\x98\x82\xf0\x9f\x98\x82 lmao i apologize'
p2062
aS'no go look at my pics lmfao'
p2063
aS'everyone go fav and rt my last tweetpic if you think im cute'
p2064
aS'faded i decided to dress up a little today '
p2065
aS'nah nigga'
p2066
aS'today stats 6 followers no unfollowers and followed 10 people via'
p2067
aS'ayoo shawtty let me get that \xf0\x9f\x98\x89'
p2068
aS'id do you babe\xf0\x9f\x98\x98'
p2069
aS'20 minute fire still in 20 degree temp nice'
p2070
aS'honey im guessing you guys dont like each other'
p2071
aS'forgot my head phones fucj'
p2072
aS'leggo'
p2073
aS'is for guys what basic bitches are for girls'
p2074
aS'love you to beautiful \xf0\x9f\x98\x98'
p2075
aS'what lmao'
p2076
aS'wcw \xf0\x9f\x91\x8c\xe2\x9d\xa4\xef\xb8\x8f\xe2\x98\xba\xef\xb8\x8f\xf0\x9f\x98\x98\xf0\x9f\x98\x89\xf0\x9f\x98\x8d\xf0\x9f\x98\x8a'
p2077
aS'i want people to text back fast but not too fast'
p2078
aS'damn forreal'
p2079
aS'if your a fa rt'
p2080
aS'who the fucks awake'
p2081
aS'were not arguing homie its all good'
p2082
aS'i dont know man ill just have to disagree with you but thats my personal opinion whatever going to sleep young blood peace'
p2083
aS'i meant orlando'
p2084
ag14
aS'yes did you not watch umg dallas'
p2085
aS'bruh hes top 3'
p2086
aS'you are getting followed because of those vines lmfaoooo'
p2087
aS'ill come pic you up babe lets go to the movies '
p2088
aS'nigga just said scumpii isnt an smg'
p2089
aS'scumpii is an smg wtf lmfao'
p2090
aS'wait till kobe comes back mah dude lt3'
p2091
aS'your still awake bc badass'
p2092
aS'wheres  the fuck'
p2093
aS'on xbox'
p2094
aS'today is a good day i wish a nigga would day'
p2095
aS'if you have never host booted someone on xbox yet you havent lived life'
p2096
aS'add meh bby '
p2097
aS'when people remember the little things about yougtgt'
p2098
aS'that phone callgtgt oomf'
p2099
aS'this bitch got the clap'
p2100
aS'put me in coach im ready'
p2101
aS'on some real shit though i just want a girl i can cuddle with and watch movies and take pictures with and just be cute with a tumblr girl'
p2102
aS'be right there '
p2103
aS'the fact that someone just retweeted a guys dick with a glove on it kms'
p2104
aS'omg you faved that lmfao'
p2105
aS'you never followed me on instagram '
p2106
aS'hi'
p2107
aS'she rides that dick and she handles her liquor'
p2108
aS'that song is fucking hilarious hahah refer to last tweet'
p2109
aS'my neck my back lick my pussy and my crack'
p2110
aS'what lmao'
p2111
aS'my duo is a hottie'
p2112
aS'dumb fucking slut'
p2113
ag14
aS'quote this with a selfie whoever favs thinks your hot\xe2\x80\x9d'
p2114
aS'madisyn is going to be my crush forever kkk'
p2115
aS'stop being so perfect okokok'
p2116
aS'holy shit that is literally the most beautiful girl ive ever seen'
p2117
aS'no thats not the reason i said that you are fucking perfect im not being thirsty but you are fucking gorgeous'
p2118
aS'holy fuck'
p2119
aS'still waiting for humor to add me on xbox tho'
p2120
aS'that ass in you avigtgt'
p2121
aS'everyone follow this beautiful ass girl'
p2122
aS'humor wants me'
p2123
aS'you are sending me mixed messages and i like it babe'
p2124
aS'you are going to be fucking sick on soar'
p2125
aS'sloppy headltlt'
p2126
aS'so much talent'
p2127
aS'pizza and wings baby '
p2128
aS'dick pics incoming'
p2129
aS'gta or any other game anyone give me something to do'
p2130
aS'done'
p2131
aS'i dont see a difference in my twitter'
p2132
aS'the best people give you memories'
p2133
aS'never blame anyone in your life the good people give you happiness the bad people give you experience the worst people give you a lesson'
p2134
aS'gta '
p2135
aS'ask me funny questions or serious questions im doing all '
p2136
aS'my objective is to get the whole faze roster to follow me your next'
p2137
aS'halloween is the only time you can dress like a slut and not get hated'
p2138
aS'done'
p2139
aS'2 chainz but i got me a few on'
p2140
aS'i learned to just fuck what people say or think just always be yourself'
p2141
aS'awee '
p2142
aS'80 rts and ill go to a drive through and ask when nadeshot is streaming vine'
p2143
aS'she your girl'
p2144
aS'hahahahahahahha'
p2145
aS'whats up babylt3'
p2146
aS'forreal man'
p2147
aS'she can get it'
p2148
aS'today stats 7 followers 3 unfollowers and followed 14 people via'
p2149
aS'is the only person i actually understand on this site'
p2150
aS'you can say it to me babe'
p2151
aS'yeah dude who is that'
p2152
aS'lol my b'
p2153
aS'dead'
p2154
aS'just wondering you are a cutie'
p2155
aS'im scared noq'
p2156
aS'him'
p2157
aS'i love how just roasts ever delusional e girl \xf0\x9f\x98\x82\xf0\x9f\x98\x82\xf0\x9f\x98\x82'
p2158
aS'whaddup boi i miss ya'
p2159
aS'what happened with realize someone please explain'
p2160
aS'assessment '
p2161
aS'you smell'
p2162
aS'its going down im yelling timber'
p2163
aS'so the question is which one do i hook up with'
p2164
aS'can you niggas tell me what this meant now'
p2165
aS'i know right it gets stupid sometimes'
p2166
aS'stop retweeting ugly as kids selfies on my timeline k thanks'
p2167
aS'i can fulfill her texting place'
p2168
aS'the first tweet kinda sounded like that but the second tweet made it make sence but even if it was why do they care'
p2169
aS'why do people think you are a slut for that lmfao'
p2170
aS'how old are you'
p2171
aS'do you remember me'
p2172
aS'omg stupid autocorrect it changed it to fat when i was talking to a girl fucking autocorrect'
p2173
aS'i couldnt'
p2174
aS'teach me your ways'
p2175
aS'truee that'
p2176
aS'fight meh'
p2177
ag14
aS'if you loved me you would '
p2178
aS'i am no longer horny thanks'
p2179
aS'link me to a good video pls'
p2180
aS'who would that be'
p2181
aS'because im horny to much'
p2182
aS'i know right brb killing myself '
p2183
aS'just chilling horny as fuck lmfao '
p2184
aS'theres so many hot e girls'
p2185
aS'supp cutie'
p2186
aS'hi'
p2187
aS'still awake'
p2188
aS'your face is tragic you give me diabetes and you couldnt wheel hellen keller'
p2189
aS'some1 cuddle'
p2190
aS'you did the opposite lol'
p2191
aS'someone link me something to masterbate 2 pls'
p2192
aS'dont listen to him'
p2193
aS'why is no one active what he fuckkkk'
p2194
aS'some one sext me thru snap chat'
p2195
aS'sorry ill say it nicer she is a beautiful intelligentadmirable alluring angelic appealing beauteous girl '
p2196
aS'i always tweet hoping for someone to reply but it never happens'
p2197
aS'lmao shes your girl'
p2198
aS'suck a dick bitch'
p2199
aS'she can get it'
p2200
aS'my fucking head is killing me i feel like im dying'
p2201
aS'you honestly dont need them out you are beautiful'
p2202
aS'good night cutie'
p2203
aS'done'
p2204
aS'how do you not have 6854884586 followers you are gorgeous what the fuck'
p2205
aS'40 rts for a pic of my girlfriend c'
p2206
aS'hit em with the peek a boo girls love the peek a boo \xf0\x9f\x99\x88\xf0\x9f\x99\x89\xf0\x9f\x99\x8a'
p2207
aS'1v2'
p2208
aS'this nigga woody'
p2209
aS'no we dnt'
p2210
aS'i tweeted it at them im just saying in general'
p2211
aS'masterbating'
p2212
aS'pink and dedo are literally like the perfect gaming couple i wish i were them'
p2213
aS'awee you guys are so cute '
p2214
aS'nigga i get pussy idk bout you peace bbitch'
p2215
aS'i live in riverside nigga come see me nigga foh'
p2216
aS'everything'
p2217
aS'stop saying niggas you are white you can only say that if you are ghetto and you are irrelevant to life because you suck at'
p2218
aS'ughhhhh'
p2219
aS'need 2 to run bops2 tl with me and me'
p2220
aS'not preferable'
p2221
aS'tl'
p2222
aS'i can tell you are ugly as fuck since you dont have pictures up you are irrelevant to life you suck at cod and life kill yourself'
p2223
aS'lmfao wanna play gbs doe'
p2224
aS'yeah dude search you cant fucks with my sniping sklls doe '
p2225
aS'parents dont love you and your ugly as fuck lmfao stop'
p2226
aS'my grandpas dead so its impossible for him to have diabetes at this point in time shut your pussy ass up your adopted your'
p2227
aS'i have a migraine'
p2228
aS'lmfao i dont give a fuck you just roasted your self by tweeting that comeback at me haha youre pathetic you peasant'
p2229
aS'girls with hard nipplesgtgtgt'
p2230
aS'sean dont let this happen'
p2231
aS'hahahahahahhah that was the stupidest shit i ever seen ahhaahahahah stop just leave deactivate your twitter hahahahahahaahha'
p2232
aS'if i wanted a good comeback id take some out of your sisters mouth'
p2233
aS'i really roast everyone that tries to roast me then they just stop talking lmfao'
p2234
aS'exactly pussy'
p2235
aS'holly is cute'
p2236
aS'yeah now crawl back in your hole you un athletic no named ugly fuck'
p2237
aS'on here you sit behind a computer screen and talk shit if i were to see you in real life you would get dropped on your neck'
p2238
aS'oh yeah correcting you on how to use proper english is a girl thing and yeah man im so gay at least i can post a fucking picture'
p2239
aS'hush mode pretty sure i replied k you can stop'
p2240
aS'illiterate you can just leave now'
p2241
aS'you dont like my tweets oh you could unfollow me '
p2242
aS'fav this if you would fuck me kkk'
p2243
aS'someone blow up my interactions no stupid shit tho'
p2244
aS'i hate when im horny and want to masterbate but people keep fucking walking in my room fuck'
p2245
aS'dm'
p2246
aS'follow shes hot and 1 from 1k '
p2247
aS'why is sexuality such a big thing have sex with whoever you want as long as they consent why is it such a huge thing'
p2248
aS'why did you unfollow'
p2249
aS'twitters dead'
p2250
aS'i have a second snap chat account in when i see a girl tweet snap chat me with there name i send them a dick pic'
p2251
aS'rt for a chance to win a free cod ghosts i got 3 will arrive before the release  must be following'
p2252
aS'anyone down to snap chat lmk pls'
p2253
aS'my head hurts'
p2254
aS'what lmfao'
p2255
aS'bops 2 8s meeeee'
p2256
aS'2 girls want to hook up tomorrow during school hmm'
p2257
aS'kik me bby'
p2258
aS'i added you snap chat me bby '
p2259
aS'you got a snapchat  '
p2260
aS'follow back then '
p2261
aS'okay i will in a couple minutes bby'
p2262
aS'whoo'
p2263
aS'mw2 8s me rt please'
p2264
aS'yeahhh im kinda shirtless and dont feel like getting up soo idk if you want me lmao'
p2265
aS'you are gorgeous'
p2266
aS'yuss'
p2267
aS'you are a cutieeeee'
p2268
ag180
aS'lets go babe'
p2269
aS'hmu'
p2270
aS'send me nudes kkk'
p2271
aS'i want to fuck the shit out of you'
p2272
aS'can i dm '
p2273
aS'hola'
p2274
aS'hii'
p2275
aS'i added you  snap chat me bby'
p2276
aS'you have a snap chat'
p2277
aS'your headergtgtgt'
p2278
aS'i dont like to hook up with people from my school because when you see them the next day its just awkward'
p2279
aS'yesss'
p2280
aS'im just naturally a horny person'
p2281
aS'oh lmao i was like the fuck am i getting banned for'
p2282
aS'doneeee'
p2283
aS'who me'
p2284
aS'it depresses me that im never anyones mcm like i dont want to have to ask people to do it i just want them to do it because they mean it'
p2285
aS'who wants to snapchat im shirtless '
p2286
aS'im naked'
p2287
aS'okayyy'
p2288
aS'ill follow you back cutie'
p2289
aS'hiimnicklongo'
p2290
aS'i dont understand why girls pick guys that treat them like shit over guys that treat them like princesses'
p2291
aS'follow me on instgram bby'
p2292
aS'kk i added you '
p2293
aS'is that an l or and i'
p2294
aS'oh haha i thought it was only me i got sad add me on xbox bby'
p2295
aS'ill join you'
p2296
aS'i love when people try to diss then he just retweets it and thefamily just attacks that persons flaws lmao'
p2297
aS'do you have a snap chat'
p2298
aS'damn hunter moores gonna fuck you lmao'
p2299
aS'i hate when people i dont like try to talk to me bitch gtfo'
p2300
aS'why did you unfollow me though'
p2301
aS'retweet if one of your followers pussy stinks'
p2302
aS'when cute people unfollow me i get so sad '
p2303
aS'i was being nice to '
p2304
aS'mhm'
p2305
aS'wowww sweet unfollow '
p2306
aS'hahahahahahahhahahaha who did she fuck'
p2307
aS'someone get me like 30 retweets on that tweet pls'
p2308
aS'damn i did not expect to get 6 haha'
p2309
aS'you must be stalking me how did you man'
p2310
aS'true man'
p2311
aS'a fan sign im writing your sign on my abs  gogogo'
p2312
aS'ill make a tweet and if i get more than 2 retweets than ill do yours first'
p2313
aS'well do you want one lol'
p2314
aS'do you want me to'
p2315
aS'why are you so gorgeous ughhhh'
p2316
aS'ill put your on my abs '
p2317
aS'am i the only one that sits in class and thinks of what they would do if a gunman just walked in'
p2318
aS'pls'
p2319
aS'can you twerk for me bby '
p2320
aS'do you twerk for catnip'
p2321
aS'this bitch got that clap lmfao\xf0\x9f\x98\x82\xf0\x9f\x98\x82\xf0\x9f\x98\x82\xf0\x9f\x91\x8f\xf0\x9f\x91\x8f\xf0\x9f\x91\x8f'
p2322
aS'look at my last tweet to save a childs life you can do it please dont do it for me do it for the children'
p2323
aS'save a child foundation reply to this tweet saying hi to help 1 little white boy thats skipping class to be in the bathroom on twitter'
p2324
aS'hoe shut the fuck up'
p2325
aS'today stats 7 followers 10 unfollowers and followed 15 people via'
p2326
aS'whats up gorgeous '
p2327
aS'oh really'
p2328
aS'danii is hot'
p2329
aS'im fucking freezing'
p2330
aS'lol'
p2331
aS'no idea lok'
p2332
aS'why does everyone think shes ugly shes hot as fuck'
p2333
aS'awee you like nihill '
p2334
aS'random boners in classltlt'
p2335
aS'fight me nigga'
p2336
aS'espn'
p2337
aS'save me'
p2338
aS'you are gorgeous holy fuck'
p2339
aS'im very scared'
p2340
aS'rape'
p2341
aS'some old guy just sat next to me in tim hortons and is trying to talk me brb killing myself'
p2342
aS'why am i so ugly smh'
p2343
aS'just me amp you against the world baby'
p2344
aS'i hate this entire website\xe2\x80\x9d\xf0\x9f\x98\x82\xf0\x9f\x98\x82\xf0\x9f\x98\x82'
p2345
aS'haha why'
p2346
aS'nah i live in buffalo ny'
p2347
aS'what school do you go to lmfao'
p2348
aS'\xf0\x9f\x98\x82\xf0\x9f\x98\x82\xf0\x9f\x98\x82'
p2349
aS'yeah dude i just looked at the avi what is life'
p2350
aS'thats a guy brb unfollowed kms'
p2351
aS'im skipping 1st period bc bad ass'
p2352
aS'pls ill luh yew 4evuh'
p2353
aS'why arent you following me '
p2354
aS'can i be yours bby'
p2355
aS'can i be someones mcm pls'
p2356
aS'my phone just froze and there was a girl fingering herself on it and i couldnt get off of it lmfao'
p2357
aS'nahh'
p2358
aS'fineee ill send it to you later'
p2359
aS'im going in late'
p2360
aS'break fast sandwich nig'
p2361
aS'yeah want to see it'
p2362
aS'getting tim hortons bitches'
p2363
aS'luh yew gorgeous'
p2364
aS'\xf0\x9f\x98\x82\xf0\x9f\x98\x82\xf0\x9f\x98\x82 i do it all the time tho'
p2365
aS'what you never did it lol'
p2366
aS'i dont understand why guys disrespect girls for no reason like its not even funny'
p2367
aS'good morning beautiful dont worry about that faggot you are gorgeous'
p2368
aS'whats wrong with that lmfao'
p2369
aS'hahahahahahahahaha'
p2370
aS'y u no luv meh'
p2371
aS'the things i would do to you'
p2372
aS'be right there bby'
p2373
aS'what sucks more than going to school is going to school with no headphones'
p2374
aS'good morning bby'
p2375
aS'alright good night '
p2376
ag14
aS'someone let me cop there brazzers account'
p2377
aS'i need someone to sext'
p2378
aS'im masterbating then going to sleep okok'
p2379
aS'or not'
p2380
aS'how about you snap chat me then we can figure this out later '
p2381
aS'good night bby '
p2382
aS'you should follow me back hmmmm okokok'
p2383
aS'lmao i thought we were starting a trend c'
p2384
aS'hola'
p2385
aS'hi'
p2386
aS'why is it that im always so horny at night'
p2387
aS'let me get your  '
p2388
aS'your assgtgt'
p2389
aS'who wants to snap chat or kik something lmao just fav or me and ill hyu '
p2390
aS'snap chat me babe'
p2391
aS'get naked or gtfo'
p2392
aS'snap chat me back '
p2393
aS'hop up on this dick and do a full split'
p2394
aS'hahahah'
p2395
aS'hahhaha in kidding omfg'
p2396
aS'lmfao i knew it how old are you really'
p2397
aS'damn you look younger haha'
p2398
aS'man these hoes take my money and i take they virginity'
p2399
aS'i really cant lie i was the man when i started ill be the man till i die'
p2400
aS'i waited my whole life to be the man of the hour'
p2401
aS'how old are you'
p2402
aS'let me hit them dms '
p2403
aS'follow back fagggggg'
p2404
aS'want me to start up some i was just in one with miyagi and everyone but they all got off'
p2405
aS'follow back homie'
p2406
aS'mw2 money teammmmmmm'
p2407
aS'lmao '
p2408
aS'why did you switch accunts back lol'
p2409
aS'what happened '
p2410
aS'omggg i just dropped there special teams brb killing myself'
p2411
aS'what happened i just got home and missed it'
p2412
aS'orrrr not '
p2413
asS'2013_45'
p2414
(lp2415
S'oh yeah it didnt your right smh'
p2416
aS'im not going to argue and bring up the games you did bad and when i shit on you on blitz and you got turned on gg'
p2417
aS'today stats 11 followers 2 unfollowers and followed 10 people via'
p2418
aS'youre'
p2419
aS'football gt'
p2420
aS'fav if you are still awake'
p2421
aS'you are to difficult'
p2422
aS'click play on the song'
p2423
ag14
aS'the latent meaning is that it is an anthem to listen to while having sex ie a fucking anthem'
p2424
aS'you seriusly dont get it'
p2425
aS'follow meh bby'
p2426
aS'i know right '
p2427
aS'lmfao'
p2428
aS'i just got called weak sauce kms'
p2429
aS'this the fucking anthem get it the fucking anthem'
p2430
aS'delete some one for me bby lt3'
p2431
aS'follow hes good at ghosts and is a rising am follow him for 400 '
p2432
aS'lmao they talked shit the 2 first games i did bad then i got my shit together and they didnt say shit'
p2433
aS'i just went from smacking kids in 8s to getting smacked lmao'
p2434
aS'joins game gets spawned killed goes 07 gets turned on by leaves game and cries'
p2435
ag14
aS'you are sleeping'
p2436
aS'rt if you teamnosleep'
p2437
aS'so what are the mlg rules for ghosts'
p2438
aS'need 1 for gbs'
p2439
aS'what '
p2440
aS'tl or 8s anyone'
p2441
aS'add me back cutie'
p2442
aS'i miss you '
p2443
aS'your fl is full'
p2444
aS'lmao its good i got you again hold up'
p2445
aS'delete mutiny brim and add the new account i just added you with'
p2446
aS'why are you so good '
p2447
aS'kk i added you'
p2448
aS'whats your gt ill just add you'
p2449
aS'grim the goat '
p2450
aS'i almost made it'
p2451
aS'add me on xbl bby'
p2452
aS'heyy cutie'
p2453
aS'rt for a 48hr code'
p2454
aS'delete someone so i can add you on my new account babe'
p2455
aS'babe dm'
p2456
aS'hahaha'
p2457
aS'is that a sexual term'
p2458
aS'smd'
p2459
aS'wut'
p2460
aS'im about to sleep lol im tired gn'
p2461
ag14
aS'am i cute'
p2462
ag14
aS'hes so good i have him to bro'
p2463
aS'calvin johnson is so fucking good holy fuck'
p2464
aS'no lie no lie no lieeeeee'
p2465
aS'lmfao'
p2466
aS'now fuck dat bitch'
p2467
aS'jump wont add meh kms i need my friends list back thats my goal'
p2468
aS'verizon dont work for you know more niggaaaa'
p2469
aS'lol why did you block me'
p2470
aS'why you unfollow me '
p2471
aS'do my dance on your dick ooh you know you love this shit'
p2472
aS'i look like a fucking d rider right now \xf0\x9f\x98\x82\xf0\x9f\x98\x82\xf0\x9f\x98\x82'
p2473
aS'i keep coughing hard as fuck hate being sick'
p2474
aS'damn im spamming the fuck outta people i gotta chill lmfao srry people'
p2475
aS'like is a beach and im just playing in the sand'
p2476
aS'i did brah mines grim the goat'
p2477
aS'hold up hold up hold up talk to the handddddd'
p2478
aS'well this is overly accurate'
p2479
aS'kms'
p2480
ag14
aS'omg why is it so hard for people to fucking accept the friend request and delete brim like idk'
p2481
aS'delete mutiny brim and add my new account grim i added you with'
p2482
aS'lmfao stop'
p2483
aS'delete mutiny brim and add my new account grim i added you with'
p2484
aS'yeah brim wouldnt let me sign into so i made grim and everyone gave me shit for brim lmao'
p2485
aS'poli babe delete mutiny brim and add the new account grim i just added you on'
p2486
aS'holy shit the grind to get all my friends on my new account is real'
p2487
aS'im trrble'
p2488
aS'shuddup'
p2489
aS'tell me when you do '
p2490
aS'i did lol'
p2491
aS'brah add grim its my new gt'
p2492
aS'nigga i did lmao you have to accept it'
p2493
aS'delete brim and add my new account'
p2494
aS'stop playing forreal add me'
p2495
aS'y u no luv me '
p2496
aS'delete mutiny brim and add grim'
p2497
aS'delete mutiny brim and add my new one i just added you bby'
p2498
aS'new gt is grim the goat add me'
p2499
aS'shes a cutie isnt she'
p2500
aS'when nex and bezo argue its the funniest shit ever'
p2501
aS'donee'
p2502
aS'lmk bby'
p2503
aS'some1 shout me out k thanks'
p2504
aS'this nigga just said im weird dead'
p2505
aS'heres where my interactions get blown the fuck up'
p2506
aS'omg im saying dont talk shit to mah boys what dont you comprehend'
p2507
aS'im dead ass'
p2508
aS'lmfaoooooo stopppppp i was good i went to page so many times and i was known as fuck then went to bops2'
p2509
aS'well anyways dont talk shit to mah mans motive or they are mah bois'
p2510
aS'check texts'
p2511
aS'what was my gt at the time was it blunt or assessment i think assessment'
p2512
aS'i dont remember my gt at the time but i was so known on that game lmfao'
p2513
aS'lmfaooooooooooooooooooooo'
p2514
aS'yeah i remember the other honors one was good that was on my friends list the other 2 were ass lmfaooooo'
p2515
aS'nah forreal is it'
p2516
aS'im not that ghetto'
p2517
aS'is this the honored from mw2 days'
p2518
aS'omg brah think of something for me'
p2519
aS'only if you followed me too '
p2520
aS'omg how about blank '
p2521
aS'os that really gay lol idk im drawing blanks'
p2522
ag14
aS'i like grim'
p2523
aS'hmm what if i change it to grim how does that look'
p2524
aS'someone give me a good 45 letter gt its ok if the gamertag is already taken'
p2525
aS'hows that gay lol'
p2526
aS'im going back to the gt blunt'
p2527
aS'making a new xbox live account ill add everyone'
p2528
aS'but seriously though can someone please be chill and give me a 2 day trial please retweet i havent been able to play all day'
p2529
aS'omg yesss'
p2530
aS'tga brim'
p2531
aS'what happened '
p2532
aS'haha you good brah just play it off lmao'
p2533
aS'because your hot af'
p2534
aS'1200 followers in a day seems legit'
p2535
aS'yeah follow me thats a start'
p2536
aS'i know man my dicks so small'
p2537
aS'niggayougay'
p2538
aS'im going to do this i dont even care'
p2539
aS'i almost shit myself just watching this'
p2540
aS'dw i dont judge equalrights'
p2541
aS'lmfao'
p2542
aS'lmao shut up'
p2543
aS'seeing girls trying to twerk but cant is the most frustrating thing ever'
p2544
aS'i was like its time'
p2545
aS'what happened bro'
p2546
aS'strikezone vs dome via rcodcompetitive'
p2547
aS'its funny how you dont hear the term top am anymore because the people who said it were people who had below 15 ping then ghosts came'
p2548
aS'who should i follow for my 200th follow '
p2549
aS'lmao i cant even get on xbox at the moment soo '
p2550
aS'come here with that ass baby girl i want you to play with my nuts your man irritates you but he can suck his own dick the fucking idiot'
p2551
aS'okay guys my next tweet is going to be what kendrick llamar says in collard greens be prepared'
p2552
aS'look at my next tweet'
p2553
aS'noo i found out the actual meaning just now'
p2554
aS'dead ill cry im going to holy shit'
p2555
aS'just found out what kendrick llamar is saying when hes speaking spanish in collard greens oh my'
p2556
aS'hahahah'
p2557
aS'ohh luxury chidichingching could buy anything cop that oh collard greens three degrees low make it hot for me drop that'
p2558
aS'lmfaoooo greatest thing ever'
p2559
aS'lmao my new name thooo'
p2560
aS'mr steal yo e girl'
p2561
aS'leggo'
p2562
aS'its just sitting there waiting lonely'
p2563
aS'lt3'
p2564
aS'damn 32 favs in 1 minute im not getting a follow lmfao'
p2565
aS'catch me on the block strapped up boi fuck with it nigga'
p2566
aS'some1 let me get there xbox live account pls'
p2567
aS'follow me '
p2568
aS'lol if you do an you buy it first lmfao'
p2569
aS'some 1 order me pizza pleaseeee'
p2570
aS'ayee mah mans hurry up we were the best at infinity ward games i need you back'
p2571
aS'come home duo'
p2572
aS'too jelly of rn'
p2573
aS'kk gawgeous '
p2574
aS'whys she playin box and what not haha shes too hot for the internet'
p2575
aS'mutiny brim'
p2576
aS'add me on xbox bby'
p2577
aS'right dude'
p2578
ag14
aS'it would be hilarious if clerk went to a lan nigga would get his shit ran by everyone'
p2579
aS'someone buy me a pizza'
p2580
aS'do you ever just meet one person and at first it is awkward then you start talking amp its like holy shit where have\xe2\x80\xa6'
p2581
aS'lol'
p2582
aS'do you get bullied irl'
p2583
aS'a lot of people do faggot'
p2584
aS'faze spacely is gonna be nasty at ghosts remember who said it'
p2585
aS'please '
p2586
aS'tweet for me and see if any of your followers have one pls bby'
p2587
aS'babe dont get on xbox get on me instead '
p2588
aS'y u unfollow '
p2589
aS'girls are always so observable and always pick out the little things'
p2590
ag14
aS'want to trade'
p2591
aS'oooh it wont let me use the 7 day trial because i have a gold trial already but its fucked up ill trade my 7 day for a 2 day'
p2592
aS'why doesnt the 7 day trial work the one that comes with call of duty ghosts'
p2593
aS'can you like ask your followers if they do'
p2594
aS'i always find something wrong you been putting up with my shit just way too long im so gifted at finding what i dont like the most'
p2595
aS'lets have a toast for the douchebags lets have a toast for the assholes lets have a toast for the scumbags'
p2596
aS'anyone have paypal'
p2597
aS'i know right'
p2598
aS'what the fuck is this thing hahaahha \xe0\xa5\x82\xe2\x80\xa2\xe1\xb4\x97\xe2\x80\xa2\xe0\xa5\x82\xe2\x9d\x81 \xe0\xa5\x82\xe2\x80\xa2\xe1\xb4\x97\xe2\x80\xa2\xe0\xa5\x82\xe2\x9d\x81 \xe0\xa5\x82\xe2\x80\xa2\xe1\xb4\x97\xe2\x80\xa2\xe0\xa5\x82\xe2\x9d\x81 \xe0\xa5\x82\xe2\x80\xa2\xe1\xb4\x97\xe2\x80\xa2\xe0\xa5\x82\xe2\x9d\x81 \xe0\xa5\x82\xe2\x80\xa2\xe1\xb4\x97\xe2\x80\xa2\xe0\xa5\x82\xe2\x9d\x81'
p2599
aS'plssss'
p2600
aS'mah nigga i need xbl can you help me pls ill love you forevrerrr'
p2601
aS'jump help me pls babe'
p2602
aS'fuck you guys to'
p2603
aS'hi rt'
p2604
aS'with me '
p2605
aS'it doesnt work for some reason give me yours pls'
p2606
aS'omg pls some1 give me xbox live ily4ever'
p2607
aS'dm'
p2608
aS'this kid needs a 48 hour or something please rt'
p2609
aS'i thought i had friends obviously none of you will retweet my last tweet so kms '
p2610
aS'if you have a 48 hour or something please me retweet please to help a lonely child with no xbox live '
p2611
aS'hahahaha i love you'
p2612
aS'ejaculation the one time a male says the words i love you and really means it'
p2613
aS'you are disgusting lmfao'
p2614
aS'ill give you my 7 day trial because it wont work for me for some reason so yeah'
p2615
aS'dude can you please hmu with the code ill love you forever'
p2616
aS'does anyoneee have xbox liveeeee plsss rt'
p2617
aS'lol i hung up'
p2618
aS'what the fuck'
p2619
aS'damn bitch moaning for me on the phone lmao shes fingering herself'
p2620
aS'damn mah girl ssxpreme going in'
p2621
aS'today stats 5 followers one unfollower and followed 14 people via'
p2622
aS'icky icky icky'
p2623
aS'like someone blow up my interactions'
p2624
aS'why the fuck is twitter dead right now'
p2625
aS'can i have friends pls'
p2626
aS'you gon get some dick tonight'
p2627
aS'say hiii'
p2628
aS'someone talk to me'
p2629
aS'only if i was hot '
p2630
aS'bitches that are to skinny for yoga pants lt'
p2631
aS'ill be right there '
p2632
aS'nicklongosexy'
p2633
aS'im in a sex mood'
p2634
aS'no ones home time to have a party tonight '
p2635
aS'whats wrong cutie '
p2636
aS'i love when lots of people unfollow you when you havent been on in a few days due to being ill'
p2637
aS'does anyone have xbox live'
p2638
aS'yesssssss'
p2639
aS'sorry haha'
p2640
aS'if you are a girl and i follow you you are most likely hot as fuck'
p2641
aS'this is to hard idk how to work that 7 day trial can someone please just hmu with like a 2day or month or some shit ill play you back soon'
p2642
aS'okay this is a shitty ass bet but if this gets 250 rts i have to change my gt to macys bitch'
p2643
aS'when i type the code in it just says its invalid and it wont let me sign in'
p2644
aS'wait so i have to put in the first code then go to the next screen then put in the 7 day trial'
p2645
aS'what do you mean'
p2646
aS'can someone give me some xbox live my 7 day trial didnt work in my call of duty and im fucked please someone hook me up with some xbl '
p2647
aS'im alone who wants to just talk in a party with me me ill inv you'
p2648
aS'strep throat lt'
p2649
aS'i dont recall sending you one'
p2650
aS'ven aqui mami ese culo tu quiero coger mi huevos y papi molestes pero chuparse puto pendejo el pinche cabron lets get it'
p2651
aS'you are cute lets date'
p2652
ag14
aS'come here then '
p2653
aS'luv'
p2654
aS'you cant give mah mans the k'
p2655
aS'yeah bro its good it was funny but i just got mad because i got a lot of shit going on right now but its good homie'
p2656
aS'its goodlt3 lol'
p2657
aS'i knnow '
p2658
aS'follow now even tho shes mean'
p2659
aS'mhmm i want this'
p2660
aS'get me someeeee'
p2661
aS'rt if we should go snag some chipotle'
p2662
aS'who wants to chill in a party wiff me im bored'
p2663
aS'forget the haters dont miss 8 of the top starcraft ii players battle nov 2324th battlegroundsnyc'
p2664
aS'i wish a lot of this gaming community actually respected me like idk what i do to make people dis respect me'
p2665
aS'whateverrrr just going to do somethiing to get this shit off my mind again'
p2666
aS'lmk'
p2667
aS'like i got mad people right now just trying to fuck up my day so far like this morning a few hours a go and now just leave me alone'
p2668
aS'some shit is funny but when people always tweet and say that have been going through a tough week you shouldnt fuck with them its fucked up'
p2669
aS'not even gonna reply to un known kids like who are you just stop'
p2670
aS'and im just trying to get that shit off my mind but everyone just wants to fuck with me so idgaf'
p2671
aS'mhm im just going to ignore it and not start a big fight because i already have a lot of shit going on that has ruined my week'
p2672
aS'done with bull shit from now on'
p2673
aS'what'
p2674
aS'i already had a bunch of bad shit happening this week to me i dont give a fuck anymore'
p2675
aS'nah that shit was dirty af but its whatever'
p2676
aS'i just got trolled so fucking hard kms lmfao \xf0\x9f\x98\x82\xf0\x9f\x98\x82\xf0\x9f\x98\x82'
p2677
aS'check dms'
p2678
aS'i made her orgasm u didnt nuff said'
p2679
aS'\xf0\x9f\x98\xa9\xf0\x9f\x98\xa9\xf0\x9f\x98\xa9 did not want to here that lmfao but she didnt get this dick yet nigga'
p2680
aS'i already slid in the dms man you cant stop it now'
p2681
aS'today stats 2 followers 8 unfollowers and followed 2 people via'
p2682
aS'do not know how to respond to that'
p2683
aS'time for me to slide in your dms tho \xf0\x9f\x98\x89'
p2684
aS'only fear i have is world star being screamed from my blind side'
p2685
aS'good morning'
p2686
aS'can we take cute picture of my hands in your pants amp you grabbing my ass pls'
p2687
aS'im getting sick'
p2688
aS'hes so perfect bitch you only knew him for a day'
p2689
aS'i feel the love bane '
p2690
aS'hmuuu im bored lol'
p2691
aS'tl bby'
p2692
aS'need 1 for tl me'
p2693
aS'im in love with a stripper'
p2694
aS'tl anyone need 12'
p2695
aS'lmao i h8 u'
p2696
aS'i havent even totally played ghost yet and im doing average in 8s watch out for yah boy'
p2697
aS'anyone want to play pubs or 8s wiff me '
p2698
aS'd8 me'
p2699
aS'52'
p2700
aS'he didnt eat at school today'
p2701
aS'molly'
p2702
aS'checking in on clone drake'
p2703
aS'tornado'
p2704
aS'i was doing bad in 8s then i put stalker on'
p2705
aS'where do you live'
p2706
aS'tbag the person u kill'
p2707
aS'so who else hates ghosts'
p2708
aS'just tore something in my fucking shoulder there goes my training for sports'
p2709
ag14
aS'today stats 11 followers one unfollower and followed 12 people via'
p2710
aS'i want to kms\xe2\x80\x9d same'
p2711
aS'you ass flatter than the back of my head'
p2712
aS'fuck her in the ass every time im in a bad mood'
p2713
aS'youre going to suck my dick right '
p2714
aS'dammit mom'
p2715
aS'dont be ditching on me tho brah i need to play with my duo again '
p2716
aS'im just so fucking lucky your my girl'
p2717
aS'wanna do throw back games or like ghosts or bops 2'
p2718
aS'retweet if you follow back\xe2\x80\xa6'
p2719
aS'tl today babe'
p2720
aS'im just in a pissed off mood today if im nice to you i must really like you'
p2721
aS'this game is fucking broken'
p2722
aS'like just admit it lol'
p2723
aS'i still cant believe no girl admits to ever master bating i wonder if there being honest lol'
p2724
aS'what happened'
p2725
aS'fav for sex'
p2726
aS'i will later im about to be in school'
p2727
aS'just dm if you will okok'
p2728
aS'on some real shit not trying to sound like a pussy but who can i honestly vent to right now i have a lot of shit going on and need someone'
p2729
aS'where them crazy girls at that do everything'
p2730
aS'chilling with me in a party gtgt'
p2731
aS'so dont tell me you love me you are going to make it to hard for me'
p2732
aS'you werent joining my party yesterday '
p2733
aS'the hardest part in life is seeing someone you like like like someone else'
p2734
aS'heyy cutie'
p2735
aS'rt to make dead silence actually silent'
p2736
aS'good morning'
p2737
aS'ok srsly gn'
p2738
aS'they cant do fucking jack shit from a tweet about there money hungry selves'
p2739
aS'lol'
p2740
aS'i meant perf lmao but ily2 be mine pls'
p2741
aS'gets banned from gb'
p2742
aS'if you can show me a girl that says they have master bated before and is proud of it ill release my nudes ok gogogo'
p2743
aS'all i see is dollar signs'
p2744
aS'lt3'
p2745
aS'you are pert omg'
p2746
aS'why does every girl say that they have never masterbated before this is a serious question im yet to meet a girl that says they have'
p2747
aS'ok thankss'
p2748
aS'i got you with a follow homie'
p2749
aS'what do you smoke'
p2750
aS'is the msbs banned'
p2751
aS'click on the tweet then click details uts to the left next to the date and shit'
p2752
aS'good night'
p2753
aS'so sick of everything'
p2754
aS'gotta sign on my dick that says bad bitches only'
p2755
aS'dm '
p2756
aS'whos still awake'
p2757
aS'heyyyyy'
p2758
aS'blunt blowin polo draws showin'
p2759
aS'keeeeeevvvvviiiiinnnn'
p2760
aS'inv bby'
p2761
aS'someone entertain me'
p2762
aS'i added you bby '
p2763
aS'retweet if you like hot red heads'
p2764
aS'yesss'
p2765
aS'thats fucked up'
p2766
aS'your welcome bby'
p2767
aS'the problem is i care way to much about people who dont give a shit about me'
p2768
aS'basically what i was trying to say was i love you'
p2769
aS'that was the most meaningful text message i think i have ever sent'
p2770
aS'im about to punch a fucking wall'
p2771
aS'lmk brah'
p2772
aS'that hurt me a lot'
p2773
aS'lol your going hard on this girl'
p2774
aS'i can see youre sad even when you smile even when you laugh i can see it in your eyes deep inside you want to cry'
p2775
aS'anyone in 8s'
p2776
aS'i didnt feel like going out to dinner now im hungry as fuck'
p2777
aS'ur messenged killed me bro\xf0\x9f\x98\x82\xf0\x9f\x98\x82'
p2778
aS'\xf0\x9f\x98\x82\xf0\x9f\x98\x82\xf0\x9f\x98\x82\xf0\x9f\x98\x82\xf0\x9f\x98\x82\xf0\x9f\x98\x82 that shit was hot right'
p2779
aS'got you brah'
p2780
aS'moneyteam'
p2781
aS'these niggas claim 3hunna but we bdk'
p2782
aS'just went off in 8s lmfao'
p2783
aS'what happened'
p2784
aS'lmao'
p2785
aS'i did inv me'
p2786
aS'yeah'
p2787
aS'lets just all get it out call of duty ghosts sucks'
p2788
aS'hmu'
p2789
aS'im the god father okokok'
p2790
aS'if you want to hear more singing join my party im leaving it on open  leave me comments'
p2791
aS'soooo who liked the song  if you didnt listen to it you def have to go to your messages and fucking listen to it and rate me'
p2792
aS'i hope you guys like my song '
p2793
aS'oh yes'
p2794
aS'im sending every one a message of me singing gg'
p2795
aS'i know you seen that friend request babe'
p2796
aS'im bored so if i message you with some stupid shit im sorry'
p2797
aS'i know the maps i went through all of them'
p2798
aS'hahahhah nah my sisters boyfriend was playing all night when i was sleeping'
p2799
aS'what'
p2800
aS'assss'
p2801
aS'bahamas is beautiful i only get internet at dunkin donuts so ya i go once a day dont be worried im still here'
p2802
aS'tl anyone'
p2803
aS'yeah it keeps freezing i wont be able to turn on randoms when they are using op guns'
p2804
aS'hey is your internet messing up while youre playing'
p2805
aS'does fios work with call of duty ghosts'
p2806
aS'8s anyone'
p2807
aS'my xbox just froze what the fuck illuminati'
p2808
aS'                              \xe2\x80\xa6'
p2809
aS'lol is that the new slang'
p2810
aS'happy birthday'
p2811
aS'anyone wanna play pubs with me'
p2812
aS'i hate when girls are clingy like hop the fuck off my dick'
p2813
aS'just got out of lunch mmm i miss it'
p2814
aS'heyy babes'
p2815
aS'yet again dont call me an am if you are still an am thank you very much'
p2816
aS'i did'
p2817
aS'today stats 3 followers 2 unfollowers and followed 3 people via'
p2818
aS'dm'
p2819
aS'hii'
p2820
aS'hi cuties'
p2821
aS'yo'
p2822
aS'wcw'
p2823
aS'ive never popped a molly but i fucked a couple models in europe yupp and a couple of them swallowed  tyler the creator'
p2824
aS'welcome bby'
p2825
aS'im just going to play as much cod as i can when i get out of this hell hole'
p2826
aS'heyy gorgeous '
p2827
aS'wcw'
p2828
aS'back2bops2'
p2829
aS'ghosts were a let down'
p2830
aS'wcw'
p2831
aS'put it down on mee'
p2832
aS'\xf0\x9f\x98\x98\xf0\x9f\x98\x8a\xe2\x9d\xa4\xef\xb8\x8f\xf0\x9f\x92\x9c\xf0\x9f\x92\x99'
p2833
aS'wcw'
p2834
aS'wcw'
p2835
aS'wcw'
p2836
aS'wcw even tho she unfollowed me'
p2837
aS'get 100 followers then you can respond to me peasant'
p2838
aS'who wants to be my wcw  '
p2839
aS'honestly in my opinion i dont think this game will fit in the competitive scene'
p2840
aS'im tired as fuck'
p2841
aS'what about nick'
p2842
aS'hiiii'
p2843
aS'you can twerk doee'
p2844
aS'heyy cutie '
p2845
aS'do i know you'
p2846
aS'dont call me an am if you an am too lmfao'
p2847
aS'this game is already pissing me off'
p2848
aS'search and rescue pisses me off'
p2849
aS'wait so what are the official mlg rules and maps for ghosts'
p2850
aS'mutiny brim'
p2851
aS'add me bby'
p2852
aS'ghosts'
p2853
aS'oooh kllem'
p2854
aS'ip address 1845823128  ip to location  ip to country hostname domain cont'
p2855
aS'quick someone for call of duty ghosts what disc do i put in first '
p2856
aS'titties'
p2857
aS'lets go bitches just got home'
p2858
aS'retweet if you dont have aids'
p2859
aS'going to get shit off my mind and play football taking all my anger out today ill see you guys later'
p2860
aS'you should text me all day '
p2861
aS'hiii'
p2862
aS'today stats 2 followers 3 unfollowers and followed 3 people via'
p2863
aS'f u'
p2864
aS'okay bby dm me im bored af'
p2865
aS'mutiny brim'
p2866
aS'thats good haha add me on xbox'
p2867
aS'good hows your day cutie '
p2868
aS'good morning bby '
p2869
aS'what are some funny jokes'
p2870
aS'hi'
p2871
aS'lol all you losers have school today lmao'
p2872
aS'heyy big girl back it up'
p2873
aS'that 1 burst tho'
p2874
aS'you never added me babe '
p2875
aS'you are awakeee'
p2876
aS'fuckk i have to wait until 2 to get the game fuck'
p2877
aS'heaven'
p2878
aS'no fun people'
p2879
aS'whos fun that wants to play'
p2880
aS'thanks bae '
p2881
aS'i get so mad when people unfollow me'
p2882
aS'why did you unfollow me'
p2883
aS'someone get me followers pls'
p2884
aS'just won my fantasy game by 1 point holy fuck shitting myself'
p2885
aS'id date you'
p2886
aS'side boobsgtgt'
p2887
aS'rt if you dont have ghosts yet'
p2888
aS'alluhsun is hot'
p2889
aS'getkickedbcgay'
p2890
aS'hahahahaah'
p2891
aS'eddie lacy goes clutch'
p2892
aS'lmkk'
p2893
aS'swaq'
p2894
aS'im sorry bby '
p2895
aS'oh my im done thats like the worst thing that couldve happened to you lol'
p2896
aS'im down by 34 in my league and i have lacy boykin bennet and packers defense plus cobbs out so boykin gets more receptions'
p2897
aS'james jones you should be fine as long as nelson dosnt go huge does your league count receptions as points'
p2898
aS'did you guys win '
p2899
aS'am i the only one not going to midnight release or'
p2900
aS'eddie lacy has to go big or i lose fuck lol'
p2901
aS'taking a shit during a gb match hopefully they win'
p2902
aS'hmu to play some time man i miss yoult3'
p2903
aS'what happened to you'
p2904
aS'heyy babe'
p2905
aS'nooooooooo mr steal yo e girl'
p2906
aS'i no bc i suk pusc'
p2907
aS'bops 2 gbs'
p2908
aS'good thinking my mom needs to know when i talk to my first girl'
p2909
aS'yeah join my party'
p2910
aS'when'
p2911
aS'with who'
p2912
aS'mw3 is so bad'
p2913
aS'your friends list is full'
p2914
aS'mac n cheese mmm'
p2915
aS'mutiny brim'
p2916
aS' you never added me '
p2917
ag14
aS'y u no luv me '
p2918
aS'which was me '
p2919
aS'ok'
p2920
aS'im on where you at'
p2921
aS'thhat songs so good lol'
p2922
aS'dead'
p2923
aS'we are going to play together first okay babe'
p2924
aS'a kid came up to me and said you have an alligator on your shirt does that make you gay and his friend goes thats lacoste you fucking idiot'
p2925
aS'today stats one follower 4 unfollowers and followed 3 people via'
p2926
aS'hahahahahahah \xf0\x9f\x98\x82\xf0\x9f\x98\x82\xf0\x9f\x98\x82'
p2927
aS'quote this with the 6th picture in your phone'
p2928
aS'wobble baby wobble baby wobble baby wobble yeah'
p2929
aS'my head hurts so bad right now in this geometry class'
p2930
aS'nigggggaaaaaaaaaaa'
p2931
aS'and u need dick in order to give someone else the dick so i got u '
p2932
aS'and u need dick in order to give someone else the dick so i got u \xe2\x80\x9d oh i love you'
p2933
aS'is my mcm \xf0\x9f\x98\x98\xf0\x9f\x98\x8d\xf0\x9f\x98\x98\xf0\x9f\x98\x8d\xf0\x9f\x98\x98\xf0\x9f\x98\x8d\xf0\x9f\x98\x98\xf0\x9f\x98\x8d\xf0\x9f\x98\x98\xf0\x9f\x98\x8d\xf0\x9f\x98\x98\xf0\x9f\x98\x8d'
p2934
aS'my 3 babes mcm'
p2935
aS'sorry bby'
p2936
aS'jaci needs dick right now i got her\xe2\x80\x9d uh'
p2937
aS'lmfao \xf0\x9f\x98\x82\xf0\x9f\x98\x82\xf0\x9f\x98\x82'
p2938
aS'oh my god my last rt hahahahahahah'
p2939
aS'jaci needs dick right now i got her'
p2940
aS'brb growing facial hair and getting tattoos'
p2941
aS'yet another day im not anyones mcm '
p2942
aS'yeah hhaaha'
p2943
aS'i think my gt was blunt is ur at the time haaha'
p2944
aS'leggo'
p2945
aS'remember me lol'
p2946
aS'follow backk '
p2947
aS'im determined to be someones mcm tomorrow with out me asking'
p2948
aS'maybe you can be nice by following me again'
p2949
aS'need people for mw2 tl hmu'
p2950
aS'fucking head is killing meee'
p2951
aS'someone talk to my lonely ass in party chat'
p2952
aS'fuck the zombies map origins shits to damn hard'
p2953
as.