(dp0
S'2013_42'
p1
(lp2
S'good luck jo x'
p3
asS'2013_40'
p4
(lp5
S'two british drsworking in syria the devastating impact of the war on children film on youtube'
p6
asS'2013_41'
p7
(lp8
S'has anyone replaced esther mcvey as disability minister or is this another sign of how unimportant this role is to the gove\xe2\x80\xa6'
p9
aS'massive respect to for his epic trip a fantastic role model for younger wheelchair users'
p10
asS'2013_46'
p11
(lp12
S'a letter to \xe2\x80\xa6 a police officer with gratitude'
p13
aS'watching christmasinaday unfold was truly immense spreadsheet man  you are my hero'
p14
asS'2013_47'
p15
(lp16
S'thank you ladies  we had a fab choir xx'
p17
asS'2013_44'
p18
(lp19
S'watching supermarket secrets on bbc and incredibly proud to work for'
p20
asS'2013_45'
p21
(lp22
S'well done for such an inclusive ad'
p23
asS'2012_45'
p24
(lp25
S'favourite political wife ever she didnt vote too busy at work her husband lost by one vote '
p26
aS'truly amazing speech from obama goosebumps'
p27
asS'2012_46'
p28
(lp29
S'our half term courses were great fun amp children produced some brilliant work see some of the highlights on our '
p30
aS'you did it mps launch inquiry into effectiveness of legislation relating to transport for disabled peopl '
p31
asS'2012_41'
p32
(lp33
S'astonishing report from inside bloodstained hospital in aleppo by on bbc ten news'
p34
aS'working naan to five by dolly parton topofthepoppadoms'
p35
asS'2012_42'
p36
(lp37
S'twitter ive made a brief video about my attack on saturday night please please share this around '
p38
asS'2012_27'
p39
(lp40
S'that sainsburys ad with the two little boy next door neighbour mates  makes me weepy'
p41
aS'fingers crossed for the royal brompton today closing specialist paeds services would be terrible for families who rely on them sosbrompton'
p42
asS'2012_26'
p43
(lp44
S'fab hope to catch you soon maybe at jims leaving do'
p45
aS'saf  laila is so sweeet lovely to see you both in the grauniad yesterday'
p46
aS'john terry spotted on camera joining in spanish celebrations as they with euro2012'
p47
asS'2012_25'
p48
(lp49
S'twenty twenty commissioned to produce new gareth malone series  sing while you work'
p50
asS'2012_24'
p51
(lp52
S'argyll and bute council statement on school dinners blog it is an example of how not to do pr '
p53
asS'2012_22'
p54
(lp55
S'sainsbury\xe2\x80\x99s celebrates colleagues who are carers with trip of a lifetime as part of the jubilee pageant '
p56
aS'100 carers who work at sainsburys on a boat in the pageant to thank them for amazing efforts at work amp'
p57
asS'2012_21'
p58
(lp59
S'lord lamont on pms muttering idiot gibe i think the pm is just human amp is a pretty irritating person'
p60
aS'they are always brilliant and i dont laugh well maybe a chuckle'
p61
asS'2012_48'
p62
(lp63
S'justin king of supporting our colleagues who are carers is just good business sense carersrightsday'
p64
asS'2013_4'
p65
(lp66
S'check out story of welshsharkwrestler on paul is the star of 1 of our untoldstories h '
p67
asS'2013_6'
p68
(lp69
S'in case you missed it  2 weeks work experience in march working on amp apply her '
p70
asS'2013_3'
p71
(lp72
S'im so sad to be leaving the inimitable c4news team but it does mean this brill job is now up for grabs '
p73
asS'2013_9'
p74
(lp75
S'need a guide to your disabled childs legal rights read cdcs disabled children a legal handbook'
p76
asS'2013_8'
p77
(lp78
S'do you know any aspiring disabled journalists the guardian  positive action scheme  disability '
p79
asS'2012_8'
p80
(lp81
S'also winners for c4news jamal osman for mogadishus olympic hopefuls  richly deserved'
p82
aS'hugest congratulations to stuart webb of c4news  cameraman of the year he filmed our tsunami coverage and misuratam li '
p83
aS'for the avoidance of doubt sainsburys have not pulled out of the work experience scheme  they were never in it'
p84
asS'2012_20'
p85
(lp86
S'shame that while gove moving in the right direction on disability reforms ids is making so many wrong moves on benefits'
p87
asS'2012_2'
p88
(lp89
S'yes all good thanks hope manchester fun too'
p90
aS'aha yes in truth the iphone was the game changer you still my number one digital dude'
p91
aS'hellooo am on twitter thanks to'
p92
asS'2012_3'
p93
(lp94
S'classic'
p95
asS'2012_14'
p96
(lp97
S'he says he doesnt want you cramping his style he is a heartbreaker with the under fives'
p98
aS'school hols back on 17th so will text you with some dates'
p99
aS'come back then boys much quieter and less humour without you a lone jester'
p100
aS'daz missing you muchly love the pics on fb shall we lunch soon x'
p101
asS'2012_12'
p102
(lp103
S'john bishop is a legend sportrelief'
p104
asS'2012_52'
p105
(lp106
S'to the man at wimbledon theatre who popped his head round disabled loo door to say this is for cripples your door is the one marked moron'
p107
aS'thanks mr k  hope you had a good christmas too xx'
p108
aS'i have two tickets to the fulham v saints game today \xc2\xa370 for both can meet in front of craven cottage pls rt'
p109
asS'2012_50'
p110
(lp111
S'so two women priests will be able to marry each other but not in church unless the bishop agrees but he has to b '
p112
asS'2012_51'
p113
(lp114
S'ferguson v beckham just a bruise cantona v fan slight overreaction keane v haaland innocent mistake williams v r '
p115
asS'2012_18'
p116
(lp117
S'get your application in soon for itvnewstrainee its only open for 2 weeks '
p118
aS'come on you know you chuckled'
p119
aS'you need help x'
p120
aS'i got it from krishnan'
p121
aS'15 orangutans that look like london mayor boris johnson via'
p122
asS'2013_10'
p123
(lp124
S'gwyn burr sainsbury plc words of wisdom amp encouragement at iwd breakfast guildhall great ned role model'
p125
aS'as a customer advocate always paint a smile on your face customerservice'
p126
aS'moving speech by wendy turner webster for now its gwyn burr of sainsbury talking about her amazing '
p127
asS'2013_35'
p128
(lp129
S'lost much loved grey toy rabbit on either upper st or essex rd on thurs wed be sooo grateful if anyone\xe2\x80\xa6'
p130
aS'o my god how fox news is handling the 50th anniversary of the march on washington'
p131
asS'2013_34'
p132
(lp133
S'great meeting with today discussing possible future collaborations smaresearch smasupport'
p134
aS'we\xe2\x80\x99re campaigning for parents of disabled children to have the same rights to support as other carers'
p135
asS'2013_33'
p136
(lp137
S'condolences to all and especially mick deanes family a sad day pressfreedom'
p138
asS'2013_32'
p139
(lp140
S'the ambassador has welcomed the distribution of care packages pictured as anglobongan economic assistance continues'
p141
asS'2013_31'
p142
(lp143
S'when i see it makes me think as a young disabled man  amp indeed to us all  to do more what a guy realinspirat\xe2\x80\xa6'
p144
asS'2012_34'
p145
(lp146
S' music gives disabled man a voice sma'
p147
aS'definitely have a great time  hope ecosse not too rainy text me when you back'
p148
aS'fine thanks definitely time for another catch up how are you x'
p149
aS'so husband and i decided to get stuck into the killing boxset to distract from cabin fever postop child and heat notlighteningthemood'
p150
aS'royal brompton named as 1 of 3 uk hospitals with strong enough brand amp reputation to set up centres overseas '
p151
aS''
p152
asS'2012_35'
p153
(lp154
S'guest blog on childrens heart surgery review lansley must give more answers to serious questions being asked '
p155
asS'2012_36'
p156
(lp157
S'jayz will always live in the shadow of his brother a author of the bestselling \xe2\x80\x98london\xe2\x80\x99'
p158
asS'2012_37'
p159
(lp160
S'rt ben is ready 4 great river race 2 raise research funds 4 sma spinalmuscularatrophy pls rt to wish him luc '
p161
aS'rt i am running the gnr 2moro 4 if you would like to sponsor me visit my just giving page htt '
p162
aS'rt please come and visit us tomorrow at sainsburys in warrington we are raising funds 4 in mem '
p163
asS'2012_30'
p164
(lp165
S'keep tweeting thanks for today and amazing cakes xx'
p166
aS'theres even a fart joke how very british'
p167
aS'phenomenal go danny boyle proud of london london2012 olympicceremony'
p168
aS'so there are two koreas like who knew holyshet'
p169
asS'2012_31'
p170
(lp171
S'pls can u rt pic tia missing since friday shes 12 yo and my partners niece thank u'
p172
aS'all of britain cheering on a somalian immigrant and a mixed raced woman aidan burleys multicultural crap'
p173
aS'amazing piece from in syria tonight  now among finest foreign corrs calm unflashy unsentimental but humane'
p174
asS'2012_33'
p175
(lp176
S'so sad winnie johnson has died without ever having found keith lovely lady with amazing determination interviewing her always v humbling'
p177
aS'rip lord alf morris disability campaigner if years cant be added to the lives of the disabled at least life could be '
p178
asS'2012_7'
p179
(lp180
S'thats brilliant good luck in kl xx'
p181
asS'2012_38'
p182
(lp183
S'attended spinal muscular atrophy event at hop hosted by with support amp '
p184
as.