(dp0
S'2011_44'
p1
(lp2
S'no it is not as long as it isnt against the forum rules'
p3
aS'i must be a very inactive tweeter if only i actually did shit maybe write a book'
p4
aS'according to the mantra antiracist is a codeword for antiwhite how the f did you get that'
p5
aS'found the hidden wiki one youtube search and two underfiveminute vids and im there too easy if you ask my ass'
p6
aS'if you were to call any fanbase the most creepy who would it be sonic tgwtg final fantasy what i need answers people'
p7
aS'is joss whedon the patron living saint of tv tropes who knows'
p8
aS'in a fight between a cripple and a cat who would win turns out the cat wins but the cripple then goes kamikaze and falls on the cat'
p9
aS'when i regain use of both my legs im gonna learn how to be a badass'
p10
aS'i only want to be your friend'
p11
aS'torn cartlidge in my knee and a burning insecurity'
p12
asS'2012_17'
p13
(lp14
S'especially expressions of rage'
p15
aS'into a window'
p16
aS'or bang your girlfriends head against'
p17
aS'you shave bitches now extra marks for originality'
p18
aS'babes watch out theres a chris brown prowling the streets looking to perform some beatings'
p19
aS'no do not transform a mauling is far worse than a beating'
p20
asS'2012_14'
p21
(lp22
S'so after a strange year i have been diagnosed with ptsd fun'
p23
asS'2011_52'
p24
(lp25
S'so i found some of your music thanks to facebooks infinte wisdom enjoying your work immensly'
p26
asS'2011_51'
p27
(lp28
S'looks like the cartels still havent got me cowards'
p29
aS'guess my own body gave me a christmas present by allowing me to walk upon my leg'
p30
asS'2011_50'
p31
(lp32
S'my slender man mythos blog'
p33
aS'steam why are you cruel to me'
p34
asS'2011_48'
p35
(lp36
S'i should do more pc gaming'
p37
aS'whoop one follower what now'
p38
asS'2011_46'
p39
(lp40
S'okay mexican drug cartels youre oversensitive fucks and criminal dickheads i denouce you all now come find my dick and kill it'
p41
asS'2012_18'
p42
(lp43
S'dont you mean fuckin wit da faces again'
p44
asS'2012_1'
p45
(lp46
S'so ive restarted my old ways despite my leg twenty pressups every morning'
p47
aS'welcome and you too brah'
p48
asS'2011_45'
p49
(lp50
S'am i getting the point of twitter or am i supposed to feel so lonely here'
p51
asS'2012_4'
p52
(lp53
S'my leg twisted itself last night 90 degrees clockwise agony i had to bite down on my hand i twisted it back now it is stiff and locks'
p54
aS'okay so been coughing for a few hours no it hurts my chest just to breath'
p55
aS'i am coughing a lot each cough is causing me quite a bit of pain sharp pain to my side i am also struggling with some other things'
p56
asS'2012_5'
p57
(lp58
S'rocky patch again'
p59
aS'why oh fucking why am i being followed by porn shit'
p60
asS'2012_6'
p61
(lp62
S'when it hurts to just breath and stand'
p63
asS'2012_23'
p64
(lp65
S'listen up real quick they are giving out free applebees giftcards at this site so go and get one i just got mine'
p66
asS'2012_22'
p67
(lp68
S'just believe me when i tell you this is good this worked for me click the ilnk'
p69
aS'i know you can appreciate this its not a joke try the lik'
p70
asS'2012_21'
p71
(lp72
S'this was a great idea this is working already'
p73
aS'cant even imagine that im seeing this happen to me'
p74
aS'i thought you would want this the only way to win is to view this link'
p75
aS'wow this woman really did this'
p76
as.