(dp0
S'2013_43'
p1
(lp2
S'having fun playing csrracing for android why not join me for free'
p3
aS'hey i just won a race in csrracing for android winning you should check it out for free'
p4
aS'i just moved up to level 14 in csrracing for android you should check it out for free'
p5
aS'i just moved up to tier 2 in csrracing for android you should check it out for free'
p6
aS'i just got a meowmm decal in csrracing for android paintjob get it free'
p7
aS'having fun playing csrracing for android why not join me for free'
p8
aS'check out my ride in csrracing for android try it for free'
p9
asS'2013_46'
p10
(lp11
S'having fun playing csrracing for android why not join me for freeacb'
p12
aS'having fun playing csrracing for android why not join me for freeabc'
p13
aS'having fun playing csrracing for android why not join me for freea'
p14
aS'having fun playing csrracing for android why not join me for free'
p15
aS'having fun playing csrracing for android why not join me for free'
p16
asS'2013_44'
p17
(lp18
S'having fun playing csrracing for android why not join me for free'
p19
aS'having fun playing csrracing for android why not join me for free '
p20
aS'having fun playing csrracing for android why not join me for free'
p21
aS'having fun playing csrracing for android why not join me for free'
p22
aS'having fun playing csrracing for android why not join me for free '
p23
aS'having fun playing csrracing for android why not join me for free'
p24
aS'having fun playing csrracing for android why not join me for free'
p25
aS'having fun playing csrracing for android why not join me for free '
p26
aS'having fun playing csrracing for android why not join me for free '
p27
aS'having fun playing csrracing for android why not join me for free'
p28
aS'having fun playing csrracing for android why not join me for free '
p29
aS'having fun playing csrracing for android why not join me for free '
p30
aS'having fun playing csrracing for android why not join me for free'
p31
asS'2013_45'
p32
(lp33
S'having fun playing csrracing for android why not join me for freeii'
p34
aS'having fun playing csrracing for android why not join me for freei'
p35
aS'having fun playing csrracing for android why not join me for free'
p36
aS'having fun playing csrracing for android why not join me for free'
p37
asS'2012_52'
p38
(lp39
S'can you please recommend my skills thank you via'
p40
asS'2012_50'
p41
(lp42
S'wow made 138 in 3 hrs proof and made 925 yesterday click and drop 9 asap'
p43
asS'2011_1'
p44
(lp45
S'nuffin'
p46
asS'2013_20'
p47
(lp48
S'people who kill forget that god gives a life and by taking it you are directly challenging divinity'
p49
aS'yesterday a friend in pmln sent a message saying  dont cross the limits as we are now in complete control of governmen\xe2\x80\xa6'
p50
aS'zahra hussains blood is now on william hagues hands i warned him this would happen arrest altaf now'
p51
aS'uk harbours terrorist altaf hussain who makes public threats against pak citizens acc to us justification hed be a le\xe2\x80\xa6'
p52
asS'2013_31'
p53
(lp54
S'i scored 252 points in arcade mode for android'
p55
aS'i scored 218 points in arcade mode for android'
p56
asS'2013_16'
p57
(lp58
S'pti 4 ever'
p59
asS'2013_15'
p60
(lp61
S''
p62
aS'its a beautiful morning here in isloo'
p63
aS'hello everybody'
p64
asS'2012_49'
p65
(lp66
S'um made 138 in 3 hrs proof here amp made 450 yesterday go here and spend a bit worth it'
p67
as.