(dp0
S'2014_36'
p1
(lp2
S'hi catherine i tuned in today just as you were saying youd lost 15 stone in 6 weeks well done but missed how x'
p3
aS'oh my god  shes going to be a real time wasteradorable x'
p4
aS'stunning catherine  x'
p5
aS'fendi lacquarossa for her has notes of mandarin rose and orange blossom win it to enter follow amp rt'
p6
asS'2014_37'
p7
(lp8
S'last night of the proms what can i sayfantastic would love to have been there rulebrittania'
p9
aS'lovely natural looking nails x'
p10
aS'he was my christian grey when i was reading the books  x'
p11
aS'fantastic i love your detail  x'
p12
asS'2014_34'
p13
(lp14
S'fantastic catherine i need to lose about 2 stone for my wedding next march and your very inspiring  x'
p15
aS'i watched a film called saving mr banks yesterdaya lovely film emma thompson is just wonderful a must see for mary poppins fans'
p16
asS'2014_35'
p17
(lp18
S'thanks lucy it looks light brown in some light and pale pink in others a great colour x'
p19
aS'a subtle but pretty shade for the weekend tickle my francey by opi  x'
p20
aS'please rt our missing cockapoo missing from cheadlehulme we are desperate to get her home findpoppy'
p21
aS'oh thats ashame  ok thankyou for letting me know lucy enjoy your evening  x'
p22
aS'need a new pair of shades for backtoschool rt amp follow to enter revealmore'
p23
aS'hi lucy i havent tried it i usually use nails inc top coat or seche vite is it fast drying x'
p24
aS'surprise we have 5 bottles of reveal to giveaway tonight rt and follow to enter revealmore'
p25
aS'they must have done its a mighty shame he was a genuinely lovely gentleman and hell be missed '
p26
aS'please rt to find missing lilian jean she has dementia and may be very frightened'
p27
aS'please rt if you believe in justiceforiain gbbo dirtydiana'
p28
aS'gbbo so sad to see iain go it should have been dianna not even an apologyshameful bringbackiain beardking'
p29
aS'chrisgpackham can you tell me what this is looks flatter than a wasphad just finished laying eggs'
p30
aS'springwatch chrispackam can you tell me what this isitd just finished laying eggsbut looks flatter than a wasp'
p31
aS'be sure to enter our calvin klein reveal grand prize contest to enter follow amp rt revealmore'
p32
aS'last pair of the day rt amp follow for your chance to win this calvin klein prize set revealmore'
p33
aS'need new shades rt amp follow for your chance to win calvin klein reveal and these sunnies revealmore'
p34
asS'2014_32'
p35
(lp36
S'my favourite loccitane product is their shea hand cream i use it religiously every night also i love your nails alison x'
p37
aS'thankyou for this fantastic summer colour  bonvoyage'
p38
aS'bon voyagefantastic summer colour thankyou leighton x'
p39
aS'that was a bit disturbing lol'
p40
asS'2014_33'
p41
(lp42
S'hi catherine your cats are beautiful amp i love their names  here are my babies betty amp poppy x'
p43
aS'ooh i love this new nails inc colour ive got it but havent worn it yet cant wait to try itlooks fantastic '
p44
aS'the sounds of rattling chains and moaningthen silenceand all you can hear is heavy breathing and not a ghost in sight  \xf0\x9f\x98\x87\xf0\x9f\x98\x88'
p45
aS'fantastic incredibly lifelike x'
p46
aS'thankyou lucy  x'
p47
aS'l love perfect formula pink gel coat its the ultimate natural nail '
p48
aS'brighten your thursday want to win these clinique blushers amp lip crayons just follow amp rt by 11pm competition'
p49
aS'i love this i think birds make my favourite picturespaintings someone in south australias gonna be very happy '
p50
asS'2014_30'
p51
(lp52
S'mind  blown'
p53
aS'may the forces be with you '
p54
aS'thankyou very much '
p55
aS'i much prefer the real thing '
p56
aS'a very productive afternoon i think'
p57
aS'it would be rude not too '
p58
aS'ooh yummy i do like a side of tennis ball aswel '
p59
aS'youll get square eyes \xf0\x9f\x91\x93\xf0\x9f\x8e\xae'
p60
aS'ive just seen a cat out the corner of my eye in my spare roombut my two cats were sitting in front of me  goingcrazy giantmouse'
p61
aS'season 10 of ghost adventures premieres october 2014 w a lineup of locations unlike anything before get ready details wi\xe2\x80\xa6'
p62
aS'she spends ages doing this  crazycat'
p63
aS'thankyou for the follow ive just been looking through your photos and youve got an amazing nail polish collection '
p64
aS'i love sundae girl such a pretty pink '
p65
asS'2014_31'
p66
(lp67
S'youve got great eyelashes what mascara do you use x'
p68
aS'mmm one of my favourites '
p69
aS'hi dawn would there be any market for this original christian dior 20s coat with battered lining xx'
p70
aS'win all these qvc beauty goodies follow amp retweet to enter closes 1pm 4814'
p71
aS'ff thank you followers surprise contest win leau dissey summer for her to enter follow amp rt'
p72
aS'what a fantastic judith williams show amp can i say she looks stunning in her gorgeous dress as do you catherine gorgeousgirls'
p73
aS'oh no  i hope you get a another series its been fantastic \xf0\x9f\x91\x97xxx'
p74
aS'hi zak if youre going to belgium chateau miranda in celles belgium has got gac written all over it x'
p75
asS'2014_38'
p76
(lp77
S'stunning x'
p78
aS'its been foggy here all day thats the coast for you i suppose '
p79
aS'im giving away givenchys gentlemen only barber edition simon baker not included to enter follow amp rt'
p80
aS'what a lovely colour looks like a slightly darker porchester squarelove it  x'
p81
aS'this deserves endless retweets'
p82
aS'oh god i hate slugs with a passion  ok thankyou very much x'
p83
aS'yuk are you sure how can i kill themsalt'
p84
aS'can anyone tell me what these eggs are uncovered them after mowing the lawn slightly smaller than a petit pois pea'
p85
asS'2014_39'
p86
(lp87
S'yes thats right thankyou very much '
p88
aS'special ff thank you followers surprise contest win fan di fendi to enter follow amp rt'
p89
aS'my first attempt at drawing in a long time i thought id share it x'
p90
aS'these remind me of collecting them on the beach when i was small with my nan amp grandpa they called them dolly stones '
p91
aS'thanks lucy x'
p92
aS'a bright start to the week hey baby by opi from their gwen steffani collection '
p93
asS'2014_18'
p94
(lp95
S'my weekend colour brazilcollection livelovecarnaval '
p96
aS'my weekend colour brazilcollection livelovecarnaval '
p97
aS'ooh great front door colour '
p98
aS'my fianc\xc3\xa9 would love you to be his best man wouldmakehisyear '
p99
aS'rt if you want to win this great decleor gift set'
p100
aS'my baby betty '
p101
aS'pink gel coat is the perfect natural nail  musthave'
p102
aS'its an amazing collection gorgeous colours '
p103
aS'thankyou \xe2\x98\xba thats something id love to do but wouldnt know where to start thankyou for saying though mademynight'
p104
aS'im loving this colour get a room '
p105
asS'2014_19'
p106
(lp107
S'not the worst song ive ever heard slightly bondesque i do love a good beard though eurovisionsongcontest2014'
p108
aS'devonshire street weekendsparkle '
p109
aS'thankyou very much catherine enjoy your weekend \xf0\x9f\x90\xae\xf0\x9f\x90\xb4\xf0\x9f\x90\xb7 x'
p110
aS'taking it easywhat a lovely life '
p111
aS'hi catherine fantastic show more of these in the future please  also your nails look lovelywhat colour are you wearing'
p112
aS'alison keeps waving her hands around amp i cant take my eyes off her nail polish what colour is she wearing please x'
p113
aS'where did suzis mango brazil '
p114
asS'2014_14'
p115
(lp116
S'loving baker street '
p117
aS'hayfeverdriving me mad \xf0\x9f\x8c\xbc'
p118
aS'two collar doves dancing along my garden fence very comical \xf0\x9f\x98\xb9'
p119
aS'many thanks i can feel a purchase coming on \xe2\x98\xba'
p120
aS'your nail polish is stunning what is itx'
p121
asS'2014_15'
p122
(lp123
S'what colour nail polish is nikki wearing please its stunning along with the tsv \xe2\x98\xba'
p124
aS'my colour for the weekend some like it hotdont we all \xf0\x9f\x98\x9c'
p125
aS'oscarpistorius snivelling idiot what a load of crap '
p126
aS'feel so sorry for peaches young children no one should be without their mum'
p127
aS'in love with nailsinc warren street with whitehall accent \xf0\x9f\x98\x8a'
p128
asS'2014_16'
p129
(lp130
S'hi pipa nail envy has been a saviour my nails are always commented on theyre now long amp strong pipa what colour r u wearingx'
p131
asS'2014_17'
p132
(lp133
S'in the buff the colour of choice for my wedding day '
p134
aS'favourite leighton denny colour is gorgeous '
p135
asS'2014_43'
p136
(lp137
S'i got my tickets for the good food show at olympia cant wait to see mary berry and paul hollywood\xf0\x9f\x8d\xb0\xf0\x9f\x8d\x9e superexcited'
p138
asS'2014_42'
p139
(lp140
S'im loving colville mews in gel effect from the recent tsv xx'
p141
aS'its a wasp spider'
p142
asS'2014_41'
p143
(lp144
S'sack the stylist hoody and a skirton a guyno no no no xfactor'
p145
aS'amazing time lapse films showing realistic speed drawings of birds'
p146
aS'fantastic very striking x'
p147
aS'trying to add a bit of shine to a very cold wet amp blustery day nails inc chelsea bridge road x'
p148
asS'2014_40'
p149
(lp150
S'rip alan henning'
p151
aS'light taupe by perfect formulaa great gowithanything shade x'
p152
aS'this is beautiful louise x'
p153
asS'2014_44'
p154
(lp155
S'my subtle nod to halloween steel appeal with gold dust top coat x'
p156
asS'2014_29'
p157
(lp158
S'kinda buenaif thats how you spell it got a soft spot for a bounty aswel '
p159
aS'wow watching the storm rolling in earlier was like something from independence dayamazing stormchaser'
p160
aS'giveaway win complete fruitpastel collection follow amp retweet to enter xx'
p161
aS'final chance to enter our bobbi to go contest we draw today to enter follow amp rt bobbitogo'
p162
aS'last chance to enter our marc jacobs daisy dream contest we draw today to enter follow amp rt'
p163
aS'i love your reactions in the easiyo show its a fantastic brand keep hold of that spoon \xf0\x9f\x98\x84\xf0\x9f\x8d\xa7'
p164
aS'im loving step right up with a rose of light top coat great all yearany time combo x'
p165
aS'i think it looks great would love to do it but i hate the feel of lipstick im an eye girl x'
p166
asS'2014_28'
p167
(lp168
S'why was she lying on the carpet \xf0\x9f\x99\x88\xf0\x9f\x98\x89'
p169
aS'the philosophy girls of summer set contest to enter follow amp rt girlsofsummer'
p170
aS'ooooh i love it \xf0\x9f\x91\x8d'
p171
aS'the new diorskin nude contest win this set to enter follow amp amp rt nudedior'
p172
aS'love itso cute '
p173
aS'i am the perfect parkeroh are we talking about cars \xf0\x9f\x98\x9c\xf0\x9f\x9a\x98'
p174
aS'ultrasun its water resistant aswel with a once a day only application \xf0\x9f\x8c\x9e'
p175
aS'dear oh dear  \xe2\x9a\xbd'
p176
aS'my 2500 giveaway is herefollow meamprt this image to winill randomly select a winner at 9pm sunday 13th good luck ht\xe2\x80\xa6'
p177
aS'im giving away this ultimate summer collection to enter follow amp rt summerintokyo'
p178
aS'ooh lovely thankyou so much x'
p179
aS'hi catherine i cant help but notice your nails today they look very chic can you tell me what colour your wearing thanks '
p180
aS'its the new bobbi brown surf amp sand collection contest win set to enter follow amp rt bobbisand'
p181
aS'im sorry to hear that catherine but it sounds like shes in very good hands i wish her a speedy recovery \xf0\x9f\x92\x9f\xf0\x9f\x92\x90'
p182
asS'2014_21'
p183
(lp184
S'im loving this colour radiance for a bit of bank holiday shine designercollection \xf0\x9f\x8c\x9e'
p185
aS'brook street  classiccoral'
p186
asS'2014_20'
p187
(lp188
S'ping was amazing a deserved winner tonights loserthe bbcs dramatichappy moment music picker crap guys reallycrap masterchef'
p189
aS'poppydelevigne looked beautiful in her wedding dress today weddingdressenvy \xf0\x9f\x92\x95'
p190
aS'my weekend colour regents place nails inc gel effect amazing '
p191
aS'i eat sleep amp dream nail polish well maybe not eat it excites me amp makes me happy \xf0\x9f\x98\x84 \xf0\x9f\x92\x85\xf0\x9f\x92\x9fnails'
p192
aS'rt amp follow to win 3 course dinner amp bottle of champagne for you amp 3 friends on date of your choice'
p193
aS'i love this colour a great anytimeanywhere colour perfect'
p194
aS'i love this colour a great anytimeanywhere colour perfect'
p195
aS'i love this colour a great anytimeanywhere colour perfect'
p196
asS'2014_23'
p197
(lp198
S''
p199
aS'weighhouse street for the weekend i think '
p200
aS'happy birthday catherine i hope the dentist works his magic for you \xf0\x9f\x8e\x82\xf0\x9f\x8e\x81\xf0\x9f\x8c\xbc'
p201
aS'diagnosed with post traumatic stress disorder today after experiencing an armed robbery 18months ago bastards dnt think of the aftermath '
p202
aS'vote b'
p203
aS'hi there do you know when this month opi will be airing with the new coca cola collection many thanks x'
p204
asS'2014_22'
p205
(lp206
S'id have trouble leaving there empty handed rescuemission'
p207
aS'shes been patrolling blue tit cam all morning '
p208
aS'hmmm need ideas for the garden would love a cottage style'
p209
aS'such a gorgeous colour from one of your sets online st  catherines dock beautiful'
p210
asS'2014_25'
p211
(lp212
S'that would be lovely thankyou very much x'
p213
aS'i love this amp i love the angle of the painting amazing '
p214
aS'amazing colour what is it called x'
p215
aS'join me amp on on thurs 26th june tsv launch 12am till 2am repeat 7am 9am 12pm 4pm 7pm 10pm rt \xe2\x80\xa6'
p216
aS'oooh very excited ive booked my place on the sofa  x'
p217
aS'161 i jst had a count the majority being nails inc  qvcbeautymonth'
p218
aS'im loving this colour marble arch x'
p219
asS'2014_24'
p220
(lp221
S'st catherines dock '
p222
aS'nails inc kensington gate x'
p223
aS'i cant watch this for much longer the sound quality is awful  openingceremony'
p224
aS'i havent worn this for a while orange fizz by chanel '
p225
aS'show your support for our cause by taking your own whosesideareyouon image share it on twitter using the hashtag ht\xe2\x80\xa6'
p226
aS'whosesideareyouon'
p227
aS'a great colour to start the week gorgeous '
p228
asS'2014_27'
p229
(lp230
S'we draw monday for this jason wu for lancome set at hudsons bay to enter follow amp rt'
p231
aS'im giving away bobbi browns new surf amp sand collection at hudsons bay to enter follow amp rt bobbisurf'
p232
aS'im giving away marc jacobs daisy delight perfect summer scent to enter follow amprt daisysummer'
p233
asS'2014_26'
p234
(lp235
S'adding a bit of shine to my week ahead chelsea bridge road  x'
p236
aS'stunning  x'
p237
aS'vote c'
p238
aS'my bit of baking for the day almond butter cream cupcakesnaughty but very nice '
p239
aS'thismorning ive served paul mcmullan in my local shop amp hes an arrogant arsehol why has he got off scott free'
p240
as.