(dp0
S'2013_42'
p1
(lp2
S'thats how you do it boo thang lol \xf0\x9f\x91\x8c'
p3
aS'i cant never get enough every time we touch \xf0\x9f\x8e\xb6'
p4
aS'nothin but texas country \xf0\x9f\x91\x8d'
p5
aS'amp josh abbott \xf0\x9f\x98\x98\xe2\x9d\xa4\xef\xb8\x8f'
p6
aS'\xf0\x9f\x98\x82lol mean ass'
p7
aS'slaving cause randy rogers is playing at my wedding \xf0\x9f\x92\xb0'
p8
aS'doing the most because it has to be done'
p9
aS'i \xe2\x9d\xa4\xef\xb8\x8fyou soo soooooo much'
p10
aS'wait on the lord  be of good courage and he shall strengthen thine heart wait i say on the lord\xe2\x80\xa6'
p11
aS'today stats one follower no unfollowers and followed one person via'
p12
aS'if i had wings id fly up to heaven id look down from the clouds on everything that i could find all the things we\xe2\x80\xa6'
p13
aS'lifes beating the f out of me n then its like surprise \xf0\x9f\x98\xb3'
p14
aS'going through a lot if crazy things didnt see this coming \xf0\x9f\x98\xb1\xf0\x9f\x98\x81'
p15
aS'nervous  excited for this surprise of a night i feel like a  groupie \xf0\x9f\x98\xb3\xf0\x9f\x98\xb1\xf0\x9f\x99\x88'
p16
aS'are u math cause i dont understand you'
p17
aS'and now im currently shitting bricks'
p18
aS'so i was having a gloomy day and then i got a phone call to a private party from one of my favorite artists'
p19
aS'before you start pointing fingers make sure your hands are clean'
p20
aS'bitches be like kisses to my haters\xf0\x9f\x98\x98'
p21
aS'hes jealous cuz im pretty and he can never be me'
p22
aS'its still a lot to process but i just take it day by day'
p23
aS'im not gonna lie its very overwhelming and hard to get his packages ready'
p24
aS'girls be like thank you for serving or military guys are hot but when it comes to dating one they run off '
p25
aS'you have hands you have feet use that'
p26
aS'people are not meant to be used'
p27
aS'today stats no new followers one unfollower via'
p28
aS'soccer lovers can suck it'
p29
aS'reasons to be a mermaid  no periods  no pants  perfect hair  u get to lure men into their death also free clam b\xe2\x80\xa6'
p30
aS'i dont just want him i need him'
p31
aS'\xe2\x98\x94\xef\xb8\x8f'
p32
aS'today stats one follower one unfollower and followed one person via'
p33
aS'910 you dont need that person your trippin over'
p34
aS'now my life is sweet as cinnamon what a fuckin dream im livin in \xe2\x98\x94\xef\xb8\x8f'
p35
aS'\xf0\x9f\x98\xad\xf0\x9f\x92\x94'
p36
aS'\xf0\x9f\x92\xad'
p37
aS'youre my favorite memory'
p38
aS'god bless my professor literally sat through this test cause i gave up amphe still passed me theres a place in heaven for folks like him'
p39
aS'you were taking selfies \xf0\x9f\x98\x9d'
p40
aS'ya dig'
p41
aS'sometimes when i close my eyes i pretend im alright but its never enough'
p42
aS'i dont suffer from the low battery disease cause i only text like 2 people my battery can last me a lifetime \xf0\x9f\x98\xac\xf0\x9f\x91\x8c'
p43
aS'not to mention what i found in my phone the other night \xf0\x9f\x98\x9d'
p44
aS'i live in a hologram with you \xf0\x9f\x92\x95'
p45
aS'the day we patiently await for january2014 militarygf art'
p46
aS'today stats one follower no unfollowers via'
p47
asS'2013_43'
p48
(lp49
S'too much fun dressing up face painting done by yours truly \xf0\x9f\x98\x8f\xf0\x9f\x98\xac\xf0\x9f\x91\x8c'
p50
aS'girl you disqualified'
p51
aS'i could always call him up for the things i need but i like to provide for myself'
p52
aS'busy getting my ticket for getting outta hea'
p53
aS'he loves me \xf0\x9f\x8c\xb9\xf0\x9f\x92\x98\xf0\x9f\x92\x8d'
p54
aS'tbt fall 2012 w the bff'
p55
aS'mixed emotions with excitement amp sadness'
p56
aS'here i go again missin you crazy jonpardi'
p57
aS'this deployment can suck it im ready to have my man back \xf0\x9f\x98\x94'
p58
aS'i feel like shit \xf0\x9f\x98\x94'
p59
aS'its not like that chaggo \xf0\x9f\x98\x94'
p60
aS'i love my latinos yo  i love the way we are we are actually people who understand each other and that i love about '
p61
aS'slow peopleltltltlt'
p62
aS'never let money come between friendships'
p63
aS'doin the boot scootin boogie\xf0\x9f\x8e\xb6\xf0\x9f\x8e\xb6\xf0\x9f\x8e\xb6 brooksanddunn countrysgreatesthits'
p64
aS'today stats no new followers 3 unfollowers via'
p65
aS'im just wondering  how am i suppose to survive through winter up north these next 2 years  \xf0\x9f\x98\xb3\xf0\x9f\x98\x90'
p66
aS'i still cant believe he got me a lifesize teddy bear \xf0\x9f\x98\x9d well its my cuddle buddy replacement  for now \xf0\x9f\x92\x99\xe2\x98\x81\xef\xb8\x8f\xf0\x9f\x8c\x99'
p67
aS'good day indeed'
p68
aS'man i crack myself up \xf0\x9f\x98\x82'
p69
aS'i hate how i automatically freak out when my in laws get calls from base living on the edge gets too edgy'
p70
aS'i miss my baby phoebee \xf0\x9f\x98\x94'
p71
aS'today stats one follower no unfollowers and followed one person via'
p72
aS'i have to be up early but i cant sleep i gave my little brother my blanket since his has been misplaced \xf0\x9f\x98\x91 why am i so nice'
p73
aS'having babys is trending'
p74
aS'cant blame a woman goin after a rich little punk instead of a poor man'
p75
aS'i feel sorry every boy i ever dated im not a normal girl \xf0\x9f\x98\x82'
p76
aS'i just wanna hug you at times \xf0\x9f\x99\x8d\xf0\x9f\x98\xaa'
p77
aS'do i turn you on at all when i kiss you baby does the sight of me wanting you drive you crazy'
p78
aS'worry less smile more accept criticism amp failure appreciate listen dont hate love deeply embrace change take cha\xe2\x80\xa6'
p79
aS'couples that shotgun together stay together right'
p80
aS'life would be sooooo much easier if i was rich'
p81
aS'never let anyone with bad eyebrows tell you shit about life'
p82
aS'never let anyone with bad eyebrows tell you shit about life\xe2\x80\x9d \xf0\x9f\x98\xad\xf0\x9f\x98\xad\xf0\x9f\x98\xad\xf0\x9f\x98\x82\xf0\x9f\x98\x82\xf0\x9f\x98\x82\xf0\x9f\x98\xad\xf0\x9f\x98\xad\xf0\x9f\x98\x82\xf0\x9f\x98\x82\xf0\x9f\x98\x82\xf0\x9f\x98\xad\xf0\x9f\x98\x82\xf0\x9f\x98\xad\xf0\x9f\x98\xad\xf0\x9f\x91\x8f\xf0\x9f\x91\x8f\xf0\x9f\x91\x8f\xf0\x9f\x91\x8f\xf0\x9f\x91\x8fyasssssss hek yasss'
p83
aS'i kind of sort of remember how my mamma used to make brisket i shall soon test my remembering skills on this recipe \xe2\x98\x9d\xef\xb8\x8f'
p84
aS'mcm \xf0\x9f\x9a\xa1\xf0\x9f\x87\xba\xf0\x9f\x87\xb8\xf0\x9f\x92\x99\xe2\x9d\xa4\xef\xb8\x8f\xf0\x9f\x92\x99\xe2\x9d\xa4\xef\xb8\x8f'
p85
aS'i turn up my texas country and then there goes my brother trying to compete with my speakers bustin his non sense'
p86
aS'i bring life to this house literally'
p87
aS'thats so impossible for a girl \xf0\x9f\x98\x9e whyamiagirl'
p88
aS'getting rid of the things i dont need packing light for in amp ny'
p89
aS'hungry \xf0\x9f\x98\x94'
p90
aS'take every chance you get in life because some things only happen once'
p91
aS'today stats one follower one unfollower and followed one person via'
p92
aS'rt'
p93
aS'feel like doing a rt rant'
p94
aS'big slap in the face for that \xf0\x9f\x91\x8b\xf0\x9f\x91\x90\xf0\x9f\x91\x8a'
p95
aS'if you happen to have a missed call from me its obvious to state that i did call \xf0\x9f\x98\x91'
p96
aS'to add that extra pop  enjoy'
p97
aS'never gonna let a bitch change my mood'
p98
aS'good morning and shit'
p99
aS'happy birthday celia cruz \xf0\x9f\x92\x83'
p100
aS'howtoeasilyerkmynerves naduh'
p101
aS'missing my sweet pea colts loving baby phoebee \xf0\x9f\x90\xb6\xf0\x9f\x92\x8b\xf0\x9f\x92\x99'
p102
aS'lovely relaxing weekend with these amazing folks \xf0\x9f\x90\xb6\xf0\x9f\x90\xb6\xf0\x9f\x8f\xa1\xf0\x9f\x92\x95\xe2\x80\x9d it really was'
p103
aS'hope this helps sweet thang '
p104
aS'ajajskalakjnzjj i cannot stand phony ass people akskdlslkslaoa k just had to let that out \xf0\x9f\x98\x96\xf0\x9f\x98\x91\xf0\x9f\x98\xa4'
p105
aS'man andrew luck and the colts are ballin tonight'
p106
aS'staaaaaap'
p107
aS'lovely relaxing weekend with these amazing folks \xf0\x9f\x90\xb6\xf0\x9f\x90\xb6\xf0\x9f\x8f\xa1\xf0\x9f\x92\x95'
p108
aS'its monday tomorrow thanks obama'
p109
aS'how do you like me now'
p110
aS'i dont mind it changing genre to genre cause its so nice lol'
p111
aS'i have such a decent playlist'
p112
aS'halftimehomework time'
p113
aS'i swear i have the biggest crush on andrew luck 12'
p114
aS'starting over for the last time'
p115
aS'you gotta go throw caution to the wind youll never get this chance again'
p116
aS'you gotta run like youve never run before look ahead theres so much more than the life you left behind'
p117
asS'2013_40'
p118
(lp119
S'my thugness tho gtgtgt \xf0\x9f\x98\x82'
p120
aS'lol sexy as ever '
p121
aS'dem socks doe'
p122
aS'halloween shopping \xf0\x9f\x98\x86w my two fav people'
p123
aS'today stats 4 followers no unfollowers and followed 2 people via'
p124
aS'just kicking back and enjoying these last couple of months with my close friends and all'
p125
aS'wanna get through these last 3 months like i did with the summer \xf0\x9f\x98\xa9'
p126
aS'daww im getting something delivered from afghanistan \xf0\x9f\x98\x86what could it be '
p127
aS'im ready to eat'
p128
aS'im all out of control  all over the road'
p129
aS'lovin you is fun \xf0\x9f\x98\x8f\xf0\x9f\x98\x98'
p130
aS'marriage brings hardships and new responsibilities but marriage also brings the best memories in your life id choose th\xe2\x80\xa6'
p131
aS'but i just cant love you back'
p132
aS'i love you crazy it comes so easy after all we had'
p133
aS'im a little more country than that \xf0\x9f\x98\x8f'
p134
aS'feeling good right along with some texas countrygtgt\xf0\x9f\x98\x81'
p135
aS'always looking for something quicker than heaven to make the damage of her days disappear just like guinevere'
p136
aS'feeling good right along with some texas countrygtgt\xf0\x9f\x98\x81'
p137
aS'when it rains i dont mind being lonely i cry right along with the sky \xf0\x9f\x8e\xb6'
p138
aS'so i guess that means that things are better'
p139
aS'bet youd never guess who i saw tonight'
p140
aS'truth hurts'
p141
aS'words leave scars and lord knows they heal slow'
p142
aS'stayings worse than leaving'
p143
aS'shes as bright as the dallas sky'
p144
aS'she has faith in gods greater plan \xf0\x9f\x92\x95'
p145
aS'i walk down these streets i swear i hear your name but its just in my head'
p146
aS'i wish you were in my arms instead \xf0\x9f\x92\x99'
p147
aS'how to stay motivated'
p148
aS'the inevitables of success'
p149
aS'my boss giving me the silent treatment'
p150
aS'if you aint a 10 youre a 99 lukebryan'
p151
aS'you so pretty \xf0\x9f\x98\x8a'
p152
aS'i love you\xe2\x80\x9d love you too babe alwaysandforever'
p153
aS'yassss\xf0\x9f\x98\x9b dis me turnt\xe2\x80\x9d we r living lol'
p154
aS'yeeyee '
p155
aS'yeah im a bad fuckin ass i dont show off much but yall just uplifting my lil guns and trucks side up'
p156
aS'i love you'
p157
aS'is the queen hell never have again bowdownbitch'
p158
aS'is the queen hell never have again bowdownbitch\xe2\x80\x9d yassss\xf0\x9f\x98\x81\xf0\x9f\x98\x81\xf0\x9f\x98\x81\xf0\x9f\x98\x81\xf0\x9f\x91\x8f\xf0\x9f\x91\x8f\xf0\x9f\x91\x8f\xf0\x9f\x91\x8f\xf0\x9f\x91\x91\xf0\x9f\x91\x91\xe2\x9a\xa1\xef\xb8\x8f'
p159
aS'yassss\xf0\x9f\x98\x9b dis me turnt'
p160
aS'caca feels powerful\xe2\x80\x9d'
p161
aS'lets knock on doors for the future instead of fixing the broken ones'
p162
aS'whats been done has been done'
p163
aS'fuck the past'
p164
aS'i walk with a clear conscience live with a peaceful mind'
p165
aS'\xf0\x9f\x98\x82 sad but true'
p166
aS'i had to dig through shit in my past to find the gold which i now hold shitex'
p167
aS'cause i just took my picture out of his wallet \xf0\x9f\x98\x8c'
p168
aS'sugar momma please help my ex finally throw out my things pls amp thnx\xf0\x9f\x98\x98'
p169
aS'mamma always gets what she wants'
p170
aS'today stats one follower no unfollowers via'
p171
aS'thanks for all the entertainment i couldnt have done it without you'
p172
aS'the ghetto line my hood rats live by is haters are my motivators very true  very true'
p173
aS'im so proud of myself amp all the changes im making'
p174
aS'too tired getting ready for a marathon aint easy'
p175
aS'if the shoe fits '
p176
aS'i deserve to be happy i deserve to not be lied to on a daily basis while im handling my own and no unnecessary drama around my days'
p177
aS'i wouldnt trade this for the world \xf0\x9f\x98\x8c'
p178
aS'gotta stay in tonight and be responsible cuz im probably getting called in for weekend duty \xf0\x9f\x98\xab\xf0\x9f\x98\xa9'
p179
aS'i am amused \xf0\x9f\x91\x8f'
p180
aS'ive never taken any of these tweets serious cause they havent been told to my face or followed by the sign'
p181
aS'im not asking for it but why beat around the bush'
p182
aS'i hate how people would really not be cool enough to use their button like for real'
p183
aS'seriouslyyyyy '
p184
aS'i am the best thing you ever will have in your lifetime'
p185
aS'getcho'
p186
aS'me if youre real '
p187
aS'omg just found some good deets bout a nice back house for me \xf0\x9f\x98\x81\xf0\x9f\x98\x81\xf0\x9f\x98\x81praying my search for a better life is over \xf0\x9f\x99\x8f'
p188
aS'like damn life who do you want me to become with all this unnecessary bs youre throwing at me '
p189
aS'me '
p190
aS'i hate fb i always feel the urge to post something to my motivators which i fell into it rn'
p191
aS'if my shine seems to be of a bother to you you should purchase some shades or something so it wont hurt your eyes as much'
p192
aS'god be with us all'
p193
aS'when ur heart is free its easy to make a decision'
p194
aS'today is mine hoes lol'
p195
aS'me'
p196
aS'i need to pee but dont wanna get up'
p197
aS'i hope chance got enough sleep to go to dallas tonight'
p198
aS'yasssss most definitely\xf0\x9f\x98\x8c'
p199
aS'we in dis doin it fo the ratchets'
p200
aS'you think i feel bad that ive left you in the past i feel so good about it actually bless your heart'
p201
aS'and our laughs are just awesome'
p202
aS'wish i had amp a numbers i miss how we all laugh in unity we would of been laughing in unity again rn'
p203
aS'im a crazy gal'
p204
aS'my evil laughgtgtgtgt'
p205
aS'that was a good joke\xf0\x9f\x91\x8f'
p206
aS'\xf0\x9f\x98\xad\xf0\x9f\x98\x82\xf0\x9f\x98\xad\xf0\x9f\x98\x82'
p207
aS'i have high self esteem bout my eyebrows i dont think they need anymore width then they already have'
p208
aS'no matter where life takes us which paths we choose to follow youre always gonna find yourself twatching me for the life you couldve'
p209
aS'me when i get my man back \xf0\x9f\x98\x8c'
p210
aS'lol the stuff i read bout homecomings what not to do'
p211
aS'i text my fatherinlaw \xf0\x9f\x98\x8e'
p212
aS'knocks on wood'
p213
aS'so thats keisha without her weave ohhhhh'
p214
aS'who the devils asks for emails now a day'
p215
aS'instead of asking for my colleagues number i asked for her email \xf0\x9f\x98\xb3\xf0\x9f\x98\xb7'
p216
aS'i am publicly awkward'
p217
aS'im glad that through all of this these friends ive managed to keep uplift my spirits \xf0\x9f\x98\x9d\xf0\x9f\x91\x8d'
p218
aS'good kill time taco cabana happy hour \xf0\x9f\x98\x8e'
p219
aS'got less than 2 hrs to complete this essay \xf0\x9f\x98\xb7wish me luck'
p220
aS'next time these operators call me im going off on them messing with my emotions thinking its an important phone call from overseas\xf0\x9f\x98\xa4'
p221
aS'born with less but youre still precious'
p222
aS'happy october everyone and dont think its fall around this bitch we will be in the lower 90s today  whatsfall'
p223
aS'lmao i actually havent had none in a while'
p224
aS'im talking foolishness yo'
p225
aS'all these uneducated kids holla at me when this gov shutdown actually affects you freedomaintfree'
p226
aS'hook me up with some pork chops'
p227
aS'i guess the govt decided to start acting a fool soon as obama stepped in to blame it on the him yep'
p228
aS'im independent barely making it to see another day and yet i wasnt qualified for obamas help i guess im good afterall'
p229
aS'obama better not try moving to texas after his 4 yrs are over high levels of life threatening matters '
p230
aS'its not like obama has done anything at all for me idgaf ive always worked my ass off for what i have and what im making myself to be'
p231
aS'no more food stamps governmentshutdown'
p232
aS'and there you go the government has shut down  thanks obama'
p233
aS'the loneliness is starting to feel good'
p234
aS'im not your responsibility but dont leave me hanging either'
p235
aS'checkout my nail art and awkward pose'
p236
aS'what does the fox say is my new ringtone thats how real it gets'
p237
aS'i am forever changed after watchin what does the fox say \xf0\x9f\x98\x90 thehelldidijustsee'
p238
aS'reality is catching up with me'
p239
aS'and when he tells you you aint nothing dont believe him and if he cant learn to love you you should leave him'
p240
aS'forgive but dont forget girl keep ya head up'
p241
aS'long live the rose that grew from the concrete when no one else ever cared'
p242
aS'dont stress em next em and pretend you never met em'
p243
aS'cant wait to hear from him again he always brightens my day'
p244
aS'ive got an idea\xf0\x9f\x99\x87 why dont hunter hayes and taylor swift date well call em haylor or tunter and just make fun of them a\xe2\x80\xa6'
p245
aS'it takes a mans worth to be called a father i dont think i could ever call anyone by that ever'
p246
aS'and i wait for him everyday to come back to me'
p247
aS'and then i went and found a man worth holding onto'
p248
aS'the worst thing about being lied to is knowing you weren\xe2\x80\x99t worth the truth'
p249
aS'quit exposing your personal life it is not even that personal though'
p250
aS'nooooo twerking soldier \xf0\x9f\x98\x82'
p251
aS'having good friends isnt about who has more sleepovers and whos been friends longer anymore its about whos there whe\xe2\x80\xa6'
p252
aS'my biological fathers acting surprised by my actions anyone who meets my family automatically knows whats going on its no surprise'
p253
aS'do it for the oh shit'
p254
aS'and have to face the facts that i am alone in this world well at least america'
p255
aS'every time i walk through those doors i come back to reality'
p256
aS'i dont wanna go back home'
p257
aS'you said it takes two to make love last you were right all along so help me hold onnnn \xf0\x9f\x8e\xb6\xf0\x9f\x8e\xb6\xf0\x9f\x8e\xb6 travistritt classic'
p258
aS'i make them awkward'
p259
aS'i suck with goodbyes'
p260
aS'but not only would i let myself down but everyone else as well'
p261
aS'honestly feel like calling it quits and going towards where i feel happy and pleased with my life'
p262
asS'2013_41'
p263
(lp264
S'psyched that i can actually send him cake \xf0\x9f\x98\x86'
p265
aS'we accept the love we think we deserve'
p266
aS'itll all be better in the long run'
p267
aS'no red neck heaven has hotter bitches like for real lol'
p268
aS'ut got the win over ou good day man'
p269
aS'ojos locos has ugly bitches'
p270
aS'jealoustweet \xf0\x9f\x98\xad'
p271
aS'im going out tonight one last time for texas hookem oustillsucks \xf0\x9f\x98\x81'
p272
aS'oooo kill em hookemhorns'
p273
aS'\xf0\x9f\x98\x8d'
p274
aS'i have a boner'
p275
aS'still a long way to go but damn hookem'
p276
aS'no ragrets ou'
p277
aS'hookemhorns'
p278
aS'hookem \xf0\x9f\x90\xae'
p279
aS'its become our yearly tradition to do the ou rally every year '
p280
aS'today stats no new followers one unfollower and followed one person via'
p281
aS'just sad'
p282
aS'lmao yeah okay'
p283
aS'you boutta die you better go hide'
p284
aS'slacking i gotta get this package ready to go and im over here in bed rest \xf0\x9f\x98\x92'
p285
aS'i keep hearing doors opening but im home alone \xf0\x9f\x98\xb3'
p286
aS'one of the million things that sucks about not having my mamma is not having anyone to take care of me when im sick  \xf0\x9f\x98\x94'
p287
aS'today stats no new followers one unfollower via'
p288
aS'making plans \xf0\x9f\x91\xb0'
p289
aS'the way to prove yourself is to better yourself truth \xf0\x9f\x87\xba\xf0\x9f\x87\xb8'
p290
aS'i just feel like watching chic flicks all day'
p291
aS'your my inspiration bitch and i promise i wont let you down \xf0\x9f\x98\x8c'
p292
aS'i think all us country girls hate this'
p293
aS'hey you can say whatever you want about our shithead of a president nsa is shutdown\xf0\x9f\x98\x82\xf0\x9f\x98\x82'
p294
aS'death changes a person'
p295
aS'today stats no new followers 2 unfollowers and followed one person via'
p296
aS'placing these plans in my heavenly fathers hands may they come to be and everything turn out fine \xf0\x9f\x98\x8c'
p297
aS'soooooo sexy and pricy lol'
p298
aS'if i die young i hope my loved ones still celebrate my birthdays the way we would crownroyal hookah vip bp 2x fa\xe2\x80\xa6'
p299
aS'\xf0\x9f\x98\x8d\xf0\x9f\x98\x8d\xf0\x9f\x98\x8d\xf0\x9f\x98\x8di want her'
p300
aS'wcw \xf0\x9f\x98\x8d this beautiful ford raptor'
p301
aS'i dont really think about it but i really cant wait to see my man in uniform in person \xf0\x9f\x98\x81roll over and die \xf0\x9f\x98\x8d'
p302
aS'hes my sun \xe2\x98\x80\xef\xb8\x8f he makes me shine like diamonds \xf0\x9f\x92\x8e\xf0\x9f\x8e\xb6'
p303
aS'wcw shes why i wake up with a smile on my face with her cute self  phoebee\xf0\x9f\x98\x98'
p304
aS'lol if you say so'
p305
aS'lol hell yeah thats my wife so i have to '
p306
aS'kiss me hard before you go\xe2\x80\x9d lmaoo you jam lana too '
p307
aS'stop stressing let go and move on '
p308
aS'sacrificing so much to get to where i wanna be from relationships to new life styles chasing the american dream'
p309
aS'my last concert for the yearamp headed to south texas yep\xf0\x9f\x98\x81'
p310
aS'november youre looking so good from this distance \xf0\x9f\x98\x8f'
p311
aS'mrs delgado coming your way'
p312
aS'so many things i wanna do for fall \xf0\x9f\x98\xac'
p313
aS'whoa huge fun fact i learned in class african americans dont peel when they get sunburned \xf0\x9f\x98\xa7'
p314
aS'no baby no problem'
p315
aS'salty cause salvis \xf0\x9f\x98\x9c\xf0\x9f\x98\xb7'
p316
aS'thank god for keeping me safe from all these unnecessary things we all go through in our teenage years \xf0\x9f\x99\x8f'
p317
aS'my opinion tho \xf0\x9f\x98\x8a'
p318
aS'get them claw scratches instead or something if you wanna rep your inner beast'
p319
aS'if she doesnt like whataburger just let her go'
p320
aS'print tattoos are gross af ltlt in that case go get a skin change'
p321
aS'100 burgers at whataburger tonight dollaholla'
p322
aS'shoulda just called him whiskey \xf0\x9f\x8e\xb6'
p323
aS'shoulda just called it like i saw it shoulda just ran like hell'
p324
aS'need to relieve some stress and anger'
p325
aS'today stats no new followers one unfollower via'
p326
aS'think im traumatized \xf0\x9f\x98\xb3'
p327
aS'with my awesome new fams'
p328
aS'i wish to be in katy rn'
p329
aS'spoiledtweet i still question his definition of cute'
p330
aS'someone come teach my dog how to play dead for me ill pay you in gum \xf0\x9f\x98\xac'
p331
aS'so much for gettin some sleep tonight\xf0\x9f\x98\x92'
p332
aS'i dont understand people who use other people to try and make their bf or gf jealous'
p333
aS'amor eterno inolvidable \xf0\x9f\x92\x95'
p334
aS'my dad took my car so yeah \xf0\x9f\x98\x91'
p335
aS'no one is who they seem to be'
p336
aS'i wanna visit yall one if these days \xf0\x9f\x98\x8c'
p337
aS'i miss you'
p338
aS'i got it over with'
p339
aS'mcchicken flow w'
p340
aS'need to get my mind on something other than today caseofthemondays youdontwannacatchacase'
p341
aS'baby baby baby bring me down i wana be where you are \xf0\x9f\x8e\xb6\xf0\x9f\x8e\xb6'
p342
aS'man if i say im sorry thats major badbitchesareneversorry butireallyam mylifesuck'
p343
aS'when you dont know if you should  shouldnt trust the distance ltlt'
p344
aS'so to jd giving me a root beer for baby sitting his guitar that i almost broke'
p345
aS'women shouldnt want a man to take care of themtake care of yourself first get a good man then take care of each other'
p346
aS'twas not the same without you \xf0\x9f\x98\x94'
p347
aS'\xf0\x9f\x98\xad\xf0\x9f\x98\xadi wanna be in tyler w you \xf0\x9f\x92\x94'
p348
aS'i love how much n i are alike downforwhatever'
p349
aS'sometimes it sucks to be sweet'
p350
aS'always \xf0\x9f\x98\x98'
p351
aS'i love what i fuck with'
p352
aS'nobama'
p353
aS'today stats no new followers one unfollower via'
p354
aS'then she took me by the hand and said ill only marry you on one condition and we danced\xf0\x9f\x8e\xb6\xf0\x9f\x8e\xb5\xf0\x9f\x8e\xb6'
p355
aS'when is nap time'
p356
aS'not im still asleep'
p357
aS'no on your birthday have a good one \xf0\x9f\x98\x81\xf0\x9f\x8e\x82\xf0\x9f\x8e\x89'
p358
aS'soon will be back up north first of my changes for 2014 \xf0\x9f\x98\x8c\xf0\x9f\x98\x81\xf0\x9f\x98\xb1'
p359
asS'2013_46'
p360
(lp361
S'highly disappointed this is heart breaking'
p362
aS'fresas con crema gtgtgt \xf0\x9f\x98\x8d\xf0\x9f\x98\x8d\xf0\x9f\x98\x8d'
p363
aS'the fresh prince of belair i never thought this way'
p364
aS'today stats 2 followers no unfollowers and followed one person via'
p365
aS'yeeyee'
p366
aS'working is not cool \xf0\x9f\x98\xab'
p367
aS'ya need to stop'
p368
aS'ive never met anybody so happy to be working in my life'
p369
aS'thug muffin \xf0\x9f\x92\xa5'
p370
aS'lmao me too'
p371
aS'for real'
p372
aS'the hell is tagg'
p373
aS''
p374
aS'today stats one follower no unfollowers and followed one person via'
p375
aS'good one lmao'
p376
aS'spanishgirlslipstastelikesazon \xe2\x80\x9d blackboyslipstastelikechicken \xf0\x9f\x98\xad\xf0\x9f\x98\x82'
p377
aS'ermergherd'
p378
aS'ive heard it all but im waiting for what i deserve'
p379
aS'i might be loosing you but im gaining success'
p380
aS'those weeks i dont get paid \xf0\x9f\x92\x94'
p381
aS'today stats one follower no unfollowers via'
p382
aS'today stats one follower no unfollowers and followed 2 people via'
p383
aS'but why those print tats why looks like some skin disease'
p384
aS'where to find the motivation for this last month \xf0\x9f\x98\xad'
p385
aS'i hate i had to reach this point in life where i dont care of who i leave in the past specially someone who held so much value'
p386
aS'i hate cocky bitches get the fuck over yourself'
p387
aS'so i believe in good and bad applausen i live for both'
p388
aS'i mite b a bitch but im a bitch to the core  100 natural'
p389
aS'today stats one follower no unfollowers via'
p390
aS'1 more month to go \xf0\x9f\x99\x88'
p391
aS'pretty much'
p392
aS'its crazy how much we take for granted'
p393
aS'lol i know'
p394
aS'deff cried my heart out'
p395
aS'surround yourself with positive vibes'
p396
aS'thank you all for sharing your veteran pictures today i loved them all'
p397
aS'i wanna follow fun people on insta send me yalls username'
p398
aS'i used to crush on him but had to move onto bigger amp better things ya know'
p399
aS'god bless our veterans'
p400
aS'thank you to all veterans this shouldnt be the only day we salute you'
p401
aS'send me a picture of your favorite veteran\xe2\x80\x9d my fianc\xc3\xa9 amp his unit currently deployed \xf0\x9f\x87\xba\xf0\x9f\x87\xb8'
p402
aS'my greatgrandpa whos 92 in full dress blues being honored at a reds game\xf0\x9f\x98\x8a'
p403
aS'happy veteransday to all the soldiers that protect and serve our country salute'
p404
aS'today stats one follower one unfollower via'
p405
asS'2013_47'
p406
(lp407
S'katytx'
p408
aS'today stats 3 followers one unfollower and followed one person via'
p409
aS'guys that still sag way too hard ltltltltltltltltltlt'
p410
aS'i miss your jack daniel kisses'
p411
aS'sounds good \xe2\x9c\x8c\xef\xb8\x8f'
p412
aS'dec 14 homie'
p413
aS'all this travelings'
p414
aS'im feeling low key tired yo'
p415
aS'buy hes gay \xf0\x9f\x98\x9e'
p416
aS'exactly when you turnin up again tho have to do it before i leave for vaca'
p417
aS'\xf0\x9f\x92\x95'
p418
aS'same here shawty same hea'
p419
aS'holy crap holy crap why did i just get placed in the most awkward place ever'
p420
aS'youre in texas when everyone gets excited for the cold front'
p421
aS'it happens \xf0\x9f\x92\x81'
p422
aS'sup ya no invitas a turnup'
p423
aS'omg i cant even laugh at miley rn i gotta pee'
p424
aS'mmm albondigas \xf0\x9f\x98\x8d'
p425
aS'i really need to pee \xf0\x9f\x98\xab'
p426
aS'swag'
p427
aS'the difference between pizza and your opinion is that i ordered a pizza'
p428
aS'its mr steal your pizza'
p429
aS'everyone falls down only the best get back up'
p430
ag374
aS'people are more jealous than you\xe2\x80\x99d think of what they can\xe2\x80\x99t have and can\xe2\x80\x99t be don\xe2\x80\x99t let \xe2\x80\x98em get you down'
p431
aS'buck started singing wrecking ball my nigga'
p432
aS'lmao i think high schoolers now have it better than i did so much crazy amp funny things going on'
p433
aS'cough medicine  whiskey'
p434
aS'whiskey \xf0\x9f\x98\x9c'
p435
aS'on the road once again \xf0\x9f\x98\x8f'
p436
aS'everything is happening so fast'
p437
aS'the only problem with whataburger is that it\xe2\x80\x99s not in front of me right now'
p438
aS'this summer \xf0\x9f\x98\xb3idk im so confused right now'
p439
aS'i thought it was shorter \xf0\x9f\x98\xb3'
p440
aS'shall be back in he motherland in 3 weeks \xf0\x9f\x98\x8alatahatas'
p441
aS'eh whatevs'
p442
aS'dont sign up if you gonna be sad though '
p443
aS'doesnt make sense you should be happy'
p444
aS'i dont get why someone would sound so disappointed for signing up to the services'
p445
aS'the only people who will diss you for doing what you love are the ones living a life they hate'
p446
aS'bags all packed amp ready for h town'
p447
aS'oh my damn what happened to your gorgeous hair who told you to cut it \xf0\x9f\x98\xa0'
p448
aS'all my real friends respect me'
p449
aS'when my brothers decide not to reply to my texts i feel like telling them to fuck themselves theyre complete assholes'
p450
aS'i often wish i could save everyone but im a dreamer'
p451
aS'cant stand being around kids who are bad af with no home training smh'
p452
aS'i belong with you you belong with me youre my sweetheart \xf0\x9f\x92\x95'
p453
aS'in high school i thought i was falling in love with a guy but i was actually just becoming addicted to the cigarettes he sm\xe2\x80\xa6'
p454
aS'i want pizzaaaaa \xf0\x9f\x98\xab'
p455
aS'i love all these pizza tweets yassssss'
p456
aS'a pizza a day keeps the doctor away'
p457
aS'old miley was perfect \xf0\x9f\x98\x8d\xf0\x9f\x91\x8c'
p458
aS'loves a funny thing when you least expect it'
p459
aS'i dropped all my hoes for her amp it still didnt work out she owes me some hoes'
p460
aS'noretweetscauseugly'
p461
aS'fuck a fake friend where the pizza guy at'
p462
aS'wcw all these hot bitches on my tl that havent acted like city rats with me'
p463
aS'orange chicken gtgtgtgt'
p464
aS'you may be lifting more than me physically but im lifting more than you emotionally \xf0\x9f\x92\xaa'
p465
aS'i highly appreciate who you were in the past for me but now youve crossed the line dismissed \xe2\x98\x9d\xef\xb8\x8f'
p466
aS'i guess were all having bitch problems today'
p467
aS'this bitch is a joke srsly'
p468
aS'my level of sarcasm has gotten to the point where i dont even know if im kidding or not'
p469
aS'if youre a funny bitch then ill like you but if youre just a rude ass bitch who thinks they are better then everyone \xe2\x80\xa6'
p470
aS'only time will tell but im running out of patience amp time'
p471
aS'i question god so much cause im not sure how strong hes trying to make me be ive had enough with the joys of life and lessons'
p472
aS'i hate it when people get to me \xf0\x9f\x98\xab\xf0\x9f\x91\x8a'
p473
aS'some people are treated like doormats and they are okay with that'
p474
aS'bitch youve been cut \xf0\x9f\x94\xaa\xf0\x9f\x93\xb4'
p475
aS'be straight up about yourself towards me'
p476
aS'why do people choose to be fake with me'
p477
aS'go to college they said itll be fun they said'
p478
aS'no shave november did justice for some guys but the rest of yall look like a bunch of rapist and grizzly bears shaveitoff\xe2\x80\xa6'
p479
aS'welp today sucked the end'
p480
aS'today stats one follower one unfollower via'
p481
aS'gettin my bags packed amp ready for katy tis weekend'
p482
aS'i love country music'
p483
aS'\xf0\x9f\x8e\xbboh i can see the light of your smile glowing through the night \xf0\x9f\x8e\xb6'
p484
aS'thats the sound of dallas love \xf0\x9f\x98\x98'
p485
aS'times running out \xf0\x9f\x98\x81\xf0\x9f\x98\x81\xf0\x9f\x98\x81\xf0\x9f\x98\x81'
p486
aS'48 days bitches '
p487
aS'today stats no new followers one unfollower via'
p488
aS'females always got shit like la \xe2\x9c\x88\xef\xb8\x8f nyc \xe2\x9c\x88\xef\xb8\x8f in their bio bitch you never been out the projects before sit yo section 8 \xe2\x80\xa6'
p489
aS'1st destination  dec 14 i shall be back up north'
p490
asS'2013_44'
p491
(lp492
S'have to start on a 6 pg research paper thats due tomorrow \xf0\x9f\x98\xb3'
p493
aS'im still heartbroken from that movie last night \xf0\x9f\x98\x94\xf0\x9f\x92\x94'
p494
aS'never knew dogs could snore \xf0\x9f\x98\xb3 this dog didnt let me sleep for shit'
p495
aS'experiencing amazing sunrises when deer hunting \xf0\x9f\x98\x8d\xf0\x9f\x98\x8d cabelascountry'
p496
aS'\xf0\x9f\x98\xad\xf0\x9f\x98\xad\xf0\x9f\x98\xad\xf0\x9f\x98\xad\xf0\x9f\x92\x94\xf0\x9f\x92\x94\xf0\x9f\x92\x94'
p497
aS'holy macaroni i just saw instructionsnotincluded and im balling my eyes out '
p498
aS'country from her cowboy boots to her down home roots ripmamma \xe2\x9d\xa4\xef\xb8\x8f'
p499
aS'he finally received my 50lb package lol'
p500
aS'i love my mom \xf0\x9f\x99\x8f\xe2\x9d\xa4'
p501
aS'i may complain here and there about the military but i would never change what my man loves to do i will always suppor\xe2\x80\xa6'
p502
aS'my christmas list 1 my boyfriend 2 my boyfriend 3 ummmmmmmmm my boyfriend \xf0\x9f\x8e\x81'
p503
aS'i just wanna eat my feelings away with good food n then just workout all night and just cuddle w my dog join the party'
p504
aS'im never gonna accept the fact that youre gone'
p505
aS'oomf is giving me the cold shoulder i guess'
p506
aS'hope everyone has a safe weekend \xf0\x9f\x98\x98'
p507
aS'today stats one follower no unfollowers via'
p508
aS'so excited  halloweens over next chapter in life waiting to happen \xf0\x9f\x98\x81'
p509
aS'honey boo boos family dressed up as the kardashians im dead \xf0\x9f\x98\x82'
p510
aS'may the countdown begin \xe2\x9d\xa4\xef\xb8\x8f'
p511
aS'lana del rey lana ctrl rey lana alt rey'
p512
ag374
aS'there are plenty of things i want i trust wholeheartedly god will bless me with everything i desire when heshe thinks i\xe2\x80\xa6'
p513
aS'queeeeee'
p514
aS'its a total mix of emotions im sad to leave loved ones behind but im excited to continue moving forward'
p515
aS'making everyday count \xf0\x9f\x8c\xb5'
p516
aS'45 days til i leave this town for good \xf0\x9f\x98\x86'
p517
aS'im not shy about disliking obama hes a liar and im not afraid to express my disgust with the way he runs and ruins my\xe2\x80\xa6'
p518
aS'busy packing up and throwing out getting ready for my move up north'
p519
aS'he makes me feel worth more than this distance \xf0\x9f\x9a\x80'
p520
aS'you went away how dare you i miss you mirandalambert'
p521
aS'is it socially acceptable to ask people what is going on this weekend if its just monday '
p522
aS'its only monday and im already mentally and physically done'
p523
aS'idk what i just saw \xf0\x9f\x90\xb7'
p524
aS'holy shit \xf0\x9f\x98\xb3lmao'
p525
aS'your avi gtgt'
p526
aS'waiting for the love of a traveling soldier'
p527
aS'today stats no new followers one unfollower via'
p528
aS'\xf0\x9f\x90\xb7'
p529
aS'its only monday \xf0\x9f\x98\xab'
p530
aS'dont call yourself a future milso \xe2\x9c\x8b\xe2\x80\x9d'
p531
aS'i hate this weather makes me just wanna sleep 247'
p532
aS'guys dont be the other guy her guy knows nothin about respect the relationship like youd respect your grandparents marr\xe2\x80\xa6'
p533
aS'\xf0\x9f\x98\x81\xf0\x9f\x91\x8dcuando quieras'
p534
aS'too much fun dressing up face painting done by yours truly \xf0\x9f\x98\x8f\xf0\x9f\x98\xac\xf0\x9f\x91\x8c thank you bab\xe2\x80\xa6'
p535
aS'sunday fun day w my little brother isaac'
p536
asS'2013_45'
p537
(lp538
S'quote for the night when i get home she gonna shake it like a red nose'
p539
aS'in my feelings texas'
p540
aS'i should have let you jump'
p541
aS'wtf am i doiiiiiing'
p542
aS'i push away folks on the daily'
p543
aS'rt if you miss someone right now\xf0\x9f\x98\x92\xf0\x9f\x98\x94'
p544
aS'picslip'
p545
aS'gross'
p546
aS'shit aint easy'
p547
aS'why thank you  lol \xf0\x9f\x98\x8a'
p548
aS'you look great \xf0\x9f\x91\x8d'
p549
aS'tell me why aint nothin but a mistake'
p550
aS'i love it here \xf0\x9f\x98\x94'
p551
aS'veteransweekend \xe2\x9d\xa4\xef\xb8\x8f\xf0\x9f\x92\x99\xe2\x9d\xa4\xef\xb8\x8f'
p552
aS'counting down the dayssss'
p553
aS'having lunch with her bf \xf0\x9f\x8d\x95\xf0\x9f\x8d\xb9 what a happy couple armygfproblems \xf0\x9f\x98\xaa'
p554
aS'lunch with baelt3'
p555
aS'katy in 2 weeks \xf0\x9f\x98\x8a'
p556
aS'babes ready to come home to me im ready to have him back so proud \xf0\x9f\x87\xba\xf0\x9f\x87\xb8 2monthsleft'
p557
aS'sometimes a picture is worth just 2 words thank you rt to thankourveterans'
p558
aS'tsk tsk tsk'
p559
aS'someone caught the cactus up their ass virus \xf0\x9f\x98\xaf\xf0\x9f\x8c\xb5\xf0\x9f\x92\xa9'
p560
aS'today stats no new followers one unfollower via'
p561
aS'dirk nowitzki'
p562
aS'how much '
p563
aS'the best things always happen unexpectedly and i have to understand that'
p564
aS'i wanna go to the parade  '
p565
aS'monday is veterans day \xf0\x9f\x98\x81\xe2\x9d\xa4\xef\xb8\x8f'
p566
aS'its 5 oclock somewhere \xf0\x9f\x98\x8a'
p567
aS'not even they can stop me now \xf0\x9f\x92\x97'
p568
aS'finally i got it right'
p569
aS'the more i allow myself to open up to talk about my personal life and having the right person makes me fall in love even more'
p570
aS'baby its our prime time \xf0\x9f\x92\x97'
p571
aS'holy perspective'
p572
aS'today stats 4 followers no unfollowers and followed 2 people via'
p573
aS'jail time for me \xf0\x9f\x98\x92 things we do for ungrateful biological family'
p574
aS'thanks george strait for being my hero'
p575
aS'kobe need come back and dunk on dwight coward'
p576
aS'im still waiting for this emoji'
p577
aS'tupac just inspired my next speech for class and yall thought he was no good \xf0\x9f\x99\x8e'
p578
aS'i know \xf0\x9f\x98\x92\xf0\x9f\x98\xb3\xf0\x9f\x98\x94lol we haves too '
p579
aS'yea well you know im all ways down for a good timeeveryone else is lame lol truthis'
p580
aS'aww im gonna miss you  we must party tha night away '
p581
aS'well ill be on vaca for like a month up at indiana amp then make my move to upstate ny \xf0\x9f\x98\xac\xf0\x9f\x98\xb3'
p582
aS'we have to go out before the great leave  we just gotta pump the other girls for it \xf0\x9f\x92\x81which is a struggle'
p583
aS'i miss you doing it with me  '
p584
aS'ill come twice a year  or more \xe2\x98\xba\xef\xb8\x8f'
p585
aS'ive become closer to people than what i should of been by now my move will be heart breaking ish sorta '
p586
aS'i miss hearing say yeeeeessssssss before he gets turnt amp slowly begin to twerk lmao'
p587
aS'ive missed my sister from another mister  \xf0\x9f\x92\xa9\xe2\x9c\xa8'
p588
aS'okay ill say the energy drink is working now to attack this essay '
p589
aS'hello guys im a food addict and i cant stop \xe2\x9d\xa4\xef\xb8\x8f'
p590
aS'go follow because she is the sweetest \xe2\x98\xba\xef\xb8\x8f\xe2\x9d\xa4\xef\xb8\x8f'
p591
aS'i was thinkin bout deactivating all my social network accounts soon as i got my life together but what can i say i love the twita'
p592
aS'all these mexicans but im still not the juan'
p593
aS'wrecking ball retake wreckingball lol bdl'
p594
aS'i just really need to make this essay my bitch \xf0\x9f\x98\xa0'
p595
aS'faaaaaak this rockstar tastes like something i drink on the weekends \xf0\x9f\x98\xa9'
p596
aS'thanks doll too sweet of ya \xf0\x9f\x98\x8a wcw back at ya \xf0\x9f\x91\xb8'
p597
aS'wcw to my favorites \xf0\x9f\x92\x95'
p598
aS'today stats one follower no unfollowers via'
p599
aS'i low key love cuddling with my dog  wait idgaf who knows\xe2\x9c\x8b'
p600
aS'how am i to be expected to write an essay when i have better and cooler things to do like not write an essay'
p601
aS'i lowkey want this guy to get shot and it be over with'
p602
aS'i used to date this psycho computer nerd judge me'
p603
aS'is like the best investigator ever she can find anyone on any social media network shes seriously crazy'
p604
aS'\xf0\x9f\x98\xb3 ill take it as a compliment '
p605
aS'girls should not participate in noshavenovember'
p606
aS'chocolate comes from cocoa which is a tree that makes it a plant chocolate is salad'
p607
aS'metrosexual people need to get their life together before you get pushed out the closet lesbehonest getouttheclosetalready'
p608
aS'the bae \xf0\x9f\x92\x96reunited onelove'
p609
aS'what is air my dallas mampg '
p610
aS'find peace within yourself and make peace with everyone else'
p611
aS'not to state the obvious but its pretty obvious  mamma always wins \xf0\x9f\x98\x98\xe2\x9d\xa4\xef\xb8\x8f'
p612
aS'you stay adorable let the amusement be \xf0\x9f\x98\x8a'
p613
aS'the best feeling is knowing that someone knows all of your flaws has seen you at your worst but still loves you anyways'
p614
aS'one thing i dont like is a basic mind'
p615
aS'ever carry the weight of another for how long '
p616
aS'\xf0\x9f\x98\x98'
p617
ag374
aS'it always is girl it just means that youre out of this world since theyre expired extinct whatevs lmao'
p618
aS'aint nobody even trying to have a glimpse of the past specially when it was no good'
p619
aS'lmao welcome to the club'
p620
aS'ew liars are like that one day you step in dog shit real shittyyy \xf0\x9f\x98\x92'
p621
aS'so when you look back in regret the moment that you left change your mind'
p622
aS'we all have power to our individual mind'
p623
aS'como dijo el faken rick ross straight off the iphoneahuevo'
p624
aS'rt if e  mc2 has impacted your life in a positive way'
p625
aS'girl are you barium silicon carbon bismuth technetium hydrogen cause youre a ba si c bi tc h'
p626
aS'people need to realize they are on twitter youre not impressing anyone doll face \xf0\x9f\x98\x8c\xf0\x9f\x98\x98'
p627
aS'oh exes and their bullshit nevergetsold jokingyesitdoes'
p628
aS'all these shootings lately fuckin it up for us who use it for real reasons as to assassinating innocents texas shall secede idgaf'
p629
aS'update shooter at large after at least 7 shots fired inside garden state mall in new jersey mall on lockdown swat teams rush\xe2\x80\xa6'
p630
aS'i just wanna float up to outer space \xf0\x9f\x91\x80'
p631
aS'omg \xf0\x9f\x99\x8a'
p632
aS'i feel the same excitement and get all teary eyed when i think about it really'
p633
aS'learning about folks meeting their lifetime celebrity meet amp greets amp what not makes me nervous bout finally reuniting w my other half'
p634
aS'1 pound of fat'
p635
aS'refocus refocus \xe2\x9c\x8b\xf0\x9f\x92\xa2\xf0\x9f\x98\x96'
p636
aS'been a while since i been inside you'
p637
aS'been a while since i been inside you\xe2\x80\x9d \xf0\x9f\x98\xb3'
p638
aS'feels like falling in love for the first time\xf0\x9f\x8c\x85'
p639
aS'finally  you amp me are the lucky ones this time'
p640
aS'blame it on texas \xf0\x9f\x98\x8f'
p641
aS'its raining so much i loves it'
p642
aS'blame it on my crazy mentality \xf0\x9f\x8c\x85'
p643
aS'my head just took a big spin \xf0\x9f\x98\x96'
p644
aS'im excited for christmas \xf0\x9f\x98\x8a\xf0\x9f\x8e\x84\xf0\x9f\x8e\x85'
p645
aS'all i do now is think ahead of time it aint even no joke '
p646
aS'my bfs mentality is rubbing off on me \xf0\x9f\x98\x9e\xf0\x9f\x98\xac\xf0\x9f\x98\x8f\xf0\x9f\x98\xab'
p647
aS'this season makes me sleepyyyyyy'
p648
asS'2013_24'
p649
(lp650
S'happy birthday pac'
p651
aS'i need you to love me way past forever'
p652
aS'fuck it'
p653
aS'this all just seems unreal'
p654
aS'whatever comes  let it come what stays let it stay what goes let it go'
p655
aS'lets go back to chitown'
p656
ag374
aS'the only memory ill have about milwaukee is witnessing that man commit suicide lord have mercy moodblower'
p657
aS'its actually hot like texas \xf0\x9f\x98\xb0'
p658
aS'k enough of milwaukee'
p659
aS'i am fluent in unconditional love'
p660
aS'oh just witnessed a suicide \xf0\x9f\x98\x92'
p661
aS'lunchstatus ginos east'
p662
aS'im loving chitown '
p663
aS'when youre shining theyre with you and when youre broke they do you wrong'
p664
aS'im not in dallas i shouldnt think bout it'
p665
aS'another example of how i pull through for my family and all im left with are excuses to why theyre arent here for me \xf0\x9f\x98\xa4'
p666
aS'having 0 friends really sucks sometimes'
p667
aS'its strange that the promises that i make to myself are the toughest ones for me to keep'
p668
aS'this yall heat fans bruh'
p669
aS'everytime i visit other cities i hate dallas more and more \xf0\x9f\x98\xb3\xf0\x9f\x98\x92'
p670
asS'2013_25'
p671
(lp672
S'im so hungry and sleepy i cant decide which to do \xf0\x9f\x98\x94'
p673
aS'i hate it when people assume things when they dont know the whole story'
p674
aS'i want to sing right now just sing'
p675
aS'whataburger sounds good right now'
p676
aS'karate chop'
p677
aS'heat fans'
p678
aS'i miss the country stars'
p679
aS'i hate when people analyze me'
p680
aS'waiting on a text lt'
p681
aS'i want a donut'
p682
aS'me everyday'
p683
aS'chillllllllllll tho'
p684
aS'ive got 193 days til i see my man and you thought you had it tough'
p685
aS'i should just turn myself in to the laws and just be like oops \xf0\x9f\x98\xb3'
p686
aS'im so jealous of all you girls that are with your man right now id do anything to be with mine \xf0\x9f\x98\x94'
p687
aS'cant stand to see me happy with someone else movearound'
p688
aS'very disgusting how these guys love to recycle each others ex girlfriends no type of self respect'
p689
aS'no need to dwell on the past the best is always yet to come'
p690
aS'idk if my brother ditched his girl to take me to chilis or because he thinks im gonna pay nigga owes me'
p691
aS'lets go to chilis'
p692
aS'sup toobored morena \xf0\x9f\x98\x98k'
p693
aS'lakers fans be like'
p694
aS'will ever follow me '
p695
aS'thats rare lmfao im fucking dead'
p696
aS'everyone loves soccer'
p697
aS'let others rise to your level verytrue lovethis'
p698
aS'lmao so they really named their baby north west now all the guadalupes dont feel so bad'
p699
aS'i really wanna eat alot right now \xf0\x9f\x98\x94'
p700
aS'the way my boss decided whod cocktail tomorrows shift  who do i wanna see in a dress \xf0\x9f\x98\xb3'
p701
aS'i have an awesome job i just like to hustle \xf0\x9f\x98\x94'
p702
aS'if us bitches wanna put pictures up on instagram let us like shit wtf do you think instagram is for\xf0\x9f\x98\x92'
p703
aS'o thanks google you are too kind'
p704
aS'these shoes give me such high comfort for such low price \xf0\x9f\x91\x8d\xf0\x9f\x91\x8dwinning tomsrule'
p705
aS'i was finna ask him to give me a job but i aint tryna go to africa'
p706
aS'i met a multi billionaire today guys some white chic screwed him over he was on his 3rd paternity test all for his \xf0\x9f\x92\xb0\xf0\x9f\x92\xb0\xf0\x9f\x92\xb0'
p707
aS'girl put in work'
p708
ag374
aS'idk if i should ask my dad for a favor  hes kinda hard to count ob'
p709
aS'i hadnt ate all day and i just ate but im still hungry \xf0\x9f\x98\x94'
p710
aS'distance is a bitch'
p711
aS' all laker fans retweet'
p712
aS'wish it was raining \xe2\x98\x94'
p713
aS'i feel sick to my stomach'
p714
aS'i dont feel good \xf0\x9f\x98\x94'
p715
aS'you know i have no life if im excited for jury duty'
p716
aS'fellas that are hard to get rid of ltltltlt'
p717
aS'\xf0\x9f\x8e\xa4\xf0\x9f\x98\xa9 oooooh youre gonna want me back'
p718
aS'you got to get back up'
p719
aS'wth is wrong with me second time i feel like breaking down making this care package \xf0\x9f\x98\x93'
p720
aS'i hope san antonio spurs wins fuck the miami heat specially lebron'
p721
aS'rip bernie mac'
p722
aS'should i wear a dress or slacks for jury duty'
p723
aS'my favorite type of boys are the ones that swallow their pride and do the right thing'
p724
aS'a naked girl can get 1000 retweets how many can our troops get \xf0\x9f\x87\xba\xf0\x9f\x87\xb8\xf0\x9f\x87\xba\xf0\x9f\x87\xb8\xf0\x9f\x87\xba\xf0\x9f\x87\xb8\xf0\x9f\x87\xba\xf0\x9f\x87\xb8\xf0\x9f\x87\xba\xf0\x9f\x87\xb8\xf0\x9f\x87\xba\xf0\x9f\x87\xb8\xf0\x9f\x87\xba\xf0\x9f\x87\xb8\xf0\x9f\x87\xba\xf0\x9f\x87\xb8\xf0\x9f\x87\xba\xf0\x9f\x87\xb8\xf0\x9f\x87\xba\xf0\x9f\x87\xb8\xf0\x9f\x87\xba\xf0\x9f\x87\xb8'
p725
aS'one day ill make time for all my admirers that like to make me the town talk and do this'
p726
aS'such sweet nothing dallas'
p727
aS'i hate hypocrite ass people'
p728
aS'agreed its mainly people from facebook dont know how to use hash tags '
p729
aS'i wish we talked all the time but i dont wanna annoy you'
p730
aS'im finding my way'
p731
aS'working as coacktail server this saturday that means i get to flirt with old guys for great tips \xf0\x9f\x8d\xb8\xf0\x9f\x91\x97\xf0\x9f\x8e\x80\xf0\x9f\x92\xb0\xf0\x9f\x92\x9b'
p732
aS'i do need a friend but i dont want one thestruggle'
p733
aS'im huntgri'
p734
aS'you miss me o'
p735
aS'gahhhh i need a life'
p736
aS'allow karma to make its move'
p737
aS'well what can i do i wasnt given the right to make justice'
p738
aS'i honestly dont know how to feel about folks gossiping bout my personal life i dont get it'
p739
aS'hate me  blue october reminds me of momma \xf0\x9f\x99\x8f'
p740
aS'you think you used me im stronger than you'
p741
aS'i wanna cover you in ash  peas amp honey '
p742
aS'i heard you got a main chick a mistress and some hoes u be up to no good amp everybody knows'
p743
aS'its not the mistake that matters its how you deal with it what you learn from it amp how you apply that lesson to yo\xe2\x80\xa6'
p744
aS'they wanna push me down they wanna see you fall down\xe2\x80\x9d'
p745
aS'oh and i can open a starburst in my mouth\xf0\x9f\x98\x8f'
p746
aS'some people gotta realize you cant confide in everyone'
p747
aS'what if i cared less'
p748
aS'id kill you'
p749
aS'im talking about the same person that caused her own nieces depression that person is now trying to put me down now that my moms not here'
p750
aS'ya tu sabes lol i just need it to keep coming'
p751
aS'\xf0\x9f\x98\x81\xf0\x9f\x98\x81 we gonna be ballin d'
p752
aS'youll regret messing with me thats a promise'
p753
aS'everyones just waiting for me to prove them all wrong and i will just wait and watch'
p754
aS'she gay he gay she a hoe she pregnant he sell drugs they smoke weed they drunk who cares leave people alone its their \xe2\x80\xa6'
p755
ag374
aS'same here lol \xf0\x9f\x92\xb8'
p756
aS'thanks buddy \xf0\x9f\x98\x81\xf0\x9f\x98\x81\xf0\x9f\x98\x98\xf0\x9f\x98\x8a just waiting for friday on that'
p757
aS'dayum'
p758
aS'i want menudo \xf0\x9f\x98\xb3'
p759
aS'you can do it \xf0\x9f\x91\x8f\xf0\x9f\x98\x98get that money '
p760
aS'i will never say this life is easy it takes a lot of strength patience amp understanding'
p761
aS'if your happy other peoples comments shouldnt concern you after all its your life\xe2\x80\x9d'
p762
aS'im a good person with bad luck'
p763
aS'seeing results is the best feeling '
p764
aS'i dont have your  whats the prob'
p765
aS'i love working'
p766
aS'and i get the same paycheck because we both worked the same hours we can be rich together \xf0\x9f\x98\x81\xf0\x9f\x91\x8f\xf0\x9f\x92\xb0\xf0\x9f\x98\x8d'
p767
aS'guys i have to do something amazing for my birthday i deserve to'
p768
aS'no matter what i have to make this a productive day \xe2\x98\x9d'
p769
aS'i wish we can fast forward through june amp go straight to july \xe2\x8f\xa9'
p770
aS'my temp avi gt'
p771
aS'tu estas siempre en mi mente'
p772
aS'im gonna find a way i have to i must'
p773
aS'just got back to my pops and what a record breaker disappointed in less than 10 mins from arrival \xf0\x9f\x98\xab'
p774
aS'sad but so fucking true \xf0\x9f\x91\x8f\xf0\x9f\x91\x8f\xf0\x9f\x91\x8f'
p775
aS'im considering to fight for my younger brother just dont know how'
p776
aS'tomorrow isnt friday neither is the day after or the day after that thanks obama'
p777
aS'whats boarding school all about'
p778
aS'\xf0\x9f\x98\x82\xf0\x9f\x98\x82\xf0\x9f\x98\xad\xf0\x9f\x98\xad lmao i swear is like the biggest idiot ever \xe2\x80\x9d o'
p779
aS'7 more months how much more can i take '
p780
aS'easilyattractedto someone who can make me laugh and smile'
p781
aS'i was gonna keep it real like chill like only have a drink or two'
p782
aS'spoil me with food'
p783
aS'so this 14 yr old wants to complain bout how everyone says he looks way older im just like man you need to chill with the drugs'
p784
aS'pour me something stronger than me'
p785
aS'no fathers day post from me today so so to dad for always bein there for me when no one else is'
p786
aS'colombians really hate puerto ricans for some reason\xe2\x80\x9d understand my life'
p787
aS'all good things come to end until next time sis \xf0\x9f\x98\x94 proudnavysister'
p788
aS'really not looking forward to going back to texas'
p789
aS'hoes only like the miami heat cause they burning\xee\x84\x9d\xee\x90\x8d\xee\x90\x92\xee\x90\x92'
p790
aS'i really dont want to go back to texas \xf0\x9f\x98\xad\xf0\x9f\x98\xad\xf0\x9f\x98\xa9\xf0\x9f\x98\xa9'
p791
aS'so proud to see one of my closest friends do it big in the navy rather have tears of joy than to have tears of pain'
p792
aS'lets get crackin'
p793
asS'2013_26'
p794
(lp795
S'heaven is what im down for i swear the devil is at war with me'
p796
aS'i need to find a roomie im not trying to stay in my house for another month '
p797
aS'im so hungry these past crazy work schedules have messed up my sleeping'
p798
aS'4th of july weekend please hurry up\xf0\x9f\x98\x9c\xf0\x9f\x98\x8e\xf0\x9f\x8d\xba'
p799
aS'cant wait to get home to my dog'
p800
aS'yes baby finally gonna get to see him \xf0\x9f\x98\x81\xf0\x9f\x98\x81\xf0\x9f\x98\x81\xf0\x9f\x98\x81\xf0\x9f\x98\x81'
p801
aS'i hate realistic dreams \xf0\x9f\x99\x80'
p802
aS'sweet mother of bob busy making this '
p803
aS'niggas be more sensitive than females nowadays'
p804
aS'me'
p805
aS'love takes the patience of job thats what my mama always said'
p806
aS'i wish they could just experience it for a day'
p807
aS'hes hungry too'
p808
aS'i over think myself into a bad mood'
p809
aS'whoisdeafgreg for the dumb uneducated haters lol'
p810
aS'if you think i dont fuck with you youre probably correct'
p811
aS'whatttt '
p812
aS'heck yeah its like a combo of all em good artist'
p813
aS'all this negativity on my tl lt just chilllllll \xf0\x9f\x98\x8c'
p814
aS'shes coming 727 my bday we should go '
p815
aS'i have to see miranda lambert one day'
p816
aS'dont make me cry i miss my man \xf0\x9f\x98\x94waitingfortheloveofatravelinsoldier'
p817
aS'i see em hatin but it aint nuttin to me'
p818
aS'knowing no military men were killed  at least for the weekend helps alot'
p819
aS'you must not know me nigga if you did youd know ill pull it'
p820
aS'its easy to get impatient for the future but honestly im starting to just sit back amp enjoy every moment bc they become \xe2\x80\xa6'
p821
aS'we all have problems or its just monday'
p822
aS'i got dreams amp i got the right to chase em'
p823
aS'if i say i got you i got you 100'
p824
aS'i honestly will never cheat on someone but best believe u get insecure on me im dippin to young for that'
p825
aS'soooo hopefully i have shift after shift the rest of the week i need to keep my mind clear and motivated'
p826
aS'they want you back when they see youve moved on neverfails'
p827
aS'ignoring my greatest fears'
p828
aS'trusting my guts on this one'
p829
aS'it will all be worth it at the end \xf0\x9f\x98\x8c\xf0\x9f\x92\xb0\xf0\x9f\x92\xb8'
p830
aS'i really need to get back to thanking god more and being so crazy less\xe2\x80\x9d'
p831
aS'swear 2003 doesnt feel like 10 years ago'
p832
aS'pray for our troops'
p833
aS'hahaha this is pretty funny \xf0\x9f\x98\x82\xf0\x9f\x98\x82\xf0\x9f\x98\x82\xf0\x9f\x91\x8c'
p834
aS'drake the type of nigga that would help his ex girlfriend move her stuff into her new boyfriends house'
p835
aS'this sht aint no coincidence exactly what my brother was saying'
p836
aS'reunited with my dog only to leave again \xf0\x9f\x98\x94\xf0\x9f\x92\x94'
p837
aS'well everybodys got a story to tell and everybodys got a wound to be healed\xe2\x80\x9d'
p838
aS'over thinking i get a mini heart attack when i think way too much'
p839
aS'sometimes you get tired of the same story'
p840
aS'mondays back to reality'
p841
aS'and i love you'
p842
aS'girls who dont ask for much deserve it all'
p843
aS'moral of my story'
p844
aS'ready for 4th of july weekend\xf0\x9f\x98\x8e'
p845
aS'just maybe a shoulder or ear to listen for your heart'
p846
aS'you dont have to rely on anyone for your own happiness'
p847
aS'i need to change but i cant find the strength to move'
p848
aS'im fighting to get away from my family theyre my weakness'
p849
aS'la vida es haci'
p850
aS'guys lets just all hug it out well be good lol'
p851
aS'im saying lol'
p852
aS'its not even monday amp im already feeling the stress'
p853
aS'i feel like everyone on twitters having a heart to heart'
p854
aS'if i said i got you then thats for life bro\xe2\x80\x9d'
p855
aS'no matter what il never turn my back on my niggas or family'
p856
aS'im just too nice someone punch me'
p857
aS'its just like everyone in my familys taken their stabs at me and im still here for them'
p858
aS'aint it why were here for tho the money'
p859
aS'spoke w my fam up north  '
p860
aS'i just think when you love someone you stay there for them especially through the worst'
p861
aS'i hate being sober when im sober i drown myself in thoughts'
p862
aS'your sorry doesnt mean shit if i dont trust you anymore'
p863
aS'te quiero para mi '
p864
aS'tired of over thinking'
p865
asS'2013_27'
p866
(lp867
S'last night gtgtgt'
p868
aS'good dancing partner \xf0\x9f\x91\x8d\xf0\x9f\x91\x8d\xf0\x9f\x91\x8f\xf0\x9f\x91\x8f'
p869
aS'good time indeed \xe2\x98\xba\xf0\x9f\x91\x8d'
p870
aS'saturday night funn \xe2\x98\x80'
p871
aS'its july birthday at the end of the month vacation and everything i wanna have a good time'
p872
aS'im just happy right now'
p873
aS'up early on this sunday  \xe2\x98\xba\xe2\x98\x80'
p874
aS'after billys'
p875
aS'too much fun last night im still in my hype yo todo bueno on my end i dont wanna go home cause i know itll be gone by then \xf0\x9f\x98\xa9'
p876
aS'cant be mad about a thing youre alive why complain '
p877
aS'last week started off rough but i know this upcoming week will be much better claiming it now'
p878
aS'vacation in a few weeks houston should be fun'
p879
aS'two steppin all night \xf0\x9f\x91\x8d\xf0\x9f\x91\x8d\xf0\x9f\x91\x8d'
p880
aS'too much fun tonight \xf0\x9f\x98\x9c'
p881
aS'billy come on out wont ya come on out for us billy billycurrington'
p882
aS'blame it all on my roots i showed up in boots and ruined the black tie affair'
p883
aS'woot woot'
p884
aS'yall missin out \xf0\x9f\x98\x9d'
p885
aS'everyone sucks'
p886
aS'shout out to the ones that only fck with ya when they need something haha'
p887
aS'someone should accompany me tonight \xf0\x9f\x98\x8c'
p888
aS'girl u lookin so fine \xe2\x80\x9d thanks bae see ya tomorrow \xf0\x9f\x92\x95'
p889
aS'i just know how to take care of business some times'
p890
aS'my chica think i hoed her ok'
p891
aS'lakernation getting live up on twitter \xf0\x9f\x92\x9c\xf0\x9f\x92\x9b\xf0\x9f\x92\x9c\xf0\x9f\x92\x9b seeyahoward'
p892
aS'dwight howard flying back to la  this will be the only thing that awaits him in la'
p893
aS'if i told you i was a leo would that make ya wanna follow me more or less '
p894
aS'i think 9 pm'
p895
aS'shawty \xf0\x9f\x94\xa5 burnin on the dance flo'
p896
aS'somebody call 911'
p897
aS'damn yall already burnin jerseys n shit \xf0\x9f\x98\xb3'
p898
aS'laker fans be like'
p899
aS'i need a fan in my room its hot af thanksdad yourethebest deadbeat liferuiner'
p900
aS'if howard didnt like the fact that kobe dunked on him the first time hes gonna love when he does it again the second time'
p901
aS'dwight howard reportedly unhappy in houston'
p902
aS'kobe roll with me or get rolled over'
p903
aS'phoebs amp i ready to see tomorrow \xf0\x9f\x98\x8f'
p904
aS'shes practically my child she has those hyper moments lol'
p905
aS'i should be at a pool or lake celebrating but nooo'
p906
aS'no looking back'
p907
aS'change is good'
p908
aS'after a year of arguing and debating it couldnt have been more clear to me'
p909
aS'after my vaca im finally returning to the mother land'
p910
aS'real recognize real rrr'
p911
aS'today couldnt have convinced me even more about my future'
p912
aS'no holiday feels the same when nobody is around when you get older shit changes but fuck it get money'
p913
aS'i never feel more alone than when im trying to put sunscreen on my back'
p914
aS'\xf0\x9f\x92\x99\xf0\x9f\x92\x99\xf0\x9f\x92\x99\xf0\x9f\x92\x99\xf0\x9f\x8d\xba\xf0\x9f\x8d\xba\xf0\x9f\x8d\xba\xf0\x9f\x8d\xba\xf0\x9f\x8d\xba\xf0\x9f\x8d\xba\xf0\x9f\x8d\xba \xf0\x9f\x92\x99\xf0\x9f\x92\x99\xf0\x9f\x92\x99\xf0\x9f\x92\x99\xe2\x9d\xa4\xe2\x9d\xa4\xe2\x9d\xa4\xe2\x9d\xa4\xe2\x9d\xa4\xe2\x9d\xa4\xe2\x9d\xa4 \xf0\x9f\x92\x99\xf0\x9f\x92\x99\xf0\x9f\x92\x99\xf0\x9f\x92\x99\xf0\x9f\x8d\xba\xf0\x9f\x8d\xba\xf0\x9f\x8d\xba\xf0\x9f\x8d\xba\xf0\x9f\x8d\xba\xf0\x9f\x8d\xba\xf0\x9f\x8d\xba \xf0\x9f\x92\x99\xf0\x9f\x92\x99\xf0\x9f\x92\x99\xf0\x9f\x92\x99\xe2\x9d\xa4\xe2\x9d\xa4\xe2\x9d\xa4\xe2\x9d\xa4\xe2\x9d\xa4\xe2\x9d\xa4\xe2\x9d\xa4 \xf0\x9f\x8d\xba\xf0\x9f\x8d\xba\xf0\x9f\x8d\xba\xf0\x9f\x8d\xba\xf0\x9f\x8d\xba\xf0\x9f\x8d\xba\xf0\x9f\x8d\xba\xf0\x9f\x8d\xba\xf0\x9f\x8d\xba\xf0\x9f\x8d\xba\xf0\x9f\x8d\xba \xe2\x9d\xa4\xe2\x9d\xa4\xe2\x9d\xa4\xe2\x9d\xa4\xe2\x9d\xa4\xe2\x9d\xa4\xe2\x9d\xa4\xe2\x9d\xa4\xe2\x9d\xa4\xe2\x9d\xa4\xe2\x9d\xa4 \xf0\x9f\x8d\xba\xf0\x9f\x8d\xba\xf0\x9f\x8d\xba\xf0\x9f\x8d\xba\xf0\x9f\x8d\xba\xf0\x9f\x8d\xba\xf0\x9f\x8d\xba\xf0\x9f\x8d\xba\xf0\x9f\x8d\xba\xf0\x9f\x8d\xba\xf0\x9f\x8d\xba \xe2\x9d\xa4\xe2\x9d\xa4\xe2\x9d\xa4\xe2\x9d\xa4\xe2\x9d\xa4\xe2\x9d\xa4\xe2\x9d\xa4\xe2\x9d\xa4\xe2\x9d\xa4\xe2\x9d\xa4\xe2\x9d\xa4'
p915
aS'aw all these girls with their marine air force army and navy boyfriends \xf0\x9f\x98\x8a\xf0\x9f\x98\x94'
p916
aS'fuck this im gone to indianapolis'
p917
aS'starting todays first note on how my father chooses to be an idiot fml fuck today'
p918
aS'over today already'
p919
aS'\xf0\x9f\x8e\x86\xf0\x9f\x87\xba\xf0\x9f\x87\xb8\xe2\x9d\xa4\xf0\x9f\x92\x99'
p920
aS'you aint nobody once you been around wit erbody'
p921
aS'erk'
p922
aS'gun shots and fireworks on my street'
p923
aS'i knew dora was a dude'
p924
aS'them lil wayne parodies music actually better than his actual gibberish'
p925
aS'cats got ur tounge'
p926
aS'lmao and yall still havent decided bout tomorrow love birds jk jk'
p927
aS'dont know my story dont judge ya know homie'
p928
aS'alright alright if ya smoke herbs and all em thangs its your thang i dont judge just remember your priorities'
p929
aS'i think i may have low key kicked out my brother from my premises \xf0\x9f\x98\xb3winning'
p930
aS'thats so wrong lazy'
p931
aS'they love me when im not sober'
p932
aS'27th \xf0\x9f\x98\x87yours'
p933
aS'birthday in a few weeks leo\xe2\x80\x9d \xf0\x9f\x99\x8b\xf0\x9f\x98\x81\xf0\x9f\x98\x81\xf0\x9f\x98\x81\xf0\x9f\x91\x8f\xf0\x9f\x91\x8f\xf0\x9f\x8e\x89\xf0\x9f\x8e\x89\xf0\x9f\x8e\x89\xf0\x9f\x8e\x8a'
p934
aS'its always the ugly niggas that wanna fight'
p935
aS'cause im a ride or die if you fail or you fly'
p936
aS'i told you that no matter what you did id be here by your side \xf0\x9f\x92\x9e'
p937
aS'wcw bff rideordie truehappiness'
p938
aS'how many of you will melt like a popsicle tomorrow\xe2\x80\x9d i'
p939
aS'yeah my first reaction to seeing him around'
p940
aS'nigga only giving family visits cause he needs money\xe2\x80\x9d fucked up'
p941
aS'nigga only giving family visits cause he needs money'
p942
aS'\xe2\x9d\xa4'
p943
aS'so to all the women out there who can hold their own'
p944
aS'im meltiinnnnnn'
p945
aS'haaaaewwwtttt'
p946
aS'when people take your jokes too seriously ltltltlt'
p947
aS'my brother shows up after 11 months tryna have a heart to heart swerve noneedforthat'
p948
aS'i get the urge to go out and drink every now and then'
p949
aS'eyebrows fingernails  is it real'
p950
aS'texas always skips autumn lol'
p951
aS'the faster summer comes amp goes the faster winter will be here  and so will my boo \xf0\x9f\x98\x8c\xe2\x98\xba\xf0\x9f\x98\x89'
p952
aS'my house is redicously hot \xf0\x9f\x94\xa5\xf0\x9f\x94\xa5\xf0\x9f\x94\xa5\xf0\x9f\x94\xa5'
p953
aS'\xf0\x9f\x98\x92'
p954
aS'lmao she said it was up to you since youre the man'
p955
aS'np tapout'
p956
aS'something like that were yall still down'
p957
aS'lmao like the other day \xf0\x9f\x98\x8f'
p958
aS'i need to take a break out of life period'
p959
aS'i done seen your kind before'
p960
aS'too excited yayyyyyyy \xe2\x98\xba\xe2\x98\xba\xe2\x98\xba'
p961
aS'yayyy 3rd wheeling tomorrow lol'
p962
aS'i wanna go to the lake tomorrow \xf0\x9f\x98\xa9\xf0\x9f\x98\xa9\xf0\x9f\x98\xa9'
p963
aS'thanks \xe2\x98\xba'
p964
aS'mymotto'
p965
aS'lone star park this saturday \xe2\x98\xba'
p966
aS'fml i think my ac gave out on me at my house thanks dad \xf0\x9f\x98\xab\xf0\x9f\x94\xab'
p967
aS'cant wait to be back in the states tuesday \xf0\x9f\x87\xba\xf0\x9f\x87\xb8\xf0\x9f\x87\xba\xf0\x9f\x87\xb8\xf0\x9f\x87\xba\xf0\x9f\x87\xb8\xf0\x9f\x87\xba\xf0\x9f\x87\xb8\xf0\x9f\x87\xba\xf0\x9f\x87\xb8\xf0\x9f\x87\xba\xf0\x9f\x87\xb8\xf0\x9f\x87\xba\xf0\x9f\x87\xb8\xf0\x9f\x87\xba\xf0\x9f\x87\xb8'
p968
aS'happy 4th of july from \xf0\x9f\x87\xb0\xf0\x9f\x87\xb7 stay strong \xf0\x9f\x87\xba\xf0\x9f\x87\xb8 merica'
p969
aS'hell yeah \xf0\x9f\x98\x8c'
p970
aS'maintain stay okay'
p971
aS'i get bored at home and play with my toys'
p972
aS'yes i got me new boots for my bae saturday night'
p973
aS'i hope my new boots come in friday \xf0\x9f\x98\x81\xf0\x9f\x98\x81\xf0\x9f\x98\x81\xf0\x9f\x98\x81\xf0\x9f\x98\x81'
p974
aS'i absolutely love the 4th of july'
p975
aS'late nights suck without food\xe2\x80\x9d true'
p976
aS'gosh im ready for the weekend'
p977
aS'late nights suck without food'
p978
aS'2013 has been a rollercoaster'
p979
aS'no new friends phoebee'
p980
aS'id rather be at the lake enjoying the sunamp fireworks on the 4th w a nice cool beer \xf0\x9f\x98\x89'
p981
aS'today feels like a recycled monday \xf0\x9f\x98\x92'
p982
aS'upside down pineapple cake gtgtgt'
p983
aS'checkout my phoebees face \xf0\x9f\x98\x81'
p984
aS'i need to get the fuck outta my city'
p985
aS'so confused as ever'
p986
aS'the weather has been beautiful'
p987
aS'fighting for them better days'
p988
aS'dont look at me any different when youve done worse and never had the nerve to do better'
p989
aS'2nd guessing everything'
p990
aS'so mad that apple stores are way too busy to provide help when ive wasted bout 2 hrs of my life trying to get to downtown whyihatethecity'
p991
aS'everyone wants someone who feels lucky to have them\xe2\x80\x9d'
p992
aS'i wonder how fucked up my brother got last weekend that he bought himself some justin b tickets \xf0\x9f\x98\x82\xf0\x9f\x98\x82\xf0\x9f\x98\x82'
p993
aS'getting her a checkup cause she likes to do ratchet stuff when im not around with her i got this\xe2\x80\xa6'
p994
aS'mmmmmm'
p995
ag374
aS'i\xe2\x9d\xa4\xf0\x9f\x92\xa4'
p996
aS'when people offer me food its like wow are u being for real like bless u and ur family i hope all ur dreams com\xe2\x80\xa6'
p997
aS'my dad just told me to make him a sandwich i dont take demands i take requests hellna nohousewifehere sorrynotsorry yougothands'
p998
aS'with these love birds'
p999
ag374
asS'2013_28'
p1000
(lp1001
S'still havent ate'
p1002
aS'im hungry'
p1003
aS'these next 6 months better come by quick patiently awaiting for my next date'
p1004
aS'i miss my man hed take me anywhere i wanted to eat he understands my fat probs'
p1005
aS'i just wanna go for a nice meal'
p1006
aS'bored out of my mind amp its a sunday'
p1007
aS'all types of shit going down'
p1008
aS'niggas be on some other shit when theyre drunk'
p1009
aS'jk'
p1010
aS'worst night ever'
p1011
aS'drunks are never good to be around to'
p1012
aS'late night mcdonalds run  \xf0\x9f\x8d\x94\xf0\x9f\x8d\x9f\xf0\x9f\x9a\x97\xf0\x9f\x92\xa8'
p1013
aS'wide awake \xf0\x9f\x91\x80'
p1014
aS'wahh i dont wanna leave texas \xf0\x9f\x98\xa2'
p1015
aS'sweetest people out here'
p1016
aS'im working in the outskirts of the city tonight thankyoujesus'
p1017
aS'work \xf0\x9f\x92\xb8\xf0\x9f\x92\xb8\xf0\x9f\x92\xb8'
p1018
aS'i have to hit the hay couple more hours for a new day'
p1019
aS'\xf0\x9f\x98\x94'
p1020
aS'and we can have halloween on christmas we will wish this never ends where are you and im so sorry i cant sleep i ca\xe2\x80\xa6'
p1021
aS'yes youre ugly amp dirty'
p1022
aS'so easy to be a heat fan lol continue with the rest of you real fans haha smh'
p1023
aS'lol anyway  you should be like a stats reporter or something already looking ahead into this seasons'
p1024
aS'no the men lmao yes team\xe2\x80\x9d i \xe2\x9d\xa4me some cowboys'
p1025
aS'whore you'
p1026
aS'id rather go to the country club rather than to watch cowboys this fall k'
p1027
aS'the team lol'
p1028
aS'such a long way till the season  but cowboys are coming up\xe2\x80\x9d \xf0\x9f\x98\xb3cowgirls '
p1029
aS'lol i guess'
p1030
aS'lmao need some triple d water straight from the trinity river  lol\xe2\x80\x9d you tryna kill me i sense that laker hate'
p1031
aS'heat won a easy ass championship  which the spurs should have won that game'
p1032
aS'like my mavs \xe2\x80\x9d cough  yes chaggo  chokes on cough '
p1033
aS'i knew it lol i know theyve been going through a tough patch but thats what makes a team so great'
p1034
aS'on 2nd thought go lakers headass lol but we will see angie '
p1035
aS'angie still got love for me '
p1036
aS'all i say is the truth chica lol im a nba analyst\xe2\x80\x9d i will analyze you from my ride or die list'
p1037
aS'chaggo you my homie amp all but dont scoop down to that laker hater level tho'
p1038
aS'lakers aint going no where till 20142015 season when they get melo\xe2\x80\x9d chaggo dont tempt me'
p1039
aS'my emotions have been crazy lately'
p1040
aS'i was watching this romantic movie and it turns out to be sad af  so i cried like a baby \xf0\x9f\x98\xa9'
p1041
aS'well im still young right still have plenty time to fix my mistakes'
p1042
aS'\xf0\x9f\x98\x94highly disappointed'
p1043
aS'our generation is fucked up when it comes to trust loyalty and relationships\xf0\x9f\x98\xa9\xf0\x9f\x98\xa9'
p1044
aS'gonna go ride need to get a lot off my mind'
p1045
aS'ive been trying to do it right ive been living a lonely life ive been sleeping here instead ive\xe2\x80\xa6'
p1046
aS'good morning'
p1047
aS'some people ya meet and its like well damn who dont know you '
p1048
aS'k ill come back when everythings back to normal'
p1049
aS'thanks'
p1050
aS'if ya dont strive for better dont expect better'
p1051
aS'there are no rewards at the end of life for wealth fame accomplishment or beauty there is reward for faithfulness hang on'
p1052
aS'im finally replacing my first car felisha'
p1053
aS'and then i just felt all this weight lifted off my shoulders \xf0\x9f\x99\x8c'
p1054
aS'i woke up and the first thing i thought was im enrolling for the fall semester and then i get this phone call for a new car'
p1055
aS'woah life is moving too fast'
p1056
aS'who cares about how many likes you get worry about how much money you make '
p1057
aS'wewantodom'
p1058
aS'thats pretty degrading and selfdisrespectful dating each others exs get off my tl \xe2\x9c\x8bget out the hood period'
p1059
aS'ill speak to you calmly amp elegantly not because you wont understand me but because i want you to feel what im sayin\xe2\x80\xa6'
p1060
aS'find someone you can just be crazy with \xe2\x9d\xa4'
p1061
aS'lol we dont need another homie in the cemetery'
p1062
aS'woke up with some positivity in mind and received alot of it in return'
p1063
aS'crazy how things change from one day to another'
p1064
aS'no estupit'
p1065
aS'collage im just not able to right now but once im able to  im most deff taking a chance '
p1066
aS'while you steady stressing me god keep on blessin me \xf0\x9f\x98\x8c\xe2\x80\x9d'
p1067
aS'im sleepy my dog takes up my energy she wants to play fetch like every 5 minssss'
p1068
aS'so run with what youve got and chase with what you need'
p1069
aS'went for a late night walk w the bae \xf0\x9f\x92\x95'
p1070
aS'teamsleepy'
p1071
aS'i havent seen ya since sunday and its beginning not to matter to me anymore'
p1072
aS'what a day'
p1073
aS'its that texas weather baby where ya get wind burned'
p1074
aS'loving you is fun \xf0\x9f\x90\xb6\xf0\x9f\x92\x95'
p1075
aS'its alright to keep it light right now little momma dont ya thank '
p1076
aS'love dont have to be a buncha drama'
p1077
aS'stoodup causeimugly'
p1078
aS'rip snuffy the seal'
p1079
aS'oh'
p1080
aS'one more thing dont try to give me a excuse or something it dont take much to text or call someone ya know its the effort i \xe2\x80\xa6'
p1081
aS'thank you jesus thank you momma putting in word for me getting my carrrr \xf0\x9f\x98\xad\xf0\x9f\x98\xad\xf0\x9f\x98\xad\xf0\x9f\x99\x8f\xf0\x9f\x99\x8f'
p1082
aS'oops'
p1083
aS'all my bs love me'
p1084
aS'well im just happy my dogs happy wepa'
p1085
aS'my bad cuhhhh'
p1086
aS'best fadeaways in the game '
p1087
aS'lmao this ferret swears hes a dog tryna play fetch with me \xf0\x9f\x98\x82\xf0\x9f\x98\x82 im still a little scared of it'
p1088
aS'working with mexicans is funny asf  these kats have me rolling'
p1089
aS'np dra x don omar \xf0\x9f\x92\x83\xf0\x9f\x92\x83\xf0\x9f\x92\x83\xf0\x9f\x92\x83'
p1090
aS'decisions decisionssss'
p1091
aS'waking up to make decisions booooooo'
p1092
aS'you look better when im drunk'
p1093
aS'its noon already \xe2\x98\x80\xe2\x98\x80\xe2\x98\x80\xe2\x98\x80\xe2\x98\x80\xe2\x98\x80\xe2\x98\x80'
p1094
aS'una noche mas una luna massssss'
p1095
aS'te sali a buscaaaarrrr no te pude encontrarrrr'
p1096
aS'una lluvia de sentimientos \xe2\x98\x94'
p1097
aS'\xc2\xbfdonde estas '
p1098
aS'oomf ltltgtgtgt \xf0\x9f\x98\xb3'
p1099
aS'i just realized tomorrow is pay day'
p1100
aS'im so sleepy my dog is crazy waking me up at all types of times sheesh'
p1101
aS'thank you god for allowing me to wake up today \xf0\x9f\x99\x8f'
p1102
aS'age 5 i love mommy age 16 i hate her age 21 mom was right age 60 i wish my mom was still here retweet if\xe2\x80\xa6'
p1103
aS'waking up to this gtgtgtgt'
p1104
aS'i have no life lol'
p1105
aS'im watching a movie w phoebee later twits stay real\xe2\x9c\x8c'
p1106
aS'lol yes girl i did i still havent picked up my pics \xf0\x9f\x98\x90'
p1107
aS'girl ooh that would suck if you did'
p1108
aS'they give me birthday punches and tell me im ugly every year tough love'
p1109
aS'i aint close to none of em for shit expect my youngest'
p1110
aS'you guys i miss my brothers ive got like 5 of em'
p1111
aS'you should get cray cray '
p1112
aS'i hate how the people i grew up with and i are so different with different scenes and what not'
p1113
aS'lmao catfish \xf0\x9f\x98\x82\xf0\x9f\x98\x82\xf0\x9f\x98\x82\xf0\x9f\x98\x82\xf0\x9f\x98\x82\xf0\x9f\x98\x82'
p1114
aS'ooh next week'
p1115
aS'i demand a trip to the gas station for some hot cheetos amp bean dip now or die'
p1116
aS'birthday right around the corner 731 leos'
p1117
aS'lmao we luv it'
p1118
aS'yes maam  totally'
p1119
aS'whyamiugly causefood'
p1120
aS'alright alright as long as the 27 comes soon enough'
p1121
aS'i always go to the pharmacy and bug and brenda about pharmacy things i dont have a life yo'
p1122
aS'no'
p1123
aS'make it happen'
p1124
aS'being passionate and caring doesnt make you soft giving a fuck what people think about it does'
p1125
aS'i wonder how many relationships twitter instagram amp facebook has ruined'
p1126
aS'i feel like swimming'
p1127
aS'i been cooking alot more at home lately  fuck fast food nigga tryna reach his goal cuh selfmotivator dertmined confide\xe2\x80\xa6'
p1128
aS'one big room  full of hungry people'
p1129
aS'i wish someone would call me so i can ignore their phone call and they could hear my voicemail greeting \xf0\x9f\x98\x94'
p1130
aS'when im committed to someone i ride for them till tha gahhdamm wheels fall off ive always been about my word '
p1131
aS'love yourself girl or nobody will'
p1132
aS'twitter is helpful for when my phone is dry lol \xf0\x9f\x91\x8c'
p1133
aS'honey boo boo die'
p1134
aS'phoebee and her bff willy'
p1135
aS'i want a tree house'
p1136
aS'imattractedto food'
p1137
aS'my dog just changed the channel legit'
p1138
aS'so much time to make up for'
p1139
aS'why couldnt life be fair'
p1140
aS'well i like sea horses star fish that kinda thang'
p1141
aS'so its always my job to have a good time'
p1142
aS'i feel like jamming with oomf cause im feeling emotional too'
p1143
aS'esque contigo me siento bien esque contigo yo la paso bien \xf0\x9f\x8e\xb6'
p1144
aS'imattractedto someone who can bring me wingstop \xf0\x9f\x98\x83\xf0\x9f\x91\x8c'
p1145
aS'my ride or die aint gonna be here for my birthday again k'
p1146
aS'schleep'
p1147
aS'imattractedto a positive attitude'
p1148
aS'i wanna watch a sad movie yall'
p1149
aS'im about to beat up oomf'
p1150
aS'just because that special person aint in your life dont think so negative about it'
p1151
aS'buttnakedwednesday \xf0\x9f\x98\x8e'
p1152
aS'dawweeee cmon'
p1153
aS'like i said lo'
p1154
aS'shoutout to my true love food you always keep it real baby \xe2\x9d\xa4\xf0\x9f\x92\x8b'
p1155
aS'my heart told my head order pizza noww but head told my heart this time no this time no\xe2\x80\x9d'
p1156
aS'ya keep reposting butt naked wednesday tweets n what not lol'
p1157
aS'dude you need to get me some for my bday you owe it to meeee last yr you drank all my beer at my party lol'
p1158
aS'buttnakedwednesday\xe2\x80\x9d dude youre like having the best wednesday of your life over there'
p1159
aS'i want things to go my way but as of late a lot of shit been going sideways\xe2\x80\x9d'
p1160
aS'thats very true regardless no matter how sweet they can be theyre no good'
p1161
aS'lol swear i think guys in general are crazy'
p1162
aS'i lost a lot of friends and they aint even dead'
p1163
aS'i dated one mira como estoy muy pen d\xc3\xa9j\xc3\xa0 lmao jk girl they are control freaks on my never date again list'
p1164
aS'ooooooh thats no good run lol\xe2\x80\x9d lmao why'
p1165
aS'love is my religion'
p1166
aS'ooooooh thats no good run lol'
p1167
aS'skinny girls eat like 10 grown ass men'
p1168
aS'only god knows why\xe2\x80\x9d'
p1169
aS'i dont thin im all here right now ltltltlt'
p1170
aS'im feeling blind right now'
p1171
aS'i was bout to text you'
p1172
aS'so where is everyone when i just need someone'
p1173
aS'still crackin my ass off \xf0\x9f\x91\x86'
p1174
aS'never expect never assume never ask never demand just let it be if its meant to be it will happen\xe2\x80\x9d'
p1175
aS'this naked and afraid show is awkward af'
p1176
aS'calmate chico'
p1177
aS'dinner'
p1178
aS'memoriessssssss dont live like people dooooo \xf0\x9f\x8e\xa4\xf0\x9f\x98\xa9 jamaican accent lol'
p1179
aS'why couldnt i just be a blob whyyyyyyy'
p1180
aS'oh todays wednesday '
p1181
aS'\xf0\x9f\x98\xb3im confused right now not sure what just happened  anyway back to cooking'
p1182
aS'oomf is hella stuck up go die in a canyon bitch  and get eaten by vultures \xe2\x80\x9d \xf0\x9f\x98\x82\xf0\x9f\x98\x82twitter madness'
p1183
aS'my dogs bff is a ferret how cute \xf0\x9f\x98\x8a'
p1184
aS'someone thought i was in a gang by the way i talk \xf0\x9f\x98\xb3the fuuu '
p1185
aS'sometimes i wish god had imessage'
p1186
aS'retweet if you love the lakers \xf0\x9f\x92\x9c\xf0\x9f\x92\x9b \xf0\x9f\x8f\x80\xf0\x9f\x8f\x80 \xf0\x9f\x8f\x80\xf0\x9f\x8f\x80 \xf0\x9f\x8f\x80 \xf0\x9f\x8f\x80 \xf0\x9f\x8f\x80 \xf0\x9f\x8f\x80 \xf0\x9f\x8f\x80 \xf0\x9f\x8f\x80 \xf0\x9f\x8f\x80 \xf0\x9f\x8f\x80 followa\xe2\x80\xa6'
p1187
aS'youre ugly so just stop it \xf0\x9f\x98\x8b\xf0\x9f\x98\x86\xf0\x9f\x98\x88'
p1188
aS'my ac still down fuck this not another night staying at a cool place \xf0\x9f\x99\x8c'
p1189
aS'its hotter than jalape\xc3\xb1o pussy out here \xf0\x9f\x98\xa9'
p1190
aS'108\xc2\xba outside no wonder im in such a bad mood c'
p1191
aS'ppl dont know how to control their bs just keep it to urself ha'
p1192
aS'justcamebackfromthepool'
p1193
aS'looking for someone with their real name realizing theyre only known by their hood name oops getittogether'
p1194
aS'can i move to new york yet'
p1195
aS'just gotta be happy with what i got'
p1196
aS'being happy is the most important thing'
p1197
aS'i miss mommas cookin geez'
p1198
aS'mmmm i feel for some real mexican food right now'
p1199
aS'a message from heaven'
p1200
aS'hate being off for over a week but i love hustling on the daily \xf0\x9f\x98\x94'
p1201
aS'i have this lovehate relationship with my job'
p1202
aS'hello \xf0\x9f\x98\x8e'
p1203
aS'hungrayyyy'
p1204
aS'accept the things you cannot change and change the things you can'
p1205
aS'i wonder if im someones crush \xf0\x9f\x98\x95\xe2\x9d\x93'
p1206
aS'i like seeing my friends happy seeing them struggle with something is the worst thing to see a friend go through'
p1207
aS'trying to make something work from miles away fuck afghanistan and fuck you'
p1208
aS'aawwww make her some tea it always saves me'
p1209
aS'too young for the settle downnnnn'
p1210
aS'metoday'
p1211
aS'just keep it real with me thats all im saying'
p1212
aS'its only monday im staying positive \xf0\x9f\x92\xaa'
p1213
aS'screw this stress im going out every weekend simply because its my birthday month \xf0\x9f\x91\x8f\xf0\x9f\x91\x8f\xf0\x9f\x91\x8f\xf0\x9f\x8e\x89\xf0\x9f\x8e\x89\xf0\x9f\x8e\x8a\xf0\x9f\x8e\x8a'
p1214
aS'im hungry man'
p1215
aS'it still amazes me how people fall in your life exactly at the right moments'
p1216
aS'if im being a bitch to you just know that you probably fucking deserve it'
p1217
aS'im just like what i get myself into  \xf0\x9f\x98\x90'
p1218
aS'i fell in love last night \xf0\x9f\x8d\xba\xe2\x9d\xa4'
p1219
aS'i over think too much and thats what fucks me up thanks alot life geez'
p1220
aS'my dogs in trouble so shes avoiding contact with me by sitting on the corner'
p1221
aS'arent they all'
p1222
aS'mines cute wen she isnt destrying my furniture'
p1223
aS'mines too cute to stay mad at lol'
p1224
aS'happens all the time haha'
p1225
aS'lucy swear we cool again \xf0\x9f\x99\x85\xe2\x9d\x8c\xf0\x9f\x90\xb6'
p1226
aS'sometimes i wish my room was a fridge so i wont be dripping sweaty during the summer time'
p1227
aS'why cant life be a vacation'
p1228
aS'im just trying to live right so i can see the pearly gates one day'
p1229
aS'yes we mustttt'
p1230
aS'lmao we have to go to cowboys again and find him there'
p1231
aS'well on the bright side of things '
p1232
aS'my mom i love her'
p1233
aS'im still trying to find my partner lol'
p1234
aS'like that they aint faithful and stuff  lol'
p1235
aS'army im sure youve heard of those'
p1236
aS'anyone need to use the restroom \xf0\x9f\x98\x82\xf0\x9f\x98\xad'
p1237
aS'idk exactly but near my boos base lol'
p1238
aS'trill haha i was jk'
p1239
aS'i swear i dont ask for much'
p1240
aS'your workouts can be real now the realest you can be a gym freak now'
p1241
aS'ill never ignore that gut feeling if something doesnt feel right it probably isnt'
p1242
aS'i bet \xf0\x9f\x92\xaalol im looking into moving in january or feb once my boo comes back but meanwhile i gotta do something lol'
p1243
aS'your skills would be gucci in new yawk \xf0\x9f\x98\x81'
p1244
aS'i hear you haters talking  sounding like bitches'
p1245
aS'just gonna enjoy my last summer here go all out make some good memories life aint waiting on anybody'
p1246
aS'i absolutely love texas but i dont think my skills are worth anything here'
p1247
aS'bittersweetsunday'
p1248
aS'i refuse to tip toe through life only to arrive safely at my death\xe2\x80\x9d'
p1249
aS'i just get pushed alot but i never snap until bam no good person here no more'
p1250
aS'im a pretty good person'
p1251
aS'im bout to die '
p1252
aS'i gotta start making plans for the colombian independence day \xf0\x9f\x92\x9b\xf0\x9f\x92\x9b\xf0\x9f\x92\x99\xe2\x9d\xa4'
p1253
aS'what a bust'
p1254
asS'2013_29'
p1255
(lp1256
S'you cant make anybody happy without it making you happy first'
p1257
aS'rumors ltltltltltltltltltlt'
p1258
aS'i kicked my dog out of my room bitch wouldnt let me sleep'
p1259
aS'sorry all late but um bbs and the ones here in the hood the mall too'
p1260
aS'cmon leave that for high school kids'
p1261
aS'yes but they close early'
p1262
aS'i want a new life \xf0\x9f\x91\x8c forget bout the one i had '
p1263
aS'i refuse to let ignorant people bring me down \xf0\x9f\x98\x91\xe2\x9c\x8b'
p1264
aS'oh lawd to early to be reading bout drama on twitta'
p1265
aS'lmao the way i react when im offered lunch time at work gtgtgt \xf0\x9f\x99\x8a'
p1266
aS'respect goes a long way'
p1267
aS'im sure theyd listen but i get tired of talking'
p1268
aS'for some reason i just dont open up to everyone bout my personal life to become all close just so they can hear all my bs'
p1269
aS'ive met pretty cool people caught up with alot from the past and theyre the best'
p1270
aS'it dont bother me none im good with the little friends i have im set'
p1271
aS'people ask me bout that word friends alot'
p1272
aS'when two family members like u ltltlt tf'
p1273
aS'heaaaaa yaaaa'
p1274
aS'late night conversations with the right person gtgtgt \xf0\x9f\x91\x8c\xe2\x80\x9d'
p1275
aS'im tired but i cant sleep'
p1276
aS'\xf0\x9f\x8c\xbe\xf0\x9f\x91\x80\xf0\x9f\x8c\xbe'
p1277
aS'made my white coworkers try tacos de barbacoa holla'
p1278
aS'these sleepless nights'
p1279
aS'doing this overtime for my bday yall \xf0\x9f\x99\x8c'
p1280
aS'2 more hrs bb'
p1281
aS'youre a buzzkill every time you come around luke bryan'
p1282
aS'i feel like crap \xf0\x9f\x98\x94'
p1283
aS'happy colombian independence day \xf0\x9f\x92\x99\xe2\x9d\xa4\xf0\x9f\x92\x9b\xf0\x9f\x8e\x89'
p1284
aS'i dont wanna go to work \xf0\x9f\x98\x94but the struggle is real'
p1285
aS'where ya from'
p1286
aS'hungover people all over'
p1287
aS'hello im only up cause of my dog amp stuff  she always wanna play'
p1288
aS'gaahhh leee'
p1289
aS' always chaggo you my nigga for real'
p1290
aS'oh ooowoooo trust issues'
p1291
aS'i go threw pain every single night but you would never notice'
p1292
aS'you dont know what pain is'
p1293
aS'i midd you'
p1294
aS'ahhh'
p1295
aS'such a fun night'
p1296
aS'i dont feel like sleeping tonight yo'
p1297
aS'welp this sucks'
p1298
aS'hey baby you doing good cause you looking good'
p1299
aS'we needs to kick it soon chaggo '
p1300
aS'lol im open arms  you guys enjoy your dinnerbreakfast'
p1301
aS'lol ok homie'
p1302
aS'please dont'
p1303
aS'chaggo you my nigga for real'
p1304
aS'thats a good person right there '
p1305
aS'frank can kiss my ass'
p1306
aS'thats a good person right there \xe2\x80\x9d awe chaggo i wanna hug ya foo'
p1307
aS'they reminded me too much of my long lost brother i had to leave'
p1308
aS'i left a good ass party it had all the homies from back in the day nah'
p1309
aS'aweigh never felt so loved by my hood'
p1310
aS'ugh car smells like throw upp i hate that smell'
p1311
aS'candice you good bitch knocked out drunk af'
p1312
aS'making money the fly way but theres gotta be a better way better way yeaaaaah'
p1313
aS'making them barfing noises  cant help it shits gross'
p1314
aS'dont call me shawty thats ratchet'
p1315
aS'coworkerscray'
p1316
aS'omg hell na just got out of work amp coworker already fucked up i wanna puke shits grossss af'
p1317
aS'i have 4 hrs left on this crazy shift \xe2\x80\x9d \xf0\x9f\x98\xb1'
p1318
aS'all weekend long shawty'
p1319
aS'i just dont understand some peoples sense of humor like a woman died that could have been your mother how is that funny'
p1320
aS'if youre really making jokes regarding the texas gianti hear hell is hot this time of year'
p1321
aS'scars everywhere'
p1322
aS'i have 4 hrs left on this crazy shift '
p1323
aS'buying myself my fav flowers for my birthday \xf0\x9f\x98\x8d\xf0\x9f\x98\x8a'
p1324
aS'my mampms bag is gone so sad'
p1325
aS'\xf0\x9f\x92\xb0\xf0\x9f\x92\xb0\xf0\x9f\x92\xb0'
p1326
aS'my subtweeter aint on'
p1327
aS'nvm i dont even have time for hos'
p1328
aS'money amp hos'
p1329
aS'people wait all week for friday all year for summer all life for happiness'
p1330
aS'omg gonna be in work for another 6 hrs \xf0\x9f\x98\xb1\xf0\x9f\x98\xb1\xf0\x9f\x98\xb1'
p1331
aS'send me ur '
p1332
aS'please my nigga'
p1333
aS'i guess thats a low key compliment'
p1334
aS'i miss my felicia bro'
p1335
aS'that aint bout me right  \xf0\x9f\x92\x81'
p1336
aS'lmao my coworkers taking me back to the hood'
p1337
aS'scurtttt'
p1338
aS'hawwwwt'
p1339
aS'i like texting but thats it like thats just it'
p1340
aS'if the chance comes to get mo money take it  '
p1341
aS'twitter jail  '
p1342
aS'my bitches love me ha'
p1343
aS'preach it brotha\xf0\x9f\x91\x8f\xf0\x9f\x91\x8f\xf0\x9f\x91\x8f'
p1344
aS'people would love to see you fail'
p1345
aS'someone favorites my tweet me oh yeah they want me'
p1346
aS'lmao subtweetinnnn'
p1347
aS'text me'
p1348
aS'piensalo bien'
p1349
aS'fuck it i think ill work this entire weekend just to have my bday off or should i hustle straight through til my vaca '
p1350
aS'shoutout to my coworker getting a new rideeeee get ittttt'
p1351
aS'fuck it we outchea'
p1352
aS'money money on maaaa minnnnddddd'
p1353
aS'please my nigga \xf0\x9f\x91\x8f\xf0\x9f\x98\x82 seriously'
p1354
aS'please my nigga'
p1355
aS'my girlfriend not allowed to talk to jake from state farm better go call flo from progressive'
p1356
aS'through all the losses i havent lost my sense of humor \xf0\x9f\x91\x8f\xf0\x9f\x91\x8f'
p1357
aS'you try to bring me down ima go harder'
p1358
aS'mmm i made my lunch ready to go clock in'
p1359
aS'home made food gt restaurant food'
p1360
aS'can i wear combat boots to the pool im feeling broody'
p1361
aS'something good about being alone all the time now is being naked and no one trippin \xf0\x9f\x91\x8c'
p1362
aS'what i really meant to say is im sorry for the way i am'
p1363
aS'thanks for those tears to start off my day k'
p1364
aS'you lost me i lost me'
p1365
aS'slow and steady enjoys the race \xf0\x9f\x90\xa2\xf0\x9f\x92\x9a'
p1366
aS'my past just gets to me alot'
p1367
aS'i cant complain though'
p1368
aS'word'
p1369
aS'i \xe2\x9d\xa4texas and ill be back thats a fact \xe2\x98\x9d'
p1370
aS'my last week being a youngn'
p1371
aS'see what its all about and finally make my change of living for a while amp move up north'
p1372
aS'i dont wanna work but i gots to get that chaching '
p1373
aS'this morning needs a honey butter chicken biscuit'
p1374
aS'so beautiful  '
p1375
aS'enjoy life \xe2\x98\x80\xf0\x9f\x8d\xb9'
p1376
aS'i just wanna sleep all day\xf0\x9f\x98\x94'
p1377
aS'so sleepy but gotta make this money'
p1378
aS'thank you lord for another blessed day and making it through yet another week tgif'
p1379
aS'can i just be happy for once'
p1380
aS'tl dead'
p1381
aS'bubba you need some schleep sorry bout ur love life tho k lol'
p1382
aS'sooo im prolly working all weekend so i can blow it all on my birthday amp not give a damn'
p1383
aS'determined'
p1384
aS'to all the girls who didnt get a goodnight text'
p1385
aS'sing me to schleep'
p1386
aS'i hate how i get soooo tannn like bronze n shit during the summer wtf'
p1387
aS'\xf0\x9f\x98\x94sigh'
p1388
aS'distant loveeeeeeeeeerso many miles away'
p1389
aS'\xf0\x9f\x98\xb3we look alike '
p1390
aS'i took a pic exactlylike moms the otherday'
p1391
ag374
aS'i wanna  hold up real quick'
p1392
aS'all is good \xf0\x9f\x92\x81'
p1393
aS' oooooo we have something in common mami'
p1394
aS'i closed that asap'
p1395
aS'she scared me ricky lmao do you have a life that pic was horrible \xe2\x80\x9d'
p1396
aS'puerto rican mix bb'
p1397
aS'hey there missy i love flowers and food \xf0\x9f\x92\x81'
p1398
aS'ricky lmao do you have a life that pic was horrible '
p1399
aS'she has a nose growing from her nose \xf0\x9f\x98\xb1'
p1400
aS'holllaaaaaa lol'
p1401
aS'text me maybe we can talk about flowers food and stuff'
p1402
aS'rotfl  if i had a dollar for everytime ive been asked that question'
p1403
aS'i cant stop thinking about mexican food \xf0\x9f\x92\x94'
p1404
aS'i cant schleep'
p1405
aS'i want these mommas amp my fav flowers together \xf0\x9f\x8c\xb9\xf0\x9f\x8c\xbb\xf0\x9f\x8c\xb9'
p1406
aS'im wide awake tx'
p1407
aS'hai'
p1408
aS'dang i didnt know kim kardashian was in the conjuring \xf0\x9f\x98\x82\xe2\x80\x9d \xf0\x9f\x98\x82\xf0\x9f\x98\x82\xf0\x9f\x98\x82'
p1409
aS'please say yes please say yes \xf0\x9f\x99\x8b\xf0\x9f\x99\x8b\xf0\x9f\x99\x8b'
p1410
aS'only give people that are worth that chance a shot dont beat yourself up over it \xf0\x9f\x92\x81'
p1411
aS'our convos gtgtgtgt'
p1412
aS'twitter be getting crazy after dark amp so does my appetite lol'
p1413
aS'rip im too dead im logging off goodnight'
p1414
aS'central american food over american food any day baby \xf0\x9f\x99\x8c'
p1415
aS'chiles rellenos go hard \xf0\x9f\x91\x8cfuck a fancy plate'
p1416
aS'cause to hell with the stress im going out '
p1417
aS'ahhhh my bdays getting here sooooon what should i do '
p1418
aS'hi everyone i am currently happy cause my stomachs happy so im happy thnx k \xf0\x9f\x98\x81'
p1419
aS'i love everyone'
p1420
aS'there comes a point in your life when you have to realize who really matters who never did and who always will'
p1421
aS'tellagirlsheisuglyday this ones for you obama'
p1422
aS'teach your daughter to shoot \xf0\x9f\x94\xab\xf0\x9f\x91\x8c'
p1423
aS'dont be butt hurt now'
p1424
aS'idk should i go get something to eat '
p1425
aS'im too hungry to move out of bed now'
p1426
aS'home i only have a dolla amp a dream'
p1427
aS'currently making sad music'
p1428
aS'hungry dennahoe\xe2\x80\x9d lessgogrubb'
p1429
aS'i just wanna go home amp mope like this drama queen'
p1430
aS'im not feeling to well'
p1431
aS'thanks for spamming me ho'
p1432
aS'hoping to go home early so i can go eat some big meal'
p1433
aS'i think i pulled a muscle in my self esteem'
p1434
aS'ready to go home \xf0\x9f\x98\x9c'
p1435
aS'readyformysecondjob'
p1436
aS'inmiddleschool soulja boy was in'
p1437
aS'thats where we have it all messed up'
p1438
aS'religion has nothing to do with the real world'
p1439
aS'i miss mommas cooking \xf0\x9f\x98\x94'
p1440
aS'noooooo i already want my shift to be over i cant take thirsty niggas serious '
p1441
aS'money hoes amp clothes'
p1442
aS'do not text me while youre driving i dont want to be the last unfinished message they find when you are wrapped a\xe2\x80\xa6'
p1443
aS'youll never be mine'
p1444
aS'thirsty niggas be like you want some of this german d  \xe2\x9c\x8b\xf0\x9f\x98\x82\xf0\x9f\x98\x82\xf0\x9f\x98\x82\xf0\x9f\x98\x82'
p1445
aS'lmao my coworker is tryin so hard'
p1446
aS'coworkers ltltgtgtgtgt'
p1447
aS'yaayyyyyyy getting some new ink this weekend \xf0\x9f\x99\x8c hollaaa'
p1448
aS'\xf0\x9f\x87\xba\xf0\x9f\x87\xb8\xf0\x9f\x99\x8f'
p1449
aS'let it rain let it pour she dont love me anymore \xf0\x9f\x98\xae\xf0\x9f\x8e\xb6\xf0\x9f\x8e\xb6'
p1450
aS'i can only take so much when being pushed away i dont kiss ass'
p1451
aS'but theres no going back'
p1452
aS'i miss ya a whole bunch'
p1453
aS'\xf0\x9f\x98\x94'
p1454
aS'i wonder if ya miss me'
p1455
aS'dannngggg la is known for their riots en people are realllll'
p1456
aS'nomnomnom'
p1457
aS'yes you now feed me'
p1458
aS'lifes not fair'
p1459
aS'you bring me food now'
p1460
aS'im sooo hungrayyyy'
p1461
aS'work'
p1462
aS'lol baby mamma drama at wok'
p1463
aS'egh work\xe2\x80\x9d'
p1464
aS'i need to pack my lunch for work \xf0\x9f\x98\x94'
p1465
aS'im feeling versace right now '
p1466
aS'i hate waking up'
p1467
aS'happy birthday to my brother albert hes alright for a duece'
p1468
aS'momma aint here so \xf0\x9f\x91\x8a\xf0\x9f\x91\x8a\xf0\x9f\x91\x8a\xf0\x9f\x91\x8a\xf0\x9f\x91\x8a'
p1469
aS'aflac'
p1470
aS'work'
p1471
aS'\xf0\x9f\x98\x94i wish i had my momma to massage my painful arm right now they were always the best id ko right after'
p1472
aS'arm please stop killing my vibe i needs schleep'
p1473
aS'im not a baby im a pretty tough gal but put me anywhere that its cold ill whine like a grandma fml \xf0\x9f\x94\xab\xf0\x9f\x94\xab\xf0\x9f\x94\xab\xf0\x9f\x94\xab'
p1474
aS'\xe2\x98\x94\xe2\x98\x94\xe2\x98\x94\xe2\x98\x94\xe2\x98\x94'
p1475
aS'\xf0\x9f\x98\xad\xf0\x9f\x98\xad\xf0\x9f\x98\xad\xf0\x9f\x8c\x8a\xf0\x9f\x8c\x8a\xf0\x9f\x8c\x8a\xf0\x9f\x8c\x8a\xe2\x98\x94\xe2\x98\x94\xe2\x98\x94\xe2\x98\x94'
p1476
aS'\xf0\x9f\x98\xad\xf0\x9f\x98\xad\xf0\x9f\x98\xad\xf0\x9f\x98\xad\xf0\x9f\x98\xad\xf0\x9f\x98\xad\xf0\x9f\x98\xad'
p1477
aS'fml i just wanna punch my arm'
p1478
aS'my arm feels like shit mannnn \xf0\x9f\x98\x94i cant sleep cause of the pain its killing meeee'
p1479
aS'thisredneckwedding'
p1480
aS'working hard for my birthday \xf0\x9f\x91\x8f\xf0\x9f\x8e\x89'
p1481
aS'\xf0\x9f\x92\xb8\xf0\x9f\x92\x95'
p1482
aS'pop tarts for lunch \xf0\x9f\x99\x8a\xf0\x9f\x92\xa9'
p1483
aS'excuse me i might throw up after this shift'
p1484
aS'i didnt pack a lunch \xf0\x9f\x98\x90'
p1485
aS'dont chase boys chase your shots if you must but do not chase boys\xe2\x80\x9d'
p1486
aS'sweet mother of jesus 11 hr shift amp 2nd job makemommaproud'
p1487
aS'time just shows us who and what matters'
p1488
aS'im so jealous '
p1489
aS'when do you stop trying'
p1490
aS'consider meeeeeee'
p1491
aS'better work hard \xe2\x98\x9d'
p1492
aS'thats going on my bucket list'
p1493
aS'gosh shes so talented its like woah cant beat the pros'
p1494
aS'gotta be mentally strong'
p1495
aS'so to that nigga loving me 247 i am one difficult ass female to handle \xf0\x9f\x92\x8b\xe2\x9d\xa4'
p1496
aS'i want to make my next tatt \xf0\x9f\x99\x8a\xf0\x9f\x99\x8a'
p1497
aS'cause ive heard its the virtue'
p1498
aS'currently training in the patience dept'
p1499
aS'lol well good for you and youll catch him next time youre on the clock lol \xf0\x9f\x98\x89\xf0\x9f\x91\x8d'
p1500
aS'\xf0\x9f\x98\x8d you guys are bad ass love yall \xf0\x9f\x98\x8d'
p1501
aS'likewise hope you dont slave on your day either lol'
p1502
aS'lmao awh \xf0\x9f\x92\x9b\xf0\x9f\x92\x9b thank you youre awesome lol'
p1503
aS'dont stress its just life\xe2\x80\x9d'
p1504
aS'happy birthday to my local pharmacist round my block  i cant ever just take 5 mins at the pharmacy anymore haha enjoy \xf0\x9f\x8e\x89\xf0\x9f\x8e\x88\xf0\x9f\x8e\x82\xf0\x9f\x91\xb8'
p1505
aS'you dont have insomnia youre in your 20s with shit on your mind'
p1506
aS'goodnight sleep with the angels \xf0\x9f\x99\x8f\xf0\x9f\x98\x87'
p1507
aS'i am thanks im going to sleep good night gorgeous \xf0\x9f\x98\x98\xf0\x9f\x92\x95'
p1508
aS'try amp get some rest think bout the good memories first usually helps before the tears \xf0\x9f\x8c\x9b\xf0\x9f\x92\x95'
p1509
aS'ill take note of that thanks'
p1510
aS'caught up with some old high school friends this weekend it was horrible they were all drunk never again ha'
p1511
aS'its a trick question amp it always gets me \xf0\x9f\x98\x9f'
p1512
aS'wheres my sleep'
p1513
aS'sigh thats what confuses me 100 of the time \xf0\x9f\x98\x90'
p1514
aS'i just feel all this energy right meow'
p1515
aS'dont be a baby angee dont be such a baby \xf0\x9f\x91\x8a\xf0\x9f\x98\xb5'
p1516
aS'i bet'
p1517
aS'im not gonna lie i miss folks company but they didnt know where to draw the line between friends amp hos so i drew it for em'
p1518
aS'i dont even trip cause i aint even looking  whatever sense that makes'
p1519
aS'tbh i dont entertain men i dont even save numbers anymore'
p1520
aS'its a choice to treat her right or to treat her wrong grow a pair and be a man'
p1521
aS'where do you run to escape from yourself'
p1522
aS'laammeeee bohoooo'
p1523
aS'i get blocked  \xf0\x9f\x98\xb3'
p1524
aS'do i have time for your bs no no no no no no  no no no \xe2\x80\xa6'
p1525
aS'some women stay getting involved in fed up situations and then complain when things go bad boo you are not a victim you\xe2\x80\xa6'
p1526
aS'the past will always fck with your conscious'
p1527
aS'god keeps blessing medevil no stressing me '
p1528
aS'wahhhhhhhhhhhh not cool \xe2\x9c\x8b\xf0\x9f\x98\x92'
p1529
aS'bro she acting like she dont know me i mean i had a hannah montana blanket and everything \xf0\x9f\x98\x92'
p1530
aS'next year \xf0\x9f\x98\x9d\xf0\x9f\x98\x81'
p1531
aS'is snapchat time consuming if so i have no life'
p1532
aS'gotta big 2 weeks ahead of me'
p1533
aS'what does sitting around waiting get you if you want somethin go get it'
p1534
aS'anyone i know amp love in ny tonight \xe2\x80\x9d shes callin you out '
p1535
aS'just bought my ticket for my mini vaca before my good bye to texas thankyoujesus houstonbound'
p1536
aS'suicide hotline 18002738255 a simple retweet might save someones life'
p1537
aS'i need a texting buddy '
p1538
asS'2013_37'
p1539
(lp1540
S'how was i supposed to know she was slowly letting go if i was putting her through hell hell i couldnt tell'
p1541
aS'dont think about it too much'
p1542
aS'attentionwhores rather get likes than pay checks'
p1543
aS'prayin for you'
p1544
aS'then  maybe then ill care to respond to such nonsense'
p1545
aS'it just goes to prove what type of person you are when youre over there talking shit behind my back if only youd say it in my face'
p1546
aS'fuck pimples'
p1547
aS'id rather not'
p1548
aS'yall can bash me to the worlds end but if you bring degrading remarks towards mentally challenged people into it youre\xe2\x80\xa6'
p1549
aS'gonna ride in a bit \xe2\x98\xba'
p1550
aS'preach when someone brings you down about things you live for no respect what so ever\xe2\x80\x9d'
p1551
aS'hush babies go to your folks and ask them again for your allowance'
p1552
aS'immature little teenagers man thats something thats always annoyed me'
p1553
aS'like a good neighbors lebron hairline aint there'
p1554
aS'sippin on some syrupi mean chicken express sweet tea'
p1555
aS'i think im a pretty amazing person considering all ive been through my heads still held up high everyday'
p1556
aS'you aint even worth the bullet your fams wouldnt be able to afford your funeral how unfortunate would that be im being considerate'
p1557
aS'and then without sight of such gentleness i was taken in and comforted'
p1558
aS'i could barely give a damn'
p1559
aS'i was in need of someone to hold me up while i could barely stand'
p1560
aS'its the only way to remain inhumanly like but yet still human just wise'
p1561
aS'wise up on the word'
p1562
aS'everything happens for a reason people change so you can learn to let go things go wrong so you can appreciate them when th\xe2\x80\xa6'
p1563
aS'retweet for p manning favorite for e manning'
p1564
aS'im hoping for the best'
p1565
aS'dont have time to be playing games witcha'
p1566
aS'i miss watching ufc'
p1567
aS'sallttttyyyyyyyyyyy'
p1568
aS'im just glad im jamming to some pac cause all this is foolish lol'
p1569
aS'mayweather in that hoe like'
p1570
aS'tbh all you mexicans are stressed'
p1571
aS'the right people will come into your life and stay'
p1572
aS'humble your self as a human '
p1573
aS'will floyd mayweather win tonight will gucci mane get out of jail will oomf text me the fuck back find out next tim\xe2\x80\xa6'
p1574
aS'so complicated to escape fate and you could never understand until we traded places'
p1575
aS'im so brown its no joke'
p1576
aS'i just wanna win my money'
p1577
aS'\xf0\x9f\x98\x82made my night'
p1578
aS'why people still talking about pacquiao that nigga still schlleep'
p1579
aS'my stomach hurts right now \xf0\x9f\x98\x94'
p1580
aS'yall just do lol'
p1581
aS'im not sure i follow'
p1582
aS'never land'
p1583
aS'daww que pasa chico'
p1584
aS'thank ya very much'
p1585
aS'yall look alike'
p1586
aS'girls with naturally curly hair \xf0\x9f\x98\x8d'
p1587
aS'rip 2 pac one of my biggest inspirations a lot of people live by some of your deepest words'
p1588
aS'no you dont smell lol'
p1589
aS'that self conscious feelingltltltlt'
p1590
aS'its been way too long since ive done shifts back to back'
p1591
aS'yall happy bout partying im happy bout working'
p1592
aS'its the weekend and im creeping with my niggas'
p1593
aS'\xe2\x98\xba'
p1594
aS'never say never cause you dont know what youll be doing tomorrow'
p1595
aS'my bfs name i know im proud of him though hes in afghanistan n means alot to me'
p1596
aS'currentlyiaminpain'
p1597
aS'i get really frustrated'
p1598
aS'4 more months dammit \xf0\x9f\x98\x94'
p1599
ag374
aS'you are way too emotional to make money by yourself'
p1600
aS'and this is why i listen to country music'
p1601
aS'we will never forget that freedom isnt free'
p1602
aS'dont worry \xf0\x9f\x87\xba\xf0\x9f\x87\xb8'
p1603
aS'salute the ones who died the ones who gave their life\xf0\x9f\x87\xba\xf0\x9f\x87\xb8'
p1604
aS'said no woman ever'
p1605
aS'all gave some but some gave all \xf0\x9f\x87\xba\xf0\x9f\x87\xb8 honorthefallen'
p1606
aS'september11 \xf0\x9f\x87\xba\xf0\x9f\x87\xb8'
p1607
aS'freedom isnt free \xf0\x9f\x87\xba\xf0\x9f\x87\xb8'
p1608
aS'can the winter hurry up and come so i can start wearing my comfy clothes'
p1609
aS'it\xe2\x80\x99s only wednesday and i\xe2\x80\x99m already 94 done with this week'
p1610
aS'cant wait for christmas'
p1611
aS'our love runs deep like a chevy if you fall ill fall with you baby cause thats the way we like to do it'
p1612
aS'shit i aint tryna gain some weight  im tryna tone this weight  okaayyyyyyyy'
p1613
aS'i do not recall eating at all today no'
p1614
aS'911 shirt for tomorrow \xe2\x9c\x94'
p1615
aS'most leo are willing to climb from the bottom up to success'
p1616
aS'i hate mvc these morenos really love living up to their race for real'
p1617
aS'not a good start to my day'
p1618
aS'head over water '
p1619
aS'baby im doing good'
p1620
aS'sometimes i do like to spill my beans to someone just cause i wanna know what they think being out of my shoes'
p1621
aS'always '
p1622
aS'some people live to play games and then complain about not being able to find someone real lol smh'
p1623
aS'i love this song \xf0\x9f\x92\x95'
p1624
aS'blessed'
p1625
aS'its so hot in texas yo'
p1626
aS'i guess ill see you next lifetime no hard feelings'
p1627
aS'my back hurts from sleepin on the couch \xf0\x9f\x90\xaa'
p1628
aS'hash tag hungry'
p1629
aS'people got a lot to say but dont know shit bout where i was made orhow many floors that i had to scrub just to make it past where i am from'
p1630
asS'2013_36'
p1631
(lp1632
S'im just like fuckthestress got my ass outta bed going dippintonight'
p1633
aS'dipping'
p1634
aS'where'
p1635
aS'lets go two steppinlt3'
p1636
aS'i know im still young but i know how i feel i might not have too much experience but i know when love is real sco\xe2\x80\xa6'
p1637
aS'my vibe is killed '
p1638
aS'no idea lol'
p1639
aS'heaven help the fool who did her wrong'
p1640
aS'where '
p1641
aS'ive hit rock bottom'
p1642
aS'like i just really fuckin hate bein lied to\xe2\x80\x9d'
p1643
aS'\xe2\x80\x9cshit happens when you trust the wrong people\xe2\x80\x9d'
p1644
aS'man i just cant deal'
p1645
aS'nothing worth having comes easy tho'
p1646
aS'me das asco '
p1647
aS'im so mad im using inappropriate grammar'
p1648
aS'the things i regret the most is acting like a stupid teenager over the last couple years i had my mother thats what aggravates me'
p1649
aS'i need to close my eyes  im too hyped for a 5 am sess'
p1650
aS'there is a difference \xe2\x98\x9d'
p1651
aS'my motto stay away from salvadoriansalways sorrynotsorry'
p1652
aS'never again'
p1653
aS'i need to chill before i start getting racist \xf0\x9f\x98\x96'
p1654
aS'knowing youve been right all along about a douche bag and yet that bastard idiot still lies to your face  \xf0\x9f\x98\x92'
p1655
aS'redd'
p1656
aS'4 months away from 2014\xe2\x80\x9d'
p1657
aS'me right now'
p1658
aS'mostly just him'
p1659
aS'hate when people are asleep and im awake'
p1660
aS'whenever you let something go for something better to come along and you realize it was the best choice even though it hurts'
p1661
aS'chief keef came back from starbucks'
p1662
aS'\xf0\x9f\x98\xad\xf0\x9f\x98\x82\xf0\x9f\x98\x82\xf0\x9f\x98\xad'
p1663
aS'time makes you bolder'
p1664
aS'can the child within my heart rise above'
p1665
aS'cuando no te cuesta no te duele'
p1666
aS'practically got my ass handed to me'
p1667
aS'life is too short to stress yourself with people who don\xe2\x80\x99t even deserve to be an issue in your life'
p1668
aS'right where i am god is and god believes in me'
p1669
aS'are you from europe because europiece of shit'
p1670
aS'at this point in my life i really wish i wouldve been born a unicorn like fuck reality man fuck it'
p1671
aS'sigh x3'
p1672
aS'no ones down for cowboys fudge you all'
p1673
aS'i shouldnt be procrastinating but you know me \xf0\x9f\x98\xa3\xf0\x9f\x98\xa3\xf0\x9f\x98\xa3'
p1674
aS'i need some signs'
p1675
aS'take a deep breath  let shit go and move on'
p1676
aS'why because stress thats why'
p1677
aS'i feel like nothing i feel absolutely empty'
p1678
aS'lets go to cowboys'
p1679
aS'i wanna be home'
p1680
aS'positivity means treat all with respect even when its hard to do that proves your soul is bright and shines with good \xe2\x80\xa6'
p1681
aS'so i was called a hypercondriac today \xf0\x9f\x98\xb3\xf0\x9f\x98\x92 whatever that means'
p1682
aS'im so fucking tired of lies and secrets'
p1683
aS'shesliketexas'
p1684
aS'who knows maybe he could be saving me from myself'
p1685
aS'the problem with me is when im serious people dont actually get im being serious ampthen im not sure whether to take responses personally'
p1686
aS'it was no rhetorical question '
p1687
aS'some people dont understand my questions \xf0\x9f\x98\x92and its annoying like do you not understand english  '
p1688
aS'yup i love food'
p1689
aS'lol well all im really thinking about doing is food \xf0\x9f\x98\x8b'
p1690
aS'you want obama out'
p1691
aS'lol i hope '
p1692
aS'lol yeah  i have a cold and sounds relaxing im off too boohoo'
p1693
aS'good just sick wbu '
p1694
aS'hello buddy ol pal \xf0\x9f\x91\x8b'
p1695
aS'sometimes the best way to appreciate something is to be without it for a while'
p1696
aS'wish me luck guys hopefully god answers my prayers and gives me my baby back today \xf0\x9f\x99\x8freallywantmycarback itsbeenmonths felishamyfirstcar'
p1697
aS'be confident daughter your faith has healed you  matthew 922 please retweet'
p1698
aS'cause you  youve been on my mind and i wish you were here beside me tonight'
p1699
aS'lets '
p1700
aS'i think im getting sick fml \xf0\x9f\x98\x96'
p1701
aS'whys chief keef in this picture though lmaooo'
p1702
aS'the best relationships are the ones that you never expected to be in'
p1703
aS'me'
p1704
aS'birdman the new sponsor for aveeno lotion\xf0\x9f\x98\x82\xf0\x9f\x98\x82'
p1705
aS'omg what day '
p1706
aS'lets go '
p1707
aS'im so worried this syria stuff is terrifying'
p1708
aS'drake buys gum like'
p1709
aS'the 28th and its in lubbock you ok wit that'
p1710
aS'the past is your lesson the present is your gift the future is your motivation'
p1711
aS'in lubbock im there \xf0\x9f\x98\x81care to join  '
p1712
aS'been in my head all morning'
p1713
aS'shes like texas'
p1714
aS'my ac fucked up'
p1715
aS'oye chico'
p1716
aS'me'
p1717
asS'2013_35'
p1718
(lp1719
S'4 more months to go times flying by and fall will arrive soon \xf0\x9f\x98\x86'
p1720
aS'yeesh'
p1721
aS'idk i dont really talk about my life and i have an assignment to talk about it'
p1722
aS'dont let them find you '
p1723
aS'its always hardest for the strongest people to open up and be okay with pain usually turns into anger'
p1724
aS'\xf0\x9f\x98\x82\xf0\x9f\x98\x82\xf0\x9f\x98\x82\xf0\x9f\x98\x82these mother fuckers on twitter tryna handout tickets like streets aint enough'
p1725
aS'theres a million things going on right now'
p1726
aS'so fucking lost right now'
p1727
aS'i hate watching movies with funerals'
p1728
aS'god please \xf0\x9f\x99\x8f'
p1729
aS'sorry im barely holding myself up here and how am i suppose to hold up anyone else at this point seriously'
p1730
aS'what does that tell you '
p1731
aS'my dads not putting anything into my college funds yet he has the audacity to ask me to help with the house bills coming up \xf0\x9f\x98\x92'
p1732
aS'if they hate you jealous of you laugh at you or even resent u chances are youre on the right path'
p1733
aS'\xf0\x9f\x99\x8f'
p1734
aS'sooooooo bored'
p1735
aS'love reppin my teams but this ones for my boo out there in afghanistan \xf0\x9f\x98\x98\xf0\x9f\x92\x95'
p1736
aS'i wish you were in my arms instead'
p1737
aS'need to get ready with my laker gear and colts gear sooowooo'
p1738
aS'i did bust my toe the other day being the little bad ass i am but i did survive it too'
p1739
aS'so ready to move i cant do this anymore'
p1740
aS'thanks chago hope you did too and quit tryna scare me with your tweets talking bout scary stuff  lol'
p1741
aS'hope u had a great day angie '
p1742
aS'whys it gotta be 100 this week '
p1743
aS'i cant go back to sleep'
p1744
aS'sweet beans ltltlt'
p1745
aS'its gods timing  gotta be patient for my blessing \xf0\x9f\x99\x8f'
p1746
aS'yay just what i needed now off to bed \xe2\x98\xba\xf0\x9f\x92\x95\xf0\x9f\x92\xa4'
p1747
aS'in other news i wanna shop but not at the mall no'
p1748
aS'ahh cant wait for my army bracelet to come in \xe2\x98\xba'
p1749
aS'\xf0\x9f\x8c\xb9'
p1750
aS'thank you bb'
p1751
aS'your head band gt too cute \xf0\x9f\x98\x8d'
p1752
aS'dear mama x tupac'
p1753
aS'fuck an ex  they left pues que se vayan a la verga y si regresan que se vuelvan a la verga'
p1754
aS'im hanging in there homie'
p1755
aS'stay strong '
p1756
aS'take me back to frio river \xf0\x9f\x92\x95'
p1757
aS'i hate how i push people away like nothing its just a bad reflex from this crappy ol life'
p1758
aS'gotta find a way to get out out of this goodbye town'
p1759
aS'done complaining bout how much i hate living here its about time i leave and do something about it'
p1760
aS'mcm \xf0\x9f\x92\x95\xf0\x9f\x98\x81\xf0\x9f\x98\x8d'
p1761
aS'why are you a tard '
p1762
aS'being a full time student and working over 40 hours a week is no joke'
p1763
aS'people get mad when you treat them how they treat you'
p1764
aS'someone le facetime pwease'
p1765
aS'no bueno chico'
p1766
aS'i gotta pee  but the 16 steps seem far af '
p1767
aS'i spend most of my time missing you'
p1768
aS'too sad to try figure out what im gonna wear tomorrow'
p1769
aS'jesus believes in you'
p1770
aS'if only i knew how to play the guitar sounds so beautiful'
p1771
aS'freshen up my mood'
p1772
aS'shoulda gone for another 20 mile run'
p1773
aS'\xf0\x9f\x92\x94'
p1774
aS'i think some country should help my day'
p1775
aS'trying to maintain a positive mind through all of this\xe2\x80\x9d'
p1776
aS'trying to maintain a positive mind through all of this'
p1777
aS'stressed depressed but well dressed'
p1778
aS'i need a new job like asap'
p1779
aS'miley needs real homegirls that would have been like girrrrl no'
p1780
aS'omg shoot me now \xf0\x9f\x98\x91'
p1781
aS'how does miley cyrus poop'
p1782
aS'slowly losing my desire to maintain our friendship annoying ass bitch u aint gone like it once i reach my limit '
p1783
aS'theres a big difference'
p1784
aS'american presidents in uniform'
p1785
aS'itsjustmondaystayhappy'
p1786
aS'im starving son \xf0\x9f\x98\x81\xf0\x9f\x98\xa3'
p1787
aS'but time is running out and im startin to lose my faith'
p1788
aS'i forgot how awkward i am in public \xf0\x9f\x99\x88'
p1789
aS'i dont hold grudges but in sayin that i dont give second chances either'
p1790
aS'good morning world \xe2\x98\x80\xf0\x9f\x92\xa4'
p1791
aS'omg im so sleepyyyyyy'
p1792
aS'but reality is no one gives a damnnnn'
p1793
aS'i used to apologize to people for not being there when they needed me'
p1794
aS'goshhhh slept all day amp ready for school tomorrow yay me'
p1795
aS'i havent done shit '
p1796
asS'2013_34'
p1797
(lp1798
S'it feels good to finally find that someone who is there for you no matter what lifes throwing down at ya'
p1799
aS'cant live your life trying to do everything on your own '
p1800
aS' yes very much respect alot of it too good sissy \xf0\x9f\x8e\x80'
p1801
aS'im sorry to hear that its so amazing though it teaches you how to love and grow up my brother has tau\xe2\x80\xa6'
p1802
aS'just boosted my night \xf0\x9f\x8c\xbb\xe2\x9d\xa4'
p1803
aS'ive heard i try my best with my little bro i have to be his mom at times too since mines in heaven look up to you'
p1804
aS'im glad its my fav flower \xe2\x98\xba\xf0\x9f\x92\x95'
p1805
aS'military girlfriends do it better js plenty yall annoy me on the cool though'
p1806
aS'youre such a good sister i swear im always annoyed of my youngin lol'
p1807
aS'i question my strength'
p1808
aS'it gets to me when people feel sorry for me it really does i hate pity i hate it'
p1809
aS'wednesday night is honeybooboo and duck dynasty night\xf0\x9f\x91\x8d'
p1810
aS'if all fails im becoming a stripper'
p1811
aS'you float like a feather'
p1812
aS'its the season of his return \xe2\x98\xba'
p1813
aS'knowing summers coming to an end the new seasons coming in \xf0\x9f\x92\x95'
p1814
aS'shit went kind of downhill for a bit but picking myself back up and going foward is the best way to make things right\xe2\x80\xa6'
p1815
aS'everyone in the tv show revolution is scared of then texas republic yeah were just that bad ass texaspride'
p1816
aS'hungry'
p1817
aS'your wcw get em'
p1818
aS'did soulja boy ever tell em'
p1819
aS'country music is the best music if you think otherwise something is obviously wrong with you'
p1820
aS'just just get out chea'
p1821
aS'mmmmm mangos'
p1822
aS'nothing romantic bout that no type of love in those relationships girl some sad stuff great minds think alike'
p1823
aS'lmao i know like i aint getting shot for a nigga \xf0\x9f\x99\x85 i dont care how much money he has \xf0\x9f\x98\x82'
p1824
aS'lmao hell no them life threatening relationships  must avoid'
p1825
aS'this summer gt last summer'
p1826
aS'boy trying to kiss everybody eh no \xe2\x9c\x8b\xf0\x9f\x92\x81'
p1827
aS'i really do mostly always'
p1828
aS'i really do mostly always'
p1829
aS'yous a ho'
p1830
aS'sitting here bored watching family guy because none of you fucksticks will hangout with me'
p1831
aS'i pledge allegiance to the struggle \xf0\x9f\x87\xba\xf0\x9f\x87\xb8'
p1832
aS'this dream is all that i need cause its all that i ever had'
p1833
aS'keep retweeting \xf0\x9f\x99\x8f\xf0\x9f\x99\x8c\xf0\x9f\x99\x8f'
p1834
aS'working on my shiet'
p1835
aS'now get this work'
p1836
aS'i been work work work work working on my shiiiiii'
p1837
aS'ive been up all night tryna keep it real'
p1838
aS'you dont even know the half'
p1839
aS'fake females stay from around me'
p1840
aS'no monay no family sixteen in the middle of miami \xf0\x9f\x99\x8c\xf0\x9f\x99\x8c\xf0\x9f\x99\x8c\xf0\x9f\x99\x8c\xf0\x9f\x99\x8c\xf0\x9f\x99\x8c'
p1841
aS'im tryna tell you what the fuck ive been through'
p1842
aS'i aint hatin im just tellin you'
p1843
aS'but they dont wear these where im from'
p1844
aS'walk a mile in these boots'
p1845
aS'mmm that chicken sandwich on my tl though \xf0\x9f\x98\x8d'
p1846
aS'i die for her she lives for me'
p1847
aS'happy'
p1848
aS'soooo ready to get these next 6 months of school over with  so i can have my soldier back \xf0\x9f\x98\x81\xf0\x9f\x98\x81\xf0\x9f\x98\x81\xf0\x9f\x98\x81'
p1849
aS'pr colombian mexican yummy'
p1850
aS'interracial folks gtgtgtgt'
p1851
aS'\xf0\x9f\x98\x9eyes lol'
p1852
aS'lmao i like to think you do have a shower cap home im so funny '
p1853
aS'everyones like why you into them welp  why tf not '
p1854
aS'gosh i met the hottest redneck i almost died'
p1855
aS'does not clear anything tho'
p1856
aS'\xf0\x9f\x98\xb3'
p1857
aS'i forgot what i was gonna tweet'
p1858
aS'\xf0\x9f\x92\x95\xf0\x9f\x98\xb3'
p1859
aS'yay will do \xf0\x9f\x98\x8a'
p1860
aS'ppl please stop keying my car ok thank you'
p1861
aS'omg how '
p1862
aS'never been so stress free its that positive energy yo'
p1863
aS'week of my life'
p1864
aS'bitches be contradicting them selfs '
p1865
aS'real recognize real introduce yaself\xf0\x9f\x91\x8b'
p1866
aS'foreverhungry'
p1867
aS'tengo hambre'
p1868
aS'thank you sir'
p1869
aS'nice avi \xf0\x9f\x91\x8c\xf0\x9f\x8c\xbb'
p1870
aS'you hoodligans'
p1871
aS'today'
p1872
aS'these city folks take friendliness for a dick talk for real tho its pathetic'
p1873
aS'just hold me'
p1874
aS'the theme song for catfish should be uoeno \xf0\x9f\x98\x82\xf0\x9f\x98\x82'
p1875
aS'try'
p1876
aS'cook something really really good that i will fully finish the meal amp everything'
p1877
aS'wait that one i mean man'
p1878
aS'yes a test'
p1879
aS'waddup'
p1880
aS'only men ive allowed to cook for me is my in law he can cook for me anytime i luhhhss him'
p1881
aS'na no one period must pass the test'
p1882
aS'shawty is a tennn'
p1883
aS'men are clearly not allowed in my kitchen like ever'
p1884
aS'im here without you baby but youre still on my lonely mind'
p1885
aS'friday come already i needs my checks '
p1886
aS'you gotta be strong and stay strong'
p1887
aS'trying to get my body fit and my money fat '
p1888
aS'i dont need too much of nothin i just wanna sing a little chill song get my groove on sip on somethin strong'
p1889
aS'at least not now lol but thursday night boo i probably will lol \xe2\x98\xba'
p1890
aS'thats you baby \xf0\x9f\x98\x98'
p1891
aS'youre no where close to bein gone outta my head'
p1892
aS'hawteeeee \xf0\x9f\x98\x98'
p1893
aS'just knowing no one else could take your place'
p1894
aS'life goes on  with or without you'
p1895
aS'god knows how i miss you all the hell that ive been through'
p1896
aS'sunny days seem to hurt the most'
p1897
aS'hate when people just stare and mug you'
p1898
aS'why do you fellas choose to expose some real disgusting pics its not necessary'
p1899
aS'why'
p1900
aS'rt if your mom is a blessing \xe2\x9d\xa4\xf0\x9f\x91\xa9\xf0\x9f\x99\x8f\xe2\x80\x9d my mammas an angel \xf0\x9f\x91\xbc'
p1901
aS'lmao \xf0\x9f\x98\xad\xf0\x9f\x98\xad'
p1902
aS'lmao rayshone i coulda sworn you had a shower cap on your avi \xf0\x9f\x98\x82\xf0\x9f\x98\x82\xf0\x9f\x98\xad\xf0\x9f\x98\xad\xf0\x9f\x98\x82\xf0\x9f\x98\xad'
p1903
aS'nothing but a goodbye town'
p1904
aS'well my heart didnt skip a beat when i saw you standing there like some kind of angel'
p1905
aS'cowgirls dont cryyyyyyyyyyyyyyyyyy'
p1906
aS'u never know what someone is going through these days'
p1907
aS'i close my eyes and sometimes see you in the shadows'
p1908
aS'honky tonks amp cantinas'
p1909
aS'teamnothrowup'
p1910
aS'de lunes a s\xc3\xa1bado ella me pide que la busque'
p1911
aS'we went out last night an the night before'
p1912
aS'avi gt'
p1913
aS'hangoversssssssss lt'
p1914
aS'i wanna go sleep'
p1915
aS'hangovers are no fun when dogs are trying to wake you up \xf0\x9f\x98\x92'
p1916
asS'2013_33'
p1917
(lp1918
S'loosing them wouldnt be so hard if heaven werent so far away'
p1919
aS'hungry'
p1920
aS'but i believe you should txt back also '
p1921
aS'selfie'
p1922
aS'decorating mommas grave stone with this cutie'
p1923
aS'call me cheap or whatever you wanna call me im picking the sunflower fields \xf0\x9f\x98\x81\xf0\x9f\x8c\xbb'
p1924
aS'1 year today rip mama promise i wont be sad today plus its friday stayingstrong tgif mindovermatter loveyainheaven'
p1925
aS'who'
p1926
aS'thank you  again lol \xe2\x98\xba'
p1927
aS'youre gorg lt3'
p1928
aS'youre beautiful you should never feel ugly\xe2\x80\x9d thanks man'
p1929
aS'im all in my feelings cause im hungry'
p1930
aS'im just starting to see why they dont care to bother with me much'
p1931
aS'i remind my family alot of my mama'
p1932
aS'if i hit you up any time of the week and you dont reply please dont act like you give a damn rats ass tomorrow please do not'
p1933
aS'im not ready for tomorrow im just not ive never been how do i face it'
p1934
aS'would you believe me if i told you my dog likes to play with my feet lmao \xf0\x9f\x98\x82'
p1935
aS'what do i have to do to join'
p1936
aS'dude i must join you sometime looks like fun'
p1937
aS'damn theres still good people out there whodat'
p1938
aS'big props'
p1939
aS'unhealthy brunch'
p1940
aS'have a little faith'
p1941
aS'its all good no worries\xe2\x80\x9d'
p1942
aS'yay im smart'
p1943
aS'where do i start'
p1944
aS'dallas tx '
p1945
aS'its hard to eat healthy when everyone around is eating junk \xf0\x9f\x98\xad'
p1946
aS'we want canes  we want canes  '
p1947
aS'i wanna book '
p1948
aS'lmao im looking extra schleepy'
p1949
aS'waking up next to baegtgtgt caught him off guard \xf0\x9f\x99\x8ahe schleep'
p1950
aS'im just here um procrastinating'
p1951
aS'its all in your head unless you puke faint or die keep going'
p1952
aS'i wana go to cali just to go to the curls doctor \xf0\x9f\x98\xad\xf0\x9f\x98\xad'
p1953
aS'i want some canes \xf0\x9f\x99\x8f'
p1954
aS'never again \xf0\x9f\x98\x94'
p1955
aS'lol ill let you know when im not too busy with my nonbusy life \xf0\x9f\x98\x8a'
p1956
aS'we should \xf0\x9f\x98\x9bdolla menu  im on that college budget lol'
p1957
aS'next week we should go get a bite to eat or something angie'
p1958
aS'this morning ltltlt'
p1959
aS'thanks haha \xf0\x9f\x98\x86'
p1960
aS'im nice enough the first couple times and then im done'
p1961
aS'my number one pet peeve is repeating myself drives me insane'
p1962
aS'\xf0\x9f\x98\x92but im just not like that im too friendly \xf0\x9f\x98\xad'
p1963
aS'cause they want you '
p1964
aS'first day back at work and my manager for the day got a little ahead of himself \xf0\x9f\x98\x92'
p1965
aS'keep calm and hit the dms'
p1966
aS'why do folks take my kindness as flirtation \xf0\x9f\x98\xb7'
p1967
aS' why you tryna be nice now \xf0\x9f\x98\x91'
p1968
aS'yeah im gonna make it with my a'
p1969
aS'better get me pizza soon'
p1970
aS'nay'
p1971
aS'people tell me things they swear i aint thought of \xf0\x9f\x98\x91'
p1972
aS'i thought i was good at loving you'
p1973
aS'the grass is greener on the other side'
p1974
aS'i just wanna cover up in camo throughout fall amp winter'
p1975
aS'\xf0\x9f\x91\xbcim sorry for your loss \xe2\x9d\xa4\xf0\x9f\x92\x99'
p1976
aS'just thankful i survived this life threatening ride'
p1977
aS'big man up there hows my patience not good enough yet \xf0\x9f\x98\xa9'
p1978
aS'my dad almost murdered a dog \xf0\x9f\x98\x85'
p1979
aS'oh silly \xf0\x9f\x98\x86'
p1980
aS'my dad leaves his signal lights on throughout the entire ride \xf0\x9f\x98\x8b'
p1981
aS'everytime i get in this truck i kill myself in my head over and over'
p1982
aS'my first of a million reasons why i shouldnt ride with my dad \xe2\x98\xba\xf0\x9f\x91\x8a'
p1983
aS'im still half asleep'
p1984
aS'getting theses morning runs in \xf0\x9f\x8c\x91'
p1985
aS'yeah being independent is cool amp all but i get tired of being the only person i can depend on \xf0\x9f\x98\x94'
p1986
aS'i cant seem to go back to schleep'
p1987
aS'so im not sleeping anytime soon'
p1988
aS'my stomach hurts from how much i ate \xf0\x9f\x99\x88'
p1989
aS'why cant i cry money instead of tears'
p1990
aS'screw these assholes for never replying to my texts \xf0\x9f\x98\x91'
p1991
aS'i dont feel like fixing shit'
p1992
aS'fuck today it started horrible amp ended horrible'
p1993
aS'idk big man up there but now would be a good time for a miracle'
p1994
aS'dont stop no ill never give up and if it gets rough its time to get rough'
p1995
aS'perks of dating me you dont have to worry about me cheating because i never leave the house'
p1996
aS'i often ask myself why im such a forgiving person then i remember that im forgiven for so much more its the least i can\xe2\x80\xa6'
p1997
aS'growing as an individual its amazing how different my mindset is from a year ago'
p1998
aS'am bored'
p1999
aS'\xf0\x9f\x91\x8b'
p2000
aS'this is my temporary home its not where i belong  wise words from carrie underwood'
p2001
aS'where am i suppose to get the energy for another day dammit'
p2002
aS'idk where im suppose to go from here'
p2003
aS'they sure know how to push my buttons \xf0\x9f\x98\xa4'
p2004
aS'anyone care to give me advice on an issue im having '
p2005
aS'im just gona cover up in them hunting apparel all fall winter season maybe thatll help keep these folks away'
p2006
aS'were getting closer to the nba season lakernation'
p2007
aS'and you just put the phone back up'
p2008
aS'and then realizing they prob wont pick up '
p2009
aS'that moment you just wanna call your homie up and tell them how you give up on a monday'
p2010
aS'do itt \xf0\x9f\x92\x81\xf0\x9f\x91\x8f\xf0\x9f\x91\x8c'
p2011
aS'this is so true'
p2012
aS'miranda lambert gt carrie underwood'
p2013
aS'lmaoooo \xf0\x9f\x98\x82\xf0\x9f\x98\x82'
p2014
aS'its always a better day when i hear from my soldier \xf0\x9f\x92\x95'
p2015
aS'its hard not to be mad at someone who has the option to love you or not and decides not to'
p2016
aS'watchout for your local sun flowers'
p2017
aS'special day this friday'
p2018
aS'knowing this gonna leave me broke for the week or two screw it'
p2019
aS'getting my tabc certification moving up in the world yall'
p2020
aS'nah'
p2021
aS'lmao my tl cannot stand taylor swift\xf0\x9f\x98\x82\xf0\x9f\x98\x82 \xe2\x9c\x8beither cant i  either cant i'
p2022
aS'over the bs and im staying positive'
p2023
aS'so baby i will wait for you'
p2024
aS'thestruggle'
p2025
aS'lmao im kiddn i just wanted you to not call me fat haha \xf0\x9f\x98\x9c'
p2026
aS'you know what helps you gain followers if you lick my butthole'
p2027
aS'you said what im fat '
p2028
aS'jahaziel i miss you hey \xf0\x9f\x91\x8b'
p2029
aS'hey hey hey  i got some rolls i got em'
p2030
aS'dont even bother talking to me if you take everything literally'
p2031
aS'google'
p2032
aS'chill on the fatties \xe2\x9c\x8b'
p2033
aS'so god blesses you in all types of ways '
p2034
aS'reservations  sum lol'
p2035
aS'real shit'
p2036
aS'aye'
p2037
aS'thanks for the follow back'
p2038
aS'i get tired of being the strong one'
p2039
aS'sorry twitter fams im grumpy'
p2040
aS'ive just had enough of my world for today'
p2041
aS'it only pisses me off cause my dad has this macho man mentality from his stinken country'
p2042
aS'other than that youre fine healthy thank god you are by picking up after your stinken mess'
p2043
aS'unless youre guests unhealthy or some of your body parts wont function properly'
p2044
aS'tbh im prolly the only woman that refuses to pick up other folks mess'
p2045
aS'i have my share of good days and bad ones as well like today'
p2046
aS'me too and i hate waking up feeling like im still in it \xf0\x9f\x98\x94'
p2047
aS'sell yourself looooong'
p2048
aS'no one will ever love you like i do \xf0\x9f\x92\x95'
p2049
aS'wish i wasnt so shy'
p2050
aS'happy monday  \xf0\x9f\x92\xa9'
p2051
aS'i got my dad hooked on sweet tea again which is not good \xf0\x9f\x98\x9e'
p2052
aS'looking forward to 2 stepping again'
p2053
aS'ps if this is austin i still love you\xf0\x9f\x8e\xb6\xf0\x9f\x8e\xb5\xf0\x9f\x8e\xb6 everyone has their austin'
p2054
aS'what the hell was i thinking\xf0\x9f\x98\x91 no more being nice to people\xe2\x80\x9d im always getting in to trouble for that matter \xf0\x9f\x98\x9e'
p2055
aS'watching a sad athlete movie i feels fat now'
p2056
aS'its all how you hold her'
p2057
aS'i have the worst headache'
p2058
aS'i slept all day today \xf0\x9f\x98\x94 very unproductive on my behalf \xe2\x9c\x8b'
p2059
aS'buccees \xf0\x9f\x98\xae\xf0\x9f\x99\x88\xf0\x9f\x92\x95'
p2060
aS'well\xf0\x9f\x92\x81 texastuesday'
p2061
aS'one of them summer nights'
p2062
asS'2013_32'
p2063
(lp2064
S'i totally forgot what it was like to have a puppy \xf0\x9f\x98\xb3'
p2065
aS'waking up to these cuties morning yall'
p2066
aS'thanks buddy'
p2067
aS'not true nobody loves me \xf0\x9f\x98\x94'
p2068
aS'nobody loves me \xf0\x9f\x98\x94'
p2069
aS'id rather be dancing then to be with adults right now though'
p2070
aS'cousins birthday party or country club'
p2071
aS'too many people are on drugs'
p2072
aS'one wordpathetic bye'
p2073
aS'as you reachin ya goals youre gonna meet some foes'
p2074
aS'i dont think im gonna dye my hair til i see progress'
p2075
aS'yumm thanks \xf0\x9f\x8d\xa7'
p2076
aS'city folksltltlt country folks'
p2077
aS'i just miss the country side though'
p2078
aS'i wanna do something fun'
p2079
aS'holy cow'
p2080
aS'every day'
p2081
aS'enough of this ridiculous circle of feeling bad for nothing its exhausting not doing it'
p2082
aS'i usually give the homies one them guy hand shakes cause im cool like that'
p2083
aS'i just dont know what'
p2084
aS'i wanna do something you guys '
p2085
aS'na\xe2\x9c\x8b'
p2086
aS'happiness has its own way of taking its sweet time garyallan\xe2\x80\x9d'
p2087
aS'who invited these emotions around really'
p2088
aS'idk man'
p2089
aS'your face it makes me angry'
p2090
aS'im hard to love no i dont make it easy i couldnt stand if i stood where you stood \xf0\x9f\x8e\xb6'
p2091
aS'wheres the twitterafterdark at'
p2092
aS'counting sheep does not work for shit when youre trying to go to sleep'
p2093
aS'\xf0\x9f\x98\x8dhello'
p2094
aS'im too hungry to parlay'
p2095
aS'que se chinge'
p2096
aS'muhahahahaha'
p2097
aS'party'
p2098
aS'i was like where the rockets at tho '
p2099
aS'lmao my bf likes the rockets and was heart broken when he found out im a laker fannn '
p2100
aS'never'
p2101
aS'never that'
p2102
aS'i wanna dance'
p2103
aS'hahah'
p2104
aS'javi ugly'
p2105
aS'why  '
p2106
ag374
aS'supporting me through it all from my moms passing to me pushing myself to go back to school thank yall \xf0\x9f\x99\x8c'
p2107
aS'too cute'
p2108
aS'i wanna take a moment and thank god for blessing me with the wonderful friends hes allowed to stay in my life'
p2109
aS'okay i aint even texting right so k'
p2110
aS'youre tattoo lol'
p2111
aS'my arms bout to fall off in minus 5432'
p2112
aS'i got my shot for school today'
p2113
aS'sometimes i wish i could make myself fit in one of these boxes to be with him\xe2\x80\xa6'
p2114
aS'your tattoo gtgtgt \xf0\x9f\x98\x8dwhats it'
p2115
aS'first day back home and never ceases to disappoint me'
p2116
aS'everyone is slowing my flow today swerve'
p2117
aS'when i get upset i quickly remind myself that life is too short to be angry that alone makes me smile and savor the now'
p2118
aS'how dare this occur'
p2119
aS'im shad'
p2120
aS'god can bless you from nothing to something joseph grenny wcagls'
p2121
aS'with god by my side anything is possible \xf0\x9f\x99\x8f'
p2122
aS'happy birthday \xf0\x9f\x8e\x89\xf0\x9f\x8e\x88\xe2\x98\xba'
p2123
aS'me everyday'
p2124
aS'learn to enjoy every minute of your life be happy now'
p2125
aS'dierks bentley i love you right now'
p2126
aS'wish our textbooks were free'
p2127
aS'\xf0\x9f\x8f\x80\xf0\x9f\x8f\x80\xf0\x9f\x8f\x80\xf0\x9f\x8f\x80\xf0\x9f\x8f\x80\xf0\x9f\x8f\x80\xf0\x9f\x8f\x80\xf0\x9f\x8f\x80\xf0\x9f\x8f\x80 retweet if you love the los angeles lakers \xf0\x9f\x8f\x80\xf0\x9f\x8f\x80\xf0\x9f\x8f\x80\xf0\x9f\x8f\x80\xf0\x9f\x8f\x80\xf0\x9f\x8f\x80\xf0\x9f\x8f\x80\xf0\x9f\x8f\x80\xf0\x9f\x8f\x80 l\xe2\x80\xa6'
p2128
aS'if you hate your life then keep that to yourself dont bring negativity around me'
p2129
aS'\xf0\x9f\x92\xaa\xf0\x9f\x92\xa6 teamgetfit'
p2130
aS'bfore he left to afghanistan tbt'
p2131
aS'lmao get it together girl lol but thanks \xf0\x9f\x98\x82\xf0\x9f\x98\x81'
p2132
aS'i had this real good tweet i just forgot what it was'
p2133
aS'lmao thats funny '
p2134
aS'omg i swear for your bday i tweeted you wishing you happy bday and it turned out i had tagged the wrong person\xe2\x80\xa6'
p2135
aS'imma start a riot \xe2\x9c\x8a'
p2136
aS'i did not miss dallas'
p2137
aS'back in the triple d'
p2138
aS'i stay blessed \xf0\x9f\x99\x8f'
p2139
aS'sometimes low key'
p2140
aS'whats goin on butt lickers'
p2141
aS'tbh i got a new  tho'
p2142
aS'aww well probably whenever i come again ill visit \xf0\x9f\x98\x8a'
p2143
aS'anyway you dont has my new numba'
p2144
aS'oh yeah everythings like super far away lol ive noticed'
p2145
ag374
aS'i dont wanna leave his home \xf0\x9f\x92\x94 confessyourunpopularopinion'
p2146
aS'oh i have no idea where thats at'
p2147
ag374
aS'awwww \xe2\x98\xba\xe2\x98\xba loves you too'
p2148
aS'bu i lu yuh'
p2149
aS'i didnt even know you were from here  lol'
p2150
aS'calmate chico i fucks with the lakers \xf0\x9f\x92\xaa'
p2151
aS'it rhymes though '
p2152
aS'west sideee'
p2153
aS'i just felt like putting him out there lowkey'
p2154
aS'i aint no kiss ass though  really'
p2155
aS'yes you'
p2156
aS'this homie from back in the day wanna be all mr cool ass on these social networks but when i text the fella hes nothing but a phony'
p2157
aS'holla \xf0\x9f\x99\x8c'
p2158
aS'javi vagi'
p2159
aS'javicray'
p2160
aS'lol sike well im gonna try to go to the store key word try'
p2161
aS'i get ya some gum'
p2162
aS'whatevs'
p2163
aS'you just prove me right every time i just cant rely on you'
p2164
aS'\xf0\x9f\x98\x91\xf0\x9f\x91\x8a'
p2165
aS'i havent gotten all the homies some souvenirs \xf0\x9f\x98\x95'
p2166
aS'awe shoot'
p2167
aS'i know  i know \xe2\x9c\x8b'
p2168
aS'im leaving katy tomorrow  lol'
p2169
aS'got me an army bracelet \xf0\x9f\x98\xac'
p2170
aS'every time someone asks bout if my brothers are nice or mean to me i just say it straight up theyre assholes'
p2171
aS'be strong enough to stand alone smart enough to know when you need help and brave enough to ask for it'
p2172
aS'be strong enough to stand alone smart enough to know when you need help and brave enough to ask for it\xe2\x80\x9d'
p2173
aS'thats bout it for my morning thoughts'
p2174
aS'and ever since then im like i like being happy'
p2175
aS'they said to meangee dont be afraid to be happy without your mom'
p2176
aS'someone once couple weeks ago  gave me the best advice ever'
p2177
aS'hmu'
p2178
aS'laugh more worry less'
p2179
aS'texas reports of at least 3 people shot in north houston after gunman randomly opens fire gunman at large share 911buff'
p2180
aS'she don\xe2\x80\x99t need you and she don\xe2\x80\x99t need me she can do just fine on her own two feet georgestrait'
p2181
aS'bitches in my tl and im like i seen you befo with that one other guy right there '
p2182
aS'yousa homiehopper'
p2183
aS'ugh you fuck whore'
p2184
aS'all of a sudden everyones too busy to reply to my anticipated texts \xf0\x9f\x98\xb7'
p2185
aS'that sun screen aint working on my anymore lmao \xf0\x9f\x98\x9e'
p2186
aS'\xf0\x9f\x8d\x95 \xf0\x9f\x8d\xa4 \xf0\x9f\x8d\x96 \xf0\x9f\x8d\xae \xf0\x9f\x8d\xb1\xf0\x9f\x8d\xa3 \xf0\x9f\x8d\x8c \xf0\x9f\x8d\x9d \xf0\x9f\x8d\xab \xf0\x9f\x8d\x9a \xf0\x9f\x8d\x8e \xf0\x9f\x8d\x94 \xf0\x9f\x8d\x9c \xf0\x9f\x8d\x89 \xf0\x9f\x8d\xb2 \xf0\x9f\x8d\xa7 love \xf0\x9f\x8d\xa2 \xf0\x9f\x8d\xb0 \xf0\x9f\x8d\xb3 \xf0\x9f\x8d\xab \xf0\x9f\x8d\x9e \xf0\x9f\x8d\xaa \xf0\x9f\x8d\xa9 \xf0\x9f\x8d\x9f'
p2187
aS'this sun has to goooooo im tired of getting dark \xe2\x80\x9d im looking black already \xf0\x9f\x98\x94'
p2188
aS'i hate it how my breath stinks after i eat \xf0\x9f\x98\xad'
p2189
aS'ive said before bubba your moms gorg af shes truly blessed \xf0\x9f\x99\x8ftake good care of her k'
p2190
aS'come winter'
p2191
aS'\xf0\x9f\x98\x82\xf0\x9f\x91\x8c'
p2192
aS'yall hood rats need to step out your comfort zone hood and live a little theres more to life than smoking weed and playing bp'
p2193
aS'swerve with em hoes \xe2\x9c\x8b'
p2194
aS'i desperately need new clothes amp shoes \xf0\x9f\x91\x9a\xf0\x9f\x91\x97\xf0\x9f\x91\xa0\xf0\x9f\x92\x84\xf0\x9f\x91\x99\xf0\x9f\x91\x9c'
p2195
aS'got me a willie nelson shirt  how cute'
p2196
aS'\xe2\x80\x9cshes holding it together when she should be falling apart shes breaking the rules for a broken heart jasonaldean\xe2\x80\x9d'
p2197
aS'the sweetest thing my mom could do for me for my birthday is pay for me to finish my half sleeve hahahaha'
p2198
aS'so content and happy with life right now'
p2199
aS'i wanna stay here'
p2200
aS'they are it was so tiny it was surreal '
p2201
aS'aww hummingbirds are so beautifulllll'
p2202
aS'a hummingbird just flew up go me for a like a couple secs \xf0\x9f\x98\xb1'
p2203
aS'good morning yall \xe2\x9b\x85'
p2204
aS'last night here in uvalde tx'
p2205
aS'loving life yo'
p2206
aS'im trying to develop the other half of my ego through my relationship with you amongst other fantastic things of course'
p2207
aS'me'
p2208
aS'distance can be hard not having you in my life would be worse\xe2\x80\x9d'
p2209
aS'i feel like its a must for me to watch all the office episodes'
p2210
aS'man candy monday armygf'
p2211
aS'recent studies at the university of yale have revealed that if you dont listen to george strait i dont fucking trust you'
p2212
aS'wtf there was a crazy accident in gp'
p2213
aS'talking too the moon'
p2214
aS'that time of year again sharkweek 2ndfavholidayweek'
p2215
aS'im going to get fit even if it kills me'
p2216
aS'its your love it just does somethin to me sends a shock right through me'
p2217
aS'im gonna live where the green grass grows watch my corn pop up in rows timmcgraw'
p2218
aS'far from perfect but im loyal af though'
p2219
aS'im so cold inside the cabin im warm blooded af'
p2220
aS'my bfs family gtgtgt'
p2221
aS'forget what hurt you but never forget what it taught you'
p2222
aS'lmao no problem '
p2223
aS'you made me feel like a yummy donut with sprinkles on top \xf0\x9f\x8d\xa9imhungry thanks chaggo  likewise '
p2224
aS'angie is probably the best person i know a true friend and beautiful inside and out '
p2225
aS'alright guys lets settle down let these sluts hos n whatever else falls in the categorie be'
p2226
aS'rt if your ex downgraded \xf0\x9f\x98\x82'
p2227
aS'dallas cowboys fans be like'
p2228
aS'i should listen to some music to put me to schleep no\xe2\x80\x9d thats what i do every night \xf0\x9f\x8e\xa7\xf0\x9f\x98\xb4'
p2229
aS'its not my fault everyone wanna show me love 1250 am'
p2230
aS'nope lol'
p2231
aS'i should listen to some music to put me to schleep no'
p2232
aS'is it the 832 '
p2233
aS'i miss  too soon'
p2234
aS'i aint coming back ive already been there done that lukebryan'
p2235
aS'i rubbed the shit out my eye \xf0\x9f\x98\xab'
p2236
aS'im on vacation aint nobody got time for that'
p2237
aS'i need to go to schleep but ive been schleepin half the day does that make up for it'
p2238
aS'dont show no lub'
p2239
aS'i smoke ciggerates i dont care if bitches think its nasty'
p2240
aS'its gonna hurt every now and then if you fall get back on again cowgirls dont cry\xe2\x80\x9d'
p2241
aS'i swear july only lasted like 3 minutes'
p2242
aS'once they see youre doing better without them thats when they want you back'
p2243
aS'shark week rn\xf0\x9f\x98\x90\xf0\x9f\x98\xac'
p2244
aS'if you make no effort its yo fault we fall off'
p2245
aS'wish i could close my eyes and not have to see you smiling craigcampbell'
p2246
aS'as my hoodligans like to say i aint worried bout nun'
p2247
aS'you never wanna prove me right cause its usually a bad thing'
p2248
aS'good call angee'
p2249
aS'im always right and when im not i know it'
p2250
aS'high five myself'
p2251
aS'idk i just hate when people lie its like i can smell em lies bout a mile away now'
p2252
aS'i appreciate humble people\xe2\x80\x9d'
p2253
aS'hell yeah thats the mentality'
p2254
aS'forget shit amp move on'
p2255
aS'hey boo \xf0\x9f\x91\x8b\xe2\x98\xbayour avi gtgtgt soooo gorg as always '
p2256
aS'i told my in law  this game gone get to he fans  he was like its just the dolphins loosing their cool nothing bout em boys'
p2257
aS'dudes remain faithful to some sorry ass team but maintain unfaithful to a good ass girl truthbetold'
p2258
aS'shed rather be on the lake than in the mall justinmoore'
p2259
aS'dudes remain faithful to some sorry ass team but maintain unfaithful to a good ass girl truthbetold'
p2260
aS'this is what they do put yall hopes up and then bam they remain champs from back in the day not now a day'
p2261
aS'im no cowboy fan  hater but i already know for sure this pathetic game gone get to yall fans out there and boost yall cowboy ego'
p2262
aS'that nap gt'
p2263
asS'2013_31'
p2264
(lp2265
S'i learn from what i been through'
p2266
aS'sunday funday very much'
p2267
aS'accidental burns ltltlt'
p2268
aS'doing it right \xf0\x9f\x98\x8c'
p2269
aS'got bruises all over my butt from them river swings'
p2270
aS'howd our paths cross though its insane'
p2271
aS'i dont miss home sorrynotsorry'
p2272
aS'its like i just got redirected to my happiness once again'
p2273
aS'this life is not worth trading no others'
p2274
aS'happyascanbe'
p2275
aS'loving my vacation yall '
p2276
aS'sigh it sucks how my city folks dont show my no country lub yall know i get ratchet with yall pero no love in returnk'
p2277
aS'good thing i aint in the city'
p2278
aS'loving it here in south tx'
p2279
aS'i aint in no hurry today zacbrownband'
p2280
aS'i could stay here forever'
p2281
aS'yall glad i aint blue'
p2282
aS'i love it here everythings perfect and relaxing as can be'
p2283
aS'\xe2\x9c\x8c \xf0\x9f\x87\xba\xf0\x9f\x87\xb8'
p2284
aS'drink one for the ones you miss the ones you cant be with'
p2285
aS'todays breakfast gtgtgtgt'
p2286
aS'spotted this black buck other day out in the country garner state park'
p2287
aS'im schleep'
p2288
aS'get it right'
p2289
aS'if i could i have a baby right now i would lol \xf0\x9f\x98\x92 babyfever'
p2290
aS'dance tonight at gardner \xf0\x9f\x98\x81'
p2291
aS'went hiking this morning over yonder'
p2292
aS'tell your mother that i love her cause i love you'
p2293
aS'i felt him so close it was surreal'
p2294
aS'slept in my babes bed last night \xf0\x9f\x92\x95'
p2295
aS'missin you in a texas kinda way \xf0\x9f\x8e\xb6 jamming'
p2296
aS'my day gtgt yours'
p2297
aS'hoesll suck you up then tweet a bible verse\xe2\x80\x9d'
p2298
aS'everytime i go fishing'
p2299
aS'love this vaca'
p2300
aS'\xf0\x9f\x8c\xbe\xf0\x9f\x8c\xbb'
p2301
aS'still on our way to the cabin yo'
p2302
aS'ello \xf0\x9f\x98\x8e'
p2303
aS'goodbyedallas \xf0\x9f\x91\x8b'
p2304
aS'bet that'
p2305
aS'ill be the first one outta here though'
p2306
aS'fuck i missed my bus \xf0\x9f\x98\x92'
p2307
aS'i live in a town everyone claims to hate yet they never leave'
p2308
aS'when my dog tries to jump on the couch amp misses gtgtgt \xf0\x9f\x98\x82\xf0\x9f\x98\x82'
p2309
aS'this bitch was likedelete my number i was like \xe2\x99\x95 keep calm it was never\xe2\x80\xa6'
p2310
aS'i dont wanna leave my baby \xf0\x9f\x98\x94'
p2311
aS'busy busy day'
p2312
aS'i wanna take a nap'
p2313
aS'seriously mixed babies are the cutest things in the whole world\xf0\x9f\x98\x8d\xe2\x9d\xa4\xf0\x9f\x92\xaf'
p2314
ag374
aS'just got off the phone with my mommas sister \xf0\x9f\x92\x95'
p2315
aS'god is great man'
p2316
aS'happy birthday'
p2317
aS'country music and beers are always on the menu'
p2318
aS'first time traveling alone and starting all over'
p2319
aS'im gonna miss my dogggg yoooo'
p2320
aS'getting cold feet \xf0\x9f\x98\xb7'
p2321
aS'dallas'
p2322
aS'so hot in this house \xf0\x9f\x98\xb0'
p2323
aS'you gotta know struggle before you know success \xf0\x9f\x8f\x86'
p2324
aS'same'
p2325
aS'a drunk golden retriever walks into a club with some bitches slam dunks a basketball and shotguns a beer air bud in da c\xe2\x80\xa6'
p2326
aS'dealingwithalightskin everybody gone think you cute but not talk to you '
p2327
aS'he prolly gay'
p2328
aS'indecisive situations ltlt'
p2329
aS'i dont want to hear anyone complaining about their parents my dad wont even help my lil bro with his college tuition \xe2\x80\xa6'
p2330
aS'so if you think theres still a chance to make it right change your mind'
p2331
aS'baby dont come back this time dont wanna have to say goodbye all over again'
p2332
aS'keep on going til youre gone even when you think its wrong'
p2333
aS'when you wake up wanting me and you cant go back to sleep change your mind'
p2334
aS'im feeling too much pressure to eat pie in front of all these people im going home'
p2335
aS'i am craving chinese tho'
p2336
aS'no i dont need you'
p2337
aS'quio baila'
p2338
aS'puerto ricansgtgtgtgt'
p2339
aS'lol ill be there in a couple days its humid af only difference from dallas lol'
p2340
aS'love it in texas but this heat is no joke bruh'
p2341
aS'its always like hotter'
p2342
aS'texasheat'
p2343
aS'but you loved me anyways \xe2\x9d\xa4'
p2344
aS'getting ready for houston'
p2345
aS'im hungry'
p2346
aS'my last bday gift from the bae takes up half my room cute haa'
p2347
aS'considering all ive been through  im glad im still looking okay i guess'
p2348
aS'people think im younger'
p2349
aS'i know alot of things but i dont say'
p2350
aS'my smoke holder'
p2351
aS'blah theres always karaoke'
p2352
aS'i wish my brothers still gave a damn bout me i miss playing music with them'
p2353
aS'6 more months baby'
p2354
aS'now i see why people hurt themselves and wanna commit suicide'
p2355
aS'im standing strong but im still on my knees praying'
p2356
aS'nobody misses you til ur gone'
p2357
aS'theres only one way up when youre at zero'
p2358
aS'nothing in this world will ever break my heart again'
p2359
aS'pour me something stronger than me'
p2360
aS'rt if your boobs glow in the dark'
p2361
aS'one last month in texas \xf0\x9f\x98\x94'
p2362
aS'this is getting out of hand'
p2363
aS'when people take the freedom to call me angie gtgt'
p2364
aS'no me destruyas mas'
p2365
aS'life keeps hitting me like a bitch'
p2366
asS'2013_30'
p2367
(lp2368
S'i like my sundays with a cherry on top'
p2369
aS'thank you everybody for comin out and showin love for my birthday that shit was fucking cool \xf0\x9f\x99\x8f\xf0\x9f\x8e\x81'
p2370
aS'thanks for all the birthday love twitter fam \xf0\x9f\x98\x98\xf0\x9f\x92\x95\xf0\x9f\x92\x95'
p2371
aS'so its called the atampt stadium now no more cowboys stadium lololololol'
p2372
aS'ill bring the fam lol jk i miss them good ass cookings \xf0\x9f\x98\x94'
p2373
aS'\xf0\x9f\x98\x94\xf0\x9f\x98\xad\xf0\x9f\x98\xadi want some'
p2374
aS'even though it was a good day yesterday i was having a bad one in my mind'
p2375
aS'uhhhhhh idk how i ended up with blood all over me last night ltltlt'
p2376
aS'sucks to suck'
p2377
aS'consider my vibe killed'
p2378
aS'\xf0\x9f\x91\x8e'
p2379
aS'thanks boo '
p2380
aS'happy birthday cute ass \xf0\x9f\x8e\x8a\xf0\x9f\x8e\x89\xf0\x9f\x8e\x88'
p2381
aS'thanks for the luv \xf0\x9f\x98\x8a'
p2382
aS'happy birthday \xf0\x9f\x98\x98\xf0\x9f\x8e\x89\xf0\x9f\x98\x8a'
p2383
aS'well hopefully tonights a good one \xf0\x9f\x91\x8c'
p2384
aS'me rn bdaygirl mommasroses'
p2385
aS'happy bday have a good'
p2386
aS'thankssssssss \xf0\x9f\x98\x8a\xf0\x9f\x98\x8a\xf0\x9f\x98\x8a\xf0\x9f\x98\x8a'
p2387
aS'happy birthday to the kindest and strongest person i know you have all my respect im always here for you have a good on\xe2\x80\xa6'
p2388
aS'happy birthday have an amazing day beautiful \xf0\x9f\x92\x95'
p2389
aS'both lol'
p2390
aS'thanks boo \xf0\x9f\x98\x8a'
p2391
aS'btw happy birthday '
p2392
aS'thats always a good thing '
p2393
aS'you deserve to be happy dont let anyone make you forget that'
p2394
aS'thanks boo turnup lol'
p2395
aS'happy birthday \xe2\x98\xba\xf0\x9f\x8e\x81\xf0\x9f\x8e\x89\xf0\x9f\x8e\x88'
p2396
aS'thanks love yall have a good time out there amp stay safe \xf0\x9f\x92\x9c'
p2397
aS'perf weather today \xf0\x9f\x91\x8c'
p2398
aS'thank you cous \xf0\x9f\x92\x95'
p2399
aS'thanks homie take a shot for me tonight  \xf0\x9f\x98\x8a\xf0\x9f\x98\x9c'
p2400
aS'happy birthday girl \xf0\x9f\x8e\x89'
p2401
aS'thank u love '
p2402
aS'happy birthday angie i hope u have a great productive day much love chago'
p2403
aS'happy birthday'
p2404
aS'thank you sir jay \xe2\x98\xba'
p2405
aS'thanks kevin \xf0\x9f\x98\x8a\xf0\x9f\x98\x81'
p2406
aS'happy birthday maam'
p2407
aS'happy birthday \xf0\x9f\x8e\x89\xf0\x9f\x8e\x88'
p2408
aS'like who fucking understands you'
p2409
aS'happy birthday to meeee yeeehawwwww'
p2410
aS'these phone calls i got to start off my day gtgtgtgt'
p2411
ag374
aS'im gonna name my first born texas'
p2412
aS'boricuaa'
p2413
aS'\xf0\x9f\x92\xa9on em'
p2414
aS'soy morena chico mira'
p2415
aS'im not black theres a difference'
p2416
aS'zach keeping my tl live lol \xf0\x9f\x91\x8b'
p2417
aS'birthdaydinner morena bb \xf0\x9f\x98\x98'
p2418
aS'facetime '
p2419
aS'all that food got me sleepy like a baby \xf0\x9f\x98\x91'
p2420
aS'aww i hope to see you soon ive been keeping myself busy girl i have 2 jobs now n what not \xf0\x9f\x98\xa9'
p2421
aS'i miss yall \xf0\x9f\x92\x94'
p2422
aS'ive got some of the best friends this life can offer'
p2423
aS'go ahead and saying sorry to my liver in advance turnt'
p2424
aS'too excited hope all turns out well'
p2425
aS'thanks \xf0\x9f\x98\x89'
p2426
aS'those calves tho\xf0\x9f\x91\x8c'
p2427
aS'having great friends makes life so much better'
p2428
aS'\xf0\x9f\x98\x8d\xf0\x9f\x98\x98'
p2429
aS'rt if ur a minion'
p2430
aS'my new babies \xe2\x98\xba'
p2431
aS'checkout my snack bag'
p2432
aS'someone come walk on my back'
p2433
aS'sometimes i wish nikki minaj would disappear by sometimes i mean all the time whyareyoufamous'
p2434
aS'the cts'
p2435
aS'progress slowly but surely is better then no progress'
p2436
aS'farruko be steady gtgt'
p2437
aS'this heat will make you lazy af mane'
p2438
aS'toa la noche darte castigo'
p2439
aS'como te puedo tene'
p2440
aS'dime como te puedo convencer'
p2441
aS'tranki que nada pasa'
p2442
aS'que toma pa ke te namore'
p2443
aS'ola dime si tu anda sola'
p2444
aS'gtgtgtgt \xf0\x9f\x92\x95\xf0\x9f\x92\x95\xf0\x9f\x98\x8c'
p2445
aS'its friday i dont even know if i wanna go into work '
p2446
aS'its alright to keep it light down mamma'
p2447
aS'chillys for lunch hmm'
p2448
aS'houston in a few days though'
p2449
aS'thanks \xf0\x9f\x98\x8a'
p2450
aS'\xf0\x9f\x98\x8d\xf0\x9f\x98\x8d youre avi'
p2451
aS'they are  lol im looking into them'
p2452
aS'anytime \xf0\x9f\x98\x8a'
p2453
aS'all by myself \xf0\x9f\x91\x8c'
p2454
aS'im gona surprise the hell out of my man when hes back from afghanistan with my new caddy \xf0\x9f\x98\x89'
p2455
aS'idk yet theyre nice you selling one'
p2456
aS'hmmm cadillac my next baby'
p2457
aS'lmao my last rtgtgt \xf0\x9f\x98\xad\xf0\x9f\x98\xad\xf0\x9f\x98\x82\xf0\x9f\x98\x82\xf0\x9f\x98\x82\xf0\x9f\x98\xad dead'
p2458
aS'whitepeoplestruggles i feel you girl i be a little hungry too wanting to do the same \xf0\x9f\x98\x82\xf0\x9f\x98\x82\xf0\x9f\x98\x82'
p2459
aS'got overtime amp a gift card for over timing  winning gtgtgt'
p2460
aS'well said \xf0\x9f\x91\x8f\xf0\x9f\x91\x8f'
p2461
aS'cause food \xf0\x9f\x92\x98'
p2462
aS'i feel like imma bout to have the best birthday evaaaaaaa \xf0\x9f\x91\x8f'
p2463
aS'anytime  brush it off boo'
p2464
aS'i havent had since i cant remember and thats a problem \xe2\x98\x9d'
p2465
aS'i just told my coworker to give me a cheesecake yummm'
p2466
aS'hug'
p2467
aS'i just wanna show i caregtgtgtgtgt'
p2468
aS'hes a keeper '
p2469
aS'too funny \xf0\x9f\x98\x82 ya killin me'
p2470
aS'my coworker thought yesterday was my birthday gtgtgt'
p2471
aS'that phone call gtgtgtgt'
p2472
aS'chilllllllll ha'
p2473
aS'not uuuuu lol'
p2474
aS'no im not'
p2475
aS'dude youre like in hs \xe2\x9c\x8bso over that \xf0\x9f\x98\x82\xf0\x9f\x98\x82'
p2476
aS'dont fuck people over on your way to the top youll see them again on your way back down word'
p2477
aS'i need to get out and smell things'
p2478
aS'text me \xf0\x9f\x92\x81\xf0\x9f\x99\x8b\xf0\x9f\x99\x86'
p2479
aS'youre half a world away '
p2480
aS'i have a love hate situation going on with my job'
p2481
aS'done came a long way since then tbt'
p2482
aS'the faster these months pass the sooner well reunite \xf0\x9f\x99\x8f'
p2483
aS'being happy is the hardest part'
p2484
aS'its hard not having the people i love the most around  specially when it comes to celebrating'
p2485
aS'i know everyone will tell me to be positive which im trying its just hard and scary'
p2486
aS'cant wait for houston a week from now \xf0\x9f\x98\x9c'
p2487
aS'not today  please'
p2488
aS'hoysibebe'
p2489
aS'heeeee yahhhhh payday ma\xc3\xb1ana \xf0\x9f\x92\xb0\xf0\x9f\x98\x8c'
p2490
aS'rise amp shine its g r e a t n e s s time'
p2491
aS'i want to complain about this upcoming deployment and how my heart is breaking but i dont want to be attacked \xf0\x9f\x98\x94'
p2492
aS'left my house last night and no one even noticed \xf0\x9f\x98\x94i gets no love'
p2493
aS'ig simplyangs'
p2494
aS'good morning \xf0\x9f\x91\x8b\xf0\x9f\x99\x88'
p2495
aS'i would go to the corner store and buy some snacks but thats not enough'
p2496
aS'i luh yoooo'
p2497
aS'josh turner \xf0\x9f\x98\x8d'
p2498
aS'when your ex sees you looking good as fuck \xf0\x9f\x98\x8c\xf0\x9f\x91\x8c gtgtgtgt'
p2499
aS'i often wonder if you could see me from where you are'
p2500
aS'they say it catches up to you that it hits you when you least expect it'
p2501
aS'where u att'
p2502
aS'today ltlt'
p2503
aS'\xf0\x9f\x98\x92ehh'
p2504
aS'i shouldve been born in the 70s80s \xf0\x9f\x98\x92'
p2505
aS'hispaniclatinas are the prettiest \xee\x90\x98 kimdone \xee\x90\xa0\xee\x90\xa0'
p2506
aS'gonna take a trip to my fridge amp see what i can find'
p2507
aS'baseball gtgtgtgt soccer'
p2508
aS'lord what am i supposed to do when theres more than miles in my rear view'
p2509
aS'i might not be perfect but jesus thinks im to die for'
p2510
aS'\xf0\x9f\x94\xa5\xf0\x9f\x94\xa5'
p2511
aS'this isnt an accent its called texas twang'
p2512
aS'not in the mood just wanna sleep\xe2\x80\x9d rt'
p2513
aS'i really really wanna do sum'
p2514
aS'day off i feel like going somewhere '
p2515
aS'people are crazy'
p2516
aS'thats little ass kids for you be gone \xe2\x9c\x8c\xf0\x9f\x98\xb4'
p2517
aS'thanks for breaking my heart bitch'
p2518
aS'i will seduce you with my curls'
p2519
aS'i just wanna dance'
p2520
aS'headed to venice beach  \xe2\x80\x9d take me with you reddddd\xf0\x9f\x98\xa9\xf0\x9f\x98\xa9\xf0\x9f\x98\xa9\xf0\x9f\x98\xa9\xf0\x9f\x98\xa9'
p2521
aS'so to all my followers but especially the positive 1s'
p2522
aS'slowly but surely getting ready for work \xf0\x9f\x98\x9e'
p2523
aS'wow that makes me feel great appreciate it '
p2524
aS'ive never looked up to a much as i do right now in this twitter world \xf0\x9f\x91\x8f\xf0\x9f\x91\x8fwords of encouragement hitting the spot'
p2525
aS'i respect people who stand for something positive and is trying to do something with their life'
p2526
aS'i cant change you but i can always change myself \xf0\x9f\x99\x8f'
p2527
aS'now shut up'
p2528
aS'idk how to respond to this'
p2529
aS'im paying for good musics worth \xf0\x9f\x98\x8f'
p2530
aS'my hands hurt like a bitch \xf0\x9f\x98\x94'
p2531
aS'have a little damn respect'
p2532
aS'i aint having no bs'
p2533
aS'if i dont reply to your text its a sign to go fuck yourself'
p2534
aS'when boys put their girlfriend as women crush wednesday gtgtgtgtgt hella cute wtf'
p2535
aS'yup im gonna be gone the min i clock out friday night'
p2536
aS'im getting a better one no commercials unlimited listening n better music '
p2537
aS'my sleeping schedule all out of order \xf0\x9f\x98\xa9'
p2538
aS'dont complain about things get off your ass and change it'
p2539
aS'cheat lol '
p2540
aS'ima make otra account'
p2541
aS'im actually gonna buy a better one lol'
p2542
aS'lmao thats how mine is they trying to make me buy shit hepl nah fakkk'
p2543
aS'\xf0\x9f\x98\x94night yall ive got some schleep i needs in my life'
p2544
aS'no birthday sex is the worst idea ever lol\xe2\x80\x9d \xf0\x9f\x98\xad\xf0\x9f\x98\xad\xf0\x9f\x98\xad\xf0\x9f\x98\xadfall uuuu'
p2545
aS'for real though i gotta make a sacrifice again geez'
p2546
aS'omb why did i say that \xf0\x9f\x98\x92\xf0\x9f\x92\xa9'
p2547
aS'whaayyyyy'
p2548
aS'im schad'
p2549
aS'please'
p2550
aS'3 more days \xf0\x9f\x91\x90'
p2551
aS'\xe2\x9c\x8a'
p2552
aS'tell me you love me if not tell me i\xe2\x80\x99m ugly\xe2\x80\x9d straight to the point\xf0\x9f\x91\x8c'
p2553
aS'\xf0\x9f\x98\xb3'
p2554
aS'idkijustfeltliketakingasleepyntiredpiclayingonmybedreppinthelakersbby'
p2555
aS'the fact that my pandora listening limit has died ltltlt'
p2556
aS'while feeding me vegetables'
p2557
aS'give me a back massage too'
p2558
aS'rub my feet yo'
p2559
aS'if you know me very well youd know i cut the drama the instant it appears in my life'
p2560
aS'she my shawty'
p2561
aS'\xf0\x9f\x98\x8b'
p2562
aS'work has it moments were i wanna hurt everyone'
p2563
aS'sensitive stomach amp sensitive appetite'
p2564
aS'i wanna throw it uppppp so gross \xf0\x9f\x98\xb7'
p2565
aS'i stay away from drama'
p2566
aS'can it be december already'
p2567
aS'eww i found the fat in my burger ltltlt'
p2568
aS'i wanna be someones wcw'
p2569
aS'i might not broadcast my relationship status but just know that im not lonely \xf0\x9f\x98\x8a\xf0\x9f\x98\x8d'
p2570
aS'youre hella fake lol byee'
p2571
aS'un fucking believable the nerve man'
p2572
aS'if you send me selfies gt'
p2573
aS'ya tu sabe rt los amo me gusta las putas \xf0\x9f\x98\x81\xe2\x80\x9d\xe2\x80\x9d'
p2574
aS'this 2nd job did it in a week'
p2575
aS'i havent been this stressed since  a while'
p2576
aS'when you love someone amp they love you thats all that matters \xe2\x9d\xa4'
p2577
aS'whos up'
p2578
aS'just clocked out chea'
p2579
aS'mind over matter on everything'
p2580
aS'ratchettuesday'
p2581
aS'how to quit smoking'
p2582
aS'wecantdateif you dont buy me food'
p2583
aS'wecantdateif youre on youre more emotional than me'
p2584
aS'wecantdateif youre a mommas boy'
p2585
aS'wecantdateif you ever stop trying good relationships dont just happen they take time patience amp two people who truly \xe2\x80\xa6'
p2586
aS'buying myself flowers for my birthday sound stupid why cause i always used to give moms half my flowers id get and it continues\xf0\x9f\x8c\xbb\xf0\x9f\x8c\xb9'
p2587
aS'i luh ya fud'
p2588
aS'i should be asleep right now another 12 hr shift tomorrow  suckmydickwork'
p2589
aS'cant take you serious if youre a slut on twitter haha lolololol puahahaha'
p2590
aS'im alive as you'
p2591
aS'my all time fav song'
p2592
aS'\xe2\xad\x90\xe2\x98\x81\xf0\x9f\x8c\x9b\xf0\x9f\x8e\xa7'
p2593
aS'i hope its true between me amp you'
p2594
aS'you come walking round here acting like were something'
p2595
aS'ive gotta stay strong for the week tho '
p2596
aS'im not a weak nigga aye'
p2597
aS'gotta make moms funeral slideshow copies for her fam and im barely getting to them right now its bout to be a year'
p2598
aS'wecantdateif you dont like the lakers'
p2599
aS'alot of things'
p2600
aS'home girl needs some space'
p2601
aS'if i dont talk to anyone this week please dont take it personally'
p2602
aS'better days the goo goo dolls'
p2603
aS'everyone be happy for a muhhfukkin second'
p2604
aS'excited amp nervous'
p2605
aS'chilling country music that aint nashville gtgt'
p2606
aS'the future will be my focus'
p2607
aS'still your memory that punches me has broken the bone'
p2608
aS'so mistreated i repeated never blessing your sneeze'
p2609
aS'but really ioencare\xe2\x80\x9d'
p2610
aS'i need a back massage soooo bad \xf0\x9f\x98\x94'
p2611
aS'type of night'
p2612
aS'the moon light gtgt'
p2613
aS'the most painful thing is losing yourself in the process of loving someone too much and forgetting that you are special \xe2\x80\xa6'
p2614
aS'my stomach hurts \xf0\x9f\x98\x94'
p2615
aS'i dont beg  remember that'
p2616
aS'walkin home'
p2617
aS'out off all songs por que carajo this one  \xf0\x9f\x98\xaa'
p2618
aS'in the devilish world you my only angel'
p2619
aS'\xf0\x9f\x92\x94'
p2620
aS'something that puts me in a bad mood is knowing these girls remain with a guy that apparently misplaced his balls and beats on her \xf0\x9f\x98\xa4'
p2621
aS'dreaming about things going on in your real life ltltltgtgtgt'
p2622
aS'hot sauce on my burrito baabyy'
p2623
aS'change is good'
p2624
aS'bitter sweet'
p2625
aS'cuuteee'
p2626
aS'i tweet so much bout food followed me ha i\xe2\x9d\xa4\xf0\x9f\x8d\x94\xf0\x9f\x8d\x9f'
p2627
aS'\xf0\x9f\x98\x94\xf0\x9f\x98\xad\xf0\x9f\x98\xad\xf0\x9f\x98\xad'
p2628
aS'chill '
p2629
aS'fuuuu'
p2630
aS'missing company \xf0\x9f\x92\x94'
p2631
aS'youre the only one for me \xf0\x9f\x92\x95'
p2632
aS'back in the day music gtgtgt'
p2633
aS'oomf nigga say my muthfuckin name'
p2634
aS'the chair by george strait gtgtgt'
p2635
aS'you know me too well lmao'
p2636
aS'lmao only you angie please my nigga'
p2637
aS'well lakers dont need to play to be a good day  ha na but just breath n an out at work n dont swing on nobod\xe2\x80\xa6'
p2638
aS'thanks alot chagoo'
p2639
aS'lol yeah that ot killed me yo'
p2640
aS'well for starters lakers didnt play  lol but work was hectic im glad yours went alright '
p2641
aS'mine was a lil on the better side and thats not cool what happend you good'
p2642
aS'what movie should i watch on netflix you gaaiiisss'
p2643
aS'hey angie how was your day hey chaggo big hug my day was full of shit yours \xf0\x9f\x98\x8a'
p2644
aS'\xf0\x9f\x98\x91if the shoe fits'
p2645
aS'lies gtgt'
p2646
aS'liiiiiieesssss dont wanna know dont wanna know'
p2647
aS'youre a coward til the ennnnddd'
p2648
aS'its k i never been cool with hos but youre the exception\xe2\x80\x9d thank you\xe2\x80\x9d \xf0\x9f\x98\xae'
p2649
aS'well damn'
p2650
aS'its k i never been cool with hos but youre the exception'
p2651
aS'im at work lie'
p2652
aS'my coworkers are awesome when theyre off the clock'
p2653
aS'don omar has a sexy voice  specially when his songs go along with it'
p2654
aS'i miss school childleftbehind thanksobama'
p2655
aS'slow dancing gtgt'
p2656
aS'country music gtgtgtgt'
p2657
aS'the more i see the less i know the more id like to let it go'
p2658
aS'but then shell leave you with a smile \xf0\x9f\x98\x8f'
p2659
aS'at first shes gonna come on strong like shell love all night long'
p2660
aS'well you cant help but wonder why you cant help but love herrr'
p2661
aS'when in doubt do the robot \xf0\x9f\x99\x8a'
p2662
aS'fav dance move is the robot \xf0\x9f\x91\xbe\xf0\x9f\x8e\xb6'
p2663
aS'and with the timing right it could be paradise'
p2664
aS'this gay guy is so straight its weird'
p2665
aS'\xf0\x9f\x8e\xa7'
p2666
aS'\xf0\x9f\x8e\xa7'
p2667
aS'im gonna leave you in the guterrr like you left me \xe2\x98\x9d'
p2668
aS'you left me in gutta gutta \xf0\x9f\x92\x83\xf0\x9f\x92\x83'
p2669
aS'this time i had enough'
p2670
aS'i used to be a begger'
p2671
aS'no txts cause fat'
p2672
aS'so why dont we go somewhere only we know'
p2673
aS'if you have a minute why dont we go'
p2674
aS'im getting old amp i need something to rely on'
p2675
aS'is this the place we used to love'
p2676
aS'ehhhh'
p2677
aS'getting mommas amp my fav flowers'
p2678
aS'slowing my flow for real'
p2679
aS'my check better come through tomorrow \xf0\x9f\x98\x92'
p2680
aS'\xf0\x9f\x98\x94'
p2681
aS'im debating whether or not to visit my moms family on my vacation  i havent seen them since she passed'
p2682
aS'i dont know how to show my feelings'
p2683
aS'liar i sense that shit a mile away'
p2684
aS'and know for a fact  you wont ever get that love again'
p2685
aS'its hard to lose the only parent you had'
p2686
aS'once everything has fallen apart theres only one thing to do rebuild\xe2\x80\x9d'
p2687
aS'you know that i can use somebody'
p2688
aS'just wish i could go back to each and every happy moment'
p2689
aS'the worst feeling ever to me is'
p2690
aS'ah these kids and their low attention span'
p2691
aS'oomf  who'
p2692
aS'phoebee starts acting all cute when she notices my mood'
p2693
ag374
aS'last time i cried i was drunk'
p2694
aS'i have the best dog eva'
p2695
aS'i hate when girls think somethin is wrong with them when a guy cheats on them guys are just douches and cant keep it in t\xe2\x80\xa6'
p2696
aS'must stay away from twitter yall dont wanna know my pain'
p2697
aS'i often wish i could save everyone'
p2698
aS'through all the rain amp the pain you gotta keep a sense of humor'
p2699
aS'i got your back too i have before why would i stunn now'
p2700
aS'na it aint even like that'
p2701
aS'im glad im taking these long shifts keeping me busy amp what not'
p2702
aS'just taking it hard right now'
p2703
aS'imsad'
p2704
asS'2013_39'
p2705
(lp2706
S'can get it anytime'
p2707
aS'i dont ever be trippin off of what aint mine \xe2\x9c\x8c\xef\xb8\x8f'
p2708
aS'i love some mexican salsa'
p2709
aS'mmmm'
p2710
aS'what mamma likes to hear'
p2711
aS'so to all the pregnant bitches out there y\xe2\x80\x99all gon\xe2\x80\x99 make it'
p2712
aS'when we go through pains and trials in life i dont really have answer but i know its not meaningless it cant be'
p2713
aS'why thou hate'
p2714
aS'\xf0\x9f\x98\x95mep'
p2715
aS'why my grandma warned my parents bout bringing me into the city i was never gone like it'
p2716
aS'only some people get to call me by my childhood nickname  shits bout to change cause others swear they know me and try calling me by that'
p2717
aS'literally these attention whores were making a scene in front of guests    \xf0\x9f\x98\x92'
p2718
aS'not in the mood for idiotic ppl today'
p2719
aS'the mannings \xf0\x9f\x92\x9c\xf0\x9f\x8f\x88\xf0\x9f\x98\x8c'
p2720
aS'ask me how my boots came off last night idk \xf0\x9f\x98\xb3'
p2721
aS'i miss my family sundays'
p2722
aS'leo expectation are high fit the king or queen'
p2723
aS'i have to study amp do hw all i can think about is blank'
p2724
aS'the most painful goodbyes are the ones that are never said and never explained'
p2725
aS'working like a mexican eating like a mexican \xf0\x9f\x90\xaa'
p2726
aS'im not an alcoholic i swear'
p2727
aS'i am but im not sure when'
p2728
aS'of course we should go to the fair together or something'
p2729
aS'when are you leaving we need to hang out before you go \xf0\x9f\x98\xa5'
p2730
aS'ill be back in a couple years doll \xf0\x9f\x98\x9a'
p2731
aS'yes im moving up state ny \xf0\x9f\x99\x88'
p2732
aS'curiosity killed the cat'
p2733
aS'why are people racist and then i got to experience that reason for myself \xf0\x9f\x98\x95'
p2734
aS'its a good feeling knowing you have true friends feeling lucky'
p2735
aS'im easy to brush off worthless crap from my shoulders specially when i hold onto my values and confidence like bitch move'
p2736
aS'nough bout that'
p2737
aS'you mad cause you didnt know how to keep me happy '
p2738
aS'im sure millions of yall going through this but honestly yalls exes just mad they didnt know how to treat yall '
p2739
aS'i only respect you if you deserve it if i dont think you deserve my respect you dont fucking get it'
p2740
aS'this week kicked my butt'
p2741
aS'ny is gonna be a huge change scary but at the same time exciting'
p2742
aS'since i wont be living in texas any longer im getting it tatted \xe2\x98\xba\xef\xb8\x8f\xf0\x9f\x98\x81 and im making my man get it too  this is our home'
p2743
aS'the tougher the lesson the bigger the blessing'
p2744
aS'still havent had a thang'
p2745
aS'i let these hoes get the best of me neveragain'
p2746
aS'so hungry'
p2747
aS'yes lol you havent seen it'
p2748
aS'your girls before penis'
p2749
aS'and here i am regretting it all'
p2750
aS'they dont get the picture i lost the most important person in my life bc of one of those apologies i wanted to skip on '
p2751
aS'or that im trying to prove a point'
p2752
aS'people think its immature of me to make amends with people whove fucked me over '
p2753
aS'mourning and cant change a thang'
p2754
aS'lol right there by your job'
p2755
aS'you wanna take it day by day but lifes always gonna come swingin at you like a bitch'
p2756
aS'im hungry'
p2757
aS'im off sunday'
p2758
aS'whataburger gt cafeteria food youalreadyknow'
p2759
aS'just a small town furby'
p2760
aS'im not an asshole i just dont give a fuck a lot'
p2761
aS'sorry to those of you who had to witness those sappy love tweets'
p2762
aS'to my fellow twatcher \xe2\x9c\x8c\xef\xb8\x8f\xf0\x9f\x98\x9c'
p2763
aS'all these responsibilities have me thinking a day ahead so all day ive been thinking its wednesday \xf0\x9f\x98\x9e'
p2764
aS'i say  and i go try acupuncture \xf0\x9f\x98\x81'
p2765
aS'any of yall tried acupuncture '
p2766
aS'cant wait to go to the ranch w'
p2767
aS'i need a cold glass of sweet tea'
p2768
aS'i wanna go on a cute date to the fair'
p2769
aS'i dreamed i was carrying a brown baby last night \xf0\x9f\x98\xb3\xf0\x9f\x98\xa8'
p2770
aS'i have a cool new fam '
p2771
aS'aww really i heard she got sad phoebee is just spoiled happy to be home'
p2772
aS'aw man all i did was cuddle with phoebee'
p2773
aS'good morning love \xf0\x9f\x92\x9e'
p2774
aS'good mortin '
p2775
aS'well whenever youre ready ill be here to cheer you on all the way you have an amazing talent \xf0\x9f\x98\x8a'
p2776
aS'it really should of '
p2777
aS'it shouldve been you up there '
p2778
aS'people fucking suck annoyed'
p2779
aS'so many things on my mind'
p2780
aS'ups amp downs with you but nothing can come in between us \xf0\x9f\x98\x84'
p2781
aS'coworkers talkin bout why you getting tattoos what bout after you have kids take it how you want it but best believe im staying fit'
p2782
aS'today sucked'
p2783
aS'\xf0\x9f\x91\x91\xf0\x9f\x98\x8f\xf0\x9f\x98\x86yasss'
p2784
aS'im not mean in general but once you pass the line theres no more sweetness'
p2785
aS'me either i didnt even turnup with yall but still had so much fun '
p2786
aS'its been a loooonnnnnnggggg day i need one of them massages'
p2787
aS'miss you too \xf0\x9f\x98\xad\xf0\x9f\x98\xadso muchhhhh '
p2788
aS'yoooo imy already '
p2789
aS'if you dont put in the effort to stay in my life what the hell makes you think im not gonna do the same'
p2790
aS'i dont think my family and i will ever have another meal together til moms 2n year anniversary to be honest '
p2791
aS'females mcm be professional looking dudes in suits and their baby fathers be dusty no job niggas lol way to settle fo\xe2\x80\xa6'
p2792
aS'me too boo hoo '
p2793
aS'im exhausted from all this studying i havent done'
p2794
aS'being low key is best at times'
p2795
aS'i know a guy at a shop lol'
p2796
aS'mcm \xe2\x9d\xa4\xef\xb8\x8f\xe2\x9c\x8c\xef\xb8\x8f\xf0\x9f\x98\x81 i like the fact that we both agree that obama is the worst \xe2\x9c\x8c\xef\xb8\x8f and we like guns \xf0\x9f\x94\xab'
p2797
aS'omg i have to go checkout s new album \xf0\x9f\x98\x81\xf0\x9f\x98\x81\xf0\x9f\x98\x81'
p2798
aS'most girls just wanna go shopping and spend your money nahh hoe go help me cut grass and clean my fish'
p2799
aS'he may be in afghan but its like if he were still here bugging me bout senseless thangs except he cant hug or hold my hand through it'
p2800
aS'shes a fighter when shes mad and shes a lover when shes lovin\xf0\x9f\x8e\xb6\xe2\x9d\xa4\xef\xb8\x8f'
p2801
aS'these hoes dont phase me'
p2802
aS'fb gorg \xf0\x9f\x98\x98'
p2803
aS'i just got my 3rd one like a week ago amp i wanna get texas yeeyee \xf0\x9f\x98\x81\xf0\x9f\x98\x81\xf0\x9f\x98\x81'
p2804
aS'this ink is addicting  '
p2805
aS'cool beans '
p2806
aS'i have ugly ass eyes \xf0\x9f\x91\x80\xf0\x9f\x92\xa5'
p2807
aS'welp you need to invite me i could really use one of those days'
p2808
aS'what do you do at the ranch'
p2809
aS'no invite '
p2810
aS'just a creepin'
p2811
aS'mine would be you'
p2812
aS'you can only take being the only person you can go to for yourself for so long'
p2813
aS'it dont come as easy but i keep myself motivated and focused'
p2814
aS'i used to have scumbag friends that would steal from me thankfully they arent in my life anymore'
p2815
aS'i just love how my friends help me carry on this await for my soldiers homecoming i love it i wanna hug them all'
p2816
aS'go talk to felicia'
p2817
aS'never let anyone define who you are'
p2818
aS'\xf0\x9f\x92\xaa\xf0\x9f\x98\x8f'
p2819
asS'2013_38'
p2820
(lp2821
g374
aS'well im gonna miss her'
p2822
aS'well i love her but i love to fish \xf0\x9f\x90\x9f'
p2823
aS'if a leo swallows their pride for you they love you'
p2824
aS'kiss me in the dark\xf0\x9f\x8e\xb6'
p2825
aS'country kinda day'
p2826
aS'werkkkkk\xf0\x9f\x92\xb0\xf0\x9f\x92\xb0\xf0\x9f\x92\xb0'
p2827
aS'itll get better'
p2828
aS'rocky wants to play me not so much'
p2829
aS'fall weather gt'
p2830
aS'baseball players are the most attractive athletes \xf0\x9f\x98\x8d\xe2\x9a\xbe'
p2831
aS'gonna get down tonight for my man its like my second birthday \xf0\x9f\x98\x8a'
p2832
aS'so i was raised on tough love and when i wanna show love to my brothers this is what i get \xf0\x9f\x98\x92\xf0\x9f\x92\x94'
p2833
aS'someone unfollowed me and i will get to the bottom of this \xe2\x98\x9d\xef\xb8\x8f'
p2834
aS'if only i still worked at the hotel i missed you by just a tiny winny bit '
p2835
aS'and all i ever wanted was to see another sunrise with you'
p2836
aS'list of things i must do tomorrow  none of them have to do w money \xf0\x9f\x98\xa9'
p2837
aS'why stress over something you cant change'
p2838
aS'no invite '
p2839
aS'i want you in my life if i didnt i wouldnt put up with your ass'
p2840
aS'when it rains i dont pretend to be happy i dont even have to try'
p2841
aS'when it rains  i dont mind being lonely i cry right along with the sky'
p2842
aS'this week has been so physically and mentally exhausting i need a drink'
p2843
aS'oh yess simply the best i guess were more excited that this will bring weather change \xf0\x9f\x98\x81'
p2844
aS'lol i like it when its cold and rainy'
p2845
aS'all these social networks just fuck up all these relationships  well maybe its the other way around'
p2846
aS'i swear next time ill hang on for dear life if love ever gives me another try'
p2847
aS'if he doesnt tweet about you at least once a week chances are youre just a side bitch'
p2848
aS'if things dont feel right with someone its probably because theyre not'
p2849
aS'boy you got issues'
p2850
aS'reminds me a lot about my boo on his last days here'
p2851
aS'this lovely rain gtgt'
p2852
aS'lol hope you didnt omg i never want it to stop raining ever'
p2853
aS'i love running in the rain omg'
p2854
aS'\xf0\x9f\x98\x82\xf0\x9f\x98\x82omg im stuck inside i have to run in it while it lasts '
p2855
aS'is that whats it called \xf0\x9f\x98\x82 its been so long since ive seen it haha but yeahhhhh'
p2856
aS'is it raining already \xf0\x9f\x99\x88'
p2857
aS'everyone deserves a second chance \xf0\x9f\x92\x95'
p2858
aS'i hope it starts raining already i stopped studying to go for a run'
p2859
aS'when people ask me if i dip i respond yes literally everything in ranch dressing'
p2860
aS'if you still talk about it you still care'
p2861
aS'im done busting my ass for some ungrateful ass people'
p2862
aS'i wish i had my car i woulda been driving it around w my pistol in it amp what not \xf0\x9f\x98\x92make these tards eff off\xf0\x9f\x94\xab'
p2863
aS'very well said '
p2864
aS'i cleaned my room now im tired and i still gotta hit the books for this math exam thanks obama'
p2865
aS'4th of july wedding cant get more patriotic than that \xf0\x9f\x87\xba\xf0\x9f\x87\xb8\xf0\x9f\x91\xb0\xf0\x9f\x92\x8d'
p2866
aS'we are where were meant to be'
p2867
aS'trust it so much that theres no one else but us'
p2868
aS'tell sanchito that if he knows what is good for him he best go run an hide cause daddys got a new 45'
p2869
aS'he just dont know how much shit is coming his way'
p2870
aS'that shit is gonna hit him hard\xe2\x80\x9d'
p2871
aS'ahhh i cant wait for the cold weather hoodies scarfs boots hot cocoa cold nights amp cuddling i love it \xe2\x98\xba\xef\xb8\x8f\xf0\x9f\x8d\x82\xf0\x9f\x8d\x81\xe2\x9d\x84\xef\xb8\x8f\xe2\x98\x81\xef\xb8\x8f'
p2872
aS'stay mad cause i have someone to take good care of me \xf0\x9f\x91\x8c'
p2873
aS'it sucks really does '
p2874
aS'me too '
p2875
aS'keep calm and suck dis diccccccccckkkkkkk'
p2876
aS'its a new day \xe2\x9b\x85 im breathing \xf0\x9f\x98\x8c im blessed \xf0\x9f\x99\x8c god is good \xf0\x9f\x99\x8f'
p2877
aS'i want it to rain today'
p2878
aS'your bitch aint bad stop it \xe2\x9c\x8b\xf0\x9f\x98\x82\xe2\x80\x9d\xf0\x9f\x98\x82\xf0\x9f\x98\x82\xf0\x9f\x91\x8f\xf0\x9f\x91\x8f'
p2879
aS'a strong relationship is a treasure to have somebody through thick and thin up and down good and bad'
p2880
aS'hate being made to feel like shit'
p2881
aS'everythings going to get better i promise'
p2882
aS'these massive headaches ive been having lately ltlt'
p2883
aS'i came in like a wrecking ballobama\xe2\x80\x9d thanksobama'
p2884
aS'rt if u wish a nigga would'
p2885
aS'\xf0\x9f\x98\x82lmao'
p2886
aS'a leo does not like being shared correction a leo does not share'
p2887
aS'\xf0\x9f\x98\x8f\xf0\x9f\x91\x8c\xf0\x9f\x91\x8f\xf0\x9f\x91\x8f\xe2\x98\xba'
p2888
aS'its not about winning but i cant take loosing anymore'
p2889
aS'all i know is pain'
p2890
aS'love it when people get butthurt im tired of being mister nice guy instead ill be mister keep it real'
p2891
aS'aint no sunshinewhen shes gone'
p2892
aS'theres nothing but heartbreak left for me here'
p2893
aS'today is the second worst day of my life'
p2894
aS'aint nobody want you lol'
p2895
aS'its all gone youre over dramatic lol'
p2896
aS'pandora i luv u rn'
p2897
aS'waitin for the love of a travelin soldier \xf0\x9f\x8e\xb6\xf0\x9f\x91\x8c'
p2898
aS'forgive  sounds good forget  not sure i could\xe2\x80\x9d'
p2899
aS'god help me keep movin somehow \xf0\x9f\x8e\xa7\xf0\x9f\x8e\xb6\xf0\x9f\x8e\xb6'
p2900
aS'im about to lose my mind youve been gone for so long im running out of time'
p2901
aS'forgive  sounds good forget  not sure i could'
p2902
aS'god is bigger than all these problems faith'
p2903
aS'words to live by'
p2904
aS'i dont ask for much just respect amp honesty'
p2905
aS'i am an early bird and i will get the worm'
p2906
aS'im not jesus but if i have a bag of bagels on me rest assured i will share \xf0\x9f\x91\x8c'
p2907
aS'i miss you and you dont even know it'
p2908
aS'virtual hug \xe2\x9c\xa8\xe2\x9c\xa8\xe2\x9c\xa8\xf0\x9f\x92\x97\xf0\x9f\x92\x95 '
p2909
aS'i keep my feelings bottled up cause you never know'
p2910
aS'what should i wear tomorrow'
p2911
aS'fuck the bs \xe2\x9c\x8c\xf0\x9f\x98\x8c'
p2912
aS'\xf0\x9f\x92\x94i just wanna hug you lol'
p2913
aS'\xf0\x9f\x98\x94'
p2914
aS'some people will never change i need to learn to move on amp leave everything in the past\xe2\x80\x9d'
p2915
aS'considering the economy id rather waste these precious bullets on a couple bucks for hunting season yeap sounds delish'
p2916
aS'because if im not being friendly im usually trigger happy'
p2917
aS'i hate being so nice to people'
p2918
aS'its just a lesson learned'
p2919
aS'i have to look past what was and realize what it is'
p2920
aS'im blessed to have someone thats willing to help me fix myself for the better '
p2921
aS'thats probably something ill always regret til the day i die '
p2922
aS'it hurts to think about these past 3 years how everything was all based on lies and how the main person i wanna apologize to aint here'
p2923
aS'you broke a promise and made me realize it was all just a lie'
p2924
aS'i turned in a piece of shit paper \xf0\x9f\x98\xb7i am ashamed '
p2925
aS'cough cough im sick \xf0\x9f\x99\x8a sick of these punk ass basic bitches \xf0\x9f\x98\x86'
p2926
aS'a freezing shower rn gtgtgt yasss'
p2927
aS'so far so good \xf0\x9f\x98\x8f\xf0\x9f\x92\x9e'
p2928
aS'yall working out to look good on vaca im working out to reward my mans return from deployment wassa \xf0\x9f\x91\x8c\xf0\x9f\x91\x8f'
p2929
aS'sometimes shit doesnt go as planned but thats life youll be alright'
p2930
aS'do i ever cross your mind i miss you'
p2931
aS'some thoughts just cant be put into words'
p2932
aS'but thats hood rats for you what can i say \xf0\x9f\x98\xb7'
p2933
aS'today was so schressful'
p2934
aS'tbh i feel like no one can compare to you'
p2935
aS'i sometimes forget how young i am and how i have the rest of my life to do everything'
p2936
aS'shell say hello and walk on by yet shell leave you with a smile \xf0\x9f\x98\x8f'
p2937
aS'i love these positive feedback on my tl \xf0\x9f\x91\x8fyass'
p2938
aS'every time i thought i was being rejected from something good i was actually being redirected to something better'
p2939
aS'never give up when things get hard'
p2940
aS'you killed me but he brought me back to life \xf0\x9f\x92\x9e'
p2941
aS'but maybe im wrong because the only thing i seem to see when i look out my window is the perfect height to f a \xe2\x80\xa6'
p2942
aS'you hit a woman'
p2943
aS'let it be love'
p2944
aS'give me love just because my skins the color of mud'
p2945
aS'np easton corbin  all over the road'
p2946
aS'haters are our motivators lakernation'
p2947
aS'love you '
p2948
aS'i love you for saving me from myself \xf0\x9f\x92\x8d'
p2949
aS'fuck any nigga thats talking that shit just to get a reaction'
p2950
aS'fuck any nigga thats talking that shit just to get a reaction\xe2\x80\x9d \xf0\x9f\x91\x8f\xf0\x9f\x98\x8ayeeyee'
p2951
aS'i miss you all of you'
p2952
aS'this is like a flashback this is like a dream \xf0\x9f\x99\x88\xf0\x9f\x99\x8a\xe2\x9a\xa1\xe2\x98\x81\xf0\x9f\x8e\xb6'
p2953
aS'pos hook it up lmao'
p2954
aS'you can have everything in the world but it means nothing if you have no one to share it with'
p2955
aS'hoes be like  hoes be like but they be the hoes that be like'
p2956
aS'i cant deal mileycyrus billyray'
p2957
aS'incredible photo a red white and blue sunset on the summit of mt washington tonight 911buff'
p2958
aS'those deep talks w the girls  theyre a blessing'
p2959
aS'estan acceptando gente que quiere dineros'
p2960
aS'no doll i should be up north by then'
p2961
aS'when i get complimented on my personality gtgtgt \xf0\x9f\x98\x98\xf0\x9f\x98\x8a'
p2962
aS'i love em all '
p2963
aS'these rednecks on my tl gtgtgt'
p2964
aS'a smile is a sign of joy a hug is a sign of love a laugh is a sign of happiness and a friend like me its a sign of good \xe2\x80\xa6'
p2965
aS'god i hate the city\xe2\x80\x9d'
p2966
aS'theirs some mothafukers that come to counseling because they wanna come out the closet and shit ha'
p2967
aS'dads be like'
p2968
aS'true shit'
p2969
aS'when your friends dont invite you to go out'
p2970
aS'android users be like \xf0\x9f\x98\x82\xf0\x9f\x98\x82'
p2971
aS'to all you hoes wanting a ring \xf0\x9f\x8e\xa3\xf0\x9f\x91\xb4 \xf0\x9f\x92\x8d \xf0\x9f\x99\x8b ooooo you gotta be quicker than that'
p2972
aS'wake the fuck up and get your hustle on'
p2973
aS'twitter'
p2974
aS'bang bang'
p2975
aS'bipolar ah b at taco cabana tho kinda like a crack head'
p2976
aS'yo quiero werkkk'
p2977
aS'gta 5 i already got plenty of guns trucks and ammo'
p2978
aS'i was just called ghetto country lol'
p2979
aS'aww well okay girl i finally came back but to nlc n some days at mvc'
p2980
aS'i love your love the most \xf0\x9f\x98\x9a'
p2981
aS'do you still come to mvc'
p2982
aS'after these years passing i always end up still thinking of you when i know i shouldnt be \xf0\x9f\x98\x92'
p2983
aS'i support our troops not only because its the right thing to do but because its the american thing to do \xf0\x9f\x87\xba\xf0\x9f\x87\xb8\xe2\x80\x9d'
p2984
aS'i want him back already \xf0\x9f\x98\x94hes gonna hate me for posting this'
p2985
aS'miss you'
p2986
aS'did you see the difference i didnt'
p2987
aS'yes  ill play it again for you baby'
p2988
aS'god give me peace'
p2989
aS'youre always goofing love it \xf0\x9f\x91\x8f\xf0\x9f\x98\x82\xf0\x9f\x91\x8c'
p2990
aS'mine would be you \xf0\x9f\x92\x99\xe2\x9d\xa4\xf0\x9f\x92\x99\xe2\x9d\xa4'
p2991
aS'lifes too short dont chase success chase happiness ripnavyyardvictims \xf0\x9f\x99\x8f \xe2\x9a\x93'
p2992
aS'me at mvc ltlt'
p2993
aS'leos are extremely understanding and respect honesty'
p2994
aS'yes time for this fall weather \xf0\x9f\x8d\x82\xf0\x9f\x8d\x83\xf0\x9f\x8d\x81'
p2995
aS'hmm well idk im still trying to see but i wanna make it happen  '
p2996
aS'repost staymad im only getting better \xf0\x9f\x98\x98'
p2997
aS'\xf0\x9f\x98\x98\xf0\x9f\x98\x98'
p2998
aS'i cry i wanna come over tonight \xf0\x9f\x98\x94'
p2999
aS'to do today 1 fuck 2 this 3 shit'
p3000
aS'im always active on twitter'
p3001
aS'knowing these refills will cost me extraltltlt the struggle is real'
p3002
aS'im not sure if i have a headache cause of people or problems idk'
p3003
aS'will you text me tho'
p3004
aS'why are iphone chargers not called apple juice am i right'
p3005
aS'i have so much homework this weekend \xf0\x9f\x98\xa9'
p3006
aS'that awkward moment when miley cyrus'
p3007
aS'i wonder if'
p3008
aS'i am so sleepy i need a nap \xf0\x9f\x98\xb4'
p3009
aS'feelin my thug side'
p3010
aS'i sprint out my classes though'
p3011
aS'schoolflow yeeyee'
p3012
aS'its so important to make someone happy start with yourself\xe2\x80\x9d'
p3013
aS'breaking news at least 10 people now reported shot at the navy yard nbc 911buff'
p3014
aS'aint no reason runnin after somethin already gone'
p3015
aS'\xf0\x9f\x98\x82'
p3016
aS'its a standardized rule now that before you shotgun a beer you yell yee yee'
p3017
aS'cant wait for the fair \xf0\x9f\x92\x95 \xf0\x9f\x8e\xa1'
p3018
aS'god is good to us lets be good to others just as he is good to us mathew 712 the golden rule'
p3019
aS'got these straight as tho'
p3020
aS'capture me with grace \xf0\x9f\x99\x8f'
p3021
aS'in such a jolly mood \xf0\x9f\x98\x8a\xf0\x9f\x92\x95\xf0\x9f\x99\x88'
p3022
aS'i want it to rain to bad already'
p3023
aS'rise and grind yall make monday your bitch and show that slut whos boss manhandlemonday'
p3024
aS'early bird gets the worm'
p3025
aS'what is sleep'
p3026
aS'im up and ready to get it \xf0\x9f\x98\x81\xf0\x9f\x92\xb5'
p3027
aS'a simple text really can turn someones day around'
p3028
aS'old school country music is the best kind 80sand90s'
p3029
aS'selfishness is very unattractive'
p3030
aS'pray to god i marry a man that can put up with my hard headed self'
p3031
as.