(dp0
S'2013_42'
p1
(lp2
S'once a opp  you a opp '
p3
asS'2013_43'
p4
(lp5
S'does rednose shake frfr lhhh'
p6
aS'i miss woodia lt3'
p7
aS'i heard miranda got beat yestetday on here bday too '
p8
aS'i been rockin w tez for 5 months now '
p9
aS'just woke up '
p10
aS'goodmorning tl lt3  '
p11
aS'if i cant make you dance i bet that oozee can  '
p12
aS'goodnight fuckers   '
p13
aS'just got in from apple bees luhchris and lilreec ass invited they self amp sht but i had fun tho'
p14
aS'finns lay up with my laa bae  '
p15
aS'in florisant '
p16
aS'dont be a stranger girl its only me lt3'
p17
aS'what love know bout you lt3'
p18
aS'way too young to be living like this  '
p19
aS'i love you babes lt3'
p20
aS' hi wife you good cool goodnight honey \xe2\x99\xa5'
p21
aS'what should i do '
p22
aS'got me up all night  lt3'
p23
aS'whats your number '
p24
asS'2013_46'
p25
(lp26
S'me too  im walkin out now '
p27
aS'does our bus drover clme to get us'
p28
aS'goodmorning freederrick amp freedwest  i miss yall niggas '
p29
aS'hey tl freeeeeee derrick cripkkk ass \xe2\x99\xa1'
p30
aS'i hate throwin up '
p31
aS'new avi \xe2\x99\xa1 keep or delete '
p32
aS'playing grand theft auto 5 wby'
p33
aS'wsp '
p34
aS'nfb'
p35
aS'yeaaa man'
p36
aS'lmao owwwww smh yu 2 fine fa da bs yu mean ta tell me the studz was tripn 2'
p37
aS'both lol'
p38
aS'quote this as your best booty pic \xe2\x99\xa1'
p39
aS'females dtm on bloods'
p40
aS'because females are sneaky jealous and do too much'
p41
aS'rt for a follow must follow back tho teamlesbian\xf0\x9f\x91\xad teamfemme\xf0\x9f\x91\x94 teamstud\xf0\x9f\x91\x97 teamstem\xf0\x9f\x91\x9a teambisexual\xf0\x9f\x91\xad teamnolabel\xf0\x9f\x92\x8b'
p42
aS'my only crush is my first love'
p43
aS'i used to have a crush on all females brah but thats all gone'
p44
aS'i used to crush on kella but thats gone'
p45
aS'im always thinking bout food '
p46
aS'im ducked off for right now  \xe2\x99\xa1 '
p47
aS'gas pedal \xe2\x99\xa1'
p48
aS'goodmorning tl \xe2\x99\xa1'
p49
aS'nfb \xe2\x99\xa1'
p50
aS'blahhh gn \xe2\x99\xa1'
p51
aS'wcw \xe2\x99\xa1'
p52
aS'retweet this follow me amp everyone else that retweets this for 50 followers fast teamfollowback follow2befollowed \xe2\x80\xa6'
p53
aS'amp if insmoke this blunt girl im gone forget you'
p54
aS'cause imma cut chu off quicka then i met chu '
p55
aS'ill act like a friend but i wont fwy hard'
p56
aS'idgaf how you put it'
p57
aS'aint nobody loyal'
p58
aS'tez a fag '
p59
aS'wish a nigga would try to screw me ovaaaa '
p60
aS'wcw \xe2\x99\xa1'
p61
aS'when you grown up youll understamd  \xe2\x99\xa1'
p62
aS'chase im too lazy for that rft  lmaooo'
p63
aS'thanks \xe2\x98\x86'
p64
aS'im not thick i just got a booty \xe2\x99\xa1'
p65
aS'im not thick i just got a booty \xe2\x99\xa1'
p66
aS'gay girls ft teamlesbian \xf0\x9f\x91\xad teamstud teamlgtb teamstem teambisexual\xf0\x9f\x91\xad teamnolabel rt\xe2\x97\x80 fav\xe2\x97\x80 then follow each other 2ga\xe2\x80\xa6'
p67
aS'thot city  southside\xe2\x82\xa9estside city '
p68
aS'twitter  facebook is not porn  if i wanna look at porn ill go on they websites  stop postin that stuff or im unfriendinfollowing you'
p69
aS'im cold '
p70
aS'i \xe2\x99\xa1 it when you talk that talk to me boy '
p71
aS'updated my ipod \xe2\x99\xa1'
p72
aS'gucci belt'
p73
aS'im lesbian'
p74
aS'im gay dont judge me \xe2\x99\xa1 teambisexual teamlesbian teamnolabel'
p75
aS'rip to tez hg  \xe2\x99\xa1'
p76
aS'wack a opp watch his body hit the flo  blew his brains out  i saw everything he know '
p77
aS'my situation is crazy right now lbs'
p78
aS'tez is a chicken killer  lhhh'
p79
aS'tez think he got that whip  no boaaay'
p80
aS'i be in my own world'
p81
aS'i dont mess with nobody nomore onna any level man \xe2\x99\xa1 just me and my fl \xe2\x99\xa1'
p82
aS'ughhh  i wanna play the sims '
p83
aS'cuddling with your favorite teddy bear \xe2\x99\xa1 gtgt'
p84
aS'whos on twitter right now'
p85
aS'grand theft auto v \xe2\x99\xa1'
p86
aS'goodnight im sleepy af '
p87
aS'lhhhhhh wait ion give a fuck'
p88
aS'goodnight mentions retweet \xe2\x99\xa1'
p89
aS'bitch is you off the molly '
p90
aS'high as shit bickin back bein bool squad'
p91
aS'omgggggg '
p92
aS'females funny asl acting tuff and shit'
p93
aS'watching twerk videos \xe2\x99\xa1\xe2\x98\x86'
p94
aS'montez always tryna be right  pause  females are always right '
p95
aS'turnup'
p96
aS'montez is mad at me '
p97
aS'im bipolar i knw that  i be flippin out on tez for no reason  orry '
p98
aS'fb'
p99
aS'haters gone hate  how you think they got they name '
p100
aS'rt if you teamlesbian teamstud teamfemme teamstem girlongirl teambisexual rt amp gain'
p101
aS'td in yo mouth'
p102
aS'bitch  you seen me on chambers didnt do shit  '
p103
aS'tinker bell movies gtgtgtgtgtgt yes im a fan '
p104
aS'bitches will upload a twerk video sweating half their weave out talking bout just playing around \xe2\x9c\x8b\xf0\x9f\x98\xa9\xf0\x9f\x98\x82'
p105
aS'shut up montez for i slap you '
p106
aS'never discuss cheese with a rat \xf0\x9f\x8d\x95\xf0\x9f\x90\xad talk bread with a bird \xf0\x9f\x8d\x9e\xf0\x9f\x90\xa5 or make moves with a snake \xf0\x9f\x92\xb8\xf0\x9f\x92\xb3\xf0\x9f\x90\x8d rft \xe2\x99\xa1'
p107
aS'ima leave you where you stand hoe \xe2\x9c\x8b\xe2\x9c\x8c\xef\xb8\x8f'
p108
aS'omg  so me and tez missed school  nw tinker bell '
p109
aS'lmaoo imm weaaaaaak \xe2\x98\x86'
p110
aS'uniquelesbians \xf0\x9f\x92\x9c\xf0\x9f\x92\x99\xf0\x9f\x92\x9b\xf0\x9f\x92\x9a\xe2\x9d\xa4\xef\xb8\x8f uniquelesbians \xf0\x9f\x92\x9c\xf0\x9f\x92\x99\xf0\x9f\x92\x9b\xf0\x9f\x92\x9a\xe2\x9d\xa4\xef\xb8\x8f uniquelesbians \xf0\x9f\x92\x9c\xf0\x9f\x92\x99\xf0\x9f\x92\x9b\xf0\x9f\x92\x9a\xe2\x9d\xa4\xef\xb8\x8f uniquelesbians \xf0\x9f\x92\x9c\xf0\x9f\x92\x99\xf0\x9f\x92\x9b\xf0\x9f\x92\x9a\xe2\x9d\xa4\xef\xb8\x8f'
p111
aS'good morning tl \xe2\x99\xa1'
p112
aS'ion need a 111213  i got my 1026 \xe2\x99\xa5'
p113
aS'this love stuff  aint for me  lt3'
p114
aS'im good on alotta mfs \xee\x90\xa0'
p115
aS'\xf0\x9f\x93\xa2attention\xf0\x9f\x93\xa2 have a seat on\xf0\x9f\x92\xba tylerstarfollowtrain gain 200\xe2\x9e\x95followers\xf0\x9f\x91\xab follow rt this amp follow everyone\xe2\x99\xbb\xef\xb8\x8f g\xe2\x80\xa6'
p116
aS'i wanna cry '
p117
aS'whos up \xe2\x98\x86 \xc2\xbf'
p118
aS'this boy erks man i swear  but i love him '
p119
aS'you gone '
p120
aS'to where'
p121
aS'but he dumb af '
p122
aS'i \xe2\x99\xa1 my striphead '
p123
aS'niggas fufu'
p124
aS'if the pussy ont come with the head i ont want it '
p125
aS'you shakin ass but that shit it dont amaze me \xe2\x99\xa1'
p126
aS'yall like my hairamen'
p127
aS'dont forget about late nights playing ina dark and waking up inside my arms baby youll always be in my heart'
p128
aS'miracle me too smh'
p129
aS'im a lonely mf lhhh'
p130
aS'lrt bae is beautiful \xe2\x99\xa5'
p131
aS'every body a rapper now '
p132
aS'montez just got his hair cut  \xe2\x99\xa1'
p133
aS'no i dont '
p134
aS'you a cutie girl'
p135
aS'bitches be like \xf0\x9f\x98\x92you need to get over that \xf0\x9f\x98\xb3bitch do you know how much trust\xf0\x9f\x94\x92 tears\xf0\x9f\x98\xaa love\xf0\x9f\x92\x95loyalty\xf0\x9f\x94\x90amp time i put into this shit'
p136
aS'lmao  '
p137
aS'follow back nfb \xe2\x99\xa1'
p138
aS'lmao'
p139
aS'omg this trick ask too many questions'
p140
aS'twifey wanted \xe2\x99\xa1'
p141
aS'no'
p142
aS'you dont want to or some '
p143
aS'momma'
p144
aS'i love women \xe2\x99\xa1 cant help it'
p145
aS'springfield '
p146
aS'nf'
p147
aS'fb \xe2\x99\xa1'
p148
aS'nf  follow back \xe2\x99\xa1'
p149
aS'nf fb  znf \xe2\x99\xa1'
p150
aS'im moving '
p151
aS'my firstlove gone be hurt lt3'
p152
aS'thinking long and hard '
p153
aS'i miss you too hood  wydoig '
p154
aS'i miss you blood '
p155
aS'its official  im moving friday'
p156
aS'follow back \xe2\x98\xbanf \xe2\x99\xa1'
p157
aS'queen  lt3 hey bbygirl \xe2\x99\xa1'
p158
aS'gucci bandana '
p159
aS'gay girls follow train \xf0\x9f\x91\xad\xe2\x9d\xa4\xef\xb8\x8f\xf0\x9f\x92\x9c\xf0\x9f\x92\x99\xf0\x9f\x92\x9a\xf0\x9f\x92\x9b\xf0\x9f\x91\xad teamlesbian\xf0\x9f\x91\xad teambisexual\xf0\x9f\x91\xab\xf0\x9f\x91\xad teamstem\xf0\x9f\x91\x94\xf0\x9f\x91\x97 teamfemme\xf0\x9f\x91\xa0\xf0\x9f\x92\x85 \xe2\x9d\xa4 \xe2\x99\xbbretweet\xe2\x99\xbb follow me amp ever\xe2\x80\xa6'
p160
aS'nf \xe2\x99\xa1\xe2\x99\xa1'
p161
aS'mhmmmm '
p162
aS'fb \xe2\x98\x86'
p163
aS'we already folloing echother big dummy \xe2\x99\xa1'
p164
aS'rt for a follow \xf0\x9f\x91\xad\xe2\x9d\xa4\xef\xb8\x8f\xf0\x9f\x92\x9c\xf0\x9f\x92\x99\xf0\x9f\x92\x9a\xf0\x9f\x92\x9b\xf0\x9f\x91\xad teamlesbian\xf0\x9f\x91\xad teambisexual\xf0\x9f\x91\xab\xf0\x9f\x91\xad teamstem\xf0\x9f\x91\x94\xf0\x9f\x91\x97 teamfemme\xf0\x9f\x91\xa0\xf0\x9f\x92\x85 \xe2\x9d\xa4 teamstud\xf0\x9f\x91\x95\xf0\x9f\x91\x96'
p165
aS'follow back \xe2\x96\xa1'
p166
aS'follow back \xe2\x98\x86'
p167
aS'fuck wyall when i get off'
p168
aS'i miss my bf '
p169
aS'stlouis is a sad case '
p170
aS'somebody firstlove missing  omg if i hear anything i will let him know'
p171
aS'pretty face  she thick amp sht \xe2\x99\xa1'
p172
aS'retweet this follow me amp everyone else that retweets this for 20 followers fast follow2befollowed f4f drunkenpoetfoll\xe2\x80\xa6'
p173
aS'this my fl she is missing last seen by beaumont high any information somebody please let me know repost'
p174
aS'nobody can stop my shine \xe2\x99\xa1'
p175
aS'lesbofollowtrain\xf0\x9f\x92\x8b retweetthis follow2befollowed teamlesbian \xf0\x9f\x91\xad teambisexual\xf0\x9f\x91\xab\xf0\x9f\x91\xad teamstud\xf0\x9f\x92\xaa teamstem\xf0\x9f\x91\x94\xf0\x9f\x91\xa0 teamfemme\xf0\x9f\x92\x84\xe2\x80\xa6'
p176
aS'i dont fw oomf anymore '
p177
aS'i dont fuck w  oomf anymore'
p178
aS'i notice everything i just dont say nothing sometimes  just to see yo next move '
p179
aS'all that touch sht nigga kill it  iont really feel it '
p180
aS'finna hit the shower bbl \xe2\x99\xa1'
p181
aS'fuck writing im freestyling errthing'
p182
aS'9os baby follow train \xe2\x99\xa1 retweeet if you a 9os baby '
p183
aS'90sbabyfollowtrain\xf0\x9f\x9a\x82 \xf0\x9f\x98\xb3retweet this\xe2\x99\xbb \xf0\x9f\x92\x8b ill follow you \xf0\x9f\x99\x85 no fb unfollow \xf0\x9f\x92\xa5 fav ths for so\xf0\x9f\x98\x8e teamfollowback\xf0\x9f\x92\x8b'
p184
aS'\xf0\x9f\x8d\xac90sbabyfollowtrain\xf0\x9f\x8d\xac \xf0\x9f\x8d\xadrt tweet \xf0\x9f\x92\x8ei follow you \xf0\x9f\x91\xbcyou follow me \xf0\x9f\x98\x84fav so \xf0\x9f\x93\xa1follow me on igraccertm \xf0\x9f\x8d\xaf teamfollowba\xe2\x80\xa6'
p185
aS'money  1 thing i never play when it comes to \xe2\x9d\x97\xef\xb8\x8f idgaf its a penny  wys lmaoooo \xe2\x99\xa1'
p186
aS'maury be like  in the case of 5 month year old jasmine  john you are      commercial break'
p187
aS'hella people birthday in december   turnup \xe2\x99\xa1'
p188
aS'a female who really fck with you will be mad at you for so many things but no matter what she will always stick around \xf0\x9f\x91\xab\xf0\x9f\x92\xaf'
p189
aS'live your life i aint got to be in it'
p190
aS'thanks for the follow \xe2\x99\xa5\xe2\x99\xa5  np'
p191
aS'im very irked right now man  i need some chips  \xe2\x99\xa1'
p192
aS'im finna twatch \xe2\x99\xa1\xe2\x99\xa1'
p193
aS'new avi \xe2\x99\xa1 me being goofy '
p194
aS'i wasnt goin to anyway  i gotta clean up '
p195
aS'awe'
p196
aS'i dont smoke  so im already on my way to being a better person \xe2\x99\xa1'
p197
aS'im finna change myself into a better person on bloods   school  fl  ampamp this money train im finna get on \xe2\x99\xa1'
p198
aS'im not coming with you to go see them nomore  imma be with my fl  but yea ill go with you and yo momma '
p199
aS'with my fl  and where you going'
p200
aS'tired of beig stepped on  it aint me  but when you straight love somebody you cant just let go  its about that time though 0326kkkk'
p201
aS'unfollowed \xe2\x98\x86'
p202
aS'nothing  justgot in the house  wby'
p203
aS'im done  done with kissing ass and idgaf nomore  fck you and everybody else '
p204
aS'0326kkkkkkk \xf0\x9f\x98\x92\xf0\x9f\x98\x9c\xf0\x9f\x98\x82\xf0\x9f\x98\x82\xf0\x9f\x98\x82\xf0\x9f\x98\x94\xf0\x9f\x98\x94\xf0\x9f\x98\x8a\xf0\x9f\x98\x8a\xf0\x9f\x98\x8a fck it then blood  remember that sht '
p205
aS'morning tl  idgaf bout nobody feelings today on bloods '
p206
aS'k whatever then '
p207
aS'i know mfs been faking '
p208
aS'idk '
p209
asS'2013_47'
p210
(lp211
S'i 5hinknim bout to cry myself to sleep lt3'
p212
aS'my momma a player frl '
p213
aS'watchin family guy'
p214
aS'kik me \xe2\x99\xa1 anyone please '
p215
aS'actually its too early'
p216
aS'goodnight tl '
p217
aS'together \xf0\x9f\x94\x92 or not \xf0\x9f\x94\x93 if i invested my time amp my feelings into you  its certain shit you just dont \xf0\x9f\x99\x85 do out of respec\xe2\x80\xa6'
p218
aS'boredddd  \xe2\x98\x85\xe2\x98\x86\xe2\x98\x85'
p219
aS'my tummy hurts man '
p220
aS'lil dude straight soft  im high af thoe'
p221
aS'bitch you got me fucked up shake up out my shit dawg \xf0\x9f\x92\xaf im finna get you beat on bloods'
p222
aS'let me stop being mean  lbs'
p223
aS'that kinda just made me mad '
p224
aS'he a opp and whoeer else he fw'
p225
aS'these lil niggas dont want no smoke they dont want no cancer'
p226
aS'yes you did nigga said it to some girl selena my busso told me brah brah  just know keep my mfn name out yo dick choppers blood'
p227
aS'that nigga aint sht anyway '
p228
aS'so you tellin mfs you aint meet up with me at that park aweeeeeeeeeeeee '
p229
aS'when she get like a waterfall gtgtgtgt \xe2\x99\xa1'
p230
aS'can i can i have your number nope \xee\x90\x8a lhhh'
p231
aS'goodnight mentions  \xf0\x9f\x98\xb4\xf0\x9f\x8c\x8c\xf0\x9f\x8c\x99\xf0\x9f\x8c\xa0 retweeet\xe3\x83\x84 \xe2\x9d\xa4\xf0\x9f\x98\x98\xf0\x9f\x98\x8d\xe2\x98\xba murder that retweet button stranger are welcome \xf0\x9f\x98\x8b fav for a follow \xf0\x9f\x91\xa3\xf0\x9f\x91\xa3\xf0\x9f\x92\x9b mu\xe2\x80\xa6'
p232
aS'sex in the showergtgtgtgtgtgtgtgtgt  yes \xe2\x99\xa1'
p233
aS'your tweets though gtgtgtgtgtgtgt'
p234
aS'goodnight nigt love \xe2\x99\xa1'
p235
aS'twerk twerk twerk that ass  ayeeee '
p236
aS'i have no definition'
p237
aS'i got nobody to talk to  ughhhh'
p238
aS'when somebody act stupid af  i automatically call them a crack head'
p239
aS'im dressing up tomorrow \xe2\x99\xa1 gone be looking right '
p240
aS'just let my love adorn you please baby'
p241
aS'i got your legs spread all over the bed hands clinched in the sheets hair wild as hell'
p242
aS'its crazy how ya friends wanna see you do good but not better than them'
p243
aS'i dont hold grudges i remember facts'
p244
aS'dont even look my nigga way dog '
p245
aS'when i get bored  i pick up pen and paper and write raps  anybody can rap in my eyes '
p246
aS'christmas almost here just wait on it mfs gone be rocking new stuff  tired of seeing the same shoes at sumner lhh'
p247
aS'i dont like girls flirting with whats mines'
p248
aS'if i say iont like you then just keep yo distance idgaf the circumstance trick'
p249
aS'new avi and header  keep or delete   help \xe2\x80\x9d \xf0\x9f\x98\x8d\xf0\x9f\x98\x8d keep it beautiful thanks \xe2\x99\xa1'
p250
aS'new avi and header  keep or delete   help '
p251
aS'awe '
p252
aS'its gone dont trip '
p253
asS'2013_44'
p254
(lp255
S'text me  im finna get off  5651732'
p256
aS'id love to where'
p257
aS'i only got two buss thingys '
p258
aS'might be with the girls today '
p259
aS'me and my sister might be going out tonight seeing if you up for a night out'
p260
aS'nothing girl ion got shit planned why wsp wby'
p261
aS'wydoing this weekend'
p262
aS'hey baby girl'
p263
aS'idk you acted like it'
p264
aS'lhhhh well next time be more specific    why you think he was my fl'
p265
aS'heeyheeyheeyy  '
p266
aS'i misss you  where tf you been at whore'
p267
aS'lhhhh well next time be more specific  '
p268
aS'derrick locked up   that aint my fl you tripping ctfu'
p269
aS'derrick locked up '
p270
aS'i want some food   chinamen '
p271
aS'attitude like fuck it today i be chilling'
p272
aS'short  light skin thanggtgt \xf0\x9f\x98\x8d\xf0\x9f\x91\x8c\xe2\x9d\xa4'
p273
asS'2013_45'
p274
(lp275
S'lh  petty'
p276
aS'sooo he juss put some pictures on ig   hella mad ctfuu'
p277
aS'i miss you too lt3 '
p278
aS'lesbian follow train \xf0\x9f\x91\xad teamlesbian\xf0\x9f\x91\xad teambisexual\xf0\x9f\x91\xad\xf0\x9f\x91\xab teamfem\xf0\x9f\x92\x85 teamstud\xf0\x9f\x91\x94 teamnolabel\xf0\x9f\x9a\xab \xe2\x99\xbbretweet\xe2\x99\xbb if you see your team'
p279
aS'kella still sleep '
p280
aS'anybody can get wacked '
p281
aS'i want my round no extra stuff '
p282
aS'talk tuff  then you old enough '
p283
aS'pictures are irreplaceable'
p284
aS'instagram got all my pictures gt '
p285
aS'thnks lol'
p286
aS'avi \xf0\x9f\x91\x8c\xf0\x9f\x98\x8d lol thickness'
p287
aS'hey tl \xe2\x99\xa1'
p288
aS'kella sleep next to me \xe2\x99\xa1 9 need to come on  so we can shake block '
p289
aS'favorite for football \xf0\x9f\x8f\x88\xf0\x9f\x92\xaa\xf0\x9f\x99\x8c retweet for basketball \xf0\x9f\x8f\x80\xf0\x9f\x8f\x83'
p290
aS'i want a telly \xe2\x99\xa1 '
p291
aS'so to corleone \xe2\x99\xa1\xe2\x99\xa1 he a1 and just loveable  follow the kid '
p292
aS'i want a twifey  \xe2\x99\xa1 sexy  bad bone '
p293
aS'suree bby \xe2\x99\xa1'
p294
aS'maaaaan dude smh can i come ova '
p295
aS'lh right but sht bored af  wby'
p296
aS'lol we toooo gansta  bt wyd  '
p297
aS'wssp hood '
p298
aS'i aintgone kiss yo booty boy  gtfo'
p299
aS'lol \xe2\x99\xa1'
p300
aS'wedding bells lawd'
p301
aS' you talk this much shit being pregnant  well the shit that come w that aint on me  you dead right along w that bby'
p302
aS'honesthour  \xe2\x99\xa1'
p303
aS'im wssp shell fck on demand now '
p304
aS'honesthour  \xe2\x99\xa1'
p305
aS'nf \xe2\x99\xa1'
p306
aS'frfrl awe ight  ingleeeeeee \xe2\x99\xa1'
p307
aS'oovoo anyone'
p308
aS'sosososososososo bored '
p309
aS'then go see twin  he rushing me amp sht '
p310
aS'just got back from running with kella \xe2\x99\xa1  tired af '
p311
aS'you ready '
p312
aS'kaes '
p313
aS'finna go running with kella \xe2\x99\xa1'
p314
aS'my phone jist died but yea ill come'
p315
aS'kaay  finna call him amp see where he at  kaes '
p316
aS'i told tonica i was done fucking with twin bt dats my boo or we '
p317
aS'sure ill come '
p318
aS'smoking is not attractive  that why i dont do it \xe2\x99\xa1'
p319
aS'mfs claim westside  but its really the north side  '
p320
aS'my heart is finna turn into ice lt3 on bloods'
p321
aS'ready to get tatted \xe2\x99\xa1'
p322
aS'no  correction this dick in yo mouth got me goin crazy \xe2\x99\xa1'
p323
aS'dem stl folks got u going crazy'
p324
aS'i swear my bousin dont know me at all '
p325
aS'if ya didnt know now you know'
p326
aS'nana or teetee aint neva text me'
p327
aS'and u aint gay so u quit flexxin lhh i was never gay im bisexual its a difference '
p328
aS'you on smoke quit fckin flexin bussin '
p329
aS'my heart dont gotta key mfs can steal that  my heart gotta combination code on yo sht \xe2\x99\xa1'
p330
aS'my heart on lockdown'
p331
aS'woodia just mean'
p332
aS'o '
p333
aS'thanks \xe2\x98\x86'
p334
aS'perfection im not thick i just got a booty \xe2\x99\xa1 '
p335
aS'i want some imosif you get some imma walk to your house lhhh \xe2\x99\xa1'
p336
aS'wtw for today \xe2\x99\xa1 im tryna get out here '
p337
aS'for what '
p338
aS'juss woke up  wats the word for the day '
p339
aS'idk yet  im finna see though when i get out '
p340
aS'inna tub vibing \xe2\x99\xa1 wby'
p341
aS'fb \xe2\x99\xa1'
p342
aS'goodmornig \xe2\x99\xa1 follow me'
p343
aS'goodmornig follow me \xe2\x99\xa1'
p344
aS'goodmorming follow me \xe2\x99\xa1'
p345
aS'goodmorning '
p346
aS'goodmorning sesssy \xe2\x99\xa1 follow me'
p347
aS'goodmorning follow me  \xe2\x99\xa1'
p348
aS'goodmornig folow me \xe2\x99\xa1'
p349
aS'goodmormig sesssssy \xe2\x99\xa1\xe2\x99\xa1\xe2\x99\xa5\xe2\x99\xa1'
p350
aS'good morning twitter\xe2\x99\xa5 cabrinnatweet'
p351
aS'goodmorning mentions\xe2\x9d\x94retweet \xe2\x99\xbb\xef\xb8\x8f'
p352
aS'good morning mention retweet \xe2\x99\xa5 \xe2\x88\x9a'
p353
aS'goodmorning mentions  retweet \xf0\x9f\x94\xa5\xf0\x9f\x98\x88\xf0\x9f\x99\x8c\xf0\x9f\x92\xad\xf0\x9f\x98\x98\xf0\x9f\x92\xaf\xf0\x9f\x91\x8b'
p354
aS'goodmorning mentions rt \xf0\x9f\x91\x8c\xe2\x98\x80\xef\xb8\x8f'
p355
aS'goodmornig \xe2\x99\xa1'
p356
aS'some head would be \xf0\x9f\x91\x8c\xf0\x9f\x98\x8d\xf0\x9f\x99\x8c\xf0\x9f\x92\xa6'
p357
aS'morning tl \xe2\x98\xba\xef\xb8\x8f\xf0\x9f\x91\x8b'
p358
aS'goodmornig \xe2\x99\xa1'
p359
aS'good morning \xe2\x99\xa1'
p360
aS'goodmorning \xe2\x99\xa1'
p361
aS'goood morning \xf0\x9f\x98\x98 mentions  retweet   favorite for a follow '
p362
aS'goodmorning tl '
p363
aS'goodmorning mentions \xee\x90\x98'
p364
aS'goodmorning mentions \xe2\x99\xa1  rt'
p365
aS'im str8 hurt '
p366
aS'neva fall in love with a street nigga lt3'
p367
aS'dear you i love you no matter what we go through no matter how much we argue because i know at the end youll always be there'
p368
aS'shitty ass friday \xf0\x9f\x98\xa9 ltltltltltltlt rft '
p369
aS'your fl words hurt the most man  lt3'
p370
aS'messed up my whole night  gfn '
p371
aS'that fast '
p372
aS'he just made me mad '
p373
aS'if i had a job at footlocker i would wear my referee shirt everywhere callin shots like flag on the play unneccessary wea\xe2\x80\xa6'
p374
aS'brandon got me weak '
p375
aS'otp with my fl \xe2\x99\xa1'
p376
aS'bored af'
p377
aS'who else hate feet'
p378
aS'im tired of saying i miss you \xe2\x99\xa1'
p379
aS'who wanna hack my page  '
p380
aS'thnks'
p381
aS'keep  thnks \xe2\x99\xa1'
p382
aS'new avi  keep or delete'
p383
aS'finna vibe \xe2\x98\x86'
p384
aS'mfs just dont know '
p385
aS'dusty hoes always be da loudest \xf0\x9f\x94\x8a sit da fuck down \xf0\x9f\x91\x89\xf0\x9f\x92\xba'
p386
aS'im wierd '
p387
aS'on kik \xe2\x99\xa1'
p388
aS'current situation \xe2\x99\xa1 '
p389
aS'when boredom strikes  i dig in my nose '
p390
aS' wifen hoesk  dont do those \xee\x80\x91'
p391
aS'my nigga my nigga he \xe2\x99\xa1s me '
p392
aS'love no thotties \xe2\x99\xa1'
p393
aS'chauncey had them thots its a shame everybody thought they were his main \xe2\x99\xa1 ripbrother '
p394
aS'somebody mention this girl \xe2\x99\xa1 '
p395
aS'love no thotties \xe2\x99\xa1'
p396
aS'home'
p397
aS'wya'
p398
aS'i texted kella and she cant text back cool mfn beans then'
p399
aS'damn this is crazy tho  my prayers go out to her family \xf0\x9f\x98\xaa\xf0\x9f\x91\xbc paying my respects \xe2\x99\xa1'
p400
aS'the worst feeling ever is finding out your crush already has a gf  \xc2\xa1\xc2\xa1\xc2\xa1 '
p401
aS'when my ex see me looking good and happy \xe2\x99\xa1 \xe3\x80\x8b\xe3\x80\x8b\xe3\x80\x8b\xe3\x80\x8b  best feeling ever '
p402
aS'lmao who remembers this  '
p403
aS'so my toes ugly  lh idc \xe2\x99\xa1'
p404
aS'bitches swear they hate me and that we beefing but they aint never seen me in person uh uhn baby you beefing with yo\xe2\x80\xa6'
p405
aS'my momma erks'
p406
aS'that was stolen \xe2\x99\xa1'
p407
aS'if oomf gave me a chance it \xf0\x9f\x91\x8f would\xf0\x9f\x91\x8f be\xf0\x9f\x91\x8f on\xf0\x9f\x91\x8f and\xf0\x9f\x91\x8f poppin\xf0\x9f\x91\x8f'
p408
aS'in my room '
p409
aS'its all cold and sht  ltltltlt'
p410
aS'current situation  eating fruit roll ups amp watching disney \xc2\xb0'
p411
aS'watching tv amp on oovoo with xaviah \xe2\x99\xa1'
p412
aS'oovoo anyone \xe2\x99\xa1'
p413
aS'loyalty will get you far but it can also get you screwed over  \xe2\x99\xa1'
p414
aS'im sorry im just aggravated my bad \xe2\x80\x94 k'
p415
aS'yes'
p416
aS'i want a twitter bssf \xe2\x99\xa1 rt'
p417
aS'who wants to be twifey \xf0\x9f\x92\x9e\xf0\x9f\x91\xad'
p418
aS'this girl is getting played so bad amp shes so clueless about it\xf0\x9f\x98\x82\xf0\x9f\x98\xad'
p419
aS'vibing to future classics  \xe2\x99\xa1 yes yes '
p420
aS'we aint even know it was gone be like thss \xe2\x99\xa1  no matter what'
p421
aS'only weed heads not crack heads boo lhh gt'
p422
aS'dont drink and drive park and spark \xe2\x99\xa1'
p423
aS'im about to change my avi '
p424
aS'i want it all the time \xe2\x99\xa1\xe2\x98\x86'
p425
aS'my body is your party  nobodies invited but chu babbby \xe2\x99\xa1 '
p426
aS'i do it boay \xe2\x99\xa1'
p427
aS'i get tired of arguing w  his ass he should know his place amp say fuck everything else'
p428
aS'oh thats yo girl  aweeeee  \xe2\x99\xa1'
p429
aS'man kell been there for me through everything snd still rocking with meeee \xe2\x99\xa1 8months strong  032613'
p430
aS'i know i know but just look at this as something good for you \xf0\x9f\x98\xa5\xf0\x9f\x98\xa5\xf0\x9f\x98\xa5 yea but im gone be missin you so much  i cant'
p431
aS'sht aint gone be the same  '
p432
aS'she pretty and loyal  \xe2\x99\xa1'
p433
aS'man i wish i coulda went with woodia   but tez got a lil date for me or whateer \xe2\x99\xa1\xe2\x99\xa5\xe2\x99\xa1'
p434
aS'girls kissing girls cause its hot right  \xf0\x9f\x98\x8c\xf0\x9f\x98\x8d\xf0\x9f\x98\x9c\xf0\x9f\x91\x85\xf0\x9f\x92\xa6'
p435
aS'so everbody wanna switch up  \xe3\x80\x8a\xe3\x80\x8a\xe3\x80\x8a'
p436
aS'i didnt say happy birthday to bria or jameisha today  \xe2\x99\xa1 sorry so to them its they birthday tricks'
p437
aS'catch a opp wack a opp watch his body hit the flo \xe2\x99\xa1'
p438
aS' rft free d west '
p439
aS'\xe2\x99\xa1'
p440
aS'free d west '
p441
aS'toodie wanna get thick ok i see you  '
p442
aS'man  i be in my own world '
p443
aS'lh  im gone tell her bout herself tomorrow '
p444
aS'bria a thot i swear bloood '
p445
aS'mfckas juss tried to go on me let me find out'
p446
aS'im sooo tired of being lonely \xf0\x9f\x98\x92\xf0\x9f\x98\x92\xf0\x9f\x98\x92'
p447
aS'im finna start boxing '
p448
aS'cherokee '
p449
aS'my body hurt'
p450
aS'im finna start boxing '
p451
aS'i miss chicken  lhhhhh  im hungry braaah '
p452
aS'im scared of new things yet i want new things lt3 '
p453
aS'iont want my rod to move'
p454
aS'dont trip whore '
p455
aS'lots of stuff '
p456
aS'i tried man  cant'
p457
aS'i dont wanna move '
p458
aS'at heaven house  my rod lt3'
p459
aS'sumnerk'
p460
aS'i hate spanish class  i dont learn nothing'
p461
aS''
p462
aS'yeaaa '
p463
aS'were  springfield il'
p464
aS'maybe friday '
p465
aS'im moving outtta town kell '
p466
aS'iont trip off sht no more i just be chilling'
p467
aS'f you kell lhhhh im weak'
p468
aS'at the hospital with kella and her mommaaa   gws mommma'
p469
aS'so kell on twitter retweeting sht lhhh '
p470
aS'mfs mad cause  nvm blood'
p471
aS'kella retarded '
p472
aS'with kella  i love her '
p473
aS's0 to you  ion know you like that but yall follow em  '
p474
aS'finna get off here inna minute  '
p475
aS'i need my hair done like foreal lhh '
p476
aS'about to get in my bed because its cold '
p477
aS'fat girls got that fyeeeee  lhh'
p478
aS'havent talked to mookie ina minute we cooled it at her sleep over or whatever  \xe2\x99\xa1'
p479
aS'well i have a number you could use it anytime  3145651732 \xe2\x99\xa1 '
p480
aS'yeah i dont like when you do that'
p481
aS'i be just wondering if i died who would care  not on no stupid sht though '
p482
aS'i den lived everywhere eastside westside northside amp southside gdm  i aint from nowhere but man if i had to choose  southside fashoe'
p483
aS'i fw the southside man  \xe2\x99\xa1'
p484
aS'im finna buy all jordans for now on    cash out time '
p485
aS'more than that x trey songz gtgtgtgtgt \xe2\x99\xa5'
p486
aS'who wanna text  \xe2\x99\xa1'
p487
aS'get a grip on yo btch for i take heeerrrr  \xe2\x99\xa1'
p488
aS'tez got me hip on code names man im dropping all these niggas they claim they my bestfriend but gotta crush on me '
p489
aS'im straight moving man  soooo far away '
p490
aS'i shoulda put one in your ass when you was a lil nigga '
p491
aS'never let people know when you havin problems in your relationship'
p492
aS'pistol to yo head i betchu gone snitch nigga   these niggas aint loyal'
p493
aS'i miss my babby \xf0\x9f\x98\xa9'
p494
aS'a relationship thats the shit gtgtgtgtgtgtgtgtgt'
p495
aS'i told u what u wanted to hear sorry if i lead u on '
p496
aS'i aint go to school today was crying all night lastnight '
p497
aS'i hate biology '
p498
aS'7months \xe2\x99\xa1 032613 '
p499
aS'man i see kell everyday and this one day iont see her  i miss her \xe2\x99\xa1 '
p500
aS'damn my woodia a baddie \xe2\x99\xa1 '
p501
aS'grand and mcdonald right by the library'
p502
aS'home you know i stay south girl  im by grand though'
p503
aS'where u at '
p504
aS'lol ducked off a little bit \xe2\x99\xa1'
p505
aS'where tf you been ex lover lbs'
p506
aS'i was gone walk down there to yo house today '
p507
aS'at home right now but fennah go down town real quick'
p508
aS'ol babes needa choose one nigga amp just cool it '
p509
aS'where you at gorgeous '
p510
aS'my name been the same since the begin lbs'
p511
aS'im starving'
p512
aS'i need my nails done'
p513
aS'i love you woodia \xe2\x99\xa1 '
p514
aS'i need a tattoo man though  '
p515
aS'tryna get tatted or whatever '
p516
aS'i spend most of my time on twitter lurking \xf0\x9f\x91\x80'
p517
aS'i wish i wasnt moving ampamp its all a dream  '
p518
aS'niggas be straight gettin pictures of guns off google and upload it to facebook im deaaaaaad  nigga that aint yours '
p519
aS'i dont care about nobody else nigga but mines \xe2\x99\xa1 '
p520
aS'i be wondering why pretty girls hate on pretty girls that just aint me   ill give you yo props \xe2\x99\xa1 '
p521
aS'dreamchasers gtgtgt \xe2\x99\xa1 '
p522
aS'im moving outta town and dont wanna go   missing my fl \xe2\x99\xa1'
p523
aS'i love my striphead \xe2\x99\xa1 '
p524
aS'cant trust a hoe shell getchu caught up'
p525
asS'2013_24'
p526
(lp527
S'my lrt gt'
p528
aS'yeaaaa '
p529
aS'lol theyre all that way huh'
p530
aS'on the porch '
p531
aS'welcomeeeee  wyd'
p532
aS'wait till this job call me back munnnnney  '
p533
aS'listen up'
p534
aS'these thots for everybody'
p535
aS'these niggas for everything  this a thot world '
p536
aS'thannnnks yaaaa  '
p537
aS'avi cute gtgtgtgtgt '
p538
aS'i like princesses \xf0\x9f\x92\x9b the ones thats not all good and ghetto'
p539
aS'lmfao good one but i guess so hah'
p540
aS'lol  i guess  you a lil princess huh'
p541
aS'so youre a lil thug huh lol'
p542
aS'i stay by grand on the south side '
p543
aS'i ont know nothing about all that lol i was born in webster groves'
p544
aS'wack ass st louis  you\xe2\x80\x9d sameee  lbbbbs  i stay southbound '
p545
aS'i have a crush goshhh \xf0\x9f\x98\x8d\xf0\x9f\x98\x8d\xf0\x9f\x92\x99'
p546
aS'my dm messing up gorgeous so just tweet me  where you from  subtweet'
p547
aS'\xee\x90\x97\xee\x90\x89\xee\x90\x95\xee\x90\x85\xee\x80\xa2 oowwweee'
p548
aS'\xf0\x9f\x92\x9b\xf0\x9f\x98\x89  subtweet'
p549
aS'you are toooo \xe2\x99\xa5'
p550
aS'lt3'
p551
aS'oomf bhaaad  '
p552
aS'thank you gorgeous \xee\x84\x85\xee\x90\xa0\xe2\x80\x9d np \xf0\x9f\x98\x8f\xf0\x9f\x98\x89'
p553
aS'avi gtgtgtgtgt \xf0\x9f\x98\x8d'
p554
aS'when you say no i take it as a yes '
p555
aS'blood i hate montez'
p556
aS' westside certified  yea b you disqualified  '
p557
aS'happy fathers day mom'
p558
aS'i cant be tamed imma wild girl  '
p559
aS'im single once again montez can suck my toe frfrrrl'
p560
aS'i aint no nigga  but i got street smarts like one '
p561
aS'females think a nigga cant hit them back from them hitting them  cause tuh '
p562
aS'i dont fw many  im so cold hearted'
p563
aS'i wanna subtweet  '
p564
aS'stop flexin'
p565
aS'shawwwty straight flexinnn  '
p566
aS'catch up it aint hard \xf0\x9f\x98\x89\xf0\x9f\x91\x8c'
p567
aS'happy birthday tupac \xf0\x9f\x98\x89'
p568
aS'cant nobody tell me what i know'
p569
aS'ionnt need a side chick  when i gotta main chick  '
p570
aS'\xf0\x9f\x98\x8f aaaaye heeeeeey bbygirrrrl '
p571
aS'aaaaaaayee on my tl i was just thinking bout you thug'
p572
aS' iont be on the internet frfr  these thots out this world '
p573
aS' in my hood cooling like where the fk my goons lbbbbs '
p574
aS'damn everybody got an askfm\xe2\x80\x9d the foolery'
p575
aS' if niggas was suppose to act like females they would be one  shtkdead'
p576
aS' the back of yo head smell like cut grass'
p577
aS' who still play askfm  shtk deead beeee '
p578
aS' im wtchu call a  nvm'
p579
aS' thots got thots  wtf goin on lbbbbs  '
p580
aS' frod niggas got stories for dayssssssss bruh '
p581
aS' ducked off '
p582
aS'lol were you was at'
p583
aS' frod niggas got stories for dayssssssss bruh '
p584
aS'im teetee dot get fkd up'
p585
aS'once a snake always a snake'
p586
aS' like i teach my youngins  trustk nobody gdm  mfs snakes '
p587
aS'\xf0\x9f\x98\xb1\xf0\x9f\x98\xb1\xf0\x9f\x98\xb1\xf0\x9f\x98\xb1\xf0\x9f\x98\x8d\xf0\x9f\x98\x8d\xf0\x9f\x98\x8d\xf0\x9f\x98\x8d\xe2\x80\x9d \xf0\x9f\x98\x8f'
p588
aS' immmm baaaack  '
p589
asS'2013_25'
p590
(lp591
S'teetee  '
p592
aS' dont lie ill thug  '
p593
aS'money makin aint no joke\xe2\x80\x9d'
p594
aS'back'
p595
aS'thanks  '
p596
aS'ltltshe has a supermodel swagger with a magazine face magazine face gt'
p597
aS'finna walk to the store brb'
p598
aS'money makin aint no joke'
p599
aS'rip pierre'
p600
aS'i make money and relax and watch the cookies crumble '
p601
aS'short thick cute smart ou betta keep that joint big dummy \xf0\x9f\x91\x8c'
p602
aS'i miss my boyfriend  '
p603
aS'iont pass out money '
p604
ag462
aS'i think it is so funny when people say the word crayola  for some odd reason'
p605
aS'all names thats start with a t is perfect    tyler  '
p606
aS'all names thats start with a t is perfect  '
p607
aS'money over matter '
p608
aS'youll never catch me sleeping  face it shawty '
p609
aS'ctfu '
p610
aS'listening to these strags a get you killed big dummy '
p611
aS'i need some chips  cause im like gosh '
p612
aS'i just cant stress off petty ish '
p613
aS'sometimes i be like  nvm'
p614
aS'fb'
p615
aS'welp im off here byebye  '
p616
aS'devin shes my everything 1 12years strong \xf0\x9f\x92\x99'
p617
aS'wubbie is my bestfriend 1 12 strong \xe2\x9d\xa4'
p618
aS'red be having some nice weave unlike some people lbbbbs  '
p619
aS'dominican queen \xf0\x9f\x98\x8d'
p620
aS'texting breona \xe2\x98\xba'
p621
aS'it feel good to know i let the strags out my life amp kept the real ones in frfrl'
p622
aS'i love you more breona'
p623
aS'i love tonica'
p624
aS'so breona will always have a place in my heart\xe2\x80\x9d lt3 lt3'
p625
aS'rip lild amp pierre    '
p626
aS'so breona will always have a place in my heart'
p627
aS'raylan so fucking slow confused ass ctfu'
p628
aS'cynthia'
p629
aS'i let oomf get the best of me way tooooooo muchhhhhhhhhhh fuck him'
p630
aS'if we was cool amp you fucked that up  well never be cool nomore '
p631
aS'5651732 tml \xf0\x9f\x98\x98'
p632
aS'i want new buddies \xef\xbc\x88\xef\xbc\xbe\xe2\x88\x87\xef\xbc\xbe\xef\xbc\x89'
p633
aS'who wanna tml'
p634
aS'cheetah print used to my favorite print until i seen this fat woman with it on  i went into shock'
p635
aS'forget a boyfriend they for everybody'
p636
aS'six flags this weekend'
p637
aS'i used to be so childish'
p638
aS'yea '
p639
aS'good to know '
p640
aS'no i dont i aint the same   arguing for big dummys'
p641
aS'you do too'
p642
aS'mfs like arguing like wtf  '
p643
aS'get at me if you need your hair braided i have cheap prices i did my braids so you cant see my work'
p644
aS'i finished my own hair in 2days catch up'
p645
aS'finna make this money braiding and go out im too pretty to be frowning i did my braids so my hands still hurt'
p646
aS'on to the next iont stress over no thot'
p647
aS'im about to say im single keep fwm whore bag'
p648
aS'taaaaadaaaah '
p649
aS'imma bone thug'
p650
aS'huh '
p651
aS'w them big ole thighs aftaa school lol'
p652
aS'chunk it up on some '
p653
aS'follow me\xe2\x80\x9d nf'
p654
aS'new avi   gtgtgtgtgt'
p655
aS'when i get mad at someone im silent    because if i speak my mind stuff gonna get real'
p656
aS'this world make me sick'
p657
aS'dirty world'
p658
aS'women play games so i advise you to get a prenup'
p659
aS'cant trust ya own family at times a nigga a make ya whole family cry'
p660
aS'im ctfu she think he really hers'
p661
aS'my street smarts come from experience'
p662
aS'i aint dumb shawty'
p663
aS'she being petty af  ill leave her alone '
p664
aS'cooling with these thots nothing major'
p665
aS'another day in stl streets'
p666
aS'im a young girl tryna make it'
p667
aS'chill  '
p668
aS'he gone catch some watch'
p669
aS'pitiful'
p670
aS'i seen a nigga at union station with a wiener on his hat '
p671
aS'i want a crazy hat'
p672
aS'whats that'
p673
aS'love'
p674
aS'tbh'
p675
aS'iont fw liers'
p676
aS'rt if youre gay bisexual or lesbian amp ill follow you follow back or get unfollowed teamlesbian teambisexual tea\xe2\x80\xa6'
p677
aS'hold on   let me look at the list of thots'
p678
aS'thots be like    after the d mustsee'
p679
aS'peace sign up index finger down'
p680
aS'in order to find a good guy you have to stop letting all the bad ones treat you like shit'
p681
aS'no matter how strong a girl is she always has a breaking point'
p682
aS'pride attracts the girl courage approaches the girl wisdom gets the girl strength puts up with the girlbut loyalty keeps the girl'
p683
aS'i really miss flip phones because at the end of a conversation you could always dramatically close them like bitch whatever'
p684
aS'why periods why cant mother nature just text her and be like waddup girl you aint pregnant have a great week talk to you next month'
p685
aS'age doesnt define maturity \xf0\x9f\x99\x85'
p686
aS'catch me sleeping you gone catch yoself inna body bag'
p687
aS' i wonder if we broke up would you fight for me or chase a bitch  would you be hurt what would you do'
p688
aS'niggas be like uoenoi be like ioen care'
p689
aS'job hunting soon'
p690
aS'step yo game up lil homie'
p691
aS'these thots be messin with these ugly camel back fruity smellin niggas '
p692
aS'i dont get goodmorning texts anymore '
p693
aS'my twin dance the hardest he cold '
p694
aS'i just dont like booogi tricks thatssss all '
p695
aS'yous a fake amp she aint even know it'
p696
aS'mooooneeeey'
p697
aS'not all of us act that way'
p698
aS'this a dirty dirty world that we live in'
p699
aS'follow me on instagram for a shout out'
p700
aS'free malaika and kiara ftl'
p701
aS'i fw tko some krush heads vivo amp them strip heaaads  '
p702
aS'tko head amp a vivo head   thugggsssslove \xe2\x9d\xa4 '
p703
aS'i hate peons\xe2\x80\x9d i swear'
p704
aS'niggas beefin niggas slanging iron  i keep that purple purp to ease my mind tonighhhht '
p705
aS'idgaf bout many frrrl'
p706
aS'montez got my heart \xf0\x9f\x98\x8d\xe2\x9d\xa4'
p707
aS'dont stress it cause i aint'
p708
aS'gtfo'
p709
aS'i hate peons'
p710
aS'my side hustle gtgt'
p711
aS'whenever to make money just let me know sugga '
p712
aS'i neeeeed you then \xee\x90\x85\xee\x84\x85'
p713
aS'jeremih xx all the time  gtgtgtgtgt '
p714
aS'lol idk it just came naturally to me  i love doing hair lbvs '
p715
aS'oooo oo my bad my bad  i need that hook up then hun tuh lol'
p716
aS'new avi \xf0\x9f\x92\x9b'
p717
aS'i have always been doing my own hair sweety lbvs '
p718
aS'thats tight  who be doing your hair in them other styles '
p719
aS'no money '
p720
aS'when you gone come down heaa '
p721
aS'i never did it  but it looks easy  this was my first time doing my own hair '
p722
aS'huuhh '
p723
aS'teetee \xf0\x9f\x98\x94'
p724
aS'umm for the box braids  like ill charge you 60 '
p725
aS'i seen em good on ig  lol how much youd charge meeeeee '
p726
aS'yesss '
p727
aS'cause he a thotianak and she braininn meeee  '
p728
asS'2013_27'
p729
(lp730
S'lol its miracleeee on this mf '
p731
aS'i miss my right hand she just faded off on me '
p732
asS'2013_20'
p733
(lp734
S'the foolery '
p735
aS'i cant stand me a nigga that act like a female and talk stuff to they niggas speak up'
p736
aS'\xf0\x9f\x98\xb3 \xcd\x9f \xcd\x9f \xcd\x9f \xcd\x9f \xcd\x9f \xcd\x9f \xcd\x9f\xf0\x9f\x98\x8d \xcd\x9f \xcd\x9f \xcd\x9f \xcd\x9f \xcd\x9f \xcd\x9f\xf0\x9f\x98\x83 \xcd\x9f \xcd\x9f \xcd\x9f \xcd\x9f \xcd\x9f \xcd\x9f\xf0\x9f\x98\x89 \xcd\x9f \xcd\x9f \xcd\x9f \xcd\x9f \xcd\x9f\xf0\x9f\x98\x8e \xf0\x9f\x91\x86 this is dope \xe2\x9b\x85'
p737
aS'finna go bash some food one time \xf0\x9f\x99\x8c'
p738
aS'psht'
p739
aS'swear to god im psycho'
p740
aS'im ignorant ill drop kick a nigga at gc'
p741
aS'i will punch you in the face'
p742
aS'tired of these thots'
p743
aS'can somebody teach me how to read'
p744
aS'i wanna cuff somebody \xf0\x9f\x98\x81\xf0\x9f\x94\x92rt'
p745
aS'my rap i made for my momm  gws \xf0\x9f\x92\x9b\xf0\x9f\x92\x9b\xf0\x9f\x92\x9b\xf0\x9f\x98\x98\xf0\x9f\x98\x8d\xf0\x9f\x98\x8d\xf0\x9f\x98\x8d\xf0\x9f\x99\x8c read amp tell me what you think'
p746
aS'what said'
p747
aS'i swear to god i aint nervous'
p748
aS'i been feenin for some time amp its gettin kinda hectic'
p749
aS'i leave her body feenin  \xf0\x9f\x92\x9b'
p750
aS'i just jumped in my ride  '
p751
aS'goooood moaaaaanin have a wonderful day'
p752
aS'fb'
p753
aS'mayday gone be rips amp gws dont say that\xe2\x80\x9d yea ight'
p754
aS'i got 44 clips one gone hit in the head '
p755
aS'im gucci mane daughter amp tyga god daughter  i rap what i feel amp for me to sleep i pop pills '
p756
aS'mayday gone be rips amp gws'
p757
aS'goodmorning tl'
p758
aS'tonica betta tell her wht tht date is'
p759
aS'you gotta show me'
p760
aS'miracle dont love me nomore \xf0\x9f\x98\x92'
p761
aS'cant step a gangsta toes or imma get offended'
p762
aS'i come to the understand you think i twerk to everything  well  \xf0\x9f\x91\xaf\xf0\x9f\x99\x86\xf0\x9f\x99\x8c maybe i do '
p763
aS'gettin taattteddd \xf0\x9f\x99\x8c'
p764
aS'lol oh ok i was just asking '
p765
aS'im ready for a relationship thats gone lasssst faceas but im foreal'
p766
aS'my wife amp no she not gay lbs'
p767
aS'whats 32613 '
p768
aS'a female can be \xe2\x86\x92 your best friend \xe2\x86\x92 wifey \xe2\x86\x92 worst enemy \xe2\x86\x92 or your worst nightmare\xe2\x80\xa6 it all depends on how you treat her'
p769
aS'lh i aint hating bbe girl'
p770
aS'well twitter already listens rt i deserve to be listened to'
p771
aS'tht mfcka look hella good '
p772
aS'i wanna see kell do the gunwalk \xf0\x9f\x98\x82\xf0\x9f\x91\x8c'
p773
aS'i deserve to be listened to'
p774
aS'im a fag'
p775
aS'lhhh girlllllll wht damn mission \xe2\x80\x9d stop hatin '
p776
aS'lol cause baby  i be onna mission \xf0\x9f\x92\x9b\xf0\x9f\x98\x82'
p777
aS'i love my wife moree lt3'
p778
aS'i get high off life'
p779
aS'twubby rt \xe2\x98\xba\xf0\x9f\x92\x9b'
p780
aS'i love my wife \xf0\x9f\x98\x8d\xf0\x9f\x91\x8c'
p781
aS'no mention no follow back plain and simple \xf0\x9f\x91\x8f'
p782
aS'girls wit no classlt\xe2\x80\x9d'
p783
aS'tht girl on yo header look hella good '
p784
aS'i so layed back right now \xf0\x9f\x91\x8c'
p785
aS'rt avi gtgtgtgtgtgtgtgt avi gtgtgtgtgt '
p786
aS'nf can i get that follow back cutie '
p787
aS'fb '
p788
aS'im like woaaaah\xf0\x9f\x98\x8d\xf0\x9f\x91\x8c'
p789
aS'aw thanks i should be saying the same for you youre gorgeous '
p790
aS'nfb'
p791
aS'fb  \xf0\x9f\x98\x81\xf0\x9f\x98\x81'
p792
aS'you adding more tweets slowness'
p793
aS'lhh i love you you love me'
p794
aS'avi gtgtgtgtgt \xf0\x9f\x92\x9b\xf0\x9f\x91\x8c\xf0\x9f\x98\x8d'
p795
aS'aw thanks i like yours too  '
p796
aS'im wild and crazzzy yeen know '
p797
aS'you tweetin to much bbe girl lhh finna be in twitter jail'
p798
aS'so'
p799
aS'my followers da baddest '
p800
aS'of course\xf0\x9f\x98\x8a\xf0\x9f\x98\x8a'
p801
aS'im gaining so many smexy followers today ogosh \xf0\x9f\x98\x8d\xf0\x9f\x92\x9b'
p802
aS'avi gtgtgtgtgt omg '
p803
aS'avi gtgtgtgtgt '
p804
aS'avi gtgtgtgtgt '
p805
aS'good morning amp enjoy your day \xe2\x9d\xa4'
p806
aS'\xf0\x9f\x92\x9b\xf0\x9f\x92\x9b\xf0\x9f\x92\x9b\xf0\x9f\x92\x9b nfb '
p807
aS'morning followme'
p808
aS'good morning gorgous your avi cute caught my eye but anyways hope your day is wonderfulltltlt follow back  '
p809
aS'goodmorning have a blessed day'
p810
aS'my eyes gtgtgt'
p811
aS'\xf0\x9f\x92\x9b\xf0\x9f\x92\x9b\xf0\x9f\x92\x9b\xf0\x9f\x91\x8c\xf0\x9f\x98\x8d lol thank youuuuus '
p812
aS'goodmorning  nice name \xe2\x9d\xa4 have a bootylishus day lol '
p813
aS'goodmorning mentions retweeet'
p814
aS'goodmorning '
p815
aS'\xf0\x9f\x98\x8a\xf0\x9f\x98\x98\xe2\x98\x80 morning honey'
p816
aS'goodmorning mentions retweet retweet retweet'
p817
aS'good morning mention rt'
p818
aS'goodmorning mentions  rt \xf0\x9f\x92\x95'
p819
aS'good morning mentions rt '
p820
aS'good morning mentions \xf0\x9f\x98\x8a\xf0\x9f\x98\x8aretweet \xf0\x9f\x99\x8cstrangers welcome\xf0\x9f\x99\x8c doing all'
p821
aS'rt for a goodmorning mention '
p822
aS'goodmorning mentions retweet'
p823
aS'goodmorning mentions rt \xf0\x9f\x98\x8a\xe2\x98\x80'
p824
aS'\xf0\x9f\x98\x8a\xf0\x9f\x98\x8a rt for a morning mention \xe2\x98\x80\xe2\x9b\x85'
p825
aS'goodmorning mentions rt \xf0\x9f\x92\x9b'
p826
aS'goodmorning mentions retweeeet '
p827
aS'goodmorning mentions  rt'
p828
aS'your avi \xf0\x9f\x98\x8dgtgtgt'
p829
aS'dont none of you thots threaten me so why stress off you'
p830
aS'watch me go crazzzzzy'
p831
aS'goodmorning  have a nice day  follow me '
p832
aS'morning follow back'
p833
aS'\xf0\x9f\x92\x9b\xf0\x9f\x98\x89'
p834
aS'goodmorning \xf0\x9f\x91\x8b\xf0\x9f\x98\x8c have a great day \xe2\x98\x80\xe2\x9b\x85\xf0\x9f\x8c\x9e'
p835
aS'i can be so jealous\xe2\x80\x9d'
p836
aS'\xf0\x9f\x92\x9b\xe2\x98\xba'
p837
aS'morning love have an amazing day\xf0\x9f\x92\x97'
p838
aS'i can be so jealous'
p839
aS'gooodmorning hun have a blessed day'
p840
aS'nfb \xf0\x9f\x92\x9b\xf0\x9f\x98\x89'
p841
aS'good morning'
p842
aS'goodmorning fb '
p843
aS'good morning sunshine p d'
p844
aS'goodmorning '
p845
aS'fb '
p846
aS' goodmorning mentions '
p847
aS'rt \xf0\x9f\x98\x8a\xf0\x9f\x98\x8a\xf0\x9f\x98\x8a\xf0\x9f\x98\x8a\xf0\x9f\x98\x8a for a goodmorning \xe2\x98\x80 mention \xe2\x9d\xa4\xe2\x9d\xa4    d o i n g  a l l '
p848
aS'rt for a good moanin mention retweet'
p849
aS'goodmorning mention  retweet '
p850
aS'good morning mentions retweet strangers welcome'
p851
aS'good morning mentions rt'
p852
aS'good morning mentions  '
p853
aS'goodmorning mentions  retweet'
p854
aS'newmafia  obeyreality  tityfollowtrain  keyairangels  retweet '
p855
aS'goodmorning mentions rt \xe2\x99\xa5'
p856
aS'rt for a goodmorning mention'
p857
aS'goodmorning mentions  retweet  '
p858
aS'good morning mentions  retweet'
p859
aS'good morning twitter \xf0\x9f\x99\x8a rt for a good morning mention \xf0\x9f\x99\x88'
p860
aS'goodmorningg mentions retweet strangers welcome'
p861
aS'morning mention rt \xf0\x9f\x92\x97'
p862
aS'\xe2\x99\xa1'
p863
aS'\xf0\x9f\x92\x9b\xe2\x9d\xa4'
p864
aS'my bad i am now  '
p865
aS'how im gone trust you and you dont trust me'
p866
aS'anyways'
p867
aS'if karma doesnt hit you i gladly will \xf0\x9f\x94\xab'
p868
aS'nooo your not lbs'
p869
aS'follown back love \xe2\x99\xa1'
p870
aS'followback \xe2\x80\x9d nfb '
p871
aS'nf fb \xf0\x9f\x92\x9b\xe2\x98\xba'
p872
aS'im weak'
p873
aS'goodmorning tl'
p874
aS'\xf0\x9f\x98\x8f\xf0\x9f\x92\x9c'
p875
aS'lmao  \xf0\x9f\x98\x82'
p876
aS'gtgtgt retweet if you follow back ltltlt'
p877
aS'we be on the same sht then'
p878
aS'lol \xf0\x9f\x92\x9b\xe2\x98\xba niceeee avi '
p879
aS'\xf0\x9f\x98\x9e'
p880
aS'all i vibe to is gucci frl\xe2\x80\x9d rfttt yaaal know i do  thats all my tweets beee on'
p881
aS'\xe2\x98\xba\xf0\x9f\x92\x9b ahaa'
p882
aS'\xf0\x9f\x98\x82\xf0\x9f\x98\x82\xf0\x9f\x98\x82 \xf0\x9f\x98\x8f\xf0\x9f\x98\x98'
p883
aS'lbs \xf0\x9f\x98\x8d\xf0\x9f\x92\x9b'
p884
aS'yo avigtgtgtgt \xf0\x9f\x98\x8f\xf0\x9f\x91\x8c\xf0\x9f\x91\x8c\xf0\x9f\x91\x8c'
p885
aS'squaaaaad \xf0\x9f\x98\x88'
p886
aS'whos up  rt'
p887
aS'who can i mention '
p888
aS'kim possible so the drama is coming on in 22 mins fuck all yall \xf0\x9f\x98\x8d\xf0\x9f\x98\x98\xf0\x9f\x91\x8f\xf0\x9f\x98\x8f my night is about to be made'
p889
aS'i love doing hair'
p890
aS'i know how to do some good pixies for little girls'
p891
aS'i know how to retwist dreads'
p892
aS'im single i do what i wanna '
p893
aS'dumb founded'
p894
aS'i love juice\xe2\x80\x9d rft \xf0\x9f\x92\x9b\xf0\x9f\x91\x8c'
p895
aS'im single boy i do wht i wanna '
p896
aS'i think my girlfriend is sleep  ugh  this girl can never stay up '
p897
aS'tireddddd'
p898
aS'im gettin sleep bee'
p899
aS'im full \xf0\x9f\x91\x8c\xf0\x9f\x98\x8f'
p900
aS'eating chicken strips  \xf0\x9f\x91\x8c'
p901
aS'new account trying to get my follower count up again a followback would be much appreciated'
p902
aS'set standards for yourself\xe2\x80\x9d rt'
p903
aS'wage gonna be okay long as u there for her and she will make it \xf0\x9f\x99\x8f\xf0\x9f\x98\x84\xf0\x9f\x98\x80'
p904
aS'1231gtgtgtgtgt'
p905
aS'i aint talked to her in hekaaas'
p906
aS'thanks \xf0\x9f\x98\x81'
p907
aS'tonica tell to mama goodnight'
p908
aS'diamond birthday tweet 1229'
p909
aS'your heaaader \xf0\x9f\x92\x9b'
p910
ag462
aS'im diggin the avi \xf0\x9f\x91\x8c\xf0\x9f\x91\x8c\xf0\x9f\x91\x8c'
p911
aS'you need to be sleeeep'
p912
aS'lmfao really'
p913
ag462
aS'poop'
p914
aS'yeay eay'
p915
aS'im bored'
p916
aS'why you lyinnn lhh'
p917
ag462
ag462
aS'im so smexy '
p918
aS'at the hospital lt3'
p919
aS'i do think so'
p920
aS'you think we are foreal '
p921
aS'so that was you  '
p922
aS'yeah  earlier '
p923
aS'you was on my page earlier'
p924
aS'yo avi the \xf0\x9f\x92\xa9\xf0\x9f\x92\xa9\xf0\x9f\x92\xa9\xf0\x9f\x92\xa9\xf0\x9f\x92\xa9\xf0\x9f\x92\xa9'
p925
aS'hate when mfs take hellllaaaas to reply to me'
p926
aS'so togtgtgt ltltlt go follow please teamfollowback \xe2\x86\xaao\xce\xb2eyre\xce\xb4\xe2\x84\x93i\xcf\x84y\xe2\x86\xab '
p927
aS'goodnighhht \xf0\x9f\x92\x9c\xf0\x9f\x92\x9a'
p928
aS'goodnight gtgtgtgt sleep tight amp your avi is cute '
p929
aS'goodnighhht \xf0\x9f\x92\x9c\xf0\x9f\x98\x8f'
p930
aS'goodnight hun \xe2\x9d\xa4'
p931
aS'im sleepy amp bored amp sober ltlt'
p932
aS'\xf0\x9f\x98\x92\xe2\x9c\x8b'
p933
aS'rt for a goodnight mention '
p934
aS'rt for a goodnight mention  \xe2\x9d\xa4\xf0\x9f\x98\x8a\xf0\x9f\x92\x8b\xf0\x9f\x98\x98\xe2\x9c\x8c\xf0\x9f\x92\xa4\xf0\x9f\x92\xa4'
p935
aS'now were aloneeeee \xf0\x9f\x98\x8f'
p936
aS'say yes girrrrrrrl \xf0\x9f\x92\x9b'
p937
aS'retweet for a so picking random \xe2\x86\xaao\xce\xb2eyre\xce\xb4\xe2\x84\x93i\xcf\x84y\xe2\x86\xab must be following'
p938
aS'i can lay it down \xe2\x9d\xa4\xf0\x9f\x92\x9b'
p939
aS'girl you make my tongue go laa lalalala \xf0\x9f\x8e\xb6\xf0\x9f\x92\x9b vibing'
p940
aS'sos  retweeet  '
p941
aS'yesss subtweet'
p942
aS'lhh tonica watts '
p943
aS'were my wifee at why woodia saying she can get her'
p944
aS'try i bet chu cant and im standing on it lbs'
p945
aS'wht woodia tlking bout my bitch for lhh'
p946
aS'woodia aint got nothing on my bitch lbs'
p947
aS'kell bitch aint got nun on me '
p948
aS'retweet this follow me amp all retweeters for 50 followers fast teamfollowback follow2befollow\xe2\x80\xa6'
p949
aS'retweet this follow me amp everyone else that retweets this for 50 followers fast teamfollowback follow2befollowe\xe2\x80\xa6'
p950
aS'and to homies dont like me  '
p951
aS'criminals dot like talkin  i dot go to funerals i dont like coffins '
p952
aS'im from bompton'
p953
aS'retweet this follow me amp everyone else that retweets this for 50 followers fast teamfollowback follow2befollowe\xe2\x80\xa6'
p954
aS'yea yea'
p955
aS'babegirl your so beautiful'
p956
aS'i love the way you wine on meeee \xf0\x9f\x92\x9b\xe2\x98\xba'
p957
aS'we done remember  lh right'
p958
aS'i swear these hoes aint got nothing on ya 032613'
p959
aS'smh f u'
p960
aS'\xe2\x98\xba thanks'
p961
aS'shoutout to she fine ampnd pretty  guys go follow her '
p962
aS'u ugly as hell'
p963
aS'they aint got nothin on yaaa  32613 \xf0\x9f\x92\x9b\xf0\x9f\x8e\xb6'
p964
aS'im gucci mane daughter \xf0\x9f\x8e\xb6\xf0\x9f\x92\x9b'
p965
aS'time to check my trap house  trap house '
p966
aS'so to his avi gtgtgt'
p967
aS'\xf0\x9f\x92\x9b\xe2\x98\xba'
p968
aS'i turn nothing into something'
p969
aS'straight thuggin'
p970
aS'lbs'
p971
aS's0 retweet '
p972
aS'sos rt'
p973
aS'vibingggg '
p974
aS'every car i own under the hood it got a monsta'
p975
aS'gucci everythaang with the matching boots '
p976
aS'they know im on the runnnnn'
p977
aS'stebo is currently single lt3 amp not looking \xe2\x80\x9d'
p978
aS'they kicked my momma door and found a hunnit grahams'
p979
aS'if yo nigga gotta 4 4 hangin out the window i suggest you runnn'
p980
aS'i suggest you fkin runnnn'
p981
aS'haters out the windowwww'
p982
aS'count up'
p983
aS'none but extra strong on my menuu'
p984
aS'\xf0\x9f\x8e\xb6\xf0\x9f\x91\x8c\xf0\x9f\x98\x8f'
p985
aS'vibing to all good shit'
p986
aS'thanks  \xf0\x9f\x92\x9b'
p987
aS's avi gtgtgt'
p988
aS'its a song stupid'
p989
aS'i wanted to get bck on here lh'
p990
aS'i member waaaaay back when a nigga first start sellin that crack  \xf0\x9f\x8e\xb6\xf0\x9f\x8e\xb6'
p991
aS'young nigga getcha bomb off'
p992
aS'im in miami with the hasians'
p993
aS'the block is hot  one wrong move and my niggas goin crazy'
p994
aS'every 45mins i get a graham off'
p995
aS'shoutouts  rt'
p996
aS'diamond big as a golf ball '
p997
aS'im hella hot'
p998
aS'stepped on gangsta toes and now im mad  now im offended '
p999
aS'okay its okay tell yo mama imma sing to her\xe2\x80\x9d i told her my wife gone sing to her she saaaaid owewwie lol \xf0\x9f\x92\x9b'
p1000
aS'my glock got a extension'
p1001
aS'iont fw them niggas '
p1002
aS'i gotta lotta thots but never been inlove'
p1003
aS'cant im still at the hospital  with no phone '
p1004
aS'call me'
p1005
aS'thanks yours is flawlessss  '
p1006
aS'yaaa avi prettty'
p1007
aS'im inna hood going crazy with these niggas '
p1008
aS'we just got a new trap houseeee '
p1009
aS'rt for a mention '
p1010
aS'okaaaay boooobaby  '
p1011
aS'lhh  stay on here then'
p1012
aS'im down to my last'
p1013
aS' lol  thanks shawty   fwm'
p1014
aS'the fakest mf smile in yo face'
p1015
aS'you gone get me back in twitter jail nigggga lol'
p1016
aS'you left ah clown bitch ltltltltlt for ah down bitch gtgtgtgtgtgtgtgt  '
p1017
aS'holiday seasonn nigggga'
p1018
aS'kell stop tweeting you gone get me in twitter jail bruhhhhh lol'
p1019
aS'all this designer on how can you not notice me '
p1020
aS'all my niggas scan'
p1021
aS'diamond said yinky clowning'
p1022
aS'kell you did that lhhhh got me in twitter jail'
p1023
aS'imma sing to tonica mama'
p1024
aS'she was tweeting to damn much lhh'
p1025
aS'lhh tonica in twitter jail lhh'
p1026
aS'tonica  bbe girl  you in twitter jail lhh love kell '
p1027
aS'gws tonica mama'
p1028
aS'aweeee yea kell on here'
p1029
aS'my momma talking '
p1030
aS'ova here tlking to my cussns'
p1031
aS'ughh im bored'
p1032
aS'tonica need to get back on here'
p1033
aS'tonica love kell and yeen even know it '
p1034
aS'okay byee wifeeeee'
p1035
aS'im finna get off for ah min'
p1036
aS'so to   '
p1037
aS'\xf0\x9f\x92\x9b\xe2\x98\xba'
p1038
aS'so to  '
p1039
aS'\xf0\x9f\x98\x8d\xf0\x9f\x92\x9b'
p1040
aS'thanks ma  '
p1041
aS'so to he single ladies \xf0\x9f\x98\x89\xf0\x9f\x92\x9b'
p1042
aS'so to my new friend \xe2\x98\xba\xf0\x9f\x92\x9b'
p1043
aS'so to he handsome \xf0\x9f\x92\x9b\xf0\x9f\x98\x89'
p1044
aS'so to she should follow me'
p1045
aS'so to she got a booooooty  \xf0\x9f\x92\x9b'
p1046
aS'so to she gorgeous \xe2\x98\xba\xf0\x9f\x92\x9b'
p1047
aS'so to follow her after she follow me  '
p1048
aS'so to she smexxxxxxy \xf0\x9f\x92\x9b\xf0\x9f\x98\x89'
p1049
aS'so to she pretty amp should follow me \xf0\x9f\x92\x9b\xe2\x98\xba'
p1050
aS'nfb '
p1051
aS'fb'
p1052
aS'heey  i know you dont know me lol but can you do me a quick favor please'
p1053
aS'lmfao whaaat thee fuuuh '
p1054
aS'nfb '
p1055
aS'fb'
p1056
aS'so to my baaaby girl '
p1057
aS'sos \xf0\x9f\x92\x9b\xe2\x98\xba retweeeeet'
p1058
ag462
aS'\xf0\x9f\x98\x8f'
p1059
aS'who wanna play argue  \xe2\x80\x9d'
p1060
aS'\xf0\x9f\x98\x82\xf0\x9f\x91\x8f\xf0\x9f\x91\x8f\xf0\x9f\x91\x8f'
p1061
aS'ya booty stank'
p1062
aS'ya girlfriend wanna be like me  tell her get on her grind '
p1063
aS'who wanna play argue  '
p1064
aS'\xf0\x9f\x92\x9b\xf0\x9f\x98\x98'
p1065
aS'\xf0\x9f\x98\x89\xf0\x9f\x92\x9a'
p1066
aS'thanks boo \xf0\x9f\x98\x98\xf0\x9f\x98\x8e youre bad asf  by the way lmao'
p1067
aS'nfb '
p1068
aS'avi gtgtgtgt'
p1069
aS'lets see if she cheatin'
p1070
aS'imma always be around cuss tuh lh'
p1071
aS'wife come before hoess'
p1072
aS'kellllllll ltltltltltlt yea thts me '
p1073
aS'nfb  '
p1074
aS'follow back'
p1075
aS'dm me'
p1076
aS'nf'
p1077
aS'cant nobody change me\xe2\x80\x9d'
p1078
aS'eahhhh yo wifee is here  032613'
p1079
aS'nfb '
p1080
aS'gtgtgtgtgt avi amp header    fb'
p1081
aS'\xf0\x9f\x98\x92 whatever fool'
p1082
aS'obeyj0mael \xf0\x9f\x98\x82\xf0\x9f\x92\x9b\xe2\x80\x9d lol nobody goin to prom with u anyway'
p1083
aS'oh god kell got my password now \xf0\x9f\x92\x9b\xf0\x9f\x98\x82'
p1084
aS'i throw down lhhhh \xf0\x9f\x92\x9b'
p1085
aS'\xf0\x9f\x98\x82\xf0\x9f\x92\x9b'
p1086
aS'obeyj0mael \xf0\x9f\x98\xa1\xf0\x9f\x91\xbf\xe2\x80\x9d lmfao get mad i dont care fuck a prom'
p1087
aS'\xf0\x9f\x92\x9b\xf0\x9f\x92\x9b\xf0\x9f\x92\x9b\xf0\x9f\x92\x9b'
p1088
aS'meeee '
p1089
aS'uglaaaay '
p1090
aS'you cant eat in front of your man it aint real'
p1091
aS'nigga i farted'
p1092
aS'yea im finna dm it'
p1093
aS'ahaaaaaaa   you cute too '
p1094
aS' meee  you sexy lol '
p1095
aS'\xf0\x9f\x98\xa1\xf0\x9f\x91\xbf'
p1096
aS'\xe2\x80\x9cobeyj0mael proms are gay\xe2\x80\x9d hater\xe2\x80\x9d lmao ppl goin in limos just to dance gay'
p1097
aS'ait aint it in my dm amp you want my password'
p1098
aS'okay teeeeeeteeee lh you know the  '
p1099
aS'who think my avi cute  '
p1100
aS'thanks '
p1101
aS'her avi gtgtgtgt '
p1102
aS'only my wife can call me that'
p1103
aS'hate being called by my gov name  im teeteeeeee  '
p1104
aS'tonica you gone call me later '
p1105
aS'yeaaa  \xf0\x9f\x92\x9c'
p1106
aS'she aint got no neck she look like honey boo boo momma\xf0\x9f\x98\x82\xf0\x9f\x98\x82\xf0\x9f\x98\x82\xf0\x9f\x98\xad'
p1107
aS'im finna start being mean'
p1108
aS'032613'
p1109
aS'kell is my wife btw \xf0\x9f\x98\x8d\xf0\x9f\x98\x98\xf0\x9f\x92\x9b'
p1110
aS'my heaaader \xe2\x9d\xa4\xf0\x9f\x92\x9b keellll is bhaaad   '
p1111
aS'finished'
p1112
aS'the one you like'
p1113
aS'proms are gay\xe2\x80\x9d hater'
p1114
aS'what picture'
p1115
aS'meeeeeeee'
p1116
aS'lmaooooo noooo noooo'
p1117
aS'gone head and say it lol'
p1118
aS'ont know wht to do widt out chu you my  bone lbs'
p1119
aS'bruh it down'
p1120
aS'lol no problem '
p1121
aS'my money loud'
p1122
aS'talk to much kidz'
p1123
aS'shut up  '
p1124
aS'heeeeey  '
p1125
aS'\xf0\x9f\x91\x8b\xf0\x9f\x91\x8b\xf0\x9f\x91\x8b'
p1126
aS'avi rate 10 \xe2\x80\x9d thanks cutie   '
p1127
aS'my followers ltltltltlt \xf0\x9f\x98\x92 they scary and dont wanna speak '
p1128
aS'my summer starting off kinda bad  '
p1129
aS'sometimes i be wanting to be with my wife'
p1130
aS'who want a avi rate though  retweeet'
p1131
aS'cant nobody change me'
p1132
aS'im one of a kind'
p1133
aS'wanna meet someone new follow member of teambisexual teambisexuwell'
p1134
aS'what can spoil your day \xe2\x80\x94 somebody that makes me mad'
p1135
aS'sos retweeet \xee\x81\x96\xee\x90\x98'
p1136
aS'im watching little man \xf0\x9f\x98\x81\xf0\x9f\x91\x8f'
p1137
aS'cant nobody be like me'
p1138
aS'i got shooters up top'
p1139
aS'who wanna be my header rt'
p1140
aS'ya bitcchh teetee was on this mfcccxka    follow my skinny asssssss \xf0\x9f\x92\x9b\xf0\x9f\x98\x8f i love you bunniieeeeee cuhhhh   '
p1141
aS'im in the gaypride   \xf0\x9f\x92\x9b\xf0\x9f\x98\x8f follow meeeeeee teambisexual teamfemme'
p1142
aS'false claimers'
p1143
aS'i have been catfished'
p1144
aS'i hate my momma girlfriend'
p1145
aS'i see '
p1146
aS'april 25th'
p1147
aS'17'
p1148
aS'if you cant see emojis ltltltltltlt'
p1149
aS'i aint done growing \xf0\x9f\x98\x8f'
p1150
aS'ayee i was born there but tell her i said gws\xe2\x80\x9d will do \xf0\x9f\x91\x8c'
p1151
aS'not true'
p1152
aS'at barnes hospital with my momma '
p1153
aS'my wife  tonica deon marie watts lt3'
p1154
aS'my mom my everything \xf0\x9f\x92\x9b\xf0\x9f\x99\x8f'
p1155
aS'my wife mikell destiny nunely \xe2\x9d\xa4\xf0\x9f\x92\x9b'
p1156
aS'she my wife foreva'
p1157
aS'i hate to hear about ppl mama inns hospital it just make me think ofv mine  gws tonica mama'
p1158
aS'just cleaned my momma face they aint been wiping off her face'
p1159
aS'i hope tonica mama be okay'
p1160
aS'rns'
p1161
aS'tonica i wish i was too tell her for me gws she got thss and i love you dm me'
p1162
aS'why is it that like 999 of girls look thin and cute in over sized shirts but i look like a beanbag'
p1163
aS'dont judge me for things i did a few seconds ago ive changed since then'
p1164
aS'32613 nmw'
p1165
aS'kell i wish you were here with me i cant see my momma like this alone lt3'
p1166
aS'032613 nmw'
p1167
aS'ont need ah new one lt3'
p1168
aS'i love you too tonica nmw'
p1169
aS'my momma a soldier though gws \xf0\x9f\x92\x98'
p1170
aS'at the hospital  i cant see my momma like this \xe2\x80\x9d whats wrong '
p1171
aS'at the hospital  i cant see my momma like this '
p1172
aS'wonder if tonica know we getting married'
p1173
aS' no matter how funny you are if i dont like you i wont laugh'
p1174
aS'ok i done changing my avi'
p1175
aS'i love you kell nmw'
p1176
aS'even if im not tweeting im always here a l w a y s scrolling judging judging scrolling thats right i see everything'
p1177
aS'smh'
p1178
aS'you the one said you need ah new wife but ump cool'
p1179
aS'i still got your pw  heeeeey love \xe2\x99\xa5  i miss you lots'
p1180
aS'guess im wifeless now \xf0\x9f\x98\x92'
p1181
aS'where do you find diamonds deeep somewhere hidden where do you find pearls deep at te bottom of the ocean in a shell \xe2\x9d\xa4\xf0\x9f\x92\x9b'
p1182
aS'im a channel surfer \xf0\x9f\x98\x8f\xf0\x9f\x91\x8c'
p1183
aS'im watching thats so raven \xe2\x98\xba'
p1184
aS'wife less lt3 cool'
p1185
aS'i need ah wife lt3'
p1186
aS'we need ppl to dance widt'
p1187
aS'i know how to do the red noseeeeeeeee  duh'
p1188
aS' just got off facebook  i hate det sht'
p1189
aS'teamkrush doing the red nose killing shht'
p1190
aS'i cant stand stacey'
p1191
aS'sometimes i just get really sad because i\xe2\x80\x99ll never know what a krabby patty tastes like'
p1192
aS'meowing at cats until they meow back'
p1193
aS'you gotta thug out what comes towards you \xe2\x9c\x8a'
p1194
aS'goodmorning and so to shes hella pretty and she hella cool or we follow her pretty ass p'
p1195
aS'goodmorning sos retweet'
p1196
aS'hell yeah lol\xe2\x80\x9d lol your silly \xe2\x98\xba'
p1197
aS'twife  \xf0\x9f\x98\x8a\xf0\x9f\x98\x98\xf0\x9f\x98\x98\xf0\x9f\x98\x8d'
p1198
aS'1 rule nigga show no love  guccimane'
p1199
aS'dont get her pregnant '
p1200
aS'lol you gone stare'
p1201
aS'if you stare imma wink at you ugly or not lbs ok '
p1202
aS'he was like how you know how to fight like that amp you cute i said nigga ill beat you'
p1203
aS'i cracked ol dude yesterday bee'
p1204
aS'now following \xe2\x9c\x94'
p1205
aS'hate a mufucker thats trying play me like im stoopid'
p1206
aS'ill crack anybody in gc for my cousin bee'
p1207
aS'im single amp out cheaaaa today '
p1208
aS'cant nobody take yo spot '
p1209
aS'i gotchu boo '
p1210
aS'if you stare imma wink at you ugly or not lbs'
p1211
aS'you look high innit  bt its still nice y'
p1212
aS'okay cutie dont be faaake \xf0\x9f\x98\x89'
p1213
aS'nfb  amp yessss\xef\xbc\x81 '
p1214
aS'teehee blushes thanks  \xf0\x9f\x98\x98\xf0\x9f\x98\x8d lol welcome'
p1215
aS'twifey \xf0\x9f\x92\x9b\xe2\x98\xba'
p1216
aS'onna set'
p1217
aS'fb \xf0\x9f\x92\x9b\xf0\x9f\x98\x89'
p1218
aS'lol why that'
p1219
aS'twifey'
p1220
aS'im so mean ahhhhh'
p1221
ag462
aS'annoying bastards ltltltltlt get off that'
p1222
aS'i wont lol'
p1223
aS'nfb \xf0\x9f\x98\x89\xf0\x9f\x92\x9b'
p1224
aS'fb  '
p1225
aS'if she aint got a booty she cant get me'
p1226
aS'wonder if shawty got a booty'
p1227
aS'what if i get tatted on my fce lhh waits for replys'
p1228
aS'meeeeeeeeeeeeeeeeeee  '
p1229
aS'i aint ate yet \xf0\x9f\x98\x93\xe2\x80\x9d'
p1230
aS'i would like to get to know'
p1231
aS'twifey rt \xf0\x9f\x92\x9b\xe2\x98\xba'
p1232
aS'lol thanks'
p1233
aS'lil shawty you to cute lol '
p1234
aS'maneeeee when i get tatted cant nobody tell me nothing'
p1235
aS'when your crush says your avi is cute gtgtgtgtgtgt \xf0\x9f\x98\x8d'
p1236
aS'teehee blushes thanks  \xf0\x9f\x98\x98\xf0\x9f\x98\x8d'
p1237
aS'should i keep my avi yes or no yes  \xf0\x9f\x98\x8d'
p1238
aS'hot fries taste the best when they aint yours\xe2\x80\x9d rt'
p1239
aS'i been gone for too long and its time to bring it back \xf0\x9f\x98\x89'
p1240
aS'dont work for it then when you get it do stupid thanngs \xf0\x9f\x98\x92'
p1241
aS'i aint ate yet \xf0\x9f\x98\x93'
p1242
aS'my cousin want some problems \xf0\x9f\x98\x8f'
p1243
aS'yess leave it  dont change it again lol'
p1244
aS'\xf0\x9f\x92\x9b\xe2\x98\xba thanks'
p1245
aS'should i keep my avi yes or no\xe2\x80\x9d yes '
p1246
aS'thanks \xf0\x9f\x92\x9b\xe2\x98\xba'
p1247
aS'yes its cute '
p1248
aS'should i keep my avi yes or no'
p1249
aS'i hate when people think they know me  niggggggga you dont know the inside teetee bee '
p1250
aS'try me in thss club amp imaa shut i down early '
p1251
aS'new avi   throw back'
p1252
aS'i never dated a white boy'
p1253
aS'my name teetee'
p1254
aS'i aint made at you'
p1255
aS'keep calm idgaf'
p1256
aS'where have yall been its been thot season '
p1257
aS'i love taking deep breathes to calm myself down then punch you in the face'
p1258
aS'i love being random'
p1259
aS'kaays'
p1260
aS'exactly lol but we can be real again'
p1261
aS'im tight like that \xe2\x98\xba'
p1262
aS'you lie to me and i know you lying imma go along with it and see how far youll go'
p1263
aS'my bessfran tweeting real shit gt'
p1264
aS'streets a get you killed '
p1265
aS'golden grahams is my favorite cereal \xf0\x9f\x91\x8c\xe2\x98\xba'
p1266
aS'well if im fake for not talkin to you  what does that make you lol\xe2\x80\x9d fake \xf0\x9f\x98\x9e lol'
p1267
aS'you hurt me i hurt you'
p1268
aS'i can thug by myself '
p1269
aS'home  lol you just fake and never write me anymore'
p1270
aS'where you been'
p1271
aS'cause what if i dont feel like replying awe'
p1272
aS'dont speak only when you feel like it'
p1273
aS'god knows im a strong individual'
p1274
aS'\xe2\x98\xba\xf0\x9f\x92\x9b'
p1275
aS'\xf0\x9f\x98\x8d'
p1276
aS'if you gone stunt go stunt somewhere away from me'
p1277
aS'when i think about it aint nobody real but the people i been messin with not the ones that in and out my life'
p1278
aS'watching coach carter'
p1279
aS'i hold down my momma'
p1280
aS'yesterday me and kayla was spazzinnng priceless \xf0\x9f\x91\x8c'
p1281
aS'sometimes i be like i dont need nobody cause tbh i dont'
p1282
aS'you gotta thug out what comes towards you \xe2\x9c\x8a'
p1283
aS'i woke up blessed \xf0\x9f\x99\x8f'
p1284
aS'nf fb \xf0\x9f\x92\x9b'
p1285
aS'goodmorning tl \xf0\x9f\x92\x9b\xf0\x9f\x98\x9e'
p1286
aS'nfb'
p1287
aS'fb'
p1288
aS'yes im okay amp no '
p1289
aS'are yhu okay and she doing better'
p1290
aS'please \xf0\x9f\x98\x9e'
p1291
aS'pray for my momma '
p1292
aS'is too official'
p1293
aS'try to touch my sht watch all 10 of yo fingers be across the room'
p1294
aS'wow im sorry to hear that hope she can rest shell be fine just think positive and be strong for her'
p1295
aS'she has severe asthma  and she sick'
p1296
aS'im so sleepy but im gone be up all night watching my momma breathe hard \xf0\x9f\x98\x9e\xf0\x9f\x92\x9b    what happened'
p1297
aS'im so sleepy but im gone be up all night watching my momma breathe hard \xf0\x9f\x98\x9e\xf0\x9f\x92\x9b   '
p1298
aS'\xf0\x9f\x99\x8f\xf0\x9f\x99\x8f\xf0\x9f\x99\x8f\xf0\x9f\x99\x8f\xf0\x9f\x99\x8f\xf0\x9f\x99\x8f\xf0\x9f\x99\x8f\xf0\x9f\x99\x8f\xf0\x9f\x99\x8f\xf0\x9f\x99\x8f\xf0\x9f\x99\x8f\xf0\x9f\x99\x8f everyone please pray for and her mommy please pray for them \xf0\x9f\x99\x8f\xf0\x9f\x99\x8f\xf0\x9f\x99\x8f\xf0\x9f\x99\x8f\xf0\x9f\x99\x8f\xf0\x9f\x99\x8f\xf0\x9f\x99\x8f\xf0\x9f\x99\x8f\xf0\x9f\x99\x8f\xf0\x9f\x99\x8f\xf0\x9f\x99\x8f\xf0\x9f\x99\x8f\xf0\x9f\x99\x8f\xf0\x9f\x99\x8f\xf0\x9f\x99\x8f\xf0\x9f\x99\x8f\xf0\x9f\x99\x8f\xf0\x9f\x99\x8f\xf0\x9f\x99\x8f\xf0\x9f\x99\x8f\xf0\x9f\x99\x8f\xf0\x9f\x99\x8f\xf0\x9f\x99\x8f\xf0\x9f\x99\x8f\xf0\x9f\x99\x8f\xf0\x9f\x99\x8f\xf0\x9f\x99\x8f\xf0\x9f\x99\x8f\xf0\x9f\x99\x8f\xf0\x9f\x99\x8f\xf0\x9f\x99\x8f\xf0\x9f\x99\x8f\xf0\x9f\x99\x8f\xf0\x9f\x99\x8f\xe2\x80\xa6'
p1299
aS'\xf0\x9f\x99\x8f\xf0\x9f\x99\x8f\xf0\x9f\x99\x8f\xf0\x9f\x99\x8f\xf0\x9f\x99\x8f\xf0\x9f\x99\x8f\xf0\x9f\x99\x8f\xf0\x9f\x99\x8f\xf0\x9f\x99\x8f\xf0\x9f\x99\x8f\xf0\x9f\x99\x8f\xf0\x9f\x99\x8f everyone please pray for and her mommy please pray for them \xf0\x9f\x99\x8f\xf0\x9f\x99\x8f\xf0\x9f\x99\x8f\xf0\x9f\x99\x8f\xf0\x9f\x99\x8f\xf0\x9f\x99\x8f\xf0\x9f\x99\x8f\xf0\x9f\x99\x8f\xf0\x9f\x99\x8f\xf0\x9f\x99\x8f\xf0\x9f\x99\x8f\xf0\x9f\x99\x8f\xf0\x9f\x99\x8f\xf0\x9f\x99\x8f\xf0\x9f\x99\x8f\xf0\x9f\x99\x8f\xf0\x9f\x99\x8f\xf0\x9f\x99\x8f\xf0\x9f\x99\x8f\xf0\x9f\x99\x8f\xf0\x9f\x99\x8f\xf0\x9f\x99\x8f\xf0\x9f\x99\x8f\xf0\x9f\x99\x8f\xf0\x9f\x99\x8f\xf0\x9f\x99\x8f\xf0\x9f\x99\x8f\xf0\x9f\x99\x8f\xf0\x9f\x99\x8f\xf0\x9f\x99\x8f\xf0\x9f\x99\x8f\xf0\x9f\x99\x8f\xf0\x9f\x99\x8f\xf0\x9f\x99\x8f\xf0\x9f\x99\x8f\xf0\x9f\x98\x9e\xe2\x9d\xa4'
p1300
aS'okay'
p1301
aS'welcum wann just right me later'
p1302
aS'im straight sad frl\xe2\x80\x9d'
p1303
aS'i swear to god  if she go i go str88'
p1304
aS'im try to cheer here up later wen i get to no here'
p1305
aS'hope hers moms okay'
p1306
aS'i cant help the tears falling   i cant help the pain filled in my heart   \xf0\x9f\x98\x9e'
p1307
aS'please i need all i can take  \xe2\x80\x9d will do'
p1308
aS'never will i leave her side   \xf0\x9f\x98\x9e thanks '
p1309
aS'i didnt no that im sorry i hope feel better \xf0\x9f\x99\x8f ill keep her in my heart and pray u just make sure u always bye h\xe2\x80\xa6'
p1310
aS'please i need all i can take  '
p1311
aS'\xf0\x9f\x98\x9e\xf0\x9f\x98\x94 i cant \xe2\x80\x9d well  im praying for you and your mom love \xf0\x9f\x99\x8f\xf0\x9f\x98\x9e'
p1312
aS'dont make a promise you dont think you can keep    lt3'
p1313
aS'my momma in pain  im in pain'
p1314
aS'\xf0\x9f\x98\x9e\xf0\x9f\x98\x94 i cant '
p1315
aS'my momma \xe2\x80\x9d well i know you dont wanna talk about but i hope everything be okay and whip \xe2\x80\xa6'
p1316
aS'my momma got tears running down her eyes   '
p1317
aS'my mom in this hospital bed gasping for air  i dont think i can stay calm anymore   \xf0\x9f\x98\x9e'
p1318
aS'u dont need to cry u get throw it just keep your head up dont bring your self down u to cute and beautiful for\xe2\x80\xa6'
p1319
aS'my momma '
p1320
aS'i cant stop crying  \xe2\x80\x9d whats wrong  \xf0\x9f\x98\x9e'
p1321
aS'yall just dont know what i go through    \xf0\x9f\x98\x9e'
p1322
aS'i cant stop crying  '
p1323
aS'i can never sleep at night \xe2\x80\x9d'
p1324
aS'im crying sooooo hard man  '
p1325
aS'keep her in your prayers tonight   '
p1326
aS'pray for my momma please   '
p1327
aS'i miss you tooo'
p1328
aS'i miss '
p1329
aS'pray for my mother guys   lt3 \xf0\x9f\x98\x9e'
p1330
aS'this dont make no sense  \xf0\x9f\x98\x94\xf0\x9f\x98\x9e'
p1331
aS'im depressed'
p1332
aS'ughhh'
p1333
aS'in the hospital for the night    lt3'
p1334
aS'follow back'
p1335
aS'why am i getting so many beautiful followers today '
p1336
aS'hey tl \xf0\x9f\x91\x8b'
p1337
aS'ill kiss ur face off'
p1338
aS'when a teacher is pregnant everyone awww congratulations me she  had sex \xf0\x9f\x98\xa8'
p1339
aS'snapshot a get chu caught up i can get a couple people but i wont that aint me'
p1340
aS'pandora vibinnnn gtgtgtgt \xf0\x9f\x91\x8c'
p1341
aS'mikayla jump i jump str88 '
p1342
aS'i ride for mines through whatever'
p1343
aS'imma rider'
p1344
aS'i got that a1 credit   '
p1345
aS'twitter jail be like  \xe2\x80\x9c stfu  \xf0\x9f\x98\xa0 i be quiet \xf0\x9f\x91\x8c\xf0\x9f\x99\x8a but when i get out \xf0\x9f\x8f\x83\xf0\x9f\x94\x90 i be tweeting again \xf0\x9f\x98\x82\xe2\x80\x9d'
p1346
aS'dominican  italian black is that a cute baby'
p1347
aS'ur welcome lt3'
p1348
aS'he said i looked like a goddess \xe2\x98\xba'
p1349
aS'thanks \xf0\x9f\x98\x98\xf0\x9f\x92\x9b'
p1350
aS'so thats why ur so idek how to explain it but u look like a goddess hahahah'
p1351
aS'im dominican '
p1352
aS'whats your ethnicity'
p1353
aS'gucci mane gtgtgtgt thats my nigga '
p1354
aS'lh  yesss yesss  \xe2\x99\xa1\xe2\x9c\x94'
p1355
aS'nfb'
p1356
aS'fb'
p1357
aS'5 more days of school \xf0\x9f\x91\x8c\xf0\x9f\x98\x81\xf0\x9f\x99\x8f finally'
p1358
aS'so rt'
p1359
aS'you welcome'
p1360
aS'so too  she pretty legit go follow '
p1361
aS'i got fans'
p1362
aS'im cooler  than a cooler \xe2\x80\x9d sisteeeeer you vibing to that too \xf0\x9f\x92\x9b'
p1363
aS'so  rt \xe2\x9d\xa4\xf0\x9f\x98\x98\xf0\x9f\x98\x8b'
p1364
aS'im cooler than a cooler cute'
p1365
aS'thank you \xf0\x9f\x92\x9b'
p1366
aS'2 girls 1 cup'
p1367
aS'where the hoesss'
p1368
aS'what if they lied lol\xe2\x80\x9d\xf0\x9f\x94\xab\xf0\x9f\x94\xab\xf0\x9f\x94\xab\xf0\x9f\x94\xab\xf0\x9f\x94\xab\xf0\x9f\x94\xab\xf0\x9f\x94\xab\xf0\x9f\x94\xab\xf0\x9f\x94\xab\xf0\x9f\x94\xab'
p1369
aS'hallelujeh  \xf0\x9f\x92\x9b'
p1370
aS'say cheif sosa broke  thats a rumor '
p1371
aS'exactly im ready to see it '
p1372
aS'been waiting on that for hellas'
p1373
aS'rt for a so only doin the ones i want thou'
p1374
aS'im hustlin this summer bee'
p1375
aS'dinah take me as ah joke'
p1376
aS'sometimes i hate people '
p1377
aS'when the new friday movie come out  confused \xf0\x9f\x98\x92'
p1378
aS'wait until this summergtgtgt\xe2\x80\x9d rt'
p1379
aS'cause who finna change for anybody not teetee'
p1380
aS'phone full of gucci\xe2\x80\x9d rt'
p1381
aS'i godda attitude'
p1382
aS'when somebody i love care about how i feel gtgtgtgtgtgtgt \xf0\x9f\x92\x9b'
p1383
aS'thanks '
p1384
aS'i love when people rub their fingers through my hair while i go to sleep \xf0\x9f\x92\x9b\xe2\x98\xba'
p1385
aS'dont lie nigga i already know the truth'
p1386
aS'thanks \xf0\x9f\x98\x98\xf0\x9f\x92\x9b\xf0\x9f\x98\x89\xe2\x80\x9d welcome boo \xf0\x9f\x98\x8d\xf0\x9f\x98\x98\xe2\x9d\xa4'
p1387
aS'im too thick to walk through this door lhhhh \xf0\x9f\x98\x81'
p1388
aS'thanks \xf0\x9f\x98\x98\xf0\x9f\x92\x9b\xf0\x9f\x98\x89'
p1389
aS'avi gtgtgtgtgtgt \xf0\x9f\x98\x8d\xe2\x9d\xa4\xe2\x9d\xa4\xf0\x9f\x98\x8d'
p1390
aS'imma be south today or tomorrow im thuggin on my og  rip'
p1391
aS'i cant complain'
p1392
aS'im weak he said forget that nigga named finals '
p1393
aS'im just poppin bands \xf0\x9f\x98\x89\xf0\x9f\x91\x8f\xf0\x9f\x91\x8f\xf0\x9f\x91\x8f'
p1394
aS'smoking on kesha cole'
p1395
aS'no lie spanish amp black females do it best  \xf0\x9f\x98\x81\xe2\x98\xba\xf0\x9f\x98\x8d\xf0\x9f\x99\x8c'
p1396
aS'if i dont like you i dont \xf0\x9f\x99\x8atalk\xf0\x9f\x99\x8a withto you i dont \xf0\x9f\x99\x89listen\xf0\x9f\x99\x89 to you and i pretend like i dont \xf0\x9f\x99\x88see\xf0\x9f\x99\x88 you'
p1397
aS'those atampt commericals with the kids gtgtgtgtgtgtgtgtgtgtgtgtgtgtgtgtgtgtgtgt \xf0\x9f\x98\x82\xf0\x9f\x98\xad\xf0\x9f\x98\x82'
p1398
aS'summer breaaaaak \xf0\x9f\x92\x9b\xe2\x9c\x8c'
p1399
aS'gm'
p1400
aS'nfb'
p1401
aS'nf'
p1402
aS'goodmorning tl \xf0\x9f\x92\x9b\xf0\x9f\x98\x98'
p1403
aS'niggas claim 300 add a k you done'
p1404
aS'goodmorning \xf0\x9f\x92\x9b\xf0\x9f\x98\x98'
p1405
aS'ah ok though u forgot about me  but u got a kik \xe2\x80\x9d yeaaa'
p1406
aS'i reply to everyone im not hollywood'
p1407
aS'my dm messing up  '
p1408
aS'i hate outsiders'
p1409
aS'im going to the gay prideeeee  '
p1410
aS'dominican pride \xf0\x9f\x98\x98\xf0\x9f\x92\x9b'
p1411
aS'thank you  n cydm'
p1412
aS'if somebody fall asleep on the phone their either really tired or tired of hearing you'
p1413
aS'im schleepy'
p1414
aS'i cant help who i attract'
p1415
aS'hahaha ight'
p1416
aS'i guess im up for a while '
p1417
aS'lol i bet you would well gone to sleep then\xe2\x9c\x8c\xf0\x9f\x98\x8c'
p1418
aS'i just got home like an hour ago lol im just now lying down to sleep and thats nice i woulda stayed asleep th\xe2\x80\xa6'
p1419
aS'hello there cutieeeeee  '
p1420
aS'\xf0\x9f\x98\x8a'
p1421
aS'woke up out of my sleep to say happy birthday to my sister  why are you'
p1422
aS'what you doing up this late '
p1423
aS'hey beautiful\xe2\x80\x9d hello \xe2\x98\xba'
p1424
aS'\xf0\x9f\x98\x92\xf0\x9f\x94\xab '
p1425
aS'the way i like to sleep is not meant for cuddling\xe2\x80\x9d lol  \xe2\x98\xba'
p1426
aS'can anybody mention me \xf0\x9f\x98\x92'
p1427
aS'it feels good bumping to your own music \xf0\x9f\x91\xbf\xf0\x9f\x93\xa2\xf0\x9f\x8e\xa4\xf0\x9f\x8e\xa7'
p1428
aS'sleeping is nice because youre not actually dead and youre not awake so its a winwin situation'
p1429
ag462
aS'\xf0\x9f\x98\x92'
p1430
aS'my mom was on her way here then she got a flat tire  im pissed'
p1431
aS'my summer has begun \xf0\x9f\x98\x8f\xf0\x9f\x92\x9b'
p1432
aS'teetee need a make a red nose video with me lbs'
p1433
aS'grrrrrr \xf0\x9f\x98\x92'
p1434
aS'welp my sister is leaving me to go to the senior sunset  \xf0\x9f\x98\x92'
p1435
aS'i live on the south now'
p1436
aS'i have no fl'
p1437
aS'my sister talk so white otp no offense'
p1438
aS'dont drop that thun thun thun \xf0\x9f\x8e\xb6'
p1439
aS'i told my mama amp everybody if i see one of my old friends getting jumped ima walk pass amp laugh amp say bitch you wish had me \xe2\x80\xa6'
p1440
aS'women who workout gtgtgtgt \xf0\x9f\x98\x8d\xf0\x9f\x98\x8b'
p1441
aS'my head hurt im thinking too much'
p1442
aS'thank youu  avi  gtgtgtgt \xf0\x9f\x92\x9b'
p1443
aS'avi  gtgtgtgt \xf0\x9f\x92\x9b'
p1444
aS'fuck the heat\xe2\x80\x9d\xf0\x9f\x94\xab\xf0\x9f\x94\xab'
p1445
aS'rt for an so  '
p1446
aS'who remembers blowing air into their nintendo 64s to get it to work'
p1447
aS'goodnight mentions w sn   rt'
p1448
aS' retweet for a so'
p1449
aS'shawty wanna catch rec'
p1450
aS'you aint never gone catch me sleeping bee \xf0\x9f\x94\xab'
p1451
aS'i only have weird friends \xe2\x9e\xa1\xe2\x9e\xa1\xe2\x9e\xa1'
p1452
aS'i vibe to gucci mane everyday \xf0\x9f\x8e\xb6\xf0\x9f\x91\x8c'
p1453
aS'change it up make it exciting'
p1454
aS'\xf0\x9f\x98\x98\xf0\x9f\x92\x9b thank you'
p1455
aS'your avi gtgtgtgtgt  \xf0\x9f\x98\x8d\xf0\x9f\x98\x98'
p1456
aS'im comfortable with you when  im weird with you  i sing whatever song comes into my mind  i say whats on my mind  i talk nonsense'
p1457
aS'when my ex downgrade i get a attitude but happy a little '
p1458
aS'my neighbors were always snitching on me'
p1459
aS'lowkey she dont want the problems'
p1460
aS'fuck tha op'
p1461
aS'my followers dont ever wanna talk to me  i guess they dont like me lol  i dont gaf \xe2\x9c\x8c'
p1462
aS'i hold mines down dont trip'
p1463
aS'np boosie x dirty world'
p1464
aS'wadeeee  turnppp'
p1465
aS'i wanna go to the moon and stay there'
p1466
aS'this song reminds me of oomf ctfuu    ahaa'
p1467
aS'get a life'
p1468
aS'grow up'
p1469
aS'im so irked by these petty little boys im doneeeeeeee'
p1470
aS'keep calm  iont care bout ya'
p1471
aS'he so petty bye kid'
p1472
aS'put up a video big head'
p1473
aS'im so angry grrrrrr \xf0\x9f\x98\x92'
p1474
aS'now i got to buy another lip ring  gone be my 3rd one this month'
p1475
aS'im wanted to slap the taste out of mikayla bruh '
p1476
aS'she just made me mad beee'
p1477
aS'mikayla lost my lip ball  trick'
p1478
aS'the red nose dance gtgtgtgtgt i added whining into it   '
p1479
aS'hannnnnk'
p1480
aS'teeeeheee   thankssssss baaaaby \xf0\x9f\x98\x81\xf0\x9f\x91\x8c\xe2\x9d\xa4'
p1481
aS'cough cough yourssssss'
p1482
aS'this movie though gtgtgt'
p1483
aS'imma make it gooood'
p1484
aS'mane my summer gone braaack'
p1485
aS'lol im so goofy'
p1486
aS'im dopessss'
p1487
aS'omg im on summe break '
p1488
aS'lol somebodys avi is looking pretty good\xe2\x80\x9d \xf0\x9f\x98\xb3 looks around whos'
p1489
aS'teehee  '
p1490
aS'whateveeeeer  '
p1491
aS'i need some koolaid '
p1492
aS'lhhhhhh so im so happy'
p1493
aS'i dont even know what i just said '
p1494
aS'woopohoooo'
p1495
aS'im on summer break '
p1496
aS'my last day was todaaaay \xf0\x9f\x98\x81\xe2\x9c\x8c'
p1497
aS'\xf0\x9f\x98\x81\xf0\x9f\x91\x8c\xe2\x9d\xa4 thankssssss  '
p1498
aS'\xf0\x9f\x98\x81\xf0\x9f\x92\x9b'
p1499
aS'\xf0\x9f\x91\x80\xf0\x9f\x91\x80'
p1500
aS'gudmorning wit yo gorgeous self lt3 avi100000'
p1501
aS' goodmorning  follow me on here if you didnt already amp on ig funsiiszedx3  dont follow to unfollow '
p1502
aS'goodmorning fb'
p1503
aS'goodmorning cutie'
p1504
aS'goodmorningg  followme'
p1505
aS'goodmorninggg \xf0\x9f\x91\x8b\xf0\x9f\x91\x8b fb'
p1506
aS'to see what i den messed up while i was asleep'
p1507
aS'when i wake up first place i go is the bathroom'
p1508
aS'goodmorning mentions  retweet'
p1509
aS'goodmorningg mentions  rt anybody'
p1510
aS'goodmorning mentions  rt '
p1511
aS'gooodmoring tl   fame'
p1512
aS'good morning all my sexi teamlesbian teamhomo teamlgbt teamstud teamfemme teamstem'
p1513
aS'goodmorning mentions retweet \xf0\x9f\x98\xbb\xf0\x9f\x98\x98\xe2\x9c\xa8'
p1514
aS'goodmorning mentions '
p1515
aS'special goodmorning mentions w avi rate  doing all'
p1516
aS' goodmorning mentions    rt retweet rt '
p1517
aS'good morning mentionstexts gtgtgtgtgt'
p1518
aS'im so schleepy'
p1519
aS'good morning tl \xf0\x9f\x98\x98\xf0\x9f\x92\x9b\xf0\x9f\x9a\xb6\xf0\x9f\x9a\xb6\xf0\x9f\x8f\x83\xf0\x9f\x8f\x83\xf0\x9f\x8f\x83\xf0\x9f\x92\xa8\xf0\x9f\x92\xa8\xf0\x9f\x92\xa8\xf0\x9f\x92\xa8\xf0\x9f\x92\xa8'
p1520
aS'ladies love me '
p1521
aS'i been thinking about you baby amp everything you do '
p1522
aS'look me in my eyes'
p1523
aS'feel my pain'
p1524
aS'family guy time \xf0\x9f\x98\x8f\xf0\x9f\x91\x8b'
p1525
aS'goodnight tl waits for replys \xf0\x9f\x98\x92\xe2\x9c\x8c gooodni  nvm lol\xe2\x80\x9d\xf0\x9f\x98\x92\xf0\x9f\x91\x8d'
p1526
aS' nighty night lt3'
p1527
aS'\xf0\x9f\x98\x98\xf0\x9f\x91\x8b'
p1528
aS'good night goodnight tl waits for replys \xf0\x9f\x98\x92\xe2\x9c\x8c\xe2\x80\x9d\xe2\x80\x9d\xf0\x9f\x98\x8f\xf0\x9f\x91\x8c\xe2\x80\x9d \xf0\x9f\x98\x89'
p1529
aS'good night goodnight tl waits for replys \xf0\x9f\x98\x92\xe2\x9c\x8c\xe2\x80\x9d\xe2\x80\x9d\xf0\x9f\x98\x8f\xf0\x9f\x91\x8c'
p1530
aS'goodnight tl waits for replys \xf0\x9f\x98\x92\xe2\x9c\x8c'
p1531
aS'i hate her guts'
p1532
aS'i hate her'
p1533
aS'idc about her anymore she ruined it'
p1534
aS'smh i hate when i get attached to the wrong ppl ltltltltlt\xe2\x80\x9d \xf0\x9f\x98\x92\xf0\x9f\x91\x8d'
p1535
aS'ok after i eat im going to bed '
p1536
aS'yay '
p1537
aS'chickennn'
p1538
aS'im so hungry'
p1539
aS'finna eat'
p1540
aS'so she hella cute  everybody go follow her '
p1541
aS'sos '
p1542
aS'avi for them savages '
p1543
aS'im weak'
p1544
aS'im not leaving the house tomorrow'
p1545
aS'why u make that face and you aint gone fwm tmar'
p1546
aS'team idgaaaaaaaaaaaaf'
p1547
aS' amp im cooling im not going nowere'
p1548
aS'stephanie can get iiiiiiiiiit lbs and its cool  wyo tmar after school can i hang w u '
p1549
aS'tanesha and this whipped creaaaaaaam gtgtgtgt'
p1550
aS'yea lol but naw i cantt'
p1551
aS'that mf was that crack wasnt it lol just with the 2 gay girls doe ctfu can u oovoo me'
p1552
aS'thugga trillz   thats my stage nameeee \xf0\x9f\x98\x82\xf0\x9f\x91\x8c'
p1553
aS'did he really just call me handsome lbs \xf0\x9f\x98\x82\xf0\x9f\x91\x8f\xf0\x9f\x91\x8c'
p1554
aS'so now you wanna speak shrugs'
p1555
aS'watching the reunion part2 bgc again'
p1556
aS'wyd punk'
p1557
aS'i wouldnt mind being in love during the summer time  late nights amp sht  yea lol'
p1558
aS' all i do is vibe to boosie'
p1559
aS'ugh'
p1560
aS'teetee  \xe2\x80\x9d what'
p1561
aS'whaaaat'
p1562
aS'ayeeee lol wtf is up skinnyminnie'
p1563
aS'lol you knowwwww it  \xf0\x9f\x98\x8f'
p1564
aS'just gone take my shit amp \xf0\x9f\x8f\x83\xf0\x9f\x92\xa8\xf0\x9f\x92\xa8\xf0\x9f\x92\xa8\xe2\x9c\x8c wit it lil mama  \xf0\x9f\x98\x8e'
p1565
aS'and yoursssss gtgtgtgtgtgtgtgt \xf0\x9f\x92\x9b\xe2\x9d\xa4'
p1566
aS'yes'
p1567
aS'thank  and your avi gtgtgtgt'
p1568
aS'yes'
p1569
aS'avi gtgtgtgtgt \xf0\x9f\x92\x9b\xf0\x9f\x91\x8c'
p1570
aS'should i keep my avi  yes or no'
p1571
aS'new avi gtgtgtgtgt hope you like'
p1572
aS'all day nigga'
p1573
aS'bgc'
p1574
aS'fb\xe2\x80\x9d nfb'
p1575
aS'lemme find out you gone take the boots instead\xe2\x80\x9d \xf0\x9f\x9a\xb6\xf0\x9f\x9a\xb6\xf0\x9f\x9a\xb6\xf0\x9f\x9a\xb6\xf0\x9f\x9a\xb6\xf0\x9f\x8f\x83\xf0\x9f\x8f\x83\xf0\x9f\x8f\x83\xf0\x9f\x8f\x83\xf0\x9f\x92\xa8\xf0\x9f\x92\xa8\xf0\x9f\x92\xa8\xf0\x9f\x92\xa8\xe2\x9c\x8c\xf0\x9f\x92\xa9'
p1576
aS'i knew it i know everything '
p1577
aS'that on you  lbs '
p1578
aS'i still aint spoke to you smh'
p1579
aS'ill take em  '
p1580
aS'some combat boots \xf0\x9f\x91\xa2\xe2\x9d\x94\xe2\x9d\x93 son  this the best i got \xf0\x9f\x98\x82\xf0\x9f\x98\x82 work with me ma'
p1581
aS'i aint get no sleep cause of yall  yall aint gettin no sleep cause of meeeeee '
p1582
aS'250shit'
p1583
aS'oh goshhh noooooo lol \xf0\x9f\x98\x82\xf0\x9f\x98\x82\xf0\x9f\x98\xb7'
p1584
aS'awww man ill get you the crocs then \xf0\x9f\x91\xa1\xf0\x9f\x98\x82\xf0\x9f\x98\x82'
p1585
aS'\xf0\x9f\x98\x93 those hurt my feet  lol'
p1586
aS'\xf0\x9f\x98\x82\xf0\x9f\x98\x82\xf0\x9f\x98\x82 shade tho  but check my shoes \xf0\x9f\x91\xa0  \xf0\x9f\x8e\xa4long heels red bottoms \xf0\x9f\x92\x83\xf0\x9f\x92\x83'
p1587
aS'thankya baby'
p1588
aS'follow back\xe2\x80\x9d nfb \xf0\x9f\x98\x8f'
p1589
aS'ehhh 627 birthdaytweet for dinah i guess'
p1590
aS'ayeeee 627 my birthday tweet bitches   cancer\xe2\x80\x9d 627'
p1591
aS'bz be hatin cos i speak whale and ish'
p1592
aS'im ready cuhh bgc10 reunion  '
p1593
aS'\xf0\x9f\x98\xb3 nice dress lol'
p1594
aS'ayeeeee \xf0\x9f\x92\x83\xf0\x9f\x92\x83'
p1595
aS'ayeeeeee \xf0\x9f\x98\x8f\xf0\x9f\x98\x81'
p1596
aS'seee i be knowing lol talkin bout kinda  you turnt up on the inside'
p1597
aS'that one friend thats friendly with your ex \xe2\x80\x9d rt '
p1598
aS'\xf0\x9f\x92\x9b\xe2\x9d\xa4'
p1599
aS' thank ya \xf0\x9f\x98\x98 yours gt gt gt \xe2\x9d\xa4'
p1600
aS'\xf0\x9f\x98\x82\xf0\x9f\x98\x82\xf0\x9f\x98\x82\xf0\x9f\x98\x82\xf0\x9f\x91\x8c right'
p1601
aS'\xf0\x9f\x98\x8f tryna hold back huh  we all know the rats get us hype \xf0\x9f\x98\x82\xf0\x9f\x98\x82'
p1602
aS'\xf0\x9f\x98\x98 thanks '
p1603
aS'thank you amp yours \xf0\x9f\x98\x8d\xf0\x9f\x98\x8a'
p1604
aS'watchu mean kinda  lol\xe2\x80\x9d causeeeeee lol im too excitedddd '
p1605
aS'lemme quit lurking cuh i forgot i aint nobody girlfriend'
p1606
aS'your avi gtgtgtgtgtgtgt \xf0\x9f\x98\x8d\xf0\x9f\x92\x9b\xf0\x9f\x91\x8c'
p1607
aS'thanks \xee\x90\x94\xee\x90\x97'
p1608
aS'nf fb   amp your avi gtgtgtgtgtgtgt'
p1609
aS'avi gtgtgtgtgt \xf0\x9f\x92\x9b'
p1610
aS'kind of  \xf0\x9f\x98\x8f'
p1611
aS'ready for part 2 tonight '
p1612
aS'mentionnnn me someone'
p1613
aS'paula  gtgtgtgtgtgt \xf0\x9f\x98\x98\xf0\x9f\x98\x8d\xf0\x9f\x92\x9b bgc10'
p1614
aS'currently \xf0\x9f\x93\xba  bad girls girls part 1\xe2\x80\x9d rt'
p1615
aS'somebody mention me'
p1616
aS'summer \xf0\x9f\x91\x8b'
p1617
aS'its gon kill me not to do this'
p1618
aS'i love yours though \xf0\x9f\x98\x8d\xf0\x9f\x92\x9b'
p1619
aS'i like your avi gtgt'
p1620
aS'im sprung  sowhat\xe2\x80\x9d'
p1621
aS' would you believe me if i said im inlove  baby '
p1622
aS'new avi    check it out '
p1623
aS'trick dont kill my vibe edited version'
p1624
aS'im tired of seeing the same faces cuh'
p1625
aS'hey follow back  thanksss'
p1626
aS'typo \xe2\x80\x9d hate those '
p1627
aS'bgc part 2 come on tonight okayyy \xf0\x9f\x91\x8f\xf0\x9f\x91\x8f\xe2\x80\x9d \xf0\x9f\x91\x8f\xf0\x9f\x91\x8f\xf0\x9f\x91\x8f\xf0\x9f\x91\x8f\xf0\x9f\x91\x8f\xf0\x9f\x91\x8f\xf0\x9f\x98\x8f'
p1628
aS'fuck them other niggas imma ride for my nigga  '
p1629
aS'i was gone slap lil mama but god touched her'
p1630
aS'i love boxing  \xf0\x9f\x98\x98\xf0\x9f\x91\x8c'
p1631
aS'black girls hate \xf0\x9f\x98\xa1 getting their hair wet raindrop falls on her face\xf0\x9f\x92\xa7\xf0\x9f\x98\x93 girl ohhhhhhhh fuck no i gotta get the he\xe2\x80\xa6'
p1632
aS'i take no lz '
p1633
aS'i aint pandora vibed in a minute'
p1634
aS'iont like a lot of people'
p1635
aS'phone battery low  \xf0\x9f\x94\x8c\xf0\x9f\x93\xb1\xf0\x9f\x8f\x83\xf0\x9f\x92\xa8\xf0\x9f\x92\xa8\xf0\x9f\x92\xa8\xf0\x9f\x92\xa8\xf0\x9f\x92\xa8\xf0\x9f\x92\xa8\xf0\x9f\x92\xa8\xf0\x9f\x92\xa8\xf0\x9f\x92\xa8'
p1636
aS'dont waste my time'
p1637
aS'bgc gone be the trending topic tonight  '
p1638
aS'lol hell yea'
p1639
aS'yes yes '
p1640
aS'if your tweets are protected delete your twitter'
p1641
aS'twitter  typing what im thinking to everyone reading'
p1642
aS'we learning how to skateboard together lol \xe2\x80\x9d \xf0\x9f\x98\x8f we are dope'
p1643
aS'dont tweet about it be about it\xe2\x80\x9drt'
p1644
aS'new avi   keep or delete'
p1645
aS'what i hate about summer  bugs \xf0\x9f\x90\x9b  bugs \xf0\x9f\x90\x9d  mosquitos \xf0\x9f\x90\x9c  bugs \xf0\x9f\x90\x9e  bugs \xf0\x9f\x90\x9b  mosquitos \xf0\x9f\x90\x9d  bugs \xf0\x9f\x90\x9c  bugs \xf0\x9f\x90\x9e  bugs \xf0\x9f\x90\x9b  bugs \xf0\x9f\x90\x9d'
p1646
aS'i wanna learn how to skateboard frfr \xe2\x80\x9d rt meeeeee tooooo'
p1647
aS'anybody want a shoutouttt retweet '
p1648
aS'wait i have a question\xe2\x80\x9d yes'
p1649
aS'9 \xf0\x9f\x98\xa2\xe2\x80\x9d run to the charger  lbs'
p1650
aS'woopwoop lt3 '
p1651
aS'really lol meet me somewhere today'
p1652
aS'u tite'
p1653
aS'im sleeping on my face tonight'
p1654
aS'8ooo'
p1655
aS'how much she charge bunniie bear'
p1656
aS'thanks a lot'
p1657
aS'mentionnnn meeeee nope \xe2\x80\x9d \xf0\x9f\x98\x92\xf0\x9f\x98\x94'
p1658
aS'mentionnnn meeeee'
p1659
aS'who braided your hair'
p1660
aS'wyddd'
p1661
aS'outside cooling wya'
p1662
aS'yes \xe2\x9d\xa4\xf0\x9f\x92\x9b'
p1663
aS' tonica \xe2\x99\xa5'
p1664
aS'lol \xf0\x9f\x91\x8c\xf0\x9f\x99\x88\xe2\x80\x9d \xf0\x9f\x91\x8d\xf0\x9f\x91\x8b'
p1665
aS'should i listen to oomf or nah \xe2\x80\x9d yes'
p1666
aS'if you ugly asf dont make a twerk video '
p1667
aS'ya gotta tell me fr you accept it first before i believe it\xe2\x80\x9d i accept'
p1668
aS'i feel like ugly mfckas should at least dress cute'
p1669
aS'who page can i upload pictures to'
p1670
aS'very welcome\xe2\x80\x9d follow me  '
p1671
aS'thanks \xf0\x9f\x98\x98\xf0\x9f\x92\x9b'
p1672
aS'follow meeeeee  im teeteeeee    teambisexual teamfemme teamstud \xe2\x9d\xa4'
p1673
aS'tonica im sorry'
p1674
aS'when i promise something or put it on my granny  i tell nothing but the truth'
p1675
aS'imma tell you how it is'
p1676
aS'everytime i turn around somebody stepping on my hands figuratively '
p1677
aS'it hurts manee'
p1678
aS'youll never find nobody thatll wait how long i have been waiting amp still is'
p1679
aS'i stayed to my word kell'
p1680
aS'hate having my feelings hurt'
p1681
aS'im loyal'
p1682
aS'watching a tyler perry movie amp laying down cooling \xf0\x9f\x98\x8c\xf0\x9f\x91\x8c'
p1683
aS'the nerve of people smh'
p1684
aS'my mood ltltltltlt'
p1685
aS'kell making me so angry'
p1686
aS'im moving back onna southsideeeeeeee by fanning'
p1687
aS'i have a idc attitude i was told'
p1688
aS'ohwell'
p1689
aS'cant take it back'
p1690
aS'i love you too pic \xe2\x99\xa5'
p1691
aS'cant nobody take my place'
p1692
aS'everybody not writing me bck lhh i wrote tonica no answer lhh'
p1693
aS'i love danielle even though she retarded \xf0\x9f\x98\x8c\xf0\x9f\x92\x9b'
p1694
aS'wonder if i met my husband yet'
p1695
aS'he always talking bout somebody but nigga you 53  you short'
p1696
aS'umpt'
p1697
aS'i dont care who watching tbh'
p1698
aS'keep my head held high \xf0\x9f\x91\x8c'
p1699
aS'im wearing shorts tomorrow 88 tomorrow'
p1700
aS'memyselfampi'
p1701
aS'iont need friends'
p1702
aS'dont call me baby nigga'
p1703
aS'makayla did good af at open gym\xe2\x80\x9d mikayla'
p1704
aS'iont need friends'
p1705
aS'that koolaid was sour \xf0\x9f\x98\x92'
p1706
aS' john hart x who booty gtgt idc where im at  ima jump up and dance if it comes on \xe2\x80\x9d'
p1707
aS'step down lil homie'
p1708
aS'mane idc who you is'
p1709
aS'nw xx family guy  \xf0\x9f\x91\x8d\xf0\x9f\x91\x8c'
p1710
aS'neecy retarded'
p1711
aS'well we gone be there on time'
p1712
aS'aweee okaaay lh'
p1713
aS'lol sorta '
p1714
aS'danielle im going mention me back'
p1715
aS'hella hot outside posed to be 90degrees tummar \xe2\x80\x9d rt'
p1716
aS'am i flirting oops'
p1717
aS'you a flirt  lhh'
p1718
aS'yea '
p1719
aS'i aint know i wa following you on here bee lbs'
p1720
aS'yeaaa'
p1721
aS'yeah you going'
p1722
aS'my dog messed up my hand '
p1723
aS'ate u going to the volleyball thing'
p1724
aS'do this for me'
p1725
aS'your gorgeoussssssssssss   fb'
p1726
aS'my afro bouncingggggg '
p1727
aS'goodmorning tl    woke up hypeeeeeee amp afro bouncingggggg '
p1728
aS'goodnight tl waits for replys goodnight'
p1729
aS'goodnight pic  \xe2\x9d\xa4'
p1730
aS'goodnight tl waits for replysgoodnight pic \xe2\x99\xa5'
p1731
aS'goodnight tl waits for replys'
p1732
aS'i dont like you ugly niggas that think yall the ish'
p1733
aS'im finna block this frod'
p1734
aS'im just mad right now'
p1735
aS'im glad ion go to that school  i wouldve fought so many times'
p1736
aS'new avi    afroyamming'
p1737
aS'  \xf0\x9f\x92\x9b thannnnks '
p1738
asS'2013_21'
p1739
(lp1740
S' mane im doneeeeeee   im off here though beeeeeee  for i snaaaaap  i feel so offended '
p1741
aS' we have some problems now  '
p1742
aS'brenesha said i date 0506'
p1743
aS'miracle wtf you questioning kell for bee thaaats pettty '
p1744
aS'okay you got the number\xe2\x80\x9d yea i gotchu'
p1745
aS' im off here  bye bye nowwwww  '
p1746
aS' im just gone text you twitter dont need a show'
p1747
aS'huh  how come it dont i tell you tht all the time its nothing bad about why i said i wanna see you happy  thts \xe2\x80\xa6'
p1748
aS' i have said forever too many times  '
p1749
aS' i think im actually makin progress  gtgtgtgt '
p1750
aS'i aint saying nothing nomore dont nothing i say matter to you im just done talking about the situation'
p1751
aS'tonica you talm bout me \xe2\x80\x9d no'
p1752
aS' i think imma delete my twitter account or just stop gettin on it all together'
p1753
aS'ummm wht cha trynna say then lets cut to it '
p1754
aS' everytime i get on twitter though ltltltltltltltlt lbs '
p1755
aS'okay kell arguing aint gone get us nowhere'
p1756
aS'im just letting you know and all thts all and dont do tht nwm to me gtlt'
p1757
aS'where tf my gf at mannn '
p1758
aS'where tf is tonica deon watts at  wtf gtlt'
p1759
aS' i aint stressing nomore if she aint str88'
p1760
aS'cause  nvm its coooooool mikell'
p1761
aS'wht chu talm bout '
p1762
aS'i wanna see you happy no matter who you widt lt3 byee\xe2\x80\x9d you on that bee  chill out '
p1763
aS'follow back pretty'
p1764
aS'where my gorgeous ass gf at tho '
p1765
aS'ya gf on here  \xe2\x99\xa5'
p1766
aS' ughhhhh  '
p1767
aS' trynaaaa get south today  its a mission  '
p1768
aS'tonica was dancing for me in all type of ways today '
p1769
aS' ohhhh lawd  '
p1770
aS'follow back'
p1771
aS' imy more nigga   what makes you miss me  lbs '
p1772
aS'lh  mhmm  imu'
p1773
aS' still sittin here  but now im joanin on people on twitter  lh  wby'
p1774
aS'wyd '
p1775
aS'its funny  punk ass \xe2\x80\x9d  chill out bria frrrrl lhhhh '
p1776
aS' studs gtgtgtgtgt \xf0\x9f\x92\x9b '
p1777
aS' my nigga bria be spazzin on meeeeee lh  '
p1778
aS'lol okaaay'
p1779
aS'hate when you do that  ill dm you '
p1780
aS' nvmmm  ill forget '
p1781
aS' cause its like im saying it thats why i quoted it but at the same time retweeting'
p1782
aS' my hg  imma show youu laater'
p1783
aS'whooo '
p1784
aS' it means retweet'
p1785
aS' text 4750151  tonighhht  and you gotta joint on to teaaaam lh my ex bssf '
p1786
aS' i start back boxing with my cousin tomorrow    he said bring yo head '
p1787
aS' lh my sister said when she boxed with my big brother she leaked heeeem  '
p1788
aS'yeahh  come slide \xe2\x80\x9d what street you on  '
p1789
aS'032613 ig thts ah doneeee date ltltlt it was good why it lasted\xe2\x80\x9d rt'
p1790
aS' who you talking bout blood   i think she talking about you loc\xe2\x80\x9d awe'
p1791
aS' imma be south tomorrow  trynaa chill  '
p1792
aS'talking to my favh amp laying down '
p1793
aS' oh k'
p1794
aS' i be trippen for no reason let me chill  '
p1795
aS' sittin here with my cousinn amp sister  wby '
p1796
aS'wyd '
p1797
aS' if you got a problem  you know the number  '
p1798
aS' i be twatching   but idgaf hope she aint talkin bout me '
p1799
aS' who you talking bout blood  '
p1800
aS' when its gone be about me  '
p1801
aS' i retweet everything chill dinah'
p1802
aS'what you retweet that for'
p1803
aS' miracle need to come over '
p1804
aS' she a opp i aint fw her   stay in yooooo lane unless you want beefk  '
p1805
aS'she my distant lover  \xe2\x99\xa5'
p1806
aS'thats fine i got 2212 more you wont be missed ctfu miracle amp dinah finna get unfollowed'
p1807
aS' trustk '
p1808
aS' i just want miracle bad  lh '
p1809
aS' iont need nobody '
p1810
aS' finna change my passwordd  '
p1811
aS'okay bbes '
p1812
aS'shrugs'
p1813
aS' things that used to bother me  i dont even pay attention anymoreee  '
p1814
aS' all my bz got bands  '
p1815
aS' yeaa inbox your number again so i can have it when i get home  i wont be on the internet  '
p1816
aS'okay  well maybe later bbes  i just hope you feel better\xe2\x99\xa5'
p1817
aS' i aint even got 15k tweets yet   almost there igs '
p1818
aS' woodia retarded bruh  lhhhhh '
p1819
aS'dont mind what she say we just having a little problems thats all she always wanna bring out the papers when she get mad'
p1820
aS' miracle said she can see us gettin married one daaay  lbs lt3 '
p1821
aS' iont wanna talk abt it bruh  its gone make me more mad  '
p1822
aS'kik me or sumn '
p1823
aS' everything  my next move and all  '
p1824
aS'my dad 33 today damn that nigga getting old  hbd pops'
p1825
aS' sitting here thinkingk too hard  '
p1826
aS' i can admit  i used to care so much about gettin my feelingsk hurt  but it fadedddd '
p1827
aS' i cant wait till i got to atlantaa booaay  lasttime i jammeed  '
p1828
aS' all my exes a opp  ionnt mess with them  '
p1829
aS' i love you too triccck  '
p1830
aS'lhh love u luh sus '
p1831
aS' woodia trippen  '
p1832
aS' lh  nothing fat faceee '
p1833
aS'lhh damn what i do '
p1834
aS'excuse meeeee   my nameee teetee niggaaa  amp you know i love you  iont like you '
p1835
aS' iont like nobody nomre  \xe2\x80\x9dwhat bitch '
p1836
aS' iont like nobody nomre  '
p1837
aS' dont make a bigger mistakek  '
p1838
aS' blah '
p1839
aS'k'
p1840
aS' i do my own hair  i rock by myself  '
p1841
aS'okay now im tired '
p1842
aS'trust none \xe2\x80\x9drt'
p1843
aS' yall i did my sister hair so cuteeeee  '
p1844
aS'nfb'
p1845
aS'follow back'
p1846
aS' '
p1847
aS' yall both petty bruh '
p1848
aS' miracle and dinah oc '
p1849
aS' im crammmping   wtf '
p1850
aS' everything good aint good for youuuuuu  '
p1851
aS'im rapped out  la ugly ass know wer i be '
p1852
aS' teetee was here for a daily check up or whatever love you bunniie boo \xe2\x8c\x92\xe2\x96\xbd\xe2\x8c\x92 \xe2\x98\x86 followme'
p1853
aS'i dont have your password nom ore somebody logged me out when they had my stuff kik me the infoooo  '
p1854
aS'i was somebody women crush wednesday on ig amp sht lol im taken tho  '
p1855
aS' look me deep inside my eyes  what do you see   \xe2\x99\xa1 '
p1856
aS' ciara xx body party  \xe2\x99\xa1 '
p1857
aS'your so disrespectful'
p1858
aS' im gone through a party  \xe2\x99\xa1  who gone comeeeee  '
p1859
aS'i knooow  now kik me back so i can come see you '
p1860
aS'followback\xe2\x80\x9d'
p1861
aS' tf  '
p1862
aS'doesnt matter what your going through im still here \xe2\x99\xa5 \xe2\x80\x9d  thats why i love you maneeee \xe2\x99\xa1 '
p1863
aS' trustk nobody '
p1864
aS' mookie amp shay need to just drop the beefk   they arguein over a boyk  '
p1865
aS' dont rap  yall go to the same school amp come home amp rap onna book  killyourself'
p1866
aS' she a ridaaaa amp im her drivaaaa  \xe2\x99\xa1 '
p1867
aS'and it only 9'
p1868
aS' 317  since you gone ride for me i just hope i dont ever hurt you lt3  cause i aint on my grind right now   love you soo much'
p1869
aS'gm mentions  rt '
p1870
aS' goodmorning though tl \xf0\x9f\x99\x8c'
p1871
aS' i am sooo under the weatheeer  '
p1872
aS'ill ride for my gf dawg'
p1873
aS'i gotta go see my baby today amp i think i am lt3'
p1874
aS'317 \xe2\x99\xa5'
p1875
aS'anyways  where my gf i seen she wasnt feeling to good last night '
p1876
aS'idk if im feeling this wife sht anymore dawg'
p1877
aS'nawww man tht shht just pissed me tf off wtf you coulda told trynna make like im inna wrong gtlt\xe2\x80\x9d rt'
p1878
aS'guess we not gone tlk cool igs\xe2\x80\x9d smh rt'
p1879
aS'she snapp on me but umm but ont know wht to say sooo\xe2\x80\x9d rt'
p1880
aS'goodnght tweeps  \xe2\x99\xa5'
p1881
aS' iwanna seee miracle i wanna surprise her amp come to her house  \xe2\x99\xa1 '
p1882
aS' goodnight tl \xf0\x9f\x98\x92 wiats for replys '
p1883
ag1847
aS' i cant be in no relationship right now i love miracle but mane im going through it   amp wont be kn my game like a good gf suppose to'
p1884
aS'if you still live wit yo mama you are not ballin '
p1885
aS' iont live to impress anybody but myself  '
p1886
aS' hit the dougieeeee'
p1887
aS' i cant get jiggy with this '
p1888
aS' im cramping so freaking bad  this week is not my week '
p1889
aS'why should i care if you dont i look stupid'
p1890
aS'im wasting my time'
p1891
aS'i just got ah lil mad ill be bck later'
p1892
aS'i dont want chu saying nothing to me right now'
p1893
aS' do i have i have a phone no my momma was otp with my god momma so i couldnt use the phone but did you ask why i didnt call nope'
p1894
aS'finna watching thss movie widt my brutha cuss      aint call but owell'
p1895
aS'now you see wht i act the way i act'
p1896
aS'fck it and you'
p1897
aS'im hip we gotta go cause a nigga be bashing \xe2\x80\x9d lhhhh frrrl'
p1898
aS' we gotta go to a buffet together  well leave that mfka empty '
p1899
aS'on me  we stayed hungry lbs amp thats what im making'
p1900
aS' diara aint true amp i dont like her  rt that '
p1901
aS' you aint real  amp i know you aint  '
p1902
aS' its war '
p1903
aS' natalie vs jenn  \xf0\x9f\x98\xb3'
p1904
aS'lh im finna cook some chicken im starvingggggggg as usual  im always hungry   lbs'
p1905
aS'watching allstar bgc   wby'
p1906
aS' i dont vibe off nobody  so you aint got a thang to trip offf tbh'
p1907
aS'on wessst lbs we needa cut that short'
p1908
aS'aweee cool we be tripping'
p1909
aS'lhh kell said we go back together'
p1910
ag462
aS' 0326134l like i said nmw'
p1911
aS' you change into the black welcome to the dark sideeeee  lol  '
p1912
aS' always saying i act like i dont care amp you act like it ight im done '
p1913
aS'fuck that hoe nicky beat that ass bgc10reunion\xe2\x80\x9d\xe2\x80\x9d nicki beat her lhhh'
p1914
aS' i like when guys watch bgc amp be all into it  \xe2\x99\xa1 '
p1915
aS' nmw is what we said bee  '
p1916
aS'lh nawe i been knew'
p1917
aS' we so bipolar'
p1918
aS'\xe2\x99\xa1 '
p1919
aS'soo to she was once a good friend i have no idea why we always fall out but a nigga aint tripping she cool thou\xe2\x80\xa6'
p1920
aS' im getting off here maneeee   bbl tl after i talk to my mommy '
p1921
aS' i got so much stresssss  my momma was ina hospital  my uncle got life in prison  amp some moree  amp now this '
p1922
aS' dont ask me whats wrong  '
p1923
aS' what i do to you am i makin everybody not like me '
p1924
aS' i needa start doing my morning runs  thats when i used to cry in peace \xe2\x99\xa1 '
p1925
aS' my feelings dont mean nothing to nobody cuzzzz  \xf0\x9f\x98\x9e '
p1926
aS'bout to make me cry \xf0\x9f\x98\xa5'
p1927
aS' mane this aint me in my feelings cause of a female   i really loved her '
p1928
aS' who can i call amp cry to  '
p1929
aS' fml  frl '
p1930
aS' smh  my feelings always gettin stepped on amp dont nobody care   '
p1931
aS' pray for my momma soul  \xe2\x99\xa1 '
p1932
aS'lol i been playing candy crush amp watching bgc '
p1933
aS' tired of kell hurting my feelings bruh im just gone leave her alone igs  '
p1934
aS' i dont have a wife anymore   awe '
p1935
aS'nopeee you cheating on me tooo fck it  lbs'
p1936
aS' pokes neck out around the corner wtchu talkin bout willis '
p1937
aS'where is my girlfriend  '
p1938
aS'teamlesbian teamfem teamstud teamstem teamhomo teamgay follow me  i always followback \xe2\x80\x9d rt \xe2\x99\xa1 '
p1939
aS'every time i turn around something happening to somebody  gws derrica  smhh '
p1940
aS' new avi gtgtgtgt \xf0\x9f\x98\x89'
p1941
aS' tez on my teaaam amp i aint evnnn know itttttt  lbs '
p1942
aS' somebody mention meeeee  '
p1943
aS'lt33333 '
p1944
aS'lt3 '
p1945
aS' will smith made a movie with his son jayden smith    i wanna go see that  '
p1946
aS' teetee aka tonicaaaaa on thissss mfka  i love you bunnnniie baaaaaby  follow meeeeee  i follow back '
p1947
aS'followed'
p1948
aS' miracle cant see emojis   '
p1949
aS' hope its a breeeeze  '
p1950
aS' is it hot outside  '
p1951
aS' i might just do that too  '
p1952
aS' i wanna just walk my dog '
p1953
aS'\xf0\x9f\x91\x8b\xf0\x9f\x91\x8b'
p1954
aS'naawwwe lol'
p1955
aS'i hope you didnt do emoji at me '
p1956
aS'im starving too man '
p1957
aS'lh '
p1958
aS'starts twerking'
p1959
aS'lmfaooo right  crazy    starts praying '
p1960
aS'yes i member that i wa gone snatch every bone out yo body'
p1961
aS'right right  sure remember when you threatened me if i took you out my bio amp i am waiting for my aunt to fi\xe2\x80\xa6'
p1962
aS'\xf0\x9f\x98\x94\xf0\x9f\x98\x94\xf0\x9f\x98\x94\xf0\x9f\x98\x94 nooooooo i dont lbs go get jn the tub'
p1963
aS'lmfaoo nahh maybe my mind a little locked up  you always putting my life in danger'
p1964
aS'once  lbs'
p1965
aS'lmfaoo frl  how many times have you threatened me thoo  '
p1966
aS'nf fb \xf0\x9f\x98\x8f'
p1967
aS'im my own boss nigga im my own goon \xe2\x80\x9d '
p1968
aS'lol i aint violent'
p1969
aS'lmfao im frl  well you already violent so it really doesnt matter '
p1970
aS' lrt raven got me weeeak \xf0\x9f\x98\x82\xf0\x9f\x99\x8c'
p1971
aS'if you look at me longer than 3 seconds amp dont say hi or something  imma snap on yo ass lbs'
p1972
aS' lol oh shut uppppppp sound like my granny '
p1973
aS'lmfao dont be watching that shit fucks up your mind bae'
p1974
aS'tonica  gtgt lawd wait she already mines '
p1975
aS' i have a crush on my gf  \xe2\x80\x9d'
p1976
aS'watching bgc  '
p1977
aS'sitting here fina take a shower wyd love  '
p1978
aS'follow back '
p1979
aS' pssht '
p1980
aS' i have a crush on my gf  '
p1981
aS' love it when you call me big papa  throw yo hands in the air if yous a true plaaayaaa  '
p1982
aS'heeeey  wyd '
p1983
aS' i was here when you were lost ampamp confused  '
p1984
aS'thats why all my niggas look rich as fuck'
p1985
aS'amp im back cuffed  317 \xe2\x99\xa5'
p1986
aS'where my gf  lol \xe2\x80\x9d hereeee raises hand \xe2\x9d\xa4'
p1987
aS' if i cant be wierd around you without you asking why im being wierd you aint for meeeee  lbs '
p1988
aS' less drama  more hataas  '
p1989
aS' in the end  you cant handle a real thug  '
p1990
aS' imma never get too comfortable  '
p1991
aS' who remember falen lbs '
p1992
aS'where is kell '
p1993
aS'\xf0\x9f\x98\xa1 welp  i guess idk'
p1994
aS' i love ray gaye  gtgtgtgtgtgt '
p1995
aS'cuss tuhh tonica det not be cheating'
p1996
aS'i got married on 032613 i gave my heart away lbs tht day'
p1997
aS'yeaaa when you going home  '
p1998
aS'deleted my book account dont need that lame ass shit nomo'
p1999
aS'i tell you about these lame ass niggas tho  lhh'
p2000
aS'eating like always  amp watching reruns of bgc how yo ypg head doing'
p2001
aS'wyd '
p2002
aS' i did my hair in like 15 minutes  im lethal boaaay  '
p2003
aS' might walk my dog todaaaay'
p2004
aS' wonder what that meant shrugs'
p2005
aS' im cuffed or whatevaaaaa '
p2006
aS' not is the season premiere of bad girls battle   yea im cooling it tonight boaaay '
p2007
aS' bad girls club its goin downnn tonighhhht  \xf0\x9f\x92\x9b fingerscrossed'
p2008
aS' im cuffed or whatevaaaaa '
p2009
aS' cheeese noodles gtgtgtgtgt \xf0\x9f\x91\x8c\xf0\x9f\x98\x89 '
p2010
aS'sike'
p2011
aS'i miss you too'
p2012
aS'i miss  '
p2013
aS' i aint gone slip up  '
p2014
aS'i almost slipped up and called miracle shit its a habbit'
p2015
aS' bbl tl '
p2016
aS' im hungry now  '
p2017
aS' i open a text and mentally respond then forget to actually respond  '
p2018
aS' i hustle for my family  cause who gone do it for me  '
p2019
aS'avi gtgtgtgt \xf0\x9f\x98\x8d\xf0\x9f\x98\x8d\xf0\x9f\x98\x8d\xf0\x9f\x98\x8d\xf0\x9f\x98\x8d\xf0\x9f\x98\x8d'
p2020
aS' free that savage marco  '
p2021
aS' i aint doing house visits nomore i learned the hard way   they make me waste money on gas  '
p2022
aS'where your real friends aaat \xe2\x80\x9d rt '
p2023
aS' meet me in the streets  where fighting started gdm  '
p2024
aS' got to be a savage  you only have 1k lifetime  '
p2025
aS' frfrrrl  this summer i know a couple people catchin rec from me frrl '
p2026
aS'  i went to her house amp she aint come outside   do she not know how much gas is  you want the round o\xe2\x80\xa6'
p2027
aS' biting my tongue aint me  '
p2028
aS' i went to her house amp she aint come outside   do she not know how much gas is  you want the round or not  '
p2029
aS' lol she said she want her round  i gave it to her '
p2030
aS' ill never be scared of anybody  just aint me yaah know  '
p2031
aS' do yaah thang shaawty   '
p2032
aS' i wanna see her succeed tbh   '
p2033
aS' new avi or whatever keep or delete help'
p2034
aS' mane everybody go through things  some worst than others  '
p2035
aS' miracle know i love her bee she just need to think and rest'
p2036
aS'boreeed taking pictures wby '
p2037
aS'hey ma\xe2\x80\x9d  heeeey  '
p2038
aS'thanks sexy \xf0\x9f\x98\x8d\xf0\x9f\x98\x8d\xe2\x80\x9d\xf0\x9f\x98\x8d\xf0\x9f\x98\x8d\xf0\x9f\x98\x8d\xf0\x9f\x92\x9b'
p2039
aS'alotta mfs was there when reec amp luhchris got shot like me i wish i was there this time  ugh'
p2040
aS' i heard she was born naked  that tramp \xf0\x9f\x98\x8f'
p2041
aS'i fuck em i cant trust em\xe2\x80\x9d rt'
p2042
aS' avi gtgtgtgtgtgtgt is niceeeeeee  \xf0\x9f\x92\x9b\xf0\x9f\x98\x8f\xf0\x9f\x91\x8c'
p2043
aS' i work hard boo \xe2\x99\xa1 '
p2044
aS'\xf0\x9f\x98\x8f\xf0\x9f\x92\xa2\xe2\x9d\x95\xe2\x9d\x95\xe2\x9d\x95\xe2\x9d\x95\xe2\x9d\x95'
p2045
aS'ayeeee \xf0\x9f\x91\xaf\xf0\x9f\x91\xa2 thats wat im talkn bout  stomp the yard style \xf0\x9f\x98\x82\xf0\x9f\x98\x82'
p2046
aS' where is my wifeeee \xe2\x99\xa1 '
p2047
aS'gm friend\xe2\x80\x9d gm'
p2048
aS'\xef\xbc\x88\xe2\x89\xa7\xe2\x88\x87\xe2\x89\xa6\xef\xbc\x89i dooooooooo'
p2049
aS' my bestfriend always gone be thereeeeee  that nigga got my heart maneeee \xe2\x99\xa1 \xef\xbc\x88\xef\xbc\xbe\xe2\x97\x87\xef\xbc\xbe\xef\xbc\x89'
p2050
aS'\xf0\x9f\x98\x8f\xf0\x9f\x91\xaf'
p2051
aS'\xf0\x9f\x98\x8c\xf0\x9f\x98\xb3\xf0\x9f\x99\x88\xf0\x9f\x99\x88\xf0\x9f\x99\x88\xf0\x9f\x99\x88'
p2052
aS'avi gtgtgtgtgtgt \xf0\x9f\x98\x8d\xf0\x9f\x98\x8d\xf0\x9f\x98\x8d\xf0\x9f\x98\x8d\xf0\x9f\x98\x8d\xf0\x9f\x98\x8d\xf0\x9f\x98\x8d\xf0\x9f\x98\x8d\xf0\x9f\x91\x8c\xf0\x9f\x92\x9b\xf0\x9f\x99\x8c'
p2053
aS'you never switched it up you played the same part'
p2054
aS' goodmorning beautiful \xf0\x9f\x98\x8d\xf0\x9f\x98\x8d\xf0\x9f\x98\x8d\xf0\x9f\x98\x8d\xf0\x9f\x98\x8d\xf0\x9f\x92\x9b'
p2055
aS'goood morningggg \xf0\x9f\x98\x8d\xf0\x9f\x92\x8b'
p2056
aS' you ont like me join the mfn party lil homiee  \xf0\x9f\x98\x92 '
p2057
aS' that breathing thing to try and calm me down dont work '
p2058
aS' just aint me yaah knoww  '
p2059
aS' i aint holding nothing back no matter what'
p2060
aS'avi gtgtgtgtgtgt \xf0\x9f\x98\x8d\xf0\x9f\x98\x8d\xf0\x9f\x98\x8d\xf0\x9f\x98\x8d\xf0\x9f\x98\x8d\xf0\x9f\x98\x8d\xf0\x9f\x98\x8d\xf0\x9f\x98\x8d\xf0\x9f\x91\x8c\xf0\x9f\x92\x9b\xf0\x9f\x99\x8c'
p2061
aS' goodmorning tl '
p2062
aS'night lol '
p2063
aS' goodnight tl waits for replys \xe2\x8c\x92\xe2\x96\xbd\xe2\x8c\x92\xe2\x80\x9d night'
p2064
aS' goodnight tl waits for replys \xe2\x8c\x92\xe2\x96\xbd\xe2\x8c\x92'
p2065
aS'follow back \xe2\x80\x9d nfb '
p2066
aS' idgaf you can walk out at any time  cause at the end i aint need you in the first place '
p2067
aS' my way or no way  idgaf if thats petty '
p2068
aS' you wanna argue at 1 a clock inna morning get some rest first '
p2069
aS' im petty but do igaf no  '
p2070
aS' he was a ex for a reason  now i learned my lesson'
p2071
aS' im always gone be 1 '
p2072
aS' you aint finna find nobody thats gone love you like i did '
p2073
aS' now i remember why i hated that boy   '
p2074
aS' he cant handle me and my mods swings  '
p2075
aS'retweet this follow me   amp everyone else that retweets this for 50 followers fast teamfollowback \xe2\x80\xa6'
p2076
aS' miracle know i love her bee she just need to think and rest'
p2077
aS' i aint gone tell you wrong man '
p2078
aS'ight mane'
p2079
aS'im hip thats why i just dont care anymore im fina get off here im not feeling it'
p2080
aS'yosef you know i do everything mostly by myslef to get stuff brackin'
p2081
aS'aint nobody gone do it for you this a dog eat dog world miracle understand that you got to do stuff on yo own to get it'
p2082
aS' once im gone out your life  im gone \xf0\x9f\x98\x92'
p2083
aS' you always saying aint nobody there for you amp you have people you just chase them away bee stop'
p2084
aS'why  wtf  be mad i been mad been mad  did you know that  no you didnt  but if you feel that way im s\xe2\x80\xa6'
p2085
aS' team no sleep  but imma just get on facebook igs'
p2086
aS'im mad because the words you just said bee but kays'
p2087
aS'kays goodnight igs\xf0\x9f\x92\x9a'
p2088
aS' i need go to sleep for i get into it with people   '
p2089
aS' lol why aint got nomore  '
p2090
aS'i quit'
p2091
aS' ill never speak to ol babes again  on dub '
p2092
aS' straight like that awe '
p2093
ag1840
aS'my shirt off\xe2\x80\x9d lol '
p2094
aS' idc no more though'
p2095
aS' thats why i dont open my heart to people   '
p2096
ag1840
aS'im done w  everybody   idgaf who you are mfs not for me or my damn friend  brother  bff  sister  hg  hb etc n\xe2\x80\xa6'
p2097
aS'my shirt off\xe2\x80\x9d lol '
p2098
aS'\xef\xbc\x88\xef\xbc\xbe\xef\xbc\xbe\xef\xbc\x89 '
p2099
aS' lol i knew it'
p2100
aS' have you ever tasted the rainbow  that sounds like a nasty question \xf0\x9f\x98\x8f\xf0\x9f\x99\x8c lbs'
p2101
aS' iont trust no nigga str88'
p2102
aS' its so hard to find a ridaaaa like my sistaaa blood '
p2103
aS' you find out who loyal at crunch time '
p2104
aS'fb\xe2\x80\x9d nfb '
p2105
aS' my sistaaaa gone hold it down like usual  matta fact like last time gdm   gws ypg head '
p2106
aS'thanx hun \xe2\x80\x9d np '
p2107
aS'love u too \xe2\x99\xa1\xe2\x99\xa5'
p2108
aS' keep yo head up sister i love you  gws lilreec'
p2109
aS'avi gtgtgtgtgtgt \xf0\x9f\x98\x8d\xf0\x9f\x98\x8d\xf0\x9f\x98\x8d\xf0\x9f\x92\x9b'
p2110
aS' shawty straight flexin  \xf0\x9f\x91\x8c '
p2111
aS'avi gtgtgtgtgtgt\xe2\x82\xac\xe2\x82\xac \xf0\x9f\x98\x8d\xf0\x9f\x98\x8d\xf0\x9f\x98\x8d\xf0\x9f\x98\x8d\xf0\x9f\x98\x8d\xf0\x9f\x99\x8c'
p2112
aS' keep calm i never knew your name  \xf0\x9f\x98\x82\xf0\x9f\x99\x8c '
p2113
aS' crampin so effin bad right now  im finna punch my lil brother just for laughing \xf0\x9f\x98\x92'
p2114
aS'why do ugly people need a iphone psssht'
p2115
aS' i was ridin round with my bird '
p2116
aS'and didnt come see me'
p2117
aS' amp thots '
p2118
aS'retweet this follow me   amp everyone else that retweets this for 50 followers fast teamfollowback \xe2\x80\xa6'
p2119
aS'retweet this follow me amp everyone else that retweets this for 50 followers fast teamfollowback follow2befollowe\xe2\x80\xa6'
p2120
aS'did my sister hair was on the north side amp on the south'
p2121
aS'retweet this follow me  amp everyone else that retweets this for 50 followers fast teamfollowback \xe2\x80\xa6'
p2122
aS' my wife might be sleep'
p2123
aS' on my worst days you cant phase me im solo bolo in this ish \xf0\x9f\x98\x8f\xf0\x9f\x92\x9b'
p2124
aS'wyd\xe2\x80\x9deating wby \xf0\x9f\x92\x9b'
p2125
aS' my wifi was messing up so bad '
p2126
aS' i need a vacation  frfrrrrrl \xf0\x9f\x98\x92'
p2127
aS'1113\xe2\x99\xa5'
p2128
aS' im so tired of zion lying to me bruh   '
p2129
aS'yes'
p2130
aS' its raining so freakin hard   '
p2131
aS' so zion wanna act stupid now awe'
p2132
aS' im so cold blooded  amp idgaaaaf '
p2133
aS' pictures of my master piece coming soon  i did my sister hair for her birthday '
p2134
aS' just did my sister hair  i got skills  gtgtgtgtgtgtgt'
p2135
aS'avi gtgtgtgtgtgt \xf0\x9f\x98\x8d\xf0\x9f\x98\x8d\xf0\x9f\x98\x8d\xf0\x9f\x98\x8d\xf0\x9f\x98\x8d'
p2136
aS'retweet this follow me amp everyone else that retweets this for 50 followers fast teamfollowback follow2befollowe\xe2\x80\xa6'
p2137
aS'retweet this follow me amp everyone else that retweets this for 50 followers fast teamfollowback follow2befollowe\xe2\x80\xa6'
p2138
aS' cant nobody tell me what i already know  if i got my mind set  '
p2139
aS'im lonely '
p2140
aS' niggas gettin shot amp still aint learnin    boosie '
p2141
aS'u ah never catch me going nowhere were black people is scheduled to be   facebook amp twitter reunion'
p2142
aS' watchin you got serveddddd gtgtgtgtgtgtgtgtgt \xf0\x9f\x92\x9b'
p2143
aS'i love you too tonica \xe2\x9d\xa4\xe2\x9d\xa4\xe2\x9d\xa4\xe2\x9d\xa4\xe2\x9d\xa4\xe2\x9d\xa4 my vivo head foreva   032613  4l'
p2144
aS'smh'
p2145
aS'i do'
p2146
aS'you ont act like u care'
p2147
aS'hurt'
p2148
aS'mary dont try to front for twitter you know i care so stfu amp man if you feel like that stop cause you know ily but okay'
p2149
aS'beginning to wonder if its even worth it anymore'
p2150
aS' didnt you just say only one got your heart i know you wasnt talking about me'
p2151
aS'boosie  gtgtgtgt'
p2152
aS' murder murder murder gotta keep yaaaa 9  '
p2153
aS'i dont talk like you dooooo but okay like i said you aint mines so i cant spazzz'
p2154
aS'oh shushhhh'
p2155
aS'mikell i loveeee youuuu \xe2\x9d\xa4\xe2\x9d\xa4\xe2\x9d\xa4\xe2\x9d\xa4\xe2\x9d\xa4\xe2\x9d\xa4 my krussshhead is forever  \xf0\x9f\x92\x9b 32613  4l'
p2156
aS' im finna spazzzzzz on meezy i got a feeling   '
p2157
aS'why you gone block me for and u flirt with everybody and shit\xe2\x80\x9d  not like you was talking lil homie'
p2158
aS' i wish i was there to cheer you on   \xe2\x80\x9d'
p2159
aS' read em  '
p2160
aS'i had like 4 sparring matches\xe2\x80\x9d  win  \xe2\x80\x9d'
p2161
aS' i wish i was there to cheer you on   '
p2162
aS' you musta didnt read my subtweets   '
p2163
aS'hereeeeee i comeeeee \xf0\x9f\x92\x9b\xe2\x9d\xa4'
p2164
aS'you taking to long lbs \xe2\x80\x9d oh hush up at least i reply you dont  '
p2165
aS' \xf0\x9f\x98\x82\xf0\x9f\x91\x8c ight'
p2166
aS' i hate when i mess up a tweet   '
p2167
aS' want me to comeeeee over    lol'
p2168
aS'i had like 4 sparring matches\xe2\x80\x9d  win  '
p2169
aS' stop lyin peon  '
p2170
aS' grrrrrr okaaay \xf0\x9f\x98\x92\xf0\x9f\x98\x8f'
p2171
aS'let me join \xf0\x9f\x98\x8f amp i miss you tooooooooo \xf0\x9f\x92\x9b'
p2172
aS'ayeeeee  \xf0\x9f\x92\x9b we finnnnna jam bee'
p2173
aS'let me find out \xe2\x80\x9d trys to erase the tweet out your head lol '
p2174
aS' lol getchoooo extra hungry face as   but naw come get someee nigga'
p2175
aS'the perfect boss look good  me  \xf0\x9f\x98\x8f\xe2\x80\x9d rt '
p2176
aS'fb \xf0\x9f\x92\x9b'
p2177
aS' some burgersssss \xf0\x9f\x98\x8d\xf0\x9f\x99\x8c im finna bash  lbssss'
p2178
aS'what u finna eat amp im just laying here this rain putting me to sleep'
p2179
aS'i cant like pics on instagram cuz mfs watching amp checking up on me \xe2\x80\x9d  the stalker  me \xf0\x9f\x98\x8f'
p2180
aS'righhhht  you stay with yo dddy yet '
p2181
aS' you thickkkk  \xf0\x9f\x92\x9b\xf0\x9f\x98\x8d'
p2182
aS' kik me baaaack ugly  '
p2183
aS' coolingggg finna eat ampamp bash some ishhh   wby'
p2184
aS' haaterrrrr  i miss you uglaaaay  '
p2185
aS' coolinn finna eat or whatevaa wby '
p2186
aS'avi gtgtgtgtgt \xf0\x9f\x98\x8d\xf0\x9f\x99\x8c'
p2187
aS' gone catch yoself inna casket lil homie  '
p2188
aS' wsssp uglaaaaay  '
p2189
aS' wsssp  '
p2190
aS' raylan always tryna go on somebody ol short body self  '
p2191
aS' briaaaaaa '
p2192
aS' mentions rt \xf0\x9f\x92\x9b\xf0\x9f\x98\x8f'
p2193
aS' white boy says he miss me moreeeee  '
p2194
aS' attitude problem  yea i got all that  '
p2195
aS' these niggas need pride  '
p2196
aS' where the thots at   '
p2197
aS'fb\xe2\x80\x9d nfb \xf0\x9f\x98\x8d'
p2198
aS' cant deal with these extra mfz  '
p2199
aS'where you been thickness '
p2200
aS'right here '
p2201
aS'we goin to the gay pride together  me and my momma gone jam amp get all thots on our teaaam  \xf0\x9f\x92\x9b'
p2202
aS'my momma out the hospital   '
p2203
aS'where my wife at 32613 '
p2204
aS'where miracle at bruh'
p2205
aS'kik with brenesha \xf0\x9f\x92\x9c gtgt'
p2206
aS'i might just block meezy hmm'
p2207
aS'im so smooth with the ladies \xf0\x9f\x98\x8f'
p2208
aS'who playing games  cause it sholl aint us '
p2209
aS'names ric\xc3\xb8 suave '
p2210
aS'im trippy'
p2211
aS'wait  she aint even mines'
p2212
aS'roll with me youll never lose'
p2213
aS'im through messin with her str88'
p2214
aS'im bored af'
p2215
aS'im gone have to show meezy how i handle mines cause tuh'
p2216
aS'i swear these thots aint got no respect '
p2217
aS'meezy dm right now ltltltltltlt im bout to kill her amp the strag she dmn on my granny'
p2218
aS'finna go home '
p2219
aS'catchup '
p2220
aS'i aint with that getoffthat'
p2221
aS' my bio gtgt\xe2\x80\x9d \xe2\x80\xa0 \xf0\x9f\x92\x9c'
p2222
aS'317  '
p2223
aS'be foreal you know i aint takin no bs'
p2224
aS'im a midget'
p2225
aS'stop speaking out of context'
p2226
aS'hit me thats yo life bee on my momma'
p2227
aS'i always speak first woodia i wanted to see if youd actually miss me'
p2228
aS'i aint fat im just so sexy it overflows \xf0\x9f\x98\x8f'
p2229
aS'i love when somebody laugh is funnier than the joke'
p2230
aS'good afternoon'
p2231
aS'cause you dont speak to teetee anymore \xf0\x9f\x98\x94'
p2232
aS'mentioned  '
p2233
aS'king kong nigga'
p2234
aS'wsssp fakenessssssss'
p2235
aS'somebody mention me \xe2\x80\xa0\xe2\x80\x9d hey girly '
p2236
aS'somebody mention me \xe2\x80\xa0'
p2237
aS'lost so many niggas turnt into a savage'
p2238
aS'i got a attitude mane'
p2239
aS'i swear this aint cuttin it'
p2240
aS'where kell at'
p2241
aS'woodia im gone kill you\xe2\x80\x9dlhh'
p2242
aS'miracle dont change my name if you not gone change yours'
p2243
aS'lol tonica my baby or we together or not'
p2244
aS'miracle did that lh'
p2245
aS'i know what number'
p2246
aS'you diddddd you know lol'
p2247
aS'i didnt do anything  lbs'
p2248
aS'what number'
p2249
aS'lol you trippinggggggg'
p2250
aS'lets get on tonica page real quick'
p2251
aS'love you kell '
p2252
aS' lmfaoooo the thots'
p2253
aS'ill frl  lol nvm 31713 '
p2254
aS'who wife'
p2255
aS'everybody no it can lh can i put ah different  '
p2256
aS'noooo thats my momma name'
p2257
aS'nooo somebody changed it '
p2258
aS'tonica sooooo damn slow  lhh\xe2\x80\x9d neva  lbs'
p2259
aS'awe okaaay i might can get a ride ova thereee'
p2260
aS'then where'
p2261
aS'nooo fool  lol my granny do'
p2262
aS'i been told you to come over lol\xe2\x80\x9d dont you stay north'
p2263
aS'whenever is cool with me frfrrrl'
p2264
aS'uh youuuuu tell me  \xf0\x9f\x98\x91'
p2265
aS'when im gone see ya'
p2266
aS'i miss you too  \xf0\x9f\x92\xaf'
p2267
aS'me and tonica gone be togetha for eva'
p2268
aS'i miss you  \xf0\x9f\x91\xaf'
p2269
aS'\xf0\x9f\x98\x8d\xf0\x9f\x98\x98'
p2270
aS'yesssss omg it look sooo damn goodd lh \xee\x90\x95\xee\x80\xa2\xee\x8c\xab\xee\x8c\xa8'
p2271
aS'you see my name \xf0\x9f\x98\x8f\xf0\x9f\x92\x9b'
p2272
aS'she gone shake it like a red nose \xf0\x9f\x98\x8d\xf0\x9f\x99\x8c'
p2273
aS'welcmeeeeee \xf0\x9f\x98\x81\xf0\x9f\x98\x81'
p2274
aS'miracle gtgtgtgtgt \xf0\x9f\x98\x81\xf0\x9f\x98\x81'
p2275
aS'i hate seeing somebody cry  like i just wanna go hug them'
p2276
aS'awnnnn thts sweet lh\xe2\x80\x9d shut up lh'
p2277
aS'ya avi \xe2\x99\xa5 gt'
p2278
aS'yeaaaa my god momma'
p2279
aS'okay and you working for yo mamaa'
p2280
aS'thankssss lina \xf0\x9f\x98\x8d\xe2\x9d\xa4'
p2281
aS'avi gt \xf0\x9f\x98\x8d\xf0\x9f\x98\x8d'
p2282
aS'peons'
p2283
aS'yo daddy stalk kids for a living amp your proud'
p2284
aS' follow back  \xe2\x80\x9d nfb  '
p2285
aS'umm idk imma let you know'
p2286
aS'my dominican'
p2287
aS'i can go on my momma break at 12 '
p2288
aS'what about today'
p2289
aS'owewwie \xf0\x9f\x98\x8f'
p2290
aS'exactly silly youuuu  lbs but nah you can have some if you come get it '
p2291
aS'red knows she misses me \xf0\x9f\x98\x94'
p2292
aS'frrl '
p2293
aS'\xf0\x9f\x98\x92 yea  silly me '
p2294
aS'i got 3hunna stacks'
p2295
aS'grrrr'
p2296
aS'nah  save that for later  lol'
p2297
aS'when i was at the hospital you couldnt make it '
p2298
aS'uuuumm thts not far i havnt song to yo mama yet but i sing to you'
p2299
aS'what am i about to cook \xe2\x80\x9d hot wings'
p2300
aS'my whip ridin low like a nigga 3hunna pounds'
p2301
aS'\xf0\x9f\x98\xb0 sing to me'
p2302
aS'nothing bored widt nothing to do lbs'
p2303
aS'there aint nothing a boss chick like me cant do'
p2304
aS'your trash amp will forever be trash big dummie'
p2305
aS'when somebody say sorry i make them say it again in a different voice'
p2306
aS'my krushhead is my wife she krush frod niggas'
p2307
aS'at the top psht'
p2308
aS'coooling at my momma job wby'
p2309
aS'wyd bbe'
p2310
aS'my lil cousin killin the game'
p2311
aS'goodmorning'
p2312
aS'heeeey  '
p2313
aS'heyy '
p2314
aS'i wish i couldve met biggy amp tupac'
p2315
aS'i need to go shopping'
p2316
aS'these niggas wont hold me back'
p2317
aS'imma forget all about that nigga and start over'
p2318
aS'cant do this anymore'
p2319
aS'retweet this follow me amp everyone else that retweets this for 50 followers fast teamfollowback \xe2\x80\xa6'
p2320
aS'retweet this follow me amp everyone else that retweets this for 50 followers fast teamfollowback follow2befollowe\xe2\x80\xa6'
p2321
aS'retweet this follow me amp everyone else that retweets this for 50 followers fast teamfollowback follow2befollowe\xe2\x80\xa6'
p2322
aS'me as of now'
p2323
aS'i swear to his ill break her faace nomercy'
p2324
aS'tyler the creator show gtgtgtgtgt'
p2325
aS'get some to do bee'
p2326
aS'boyfriendddddd \xf0\x9f\x91\x8c\xf0\x9f\x99\x8c'
p2327
aS'but i dont want a baby'
p2328
aS'wanna ridaaaa'
p2329
aS'i wish i was cuffed lbs'
p2330
aS'thanks alottt'
p2331
aS'goodnight family  tk  wifeee lt3 '
p2332
aS' who needs somebody smacked   shhhhhit cause i feel like smacking the shit outta somebody '
p2333
aS'man im lookin for a ridaaaa'
p2334
aS'woodia im gone kill you'
p2335
aS'imma get off for ah min'
p2336
aS'i told her thss foreva tuhhh gtgtgtgtgtgt 032613'
p2337
aS'woodia was trynna do the red nose to me soo she can but her booty on me'
p2338
aS'aweee yea thss kell to let cha know '
p2339
aS'tonica woodia was all on ya girl'
p2340
aS'welp im on here in into she get on'
p2341
asS'2013_22'
p2342
(lp2343
S'\xef\xbc\x88\xef\xbc\xbe\xe2\x88\x87\xef\xbc\xbe\xef\xbc\x895 need to hit  so i can go southbounnnd  '
p2344
aS'happy birthday 416  '
p2345
aS' who wanna text  '
p2346
aS'hate the hiccups '
p2347
aS' i learned from my og '
p2348
aS' ill never call you my sister or brother if ont love you like one understand thaaaat '
p2349
aS' not everybody yo friend big dummy '
p2350
aS' just gone stand there and watch your daughter get beat  i will kill you '
p2351
aS'shawty got that clap amp yeeeeeen even know it  lmaaaaao '
p2352
aS' trending topic onna book is that mera got that clap  trending topic on twitter nothing   '
p2353
aS' woodia mad  aha '
p2354
ag462
ag462
aS' pssssht '
p2355
aS'wtf did i do now woodia we go threw thss sht all the time damn woodia you need some d mad ass i \xe2\x80\xa6'
p2356
aS'its all good\xe2\x80\x9d k'
p2357
aS'rt if u are teamlesbian teambisexual teamhomo teamgay teamlgbt teamstud teamstem teamfem teamnolabel'
p2358
aS' woodia im just as clueless as you '
p2359
aS'fuck ya bitch u can have her cheating ass hoes\xe2\x80\x9d i aint even know woodia    gessssh'
p2360
aS' kell a plaayaaaa beeeeee   lmaaaao'
p2361
aS' you two timin  '
p2362
aS'damn fr iight'
p2363
aS' blood thicker than water  thats why blood scared to tell the truth amp water aint '
p2364
aS'i dog hoes not one but all hoes'
p2365
aS' i miss oomf  lt3 '
p2366
aS' souls can have you crying '
p2367
aS' dont trust a soul '
p2368
aS' truz  polo short  my header gtgtgtgtgt '
p2369
aS' new avi '
p2370
aS' kell is beautiful amp thick \xe2\x9d\xa4'
p2371
aS' make it short  i got somewhere to be  '
p2372
aS' me and kell playing 21 questions  '
p2373
aS'tonica i love you moreeee lt3333333'
p2374
aS'im single once again  '
p2375
aS' ont be on facebook  instagram  kik  etc'
p2376
aS' imma loner i did this myself  '
p2377
aS'goodmorning tl'
p2378
aS' lbs '
p2379
aS' ont even be on the internet frfrr nomore  its pointless'
p2380
aS' southside the bestside  '
p2381
aS'dnt forget '
p2382
aS' on my momma '
p2383
aS' swear i hate that girl bee '
p2384
aS' imma see wsssp '
p2385
aS'fwm todae'
p2386
aS' rip to all that died in the car accident i was in 4 died amp me and my lil cousin survived lt3 i was suppose to die  not my 2yr busso'
p2387
aS'wer by\xe2\x80\x9d tower grove '
p2388
aS' keellllllllllll i love you wifeeeeee \xe2\x9d\xa4\xf0\x9f\x92\x9b\xf0\x9f\x92\x9b\xf0\x9f\x92\x9b\xf0\x9f\x92\x9b'
p2389
aS' but when i actually do love  i love hard  '
p2390
aS' i be south  catch a nigga in traffic  '
p2391
aS' thats why i never give my heart away  to nobody  '
p2392
aS' singggleeeeee   cant trust these thots with yo heart beee '
p2393
aS' i shall never stand down to anyone  i promised my og '
p2394
aS'fb'
p2395
asS'2013_28'
p2396
(lp2397
S'ypg and dpg beef dead  stop the beef'
p2398
aS'this summer dead'
p2399
aS'rich homie quan   \xe3\x80\x8b\xe3\x80\x8b\xe3\x80\x8b\xe3\x80\x8b \xe2\x99\xa1\xe2\x99\xa5\xe2\x99\xa1'
p2400
aS'rick homie quan   \xe3\x80\x8b\xe3\x80\x8b\xe3\x80\x8b\xe3\x80\x8b\xe3\x80\x8b'
p2401
aS'catch up lil homieeee '
p2402
aS'im bipolar yes i know'
p2403
aS'wild and reckless teetee     \xe2\x99\xa1\xe2\x99\xa5\xe2\x99\xa1\xe2\x99\xa5'
p2404
aS'iont need nobody'
p2405
aS'i advise everybody to leave me alone right now    i wanna cry'
p2406
aS'im so aggravated   like frfrl'
p2407
aS' i aine gone start drinking till later '
p2408
aS'im hungry af'
p2409
aS'i cant do this everyday bruh '
p2410
aS'that was petty '
p2411
aS'montez make me wanna pull all my freaking hair out cuhhhk  wtf ughhhh  '
p2412
aS'devin granny noodles on point '
p2413
aS'you says diamonds are forever  i say diamonds are for everyoneee \xe2\x99\xa1\xe2\x99\xa5\xe2\x99\xa1 \xe2\x98\x86\xe2\x98\x85'
p2414
aS'ill try lol '
p2415
aS'wya bruuhhhh '
p2416
aS'tml now bruhhh i cant get on kik '
p2417
aS'wsssp fagggg  \xe2\x99\xa1'
p2418
aS'new avi   \xe2\x99\xa1\xe2\x99\xa5\xe2\x99\xa1 \xe3\x80\x8b\xe3\x80\x8b\xe3\x80\x8b\xe3\x80\x8b'
p2419
aS'if u not getting money we not in the same category'
p2420
aS'goodmrning cuhhk '
p2421
aS'naw i forgot cuzzo kik me'
p2422
aS' cant nobody tell me what to do unless '
p2423
aS' google me   and check my bank account and see what im earning   '
p2424
aS' she got a lonnnnng neck lbbs '
p2425
aS'i hate being away from you \xf0\x9f\x98\xa9\xf0\x9f\x98\x8c\xf0\x9f\x98\x98'
p2426
aS' you cant tell me she aint go for the team cuhhk '
p2427
aS' yall can black out yall avi and pfps on facebook  but mines staying the same    justice for trayvon though lt3 '
p2428
aS'liveeee life     while you can blood '
p2429
aS' i cant deal with a girl tat whinee too much dogg  sit down kid '
p2430
aS'the lawsk  '
p2431
aS'if zimmerman walk  imma start a riot  think im playingg cuhhk '
p2432
aS'these thots are for everyone  pick you one getchu one     '
p2433
aS'the lawsk '
p2434
aS'freeeee malaika and kiaraaaaaa blood     '
p2435
aS'ftlssssssk  '
p2436
aS' uggggh  get right thot '
p2437
aS'was tht you that texted me '
p2438
aS'avigtgtgtgt'
p2439
aS'montez wanna get slappedddddd  let me tell you fathead trick '
p2440
aS'follow back'
p2441
aS'i misss yallllll busssso tml when you see this    5651732'
p2442
aS'i loveeeeeeeeeeeeeeee my boyfriend lt3 '
p2443
asS'2013_29'
p2444
(lp2445
S'dont get caught sleepinggggggggggk    im always innnna cut '
p2446
aS'i love my boyfriend lt333  he my rider  gone be there forever '
p2447
aS'im finna throw a party '
p2448
aS'when people be like they take no ls  i bee like its somebody out here thatll putchu on yo asssssssssss lbbs '
p2449
aS'everybody tryna take people lives   you god trick  '
p2450
aS'i cant trust nobody nomore blood '
p2451
aS'idgaf about nothing  or anybody frl '
p2452
aS'i flick people off sooooooo ugly  '
p2453
aS'trust is a lot to ask for these days'
p2454
aS'ionnt know  man money over everything yaah knoww '
p2455
aS'follow me on instagram    '
p2456
aS'when somebody telling me of how they made mistakes   i aint gone stunt iont be listening frrl   until i learn myself  '
p2457
aS'you make my tummy turn sideways   '
p2458
aS'everywhere i go i check to see if they got wifi   dont tell me you aint did that before oo  '
p2459
aS'bi girls like light skin girls'
p2460
aS'turrrnuhh     for whhaat  you alive aint chu '
p2461
aS'ya only live once ya gotta do it bigg '
p2462
aS'i be thinkin likeeee why do i put up with these females '
p2463
aS'i need me some chips brruh  foodstamps   '
p2464
aS'ya only live once ya gotta do it bigg '
p2465
aS'mo money  mo murder  its real and its the fact of life '
p2466
aS'i cant deaaaal lbbs  mfs think bein a1 is just sayin im a1 since day1  noooooo boaay  mfs need to catchup   '
p2467
aS'cant trustk a thot  they a switch up anytimee '
p2468
aS'bisexual power lt3 '
p2469
aS'dominicans stand up   its us lt3 '
p2470
aS'i think that btch need a moment \xf0\x9f\x98\x98\xf0\x9f\x98\x8f'
p2471
aS'thugs  dead '
p2472
aS'dont stop fw somebody you love for somebody you like cause they a stop fw you for the one they love'
p2473
aS'she thought she had a main   yo man aint cho main yaaahh knnow '
p2474
aS'sometimes you gotta think first and act later yaaahh knoow '
p2475
aS'gotta make this   thats all life about fr '
p2476
aS'follow back '
p2477
aS'cant stomp my grind  '
p2478
aS'twifey rt'
p2479
aS'iont get on kik '
p2480
aS'new avi   keep or delete '
p2481
aS'text me  i been ducked off  3145651732'
p2482
aS'damn muggs so fakeee'
p2483
aS'thanks sessssy '
p2484
aS'yes '
p2485
asS'2013_36'
p2486
(lp2487
S'i can tell if yaaaa 12  roght away \xf0\x9f\x98\x89'
p2488
aS'its complicated  \xf0\x9f\x98\x90'
p2489
aS'cooling  \xf0\x9f\x98\x89'
p2490
aS'its me and my boyfriend against the world \xf0\x9f\x91\x8f\xf0\x9f\x91\x8f\xf0\x9f\x8c\x8d'
p2491
aS'tbh  iont fw nobody frfrl  keeeeepin it that way '
p2492
aS'\xf0\x9f\x98\xb1 '
p2493
aS'i love ayoo tez \xf0\x9f\x98\x8d'
p2494
aS'i guess im singlek  no thots to fall nack on \xf0\x9f\x98\x92'
p2495
aS'its the besttttt daayyyyy everrrrrr '
p2496
aS'im tired af  \xf0\x9f\x98\xa9'
p2497
aS'school is deadk '
p2498
aS'theboredom  \xf0\x9f\x98\x95'
p2499
aS'ughhh  \xf0\x9f\x98\x90'
p2500
aS'im bored'
p2501
aS'im on this thang  \xf0\x9f\x98\x89'
p2502
aS'me too lmao'
p2503
asS'2013_34'
p2504
(lp2505
S'i dont want no babies no time soon '
p2506
aS'yaaaaah '
p2507
aS'i hope it is for me too'
p2508
aS'i dont want no babies no time soon '
p2509
aS'i miss oomf  i used to wanna make her my always and forever '
p2510
aS'i think im going to make some hot chocolate with marshmallows   '
p2511
aS'in so much pain '
p2512
aS'thanks it helps'
p2513
aS'thanks it helps'
p2514
aS'hot'
p2515
aS'ugh  im cramping so bad '
p2516
aS'hot thanks'
p2517
aS'do i drink hot or cold drinks when im on my cycle i forgot'
p2518
aS'i hate periods'
p2519
aS'ugh  im cramping so bad '
p2520
aS'happy birthday btw  '
p2521
aS'oomf are cute   '
p2522
aS'i got the three bs   beauty brains amp body   '
p2523
aS'shoutout to my new follower'
p2524
aS'thanks  '
p2525
aS'oomf can get it \xf0\x9f\x98\x89'
p2526
ag462
aS'thick   \xf0\x9f\x98\x8d'
p2527
asS'2013_33'
p2528
(lp2529
S'i tried out the porn logic yesterday i spilled my drink on a girls pants and tried to take them off never been k\xe2\x80\xa6'
p2530
aS'that coffee mocha mama just got me gtgtgt'
p2531
aS'wassup twitter'
p2532
aS'okaaay  '
p2533
aS'dont be stranger '
p2534
aS'i wanna foght her ugly two pinky toe havin as '
p2535
aS'im wild  who caresssss '
p2536
aS'broke niggas we see right through ya\xe2\x80\x9d'
p2537
aS'sometimes i do deserve a whoopin lbbbs  im a wildassteetee '
p2538
aS'i have no hoes   frfrl '
p2539
aS'turnnnuhhh   '
p2540
aS'and people kept asking did i still go with courtney lol and i was like no '
p2541
aS'i have no hoes   frfrl '
p2542
aS'fuck a bitch til she real tired'
p2543
aS'lol rigght'
p2544
aS'broke niggas we see right through ya'
p2545
aS'im going going to see my niggga today  '
p2546
aS'everybody claim they foreign  btch swerve you black'
p2547
aS'if i cant make you run  i bet that oozie can  '
p2548
aS'think before you speak words can fucking hurt foreal  wys '
p2549
aS'i think im blind in love '
p2550
aS'follow back'
p2551
aS'nfb '
p2552
aS'nobody will replace you'
p2553
aS'im craving for you '
p2554
aS'im out  '
p2555
aS'i got my cake up    '
p2556
aS'trampoline booty   '
p2557
aS'i told her jumpity jump that boooooooty   '
p2558
aS'i got a few wcw'
p2559
aS'vibing to rich homie quan  '
p2560
aS'that moment when you see someone else call your bestfriend their bestfriend and youre like bitch no'
p2561
aS'maan let me chill out cuhhk   '
p2562
aS'um that last wcw is exd out   she will get beat being like that on bloods'
p2563
aS'nfb pretty \xe2\x80\x9dthanks sexy dont be a ghost i wont '
p2564
aS'owwwwieeeee  will do'
p2565
aS'is a stranger ampamp needs to hmu  '
p2566
aS'wcw   she sesssssssssy  lt3'
p2567
aS'thanks '
p2568
aS'nfb pretty '
p2569
aS' my lil brother str8 cracked my phone  \xf0\x9f\x98\xa1'
p2570
aS'wcw  so pretty  '
p2571
aS'cant wait til my moma get off  '
p2572
aS'nfb '
p2573
aS'heeeey sessssy '
p2574
aS'\xf0\x9f\x98\x9d\xf0\x9f\x98\x8e\xf0\x9f\x91\x8c\xf0\x9f\x91\x8c\xf0\x9f\x92\x95\xf0\x9f\x92\x95'
p2575
aS'teambisexual teamgay teamlesbian the movement we are the shit  '
p2576
ag1847
aS'thank youuu  '
p2577
aS'i feel like nemo  lost'
p2578
aS'wcw and just my crush everyday \xe2\x99\xa5'
p2579
aS' lt3  '
p2580
aS'my wcw  lt333  she sesssssssy '
p2581
aS'teamlesbian bisexual teamnolabel  rt if you are any of these'
p2582
aS'i want a wcw that aint famous  '
p2583
aS'i ride for mines   '
p2584
aS'im hella petty lbbbs  '
p2585
aS'mention me    dont be scared  teambisexual'
p2586
aS'hoodie amp jackets  gtgtgtgtgtgt loveeeeeeeeeee them  '
p2587
aS'be cleaa  iont like you aight  '
p2588
aS'good evening lt3 '
p2589
aS'should i keep or delete my avi '
p2590
aS'im hurt  lt3'
p2591
aS'the person who makes you happiest is the person who can hurt you the most'
p2592
aS'im livin crazy my granny still watchin ova me'
p2593
aS'my nephew talk like he grown af  nigga you 9  ill slap you across the room amp have you telling my sister w tears roll\xe2\x80\xa6'
p2594
aS'tez'
p2595
aS'montez i will cut youuuuuuuu '
p2596
aS'bgc11 tonightt  withhhhhhh my bf '
p2597
aS'montez a pervert  '
p2598
aS'montez mad at me '
p2599
aS'everythang aint all peaches and cream nigggga  i just playing the game tez  im playing the game  '
p2600
aS'i hate ducks  they think they aint gotta be scared of nothingggg amp fly away  '
p2601
aS'i wanna punch my momma'
p2602
aS'you playing with my mind '
p2603
aS'thanks '
p2604
aS'\xf0\x9f\x98\x8d\xf0\x9f\x98\x8d hella cute'
p2605
aS'yeaaaaa'
p2606
aS'i love my boyfriend  bone thugz lt3  529'
p2607
aS'becaaaause  please'
p2608
aS'i need some juice '
p2609
aS'everybody at school  '
p2610
aS'omg yal i had to walk to the annex in the rain'
p2611
aS'i want a fansign '
p2612
aS' somebody mention me  '
p2613
aS'lmao that wassup i loved it haha u wasnt lying'
p2614
aS'only if you up my name on your body  with marker '
p2615
aS'already did  one step ahead of you '
p2616
aS'awww damn u need the iphone but u can delete that now i save it'
p2617
aS'i wanna hear this reason lol because my phone broke and wont download new apps or let me delete some  '
p2618
aS'i cant right now '
p2619
aS'lol i feel youuu '
p2620
aS'lol yooo i just wish this wasnt for twitter to see'
p2621
aS'yes maam'
p2622
aS'lhhhh so you angry '
p2623
aS'f you then lhhh'
p2624
aS'lol  nah the lies'
p2625
aS'watching sam and cat '
p2626
aS'lol you in no man land  yeaaaa with you  '
p2627
aS'wanna be one '
p2628
aS'new friends wanted  \xe2\x80\x9d'
p2629
aS'watching tv  boredddd '
p2630
aS'sitting here o pandora vibing wyd'
p2631
aS'mcm mancandymonday  rich home quan  lt3'
p2632
aS'wifey tweeting now  '
p2633
aS'new friends wanted  '
p2634
aS'i need a hug  i big juicy hug lt3'
p2635
aS'wyd baldy  '
p2636
aS'wyd baldy  '
p2637
aS'i miss you more love \xe2\x99\xa5'
p2638
aS'i bit my lip  '
p2639
aS'hello kitty  on your lower belly  '
p2640
aS'roosevelt fuck my schedule up'
p2641
aS'bra i shoulda stayed at gateway '
p2642
aS'alright girl lol just dont forget'
p2643
aS'true well im gone work on that '
p2644
aS'oh snap ahaha u need kik so u can keep in touch w me its hard for me to keep up w people on twitter'
p2645
aS'jomael lucky he get to see boooooty allday'
p2646
aS'lol i know you got up there in followers now amp i know i got better ones though amp im bigger '
p2647
aS'lol that was so long ago man i aint even have alot of followers on my tl then u stopped getting on and deleted the p\xe2\x80\xa6'
p2648
aS'i know  we used to have fun talking lol'
p2649
aS'i miss youuuu '
p2650
aS'still got ya pw \xe2\x99\xa1 bye now '
p2651
aS'i was here \xe2\x99\xa5 '
p2652
aS'tha chick on tha left tho \xe2\x99\xa1 lol'
p2653
aS'hows school lbbbbs '
p2654
aS'iced tea gtgtgt '
p2655
aS'i cant deal with these lowlifes  '
p2656
aS'big booooty '
p2657
aS'i miss  '
p2658
aS'dj im not in gc '
p2659
aS'they had ah naked lady in the kitchen cooking crack lmfaooo \xf0\x9f\x98\xad\xf0\x9f\x98\x82\xf0\x9f\x98\xad\xf0\x9f\x98\x82'
p2660
aS'she a weirdo lol'
p2661
aS'white people think all black people look alike ampamp we think they all look alike '
p2662
aS' thanks'
p2663
aS'yea kinda \xf0\x9f\x98\xbc'
p2664
aS'it feel like 3   but its 12'
p2665
aS'i just yawned like 10x in 3 minutes '
p2666
aS' lhh im petty'
p2667
aS'change yo avi bee  i be thinking you that faketwitter spam page '
p2668
aS'just got mad '
p2669
aS'twifey '
p2670
aS'its not even possible to try amp change your sexuality if you gay you gone be gay you might try some different but it \xe2\x80\xa6'
p2671
aS'twifey rt '
p2672
aS'im bisexual  been bisexual in the open for forever  my mom knows everybody knows   so why should i cha\xe2\x80\xa6'
p2673
aS'im physically attracted to a females body  '
p2674
aS'i just sit back in watch all theses snake niggas'
p2675
aS'im bisexual  been bisexual in the open for 3years  my mom knows everybody knows   so why should i change  '
p2676
aS'tyaaa is not bout that lifee  she spit a good game though '
p2677
aS'another boring day wys '
p2678
aS'never let yo parents know you got money  they one ask to borrow some lbbs '
p2679
aS'lt pretty brown skin amp ha pussy taste like water'
p2680
aS'goodmorning '
p2681
aS'good morning '
p2682
aS'i want a twifey  lt3'
p2683
aS'i aint get no goodmorning mentions  can i get some goodafternoon '
p2684
aS'guddmoring tl  good morning '
p2685
aS'o t f'
p2686
aS'my dick hella hard im weaaaak  lhh'
p2687
aS'i member when i was a lil savage i settled down   '
p2688
aS'i heard she got that clap  i aint fw it cuhhhk  '
p2689
aS'niggas be 61 amp still talking all shit tah ah 58 nigga like boay keep up shots fired man down'
p2690
aS'what does oomf stand for  \xe2\x80\x94 lol wow'
p2691
aS'ol babes hurt on my tl lbbbbbs  '
p2692
aS'i member me and cynthia was like bonnie and clyde  we was hella close   stuck together '
p2693
aS'fried pickles good  mmmmm'
p2694
aS'im cuffed under my baby wing  52913'
p2695
aS'im faithful '
p2696
aS'two months amp it feel like two years i been with tez  529 lt3'
p2697
aS'i am willing to share  jussst ask lt3 '
p2698
aS'dont nobody care unless you sharing \xe2\x9d\xa4'
p2699
aS'made me some hotwings this morninggggggg  they hit  '
p2700
aS'bouta get up ampmake me sum waffles or sum shit'
p2701
aS'somebody mention me  '
p2702
aS'buck buck  '
p2703
aS'never let yo parents know you got money  they one ask to borrow some lbbs '
p2704
aS'everybody amp they grandpa wanna be a rapper  gtfo '
p2705
aS'tez my husband  he met my bird yesterday  '
p2706
aS'i ride for mines whenever however  '
p2707
asS'2013_32'
p2708
(lp2709
S'welp  who wanna tml  '
p2710
aS'be on all bs '
p2711
aS'makin money is the best feelin everrrr blood  '
p2712
aS'makin money is the best feelin everrrr blood  '
p2713
aS'hopee yaal know mfs gettin random dropped at schooool all year  '
p2714
aS'ionnnt smoke nomore  that sht dead  tez voice '
p2715
aS'keeep yo head up  even if you cant  '
p2716
aS'finna go make somme moneeey   '
p2717
aS'who can i come see  '
p2718
aS'braaah all these people dead that used to be so close to me bee  '
p2719
aS' i cant take another breakup '
p2720
aS'blood straight trippinn  '
p2721
aS' i cant take another breakup '
p2722
aS'follow back gorgeous '
p2723
aS'goodmorning have a good day follow me  \xe2\x99\xa5'
p2724
aS'im starving ova here man'
p2725
aS'chanel  '
p2726
aS'ew who listens to clean versions of songs '
p2727
aS'my followers are so lameeee  they scary and dont speak '
p2728
aS'mann ross is my favorite store now'
p2729
aS'mannn i need to chill ouuut blood'
p2730
aS'i aint got no bestfriend '
p2731
aS'i live a crazy life'
p2732
aS'goodmorning mentions anyone  retweet  \xe2\x99\xa5\xe2\x98\x9c'
p2733
aS'avi rates rt'
p2734
aS'if yo twitter private die'
p2735
aS'i wanna break her face doggg  '
p2736
aS'ok so  i dgaf about any of that  wssp with my ones '
p2737
aS' is the movement  '
p2738
aS'imma learn to quit fw sooner or later '
p2739
aS'your my drug ampamp im addicted lt3'
p2740
aS'i like mines conceited  '
p2741
aS'if you aint gettin money turn around'
p2742
aS'your my drug ampamp im addicted lt3'
p2743
aS'im so sick of people period'
p2744
aS'wildass teetee '
p2745
aS'groupies on your boyfriend ltltltltltlt groupies on you gtgtgtgtgtgtgtgt '
p2746
aS'goodmorning mentions  \xe2\x9d\xa4\xe2\x98\x80  rt strangers are welcome fav for a follow  \xe2\x9d\xa4\xe2\x98\x80   must follow back '
p2747
aS'braaah  mfs straight be flexinnn  shawty straight flexin atl voice'
p2748
aS'dont let it slip up'
p2749
aS'kay '
p2750
aS'want me to come see you today '
p2751
aS'sooooo when school start monday i gotta look a all fanning kids everyday  lbbs at east i get to se msswinney'
p2752
aS'i need your number cause i don be on here frfrl'
p2753
aS'i miss u too'
p2754
aS'brraah i miss  lt3'
p2755
aS'stay in yo lane'
p2756
aS'goodbye goodmorning'
p2757
aS'go read my lt'
p2758
aS'just imagine the prettiest girl in your head but she on the toilet and smell like something died '
p2759
aS'im not perfect  trust me'
p2760
aS'coffee put me to sleep'
p2761
aS'oooooo im tellin '
p2762
aS'my tummy hurts im finna go sit on the toilet and text '
p2763
aS'that shit look good af'
p2764
aS'hahaha  yes they do  rt do vampires eat pizza'
p2765
aS'hahaha  yes they do  rt do vampires eat pizza ok so im a vampire '
p2766
aS'that shit look good af  ikr'
p2767
aS'do vampires eat pizza'
p2768
aS'eating pizza '
p2769
aS'im sleepy now'
p2770
aS'omgggg  what if me and tez break up guess what i got papers on him he aint going nowhere  teehee'
p2771
aS'that one person you cant get out of your head ltltltltltltlt lt3'
p2772
aS'goodmorning\xe2\x99\xa0 good morning '
p2773
aS'2hunna 15 dollas'
p2774
aS'me and tez engaged yall aint know  lt3'
p2775
aS'what is the craziest thing you have ever done for love came to his house when we broke up to talk to his mom '
p2776
aS'ayoo tez onna book big dummies   hes different now  he mines'
p2777
aS'hate bein up super early wys'
p2778
aS'team no sleeeeeep '
p2779
aS'im still up  nosleep'
p2780
aS'montez always on my mind like a drugggggggg  i love my boyfriend braaaaah '
p2781
aS'why am i up'
p2782
aS'versace versace bae know that i got you as long as you got me \xf0\x9f\x91\xad\xf0\x9f\x92\x8d'
p2783
aS'im up '
p2784
aS'finna go take a  2 on the menu  bbl '
p2785
aS'i gotta poop  my tummy hurtss braaah '
p2786
aS'they do wcw on twitter too  omggggg im tryna get away from all that onna book  '
p2787
aS'aint nobody tell me goodmorning'
p2788
aS'born sinner was never born to be perfect'
p2789
aS'she gotta bigggggg booty btw  '
p2790
aS'you fufu  brittany morgan voice  '
p2791
aS'sometimes i wanna see myself through somebody else eyes '
p2792
aS'im dominican queen onna book  how can you not notice me  lhhh'
p2793
aS'i dont think about the outcome i do it first and find out  yaaaah know  '
p2794
aS'i swear i will slap you'
p2795
aS'mann its always gone be somebody out of the group that want your boyfriend'
p2796
aS'cooling thats all i know how to do'
p2797
aS'never assume assumptions lead to expectations expectations lead to letdowns'
p2798
aS'heeey booo lt3'
p2799
aS'goodmorning \xe2\x99\xa1'
p2800
aS'school for 12 years college for 4 years then you work until you die cool'
p2801
aS'every morning when i get up all i know is juug \xf0\x9f\x91\x8c\xf0\x9f\x94\xab\xf0\x9f\x92\xb0\xf0\x9f\x92\xaf'
p2802
aS'rip to all that passed  welcome to all the new babies this year   '
p2803
aS'goooodmorningggggggg  lt3'
p2804
aS'im beautiful cant tell me otherwise  lt3'
p2805
aS'finna mobbbbb all today  yes im being dirty today'
p2806
aS'going to see my fave again today '
p2807
aS'if you not fwm then iont fwy'
p2808
aS'what if i was chinese  lhhhh ill be ugly with a nice body '
p2809
aS'beef jerky pastachios and chips im good '
p2810
aS'eating beef jerky mmmm lt3'
p2811
aS' richhomie quan sexy  '
p2812
aS'catch that rabbit catch it'
p2813
aS'richhomie quan sexy  '
p2814
aS'watching bet'
p2815
aS'catch up lil nigga '
p2816
aS'i dont answer mfs thats petty'
p2817
aS'when people dont text me back i will delete your number and spazz'
p2818
aS'commercials erk me some terrible lbbbbs'
p2819
aS'i like my girls thick skinny girls losinggggggg lh'
p2820
aS'lil nigga think he bout it you aint bout it till you do time uncle voice'
p2821
aS'finna braid my momma hair bbl'
p2822
aS'i swear sometimes i will spazz out of nowhere why idk'
p2823
aS'i wonder why all my exes want me back well sorry i got someone amp happy get guwaaaaaap   fk on  '
p2824
aS'texting cooling eyes low just vibing lt3'
p2825
aS'why am i up ohhhh my fave woke me up lbbs'
p2826
aS'still up'
p2827
aS'lol yes'
p2828
asS'2013_31'
p2829
(lp2830
S'i didnt know you would care lh'
p2831
aS'oh okay lol well i know i just been working a lot'
p2832
aS'eating beef jerky who wanna text nobody cool'
p2833
aS'kell know what it is lh'
p2834
aS'i love you 32613'
p2835
aS'devo think he tuff boy chill out'
p2836
aS'my wife the ish to me  yes yes'
p2837
aS'i been knew how i just didnt start doing other people hair till i braided my hair first to make sure im good enough '
p2838
aS'i fked her and made her walk from the four seasons dumb thot'
p2839
aS'i love my wife yall she the shit to me \xe2\x99\xa1\xee\x84\x86\xee\x90\x98  lt3'
p2840
aS'all '
p2841
aS'if you fw the opp then yo life in danger '
p2842
aS'she a setup '
p2843
aS'hi'
p2844
aS'new friend rt'
p2845
aS'lap of luxury yes i will get there '
p2846
aS'im a stripper for my mirror lol'
p2847
aS'i braided my own hair '
p2848
aS'yaaa i been braiding for a while now lbs lateeeee '
p2849
aS'omg like  lhh a big whole smile just came on my face '
p2850
aS'crap'
p2851
aS'im soooooo petty sometimes lh'
p2852
aS'new avi old picture '
p2853
aS'ohhhhh okay lh but yes braiding '
p2854
aS'feelings mutual'
p2855
aS'it just got hot'
p2856
aS'get gwuap get gwuap'
p2857
aS'these thots are for everyone pick you one go getchu one'
p2858
aS'doing hair and lh girl just say no'
p2859
aS'watching white chicks lbbs wybo'
p2860
aS'wydoing '
p2861
aS'what if i had 100million dollars '
p2862
aS'the boredom'
p2863
aS'you mad at me or something\xe2\x80\x9d fasho lol'
p2864
aS'you mad at me or something'
p2865
aS'df that mean bee'
p2866
aS'who selling a galaxy s4'
p2867
aS'lh no im not'
p2868
aS'hey love lt3'
p2869
aS'dumb thot'
p2870
aS'tbh i love my wife and boyfriend lt3'
p2871
aS'watching white chicks\xe2\x80\x9d mmm must be nice  lh yes it is thank you'
p2872
aS'watching white chicks'
p2873
aS'right here'
p2874
aS'where is this girl'
p2875
aS'so to my new follower she cute and bad asf go follower her'
p2876
asS'2013_30'
p2877
(lp2878
S'wtf i do  the bae always mad '
p2879
aS'i loveeeee montez momma bruh i can talk to her about a lot '
p2880
aS'iont mess with my daddy who does lbbs teammom'
p2881
aS'spongebob is my rod  he aint goin nowhereeeee tez voice'
p2882
aS'google gets me far '
p2883
aS'sdbyz  execution freestyle supportgoodmusic you gonna fuck w this trust me'
p2884
aS'thanks '
p2885
aS'why do people even lock their wifi with a password \xf0\x9f\x98\xa1\xf0\x9f\x91\x8e\xf0\x9f\x98\xa9 jesus said love thy neighbour \xf0\x9f\x99\x8c\xf0\x9f\x99\x8f\xf0\x9f\x91\x8d rft lhhhhh '
p2886
aS'i came alone i die alone'
p2887
aS'i stayed up till 5 seriously why am i up'
p2888
aS'why am i up'
p2889
aS'told brandon to chill out cant tell him nothing though freebrandon'
p2890
aS'huh '
p2891
aS'goodmorning  '
p2892
aS'that show so old soooooooo  rt'
p2893
aS'watching spongebob '
p2894
aS'im gone leave the rats alone'
p2895
aS'catch me sleeping and you shoot at me you betta kill me cause im coming for youuuuuu'
p2896
aS'free brandon '
p2897
aS'school right around the corner '
p2898
aS'i wonder who be talkin about me my ears always ringing '
p2899
aS'cant nobody swoop my heaad up '
p2900
aS'goodmorning mention  rt'
p2901
aS'my brother got locked up free him '
p2902
aS'am i wrong no good'
p2903
aS'i wish i could have met biggy or tupac'
p2904
aS'breakfast chips for me'
p2905
aS'going to see montez today  and kell'
p2906
aS'morning'
p2907
aS'i love my boyfriendddddddd    or whatever 529 '
p2908
aS'monkeybutt'
p2909
aS'i gotchu'
p2910
aS'text me 3145651732 '
p2911
aS'do you have a phone '
p2912
aS'see how you do me \xf0\x9f\x98\x9e\xf0\x9f\x98\x9e'
p2913
aS'follow me on instagram  '
p2914
aS'who you tellin  lbs  '
p2915
aS'long time no tweet \xf0\x9f\x98\x9e'
p2916
aS' lt3'
p2917
aS'yeaaaa   '
p2918
aS'\xf0\x9f\x99\x88\xf0\x9f\x99\x88\xf0\x9f\x99\x88'
p2919
aS'so now everybody wanna be rich homie something huh     make up ya own stuff '
p2920
aS'man i need some kell in my life again   this breaaaaak overrr   32613  fl big dummy '
p2921
aS'they always think i be acting petty and mean nooo if you dont say sht to me i want say sht to you simple right  okay then'
p2922
aS'i aint got no wifee'
p2923
aS'kell be thinkin i be playing with her   drinks koolaid shawty dont play  '
p2924
aS'i aint got no wifeee  i seen yo tweet kell  '
p2925
aS'i like to keep a lot of things to myself\xe2\x80\x9d'
p2926
aS' rt i pay attention to the little shit'
p2927
aS'i pay attention to the little shit'
p2928
aS'you cant be friends with trust or love everybody'
p2929
aS'i like to keep a lot of things to myself'
p2930
aS'the less you care the happier youll be'
p2931
aS'if we aint together dont worry about me'
p2932
aS'everybody gone be lookin for me   imma be like im laid out at the beach  '
p2933
aS'i wanna pack up and just leave   and thats what imma do after this year '
p2934
aS'whitepeoplegetseriousif you call them racist dude im not racist i have black friends   '
p2935
aS'somebody told me bestfriend is just a code word   not for me  '
p2936
aS'and its not your fault that i fumble your heart'
p2937
aS'i aint got nobody to talk to nomore  '
p2938
asS'2013_19'
p2939
(lp2940
S'my mom is a perfect example of phat \xf0\x9f\x92\x9b\xf0\x9f\x98\x8c happymothersday'
p2941
aS'you unfollow me but still see me on your tl hurt \xf0\x9f\x98\x82\xf0\x9f\x91\x8f'
p2942
aS'my heart at war with everybody i aint letting nobody in '
p2943
aS'ughhh i still like teetee doe '
p2944
aS'i cant be hurt again aint lettin it happen bee'
p2945
aS'kay i got chu'
p2946
aS'i aine heard u say tht sht lol shake life w tht amp naw cus u was doing u man i was getting mad af cus u wsnt pa\xe2\x80\xa6'
p2947
aS'dismissed'
p2948
aS'i love ti'
p2949
aS'2chainz cant dress'
p2950
aS'dont steal my stuff lil homie amp maneee you doing yo own thang keep doing it gdm'
p2951
aS'now uk i be tryna fwy uont be respondng bck luh homie'
p2952
aS'im self influenced \xf0\x9f\x91\x8f\xf0\x9f\x91\x8f\xf0\x9f\x92\x9b'
p2953
aS'it the music blasting   xx'
p2954
aS'you are too'
p2955
aS'fke as hell'
p2956
aS'so  '
p2957
aS'short ahhhh'
p2958
aS'my hair so curly when i wet it \xf0\x9f\x91\x8c dominican'
p2959
aS'im 57\xe2\x80\x9d im 52 so'
p2960
aS'me flat ironing my hair  my mama damn girl yo hair so little you can roll it with rice me '
p2961
aS'let that ish burn'
p2962
aS'i put my earphones in to ignore the world'
p2963
aS'she throw back   '
p2964
aS'np lil wayne x everythingg lt3'
p2965
aS'meek mill xx burn gtgtgtgtgtgt \xf0\x9f\x91\x8c\xf0\x9f\x92\x9b'
p2966
aS'my afro look better than most of these females weave imdeaaaad \xf0\x9f\x98\x82\xf0\x9f\x91\x8f\xf0\x9f\x91\x8f'
p2967
aS'doing everything that i have to  a1'
p2968
aS'im wearing my afro tomorrow idc'
p2969
aS'fb'
p2970
aS'she high as hell \xf0\x9f\x98\x82'
p2971
aS'beautiul mother \xf0\x9f\x98\x98\xf0\x9f\x92\x9b i love youuuuuuuu happy mothers day  '
p2972
aS'person is typing person is typing person is typing person is typing person is typing person is typing person says hey'
p2973
aS'happy mothers day'
p2974
aS'the way spongebob run'
p2975
aS'just woke up'
p2976
aS'yea i was'
p2977
aS'happy mothers day goodnight \xe2\x9c\x8c\xf0\x9f\x92\x9b'
p2978
aS'whateveess \xe2\x9c\x8c\xf0\x9f\x91\x8e'
p2979
aS'here you go w this   stop bringing them up when we talk '
p2980
aS'amp i am sleepy nigga yawns bye subtweet'
p2981
aS'i aint finna be stupid like these other thots lil homie'
p2982
aS'how  when i tell you that all the time  '
p2983
aS'lhhh  just wait  aint you suppose to be sleep mf '
p2984
aS'i aint know you wanted to talk to me for hours like we used to '
p2985
aS'naww  you always decide to talk to at the last minute  '
p2986
aS'aweeeeeeeeeeee flips hair subtweet'
p2987
aS'nigga ill chop you subtweet'
p2988
aS'doing what lbs being me gdm'
p2989
aS'goodnight amp you be making me mad doing that sht  lbs'
p2990
aS'who gone stop me blooood'
p2991
aS'lhhh  stop subtweeting tonicaa cuhh '
p2992
aS'wydddd \xe2\x80\x9d finna ko night'
p2993
aS'females talk to much'
p2994
aS'females petty'
p2995
aS'females gone be extra stupid  they stupid '
p2996
aS'lt who wanna kik'
p2997
aS'i aint really with that talk '
p2998
aS'caaaant be meeeeeeee im telling you bee  lbbsssssss  \xf0\x9f\x91\x8f\xf0\x9f\x91\x8f\xf0\x9f\x91\x8f'
p2999
aS'naww  cause they being extra  '
p3000
aS'aint nobody talkin bout you bria bee '
p3001
aS'who wanna kik'
p3002
aS'so she mad \xf0\x9f\x98\x8f\xf0\x9f\x91\x8c\xf0\x9f\x98\x82'
p3003
aS'laying down  mad af \xe2\x80\x9d bet you is lbs chill outttttttt \xf0\x9f\x98\x92'
p3004
aS'lhhhh ight bria'
p3005
aS'awwwwwwwwwwwwwwww at what tonica just said no i dont '
p3006
aS'if iont like you and you know it  when you see me in my casket dont cry'
p3007
aS'lh tweeting amp laying down till i ko wby'
p3008
aS'i was tired of looking at fb  but wyd '
p3009
aS'cant be me \xf0\x9f\x98\x92'
p3010
aS'she straight got these thots fighting  arguing for her '
p3011
aS'im weaaaak bruh \xf0\x9f\x98\x82\xf0\x9f\x98\x82'
p3012
aS'bria mess with the whole summer high school of girls \xf0\x9f\x98\x82\xf0\x9f\x98\x82\xf0\x9f\x98\x82'
p3013
aS'yea why you tell me to get on twitter bee'
p3014
aS'yeahh tonicaa '
p3015
aS'lol bored'
p3016
aS'nun watching bad boys ii lol'
p3017
aS'wassabi\xe2\x80\x9d wssp niggaaaa \xf0\x9f\x98\x8f'
p3018
aS'two steps down tl whateves lhh'
p3019
aS'\xf0\x9f\x98\x94 lol i did at first not f you nigga \xf0\x9f\x91\x8f\xf0\x9f\x91\x8f\xf0\x9f\x91\x8f\xf0\x9f\x91\x8a'
p3020
asS'2013_38'
p3021
(lp3022
S'i hate lol im jp that used to be my boo but she fake'
p3023
aS'you not real you covering up what is  '
p3024
aS'money over thots '
p3025
aS'inlove with making money and love spending it  '
p3026
aS'i miss oomf '
p3027
aS'rich gang'
p3028
as.