(dp0
S'2014_21'
p1
(lp2
S'literally twitter was so fun what happened'
p3
aS'but tru'
p4
aS'did you just call me scaroline'
p5
aS'i would rt if i could i ruined a shirt bc of this'
p6
aS'finding out that me and scarlett live 30 minutes away\xf0\x9f\x99\x8c\xf0\x9f\x99\x8c'
p7
aS'what are these things called friends'
p8
aS'did you just tweet yourself'
p9
aS'neverforget this tweet'
p10
aS'what did i even tweet about tf'
p11
aS'miss drea and kammie and jules and cate and so much more people omg'
p12
aS'my feed was non stop blowin up'
p13
aS'like remember when we made these though'
p14
aS'bless'
p15
aS'everything shay tweets just makes me go same'
p16
aS'my name isnt even scarlett anymore what do i do'
p17
asS'2014_7'
p18
(lp19
S'7 minutes of extra sleep in the morning seriously does matter to pisces'
p20
aS'roleplaysucks why dont u motherfucjers get a life ok h8erz'
p21
aS'i honestly hate everyone right now'
p22
aS'fun fact i broke my phone by throwing it against the wall when this guy texted me'
p23
aS'i got my cracked phone uncracked aha yes'
p24
aS''
p25
aS'getting to the point where idc'
p26
aS'v sad and not v rad'
p27
aS'whoo i'
p28
aS'rt if u cried 4 me'
p29
aS'i cracked my phone oh my god guys'
p30
aS'who r u'
p31
aS'whispers i made my aldc acc again bc im weak bye'
p32
aS'im so weak i wanna come back wtf'
p33
aS'i deleted my instagram  like its not there anymore  amp im not tweeting anymore bye everyone '
p34
aS'stop it i dont want anymore drama please stop tweeting me'
p35
aS'no you dont leave me alone'
p36
aS'you tweeted me on my twitter stop it im not kidding i wasnt saying anything about you leave me alone'
p37
aS'so 2 aldc making me wanna kill myself holla'
p38
aS'she called me out i wasnt talking about you or kenna or skylar or whatever leave me alone'
p39
aS'no im not this isnt about you or skylar so please stop'
p40
aS'who said this was about skylar'
p41
aS'this wasnt about you so please fuck off '
p42
aS'you dont know a thing about me you sanctimonious cunt'
p43
aS'claps 4 u'
p44
aS'twitters dumb im deleting this bye'
p45
aS'because you definitely cant get those of the internet youre a liar and its disgusting'
p46
aS'who even are you lol'
p47
aS'i dont believe you you dont tell everyone that your a real sick person faking that'
p48
aS'just to let you know i have depression amp anxietynot self diagnosed so please shut up '
p49
aS'are you dumb or just a bitch'
p50
aS'love you sagey'
p51
aS'can i get a heck yes'
p52
aS'same'
p53
aS'fuck off'
p54
aS'what lol'
p55
aS'what even is princess rp like what even are you'
p56
aS'oh grow up'
p57
aS'what the fuck is a plastic this isnt mean girls'
p58
aS'user'
p59
aS'we wouldnt dislike princess roleplay if they didnt copy every single thing we did'
p60
aS'hi'
p61
aS'wait dece'
p62
aS'kms lol'
p63
aS'delaneyyyyy'
p64
aS'r u high'
p65
aS'what the omg is that anna kendrick or cold sprouse i'
p66
aS'who else has no school today\xf0\x9f\x91\x8c'
p67
aS'goodnight everyone i hope you all sleep well \xf0\x9f\x92\x97'
p68
aS'my ig and twitter feed is dead oh'
p69
aS'heres a cup of calm the fuck down'
p70
aS'message me if ur cool'
p71
aS'why'
p72
aS'you tell yourself your hot shit and you immediately become hot shit and no one can mess with you lol its literally that easy'
p73
aS'confidence is everything mother fuckers'
p74
aS'my parents hate disney worldland they call it rat land \xf0\x9f\x98\x85\xf0\x9f\x98\x85'
p75
aS'life is too short for shitty sex and bad relationships so go find someone who fucks you right and treats you how you d\xe2\x80\xa6'
p76
aS'i hate when people ask \xe2\x80\x9cwho you tryna look good for \xe2\x80\x9d bitch myself bye'
p77
aS'my english teacher tells us that she is justin timberlakes wife'
p78
aS'makes a amp rocket ship account'
p79
aS'makes a fake rocket account'
p80
aS'he wouldnt use aldc bc he would be mini justin bieber duh'
p81
aS'ill block him omfg no'
p82
aS'im serena'
p83
aS'oh my god'
p84
aS'if u knew rocket rt if u cried'
p85
aS'no shit alexa'
p86
aS'what kind of name js rocket anyway'
p87
aS'rt if u cried'
p88
aS'im cruing js that even legal'
p89
aS'retweet for a valentines card from the shay naynay'
p90
aS'watch him come back'
p91
aS'he told me he liked me ampi told dals i liked him and he asked av out'
p92
aS'whispers is this mine'
p93
aS'v annoyed'
p94
aS'he aged ip tho'
p95
aS'tell me bc u like me \xf0\x9f\x92\x96\xf0\x9f\x92\x96\xf0\x9f\x92\x96'
p96
aS'omg how am i just finding out about this'
p97
aS'he changed to josh hyland its good'
p98
aS'i had a crush on him and he didng like me back i'
p99
aS'do u remember the original mcswerve aka rocket amp he used fetus justin bieber bye'
p100
aS'i just spilled pasta all over myself rt if u cried'
p101
aS'me'
p102
aS'luv u'
p103
aS'nah'
p104
aS'fuck i embarrassed myseld'
p105
aS'i cant though'
p106
aS'is this mine'
p107
aS'cries bc i dont want my pasta anymore'
p108
aS'gives you pasta'
p109
aS'is this mine'
p110
aS'do i add this to my duck number bio or nah'
p111
aS'watching friends and eating pasta \xf0\x9f\x98\x8e'
p112
aS'whats up'
p113
aS'weenis rhymes with penis hahahahahaha'
p114
aS'can you tell me which is mine when you tweet it idc man'
p115
aS'hey'
p116
aS'quietly tries to figure out which indirect is mine'
p117
aS'beats u up for that'
p118
aS'can we just plan to meet up at a football game bc im not supposed to have internet friends but like still'
p119
aS'what if i pretend to go to my grandparents house and just show up to your school'
p120
aS'like an indirect'
p121
aS'if you dont like chandler on friends how do you live your life'
p122
aS'beats u up harder'
p123
aS'someone come over and eat pasta with me while watching friends'
p124
aS'retweet to be my boo yes yes \xf0\x9f\x8e\x89\xf0\x9f\x8e\x89\xf0\x9f\x92\x97\xf0\x9f\x8e\x89\xf0\x9f\x8e\x89'
p125
aS'\xf0\x9f\x90\xa3'
p126
aS'like an indirect'
p127
aS'fav for a subtweet ps stolen from sage'
p128
aS'quote this with a pic of us\xf0\x9f\x8e\x89\xe2\x80\x9d'
p129
aS'twitters better then ig oh'
p130
aS'sweats nervously'
p131
aS'someone be my sibling bc siblings are cute amp i want it bye'
p132
aS'tweet it to me bc bio'
p133
aS'blocks'
p134
aS'someone read my bio amp do it bc zero so far get it together'
p135
aS'my last name is valentine so now you have to be my valentine sorry i dont make the rules'
p136
aS'love youuu'
p137
aS'im a cutie rt if you agree \xf0\x9f\x92\x97\xf0\x9f\x92\x97\xf0\x9f\x92\x97'
p138
aS'the only reason i made this twitter is for my header amp if you think otherwise your wrong bye'
p139
asS'2014_25'
p140
(lp141
S'if youre an original tcrp member rt this thx'
p142
aS'i actually hope tcrp stays together this time because its so much more active then aldc and no drama really'
p143
aS'excuse me but is there a reason you all treat me like a fucking ghost'
p144
aS'rt if u cri evry tiem'
p145
aS'rt if ur guna b up al nite countin ur swegs'
p146
aS'call me moody and ill punch u in the throat'
p147
aS'remember that time i threw my phone bc a cute boy texted me and i threw my phone and it cracked'
p148
aS'kidding loveu'
p149
aS'hoe'
p150
aS'yaaass pls'
p151
aS'i only like 67 of tcrp rt if u agree'
p152
aS'your models cameron dallas basically im saying date me'
p153
aS'rts'
p154
aS'im a qt rt if u agree'
p155
aS'did u just say i should be a prostitue'
p156
aS'ok cool'
p157
aS'when ur song comes on and u just sort of'
p158
aS'its mot even thick i'
p159
aS'i live im georgia'
p160
aS'hey i know a hot guy that lives in texas and i know me in ga'
p161
asS'2014_8'
p162
(lp163
S'i hav 2 much sweg 2 turn up on a fridai night'
p164
asS'2014_31'
p165
(lp166
S'ew wtf my tweets nd my header nd the name daisy ew'
p167
as.