(dp0
S'2013_1'
p1
(lp2
S'quack'
p3
aS''
p4
ag4
aS'bestmemoriesof2012 omfg going to walmart at three in morning with and nick'
p5
asS'2013_2'
p6
(lp7
S'yay its official im going to of miceampmen on january 24th with'
p8
aS'algebra 2 and physics home already the day isnt even half over fuuuuuuuuuuuuck fuck mad'
p9
aS'ring power'
p10
ag4
aS'its tuesday sweetheart'
p11
asS'2012_45'
p12
(lp13
S'po ta to'
p14
aS'sheeeeat so stoked '
p15
aS'i want you here right now'
p16
aS'today at work someone said i look like tallulah willis demi moores daughter what do yall think'
p17
aS'oh how night night brings out the bad thoughts'
p18
aS'if only he knew just how much he means to me'
p19
asS'2012_44'
p20
(lp21
S'as long as youre here with me i know ill be okay'
p22
aS'hehe c'
p23
aS'i am starting to feel urges again why cant i be happy why cant i just stop doing this to myself'
p24
aS'fuck it i am tired of this shit'
p25
ag4
asS'2012_50'
p26
(lp27
S'kiss gifboom'
p28
aS'she didnt know what it was so she just tried to follow me but then she got confused gifboom'
p29
asS'2012_46'
p30
(lp31
S'hallo love c gifboom'
p32
aS'hell yeahh '
p33
asS'2012_22'
p34
(lp35
S'i just love food'
p36
aS'another picture of what my friend did '
p37
aS'my friend did my hair '
p38
ag4
aS'they say we can be anything so we became blow fishies'
p39
ag4
ag4
ag4
ag4
ag4
aS'new hair c i cut my undercut shorter and put some orange in it it is really bright in person d'
p40
aS'when someone is quiet it makes me quiet'
p41
aS'lol its nothing '
p42
aS'why is life so expensive'
p43
aS'lets fall in love and never look back'
p44
ag4
aS'cut the shit be real with me'
p45
aS'talking behind my back i like how to my face you say how awesome you think i am and shit but then to her you say i am annoying'
p46
aS'it is now summer and i have no plans'
p47
aS'i dont deserve to be happy with anyone i deserve to be alone i will just make that person miserable'
p48
aS'twat was that i cunt hear you'
p49
aS'all my friends are s attractive then there is me it is actually kind of funny xd'
p50
aS'lost 5 pounds c 55 more to go xd'
p51
aS'im at 10g now c'
p52
aS'i hate when people dont let me copy like get the dick out of your ass how does me copying hurt you in anyway'
p53
aS'did you ask bug bunny'
p54
aS'okie c'
p55
aS'yes'
p56
aS'my love for you was bulletproof but youre the one who shot me'
p57
aS'a couple of my children '
p58
aS'i get all the pussy'
p59
aS'elbows my boob me oww that was my boob polly oh i thought it was a pillow me well thank you d'
p60
aS'white begins once upon a time black begins yall motherfuckers aint gonna believe dis shit'
p61
aS'whats the difference between a black and a white fairytale'
p62
aS'hell yeah'
p63
aS'im a hopeless romantic amp a sucker for sweet talk'
p64
aS'all natural gtlt'
p65
aS'believe me it is very nerve racking but you have to tell them everything or it wont help'
p66
ag4
aS'for fucks sake'
p67
aS'it isnt bad at all it has really helped me '
p68
aS'50thingsihate people that breath my air it is all mine die bitches die oo'
p69
aS'i actually dont oo is it my nigga or one of your niggas'
p70
aS'k'
p71
aS'oo why would you look that up'
p72
aS'50thingsihate people'
p73
aS'i am so afraid there are noise in my big scary room d i am going to me dragged to hell my the demons d'
p74
aS'are you lost or incomplete'
p75
aS'im difficult and i isolate myself'
p76
aS'regina gorge is flawless'
p77
aS'myfirstkiss was amazing i am not lying he is the best kisser yet he knew it was my first kiss so he made is special and surprised me c'
p78
aS'youaintgettinsexif you dont convince them to get in the van'
p79
aS'its okay darling i cant fit in that either'
p80
aS'because we hang out all the time and you know my tone with these certain things '
p81
aS'pats for patrick'
p82
aS'lol people tend to think i am a lot dirtier than i am xd i am a good girl'
p83
aS'hell yeah dont forget to ask your bro for an app'
p84
aS'blehhhhh i look like poop'
p85
aS'yes wednesday d'
p86
aS'what about wednesday oo wait the skate park'
p87
aS'you know what i dont get is why i still have a facebook'
p88
aS'holy fish sticks you look like sex oo'
p89
aS'i convinced my mommy to let me start stretching '
p90
aS'hell yeah'
p91
aS'teehee c'
p92
aS'one was me xd i have 10 followers oo'
p93
aS'mentionyourcutestfollower c'
p94
aS'follow and youll get nudes like this'
p95
aS'nope it is hot and humid year round xd and there is only a hand full of cool people in my town p'
p96
aS'well fuck you '
p97
aS'it is how you say texas in spanish xd'
p98
aS'tomorrow is our last class together dx'
p99
aS'tejas c'
p100
aS'today felt a lot like summer'
p101
aS'sorry for all the ugly pictures of me xd'
p102
aS'favorite shirt c'
p103
aS'i feel like ariel when i do my hair like this '
p104
aS'i am mental'
p105
aS'my mommy and i '
p106
ag4
ag4
ag4
aS'is it sad that i never told him i loved him'
p107
aS'hey i like you a lot im sorry that i dont really make it obvious'
p108
aS'show class not ass'
p109
aS'he is 13 i am 16 xd'
p110
aS'with and d'
p111
aS'nighty night c dont let the demons from under your bed drag you to hell ltlt33'
p112
aS'i am not saying on here i would text you them but i didnt save your number '
p113
ag4
ag4
aS'huh oo'
p114
ag4
aS'lol no xd i was kidding i am not bipolar but i am other things xd'
p115
aS'i am actually bipolar'
p116
aS'youre honestly not worth my time or efforts'
p117
aS'it is okay i get angry and start yelling at myself you are not alone'
p118
aS'sex burns 5 calories a minute wanna work out'
p119
aS'why are you mad at yourself'
p120
aS'it is my only true love c'
p121
aS'no i am already taken by tumblr c'
p122
aS'arent you mando'
p123
ag4
aS'i am getting the hang of this twitter thang'
p124
aS'must buy this'
p125
aS'oh so proud'
p126
aS'i know d but we will be together tomorrow my love xd'
p127
aS' unf'
p128
aS'i really wish i wasnt shy around hot guys i cant flirt '
p129
aS'with two easy steps i can climb over these seats and kick you in the fucking balls'
p130
aS'the devil inside'
p131
asS'2012_38'
p132
(lp133
S'fuckkkkkk xd'
p134
asS'2012_21'
p135
(lp136
S'well i understand it it is just i dont like it  i feel like i am cheating on tumblr p'
p137
aS'yeah i dont understand it though oo i think i might delete it or just never get on xd'
p138
ag4
aS'love you too girllllll c'
p139
aS'i like tumblr more oo'
p140
aS'bleh'
p141
asS'2012_29'
p142
(lp143
S'no one wants to be with me it is my fault and i know it'
p144
aS'i am so fucking alone'
p145
aS'is there something wrong with me'
p146
aS'id date you so hard then marry the shit out of you until we die and rot like motherfucking corpses together'
p147
aS'someone should talk to me  alone'
p148
ag4
ag4
ag4
asS'2012_26'
p149
(lp150
S'best night ever '
p151
ag4
aS'why be normal when you can be you'
p152
aS'you are oo'
p153
aS'okies c'
p154
aS'will a friends of mine'
p155
aS'sarina want to ask will'
p156
aS'just dm me'
p157
aS'inmiddleschool i was a complete dork had really long hair and always wore it up i wore ugly glasses and i had a horrid taste in clothes'
p158
aS'no'
p159
aS'fuck yes'
p160
asS'2012_25'
p161
(lp162
g4
ag4
aS'lol i was thinking about it tonight and i was like i have no clue what his name is ahaha it was bothering me'
p163
aS'what is your brothers friends name'
p164
aS'if you dont like me all you have to do is block me'
p165
aS'tumblr is my life'
p166
aS'food lt3'
p167
aS'musiclover510122 '
p168
asS'2012_24'
p169
(lp170
S'someone come cuddle '
p171
aS'i called my dad and he didnt answer'
p172
aS'my mom is making me call my dad'
p173
aS'fuck today'
p174
aS'sex is for horny people cuddling is for well behaved people'
p175
aS'you boring fuck'
p176
aS'fuck'
p177
aS'done with the facts '
p178
aS'20factsaboutme i have attempted suicide'
p179
aS'20factsaboutme i am single as fuck'
p180
aS'20factsaboutme i right my own songs'
p181
aS'20factsaboutme i wish i lived in california right now'
p182
aS'20factsaboutme i need a new texting buddy '
p183
aS'20factsaboutme i call my antidepressants my happy pills'
p184
aS'20factsaboutme i wont go out in public without makeup'
p185
aS'20factsaboutme i am quite lonely'
p186
aS'20factsaboutme i doubt anyone is even reading my tweets p'
p187
aS'20factsaboutme i love love love the band la dispute lt33'
p188
aS'20factsaboutme night time is really scary for me it is when my meds wear off and i am forced to be alone with my thoughts'
p189
aS'20factsaboutme i wish i was high right now'
p190
aS'20factsaboutme i am on tumblr 247'
p191
aS'20factsaboutme i havent selfharmed in 3 weeks i am getting better'
p192
aS'20factsaboutme i have been diagnosed with severe depression generalized anxiety an image disorder distorted thoughts and ocd'
p193
aS'20factsaboutme i am extremely shy'
p194
aS'20factsaboutme i hate everything about my appearance'
p195
aS'20factsaboutme i am a virgin'
p196
aS'20factsaboutme i am in love with someone but i refuse to tell them'
p197
aS'20factsaboutme natural hair color is brown'
p198
aS'20factsaboutme suprisingly enough im a virgin'
p199
aS'i just want to hug your neck with my hands'
p200
aS'well that was dirty '
p201
aS'sooooo come cuddle c'
p202
ag4
aS'im the type of nigga will chase you down shooting'
p203
ag4
aS'double dream hands yeah'
p204
aS'im going to be very sad if i dont meet vic jaime tony amp mike at warped this year'
p205
aS'tumblr is slowly killing me'
p206
aS'you freaked me out oo because some parents hate me because of my hair gtlt'
p207
aS'im not sick but im not well'
p208
aS'im taking a sweater to warped lol fuck you sun'
p209
aS'beau amp lights babies will be beautiful'
p210
aS'for you to come cuddle duh '
p211
aS'i am sitting right next to you hoe lets go downstairs now oo'
p212
aS'but seriously lets makeout'
p213
aS'im waiting c'
p214
aS'me singing c'
p215
aS'what did i do oo i am a straight a student who does nothing bad '
p216
aS'sex no okay  on gifyo your life in gifs'
p217
aS'yayyy d'
p218
aS'you dont have a dad  what d  me'
p219
aS'i gots wine p'
p220
aS'she amp him lt333'
p221
aS'cut the shit be real with me youre the only one i ever fucking judge'
p222
aS'off to subway'
p223
aS'i dont believe in second chances anymore'
p224
aS'i could cuddle to chiodos for hours'
p225
aS'come over nowwwwwwwwwwwwwwwwwwwwwwwwwwwwww'
p226
aS'2s  and then 0s  haha i have my 4s in'
p227
aS'nobody dies a virgin life fucks us all'
p228
aS'this made me giggle c'
p229
aS'why should you kiss someones ass for not drinking or doing heavy drugs they dont deserve a pedestal for something '
p230
aS'like the shirt i cut '
p231
aS'i want to hurry and size up but i have no money to buy tappers '
p232
aS'dumbass boys here in sugar land lovesucks'
p233
aS'la dispute lt3'
p234
aS'well youre attractive'
p235
aS'meet whorehey he lives at the park by my house'
p236
aS'someone come cuddle and play video games with me'
p237
aS'teehee c'
p238
aS'fuck fuck fuck'
p239
aS'okay i need a new texting buddy'
p240
aS'come here p'
p241
aS'i just want to cuddle '
p242
aS'because '
p243
aS'monkey'
p244
aS'are you still sleeping over'
p245
aS'c'
p246
aS'dont be such a vagina'
p247
aS'you are quite welcome c'
p248
aS'free your mind and open your heart all the worlds a stage'
p249
aS'well youre attractive'
p250
aS'i look horrid but i really want a bow tie for this shirt \xe2\x99\xa5'
p251
aS'you arent worth the tears'
p252
aS'he hurt me again wow i am done trusting'
p253
aS'if sex had a face it would be you'
p254
aS'clever aint wise'
p255
aS'its not rape if you yell surprise'
p256
asS'2012_23'
p257
(lp258
S'i played a 71 point word in scrabble woop d'
p259
aS'i do that too oo'
p260
aS'i wish all my feelings and thoughts would just go away i dont want to think about him i dont want to love him i dont want to need him'
p261
aS'ugh man i just had my phone i always loose it at night with this covers and stuff '
p262
aS'i know what you mean lol'
p263
aS'boys arent any less'
p264
aS'\xe2\x80\x9c skinny  anorexic  thick  obese  virgin  too good  nonvirgin  hoe friendly  fake  quiet  rude you can never '
p265
aS'hold upwait a minute let me put some kush up in it'
p266
aS'id tell him to eat a dick quicker than mexicans sprint over borders'
p267
aS'i love we came as romans'
p268
aS'ahh fuck me sideways'
p269
aS'ditch dat hoe and hall some ass'
p270
aS'its not gay if its a three way'
p271
aS'149 days til halloween'
p272
aS'too excited for warped now'
p273
aS'ugh people'
p274
aS'it feels like a mini hippopotamus is hanging from my eye lashes right now fuckinstoners'
p275
aS'i dont even know what to think about him'
p276
aS'massive migraine i just want to cuddle up with someone drink some tea and then watch the lion king any takers'
p277
asS'2012_31'
p278
(lp279
S'i put the std is stud all i need is u '
p280
aS'no one compares to me right babayyyyy \xf0\x9f\x98\x98'
p281
aS'hahaha xd'
p282
asS'2012_32'
p283
(lp284
S'talked to a stranger \xe2\x80\x93'
p285
aS'yes c lol i work at my moms office p it is just temporary '
p286
aS'i can try but i have work that monday p'
p287
as.