(dp0
S'2013_5'
p1
(lp2
S'askvba i was diagnosed with ptsd at the va in biloxi ms but denied for compensation this is completely unfair'
p3
aS'i want to thank you for your many years of service to our country'
p4
asS'2013_4'
p5
(lp6
S''
p7
aS'watching american idol'
p8
aS'it is a disgrace'
p9
aS'watching dr phil'
p10
aS'i am a vietnam veteran living in biloxi i am very close to the va hospital this area has many homeless veterans'
p11
aS'this makes me wonder what else she has lipsynched'
p12
aS'president obamas inauguration went off without a hitch'
p13
asS'2013_12'
p14
(lp15
S'dont trust the va any more too many cases of medical errors'
p16
aS'job ken'
p17
aS'a disabled vietnam veteran dealing with the va for compensation i can tell everyone that this article is bull shit'
p18
asS'2013_6'
p19
(lp20
S'why does the va ignore a ptsd diagnosis made by a va psychologist'
p21
aS'cost of applying for a geen card is prohibitive'
p22
aS'i suppose if the lapd shoots at every truck in california they will catch him'
p23
aS'i cannot agree'
p24
aS'watched beyonce half time showdisapointed'
p25
asS'2010_45'
p26
(lp27
S'from ac why in the world is amazoncom selling a guide for pedophiles were keeping them honest with dr phil at '
p28
asS'2013_9'
p29
(lp30
S'is correct'
p31
asS'2014_24'
p32
(lp33
S'being a grandfather is the best thing'
p34
asS'2013_7'
p35
(lp36
S'am watching'
p37
ag7
aS'rude'
p38
ag7
aS'rude'
p39
aS'i went to the dr when i was a child i got a shot of penicillin'
p40
ag7
aS'amen'
p41
aS'i totally agree with you it is crap'
p42
aS'just take the time to get well your fans will happily wait for you to get back on your feet'
p43
aS'an ak47 a machine gun is not a sporting weapon or needed for the defense of the home \xe2\x80\x94former president reagan ht '
p44
aS'president obamas getting ready rt if youre excited to hear his sotu speech tonight'
p45
aS'i have to wonder if he will be allowed to be taken alive or will the lapd just kill him'
p46
asS'2013_8'
p47
(lp48
S'idea'
p49
aS'i have been waiting for a resolution of my ptsd claim since 2005'
p50
aS'rt if you agree if we can save even one child from gun violence we have an obligation to try wedemandavote '
p51
aS'in ms'
p52
ag7
aS'it was not for the olympics no one would have ever heard of pistorius'
p53
aS'just finished watching bad assgood movie'
p54
asS'2013_11'
p55
(lp56
S'va needs to centralize and double or triple the staff whatever it takes'
p57
aS'va sub contracts to the states a bad policy'
p58
aS'enjoy hearing your opinions even though i dont always agree'
p59
aS'was sad when i read you were leaving the view'
p60
aS'brown is a thug'
p61
aS'happen to a better choice of sick bastard'
p62
asS'2013_10'
p63
(lp64
S'will miss watching you on the view'
p65
aS'4yr old friend has multiple immunodeficiencies amp neutropenia pls retweet incase someone has more info '
p66
aS'do away with it is a disgrace'
p67
aS'benefit has been in existence at least since i was in the navy during the mid 1960s'
p68
aS'drphilwhy do you have to talk about your book every show i get it you wrote a book'
p69
aS'drphilhow did they live without money'
p70
aS'drphilhow did they live without money'
p71
aS'john coales cancer greta van susteren reveals husband battling disease via huffpost one deserves this'
p72
asS'2013_13'
p73
(lp74
S'went to usm blues and jazz festival today in long beach ms great fun and free too i love coastal ms'
p75
aS'years to get it typically how the va works'
p76
ag7
aS'princess casino in biloxi went smokeless after katrina business is good as any casino in biloxi'
p77
aS'i dont like this tweet now go ahead and block me'
p78
aS'they are trash'
p79
aS'that is what happens when you dont pay taxes'
p80
aS'organization might want to end veteran homelessness but it not happen as long as the va puts up roadblocks '
p81
aS'i have been diagnosed with ptsd by several mental health professionals at the va hospital and then denied coverage'
p82
aS'rt if you agree our immigration system has been broken for too long\xe2\x80\x94and congress needs to fix it now '
p83
asS'2013_27'
p84
(lp85
S'if you are hungry why not eat a hot one'
p86
asS'2013_20'
p87
(lp88
S'watching gh'
p89
asS'2013_14'
p90
(lp91
S'to act like a great soul emulate robin roberts america loves you robin'
p92
asS'2013_16'
p93
(lp94
S'had a fun day at the park with the kids today not a cloud in the sky'
p95
aS'joe michaels comment is in bad taste but not unexpected'
p96
asS'2013_19'
p97
(lp98
S'sherri'
p99
asS'2013_18'
p100
(lp101
S'true'
p102
as.