(dp0
S'2013_39'
p1
(lp2
S'sundaymorning miamibeach miami beach sunrise relax lifeguardstand'
p3
aS'cheers to being a kid tbt youknowyoulovedthese icepops throwbackthursday'
p4
asS'2013_25'
p5
(lp6
S'he hasnt taken this hat off since they won realheatfan miamiheat'
p7
aS'believe miamiheat champs'
p8
aS'what time is it james time miamiheat'
p9
aS'getting in my zone for the game miamiheat game7 therealmiami nbafinals'
p10
asS'2013_26'
p11
(lp12
S'8 doobies to the face 12 bottles in the case 2 pills and a half wait nigga fuck that'
p13
aS'wishing i was celebrating birthday in cool 80s workout clothes or neon clothes whichever theme they decided on worksucks'
p14
aS'therealmiami southpoint relaxing ilovemycity'
p15
aS'getting the munchies tacobell fourthmeal'
p16
asS'2013_27'
p17
(lp18
S'rain miami coolshit'
p19
aS'beachesdemiami therealmiami miamibeach miami relaxing playa pleasedontstopthemuzic cindyjoyyy'
p20
asS'2009_5'
p21
(lp22
S'getting ready to have dinner'
p23
asS'2013_28'
p24
(lp25
S'zimmerman not guilty freeman notguilty'
p26
aS'only rich people get mountains jr'
p27
aS'so ima need a little more time now cause i dont have the money on me right now'
p28
aS'casino winning'
p29
aS'3inthemorning casino jackpot slots miamijaialai'
p30
aS'i hope they dont stick to the 1 series the 1 series is to weak to fill in the 3 series shoes'
p31
asS'2013_29'
p32
(lp33
S'southbeachtow can suck my balls'
p34
aS'espysbestteam miami heat'
p35
aS'zaxbya and 5 star pepperoni rolls the best of gainesville fivestar zaxbys gainesville\xe2\x80\xa6'
p36
aS'i would rather have a bad day of fishing then a good day of work'
p37
asS'2012_16'
p38
(lp39
S'hey babe you smell that  no  me neither start cooking'
p40
aS'make sht happen for your self'
p41
aS'its always easier said than done'
p42
aS'i never understood why the dmv is always full it looks like a daytime club'
p43
aS'listen im not an alcoholic alcoholics go to meetings im a drunk we go to parties'
p44
aS'this is a a  b conversation   so c your way out before d jumps over e  fs you up like a g'
p45
aS'you miss 100 percent of the shots you dont take'
p46
aS'ladies i make your boyfriend scream more than you ever will sincerely call of duty'
p47
asS'2012_17'
p48
(lp49
S'dad im hungry hi hungry im dad dad im serious i thought you were hungry are you kidding me no '
p50
aS'so today i ordered an italian sub and it came with american cheese that doesnt work'
p51
asS'2012_14'
p52
(lp53
S'bulls vs knicks playoff status game wow'
p54
aS'nice guys finish last awesome guys finish on her face'
p55
asS'2012_15'
p56
(lp57
S'this guy is my new hero'
p58
aS'saying ea sports its in the game along with the guy who says it'
p59
asS'2012_12'
p60
(lp61
S'i dont think marquette is going to be able to pull this one off gogators'
p62
aS'i said to a fat girl today youre a big girl she replied tell me something i dont know i said well salad t '
p63
aS'ronny turiaf to heat'
p64
aS'go heat'
p65
aS'even though we consciously know its been on rerun for hours we still just sit there and watch sportscenter'
p66
asS'2012_13'
p67
(lp68
S'doesnt matter if your car is faster than mine i got to the red light before your sorry ass dodge charger loveweavingthroughtraffic'
p69
aS'you only live once which is a fantastic reason to never say yolo'
p70
aS'kentucky vs wizards wow the best team in college might be as good as the nbas worst reason enough to never watch ncaa '
p71
aS'nemos friends dont touch the boat nemo yolo'
p72
aS'nothing like driving your own car'
p73
aS'boy hey send me a pic  girl ok promise you wont show any one boy i promise i wont friends daaaaamnnn'
p74
aS'i hate when i forget to turn my swag off at night and i wake up covered in hoes'
p75
asS'2012_10'
p76
(lp77
S'when is your next visit to the sunshine state'
p78
aS'feels good to have priority over others'
p79
asS'2012_11'
p80
(lp81
S'i need to meet the guy that answered this'
p82
aS'when bored 1 open fridge nothing to eat 2 open pantry nothing to eat 3 lower standards and repeat'
p83
aS'haha story of my life'
p84
aS'story no 1 florida gators baseball takes down no 6 florida state 92 on tuesday '
p85
aS'you have to love springbreak in miami right now the 305 is so live'
p86
asS'2012_18'
p87
(lp88
S'continuously to get money'
p89
aS'our serious arguments with our friends are usually only about debating sports topics'
p90
aS'mom calling you everyone shut the fuck up answers hi mommy friends penis marijuana cumshot orgy put it i '
p91
asS'2012_19'
p92
(lp93
S'correction your and end'
p94
aS'you have to love south beach toplesstanning'
p95
asS'2013_11'
p96
(lp97
S'had a man crush on gsp ufc \xe2\x99\xa5\xe2\x99\xa5\xe2\x99\xa5\xe2\x99\xa5'
p98
aS'two door cinema club station'
p99
asS'2011_19'
p100
(lp101
S'bring on the bulls'
p102
aS'lakers swept in the second round'
p103
asS'2011_18'
p104
(lp105
S'i think i just fell in love with a porn star turn the camera on see a born star'
p106
aS'just got a promotion and its gonna make cinco de mayo so much better'
p107
aS'im being followed'
p108
asS'2013_5'
p109
(lp110
S'rt if you think you could beat any of your followers at beer pong'
p111
asS'2013_4'
p112
(lp113
S'first catchoftheday fishing relaxing mytherapy miami'
p114
aS'beer pong thats the shit i like'
p115
aS'sad but true'
p116
asS'2013_6'
p117
(lp118
S'1 hour 45 min in traffic you have you be fucking kidding me'
p119
asS'2013_1'
p120
(lp121
S'battle of the rookies nfl rg3 vs russellwilson'
p122
aS'these niggas cant hold be back'
p123
aS'heaven on earth goodlife'
p124
aS'just posted a photo'
p125
aS'orangebowl goodlife sunlifestadium'
p126
aS'we meet again sunlifestadium orangebowl miami'
p127
asS'2013_3'
p128
(lp129
S'miamibeerfest therealmiami beer miaminights wesleywes12 maxsuarez'
p130
aS'lebrons better than jordan lol ya right holla at me when lebron saves the looney tunes from an alien race'
p131
aS'on the bright side aj mccarrons girlfriend is definitely real'
p132
aS'jonathandavid93 rico22686 love this guy'
p133
asS'2013_2'
p134
(lp135
S'lmfao'
p136
aS'nd vs bama'
p137
asS'2013_9'
p138
(lp139
S'some shady ass shit'
p140
asS'2013_8'
p141
(lp142
S'getting ready to do work for the games and fight tonight budlight beerpong miamiheat floridagators ufc'
p143
aS'kobe logic nevergetsold'
p144
asS'2012_38'
p145
(lp146
S'first iphone5'
p147
aS'my day just got a lot better thanks'
p148
asS'2012_39'
p149
(lp150
S'apparently there is a new way to score a td in the nfl an intertouchdownception via'
p151
aS'we are still better than apple maps replacement refs'
p152
asS'2012_49'
p153
(lp154
S'hyfr'
p155
aS'i can do it all by myself'
p156
aS'starisland status therealmiami artbasel miami goodlife'
p157
aS'on that ps3 status haha'
p158
aS'enjoying mnf at bdubs'
p159
asS'2012_48'
p160
(lp161
S'thank you miami sunlifestadium miamidolphins'
p162
aS'this cant be right only in miami therealmiami'
p163
asS'2012_45'
p164
(lp165
S'therealmiami miami fishing sunday'
p166
aS'what more could i ask for therealmiami miamidolphins biscaynebay miami budlight brickell sundaymorni'
p167
aS'ummmouch stapled ouch workerscomp dontusestaplerlikeagun'
p168
aS'what is the best raspberry ketones supplement for weight loss'
p169
aS'its finally over vote miami miamimarlins'
p170
aS'nothing like a homecooked meal'
p171
aS'its crazy how you find things when you stop looking reallifeissues'
p172
asS'2012_44'
p173
(lp174
S'love butts'
p175
aS'successful day fishing miami'
p176
asS'2012_47'
p177
(lp178
S'the grand finale miamidolphins sideline cheerleaders win miami goodlife'
p179
aS'then miamidolphins prime club therealmiami miami'
p180
aS'third the game clublevel miamidolphins miami therealmiami'
p181
aS'second special dance from the miamidolphins cheerleaders miami therealmiami'
p182
aS'first tailgate miamidolphins sunlifestadium therealmiami miami'
p183
aS'yes sir therealmiami blackbird waitinline miaminights miami fuckthis'
p184
aS'haha you know what it is miaminights beer therealmiami goodtimes'
p185
asS'2012_46'
p186
(lp187
S'freetebow go gators'
p188
aS'one good ass night n64 nintendo64 beer marioparty drinkinggames'
p189
asS'2012_41'
p190
(lp191
S'veggie pizza no cheese delicious'
p192
aS'a 7 year old little girl at my hotel drew this for us happyhalloween cute'
p193
aS'im in love with the noble m600 whoo'
p194
asS'2012_40'
p195
(lp196
S'starting the day off right'
p197
aS'last miami marlins game oh yeah'
p198
aS'legit cohiba cuban cigar'
p199
asS'2012_42'
p200
(lp201
S'woohoo i made it through the work week now i party'
p202
aS'vodka'
p203
aS'heated debate obama romney debate2012'
p204
asS'2011_52'
p205
(lp206
S'vip status go fins'
p207
aS'staying up late tonight just because i can badass'
p208
aS'norris cole is a future star'
p209
asS'2011_51'
p210
(lp211
S'watching the ali vs foreman fight in 74 one of the best fights ive ever seen'
p212
aS'just thought of all the things that the emsboys have done in everything we do we do it big'
p213
asS'2011_50'
p214
(lp215
S'you see that snl skit about tim tebow'
p216
aS'the time has definitely come to up it another level game on'
p217
aS'i dont care for the waking up at noon life too much of the day has already passed me by'
p218
aS'my mom has such a good heart she is always thinking of others'
p219
aS'counting down the days till the heat take the court'
p220
aS'tebow winner 71'
p221
asS'2012_8'
p222
(lp223
S'sometimes you have to know when its time to move on its easy to get comfortable so why not make yours at the top'
p224
asS'2012_9'
p225
(lp226
S'i work at a hotel in miami beach let me know'
p227
aS'18 year old scotch and a cuban thisisthelife'
p228
asS'2012_4'
p229
(lp230
S'nothing better than being well rested after a long day'
p231
aS'yo whats up my friend bonjour'
p232
aS'vernon davis is a beast'
p233
asS'2012_5'
p234
(lp235
S'lol open bar and accounting sounds like a bad combination'
p236
aS'ready to watch the heat soar over the bucks letsgoheat'
p237
aS'im fighting miguel cotto on may 5th because miss pac man is ducking me'
p238
aS'taking it back to mario kart and golden eye 007'
p239
asS'2012_6'
p240
(lp241
S'great game last night but now its baseball season retweet if you cant wait for 2012 miami baseball '
p242
aS'awesome halftime show'
p243
asS'2012_7'
p244
(lp245
S'little beard'
p246
aS'now that i have the time to sleep i cant insomnia'
p247
asS'2012_1'
p248
(lp249
S'monday never fails to screw up the beginning of the work week stressed'
p250
asS'2012_2'
p251
(lp252
S'has any story in the nfl been bigger than tebow really'
p253
aS'last night lead the to an overtime playoff win and a new sports tweets per second record 9420'
p254
asS'2012_3'
p255
(lp256
S'ive never a bigger pussy in my life'
p257
aS'oye real niggas live in miami para que lo cepa when am i going to see you'
p258
aS'yes it is millertime'
p259
aS'bossssshhhhhhhh and miller time watch out'
p260
asS'2012_52'
p261
(lp262
S'damn 99jamz is killing it'
p263
aS'looking back at the past and realizing what a fucking idiot you were still dont regret it'
p264
asS'2012_50'
p265
(lp266
S'dont fucking judge me'
p267
aS'i am good'
p268
asS'2012_51'
p269
(lp270
S'last home game miamidolphins sunlifestadium sideline therealmiami goodlife'
p271
aS'this place never gets old jonathandavid93 miamidolphins tailgate therealmiami'
p272
aS'enjoying the sounds of at grandcentral mario do your shit'
p273
aS'on that chill tip'
p274
asS'2011_35'
p275
(lp276
S'not feeling well'
p277
aS'listening to some notorious big realmusic'
p278
aS'its funny how dreams arent real but sometimes we wish they were'
p279
asS'2011_36'
p280
(lp281
S'its official ive been up for 24 hours straight im going to sleep like a king'
p282
asS'2011_31'
p283
(lp284
S'check your tire and while you check your tire suck my dick'
p285
aS'want to go to the beach hope the weather stays nice and sunny'
p286
asS'2011_33'
p287
(lp288
S'why is there so much traffic in miami beach on a sunday'
p289
asS'2011_39'
p290
(lp291
S'have skip send me a shirt'
p292
aS'theres nothing like driving your own car'
p293
asS'2013_42'
p294
(lp295
S'cbb preseason coaches poll 1 kentucky 2 mich st 3 lville 4 duke 5 arizona 6 kansas 7 syracuse 8 florida 9 mi\xe2\x80\xa6'
p296
asS'2013_43'
p297
(lp298
S'men everywhere will fight for you'
p299
aS'home away from home miamidolphins dolfan phins sunlife'
p300
asS'2013_40'
p301
(lp302
S'im really enjoying this fall weather'
p303
asS'2013_41'
p304
(lp305
S'youre the man go gators'
p306
asS'2013_47'
p307
(lp308
S'am i the only one who finds girls more attractive in underwear than completely naked\xe2\x80\x9d'
p309
aS''
p310
aS'damn pandora is on point jamming out for the last 2 hours'
p311
asS'2013_44'
p312
(lp313
S'i dont even need alcohol to make bad decisions'
p314
aS'i thought he didnt have bail aaronhernandez 81 freehernandez halloween newenglandpatroits'
p315
aS'rt if youre excited for the season 2 premiere of girlcode tonight'
p316
aS'best snow cones in miami snowconematt snowcones miami flamingplaza therealmiami mattcorey9'
p317
asS'2013_45'
p318
(lp319
S'welcome to the world rebecca 1dayold babygirl babycousin'
p320
asS'2012_29'
p321
(lp322
S'roses are red violets are blue i suck at poetry show me your tits'
p323
aS'anyone else experiencing rolling blackout miamiweather'
p324
aS'starting my vacation right stayinguplate'
p325
aS'those old fighting games when you just press random buttons and hope for the best'
p326
aS'dude she has a boyfriend so soccer has a goalie doesnt mean you cant score'
p327
asS'2012_28'
p328
(lp329
S'my little cousin caleb familia'
p330
aS'ive never been so shy in front of a guest beautifulbrazilians'
p331
asS'2012_27'
p332
(lp333
S'best pinchos in miami'
p334
aS'so excited i cant sleep beerolympics2012'
p335
aS'if you dont think a certain guy has anger problems you havent seen him play video games yet'
p336
asS'2012_26'
p337
(lp338
S'lets go spain'
p339
aS'24 most expensive heineken 6 pack'
p340
aS'dinner time'
p341
aS'just finish an 1 12 hour drum session first session in 12 years'
p342
aS'playing game for first time would you like to try the tutorial first me no moments later me how the fuc '
p343
asS'2012_25'
p344
(lp345
S'get on my level legendary club level'
p346
aS'i hate when i take a long nap and i stay up all night'
p347
aS'having the munchies and using a vending machine'
p348
aS'the heat just arrived wade lebron and the team love it '
p349
aS'rip lebron james ringless jokes 20032012'
p350
aS'lol good times'
p351
aS'lets talk about how the heat shut okc out closing at home having most of the team in double figures heatnation partyupinbiscayne'
p352
aS'i need to be buying all of their clothing'
p353
aS'rey de los chivitos holy crap'
p354
asS'2012_24'
p355
(lp356
S'my view at boston market who would of thought'
p357
aS'drink beer get drunk'
p358
aS'the lion king play'
p359
asS'2012_23'
p360
(lp361
S'just enjoying the miami vibe with the people i love most family'
p362
aS'dont ever get arnold palmer lite it sucks'
p363
aS'congratulationa miami springs class of 2012'
p364
aS'attending my sisters graduation congratulations cindyjoy i am so proud of you'
p365
aS'theres always one person in a friendship group that gets picked on the most'
p366
aS'changing your entire message because you dont know how to spell one word'
p367
asS'2012_22'
p368
(lp369
S'welcome to the good life'
p370
aS'the real miami'
p371
aS'ive never wanted a beer as bad as i want one right now thirsty'
p372
aS'too cool'
p373
aS'fooood'
p374
asS'2012_21'
p375
(lp376
S'do i really need that many flyers'
p377
aS'just posted a photo'
p378
aS'man vs food challenge'
p379
aS'when you see it youll know creepy'
p380
aS'man vs food challenge'
p381
aS'why is it when i want to go to sleep i cant frustrated countingsheep'
p382
asS'2012_20'
p383
(lp384
S'having multiple back up plans cause the main plan never seems to work'
p385
asS'2011_27'
p386
(lp387
S'follow me'
p388
asS'2011_28'
p389
(lp390
S'just saw derek jeter at normans on the beach'
p391
aS'hell yeah thats what you get bitch hahaha'
p392
asS'2011_44'
p393
(lp394
S'on that gville status you already know'
p395
asS'2011_45'
p396
(lp397
S'im calling it pacquiao in 4'
p398
aS'dolphins had a much needed victory but the ravens had the biggest win in pittsburgh steelers and ravens always a good game'
p399
asS'2011_46'
p400
(lp401
S'you have to give to the guy he know how to win tebow'
p402
asS'2011_47'
p403
(lp404
S'just hot pulled over padded down and searched in miami beach its one for the books really '
p405
asS'2011_41'
p406
(lp407
S'to bad blackberry couldnt get the stuff together for the last few days doesnt help your argument'
p408
asS'2011_42'
p409
(lp410
S'i think you took your hand like a jackhammer to someones face'
p411
aS'hell yeah'
p412
aS'yeah buddy'
p413
asS'2011_43'
p414
(lp415
S'youknowiloveyouwhen even though you give me hangovers i still drink you the next day haha'
p416
asS'2011_48'
p417
(lp418
S'really so i just found out there is 2 bokampers in broward'
p419
aS'you know i do'
p420
aS'started not to give a fck and stop fearing the consequence'
p421
aS'why is it so hard to be open and honest if we could just say whats on our mind'
p422
aS'have the day off and i have nothing better to do then to watch sportscenter and annoy my dog maybe ill go have a drink and watch some tnf'
p423
aS'i love football because of the men in tights lt3lt3'
p424
aS'its funny how no one respects security guards'
p425
aS'really meyer to ohio state he should of waited till penn state to offer'
p426
aS'ready to start this week off right lets go'
p427
asS'2011_49'
p428
(lp429
S'i just run the town i dont do to much jogging'
p430
aS'i hate the graveyard shift time to go to sleep'
p431
aS'my brother does it and i hate it with a passion'
p432
aS'bryant paul howard vs james wade bosh sounds like the best thing to ever happen to the nba as far as rivals are concerned'
p433
aS'whats there to do tonight'
p434
aS'its awesome how i predicted that tim tebow was going to throw for 200 yards'
p435
aS'whenyourdrunknever hesitate to do exactly whats on your mind regardless the consequence'
p436
asS'2013_37'
p437
(lp438
S'i want to sit you where my face at'
p439
aS'tbt throwbackthursday wayback'
p440
aS'tbt throwbackthursday wayback therosadofam'
p441
aS'wow beasley back with the heat'
p442
asS'2013_36'
p443
(lp444
S'club level status'
p445
aS'already here'
p446
aS'counting down the minutes nfl thursdaynightfootball ravensvsbroncos'
p447
asS'2013_35'
p448
(lp449
S'gators gogators'
p450
aS'way back when tbt throwbackthursday oldschool brothers'
p451
asS'2013_34'
p452
(lp453
S'growing up with these girls is one of the best part of my life tbt throwback throwbackthursday\xe2\x80\xa6'
p454
aS'blackbird therealmiami miaminights miami downtown drunk'
p455
aS'go marlins miamimarlins'
p456
asS'2013_33'
p457
(lp458
S'tbt pizzachallenge ems kanaantheog'
p459
aS'it must be the latin food and cafe con leche'
p460
aS'nurseshark sharkweek therealmiami rickenbackercauseway miami fishing'
p461
asS'2013_32'
p462
(lp463
S'amazingcars247'
p464
aS'add me on kik jaypink'
p465
asS'2013_31'
p466
(lp467
S'i am about this life beachesdemiami miami southbeach sobe therealmiami beach sand water\xe2\x80\xa6'
p468
aS'heres to the guys who automatically say shit when something bad happens\xe2\x80\x9d'
p469
aS'sexiest female athletes alive'
p470
asS'2013_30'
p471
(lp472
S'mlb13 theshow firsttimeplaying josebautista'
p473
aS'getting my eye exam i might need glasses foureyes'
p474
asS'2012_34'
p475
(lp476
S'miamidolphins cheerleaders fashion show and the night begins therealmiami'
p477
ag310
aS'and our baby cousin caleb'
p478
aS'there is nothing better on a hot day pool'
p479
asS'2012_35'
p480
(lp481
S'engineering at it finest gtr skyline'
p482
aS'had someone thank me today by saying back that up reminds me of high school smh'
p483
aS'damn you directtv'
p484
asS'2012_36'
p485
(lp486
S'first nfl sunday of the season never fails to put a smile on my face lets go dolphins'
p487
aS'work is overrated adultlifesucks'
p488
aS'watching d3 themightyducks'
p489
asS'2012_37'
p490
(lp491
S'gatornation brotherjimmys gogators'
p492
asS'2012_30'
p493
(lp494
S'wishing my friends didnt sucks o much balls showthefuckup'
p495
aS'at greenstreet at the grove and i spot ericsplostra its funny he doesnt need a body guard'
p496
aS'367 billion women in the world and i just had to make my own fucking sandwich'
p497
aS'dont go broke trying to look rich bro'
p498
asS'2012_31'
p499
(lp500
S'watching smallsoldiers awesome movie throwback'
p501
aS'the lights you dont want to see in your rear window'
p502
aS'continuously to get moneyits okay thenotoriousbig'
p503
aS'not sure im also not sure why youre located at bts'
p504
aS'love'
p505
aS'i just heard that ryanlochte visited miamisprings rec pool pretty cool'
p506
aS'i hate this feeling'
p507
asS'2012_32'
p508
(lp509
S'chad johnson behind bars great start for the dolphins'
p510
aS'therealmiami'
p511
aS'therealmiami'
p512
aS'a different side of miami therealmiami'
p513
aS'playing pool and having a cold one at onepub in downtown miami'
p514
aS'the lakers are stacking up too bad it doesnt matter'
p515
aS'what it was lol'
p516
aS'a good friend will bail you out of jail youre best friend will be in jail with you'
p517
aS'here comes the rain'
p518
asS'2012_33'
p519
(lp520
S'not what you want to see after a long night out therealmiami'
p521
aS'downtown fortlauderdale'
p522
aS'still reppin 305'
p523
as.