(dp0
S'2013_42'
p1
(lp2
S'are you turning into justin'
p3
aS'i hate sundays because monday'
p4
aS'u ready for midnight tonight holdtight musicmondays\xe2\x80\x9di cant wait '
p5
aS'what defines you is how high you rise after falling'
p6
aS'filmfridays '
p7
aS'dont know how they got this and just need to say it features my guy thecamel'
p8
aS'if you missed on last night watch here'
p9
aS'school tomorrow drinks on me'
p10
aS'the refrigerator is a perfect example that what matters is whats on the inside'
p11
aS'i just wanna sleep for like 24 hours'
p12
aS'i was happy and then i remembered theres school tomorrow'
p13
aS'i make music to express myself thank you for listening and letting me tell my heart musicmonday allthatmatters 1 aga\xe2\x80\xa6'
p14
aS'trying to get allthatmatters to 1 lets do this'
p15
aS''
p16
aS'here it is allthatmatters musicmondays'
p17
aS'its on itunes asgfjkgjvjfkkkkn thank you musicmondays allthatmatters'
p18
aS'whennnnnn'
p19
aS'come on'
p20
aS'yes'
p21
aS'i keep refreshing my feed allthatmatters'
p22
aS'yayayay allthatmatters musicmondays oh my\xf0\x9f\x98\xad\xf0\x9f\x98\xad'
p23
asS'2013_43'
p24
(lp25
S'saw kim kardashian at the kanye concert and she was sitting on her phone like literally kim youre being so rude'
p26
aS'rt this if youre excited for filmfriday tomorrow we might follow some beliebers believemovie'
p27
aS'i hate that like 30 minute period before going out where youre stuck in activity limbo and don\xe2\x80\x99t know what to do because you\xe2\x80\xa6'
p28
aS'post the video again'
p29
aS'i have two moods sleep is for the weak sleeping for a week'
p30
aS'here it is song 2 this week waitforaminute with me and  clubsmash'
p31
aS'coconut head from neds declassified school survival guide is dat u'
p32
aS'goodnight my loves dont miss the new video xoxo'
p33
aS'i guess it is about that time holdtight ladies'
p34
asS'2013_40'
p35
(lp36
S'hahaha'
p37
aS'soon just got a lot sooner'
p38
aS'retweet for a follow \xf0\x9f\x92\x95 i will keep coming back to this tweet over the weekend and follow as many as i can have a good w\xe2\x80\xa6'
p39
aS'youd think id know the words to my own song rightthere'
p40
aS'big news  i got a mosquito bite on my neck and it is really itchy'
p41
aS'hate it when my phone changes hahahahaha to hahahahahahaha and makes me look like a deranged psycho'
p42
aS'sunday midnight heartbreaker musicmondays 10weeks\xe2\x80\x9d finally \xf0\x9f\x98\xad'
p43
aS'what'
p44
aS'cancel my subscription im done with your issues \xe2\x9c\x8c\xef\xb8\x8f\xf0\x9f\x92\x8b'
p45
aS'me every day'
p46
asS'2013_41'
p47
(lp48
S'too bad hahahaha'
p49
aS'beyond excited for allthatmatters to hit itunes tonight at midnight 9hours to go u ready beliebersgohard'
p50
aS'are you counting down with me to midnight for the new musicmonday  allthatmatters '
p51
aS'musicmondays is only going to get better and every time u get us to 1 i will give u filmfridays '
p52
aS'heartbreaker'
p53
aS'the bags under my eyes are designer'
p54
aS'the weather is perfect right now \xe2\x98\x81\xef\xb8\x8f\xe2\x98\x94\xef\xb8\x8f\xe2\x98\x81\xef\xb8\x8f'
p55
aS'cant wait to give you your birthday present'
p56
aS'best part is that u let me be honest heartbreaker'
p57
aS'yay heartbreaker is 1 '
p58
aS'yay beliebers for life tho'
p59
aS'my heart breaks when yours does listening to heartbreaker'
p60
aS'thank you so much'
p61
aS'buyheartbreakeronitunes buyheartbreakeronitunes buyheartbreakeronitunes buyheartbreakeronitunes buyheartbreakeroni\xe2\x80\xa6'
p62
aS'yas same'
p63
aS'i love heartbreaker i still cant believe its out asdfghjjkll musicmondays'
p64
aS'heartbreaker is so good i just bought it oh my this song'
p65
aS'you will know my words my heart journals'
p66
aS'almost 1hour to go heartbreaker musicmondays countdown'
p67
aS'heartbreaker comes out in less than 4 hours what'
p68
aS'never been so excited for a song to be released in so long heartbreaker at midnight'
p69
asS'2013_46'
p70
(lp71
S'the trailer literally made me 10 times more excited believemovie \xf0\x9f\x98\xad'
p72
aS'justin deserves way more radio play than hes getting with his music wow i havent heard one new song anywhere'
p73
aS'no im not wearing a weave'
p74
aS'and buyallbadonitunes'
p75
aS'staystrongjustin'
p76
asS'2013_47'
p77
(lp78
S'i always freak out whenever is online'
p79
aS'thanks'
p80
aS'i love this \xf0\x9f\x98\x8a\xf0\x9f\x92\x9c'
p81
aS'what to heck  '
p82
aS'if this was real\xf0\x9f\x91\x8c\xf0\x9f\x91\x8c\xf0\x9f\x92\x95\xf0\x9f\x98\x8d'
p83
aS'literally me'
p84
aS'my math teacher gave us a pop quiz and this girl ran out of the room crying omg literally me\xe2\x80\x9d same'
p85
aS'rt this tweet to enter my 500k subscriber giveaway ends 113013 info amp rules'
p86
aS'now i cant wait till christmas\xe2\x9d\x84\xef\xb8\x8f\xe2\x9d\x84\xef\xb8\x8f\xe2\x9b\x84\xef\xb8\x8f\xe2\x9b\x84\xef\xb8\x8f\xf0\x9f\x8e\x84\xf0\x9f\x8e\x81\xf0\x9f\x8e\x85\xf0\x9f\x98\x8a\xf0\x9f\x98\x8a'
p87
aS'oh my goodness this is amazing itll be on repeat\xf0\x9f\x92\x95\xf0\x9f\x92\x95\xf0\x9f\x92\x95\xf0\x9f\x8e\x84\xe2\x9d\x84\xef\xb8\x8f\xe2\x9d\x84\xef\xb8\x8f\xe2\x9b\x84\xef\xb8\x8f'
p88
aS'wait for a minute is on the radiooo'
p89
aS'wait but has been in la for 5 days already can i meet him\xf0\x9f\x98\xad\xf0\x9f\x98\xad'
p90
aS'just thinking about meeting justin gives me goosebumps like i literally dream about this'
p91
ag16
aS'when people hate on ariana grande or justin bieber'
p92
asS'2013_44'
p93
(lp94
S'i love the music video\xf0\x9f\x98\x8a rightthere'
p95
aS'thanks so much for all the feedback on the right there video \xf0\x9f\x92\x93 so glad to see youre enjoying'
p96
aS'recovery i love this songgg musicmondays all these songs are amazing\xf0\x9f\x92\x9c\xf0\x9f\x92\x9c'
p97
asS'2013_45'
p98
(lp99
S'randomly ran into while with d '
p100
aS'its 735pm why does it feel like its midnight'
p101
aS'finally got a new calendar \xf0\x9f\x98\x8d'
p102
aS'happy birthday beth hope your day is amazing\xf0\x9f\x98\x98\xf0\x9f\x98\x98\xf0\x9f\x98\x98'
p103
aS'happy birthday mere \xf0\x9f\x90\xbb\xf0\x9f\x90\xbb\xf0\x9f\x90\xbb'
p104
aS'listening to old songs by alwayskidrauhl \xf0\x9f\x98\x8a'
p105
aS'i always keeps it interesting \xe2\x80\x9dyeah you dooooo'
p106
aS'its here dearnoonemusicvideo '
p107
aS'dearnoonemusicvideo comes out tomorrow'
p108
aS'i just had a donut twins'
p109
aS'yesssss\xf0\x9f\x98\x8a'
p110
aS'how is it november i put 2012 on my homework and its almost 2014'
p111
asS'2013_16'
p112
(lp113
S'prayforboston'
p114
asS'2013_24'
p115
(lp116
g16
ag16
ag16
ag16
ag16
aS'this mcdonalds is extremely creepy'
p117
aS'the way went platinum today mom and i are crying thank you so much'
p118
asS'2013_25'
p119
(lp120
S'please enter me in the macbarbie07giveaway'
p121
aS'hello wednesday \xe0\xa5\x82\xe2\x80\xa2\xe1\xb4\x97\xe2\x80\xa2\xe0\xa5\x82\xe2\x9d\x81'
p122
aS'i bought it\xf0\x9f\x91\x8d'
p123
aS'please enter me in the macbarbie07giveaway'
p124
aS'i wonder if will notice me or follow me\xf0\x9f\x98\xaf so many other beliebers tweet him too so that probably wont happen'
p125
aS'enter me in the macbarbie07giveaway'
p126
ag16
aS'whataboutlove'
p127
aS'bought madeinamericaep on itunes just now cant wait to listen to all of it d'
p128
aS'cant wait till madeinamericaep comes out \xf0\x9f\x98\x83'
p129
aS'want a poster signed by rt amp when we reach 500 rts it will unlock the poster giveaway today'
p130
asS'2013_26'
p131
(lp132
S'i repeat'
p133
aS'happy birthday ari '
p134
aS'last night was magical \xf0\x9f\x92\x9e staples'
p135
aS'believetour \xf0\x9f\x98\xb1 it was amazing'
p136
aS'i feel ancient im a straight up fossil'
p137
aS'alot of things have been said but i do this for you mybeliebers'
p138
aS'i love what i do and im blessed to do it'
p139
aS'amazing show tonight never gets old believe'
p140
aS'los angeles went hard tonight wish there was a day 3 san jose tomorrow is coming believetour'
p141
aS'i saw you walking to your seats i was like ahh its kylied'
p142
aS'this night was the besti cant relieve i saw you on stage believetour dreamcometrue'
p143
aS'who is coming to the tonight believetour day 2 soldout\xe2\x80\x9d mee'
p144
aS'im going tonight too '
p145
asS'2013_27'
p146
(lp147
S'happy 4th of july everyone\xf0\x9f\x92\x99\xe2\x9d\xa4\xf0\x9f\x8e\x8a\xf0\x9f\x8e\x89\xf0\x9f\x87\xba\xf0\x9f\x87\xb8\xf0\x9f\x87\xba\xf0\x9f\x87\xb8'
p148
aS'always remember actions speak louder than words no ones perfect but we can all strive to be better people'
p149
aS'help change the world'
p150
aS'in life you gotta know who you are know your heart love the people that love you and be kind be great wwjd'
p151
asS'2013_22'
p152
(lp153
S'summer is finally here\xf0\x9f\x91\x90\xf0\x9f\x98\x86\xf0\x9f\x98\x84'
p154
aS'hi'
p155
asS'2013_28'
p156
(lp157
S'why is it raining '
p158
aS'this pencil smells so'
p159
asS'2013_29'
p160
(lp161
S'so really takes this family thing seriously'
p162
aS'yeah i just did that'
p163
aS'beliebers were getting heartbreaker today justin'
p164
aS'soon soonp suddenly i see u really want heartbreaker soon very soon heartbreaker'
p165
aS'plot twist justin broke our hearts hes the heartbreaker'
p166
ag16
aS'waiting for heartbreaker to come out'
p167
aS'dear math go buy yourself a calculator and solve your own problems im a teenager not a therapist'
p168
asS'2013_5'
p169
(lp170
S'you dont have to be perfect just be the best person you can'
p171
aS'be alright acoustic by justin bieber \xf0\x9f\x91\x8c\xf0\x9f\x91\x8d\xf0\x9f\x8e\xa7 \xf0\x9f\x92\x9c'
p172
aS'believe acoustic is out worldwide nowd'
p173
aS'believeacoustic is so amazing i am seriously obsessed with it'
p174
asS'2013_7'
p175
(lp176
S'yess cant wait\xf0\x9f\x98\x8b\xf0\x9f\x98\x8b\xf0\x9f\x98\x8b'
p177
asS'2013_6'
p178
(lp179
S'im watching the nets and lakers on tv and i see in the front row seats\xf0\x9f\x99\x80\xf0\x9f\x98\xb1\xf0\x9f\x98\xb1\xf0\x9f\x98\x8b'
p180
asS'2013_2'
p181
(lp182
S'my sis and i in target amp come across password journals britt aw i remember having one of those me awww i remem '
p183
aS'cant wait for believeacoustic \xf0\x9f\x98\x9d\xf0\x9f\x98\x8a'
p184
asS'2013_9'
p185
(lp186
S'happy birthday justin \xf0\x9f\x98\x8b'
p187
aS'my birthday is on friday '
p188
asS'2013_8'
p189
(lp190
S'rt rt rt cimorelli does the harlem shake'
p191
aS'if u wanna be great you gotta put in the work stayfocused hardwork'
p192
asS'2013_37'
p193
(lp194
S'enter me in the krazyrayraygiveaway'
p195
aS'follow spree retweet for a follow and ill follow as many of you as i can until i hit the follow limit followmeariana\xe2\x80\xa6'
p196
asS'2013_36'
p197
(lp198
S'this guy seems ready  yourstrulyatmidnight'
p199
aS'i seriously cant wait till yourstruly comes out i preordered it a while ago and it finally comes out at midnightd\xe2\x98\xba'
p200
aS'if blurred lines comes on the radio one more time i swear\xf0\x9f\x91\x8b\xe2\x80\x9d im so with you right now\xf0\x9f\x98\x84'
p201
asS'2013_35'
p202
(lp203
S'me plus you\xe2\x80\x9d bieberrrrrr'
p204
aS'wow yours truly now also 1 in taiwan malaysia and the philippines cant say thank you enough'
p205
aS'the first of a couple presents for the weekend unlockthedream thekey of my favorite things\xf0\x9f\x98\x82'
p206
aS'congrats on winning i freaked out when you won\xf0\x9f\x98\x84'
p207
asS'2013_34'
p208
(lp209
S'tomorrows the last day of summer break \xf0\x9f\x98\xb3\xf0\x9f\x98\xa9'
p210
aS'look at what i found beth\xf0\x9f\x98\x84'
p211
aS'everyone check out my new commercial '
p212
aS'loved the song its so good\xf0\x9f\x92\x95'
p213
aS'when homies greet each other'
p214
aS'common white girls emerging from their cave'
p215
aS'me on my way back to school'
p216
asS'2013_33'
p217
(lp218
S'when i met im in front of lisa btw'
p219
aS'rt this for a follow and ill follow as many of you as i can '
p220
aS'lollyvideo why not'
p221
aS'our story our awards our songs our albums our tour our journeyjust beginning this is forever thank u love'
p222
aS'4 years in a row tcas  thats love thank u enjoying the break but always here thank u this is forever '
p223
asS'2013_32'
p224
(lp225
S'entermeinthemacbarbie07giveaway please'
p226
aS'entermeinthemacbarbie07giveaway'
p227
aS'getting ready for the final believe show see you soon atlanta butterflies'
p228
aS'incredible show tonight thanks tampa one more show to go makes sense that it should end in atl'
p229
aS'youre crazy and nonna says thank you she loves you'
p230
aS'tell grandma i said whatup lol welcome to the tour'
p231
aS'by the way the new song with i like it'
p232
aS'thanks for always being there mybeliebers'
p233
aS'rt to congratulate on his riaa diamond award for baby this means it went platinum 12 times'
p234
aS'my grandmother is now in love with'
p235
aS'its safe to say that cares about his fans more than anything neversaynever'
p236
asS'2013_31'
p237
(lp238
S'opening for in a week believetour'
p239
aS'hello'
p240
aS'my guy will smiththe man gives good advice'
p241
aS'tomorrow is the official launch of my new show ootd on tomorrow are ya ready \xf0\x9f\x98\x89'
p242
asS'2013_30'
p243
(lp244
S'just being healthy'
p245
aS'there is such a huge difference between hey heyyyyy hey hey hey hey lt3 hey and hey'
p246
aS'thank you so much and thank you for having me be a part of believe im so excited  see you soon'
p247
aS'i see everyone going crazy over your new song you can sing see u on the believetour  congrats'
p248
aS'in the midst of all this excitement im not sure why but every1 in my house has tinfoil on their heads why whynot'
p249
aS'oh my god top 10 already its been an hour you guys are so incredible im so glad youre enjoying baby i thankyou'
p250
aS'just bought babyi its so good \xf0\x9f\x98\x8b\xf0\x9f\x92\x95'
p251
aS'not even out an hour amp youve already got it in the top 20 ive got the most incredible supporters thank you ily'
p252
aS'if u say something with the words heartbreaker and soon in the same sentence'
p253
asS'2013_39'
p254
(lp255
S'what sound does a fox make'
p256
aS'how adorable is this little fox awww \xf0\x9f\x98\x8d\xf0\x9f\x90\xba\xf0\x9f\x90\xba\xf0\x9f\x90\xba\xf0\x9f\x90\xba'
p257
aS'retweet for a follow amp ill follow as many as i can until i hit limit then im off to rehearsal for the video shoot th\xe2\x80\xa6'
p258
aS'in all honesty it might be the most important interview of this year'
p259
aS'will never forget my girl rip avalanna mrsbieber'
p260
aS'ripavalanna \xf0\x9f\x92\x9c'
p261
aS'person insults you you get offended person oh im just kidding hahasofunny'
p262
aS'check out my case beth\xf0\x9f\x98\x8b'
p263
aS'i dont understand people who post selfies every single day like do you think were gonna forget what you look like or\xe2\x80\xa6'
p264
asS'2013_38'
p265
(lp266
S'alright who wants a follow '
p267
aS'class picture '
p268
aS'idk'
p269
asS'2013_11'
p270
(lp271
S'rt for a follow ill try to follow as many people as i can '
p272
aS'i finally tried it and it was so good \xf0\x9f\x98\x8b\xf0\x9f\x8d\xb5\xf0\x9f\x8d\xa8'
p273
aS'although i dont know him personally i do wish the press would take it easy on '
p274
aS'the 22 video premieres and the red tour starts on wednesday yes thats the 13th yes thats on purpose'
p275
asS'2013_13'
p276
(lp277
S'im just playin \xf0\x9f\x98\x9c what do you'
p278
aS'omg  hope u like it  this was epic  exclusive fifth harmony cover they dont know about us by 1d  '
p279
aS'\xf0\x9f\x98\xb3\xf0\x9f\x98\xb3\xf0\x9f\x98\xb3\xf0\x9f\x98\xb3\xf0\x9f\x98\xb3'
p280
aS'when i saw this at target i thought of you \xf0\x9f\x98\x84\xf0\x9f\x98\x8e'
p281
asS'2013_15'
p282
(lp283
S'i have a surprise for all my beliebers tomorrow aatwvideo'
p284
aS'rt for a follow idk'
p285
asS'2013_14'
p286
(lp287
S'i turned on the radio and theway was playing \xf0\x9f\x92\x95\xf0\x9f\x92\x95'
p288
as.