(dp0
S'2014_8'
p1
(lp2
S'my guess would be handicap people'
p3
asS'2014_9'
p4
(lp5
S'long days longer nights'
p6
aS'how does this make yall rednecks feel ford troll hick hillbilly kiski'
p7
aS'thank you'
p8
aS'thanks'
p9
aS'i see you opened my snapchat thanks for not responding great friendship we have'
p10
aS'hi yes id like to sign up for ap napping next year'
p11
aS'if i wanted something id do anything to get it i dont want you so leave me amp my damn family alone cheaters smfh'
p12
aS'i have been diagnosed with depression \xf0\x9f\x98\x9e'
p13
asS'2014_14'
p14
(lp15
S'so this random guy came up to me and was like you look nice today so i said ummm who are you and he said april foo\xe2\x80\xa6'
p16
aS'\xf0\x9f\x98\x82\xf0\x9f\x98\x82\xf0\x9f\x98\x82\xf0\x9f\x98\x82'
p17
asS'2014_10'
p18
(lp19
S'omfg with my boys this weekend then off too iupattys2014'
p20
aS'you boys like to accompany me on my journey to screw some college girls saturday \xe2\x80\xa6'
p21
asS'2014_11'
p22
(lp23
S'if you run out of mouthwash just use bleach'
p24
asS'2014_13'
p25
(lp26
S'i hate both of you'
p27
aS'wtf'
p28
aS'i think we should have a little competition every dance that was great'
p29
as.