(dp0
S'2014_28'
p1
(lp2
S'worldcupfinal comment about shakira was hilarious'
p3
asS'2014_8'
p4
(lp5
S'immense concert last night at manchester apollo with'
p6
aS'were amazing tonight at manchester o2 apollo'
p7
aS'lets go'
p8
aS'uk rainfall record broken  its been the wettest winter in over a century'
p9
asS'2014_9'
p10
(lp11
S'teamrayon matthewmcconaughey jaredletofortheoscar jaredleto \xe2\x80\xa6'
p12
aS'first time ever here food was'
p13
aS'wellbeing and health neglected by employers say more than half of workers'
p14
aS'tomosocks very much likes the empty amazon box tomomilicevic cat britishshorthair\xe2\x80\xa6'
p15
aS'cheeky'
p16
asS'2014_7'
p17
(lp18
S'listening to vs'
p19
aS'ive only been diagnosed with anxiety amp depression since 3rd october 2013'
p20
aS''
p21
aS'say hello to our new cat tomosocks he both mental amp friendly has had 3 legs from birth'
p22
aS'happy valentines day to you too gary'
p23
aS'21 years ago today this poor little boy was murdered praying for his family today rip'
p24
ag21
aS'roll on spring amp summer'
p25
ag21
aS'is new to twitter lol'
p26
asS'2014_23'
p27
(lp28
S'\xc2\xa34233019 raised so far tonight you guys are amazing socceraid2014'
p29
aS'did someone say \xc2\xa342 million great work you lot socceraid2014 socceraid'
p30
asS'2014_10'
p31
(lp32
S'socks aka jaws lying on his back sleeping socks cat moggy instagood instaanimal jaws tomo\xe2\x80\xa6'
p33
aS'i still have my dark days but with my family friends amp partner by my side i know that i can achieve my goals'
p34
asS'2014_11'
p35
(lp36
S'businesses pay a big price for not effectively dealing with depression  mental health work'
p37
aS'editors blog continuing cuts add to growing concern over nation\xe2\x80\x99s mental wellbeing '
p38
asS'2014_32'
p39
(lp40
S'xxxx'
p41
as.