(dp0
S'2014_31'
p1
(lp2
S'why is it that we are not speaking but i find out your talking about me l and creepin on my social media we have nothn too discuss goodbye'
p3
asS'2014_18'
p4
(lp5
S'the green kind of shit too'
p6
asS'2014_19'
p7
(lp8
S'i no longer give a shit im mutual be nice too me and ill be nice too you end of story no special circumstances'
p9
asS'2014_14'
p10
(lp11
S'you are no exception because i know what you did too next time use more grease cuz ya damn sholl aint slick mf'
p12
asS'2014_15'
p13
(lp14
S'this is a great fucking week '
p15
aS'bitch fuck w my boy if u want too and see how quickly your mind changes'
p16
aS'yearly update times cried 0 times pissed too many friends lost 3 fucks given 2 best friend idek \xf0\x9f\x98\x9eanymore'
p17
aS'another month is asking too much of me and my 7 fucks too give to bhs'
p18
aS'everyone ive ever helped has turned their back on me its hurtful too see the fuck i dnt giv flying off into the fucking horizon'
p19
asS'2014_16'
p20
(lp21
S'the biggest contradiction in history lmfao'
p22
aS'thoose months when everything swings your way\xf0\x9f\x8c\xb4\xf0\x9f\x8c\xbe'
p23
asS'2014_17'
p24
(lp25
S'i didnt expect this day too go this good it feels good too retire and eliminate all your differences in one day'
p26
aS'going too prom w my old best friend thaliaaaa \xf0\x9f\x98\x87\xf0\x9f\x8d\xb9\xf0\x9f\x8e\x89\xf0\x9f\x8e\x8a\xf0\x9f\x8e\x89\xf0\x9f\x92\x9d'
p27
asS'2014_10'
p28
(lp29
S'it almost feels like were back but i cant read your mind '
p30
aS'about too have movie night w jord a good way too feel better'
p31
aS'blue goin to jail now thegamebet'
p32
aS'hacked by mskelly'
p33
aS'why are these fuckin children pissin me off some damn freshmen at that'
p34
aS'u wanna test that theory see dnt i drop yo ass lik a hot pot of grease'
p35
aS'i dont give a motherfuck what you freshmen think fuck all of yall ima grown ass man shit put some gas in this big ass truck and i may gaf'
p36
asS'2014_11'
p37
(lp38
S'just got done skating 1000 calories burned'
p39
aS'i tried my best but all i won was malice anytime'
p40
aS'eating snickers ice cream with jj insulting ourselves for staying around in gainesville rather than going back to ga goddamn we r stupid'
p41
aS'fucking blazing mad right now'
p42
asS'2014_12'
p43
(lp44
S'major backfire'
p45
asS'2014_13'
p46
(lp47
S'lmao cant wait till next event so we can laugh at this nigga again'
p48
aS'cutting ties right now no bullshit too many good friends too b fucked up w the bad ones no arguments just block and delete i swear \xf0\x9f\x91\x8b'
p49
aS'if there is somethin you dont lik about me then whatever you would like me too do please get to doin it cuz we dnt have to be associated'
p50
asS'2012_52'
p51
(lp52
S'chtistmas dinner grubbin'
p53
asS'2013_52'
p54
(lp55
S'the conjuring again'
p56
aS'cant sleep damn '
p57
aS'riiiiiight'
p58
aS'just gonna let it go this time friendships too strong to give it up now breath in breath outdamn good pic'
p59
asS'2012_51'
p60
(lp61
S'law and order svu'
p62
asS'2014_8'
p63
(lp64
S'at busch gardens w cousin and unc with thr headache from hell damn roller coasters make that headaches'
p65
aS'ever had that person you just cant stand too look at lmao'
p66
aS'you really cant replace ga friends'
p67
aS'about too have my knee drained jesus keep me near the cross'
p68
aS'gotta be at the new school by the 24th will decide on friday'
p69
asS'2014_9'
p70
(lp71
S'my economics teacher keep talkin about food'
p72
aS'niggas gotta fuck eveything up \xf0\x9f\x98\xa4'
p73
aS'that was such a good job too \xf0\x9f\x98\xa0'
p74
aS'omg not you too its time too go two week notice withdrawl forum and a late admission fee goodbye fuckmylife'
p75
aS'negro plzzzz'
p76
aS'i had too sneeze'
p77
asS'2014_6'
p78
(lp79
S'rule change car allowed '
p80
aS'comon darlington find me a dorm for the semester so i can get the hell outta buchholz'
p81
aS'if he finds me a dorm im back in'
p82
aS'just reapplied to darlington prep academy upper school for 2nd semester the headmaster was very happy too hear from us'
p83
aS'family is the shit '
p84
aS'rip grandpa great funeral good food my bfs are my sisters and my cousin thats who i live for now'
p85
aS'what a day what a day but it all good now \xf0\x9f\x91\x8d\xf0\x9f\x91\x8d\xf0\x9f\x91\x8d relieved'
p86
aS'why just why'
p87
aS'sorry\xe2\x80\xa6'
p88
aS'idk why but i just woke up and decided i never want too speak too you guys ever again of course that means giving up some other friends'
p89
aS'that one perfect day when one thing can turn it a bad one and send u too sleep wondering what will happen tomorrow sucks'
p90
aS'just saw a good fight '
p91
aS'chillen w my brother quel and code black'
p92
asS'2014_7'
p93
(lp94
S'hmmm'
p95
aS'but that was funny huh lol'
p96
aS'that was so damn nasty i had too tweet about it ghostthe devil is a got damn lie'
p97
aS'guess its siblings night the question is where are they'
p98
aS'i miss my brother so much right now feels lik the day i was diagnosed w depression all over again'
p99
aS'3 is her lucky number aka how many tons she weighs'
p100
aS'that sub was on some other shit'
p101
aS'that big bitch was breathn all hard an shit'
p102
aS'why do people bad mouth your family members too you how do you respond lol'
p103
aS'u kno what this motha'
p104
aS'so u mad bro nah u just talkn your usual shit \xf0\x9f\x98\x84 your words not mine'
p105
aS'aww who can stay mad at you\xf0\x9f\x98\x8a im still gonna pretend for a couple days thoe or till u read this apology secretly accepted'
p106
aS'relationship is going great \xf0\x9f\x98\x92 and now the games start play alonefuck you hoesbelike'
p107
aS'haha busch gardens w fam next weekend lets go turnup'
p108
aS'u never forget your first love and u trying too mak me forget is the quickest way you can become my ex well see whos forgotten alright'
p109
aS'must leave on or before the monday following my birthday'
p110
aS'the question now is do i tuck my tail and run or stay here and fight another day'
p111
aS'reaccepted time too go '
p112
aS'waiting for the call for my 4 month education get away'
p113
asS'2014_4'
p114
(lp115
S'why do ppl always ask about my siblings they arent special'
p116
aS'omg that was the funniest day ever got quotes for days off that one did too lmao'
p117
aS'gentlemen dont hesitate tonight let your tounge go free'
p118
aS'im gonna b good n peti too'
p119
aS'u think i giv a crap cuz u blocked me block yo shit back'
p120
aS'dont assume what u dnt know'
p121
aS'why why why did u do that time too move on or drop an anonymous tip'
p122
aS'im callin it right now watch'
p123
asS'2014_5'
p124
(lp125
S'listening to my song hoe shut the fuck up'
p126
aS'olivia promoted too captain '
p127
aS'my time is very precious so let me know before you waste it next time thank you very much \xf0\x9f\x98\x84'
p128
asS'2014_2'
p129
(lp130
S'good things just all start happening all of a sudden \xf0\x9f\x98\x87\xf0\x9f\x98\x87\xf0\x9f\x98\x87'
p131
aS'im such a good person i talk to any and everyone about any and everything if u have my number u can always talk too me believe that'
p132
aS'damn that was too funny'
p133
aS'best saturday this year gotta love havn friends'
p134
aS'4 more'
p135
aS'chillin w some of my real friends some got plenty more got 4 of the top of my head'
p136
aS'my phones naked'
p137
aS'my knee is not swollen anymore'
p138
aS'cant wait till tonight turndownforwhat'
p139
aS'alright wanna keep going go right on ahead im gonna watch'
p140
aS'selfiessssssss'
p141
aS'it would be awsome if ppl in conflict could just one time forget it ever happened and go back to the way things were just hit an undo bttn'
p142
aS'it ends now if we both stop then ther will be no more trouble tweet agreed if u agree to the deal please'
p143
aS'during the day you criticize and harass me but at night you cry and moan im being the bigger person but you cant handle that'
p144
aS'it takes two to tangoamp youre still on the dance floor looking dumb amp the nigga u like only dances with you when he a\xe2\x80\xa6'
p145
aS'back too private school next semest i aint about that public skool life no more duces '
p146
aS'so wake me up when its all over when im wiser and reunited with my main peeps but not too early lets kill the flames first truce'
p147
aS'am i that hard to talk too why dont ppl just call me or something im never opposed to listening'
p148
aS'it sucks that thers no solution too this hard to believe its all over just like that feeling some regret but idk how to fix it'
p149
aS'since were playing chess whats the next move god i hope its finally over i dnt know how much longer i can be the bigger person and hush'
p150
aS'i had already gotten wayyy over it baby befire you were evengone love that song'
p151
aS'you start the conversation on negative ground it wont end positive'
p152
aS'the hell are you yelling at u dont me too raise my voice'
p153
aS'you cant let anything go can you'
p154
aS'2014 update times cried0 times pissed 6 enemynone best day 16 best friend funniest joke crystal showan and the court balif'
p155
aS'i dnt hold grudges but i also dont apologize for decisions i make when i know theyre right but if it floats your boatsorry'
p156
aS'been freakin arguing w ppl all damn day warning today aint the day cross me and you will not be forgiven this is the end of the road'
p157
aS'if i dnt like youi have pretty good reason not too and under no circumstances do i need someone elses reason too dislike you'
p158
asS'2014_3'
p159
(lp160
S'damn dish network looses signal everytime the wind blows'
p161
aS'finally over it and ready too forgive and forget hopefully in that order otherwise duces im not arguing anymore case closed\xf0\x9f\x99\x8f'
p162
aS'its a shame somethin so stupid pulled us apart we werent meant to be friends if that split us up'
p163
aS'its always a good idea to make sure one of your best friends is blood because no matter who turns on u they wont'
p164
aS'wow'
p165
aS'thas my nigga right ther'
p166
aS'thoose days when u have nothing planned and god just gives you all kinds of things'
p167
asS'2013_13'
p168
(lp169
S'yes he had to have done it hes not asking qestions he knows the answers too check the gym cameras '
p170
asS'2014_29'
p171
(lp172
S'this is some goddamn bullshitfucking surprise boot camp kiss my ass'
p173
asS'2014_28'
p174
(lp175
S'whenwheres your shower'
p176
aS'shopping tomorrow w my main nigga'
p177
asS'2014_20'
p178
(lp179
S'prom 2k14'
p180
aS'last time wearing the uniform how bitter sweet'
p181
aS'you are not my family keep your fucking mouth shut'
p182
aS'im so tired just tired im beat my heads heavy and graduation is creeping up i dont waana do this prom shit anymore'
p183
aS'what a way to end the most annoying fucking day ever fml tired of fucking ppl'
p184
asS'2014_22'
p185
(lp186
S'who the fuck do u think u are'
p187
aS'finna kill this stupid ass bitch'
p188
asS'2014_26'
p189
(lp190
S'hacked his bestest friiiiiennnnnd'
p191
aS''
p192
aS'we was into that draft pick'
p193
as.