(dp0
S'2014_36'
p1
(lp2
S'if you ask someone out and dont get a direct answer you have your answer'
p3
aS'say no to cynicism'
p4
aS'pusat konservasi satwa pararawein 1'
p5
aS'how stilletos evolved from puddle jumpers to chic torture devices'
p6
aS'ampgt  sportsatu klub kaya ini ungkap nego panas jelang bursa ditutupklub mana ini'
p7
aS'baidu says its new smart chopsticks will tell you if your food is safe'
p8
aS'juvenile jail where 30 teens recently escaped had history of violence sexual abuse allegations'
p9
aS'ensambladoras plantean al ejecutivo cobro de la deuda ejecutivo con la \xe2\x80\x9cgran misi\xc3\xb3n fernando un ratico a pie y otro caminando'
p10
asS'2014_37'
p11
(lp12
S'15 sticky photos of amsterdams tomato fest'
p13
aS'harvard got its largestever donation this week with an investor giving 350 million'
p14
aS'dope'
p15
aS'dimention via twitter polisi gerebek pemain judi di kuburan'
p16
aS'kakek cabul penjual bakso berakhir di tahanan'
p17
aS'when youre having a good day then bae does something to piss you off'
p18
aS'3 miguel bos\xc3\xa9 caus\xc3\xb3 pol\xc3\xa9mica por la portada de su nuevo sencillo encanto \xc2\xbfqu\xc3\xa9 les parece ampgt ampgt foto'
p19
aS'saat uefa kritik fifa'
p20
aS'\xd9\x87\xd8\xa7\xd8\xb4\xd8\xaa\xd8\xa7\xd9\x82\xd8\xa7\xd8\xaa \xd9\x85\xd8\xaa\xd8\xaf\xd8\xa7\xd9\x88\xd9\x84\xd8\xa9  \xd9\x86\xd9\x83\xd9\x88\xd9\x86\xd8\xb3\xd8\xb9\xd8\xaf\xd8\xa7\xd8\xa1\xd8\xa7\xd8\xb0\xd8\xa7  \xd9\x83\xd9\x84\xd9\x85\xd9\x87\xd8\xb7\xd8\xa7\xd9\x84\xd8\xb9\xd9\x87\xd9\x85\xd9\x86\xd9\x82\xd9\x84\xd8\xa8\xd9\x83 '
p21
aS'23 animals who are just way too fat to function 5 has no shame about it ampgt'
p22
asS'2014_34'
p23
(lp24
S'wakil ketua mpr minta semua pihak hormati putusan mk'
p25
aS'\xd8\xaa\xd9\x82\xd8\xa7\xd8\xb1\xd9\x8a\xd8\xb1 \xd9\x88\xd8\xad\xd9\x88\xd8\xa7\xd8\xb1\xd8\xa7\xd8\xaa  \xd8\xa7\xd9\x84\xd8\xb9\xd8\xb7\xd8\xa7\xd8\xb1 \xd9\x85\xd9\x87\xd9\x86\xd8\xaf\xd8\xb3 \xd8\xa7\xd9\x84\xd8\xa3\xd8\xb3\xd8\xb1 \xd9\x88\xd8\xa7\xd9\x84\xd8\xa3\xd9\x86\xd9\x81\xd8\xa7\xd9\x82 \xd8\xa7\xd9\x84\xd9\x87\xd8\xac\xd9\x88\xd9\x85\xd9\x8a\xd8\xa9 \xd8\xa7\xd9\x84\xd8\xac\xd8\xb2\xd9\x8a\xd8\xb1\xd8\xa9'
p26
aS'nick cannon confirms separation with wife mariah carey'
p27
aS'arsenal butuh bek baru'
p28
aS'police say 2 boys arrested after plotting mass shooting at their southern california high school'
p29
aS'chelsea team v burnley courtois ivanovic cahill terry c azpilicueta fabregas matic schurrle oscar hazard diego costa cfc'
p30
aS'ukraine and prorussia rebels accuse each other of attacking refugee bus convoy'
p31
aS'pasca tanah longsor pemda bogor akan relokasi korban'
p32
asS'2014_35'
p33
(lp34
S'mayat terbakar dengan luka di leher ditemukan di semaksemak'
p35
aS'eu leaders agree to prepare fresh sanctions against russia ukraines president poroshenko says'
p36
aS'petrol price cut by rs 182 a litre from midnight tonight pti'
p37
aS'the 1 album in the country myeverything ampgt'
p38
aS'siapapun bisa membahagiakanmu karena melakukan sesuatu yang istimewa hanya orang istimewa yang bisa membahagiakanmu tanpa melakukan apapun'
p39
aS'bom mobil meledak di persimpangan padat baghdad 15 tewas'
p40
aS'itunesfestival september 22nd i cant wait london'
p41
aS'dont play hard to get if youre already hard to want'
p42
asS'2014_32'
p43
(lp44
S'ampgt  sportsatu messi dan ronaldo tak layak dicontoh'
p45
aS'shooting involving police leaves teen dead in ferguson mo authorities say up to 1000 people protest chief says'
p46
aS'gemini get bored quickly'
p47
aS'china to build lighthouses on five isles in defiance of us call'
p48
aS'young and growing todays live dailychart shows how the global population is set to change'
p49
asS'2014_33'
p50
(lp51
S'tipico irte a la cama a dormir y pasar antes una hora imaginando historias'
p52
aS'one critical way women can promote themselves is by raising their hands for increasingly difficult opportunities'
p53
aS'foxnews dr keithablow called michelleobama fat on live television watch here'
p54
aS'reputation is key in business so make sure you always play fair'
p55
aS'saat kamu tidak suka seseorang maka apapun yang dia lakukan akan mengganggumu'
p56
aS'pm modi might change iday venue from red fort'
p57
aS'what all men need to understand about everyday sexual harassment'
p58
aS'abc news apologizes for streaming video of robin williams home'
p59
aS'police fire tear gas to disperse crowds in ferguson mo protesting unarmed teens shooting by police'
p60
aS'how to get upgraded to first class travel'
p61
aS'good morning'
p62
asS'2014_31'
p63
(lp64
S'sunbathe balinese style at vincii plantacion del sur canary islands'
p65
aS'tgif whos going to the fair tonight'
p66
aS'time back home was awesome time to head back and work harder now'
p67
aS'why how the world sees you matters'
p68
aS'almost time for mondaynight hockey icetime baby ilovehockey hockeynut hockeylife'
p69
asS'2014_38'
p70
(lp71
S'\xd9\x83\xd9\x86 \xd8\xb3\xd8\xb9\xd9\x8a\xd8\xaf\xd8\xa7\xd9\x8b'
p72
aS'apple ios 8 vs ios 7 a visual tour of the biggest updates'
p73
aS'obama plan to fight antibiotic resistance disappointing critics say'
p74
aS'new york is objectively more progressive than california based on presidential voting voter registration and more'
p75
aS'new avengersageofultron synopsis teases joss whedons vision'
p76
asS'2014_39'
p77
(lp78
S'ampgt  sportsatu interview seru dengan bintang lini depan timnas indonesia era 1980an banur'
p79
aS'populer komentar enrique soal berat badan suarez'
p80
aS'luis enrique press conference watch it now'
p81
aS'why the garbage man might dislike your dog'
p82
aS'kpk akan periksa sahabat nazaruddin'
p83
aS'marquez berambisi rebut kemenangan di sirkuit favoritnya'
p84
aS'this timeline provides background on climate change and the policiesmovements that attempt to keep it in check'
p85
aS'ihsg dibuka jeblok 25 poin'
p86
aS'apples rollout of ios 8 hasnt been smooth for everyone here are some of the issues people have reported'
p87
asS'2014_18'
p88
(lp89
S'last week i worked around 50 hrs in 5 days it feels sooo good to work a 12 day from home today and ampamp\xe2\x80\xa6'
p90
asS'2014_14'
p91
(lp92
S'these hoes do anything for sum quick cash'
p93
aS'a2 20 mins  honolulu to molokai girlstravel'
p94
aS'fan of talkingdead join me ampamp 2242 other fans now on tvtag'
p95
asS'2014_15'
p96
(lp97
S'raise your anchor and set sail on a trip to beautiful newport beach'
p98
aS'\xe2\x80\x9chow many slams in an old screen door depends how loud you shut it how many slices in a bread depends how thin'
p99
aS'dont you just love your grandma smartphones travelcell'
p100
asS'2014_16'
p101
(lp102
S'anybody wanna go for a run '
p103
aS'a little to cold for april i wanna be wearing shorts not sweatshirts'
p104
aS'all i want for my birthdaaay is a big booty girl'
p105
aS'was creating some art perhaps for the house boylston street boston'
p106
aS'today in the blog  our trip itinerary with ratings from all 3 of us  think my moms opinion and my\xe2\x80\xa6'
p107
aS'stolen \xef\x98\x82\xef\x98\x81'
p108
aS'without freedom to create an artist would suffocate  mgmt'
p109
aS'keep favrioting my tweet'
p110
asS'2014_17'
p111
(lp112
S'i dont have shit to wear'
p113
aS'the lefts new it boy wants a 2 global wealth tax  politix business'
p114
aS'three elements of successful change management'
p115
aS'microsoft sirikiller muzzled by fed rule'
p116
aS'morniiiing ive been waking up at 6am all week '
p117
aS'medicalastrology chineseastrology robinsonhealthcareindex classicfilms astrology robinsonwarcollege cinema101'
p118
asS'2014_10'
p119
(lp120
S'give me any amount of time dont let my momma grieve'
p121
aS'1000s of clients cant be wrong is the best promotion company in the world'
p122
aS'my nap was good asf its like when im high and i gotta sleep i wake back up still high asf feeling sooo good'
p123
aS'made in italy guide to italian lakes  venere travel blog'
p124
aS'the alleged founder of bitcoin used to play a paranoiainducing game with his daughter news'
p125
aS'envisioning sunshine tbt amplt3 canada toronto'
p126
aS'some mfs rub me the wrong way'
p127
aS'5 secrets of public speaking from the best ted presenters  public speaking ted'
p128
aS'how to access your instagram pictures from desktop'
p129
aS'that real sour \xef\x98\x88 nofilter loud dour'
p130
aS'\xd9\x88\xd8\xa7\xd9\x84\xd9\x84\xd9\x8a \xd8\xb3\xd8\xa7\xd9\x85\xd8\xad \xd8\xad\xd8\xaf \xd8\xac\xd8\xa7\xd8\xb1\xd8\xad \xd8\xb1\xd8\xa7\xd8\xb6\xd9\x8a \xd8\xb0\xd9\x84 \xd8\xa7\xd9\x84\xd9\x85\xd8\xb4\xd8\xa7\xd8\xb9\xd8\xb1'
p131
aS'i love those types of compliments'
p132
aS'\xef\x8d\x80\xef\x92\x9a\xef\x92\xb6 you coolpretty and your birthday over \xef\x98\x82\xef\x98\x8e'
p133
aS'wang hao ampamp yan an compete for the world championships entry tabletennis'
p134
aS'queeeee la mejor repartiendo pizza'
p135
asS'2014_11'
p136
(lp137
S'drake \xe2\x80\x93 every girl live at axe lounge hip hop extra presents drake \xe2\x80\x93 every girl live at axe  hiphop'
p138
aS'subahanallah keren asliiiiiii'
p139
aS'china to declare war on pollution cut energy use  ecns business'
p140
aS'the trouble with troubleshooting ios applenews'
p141
aS'the waterlogue app is making me want to take another watercolor class its been too long adding it\xe2\x80\xa6'
p142
aS'i wake up every morning with the same state of mind'
p143
aS'101 inch a4 1200 2g 5320g win8 \xe2\x80\x93'
p144
aS'busfree through india that time i was charged by an elephant travel wildlife scary'
p145
aS'watch out for phisher on twitter'
p146
aS'arguing over the internet is the dumbest thing to waste time on'
p147
aS'everybodystreet was the business sxswfilm documentary'
p148
aS'\xef\x91\x91'
p149
aS'time to get a education \xe2\x9c\x8f\xef\xb8\x8f\xef\x93\x9a'
p150
aS'kenneth wilson 28588018 fci jesup 2680 us hwy 301 south jesup ga 31599 serious networkingbusiness only'
p151
asS'2014_12'
p152
(lp153
S'whats your favorite ice cream flavor'
p154
aS'im listening to blue da ba dee by eiffel 65 on pandora pandora'
p155
aS'the moment ive been waiting for the downtown y finally stepped their game up'
p156
asS'2014_13'
p157
(lp158
S'\xe2\x98\xba\xef\xb8\x8f'
p159
aS'remember this guy the international spy museum in washington dc is running a special exhibit on the\xe2\x80\xa6'
p160
aS'a deal between apple and comcast could kill netflix and change the future of nettv'
p161
aS'earthquake always scare the shit out of me im never gonna get use to earthquakes earthquake'
p162
aS'holy wow the full length trailer for jupiter ascending is incredible technews'
p163
asS'2014_8'
p164
(lp165
S'my day will consist of church  spending time w mason ampamp work '
p166
aS'kid cudi cast in entourage movie kid cudi is really making the transition into hollywood in additi hiphop'
p167
aS'excellent introduction to design infographic'
p168
aS'i survived a postpartum hemorrhage life saving surgery ampamp ptsd diagnosis childbirth trauma'
p169
aS'i thought it was like 10\xef\x98\xad'
p170
aS'i need a guy to go fishing with me \xef\x91\x8c'
p171
aS'lebron gone be right at okc\xef\x92\xaf\xef\x8f\x80'
p172
aS'guess which olympic gold medalists say thank you to sixty vocab teamvisa'
p173
aS'murphys law is in full effect this morning  and i have no one to blame but myself'
p174
aS'your energy level is sky high today making it imperative to d more for pisces'
p175
aS'ysitjdev56529'
p176
asS'2014_9'
p177
(lp178
S'now i know why robin wright won the emmy claire is cold and calculating houseofcards damnzoe'
p179
aS'obsesi\xc3\xb3n rojiblanca frenar a xabi alonso los rojiblancos consideran que la clave del partido puede pasar por'
p180
aS'hello twitter this is my most recent photo  march 1 2014  w makeup'
p181
aS'i hate seeing people cry'
p182
aS'fish tacos are life'
p183
aS'im convinced nose piercings were made for boys'
p184
aS'getting something done is an accomplishment getting something done right is an achievement'
p185
aS'i dislike you at the moment\xef\x91\x8a\xef\x91\x8a\xef\x91\x8a'
p186
aS'keep calm and shop local my friends  please rt to remind all your friends insouthflorida'
p187
aS'sometime around midnight has such brilliant lyrics dude ill always love that song'
p188
aS'ana is actually the one teaching me math love u ana \xef\x91\x8c\xef\x92\x9e'
p189
aS'how to become wedding planner and make it a profitable business'
p190
aS'for the perfect selfstorage solution visit movinghouse declutter bizitalk preston lancashire'
p191
aS'cant sleep \xef\x98\xad'
p192
aS'here is a cool shot of bangkok from the asoke bts station thailand pubictransportation travel\xe2\x80\xa6'
p193
aS'the pen or butterfly project dont work the butterfly kinda did but it just fades and i always end up hurting who i put'
p194
aS'he also might be my favorite teacher from high school'
p195
aS'that goal tho holy amazing'
p196
aS'this month is great feb 4th i got my 5sos follow yesterday i got news im going to see 5sos and today luke followed me happy happy '
p197
aS'goin back to bed todays on my nerves \xef\x98\xa0'
p198
aS'a tasty fish taco recipe'
p199
aS'those people that much bc if u did youd find a way to where you dont need to negotiate peoples humanity with a company that doesnt even'
p200
aS'you know how hard i laughed at this what'
p201
aS'sin palabras '
p202
aS'salim saleh invited me and onegi obel to his home and asked us for money from the fund nssf  former minister zoebakokobakoru'
p203
aS'loving my life romanian djs rock'
p204
aS'that looks like pur\xc3\xa9e not soup mkr'
p205
aS'ripped'
p206
asS'2014_43'
p207
(lp208
S'soal menkumham icw ini sangat mengejutkan'
p209
aS'a 45000yearold thighbone adds support to the theory of human interbreeding with neanderthals'
p210
aS'pisces are moody'
p211
aS'i miss the friends ive drifted apart from'
p212
aS'tips for success with women'
p213
aS'did she really just post her credit card and her security number on facebook'
p214
asS'2014_42'
p215
(lp216
S'ampgt  sportsatu eks penyerang persebaya dan arema ini siap hadapi bek spanyol saat juara piala dunia 2010'
p217
asS'2014_41'
p218
(lp219
S'high school football season canceled amid hazing allegations'
p220
aS'jumat jokowi mulai progam bedah kampung nelayan di muara angke'
p221
aS'how does it feel to have ebola its like your body doesnt belong to you anymore '
p222
aS'its time to see what i can do to test the limits and break through no right no wrong no rules for me im free \xe2\x80\x93elsa frozen'
p223
asS'2014_40'
p224
(lp225
S'watch lea salonga sing a whole new world with random audience members'
p226
aS'you guys have been busy pinning your fave party looks for the birthday girl  check out some of the best mixers hq x'
p227
aS'lebih baik berdoa meminta kekuatan daripada meminta kemudahan orang kuat akan mampu memudahkan hidupnya'
p228
aS'justin hamilton undergoes procedure'
p229
aS'\xd8\xaa\xd9\x82\xd8\xa7\xd8\xb1\xd9\x8a\xd8\xb1 \xd9\x88\xd8\xad\xd9\x88\xd8\xa7\xd8\xb1\xd8\xa7\xd8\xaa  \xd9\x85\xd8\xae\xd8\xa7\xd9\x88\xd9\x81 \xd8\xa8\xd8\xa7\xd9\x84\xd9\x8a\xd9\x85\xd9\x86 \xd9\x85\xd9\x86 \xd8\xb7\xd8\xa7\xd8\xa6\xd9\x81\xd9\x8a\xd8\xa9 \xd9\x8a\xd9\x81\xd8\xac\xd8\xb1\xd9\x87\xd8\xa7 \xd8\xb5\xd8\xb1\xd8\xa7\xd8\xb9 \xd8\xa7\xd9\x84\xd8\xad\xd9\x88\xd8\xab\xd9\x8a\xd9\x88\xd9\x86 \xd9\x88\xd8\xa7\xd9\x84\xd9\x82\xd8\xa7\xd8\xb9\xd8\xaf\xd8\xa9 \xd8\xa7\xd9\x84\xd8\xac\xd8\xb2\xd9\x8a\xd8\xb1\xd8\xa9'
p230
aS'first photo of george clooney ampamp amal alamuddins wedding'
p231
aS'\xd8\xb1\xd9\x8a\xd8\xa7\xd8\xb6\xd8\xa9  \xd8\xa3\xd9\x88\xd8\xaf\xd9\x8a\xd9\x86\xd9\x8a\xd8\xb2\xd9\x8a \xd9\x8a\xd9\x82\xd8\xb3\xd9\x88 \xd8\xb9\xd9\x84\xd9\x89 \xd8\xa8\xd8\xa7\xd8\xb1\xd9\x85\xd8\xa7 \xd9\x88\xd9\x8a\xd8\xb5\xd8\xb9\xd8\xaf \xd9\x84\xd9\x84\xd9\x85\xd8\xb1\xd9\x83\xd8\xb2 \xd8\xa7\xd9\x84\xd8\xab\xd8\xa7\xd9\x84\xd8\xab \xd8\xa7\xd9\x84\xd8\xac\xd8\xb2\xd9\x8a\xd8\xb1\xd8\xa9'
p232
aS'ampgt  sportsatu tereliminasi awan setho doakan timnas u19 sukses'
p233
aS'did other commitments cause you to miss football sunday we got you replayyoursunday'
p234
aS'kloter sapu jagat tiba di bandara jeddah'
p235
asS'2014_44'
p236
(lp237
S'george takei tries to save the midterms before stephen colbert disintegrates them'
p238
aS'sindiran maut swedia untuk menlu israel'
p239
aS'hell find his own way to tell you with the little things hell do thats how you know he\xe2\x80\x99s your love \xe2\x80\x93giselle enchanted'
p240
aS'teeny tiny kitten rescued after getting his head stuck in the wheel of an rv'
p241
aS'alhamdulillah ricky harun dikaruniai putri pertama'
p242
aS'doa ku pagi ini tuhan berilah kesehatan pada kami agar kami bisa mengejar cita kami dan agar kami masih bisa menjalakna perintahmu'
p243
aS'hardly got no sleep last nite but thats newborn life\xf0\x9f\x91\xb6\xf0\x9f\x92\x81 off to the city to do snookiandjwoww4 final season press today \xf0\x9f\x92\x9d\xf0\x9f\x92\x9d'
p244
aS'jokowi jangan takut ganti menteri lelet'
p245
asS'2014_29'
p246
(lp247
S'7 amazing sights to see in central america'
p248
asS'2014_28'
p249
(lp250
S'after a short but refreshing sleep onboard the dreamliner im in brunei excited to share stories from this coun'
p251
aS'inspire us  what are you top 2 bucket list destinations'
p252
aS'machu picchu is one of the places on everyone\xe2\x80\x99s travel bucketlist travelboldly adventure photo machupicchu'
p253
aS'exploring the mae sa waterfalls'
p254
aS'roadtrips from la to lv for 1 a day get in quick'
p255
aS'a4 look out for cattle on the beach when visiting the wild coast travelchatsa'
p256
aS'best pocket dial ever my dad accidentally called me from his cell phone he was singing the chorus to a country'
p257
aS'another pic of minettodrivein after the storm'
p258
asS'2014_21'
p259
(lp260
S'swisshchalet timhortons harveys all remind me of my childhood wish they stayed canadian'
p261
aS'my girl is so beautiful'
p262
aS''
p263
aS'\xf0\x9f\x8f\x80\xf0\x9f\x8f\x80\xf0\x9f\x8f\x80\xf0\x9f\x8f\x80\xf0\x9f\x8f\x80\xf0\x9f\x8f\x80\xf0\x9f\x8f\x80'
p264
aS'im at charlies sandwich shoppe boston ma'
p265
aS'how to create a personal brand guide'
p266
aS'anyone traveling for the first time this summer check out these great tips for first time travelers'
p267
aS'how aspiring entrepreneurs can stand above the crowd  entrepreneurs'
p268
aS'she wearing those damn shorts i aint mad'
p269
asS'2014_20'
p270
(lp271
S'how to edit featured likes on your facebook page  socialmediaminute socialmedia facebook tutorial video'
p272
aS'is content marketing worth it'
p273
aS'i can sit up to cuss out twc or actually get 67 hrs a sleep we all know the winner of this'
p274
asS'2014_22'
p275
(lp276
S'peep game'
p277
asS'2014_27'
p278
(lp279
S'camaldolicasentino forest'
p280
aS'photo of the day the local donut shop nyc'
p281
aS'travel'
p282
aS'travel apps you need before your next cruise  cruise travel android awayfind'
p283
aS'friends who have traveled the pacific northwest what are your favorite things to seedoeat on the oregon coast'
p284
aS'beautiful neuschwanstein castle on the top of a mountain fuessen germany rt if this view blow your mind away'
p285
aS'things to do in bruges  travel ttot'
p286
aS'desertrace selfie'
p287
asS'2014_26'
p288
(lp289
S'disney tip you can walk from disney\xe2\x80\x99s saratoga springs resort ampamp spa to downtown disney via a sidewalk it\xe2\x80\x99s about a 1015 minute walk'
p290
aS'likeshare if you wish you were here for the weekend'
p291
aS'settling old scores on colorado\xe2\x80\x99s wetterhorn peak'
p292
aS'the loews miami beach hotel has direct access to a 900foot wide sandy beach loewshotel'
p293
aS'travelboldly part 2 incan honeymoon peru machupicchu iquitos amazon travel'
p294
aS'glamping in jersey bell tents at daisy cottage campsite channel islands'
p295
as.