(dp0
S'2013_5'
p1
(lp2
S'stop letting animal control declare pitbulls dangerous amp potentially dangerous via'
p3
asS'2013_4'
p4
(lp5
S''
p6
aS'are you serious killing my fav breed what a bunch of dicks'
p7
aS'san francisco animal control killing pitbulls photos via'
p8
asS'2013_3'
p9
(lp10
S'do you see a pattern here all pitbulls amp mixes people stop the hate amp abuse o via'
p11
aS'do you see a pattern here all pitbulls amp mixes people stop the hate amp abuse o via'
p12
asS'2013_2'
p13
(lp14
S'em is great been thru hell and back got knocked down and got right back up and faced his demons and he is just one admireable person lt3'
p15
aS'aloha bruno when are you ever come home in hawaii for a concert '
p16
aS'what misses his daddy'
p17
aS'dont piss the pooch off funny '
p18
aS'missing da homie  mars baby geronimo '
p19
aS'i so love bruno'
p20
aS'does anyone know status right nowgotta save himit says tbd today i need to call there and find out status annyone have a '
p21
aS'alright have fun '
p22
aS'thank you'
p23
aS'thank you very much pitties are my babies'
p24
aS'thank you so very much'
p25
aS'in loving memory lennox lt3 via'
p26
aS'in loving memory lennox lt3 via'
p27
aS'one of my babies rescued at 6 mosfrom a high kill'
p28
ag6
aS'proof look at this gorgeous pittiehelping heal ppl in a hospital how awesome is that '
p29
aS'and putting an end to the stupid fkn bsl aka bullshit law pardon my language'
p30
aS'i am trying to bring awareness to ppl to adopt a pittie and not buy from breeders as there is plenty on death rows'
p31
ag6
ag6
aS'i completely agree i am new on here and need an army of fellow pitbull lovers who saverescueamp not breed'
p32
aS'i am new at tweeting but i would love to find fellow pitbull lovers to help me rescueadoptshareno breeders pls enuff on dth row'
p33
asS'2013_37'
p34
(lp35
S'father amp son'
p36
aS'damn straight '
p37
asS'2013_21'
p38
(lp39
S'couldnt have said it better'
p40
aS'perrrrty coool'
p41
asS'2013_23'
p42
(lp43
S'absolute beauty lt3'
p44
asS'2013_29'
p45
(lp46
S'i dont give a shit what breeders think of me stop breeding them this is where they end up death rowuasses'
p47
aS'and they are having ufc fighters promoting this'
p48
aS'read my last couple tweets amp let know if u agree thanx'
p49
aS'if you have a family amp kidsto provide for then get a real damn job i have a fam wkids amp adopted pitties'
p50
aS'check this bullshit out i just asked why they need to breed pitties when there are thousands at shelters'
p51
aS'in lt3ing memory my momshe was only 42 i was 17 amp taken away from me i was diagnosed with having ptsd'
p52
aS'lt3 this'
p53
asS'2013_38'
p54
(lp55
S'go berzerk'
p56
as.