(dp0
S'2013_42'
p1
(lp2
S'and that was the first time i fell down the stair at the high school'
p3
aS'my mom doesnt like me'
p4
aS''
p5
aS'ugh'
p6
aS'my teacher is making fun a kid haha'
p7
asS'2013_43'
p8
(lp9
S'whats your goal in life'
p10
aS'lets play evil apples for iphone tap the link on your iphone to join me'
p11
aS'ootd'
p12
aS'when your science teacher flips off the whole class\xf0\x9f\x98\x82\xf0\x9f\x98\x82\xf0\x9f\x98\x82'
p13
asS'2013_40'
p14
(lp15
S'its leggings season'
p16
aS'people bother me'
p17
asS'2013_41'
p18
(lp19
S'i was singing then my mom asked if someone was hurt'
p20
aS'sitting in class like'
p21
aS'ayyy'
p22
aS'ask me a question '
p23
aS'can we all be friends and not talk shit is it that hard '
p24
aS'can we all be friend am not talk shit'
p25
aS'why is blake lively literally the most perfect person alive'
p26
aS'naked is classy right'
p27
aS'god bless attractive waiters'
p28
aS'i really cant be friends with you if you dont use chapstick because what if i forget mine '
p29
aS'i know a guy is special when id rather talk to him then watch gossip girl'
p30
aS'i hate it when teachers are like dont pack up we still have a minute left in class'
p31
aS'season 6 of goosip girl is on netflix lifemade'
p32
aS'what are ur plans for the future'
p33
aS'tomorrow my house '
p34
aS'what did the fox say '
p35
aS'hes beautiful\xf0\x9f\x92\x95'
p36
aS'youre seriously all i want\xe2\x80\x9d \xf0\x9f\x92\x95'
p37
aS'my tumblr is everything id never tell you'
p38
asS'2013_46'
p39
(lp40
S'you never talk or hang with me what so you expect'
p41
aS'mylifeinapicture'
p42
aS'third wheel life'
p43
aS'best relationship talk like best friends play like children argue like husband and wife protect each other like brother and sister'
p44
aS'ugh can i have you '
p45
aS'wait so  when is it my turn to be happy '
p46
aS'mentionsomeonebeautiful'
p47
aS'mentionsomeonebeautiful'
p48
aS'mentionsomeonebeautiful'
p49
aS'mentionsomeonebeautiful'
p50
aS'everything pisses me off rn'
p51
aS'hope you have some sweet ass dreams'
p52
aS'it drives me crazyy when people ignore me'
p53
aS'can the pain go away'
p54
aS'lol wut'
p55
aS'send me nudes november'
p56
aS'mentionatruefriend'
p57
aS'i wonder what i look like in your eyes'
p58
aS'todays just not my day'
p59
aS'im a lazy ass texter unless youre my best friend cute or i like you but most of the time i just dont wanna text'
p60
aS'when i curl my hair i feel like im one of those older girls in toddlers and tiaras'
p61
aS'sorry i only develop feelings for people i will never have a chance with'
p62
aS'i\xe2\x80\x99m only pale so i can blend in with the snow and hide from socialization during the winter months'
p63
aS'facetiming devon talking about s mom'
p64
aS'just got my first job \xf0\x9f\x91\x8c'
p65
asS'2013_47'
p66
(lp67
S'miley cyrus has no eyebrows and theyre still better than yours\xe2\x80\x9d i cried\xf0\x9f\x98\x82'
p68
aS'so im wearing leggings a beanie flannel with a jacket under it and convers while im carrying my white iphone tweeting whitegirlprobs'
p69
aS'girls love when you play with their hair\xe2\x80\x9d this isnt true you touch my hair you die'
p70
aS'i feel like so much like a white girl rn'
p71
aS'if you screenshot my snapchats i hate you stop'
p72
aS'my phones battery life lol'
p73
aS'its only wednsday'
p74
aS'my cat just opened my closed door in my room to get out my cat is better then yours even though she wanted to get away that badly'
p75
aS'same god this whole episode'
p76
aS'my tears started when she saw the earring \xf0\x9f\x98\xad'
p77
aS'i just cried 2 tears bc awkward'
p78
aS'awkward made me cry jenna and matty forever please '
p79
aS'i swear my little brother got dropped as a baby'
p80
aS'a kiss is the best way to shut a girl up'
p81
aS'youre a lowkey bitch'
p82
aS'they all taste the same'
p83
aS'can i leave school and lay in my bed eating lots of food and watching netflix pls'
p84
aS'too big cant hide it'
p85
aS'stop flashing me your ass \xf0\x9f\x99\x88\xe2\x80\x9d you like it turndownforwhat'
p86
aS'the struggles of finding a guy to ask for sadies'
p87
aS'yah bish'
p88
aS'so i hate kuzma worstteacherever'
p89
aS'kuzma cant teach'
p90
aS'your that summer love never faded away'
p91
asS'2013_44'
p92
(lp93
S'my mom finally agreed that im a angel '
p94
aS'ugh'
p95
aS'god why did i agree to babysit for 7 hours straight'
p96
aS'why cant i just be a cat\xf0\x9f\x90\xb1'
p97
aS'you say that and then never talk to me again cool'
p98
aS'i love s face'
p99
aS'i miss'
p100
aS'crap what did i do'
p101
aS'fml'
p102
aS'happy halloween bananas'
p103
aS'theywantthec'
p104
aS'go and follow me on tumblr'
p105
aS'this is so true'
p106
asS'2013_45'
p107
(lp108
S'my morning would be so much better if i woke up to him every morning'
p109
aS'fuck you'
p110
aS'yes'
p111
aS'new avi'
p112
aS'exactly '
p113
aS'well im not his girlfriend yet '
p114
aS'cody \xf0\x9f\x98\x89'
p115
aS'when a guy is proud to show off his girlfriend gtgtgtgtgtgtgtgtgtgt'
p116
aS'can i marry rn pls'
p117
aS'i notice everything i just keep my mouth shut'
p118
aS'having the ability to make someone happy is just one of the best feelings ever'
p119
aS'good morning jk bad morning because all i wanna do right now is go back to sleep'
p120
aS'watching grease'
p121
aS'im fine with that '
p122
aS'you never text me'
p123
aS'omg i want'
p124
aS'the weekend is gonna be amazing \xe2\x9d\xa4\xef\xb8\x8f'
p125
aS'this upcoming long weekend is the only thing i care about'
p126
ag5
aS'not so tbt i miss this night so much but night ive had in years'
p127
aS'god i hate babysitting why do i do it'
p128
aS'i take selfies on the bus dontjudgeme nolife xx'
p129
aS'whens summer i want it back already'
p130
aS'theres rumors about be at a school where i dont even go lol stop its not true'
p131
aS'why am i single'
p132
aS'im not socially awkward im textilly awkward'
p133
aS'yes '
p134
aS'annmarie is the best'
p135
aS'dear mom when you say your picking me up in 10 min dont take an hour thanks'
p136
aS'this weekend i cant wait \xf0\x9f\x92\x95'
p137
aS'no you have no friends'
p138
aS'ibtc'
p139
aS'stop playing games with her shes my best friend and shes falling for them'
p140
aS'i wonder how other people see me'
p141
aS'i just saw someone in class pick their nose then eat it \xf0\x9f\x98\xb3'
p142
aS'benedetti gtgtgt'
p143
aS'a girls tumblr basically explains her lol'
p144
aS'ugh i want a new piercing so bad'
p145
aS'best post of the night i cried'
p146
aS'bootyhadmelike'
p147
aS'i dare someone to kiss spittingcrickets'
p148
aS'fuck you'
p149
aS'i know im too hot to handle'
p150
aS'when she got the opening question right\xf0\x9f\x98\x8d ily what a loser that hottie \xf0\x9f\x92\x95\xf0\x9f\x98\x8d'
p151
aS'wow your mature'
p152
asS'2013_27'
p153
(lp154
S'beach bound'
p155
asS'2013_28'
p156
(lp157
S'did i just get blocked by lauren levin'
p158
aS'how about you stop making statuses about baseball and actually go play it ithinkweallknowwhoimtalkingabout'
p159
aS'sunburnt  fml'
p160
aS'girl code isnt just a tv show its a religion'
p161
asS'2013_29'
p162
(lp163
S'what i have a tan line that means im finally tan whitegirlprob'
p164
aS'apperently in june i had over 11000 texts opps'
p165
asS'2013_37'
p166
(lp167
S'isnt friday the 13th supposed to be horrible mine was perfectlt3'
p168
aS'so to oregon for being 2 \xf0\x9f\x98\x82\xf0\x9f\x91\x8f'
p169
aS'my rapper name is black gold\xe2\x84\xa2'
p170
aS'that proud moment when your ex has a downgrade \xf0\x9f\x98\x82'
p171
aS'no my man and i have the best convos'
p172
aS'our convos gt yours\xe2\x9d\xa4'
p173
aS'paragraph texts gt one word texts'
p174
asS'2013_36'
p175
(lp176
S'\xf0\x9f\x98\x8d'
p177
aS'can summer just last forever \xf0\x9f\x98\xab\xf0\x9f\x94\xab'
p178
asS'2013_35'
p179
(lp180
S'fuck i need friends'
p181
aS'ily were perf'
p182
aS'this is my girlfriend and i arent we a perfect couplelt3'
p183
asS'2013_34'
p184
(lp185
S'like really'
p186
aS'im in love doe'
p187
ag5
aS'im about that cat woman life'
p188
asS'2013_33'
p189
(lp190
S'i miss you but you dont talk to me'
p191
aS'n o f a i t h i n b r o o k l y n'
p192
asS'2013_32'
p193
(lp194
S'im in love i swear whydoyoulivesofaraway'
p195
asS'2013_31'
p196
(lp197
S'mackelmore on my speakers thogtgtgt'
p198
asS'2013_30'
p199
(lp200
S'the joy of waking up at 530 in the morning for a plane someoneshootme'
p201
aS'facebook nowadays lauren levins life and ty kohlers big dreams on making it to mlb'
p202
asS'2012_31'
p203
(lp204
S'mean girls iloveyou'
p205
asS'2013_39'
p206
(lp207
S'came home to a mole in my house my cat in stuck in a tree and my dog ran away for a little bit'
p208
asS'2013_38'
p209
(lp210
S'aaand oregon weather is back'
p211
aS'freshman at homecoming'
p212
aS'you know just walking around my house with leopard print footsie on'
p213
asS'2012_38'
p214
(lp215
S'we all have done this after a game good game\xee\x80\x92 good game\xee\x80\x92 good game\xee\x80\x92 good game\xee\x80\x92 good game\xee\x80\x92 fuck you \xee\x80\x8d good game\xee\x80\x92 g '
p216
as.