(dp0
S'2013_40'
p1
(lp2
S'hope all is ok pal'
p3
asS'2013_41'
p4
(lp5
S'20 tonight are we gonna see a 9 darter sir'
p6
asS'2013_46'
p7
(lp8
S'lighting heating yes people winters here are you fully prepared speak to newey amp eyre leeds about your requirements'
p9
asS'2012_48'
p10
(lp11
S'which of the following is most important to you when making a purchase'
p12
aS'shaunblackman'
p13
aS'shaunblackman'
p14
aS'shaunblackman'
p15
aS'shaunblackman'
p16
aS'five three one campaign'
p17
aS'shaunblackman'
p18
aS'shaunblackman'
p19
aS'shaunblackman'
p20
aS'shaunblackman'
p21
aS'which of the following is most important to you when making a purchase'
p22
asS'2011_51'
p23
(lp24
S'coloured bang on very few sensible opinions if ne 1 is to blame for it being on national surely it is the bbc editors'
p25
aS'hi wayne what happened to you choosing a picture from the ones we sent this week'
p26
aS'my cat loves me really'
p27
asS'2013_45'
p28
(lp29
S'in la nice x'
p30
aS'no baton rouge whats that'
p31
aS'thanks for the follow x'
p32
asS'2012_45'
p33
(lp34
S'which of the following is most important to you when making a purchase'
p35
aS'hi just to make you aware newey amp eyre leeds are now stockists of solar panel kits if you are interested in finding out further informati\xe2\x80\xa6'
p36
aS'please guys take 30 seconds to provide your opinion'
p37
aS'which of the following is most important to you when making a purchase'
p38
aS'buying solar pv kits why not contact newey amp eyre leeds for a price 0113 389 5150'
p39
aS'which of the following is most important to you when making a purchase'
p40
aS'hi just to make you aware newey amp eyre leeds are now stockists of solar panel kits if you are interested in finding out further inform\xe2\x80\xa6'
p41
asS'2012_44'
p42
(lp43
S'im looking for new business opportunities to supply products such as lighting heating ventilation etc do you purchase these products or \xe2\x80\xa6'
p44
aS'does your company purchase items from an electrical wholesaler do you currently hold an account with newey amp eyre if not why not drop me\xe2\x80\xa6'
p45
aS'hi if you are currently buying electrical items such as cable lighting heating ventilation or solar and you dont currently buy from n\xe2\x80\xa6'
p46
aS'buying  installing solar why not contact me for a comparable price newey amp eyre leeds now stockists of solar pv kits'
p47
aS'buying  installing solar why not contact me for a conparible price newey amp eyre leeds now stockists of solar pv kits'
p48
aS'hi if you are currently buying electrical items such as cable lighting heating ventilation or solar and you dont currently buy from n\xe2\x80\xa6'
p49
asS'2012_47'
p50
(lp51
S'shaunblackman'
p52
aS'shaunblackman'
p53
aS'shaunblackman'
p54
aS'shaunblackman'
p55
aS'which of the following is most important to you when making a purchase'
p56
aS'does anyone utilise the sales basic account on linkedin is it worth the investment what has been your return on ivestment any feedback a\xe2\x80\xa6'
p57
aS'looking to reduce the running cost of your site through energy saving products then give me call for a free of charge site survey 07919\xe2\x80\xa6'
p58
aS'is attending the solar world roadshow at headingley stadium in leeds on wednesday 5th december who else is planning on attending'
p59
aS'which of the following is most important to you when making a purchase'
p60
aS'shaunblackman'
p61
aS'buying solar pv kits why not contact newey amp eyre leeds for a price 0113 389 5150'
p62
asS'2012_46'
p63
(lp64
S'shaunblackman'
p65
aS'shaunblackman'
p66
aS'which of the following is most important to you when making a purchase'
p67
asS'2012_40'
p68
(lp69
S'all roads leading out are open top notch'
p70
asS'2012_42'
p71
(lp72
S'hi if you are currently buying electrical items such as cable lighting heating ventilation or solar and you dont currently buy from n\xe2\x80\xa6'
p73
aS'hi if you are currently buying electrical items such as cable lighting heating ventilation or solar and you dont currently buy from n\xe2\x80\xa6'
p74
aS'hi if you are currently buying electrical items such as cable lighting heating ventilation or solar and you dont currently buy from n\xe2\x80\xa6'
p75
asS'2013_24'
p76
(lp77
S'buying electrical products but not currently trading with newey amp eyre why not give me a call on 07919 015123 to discuss your potential ne\xe2\x80\xa6'
p78
asS'2012_49'
p79
(lp80
S'is looking to speak to companies covering industries such as electrical contractors amp engineers industrial companies facilities managemen\xe2\x80\xa6'
p81
aS'is looking to speak with anyone who has a requirement for any of the following products lighting lamps cables wiring accessories domes\xe2\x80\xa6'
p82
aS'shaunblackman'
p83
aS'shaunblackman'
p84
aS'which of the following is most important to you when making a purchase'
p85
aS'natural sparx'
p86
aS'guys please foolow and support this group i would also appreciate it if you shared with your connections too'
p87
aS'which of the following is most important to you when making a purchase'
p88
aS'shaunblackman'
p89
aS'shaunblackman'
p90
aS'shaunblackman'
p91
aS'shaunblackman'
p92
aS'shaunblackman'
p93
aS'shaunblackman'
p94
aS'shaunblackman'
p95
aS'shaunblackman'
p96
aS'which of the following is most important to you when making a purchase'
p97
asS'2013_28'
p98
(lp99
S'voiceofdoom kevin pietersen'
p100
asS'2013_29'
p101
(lp102
S'deep for 11am but i hated ronnie osullivans attitude until i was diagnosed with depression respect him 100 now'
p103
asS'2013_4'
p104
(lp105
S'newey amp eyre leeds are a leading nationwide electrical wholesaler if you dont have a trade account already please feel free to drop me a\xe2\x80\xa6'
p106
aS'is currently looking to add to his existing account base not currently trading with neweys or know someone who could benefit from our serv\xe2\x80\xa6'
p107
aS'newey amp eyre leeds a specilist supplier of all things led why not drop me a line to discuss your ongoing requirements '
p108
aS'is currently looking to add to his existing account base not currently trading with neweys or know someone who could benefit from our serv\xe2\x80\xa6'
p109
aS'newey amp eyre leeds a specilist supplier of all things led why not drop me a line to discuss your ongoing requirements '
p110
aS'newey amp eyre leeds are a leading nationwide electrical wholesaler if you dont have a trade account already please feel free to drop me a\xe2\x80\xa6'
p111
aS'newey amp eyre leeds are a leading nationwide electrical wholesaler if you dont have a trade account already please feel free to drop me a\xe2\x80\xa6'
p112
aS'newey amp eyre leeds are a leading nationwide electrical wholesaler if you dont have a trade account already please feel free to drop me a\xe2\x80\xa6'
p113
asS'2013_1'
p114
(lp115
S'happy new year to all i am looking to grow my customer base in the first few months of 2013 and i am asking if there are any companies you\xe2\x80\xa6'
p116
aS'check this out guys and gals want something a little different for your kids party  give andy a call '
p117
asS'2014_19'
p118
(lp119
S'can you all please connect with hayley boughen who is looking to increase her profile within linkedin thanks'
p120
asS'2013_2'
p121
(lp122
S'who will be my 1000th connection '
p123
asS'2014_15'
p124
(lp125
S'people please connect with hayley boughen  new to linkedin and looking to expand her linkedin profile thanks'
p126
asS'2013_9'
p127
(lp128
S'whats a noonie'
p129
asS'2014_13'
p130
(lp131
S'check out this awesome new app guess the emoji on the app store'
p132
asS'2012_8'
p133
(lp134
S'if you have any training reqs short or long term then please feel free to drop me a line to discuss how i may be able to help thanks'
p135
aS'limited numbers available for solar pv courses throughout march feel free to contact me for further information thanks shaun utn renewa\xe2\x80\xa6'
p136
aS'i just joined linkedin and created my professional profile join my network in'
p137
asS'2012_9'
p138
(lp139
S'i am extremely pleased to announce that from monday next week i will be starting a new and exciting role with edmundson electrical in wakef\xe2\x80\xa6'
p140
asS'2012_6'
p141
(lp142
S'hi all can you all follow please and also retweet much appreciated x'
p143
asS'2012_1'
p144
(lp145
S'because its the time of day people are literally rushing to get home obviously that never happens due to cues'
p146
asS'2011_41'
p147
(lp148
S'i doubt she knows where yorkshire is'
p149
aS'good luck 2nite sir wish i had tickets ill wait for the dvd x'
p150
asS'2014_7'
p151
(lp152
S'newey amp eyre leeds  branch of the year for 2013'
p153
asS'2014_4'
p154
(lp155
S'is your company buying electricalmechanical materials why not contact newey amp eyre leeds to discuss your needs 0113 3895150'
p156
aS'newey amp eyre leeds  supplying a first class service to domestic commercial and industrial electrical engineers throughout leeds not curr\xe2\x80\xa6'
p157
asS'2012_51'
p158
(lp159
S'natural sparx'
p160
aS'shaunblackman'
p161
asS'2014_3'
p162
(lp163
S'not currently trading with newey amp eyre leeds give us a call on 0113 3895150 to discuss your requirements'
p164
aS'newey amp eyre leeds  the uk\xe2\x80\x99s leading electrical wholesaler selling quality electrical supplies safety equipment and other maintenance re\xe2\x80\xa6'
p165
asS'2013_37'
p166
(lp167
S'awesome night with barney my son loves the signed shirt'
p168
asS'2013_10'
p169
(lp170
S'not currently trading with newey amp eyre in leeds buying electrical supplies daily give us a call to discuss your needs 07919 015123'
p171
aS'looking for ways to save money on utility bills why not contact newey amp eyre in leeds for a free energy audit on your premises 07919 0151\xe2\x80\xa6'
p172
asS'2013_32'
p173
(lp174
S'ta'
p175
aS'why'
p176
aS'hey how are you'
p177
aS'hey are you from rochdale'
p178
aS'him you from pontefract'
p179
aS'hi you from chesterfield'
p180
aS'hi becky you from leeds'
p181
aS'are you from leeds'
p182
aS'hi diana are you from huddersfield'
p183
asS'2013_18'
p184
(lp185
S'looking at reducing your energy consumption through a variety of methods why not drop me a line on 07919 015123'
p186
asS'2011_35'
p187
(lp188
S'which ronaldo'
p189
aS'a friend of mine once said the secret to a successful marriage is short nighties'
p190
aS'sorry just seen what you replied too glad u agree lol'
p191
aS'you agree im a closet chick flick fan lol'
p192
aS'um yeh sorry should really think before i tweet until my last tweet i was a closet chick flick fan'
p193
aS'derfinately maybe on dvd quality film'
p194
aS'mapping murders by david canter brilliant'
p195
aS'silver fox i thought he was calling himself the tinted panther now'
p196
aS'so someone who works hard for a living goes out for a meal as a treat should stay home unless they can afford a tip totally disagree'
p197
aS'unless the individual is hard up financially and camt afford to tip all the time'
p198
aS'thought you had an iphone as a company phone'
p199
aS'battery life and cost or backhanders'
p200
asS'2011_34'
p201
(lp202
S''
p203
aS'marching on together'
p204
aS'sat on sofa watching tele whilst wife is working could get use to it'
p205
aS'thanks for the follow sir hope you and the family are well ps you shouldnt beat your kids with swords lol'
p206
aS'im bringing my wife tomorrow night cant wait the meal is courtesy of for losing to comp'
p207
aS'im off to hebden bridge with the family to see fire engines sorry'
p208
aS'hello world nearly the weekend what we got planed'
p209
aS'qpr'
p210
aS'my work colleague dean dont believe that lacey turner or stavros flatley follow me on twitter how rude'
p211
aS'id love to go to work tomoz and say stavros flatley follows me on twitter plz'
p212
aS'every branch runs independently so servicepricequality differs across each branch'
p213
aS'hmmm cant argue on price however servicequality we should always be one of the best'
p214
aS'why do u not like cef'
p215
aS'please can you rt and tell followers to go to wwwaciorguk ref to dangerous inferior cables incl fire performance cable'
p216
ag203
aS'neither the inbetweeners'
p217
aS'whats crackberry'
p218
aS'testittuesday help us spread fire safety to your friendswith our monthly smoke alarm giveaway '
p219
aS'why'
p220
aS'please can you rt and tell followers to go to wwwaciorguk ref to dangerous inferior cables incl fire performance cable'
p221
aS'please can you rt and tell followers to go to wwwaciorguk ref to dangerous inferior cables incl fire performance cable'
p222
aS'it finishes at 7pm every night just after in the night garden and the bed time story'
p223
aS'hi now following please can u follow me bk x'
p224
aS'i need my ass crack waxing if ur free'
p225
aS'said if i asked nicely you could help increase my very small following pretty please sir'
p226
aS'hello as you can c i have very few followers im told you may be able to help'
p227
aS'would really like to pass 50 followers today any help greatly appreciated'
p228
aS'not sure whats its like down there but mainly overcast in stoneage country'
p229
aS'hi lorraine i have been a massive fan of yours for more than 20 years you come across as kind honest  genuine thankssbx'
p230
aS'morning world is it friday yet '
p231
asS'2011_37'
p232
(lp233
S'the worst toy story costumes ever '
p234
asS'2011_36'
p235
(lp236
S'who is the actor that helen wood had sex with'
p237
asS'2011_33'
p238
(lp239
S'um let me think nope'
p240
aS'lucky  i only have 37 as of 2 minutes ago be nice to reach treble figures'
p241
aS'done'
p242
aS'taking into account that i have more fingers than followers on twitter any chance of an rt requesting peeps to follow me sb'
p243
aS'salt water  cibo mato have u heard it qaulity'
p244
aS'can you all please follow aka the wife tx'
p245
aS'can you all please follow aka the wife tx'
p246
aS'hope you and yours are well peter any chance of a rt or message for my wife michelle tx'
p247
aS'your a legend tx'
p248
aS'any possibility of an rt not had the best week and would defo help cheer me up sb'
p249
aS'is gutted that for all my efforts i only have 34 followers help needed '
p250
aS'discraceful have you not seen the weather today merry friday by the way'
p251
aS'you must be talking to me so thanks so true by the way'
p252
aS'hmmm walcot wilshere gibbs rosicky nasri arshavin all top qaulity in my eyes'
p253
aS'i would desperately like to run an idea past you via email would you please follow me to allow me to get in touch'
p254
aS'1st tweet of the day really need to get my act together'
p255
aS'with my finger'
p256
aS'morning gareth i mean christiano i mean daniel son shall i go on'
p257
aS'first class marketing idea what you think'
p258
aS'i have an inspiring business idea jamie please follow me so i can email it across thanks'
p259
aS'strip me'
p260
aS'who do you know who knows who you need to know family and friends have so much more value then most of us realise'
p261
aS'who do you know who knows who you need to know'
p262
aS'now then'
p263
aS'my wife said to tell you to eat a tin of peck not sure what that means'
p264
aS'costa fortune quintins brother'
p265
aS'how'
p266
aS'2 hours into my working day and counting coffee anyone yes please'
p267
asS'2011_32'
p268
(lp269
S'watching ironman eating shreddies and chilling with the wife good times'
p270
aS'sunday such an unmotivated day'
p271
aS'123581321345589144'
p272
aS'apple crumble and ice cream yes please'
p273
aS'kindergarten cop a classic'
p274
aS'watching home alone forgot how cool this film is '
p275
asS'2011_38'
p276
(lp277
S'chalk n cheese'
p278
asS'2012_39'
p279
(lp280
S'any feedback suggestions reccomendations or help would be very much appreciated'
p281
aS'this could cover a variety on industries such as electrical contractors amp engineers industrial companies facilities management governm\xe2\x80\xa6'
p282
aS'is looking to speak with anyone who has a requirement for any of the following products lighting lamps cables wiring accessories domes\xe2\x80\xa6'
p283
aS'want to reduce your utilities bills why not drop me an email'
p284
aS'looking to save money on your energy bills why not drop me an email'
p285
as.