(dp0
S'2013_40'
p1
(lp2
S'girls arent going to talk to you first\xe2\x80\xa6'
p3
aS'your relationship with god is more important than anything because you know for sure that\xe2\x80\x99s a relationship that will la\xe2\x80\xa6'
p4
aS'you used to make me feel beautiful'
p5
aS'im so tired of 1 fake friends 2 drama 3 liars 4 being ignored 5 getting hurt'
p6
aS'do you ever just want to go outside in the middle of the night and walk around and not actually do anything just observe \xe2\x80\xa6'
p7
aS'i wonder if youre scared to lose me'
p8
aS'feeling betrayed by everyone'
p9
aS'take notes boys \xf0\x9f\x99\x8c love this \xe2\x9d\xa4'
p10
aS'i feel so alone'
p11
aS'did you forget about me cause im still waiting for you'
p12
aS'when a girl cries its not usually over one thing its built up anger and emotions that shes been holding in for too long\xe2\x80\xa6'
p13
aS'i dont need a perfect one i just need someone who can make me the only one'
p14
aS'love you god \xf0\x9f\x98\x8a'
p15
aS'every relationship has its problems but what makes it perfect is if you still want to be together when things go wrong'
p16
aS'a pure and lasting relationship has fights has trust has faith has tears has hurt has laughter and has stupid unnec\xe2\x80\xa6'
p17
aS'i can go from happiest girl ever to emotional wreck in about 25 seconds'
p18
aS'i dont feel the love \xf0\x9f\x98\x94'
p19
asS'2013_46'
p20
(lp21
S'youll never understand'
p22
aS'current mood'
p23
aS'if we date i got you \xf0\x9f\x98\x8c'
p24
aS'when he makes you smile in the middle of kissing'
p25
aS'what do you do when there no hope left'
p26
asS'2013_47'
p27
(lp28
S'i honestly thought she was going to die if that happened i dont know what i would do shes everything to me'
p29
aS'i can never stay happy'
p30
aS'if you forgive peoples mistakes your heavenly father will forgive yours  matthew 614 please retweet'
p31
aS'neck kisses are my weakness'
p32
aS'cheating is a choice not a mistake'
p33
aS'dying to know afraid to find out'
p34
aS'god doesnt have twitter but i follow him'
p35
aS'i really hope my grandma is okay'
p36
aS'went through the whole school day crying great gotta love life'
p37
aS'the sweetest things you can do for a girl are the little things that let her know shes in your heart and on your mind\xe2\x80\xa6'
p38
aS'shit happens when you trust the wrong people'
p39
aS'a relationship with god is one of the most important relationships you can have'
p40
asS'2013_44'
p41
(lp42
S'no girl wants to hear about your other girls'
p43
aS'retweet if you love your mom'
p44
aS'happiness is when we realize how blessed we are for what we have'
p45
aS'i need to stop thinking about you because i know youre not thinking about me\xe2\x80\x9d basically'
p46
aS'seeing a guy play with little kids is the most attractive thing ever'
p47
aS'when youre alone do you think of me'
p48
aS'never ignore a person who loves you cares for you and misses you'
p49
aS'i will always love you'
p50
aS'i still fucking love you'
p51
asS'2013_48'
p52
(lp53
S'can someone come over and stay with me'
p54
aS'old couples make you realize someone can love you forever'
p55
aS'im sorry for caring'
p56
aS'while in love you typically become jealous anger easily over small things and often worry about losing about that in\xe2\x80\xa6'
p57
aS'feels good to be in my own bed and not in a hospital bed'
p58
aS'no matter what one believes we all have something to learn from one another some small or vast amount of wisdom can be g\xe2\x80\xa6'
p59
asS'2013_7'
p60
(lp61
S'reasonstolove someone who sticks by your side since the start through thick and thin'
p62
aS'love shouldnt hurt'
p63
aS'reasonstolove to be with someone who truly loves you back'
p64
aS'everyone is beautiful inside and out but some people just choose not to show it'
p65
aS'waystomakememad liking other girls pictures while in a relationship unfaithful'
p66
aS'waystomakememad talking touching or flirting with my boyfriend no thats ways to die'
p67
aS'people who are really in love tend to get jealous over stupid things'
p68
aS'being faithful to your boyfriend or girlfriend should be common sense'
p69
aS'dont just say it do it'
p70
aS'as long as you keep god in your heartyou can go through whatever life may throw your way'
p71
aS'dont make fun of people especially with their insecurities'
p72
aS'some people make it so hard to hate them others make it so hard to love them'
p73
aS'love is never true or false love is love'
p74
aS'never swear at your girlfriend even if youre mad at her'
p75
aS'it should never be a lovehate relationship never'
p76
aS'love isnt like in the movies wake up to reality already'
p77
aS'love is good not bad'
p78
aS'goodmorning beautiful ladies '
p79
aS'love was in the air'
p80
aS'i wish i could be with you right now'
p81
aS'love doesnt just last you have to make it last'
p82
aS'love doesnt need to be perfect it just needs to be true'
p83
aS'dont let anyone bring you down'
p84
asS'2013_37'
p85
(lp86
S'loving someone is never easy'
p87
aS'the way i feel about you ive never felt with anyone else'
p88
aS'my eyes are burning'
p89
aS'if you wanna know what love really is get to know god'
p90
aS'hes mine and only mine so just stop \xe2\x9c\x8b'
p91
aS'your smile is literally the cutest thing i have ever seen in my life'
p92
aS'i hope im the only girl'
p93
aS'we will last always amp forever \xf0\x9f\x92\x9c\xf0\x9f\x92\x99'
p94
aS'every minute im not with you i hope ill see you soon'
p95
aS'sometimes you just need to put the past away and move on with your life'
p96
aS'i want to be the person youre scared to lose'
p97
aS'i feel so sick'
p98
aS'i love you'
p99
aS'pissed'
p100
aS'i miss my babe'
p101
aS'nationaltellagirlsheisbeautifulday make sure you tell her'
p102
aS'can we just fuck '
p103
asS'2013_36'
p104
(lp105
S'happy 11 month babe i love you so much \xf0\x9f\x98\x98\xf0\x9f\x98\x98\xf0\x9f\x98\x98\xf0\x9f\x98\x98\xf0\x9f\x98\x98\xf0\x9f\x98\x98\xf0\x9f\x98\x98'
p106
aS'i only love him '
p107
asS'2013_33'
p108
(lp109
S'im in love with someone'
p110
aS'when you fall for someones personality everything about them becomes beautiful'
p111
aS'confession im diagnosed with depression ednos self harm and suicidal thoughts'
p112
aS'the lesser you care the happier youll be'
p113
aS'if i tell you how i dont like someone i expect you to respect that and ignore them'
p114
asS'2013_39'
p115
(lp116
S'if two people are meant to be together they will eventually find their way back into each others arms no matter what'
p117
aS'i have a feeling youre gonna leave me'
p118
aS'never fall in love there is just too much to lose'
p119
asS'2013_38'
p120
(lp121
S'fear of being used'
p122
aS'love fucking hurts'
p123
aS'i have a secret i love you '
p124
as.