(dp0
S'2013_42'
p1
(lp2
S'today stats no new followers one unfollower via'
p3
aS'today stats no new followers one unfollower and followed 2 people via'
p4
aS'i dont need to be the most prettiest girl ever cause for me i have my own beauty that build someones insecurity '
p5
asS'2013_43'
p6
(lp7
S'today stats 10 followers 5 unfollowers and followed 9 people via'
p8
aS'if i could look into your eyes i would feel in paradise'
p9
aS'together forever and never apart maybe by distance but never by heart'
p10
aS'love me always love me ever and i hope you will forget me never'
p11
aS'your love has made me wealthy beyond my dreams\xe2\x99\xa5 \xe2\x99\xa5'
p12
aS'he texted me again'
p13
aS'complete na akung night  feelingloved\xe2\x99\xa5'
p14
aS'the one who loves more hurts more  hi '
p15
aS'today stats 29 followers 12 unfollowers via'
p16
aS'today stats 50 followers no unfollowers and followed 62 people via'
p17
aS'today stats no new followers one unfollower via'
p18
aS'today stats no new followers one unfollower via'
p19
aS'today stats one follower no unfollowers via'
p20
asS'2013_40'
p21
(lp22
S'today stats 2 followers no unfollowers via'
p23
aS'today stats 4 followers no unfollowers and followed 23 people via'
p24
asS'2013_41'
p25
(lp26
S'today stats one follower no unfollowers via'
p27
aS'today stats no new followers one unfollower via'
p28
aS'today stats one follower no unfollowers via'
p29
asS'2013_46'
p30
(lp31
S'today stats one follower no unfollowers via'
p32
aS'today stats one follower no unfollowers via'
p33
aS'today stats no new followers one unfollower via'
p34
aS'today stats 3 followers 2 unfollowers via'
p35
aS'today stats 4 followers one unfollower and followed 3 people via'
p36
asS'2013_47'
p37
(lp38
S'today stats no new followers one unfollower via'
p39
aS'today stats 2 followers no unfollowers via'
p40
aS'today stats no new followers 2 unfollowers via'
p41
aS'today stats one follower no unfollowers via'
p42
aS'today stats no new followers one unfollower via'
p43
asS'2013_44'
p44
(lp45
S'today stats one follower one unfollower via'
p46
aS'today stats 3 followers one unfollower via'
p47
aS'today stats 9 followers 4 unfollowers and followed one person via'
p48
aS'today stats 7 followers 6 unfollowers and followed 25 people via'
p49
aS'today stats 61 followers 10 unfollowers and followed 163 people via'
p50
aS'i am titanium '
p51
aS'hello  im with kuya carl again i fell safe with him\xe2\x99\xa5 just dont mind my ugly face hahahahaha'
p52
aS'hi  im with yesterday having a pictorial with them'
p53
aS'behind every beautiful girl theres a dumb ass boy whove done wrong and made her strong'
p54
aS'when life goes wrong do sisters make the best friend '
p55
aS'i am now with my pink shirt and grey skirt cold 3 hahahahaha'
p56
aS'psssst'
p57
aS'i lost 10 followers recently and i know who they are thanks to'
p58
asS'2013_45'
p59
(lp60
S'today stats no new followers one unfollower via'
p61
aS'today stats one follower one unfollower and followed 3 people via'
p62
aS'today stats no new followers 3 unfollowers via'
p63
aS'today stats 2 followers 5 unfollowers and followed one person via'
p64
aS'today stats 2 followers one unfollower via'
p65
aS'today stats no new followers 4 unfollowers via'
p66
asS'2012_47'
p67
(lp68
S'hahaha dd out nako  may pasok pakase bukas exam na  sana pasar ako  nyahaha d goodnight guys lt3 sweetmoosh '
p69
aS'a friend is someone who can see the truth and pain in you even when you are fooling everyone else'
p70
aS'hahiizt  boriiing ng walang load gtlt  walang makaka txt '
p71
asS'2013_16'
p72
(lp73
S'baliw na daw siya sakin d hahahaha hiscrazy'
p74
aS'baliw na daw siya sakin d hahahaha hiscrazy'
p75
aS'justins first interview  kidrauhlmemories'
p76
aS'good night din gt'
p77
aS'expire na load ko d hahaha twitter nanaman good evening '
p78
aS'supeeeeeeeeeer handsome '
p79
aS'done watching bof \xe2\x99\xa5 leemiho kimhyunjoong kimbum kimjun'
p80
aS'siguro jay d hahaha'
p81
aS'happiness is always a matter of choice if you want to feel it then choose the one that will perfectly define it good afternoon \xe2\x99\xa5'
p82
aS'someday ill marry the right person with the right reason and with gods permission'
p83
aS'its hard to see people change specially when you miss the way they treat you lageh pero nag bago na siya lt'
p84
aS'you can forget me any time you want but you cannot find another me for the rest of youre life \xe2\x99\xa5'
p85
aS'i can do these '
p86
aS'hai '
p87
aS'online again d'
p88
asS'2013_25'
p89
(lp90
S'tired from school '
p91
asS'2013_27'
p92
(lp93
S'favorite number nako ang 99 '
p94
aS'micaaaaaaaaaah '
p95
asS'2013_20'
p96
(lp97
S'today stats one new follower and 3 new unfollowers via'
p98
aS'create beautiful online slideshows instantly  my latest awesome slidely video via'
p99
aS'2 people followed me and 2 people unfollowed me  automatically checked by'
p100
aS'hot afternoon everyone'
p101
aS'2 people unfollowed me  automatically checked by'
p102
asS'2013_21'
p103
(lp104
S'hehe  good evening friends '
p105
aS'twitter status via'
p106
aS'ikaw ba  ngano man jud ingana man ka  will you please get out of my mind '
p107
aS'today stats one new unfollower via'
p108
aS'today stats one new unfollower via'
p109
aS'one person unfollowed me  automatically checked by'
p110
asS'2013_22'
p111
(lp112
S'sunny morning  crusaders'
p113
aS'girls just wanna have fun '
p114
asS'2013_28'
p115
(lp116
S'feeling hungry lt'
p117
aS'i love you twitter lt3'
p118
asS'2013_29'
p119
(lp120
S'out '
p121
aS'good night regards nalang ko niya'
p122
aS'hahaha i forgot kabalo nako kung asa nila gi kuha akung name d rrrrr coldpleasecomejustforme'
p123
aS'palabi nako good night  sweetmosh  loveuallots\xe2\x99\xa5 fharleeeeeeeeeeeene'
p124
aS'okay  matulog nalage kay murag ako nalang jud isa ang mata pa'
p125
aS'murag sleepy naman ko pero dili pako katulogon  anu ba talaga ako nalang isa mata'
p126
aS'booooooooooored'
p127
aS'wala magawa eeh  kung naa bitaw siya or kung nakita bitaw nako siya siguro dili ko mag online now'
p128
aS'lol eksssssssssdixd'
p129
aS'feeling bitaw nako kay murag feel lang jud nga feeling nako na feel jud nako siya nga kana bitawng feeling nga murag ambot '
p130
aS'12 na ang bilis haaaaaaah class pa tomorrow eeeehm plabi na'
p131
aS'follow ko beeeee  naabsan na nila ang ako nga years ago na'
p132
aS'varsity23 weeeh no way pp mr korean parin d'
p133
aS'pero atik dd'
p134
aS'dear 23 kabalo ka wala ko nahadlok kung makita nimo ni nga tweet nako cause you know what baga biya ko ug faaaaace di klaro haha'
p135
aS'high school life is enjoy sometimes were crazy but we love each other\xe2\x99\xa5'
p136
aS'mr korean\xe2\x99\xa5'
p137
aS'mr koreanlt3 feelinglovey'
p138
aS'goodafternoon  feelinggreat'
p139
asS'2012_48'
p140
(lp141
S'hello december  goodbye november d'
p142
asS'2013_1'
p143
(lp144
S'good morning  have a blessed sunday '
p145
aS'ganda ng bagong hair ni vice'
p146
aS'happy new year everyone  wish you all success for this year'
p147
asS'2012_29'
p148
(lp149
S''
p150
aS'a thank you note to my friends via'
p151
aS'yessssss naka uwe narin galing school'
p152
aS'urrrggggg '
p153
aS'hahahahhaaa dd'
p154
aS'a day spent with friends is always aday well spent'
p155
asS'2013_17'
p156
(lp157
S'sorry  we did it again we took it up a level'
p158
aS'helloooo'
p159
asS'2012_46'
p160
(lp161
S'i love being single lt3'
p162
aS'complete  sound trip yow '
p163
aS'mario maurer lt3  lt3 plsss dd'
p164
aS'hellow gab  gt'
p165
aS'yes '
p166
asS'2012_52'
p167
(lp168
S'good morning everybody '
p169
asS'2013_37'
p170
(lp171
S'today stats no new followers 2 unfollowers via'
p172
aS'today stats 7 followers one unfollower and followed 5 people via'
p173
aS'today stats no new followers one unfollower via'
p174
aS'pssst'
p175
asS'2013_36'
p176
(lp177
S'today stats no new followers one unfollower and followed one person via'
p178
aS'today stats 5 followers 2 unfollowers via'
p179
aS'today stats 10 followers no unfollowers and followed 2 people via'
p180
aS'omy i cant imagine mag 14 nako this coming sept 17 excited my birth day is approaching'
p181
aS'today stats one follower no unfollowers and followed one person via'
p182
aS'i am awesome cause no one unfollowed me today and i know that thanks to'
p183
aS'his not online  boring'
p184
aS'choi kang chi\xe2\x99\xa5 hes so awesome idol'
p185
aS'grrrrrr gtlt kainis'
p186
aS'i hate him '
p187
aS'why i cant explain my feelings headache'
p188
aS'no phone  bored'
p189
aS'exhausted'
p190
aS'abseeeeeeeeeent maka bad trip nag day puteeeek '
p191
asS'2013_35'
p192
(lp193
S'i hate when some people look at my phone while im typing its not that i have something to hide its just non of your damn business'
p194
aS'my pillow is my best stylist cuz everytime i wake up in the morning i come up with different hair style goog morning '
p195
aS'i dont need the word i love you all i need is the act of making me feel that your love is totally true fharleneearika '
p196
aS'it is never too late to learn but most of the time we learn when its too late bitaw'
p197
aS'karon pako naka balo real story man diay to ang the impossible d'
p198
aS'hihello  good afternoon  keep safe and smile '
p199
aS'everybody knows how to love but only few people know how to stay inlove with one person for a very long period of time\xe2\x99\xa5  yes to this d'
p200
aS'its hurt when you already learned to be part of someones life and end up of being strangers'
p201
aS'forget the things that made you cry and focus on the present that completes your smile '
p202
aS'i dont need someone to complete me i only need someone to accept me completely'
p203
aS'hello '
p204
aS'boring'
p205
aS'hello  im back wanna rock '
p206
asS'2013_34'
p207
(lp208
S'gotta rest  tired'
p209
aS'lol xd'
p210
aS'hello guys  hahaha'
p211
aS'when i miss you i just read your old messages and smile like an idiot d'
p212
aS'i dont need to be insecure with the quality of others because i have the quality that makes my own personality stand out among the rest'
p213
aS'twinkle twinkle your my star how on earth you got that charm dd feelinggreat'
p214
aS'being inspired with someone is the simplest and best reason why i find my self secretly smiling  fharleneearika'
p215
aS'hello '
p216
asS'2013_33'
p217
(lp218
S'hello '
p219
aS'smile\xe2\x99\xa5 kpop maroon5 koreandramas photography japaneseanime and koreanmovies via'
p220
aS'bloods makes great mouth wash whitedress loveit\xe2\x99\xa5'
p221
aS'sleepy heads tired'
p222
asS'2013_32'
p223
(lp224
S'out  tomorrow is another day varsity'
p225
aS'thank you for following just enjoy my tweets and ty again hahaha'
p226
asS'2013_31'
p227
(lp228
S'good evening this is me right and my best friend fharlene left'
p229
aS'jodin masiba dont try me girl  you dont know me'
p230
aS'gafternoon'
p231
aS'abseeeeeeent hahaha feelingblessed'
p232
asS'2013_30'
p233
(lp234
S'is it possible to reach someone whos also reaching another someone '
p235
aS'simplicity is beauty but being crazy can make you more beautiful i can express my self easily because i\xe2\x80\x99m crazy'
p236
aS'need someone to talk to or share what you feel pm me '
p237
aS'dear god today i woke up i am alive i am healthy i could not ask for more thank you'
p238
asS'2013_19'
p239
(lp240
S'good morning  happy mothers day '
p241
aS'rainy afternooooooooon '
p242
aS'ouch lt'
p243
aS'yung feeling na naiinis kana kasi ayaw mopa kumain pero pinipilit ka parin gtlt ggrrrr'
p244
aS'yung kasabay mo si crush sa swing gt omg  '
p245
aS'11 pm'
p246
aS'yung feeling na kalaro mo si crush ng basket ball ng kayong dalawa lang dd omg  na remember nako siya hahaha'
p247
aS'good morning  '
p248
aS'that moment when you throw something at your friend but it hits someone else awkward moment 3'
p249
aS'seriously adorable by via'
p250
aS'today stats one new unfollower via'
p251
aS'today stats 4 new followers and 2 new unfollowers via'
p252
aS'that amazing feelings when your crush text you first gt omg  supeeeeeerkilig'
p253
aS'done  '
p254
aS'hahaha peace '
p255
aS'hello '
p256
aS'omy'
p257
aS'cute \xe2\x99\xa5  \xe2\x99\xa5'
p258
asS'2013_18'
p259
(lp260
S'i follow 64 awesome people on twitter via'
p261
aS'i just found out all people i follow that are inactive on twitter via'
p262
aS'i am subscribed to 1 amazing lists via'
p263
aS'i just found out all my fake followings via'
p264
aS'he didnt follow me back lt'
p265
aS'there are only 24 people who dont follow me back on twitter via'
p266
aS'38 of people i follow dont followback via'
p267
aS'i have started using to let me know who unfollowed me on twitter'
p268
aS'sweethearts confirmed na magoonline si mamaya d hahahahah excited na ba kayo '
p269
aS'good evening friends  '
p270
aS'im not ok'
p271
aS'justin bieber or zayn malik the world may never know'
p272
aS'good afternoon  '
p273
aS'hey guys  just at the studio today with the boys tracking some vocals for new tracks d x'
p274
aS'trying to forget someone you love is like trying to remember someone you never met'
p275
aS'feeler '
p276
aS'ang cheap mo  '
p277
aS'im home d'
p278
aS'tingnan ang instagram sa google play'
p279
aS'dud evening \xe2\x99\xa5\xe2\x80\xbf\xe2\x99\xa5'
p280
asS'2013_39'
p281
(lp282
S'today stats no new followers one unfollower via'
p283
aS'today stats one follower no unfollowers via'
p284
aS'today stats one follower no unfollowers via'
p285
asS'2013_38'
p286
(lp287
S'today stats one follower one unfollower and followed one person via'
p288
aS'simply me\xe2\x99\xa5 follow me amp ill follow you back for sure '
p289
aS'today stats no new followers one unfollower via'
p290
aS'hello  im back i miss you twitter'
p291
asS'2013_13'
p292
(lp293
S'nag crycry daw ko ingon niya  huhuhuhu'
p294
aS'sarap titigan ni crush d'
p295
aS'mr handsome d'
p296
aS'now watching juan de la cruz'
p297
aS'guapo kay ba  p hahahaha walay iya p mas guapo pana kay abdul noh p'
p298
aS'yahay kay ka p'
p299
aS'idol \xe2\x99\xa5 parkshinhye kangminhyuk kimhyunjoong goohyesun kimbum and leeminho via'
p300
aS'sleepy head  good night people'
p301
aS'hey problem  i have a big god'
p302
aS'word power'
p303
aS'im waiting for the day when we will together forever \xe2\x99\xa5'
p304
aS'true friends do not judge each other they judge other people together d hahaha'
p305
aS'i can fake a smile when i feel horrible  i can pretend to be happy i can do a lot but what i cant do is pretend that i dont love you'
p306
aS'ang ganda ng laro ng azkals d'
p307
aS'i fell inlove with my best friend lt3'
p308
aS'gab '
p309
asS'2013_15'
p310
(lp311
S'hahaay summer walang allowance '
p312
aS'guapo gt'
p313
aS'hahahaha dapt lang maligo ka d'
p314
aS'gi gutom ko d so i will eat junk foods nalang'
p315
aS'piatos w water gt tahahaha lt3'
p316
aS'hahaha ana jud na p'
p317
aS'i miss letter v lt3'
p318
aS'hot rakayo ang summeeeeeeeeeeer tahahahaha '
p319
aS'yung namimiss mo na yung mga times na lagi ka nyang pinapasaya lt3'
p320
aS'i love those people who hate me '
p321
aS'okay si debbie gt eeyt okay rana jay maka recover raka d tehehehe'
p322
aS'hahahaha isaba ud nako '
p323
aS'eeyt tehehehe i know here gt'
p324
aS'i wish i could spend my time talking to you instead of just thinking of you'
p325
aS'crush dalawa lang naman ang bisyo ko eh paglalasing at pagsusugal ang malasing sa pagmamahal mo at isugal ang lahat pa '
p326
aS'maka bad triiiiiiiiip gtlt'
p327
aS'wala lang hahaha'
p328
aS'hai jay gt'
p329
aS'exooooooooooooiteeeed d tehehehe'
p330
aS'late morning gt'
p331
aS'done na jay'
p332
aS'paki follow pleassssssssssssss'
p333
aS'awp hahahah okay'
p334
aS'online again gt'
p335
aS'samaaaaaan  p'
p336
aS'facebooooooooooooooooooooooooooooooook '
p337
aS'out muaah '
p338
aS'rooftopprince bof heartstrings seruis crazylittlething \xe2\x99\xa5\xe2\x99\xa5'
p339
aS'gosh i saw him '
p340
aS'kiphalik '
p341
aS'cnblue lt3'
p342
ag150
aS'twitter vingle tumblr facebook photobucket youtube pizzap d hahaha'
p343
aS'girlonfire oo'
p344
aS'loading kanaman ng loading tapos walang nangyare gtlt ansaveh  '
p345
aS'\xc2\xacbored ness'
p346
aS'84text 47misscalls  wagas te'
p347
aS'daming nag ttext wala po akung load ngayon gtlt'
p348
aS'tehehehe  walang magawa sa buhay'
p349
aS'ako si naruto cause i love you x2x2x2 xd'
p350
aS'wag assuming'
p351
aS'log out na sa fb and d twitter napud'
p352
aS'it sooooooooooooooooooo hot'
p353
aS'grrrrrrrrr sakit my head gtlt'
p354
aS'gabie napud'
p355
aS'it always depends on a man shows consistent love that makes a women stay saaaaaaaaaaaaam \xe2\x99\xa5'
p356
aS'now watching naruto with ma bro '
p357
aS'mymiddlefingerrisesuptosalluteyou d'
p358
ag150
asS'2013_14'
p359
(lp360
S'na realize nako kapoy man diay mag biyahe noh  d hahaha good evening'
p361
as.