(dp0
S'2013_26'
p1
(lp2
S'i wish youd and '
p3
aS'hi how are you can you please follow me and thank you so much it really means a lot '
p4
aS'hey guys whats up can you please follow and thank you so much we love you 10'
p5
aS'hey guys whats up can you please follow and thank you so much we love you 9'
p6
aS'hey guys whats up can you please follow and thank you so much we love you 8'
p7
aS'hey guys whats up can you please follow and thank you so much we love you 7'
p8
aS'hey guys whats up can you please follow and thank you so much we love you 6'
p9
aS'hey guys whats up can you please follow and thank you so much we love you 5'
p10
aS'hey guys whats up can you please follow and thank you so much we love you 4'
p11
aS'hey guys whats up can you please follow and thank you so much we love you 3'
p12
aS'hey guys whats up can you please follow and thank you so much we love you 2'
p13
aS'hey guys whats up can you please follow and thank you so much we love you p'
p14
aS'hey guys whats up can you please follow and thank you so much we love you 1'
p15
aS'hey guys whats up can you please follow and thank you so much we love you'
p16
aS'hey harry whats up i loved the trailer would you please follow me thank you so much we love you 16'
p17
aS'hey harry whats up i loved the trailer would you please follow me thank you so much we love you 15'
p18
aS'hey harry whats up i loved the trailer would you please follow me thank you so much we love you 14'
p19
aS'hey harry whats up i loved the trailer would you please follow me thank you so much we love you 13'
p20
aS'hey harry whats up i loved the trailer would you please follow me thank you so much we love you 12'
p21
aS'hey harry whats up i loved the trailer would you please follow me thank you so much we love you 11'
p22
aS'hey harry whats up i loved the trailer would you please follow me thank you so much we love you 10'
p23
aS'hey harry whats up i loved the trailer would you please follow me thank you so much we love you 9'
p24
aS'hey harry whats up i loved the trailer would you please follow me thank you so much we love you 8'
p25
aS'hey harry whats up i loved the trailer would you please follow me thank you so much we love you 7'
p26
aS'hey harry whats up i loved the trailer would you please follow me thank you so much we love you 6'
p27
aS'hey harry whats up i loved the trailer would you please follow me thank you so much we love you 5'
p28
aS'hey harry whats up i loved the trailer would you please follow me thank you so much we love you 4'
p29
aS'hey harry whats up i loved the trailer would you please follow me thank you so much we love you 3'
p30
aS'hey harry whats up i loved the trailer would you please follow me thank you so much we love you 2'
p31
aS'hey harry whats up i loved the trailer would you please follow me thank you so much we love you 1'
p32
aS'hey harry i loved the trailer would you please follow and thank you so much we love you '
p33
as.