(dp0
S'2013_43'
p1
(lp2
S'we have to make sure we pitch around pujols thats all they got billybandwagon'
p3
asS'2013_40'
p4
(lp5
S'philip rivers playing catch with his son after the game superdad dalvssd'
p6
asS'2013_41'
p7
(lp8
S'that front end is beautiful'
p9
asS'2013_46'
p10
(lp11
S'and duuuude youre a dummy duuuude haha'
p12
aS'my bad this is what i meant to send brothers'
p13
aS'check this out brothers'
p14
asS'2013_47'
p15
(lp16
S'he was robbed boxing judges are judging mma that the problem their judging criteria is not suitable for mma'
p17
asS'2013_44'
p18
(lp19
S'as weird as you think it was you made us all lose our shitthank you for the podcast it has changed my life and the ppl around me'
p20
aS'you killed it brotha thank you for not canceling it takes integrity to come out when you couldve easily canceled'
p21
aS'are you bringing some to the ice house tonight'
p22
aS'enjoyed you guys red rocks and chula vista so much we are seeing you in bakersfield please sing free much love'
p23
asS'2013_45'
p24
(lp25
S'wheres the disrupt and disturb play calling pagano promised'
p26
aS'this guy jake is a classy dude'
p27
asS'2012_44'
p28
(lp29
S'thanks for the great depth at a position we once valued aj smith'
p30
aS'hurricane sandy could displace nyc rats  pct media group  pest control technology'
p31
aS'hurricane sandy could displace nyc rats  pct media group  pest control technology'
p32
asS'2013_24'
p33
(lp34
S'great news for us that means he will never wear the silver and black'
p35
asS'2013_27'
p36
(lp37
S'billy boy you killed it last night love your stand up and the podcast'
p38
asS'2013_22'
p39
(lp40
S'retweet this if you peaked in little league like i did'
p41
asS'2013_5'
p42
(lp43
S'2 beautiful and smart human beings powerful'
p44
asS'2013_1'
p45
(lp46
S'it was a joke to see you get ejected it has been an honor seeing you play for the bolts hope you strap the pads on again'
p47
asS'2013_3'
p48
(lp49
S'you fools are slippin'
p50
aS'love what the bolts did they are taking bold chances on highly respected personnel in the nfl much love and go bolts'
p51
asS'2013_2'
p52
(lp53
S'the broncos got two starting white wide receivers somebody call al sharpton '
p54
aS''
p55
aS'pest control conference coming to phoenix in 2013'
p56
asS'2012_9'
p57
(lp58
S'kris dielman legend who played football the way it was meant to be played he was one cont '
p59
asS'2012_5'
p60
(lp61
S'will doing any type of cardio affect my muscle gains drastically during the slow carb diet'
p62
asS'2013_17'
p63
(lp64
S'doing a little research found out the worlds worst weed is nut grass go figure poweful'
p65
asS'2012_11'
p66
(lp67
S'please give aj smith a call the bolts will need your skills now more than ever'
p68
asS'2012_52'
p69
(lp70
S'check out this beautiful documentary on bouncers thanks'
p71
asS'2012_50'
p72
(lp73
S'they have done it again margie phelps and her clan plan to picket the funeral of the victims in ct'
p74
aS'oh crap largest ice breakup ever filmed'
p75
asS'2012_51'
p76
(lp77
S'if today is our last day before the world ends im getting laid all day then eating cake then lighting shit on fire'
p78
aS'you fellas wanna start a book club'
p79
asS'2013_11'
p80
(lp81
S'when are you going to post that picture of you with your parents'
p82
asS'2013_36'
p83
(lp84
S'dang it looks clean im taking off the other badges too'
p85
aS'you like came out a little small going bigger tomorrow'
p86
asS'2013_34'
p87
(lp88
S'this is going to be interesting'
p89
aS'247 surveillance he asked my chick to delete the picture germanshepherd'
p90
aS'love the honesty you have with your guests just like the podcasts deathsquad'
p91
aS'isnt it more enjoyable that way'
p92
aS'fmic autotech internals sri dp cobb ap and soon a cnt fuel pump do you work on the car on your own'
p93
aS'any mods'
p94
aS'you have to change it up to many evos and stis out there'
p95
asS'2013_33'
p96
(lp97
S'thanks a lot man trying to do some more upgrades have you modified anything recently'
p98
aS'mazdaspeed mazdaspeed3'
p99
asS'2013_32'
p100
(lp101
S'the cap off just make sure you have the tools necessary to do it makes it the process a lot smoother'
p102
aS'a little more difficult than the videos the lock holding the spring to the shaft was not coming off took a while to taje'
p103
aS'just installed new auto tech internals'
p104
aS'i hear yah painted the badges too im working on something different to the wheel caps i will show you later'
p105
aS'what you think brotha'
p106
asS'2013_31'
p107
(lp108
S'im going to have to jock your style on those mud flaps'
p109
aS'the cobb ap is worth every penny i have kampn si dp and fmic the car is almost a totally different car'
p110
aS'whats up brotha i have an 08 speed3 wondering if you have tuned yours getting my cobb ap soon'
p111
asS'2013_19'
p112
(lp113
S'we will not be denied at all cost lock the gate we control the tempo we control the outcomeboltup'
p114
asS'2012_37'
p115
(lp116
S'i just saw a black guy with a mitt romney bumper sticker on his car the mayans were right this fucking thing is over'
p117
asS'2013_39'
p118
(lp119
S'i hope it crawls in the asspussy in the cunt behind her clapping and staring the poor little girl down'
p120
aS'my bad brotha fucking football cant take over your life too i swear ever mod i make i say its the last one'
p121
aS'are we going to be singing ludacris and throwing money off the roof freakparty'
p122
aS'aww sshit brotha if you need a pest control tech in your party let me know freakparty freakpower'
p123
aS'dont want to beat the drum here but what about king dunlap is harris taking snaps in practice'
p124
aS'hell yeah thats what its all about stay positive lets go bolts boltup'
p125
asS'2013_38'
p126
(lp127
S'they are a factory of sadness to quote the famous youtube video'
p128
aS'nah brotha i was hoping you did i want to make the mod but keel reading that you need a tune asap but i dont have the funds'
p129
aS'have you upgraded your boost control solenoid'
p130
aS'even funnier when they have someone else race their car for them'
p131
asS'2013_37'
p132
(lp133
S'ahhh yeah im in'
p134
as.