(dp0
S'2013_42'
p1
(lp2
S'whos already planned their halloween outfits yhhhhhhhhhhh'
p3
aS'that sounds great good luck and please keep me posted '
p4
aS'whos already planned their halloween outfits'
p5
aS'thank you too  when are you next performing x'
p6
aS'my minds tellin me nohhhtunage rkelly'
p7
aS'wifey is coming to see me next month wooo hotness'
p8
aS'yes i listened to your interview and your songs  im great how are you x'
p9
aS'party ha ha yes eli we will sort a date'
p10
aS'looking forward to it  thank you'
p11
aS'yes please we would love to have you back xx\xe2\x80\x9d id love to join you'
p12
aS'lots of love would love to come in soon xx'
p13
aS'thank you for playing because of you '
p14
aS'nowplaying because of you music on the way from amp will be in the stud\xe2\x80\xa6'
p15
aS'on air now 951 becauseofyou'
p16
aS'first plays tonight from amp bbcintroducing in mcr newmusic live at 8pm  951fm  dab '
p17
aS'tune in to manchester 951fm from 8pm tonight and hear red carpet '
p18
aS'ff'
p19
aS'tune in to bbc introducing manchester tonight and hear red carpet  951fm'
p20
aS'tune in to manchester 951fm tonight 810pm to listen to red carpet by yours truly '
p21
aS'you will appreciate this '
p22
aS'im not single anymore is mine now bowdownbitches\xe2\x80\x9d yes i am '
p23
aS'massive thank you \xe2\x9d\xa4\xef\xb8\x8f'
p24
aS'hi michelle could i please have your email address thanks eli'
p25
aS'gooood morning have a great day whatever you do '
p26
asS'2013_43'
p27
(lp28
S'cant believe br ba is over nooooooo epic finale'
p29
aS'finders keepers '
p30
aS'last night was one wicked night \xf0\x9f\x91\xaf\xf0\x9f\x91\x8a\xf0\x9f\x99\x85\xf0\x9f\x8e\x89\xf0\x9f\x8e\xb6'
p31
aS'where can i get one of your chairs '
p32
aS'i love it when clients send pictures of my chairs in there new homes'
p33
aS'funny when you look back and realise how many things have changed in such a short time'
p34
aS'haha true i think its an excuse to take on a different persona for the day personally i scared myself with my own costume'
p35
aS'well its safe to say i wasnt allergic to the face paint from last night thank goodness that would not have been a good look phew'
p36
aS'nightmare on one central street with halloween xx spooky'
p37
aS'sassymcd halloween'
p38
aS'had a wonderful time singing at the mbc awards such a lovely reception from the audience thankyou'
p39
aS'woo hoooooo xx'
p40
aS'rise amp shine baby girl i have my outfit halloween lets do this xxx'
p41
aS'manchester tonight w for the party yeah buddy'
p42
aS'very excited to be here mbc awards sound check done awesome times'
p43
aS'busy day today up and at it '
p44
aS'hype'
p45
aS'breakfast catch up on tv get up get out dress up turn up tonight my friends we party'
p46
aS'happy saturday from my little diy helper'
p47
aS'we have live entertainment on the evening with full bands'
p48
aS'in session chat about their debut release 1st plays amp'
p49
aS'hahaha jenny this is the best comment everrrrrrr uchhh a fiii xx'
p50
aS'uchhh a fiiii move that mofo immediately loool x'
p51
aS'the bus journey it is not about having someones sweaty gym crotch in your face gross'
p52
aS'man the faces ande pulls when playing live are amusing this beauty is from last nights show'
p53
aS'mediabusinessampcommunity awards 2013 coming to you tomorrow saturday 26th oct manchester\xe2\x80\xa6'
p54
aS'oh youll be surprised about the wonders of british weather'
p55
aS'stooop being so hot'
p56
aS'cant wait to see your pretty face x'
p57
aS'beautiful day at the beach england seaside town taken by michael yeung'
p58
aS'thursday is the new friday'
p59
aS'very excited for the mbc awards this saturday nubiantimes'
p60
aS'yes indeed'
p61
aS'im realising its been over a year since puppet time to send you more heat'
p62
aS'sunrise is almost complete newmusic keys voice jazz classic'
p63
aS'at the studio sunrise is almost ready newmusic'
p64
aS' see you soon'
p65
aS'should be fun to play with tonight check her stuff ouuut'
p66
aS'thank god we can kinda giggle about it now i would have been terrified whats the kitchen situation now xx'
p67
aS'happy birthday old timer '
p68
aS'im not 30 you bunch of knobs \xf0\x9f\x98\x82\xf0\x9f\x98\x82\xf0\x9f\x98\x82\xf0\x9f\x98\x82 im gnna kill fusion amp g2 for this '
p69
aS'what im guessing that you must be ok since you had time to tweet  besafe xx'
p70
aS'chillin'
p71
aS'no scrubs every chicks anthem  that shit made me fix up'
p72
aS'the warm gemini spirit is good company'
p73
aS'lee smith is back boom'
p74
aS'j sky host with the most red carpet live showcase photographed by tobias pearson'
p75
aS'sasha pannu gorgeous j sky afro tom giving us the eyes red carpet live showcase photographed by tobias'
p76
aS'jade ellis red carpet live showcase photographed by tobias pearson'
p77
aS'red carpet live showcase photographed by tobias pearson'
p78
aS'the magnificent seven thank you so much to everyone who was involved red carpet live showcase photographed by'
p79
aS'michael keys red carpet live showcase photographed by tobias pearson'
p80
aS'all the boys musicians talent goodtimes red carpet live showcase photographed by tobias pearson'
p81
aS'jay faith applause red carpet live showcase photographed by tobias pearson'
p82
aS'red carpet live showcase photographed by tobias pearson'
p83
aS'red carpet live showcase photographed by tobias pearson'
p84
aS'hope you have a grrrreat day jules x'
p85
aS'top o the mornin to ya'
p86
aS'not going to lie i only know the chorus but in the shower i think i sing it better than you out of the sh\xe2\x80\xa6'
p87
aS'when shes not bouncing off the walls my little baby cat likes to sit and watch me do funny faces'
p88
aS'i actually believe you sing it aaron '
p89
aS'haha  are you singing along'
p90
aS'in the shower jamming on some  everything else there is mastercard eli crisps music\xe2\x80\xa6'
p91
aS'hahawell we certainly wouldnt want your life to be anything but complete jamie '
p92
aS'now i just need a duet from you two and my life is complete '
p93
aS'jade babygirl this is very cool red carpet is my baby and i love what you did with it slow jam fly girl'
p94
asS'2013_40'
p95
(lp96
S'african warrior goddess captured by tobias pearson so wonderfully at the bcc video shoot'
p97
aS'most definitely sam'
p98
aS'had a great gig with and and co on friday night i look forward to more in the future hopefully'
p99
aS'dave on bass started us off brilliantly love our intro song  epic'
p100
aS'thank you to all who came on friday night for my showcase thank you to those who wished me luck xx'
p101
aS'thank you to all who came to the showcase on friday x'
p102
aS'most definitely s to the p and e to c '
p103
aS'ahhh such a lovely night congrats eli lets finish that song of our names sometime ec sp lol b xx'
p104
aS'little snippet of feeling good which we performed impromptu last night'
p105
aS'vonmarcuss video'
p106
aS'aww thank you michael you were wonderful the pleasure is all mine please say hi to your mum '
p107
aS'it was a pleasure playing with last night my mum is now a bit fan too \xf0\x9f\x98\x80'
p108
aS'just in case any of you wanted to know the absolutely stunning lady in the black dress last night was my very own sister'
p109
aS'thanks so much for coming last night did you get something to eat in the end'
p110
aS'my band were absolutely phenomenal last nightthank you all so muchi love working with you x'
p111
aS'if you ate pancakes without me last night im breaking up with you '
p112
aS'thank you so much for performing last night jay you know how we do   x'
p113
aS'just look at the absolutely beautiful xx'
p114
aS'thank you xx'
p115
aS'why is tea so damn good at 3am best thing ever its the simple things'
p116
aS'thanks sweetie  xx'
p117
aS'told ya thats ages ago knowonelistenstothelittleone  hope it went well hun not that i n\xe2\x80\xa6'
p118
aS'youre busy dancing the night away right now see you when you get home mwah x'
p119
aS'thank you youre always so full of life xx'
p120
aS'thank you to you were wonderful tonight xx'
p121
aS'love you too baby x'
p122
aS'so sooo upset that we missed show case im sure she was brilliant and amazing as always love you sweet\xe2\x80\xa6'
p123
aS'took the roof off tonight beautiful performance bcc xxx'
p124
aS'i was blown away tonight by amazing voice x you tom xx'
p125
aS'thank you all for being such a wonderful audience tonight i was overwhelmed by you big kisses x'
p126
aS'took the roof off tonight beautiful performance bcc xxx\xe2\x80\x9d thank von x'
p127
aS'great gig with tonight cool being joined on stage by and too'
p128
aS'loved presenting for these talented ladies tonight at  amazing vocals xxx\xe2\x80\xa6'
p129
aS'the beautiful amp talented on stage right now x thanks g2 x'
p130
aS'on my way to watch perform at 1central'
p131
aS'on route to watch smash it'
p132
aS'en route to watch another acoustic set from the amazing  friends at'
p133
aS'you were amazing tonight  congrats on an great evening '
p134
aS'thank you so much xx'
p135
aS'watching the absolutely captivating beautiful just beautiful'
p136
aS'going to the official launch of my friend red carpet tonight at come down support this incredib\xe2\x80\xa6'
p137
aS'listening to my girl spundcheckoh lordy this is goin to be a good night beautiful xxxx'
p138
aS'thanks gary x'
p139
aS'watching my talented friend tonight at one central street live music showcase agwarn'
p140
aS'itll be all the more wonderful because youll be there sasha looking forward to your not so quick set  x'
p141
aS'playing a quick acoustic set at one central tonight in support of the beautiful lady that is cmon down and sh\xe2\x80\xa6'
p142
aS'the sleeps are over my live showcase is tonight excited'
p143
aS'looking forward to seeing you j x'
p144
aS'looking forward to hosting this tonight xx'
p145
aS'tonight'
p146
aS'i love this little baby so much black cat green eyes kind heart sweet nature mamas boy'
p147
aS'lotsa luck hun \xf0\x9f\x98\x98\xe2\x80\x9d thanks gorgeous xx'
p148
aS'good luck have a great night hope it goes well x\xe2\x80\x9d thanks jules xx'
p149
aS'good luck tomoz eli moo go smash it xx\xe2\x80\x9d thanks sweetie x'
p150
aS'1 more sleep see you all tomorrow xx'
p151
aS'yay looking forward to seeing you there'
p152
aS'off too ep launch party tomo night  should be wicked '
p153
aS'1 more sleep red carpet live showcase tomorrow night where one central when 700pm tickets \xc2\xa35'
p154
aS'what a beautiful day plenty to do as always'
p155
aS'and necole  well done guys great shoot today we got s\xe2\x80\xa6'
p156
aS'had such a wonderful day shooting the video for bcc with and others was great '
p157
aS'video time amazon bcc'
p158
aS'thanks gary '
p159
aS'bcc video shoot today  makeup gold'
p160
aS'because of you is out now listen here'
p161
aS'video bcc makeup gold helmet creative'
p162
aS'video makeup bcc gold hair'
p163
aS'red carpet live showcase this friday'
p164
aS'bcc video shoot today'
p165
aS'thanks bridge i really appreciate it '
p166
aS'thank you so much bridge '
p167
aS'well done kidda so proud of you'
p168
aS'just 3 days to go redcarpet live showcase elicripps'
p169
aS'3 days to go red carpet live showcase with'
p170
aS'3 days to go  red carpet live showcase cant wait to see you all there i will be performing a full set with a special little surprise x'
p171
aS'thanks sweetheart x'
p172
aS'getting this morning eli moo x'
p173
aS'my new sounds because of you on soundcloud'
p174
aS'new single  because of you  out now download it here'
p175
aS'because of you is out now get it here '
p176
aS'hi just listened to the track  sounds sooo good '
p177
aS'house song is almost done i have a beautiful singer almost ready to sing on it cant wait edm housemu\xe2\x80\xa6'
p178
aS'music to my ears '
p179
aS'hey honeychild check this out x'
p180
aS'4 days to go live showcase excited'
p181
asS'2013_41'
p182
(lp183
S'a beautiful day thank you giveyourself'
p184
aS'haha ill take that as a good thang '
p185
aS'good gawd'
p186
aS'listened and replied '
p187
aS'location onecentral'
p188
aS'redcarpet live showcase  photography by tobias pearson dress by chikizia luitu music by me and band '
p189
aS'fooling around after the bcc photoshoot a few months ago photo taken by stay tuned for the video'
p190
aS'sounds awesome send it to me '
p191
aS'new song again spoiling us eli moo xx'
p192
aS'taken by at the bcc photoshoot black and white stay tuned for the video'
p193
aS'taken by michael yeung at the bcc photoshoot before i had the big chop short hair'
p194
aS'my first choreography session for the red carpet video was amazing i will master this hip pop by the\xe2\x80\xa6'
p195
aS'stay tuned for sunrise coming soon  new song'
p196
aS'love this picture xxx'
p197
aS'productive dayfinished off with lots of food and drink  night night'
p198
aS'thanks jenny x'
p199
aS'eli mooooo one more for the collection  x'
p200
aS'studio time  in the zone'
p201
aS'yep just replied '
p202
aS'mwah singer songstress love music'
p203
aS'my man album is out today letters i never sent go get iiiitttt my\xe2\x80\xa6'
p204
aS'these past few shows have been amazing thank you belfast dublin manchester and glasgow givin us some incredible memorie\xe2\x80\xa6'
p205
asS'2013_46'
p206
(lp207
S'just realised i didnt send you that tweet in time lol'
p208
aS'short story i fell down the stairs running to get to the post man on time and hit my head on every single step concussed'
p209
aS'its ok to laugh  the post man did shamelessly haha'
p210
aS'short story i fell down the stairs running to get to the post man on time and hit my head on every single step concussed'
p211
aS'thats great babygirl x'
p212
aS'have you arrived safely sweetie pie x'
p213
aS'im good recovering from my mild head injury i wish i could have been there and watched you kick ass last night x'
p214
aS'so good to see you mi esposa xx\xe2\x80\x9d \xf0\x9f\x98\x8d sii \xf0\x9f\x91\x8c te quiero nos vemos pronto '
p215
aS'winter mexico tacos 2014'
p216
aS'planning our wedding arent we baby weneedhelp'
p217
aS'so good to see you mi esposa xx'
p218
aS'just about to meet with my wifey finallyyyyyyy \xe2\x9d\xa4\xef\xb8\x8f\xf0\x9f\x98\x8d so excited x'
p219
aS'aint playing no games tonight oldskooljam'
p220
aS'haha i sent that tweet before we started chatting on whatsapp lol'
p221
aS'next stop \xf0\x9f\x92\x83'
p222
aS'beach safari lioness shot by'
p223
aS'yes you is x'
p224
aS'how was last night you sexy thang i bet you smashed it x'
p225
aS'there aint no drink no drug ah tell them angels theres nothing pure enough to be a cure for love leonard cohen\xe2\x80\x9d'
p226
aS'\xe2\x80\x9ci have changed my name so often  i\xe2\x80\x99ve lost my wife and children  but i have many friends\xe2\x80\x9d leonard cohen'
p227
aS'when you start believing youre something special then youre not going to be striving to move forward  robin trow\xe2\x80\xa6'
p228
aS'think i need to find a company that will donate blankets and do a walk around share your fortune help a stranger \xe2\x80\xa6'
p229
aS'wifey i sent you a whatsapp message ages ago x'
p230
aS'just watched the youtube link from your profile awesome'
p231
aS'hey kimmy was nice to meet you the other night x'
p232
aS'on my hands and knees varnishing the floor boards  cos thats how us super stars do this ish diy'
p233
aS'best episode of comedinewithme waaaay too many sexual innuendos hahaha friday night concussion cure'
p234
aS'another new song coming soon ive been a busy bee blue green sweet and mean writers eli\xe2\x80\xa6'
p235
aS'such is life'
p236
aS'good morning wednesday nice to see you to see you nice\xf0\x9f\x8d\x82\xf0\x9f\x8d\x83\xf0\x9f\x8d\x81'
p237
aS'kickin it with the kinks in namibia '
p238
aS'we bringing it back to the old skool this saturday at jam one central down to last tableamp keep sending your'
p239
aS'keep the thirst to a minimum please'
p240
aS'hey jenny  ive been a little under the weather but will be back in action in a few days methinks how are you x'
p241
aS'be sure to check out my new house song available on itunes featuring the talented'
p242
aS'luvyourmanes photo'
p243
asS'2013_47'
p244
(lp245
S'beautiful music'
p246
aS'staying awake with londongrammar amazing album'
p247
aS'music on the way from amp'
p248
aS'last night  redcarpet acapella special performed at musicforcities for the full video visit my\xe2\x80\xa6'
p249
aS'bad news sells good news inspires beautiful message'
p250
aS'mbc awards live on 2013'
p251
aS'ff the wonderful voice of and the fantastic m4c13'
p252
aS'beautiful performance by last night photographed by elspeth'
p253
aS'lol dreads is is brother so not far off lol aww thank you he tole me this morning u are extremely talented'
p254
aS' please tell him i said a big thank you'
p255
aS'actually on second thought must definitely be shaved head hes an amazing drummer'
p256
aS'thank you same here '
p257
aS'really shaved hair or dreads'
p258
aS'thank you i loved your performance great combination of getting people moving amp thinking about the lyrics'
p259
aS'was having an interview  and heard one of the best voices coming from the stage  shouts to'
p260
aS'last night what a beautiful venue at halle st peters with such wonderful people'
p261
aS'and you were brilliant too\xe2\x80\x9d thank you chris '
p262
aS'a phenomenal ending to a phenomenal night m4c13'
p263
aS'made some wonderful new friends last night m4c13'
p264
aS'thank god its friday'
p265
aS'ff such a sweet girl always makes me smile and such a gifted singer xxx\xe2\x80\x9d ahh thanks julie big kisses xx'
p266
aS'thank you steve i really enjoyed being there hopefully well both be there again next year '
p267
aS'thought you were top tonight brilliant voice\xe2\x80\x9d thank you james '
p268
aS'my absolute pleasure thank you for having me'
p269
aS'thank you to the amazing artists and m4c13'
p270
aS'having a great time and its for a goodcause'
p271
aS'amp i loving currently playing awesome music what a wonderful night to be a part of'
p272
aS'walked in to hear sounding sensational at hallestpeters shes amazing thank you'
p273
aS'soundcheck under way for m4c13'
p274
aS'playing now at m4c13'
p275
aS'opening tonights acapella immense xx'
p276
aS'its almost showtime m4c13'
p277
aS'is that a drum kit or is that a drum kit '
p278
aS'this venue is absolutely beautiful halle st peters'
p279
aS'visit the official website of who will be opening the show tonight m4c13'
p280
aS'tonights gig with and is sold out if youve got tickets see you later x'
p281
aS'rt brand new single out now canyoufeelme amp itsbeenemotional episode 1on all digital stores'
p282
aS'well finally meet '
p283
aS'excited to dj w at tonights w \xe2\x80\xa6'
p284
aS'hows everyones thursday going just 1 day till the weekend woohoo'
p285
aS'sweet dreams'
p286
aS'hahahaha lidl wain swag swag epic'
p287
aS'taken by amir shah  alterego with a mini afro '
p288
aS'im on it like a ferret up a yorkshire mans trouser leg hahahaha comedinewithme epic onit'
p289
aS'photography by amir shah favourite colours yellow orange and a hint of green'
p290
aS'thank you for helping me to be everything that i am and all that is to come'
p291
aS'were very lucky to have playing tomorrow thursday night at music for cities tickets are on sale at ht\xe2\x80\xa6'
p292
aS'ahh thanks sweetie pie d'
p293
aS'sleep is definitely on the cards for me this weekend after jam'
p294
aS'is this actually me alterego with a mini fro'
p295
aS'most definitely x'
p296
aS'its going well thanks theres always room for improvement though  xx'
p297
aS'haha ur blatently a bad ass no just kidding about it  im good thanks hun hows the music going x'
p298
aS'almost at 9k wow well done baby x'
p299
aS'me too '
p300
aS'im fine \xf0\x9f\x98\x80 i look forward to seeing you again \xf0\x9f\x98\x8a'
p301
aS'im good a little exhausted but thats just the biproduct of being a bad ass just kidding haha how are you x'
p302
aS'shout outs to people working towards their dreams dailytweet thegrindneverstops'
p303
aS'morning jules x'
p304
aS'morning tweeters \xf0\x9f\x98\x8a'
p305
aS'morning sugar xx'
p306
aS'passed 82k \xf0\x9f\x91\x8a that was quick woop im ready for 9k '
p307
aS'we covered this in 1898 flour sacks'
p308
aS'heres breakfast attempt no 2 one hell of a kylie pose from here more at'
p309
aS'just finished that tune for featuring and myself on beat and singing the chorus shit is deeeeee\xe2\x80\xa6'
p310
aS'i dont think people realise how epic tupac changes really was or is such a classic record'
p311
aS'this photo has just transported me back to summer thanks to orange swimsuit yellow sun'
p312
aS'check out the hurr afro fro'
p313
aS'morning oh wow thats fresh out there \xe2\x9d\x84\xe2\x9b\x84'
p314
aS'and since no counting had begun we lived a thousand years in one leonard cohen'
p315
aS'good thanks u all ready for soccer six hope ur footy skills are up to scratch  x\xe2\x80\x9d\xe2\x80\xa6'
p316
aS'the truth always comes to light'
p317
aS'jhene aiko sampha kelela solange cassie etc if youre allaboutgoodmusic this ones for you'
p318
aS'this saturday cj beatz hosts jam for the radio 1xtra takeover at one central tables about to sell out amp keep'
p319
aS'if you were a fruit you\xe2\x80\x99d be a fineapple'
p320
aS'gotta make it happen'
p321
aS'if youre looking to get into the music business make sure you check out on saturdaypresidents'
p322
aS'haha'
p323
aS'but when its i fixed the vibration on my phone before like a boss it makes you feel a bit better haha'
p324
aS'im eating my tuna sandwich like a boss  see literally any sentence works likeaboss'
p325
aS'like a bossthis is sooo overused but i love how you can add it to any sentence eg am sitting on the buslike a boss haha boss player'
p326
aS'jam saturday onecentral  cos thats how we do'
p327
aS'michael how are you  missing your sweet beats rehearsal soon'
p328
aS'you know whats waiting for you at hoooome redcarpet'
p329
aS'this song always takes me back to the same time and place as when i wrote it'
p330
asS'2013_44'
p331
(lp332
S'bbc2 natural world meet the monkeys this is so sad  people killing monkeys to eat as a delicacy when theyre already almost extinct'
p333
aS'dont treat people as bad as they are treat them as good as you are'
p334
aS'i love it when someone understands my banter'
p335
aS'all about jam saturdays tonight over at one central  guestlist holla at me 07508 950773'
p336
aS'youll definitely need one when you come to manchester babygirl x'
p337
aS'thank you to my new followers and for your wonderful comments and tweets hugs and kisses'
p338
aS'replied  sounds amazing'
p339
aS'my sleepy baby boy black cat'
p340
aS'will check it out tonight '
p341
aS'mbc awards 2013 full version coming soon'
p342
aS'heard sing for the first time a few days ago her performance was flawless\xe2\x80\x9d thank you so much '
p343
aS'4 days down 1 to go weekend hellyeah'
p344
aS'rehearsal  practice makes perfect'
p345
aS'my cat took a selfy catselfies catcalledcat'
p346
aS'happy wednesday'
p347
aS'you have loads of dominators around the uk'
p348
aS'when you are dead you do not know you are dead its only painful amp difficult for others the same applies when you are \xe2\x80\xa6'
p349
aS'our pleasure'
p350
aS'worked with great talents the other night cant \xe2\x80\xa6'
p351
aS'im a ride or die whether you fail or fly lanadelrey'
p352
aS'ok so its not friday yet but this is just too funny'
p353
aS'thankyou  youre ace magnificent'
p354
aS'said the amazoniai feel like its time we just get married and let everyone call us both mrs cripannu '
p355
aS'i love it mrs cripannu '
p356
aS'i love working for me '
p357
aS'thank you you were wonderful and i want your hair jazz afro'
p358
aS'you looked stunning on saturday night lady smashing'
p359
aS'is totes amazeballs '
p360
aS'rt would like to tank all who contributed to the mbc awards 2013 \xe2\x80\xa6'
p361
aS'i won the business of the year award \xf0\x9f\x98\x84 \xf0\x9f\x91\x8f\xf0\x9f\x91\x8f\xf0\x9f\x91\x8f well done'
p362
aS'performing live acoustic set in sunday brunch club on sunday 3rd nov with the beautiful'
p363
aS'ive been dragging it out intentionally so sad its over'
p364
asS'2013_45'
p365
(lp366
S'naija tunes'
p367
aS'those crazy people living in a tin hut somewhere talking on some weird radio frequency about us all being brainwashed have got a point'
p368
aS'why does everyone look like everyone else clones'
p369
aS'check out a clip of my new house song feat eli cripps house edm bass'
p370
aS'mbc awards 2013  have a watch be inspired amp be ready for 2014 good news inspires'
p371
aS'replied'
p372
aS'good morning folks rise and shine'
p373
aS'strong by london grammar on soundcloud'
p374
aS'haha that was epic you got some serious moves  show em what youre working with dec x'
p375
aS'oh yeeeah and theyll get to see you busting a groove '
p376
aS'wait till they hear the funky version from last week so much more fun haha'
p377
aS'emeli sand\xc3\xa9 4th nov 2013 via'
p378
aS'still receiving great comments about the slow sassy smooth version of red carpet exclusively performed for last month'
p379
aS'me too sexy senorita xxxx'
p380
aS'but im so excited to finally meet my baby cant wait to see you wifey'
p381
aS'listen to sunrise here when i first performed this live in april it'
p382
aS'listen to sunrise here when i first performed it in aprilit was untitledthanks to some lovely fansit has a name'
p383
aS'my new sounds sunrise on soundcloud'
p384
aS'ok sugar xx'
p385
aS'sorrywhat time is the meet up on the 16th mwah '
p386
aS'at first i thought he wasbut then he started speaking in french im guessing he was from cameroon definitely west african'
p387
aS'the bus journey a man next to me refuses to accept there is either no reception or the person has hung up hellohellohellohellohello'
p388
aS'what time is it sweetie pie x'
p389
aS'aww no  im in mancheter kick ass babygirl xx'
p390
asS'2013_16'
p391
(lp392
S'super excited about this lavida livelounge may 19th'
p393
aS''
p394
aS'you are so right thank you awesome afro drum dance'
p395
aS'hey court how are you doing have you been able to get a date together with z  redcarpet dance'
p396
aS'im fundraising for cancer research uk using check out my page justgiving'
p397
aS'listening to kukere tune nigerian'
p398
aS'soooo gorgeous x\xe2\x80\x9d thank you sweetie x'
p399
aS'mwah x'
p400
aS'sneak peek at the new red carpet album artwork with kenyan fabric amp earrings chikizialuitu'
p401
aS'photoshoot with wearing my brand new custom made dress by chikizialuitu tomorrow yay'
p402
aS'my shadow tall chick with two shopping bags sunny afternoon'
p403
aS'it sucks when you forget your earhead phones bad times '
p404
aS'youve got me thinking about all sorts of food nowokra stew amalaall sorts mouth watering haha'
p405
aS'that would be sooo good right now nigerian food is just too good'
p406
aS'pleaseee you need pepper soup rt beautiful chicken and vegetable soup just what i need when i \xe2\x80\xa6 '
p407
aS'beautiful chicken and vegetable soup just what i need when i have the sniffles'
p408
aS'im good sweetie just have a mini cold but im fighting it how are you x'
p409
aS'ff theese beauties '
p410
aS'ff '
p411
aS'big up tina turner '
p412
aS'do you ever look at the past n think christ that was a lucky escape having one of those moments'
p413
aS'just posted a photo'
p414
aS'gorgeous display pic yas x'
p415
aS'what a pretty little evening \xe2\xad\x90\xf0\x9f\x8c\x9e\xf0\x9f\x92\x95'
p416
aS'spread happy enthusiastic loving energy the world will give u what u give it'
p417
aS'my beautiful friend carrie baked this just for me im so happy right now made with love from a sweetie pie '
p418
aS'ruby ann patterson  start you again by  ltlt fav tune listen '
p419
aS'loving the fact today i can see new lambs playing and running around on the field x'
p420
aS'hi sweet pea x'
p421
aS'studio myflaws'
p422
aS'witwoo indeed gorgeous girl  xx'
p423
aS'happy birthday my angel until we meet again x'
p424
asS'2013_24'
p425
(lp426
S'aww dont worry babe xx'
p427
aS'aww my poor babyi think he might need a big kiss tell him therell be one waiting for him when he gets home  x'
p428
aS' glad you like it yay'
p429
aS'no probs loving the music too talentedgirl'
p430
aS'monica  angel of mine  just brought a tear to my eye isnt it amazing how some songs can do that in an instant'
p431
aS'ur beautiful  x\xe2\x80\x9d thank you sweetheart so nice of you xx'
p432
aS'i will do xx why is moody arse moodysend him a little kiss from mejust a little oneonly nonmoody arses get big kisses'
p433
aS'its not right but its ok whitney'
p434
aS'the smile on my face after hearing the words its a wrap on thursday redcarpet music video'
p435
aS'ill get you one when i go back  im in bed listening to some amazing classic rampb tunes xxx'
p436
aS'amaze i want 1 nowwwwww \xe2\x9d\xa4 where ru btw james is moody without u'
p437
aS'sittin up in my room with taken back to my childhood with this song '
p438
aS'my favourite necklacemade in kenya worn for the red carpet video out soon'
p439
aS'let me see you go back back forth and forth aaliyah'
p440
aS'oh yes the video for redcarpet is out at the end of june woo hoo x'
p441
aS'thats why i never went haha'
p442
aS'i dont see nothin wrong with a little bump and grind tune'
p443
aS'great sweetie how are you'
p444
aS'tuneee howz things hun x'
p445
aS'youre too cool for school aaron '
p446
aS'so did i et tlc creep is keeping me awake tunage when i was 9 i wanted to be t boz'
p447
aS'if you havent already got this album buy it now ministry of sound rampb 2'
p448
aS'tlc creep is keeping me awake tunage when i was 9 i wanted to be t boz'
p449
aS'chilled out day recuperating night night x'
p450
aS'massive rally on fb search \xe2\x80\x9csocial army for duchenne\xe2\x80\x9d event has 30k invited 2k of soldiers jump in duchen\xe2\x80\xa6'
p451
aS'it did '
p452
aS'morning everyone  happy friday x'
p453
aS'hopekatanas photo'
p454
aS'amirshahs photo'
p455
aS'hot stuff \xf0\x9f\x94\xa5'
p456
aS'on set redcarpet video june 2013'
p457
aS'just got in from shoot itsawrap lolol'
p458
aS'dont miss this june 27th'
p459
aS'preparation for redcarpet music video epic crane shot'
p460
aS'in the words of its a wrap yaaaaaay redcarpet video'
p461
aS'finishing the rest of music vid today for redcarpet this evening  yay'
p462
aS'0 love it love you ur on fire xxxx'
p463
aS'chorlton june 27th'
p464
aS'0 love it love you ur on fire xxxx boom'
p465
aS'love you too my sweetie mwah x'
p466
aS'wow wow summer never looked so good stunning x'
p467
aS'morning '
p468
ag394
aS'thank you sugar  xxx'
p469
aS'dominators go download it \xf0\x9f\x91\x8c rt red carpet is out'
p470
aS'were at the bbc in liverpool setting up for our live recording on air later in june 2013'
p471
aS'new song sunrise written yay'
p472
aS'check out'
p473
aS'not tonight but we are in the middle of some new studio stuff right now hopefully not too long'
p474
aS'try for your love and my flaws rerelease coming soon recorded with my band  bliss'
p475
aS'great thanks '
p476
aS'of red carpet yes just seen it and listening now sounds great '
p477
aS'morning just wondering whether you received my dm'
p478
aS'yey in chorlton june 27th'
p479
aS'lokas review in the liverpool echo'
p480
aS'your beautiful inside and out\xe2\x80\x9d aww thank you  x'
p481
aS'the planetary alignment has happened two of the world\xe2\x80\x99s greatest finally meet with teambringit'
p482
aS'the most electrifying man in all of entertainment joins jack courtesy of and '
p483
aS'so excited cant wait to hear it thank you so much x'
p484
aS'my pleasure x'
p485
aS'i always keep my promises your song is written and ready for recording carl yay '
p486
aS'aww yay ill confirm the start time this week xx'
p487
aS'really excited about performing in chorlton on thursday 27th of june yay'
p488
aS'yey in chorlton june 27th'
p489
aS'lol dont worry will be there to keep the choreography in check '
p490
aS'some great tracks recorded check out  and '
p491
aS'filming phase 2 of redcarpet this week with'
p492
aS'thank you so much for the support ive received today some of you have written very kind words im so happy youre enjoying redcarpet xx'
p493
asS'2013_25'
p494
(lp495
S'morning everyone happy sunday '
p496
aS'at home in my kitchen dancing like a true nigerian haha privateparty for one lol im going to come xx'
p497
aS'dancing to antenna in my kitchen turnitup'
p498
aS'dancing to antenna in my kitchen turnitup'
p499
aS'i hope the dj also plays antenna you know how we do'
p500
aS'i know you want it blurredlines is a tune'
p501
aS'i hope the dj plays blurred lines robinthicke tonight woooo'
p502
aS'love you stace positive as always mwahx'
p503
aS'you are all that amp a bag of chips sweetheart lovin the sneakpeek at the photoshoot let the countdown to beg\xe2\x80\xa6'
p504
aS'thank you sugar bun x'
p505
aS'beauts eli mooo  x'
p506
aS'behind the scenes today with mike yeung photoshoot try for your love my flaws'
p507
aS'extremely productive day one step closer to the tryforyourlove myflaws rerelease coming soon'
p508
aS'amazing photoshoot today tryforyourlove myflaws album covers'
p509
aS'kaykayless photo'
p510
aS'in the broken places the light shines through leonard cohen'
p511
aS'aint no cure for love'
p512
aS'really im joining your club haha'
p513
aS'hay fever has finally caught up with meantihistamines are my new best friend shame you can only take 1 a day'
p514
aS'happy friday '
p515
aS'bit of late night scrubbing through new music video redcarpet jeez your all in for a treat epic mus\xe2\x80\xa6'
p516
aS'im great thanks hun you need to do a show soon tho lool i need to see ya  x'
p517
aS'awww cute xx'
p518
aS'im good babe how are you'
p519
aS'hi '
p520
aS'my babyboy first independent walk outside after his injury super cat'
p521
aS'will send details over shortly '
p522
ag394
aS'whatever happened to3lw nomore ido lickin your lips at me for fun found heaps of old cds megamixes courtesy of'
p523
aS'god thank you for today yesterday and tomorrow my family my joys my sorrows for all that has made me stronger'
p524
aS'its moments like this that make you smile and you just know that vision equals results rio nelson'
p525
aS'fantasia  when i see you'
p526
aS'you have a beautiful voice '
p527
aS'also these amazing artists'
p528
aS'1 place to look i cosign these 1\xe2\x80\xa6'
p529
aS'for those of you who have enjoyed listening to my flaws amp try for your love i have a real treat in store for you'
p530
aS'ladies which one of you has their very own private red carpet '
p531
aS'just received a beautiful message from thank you sweetheart a natural beauty with a sincere heart x'
p532
aS'its plane and simple the food was fly'
p533
aS'now thats how you leave a tip'
p534
aS'find me in instagram'
p535
aS'ti s dance moves loldont worry folks its not the explicit version its a tune  robinthicke got me dancing'
p536
aS'find me on soundcloud'
p537
aS'top o the mornin to ya d'
p538
aS'meet the talented eli cripps music who is busy working on her debut music video red carpet with amir shah rhys'
p539
aS'hey julez only just seen this i love what youre doing on soundcloud  we really do need to get these tracks completed x'
p540
aS'but you just keep bouncing back'
p541
aS'that feeling when youre so exhausted you could cry'
p542
aS'cant begin to tell you how excited we are about music round here atm more bangers uploaded this week the e mids is on\xe2\x80\xa6'
p543
aS'friday28th of june one central free tequila shots 4 djs break dancers fire breathers bday offers'
p544
aS'we have a huge weekend coming up friday  summer jam with dj stylus dj fusion amp dj g2 saturday  beaut with dj'
p545
aS'first day back at work off to a photoshoot you can be glamorous sporting baby sick on your shirt right xx'
p546
aS'its all comin 2gether staytuned'
p547
aS'yay me neither  woo hoo xx'
p548
aS'yes youre right hahaha aww cant wait to see you then \xe2\x9d\xa4\xf0\x9f\x98\x8a\xf0\x9f\x98\x98'
p549
aS'that maths paper was the definition of disgusting'
p550
aS'my current situation is beautiful'
p551
aS'i actually really like invigilators now theyre so nice'
p552
aS'we\xe2\x80\x99re in a tough economy against this the ceo of an average sampp 500 company makes around us 10 million per year'
p553
aS'time will fly ill write it in diary now  x'
p554
aS'ill arrive on september 19 theres time  rt yes definitely sweetie when x\xe2\x80\x9d'
p555
aS'gotta see u when im in the uk se\xc3\xb1orita '
p556
aS'im good  how are you x'
p557
aS'yes definitely sweetie when x'
p558
aS'single will be on tomorrow madetolove'
p559
aS'lovely acoustic performance at the top of the gherkin'
p560
aS'rehearsing  '
p561
aS'kim and kanyes baby lol this made me laugh'
p562
aS'my ears are burning  whos talking about me'
p563
aS'so excited to finally spill tomorrow '
p564
aS'wassup nigeria xoxoxo good evening representing nigeria soulbirdsworldwide\xe2\x80\x9d'
p565
aS'if you love me say it if you trust me do it if you want me show it if you need me prove it brownstone tune'
p566
aS'talking more music videos with dreamteam'
p567
aS'semi portrait orange'
p568
aS'hahahaha no9 is too funny '
p569
aS'new video tjlyricz feat rio lookatme here comment and like'
p570
aS'chorlton june 27th'
p571
aS'allow me to re introduce my self street dreams concert ft envy oneda crown'
p572
aS'chorlton june 27th'
p573
asS'2013_26'
p574
(lp575
S'red carpet by eli cripps on soundcloud'
p576
aS'my flaws by eli cripps on soundcloud'
p577
aS'ff my faves o\xe2\x80\xa6'
p578
aS'maybe ive had one too many amarettos but that yorkie advert is too funny'
p579
aS'park the car unlock the door slide off your shoes and ride on my redcarpet'
p580
aS'who can relate to myflaws'
p581
aS'wow thank you for all my new likes  x'
p582
aS'red carpet by thisiseli on soundcloud'
p583
aS'for those of you who are loving my flaws have a listen to red carpet its my baby  i wrote the chorus in'
p584
aS'have you heard \xe2\x80\x98my flaws\xe2\x80\x99 by thisiseli on soundcloud'
p585
aS'thanks gorgeous girls x'
p586
aS'my flaws is beautiful love'
p587
aS'thank you for all the wonderful comments about redcarpet '
p588
aS'thank you for the lovely comments ive received so far  myflaws'
p589
aS'thanks sweetie x'
p590
aS'artwork for my flaws is fab hun x'
p591
aS'my new sounds my flaws on soundcloud this is my tune had my head nodding n my f\xe2\x80\xa6'
p592
aS'missjamesstyles photo'
p593
aS'vv brown 26th june 2013 via'
p594
aS'my flaws is the second in the series of four singles to be released by eli cripps this summer out in july 2013'
p595
ag394
aS'my new sounds my flaws on soundcloud'
p596
aS'today ill be posting a link for you guys to preview my flaws before its rerelease next month stay tuned x'
p597
aS'awesome stuff tomorrow ill be posting a special preview link for my flaws rerelease date to be confirmed'
p598
aS'awesome stuff tomorrow ill be posting a special preview link for my flaws rerelease date to be confirmed soon stay tuned myflaws'
p599
aS'footage from la vida live lounge'
p600
aS'heres the all important link '
p601
aS'red carpet by eli cripps on soundcloud'
p602
aS'its a cute one el x'
p603
aS'phew thats a relief proud of you music video comes out this week '
p604
aS'gooooooooooooooood morning folks'
p605
aS'massive thank you to for putting me forward for the gig last night at castle hotel posi\xe2\x80\xa6'
p606
aS'sometimes you readsee things that just make you think jeeez this world is frickin nuts'
p607
aS'try for your love  x\xe2\x80\x9d aww thats a good one to fall asleep to '
p608
aS'im super excited about writing with theoldestlight'
p609
aS'michael and i are completing our new two songs tonight recording in july and ready for your ears shortly after '
p610
aS'where'
p611
aS'c u next tuesday lol'
p612
aS'aww which one sent you to sleep in the end sweetie pie x'
p613
aS'its not hard to take a pic of natural born beauty photography portrait girl music video\xe2\x80\xa6'
p614
aS'go girls these harmonies are giving me goosebumps wooo'
p615
aS'photographed by redcarpet video behindthescenes'
p616
aS'miss you babygirl x'
p617
aS'i love you tosin xx'
p618
aS'wishing you all the best '
p619
aS'thanks honeychild '
p620
aS'why do i want you so bad in my life  when all i do is crrrryyyyy lol'
p621
aS'why do i want you so bad in my life  my jammmmn '
p622
aS'wait youre in manchester too what is going on with all the manchester loving howd you find me d'
p623
aS'i have my ways haha just kidding i just typed your name into the twitter search and boom there you were '
p624
aS'i love allaround happy people except its obviously totally necessary and ok to be sad sometimes too '
p625
aS'oh yeahi do get sad from time to time too haha'
p626
aS'why do i want you so bad in my life'
p627
aS'im so sorry if i dont smile all the time'
p628
aS'thanks jenny wenny x'
p629
aS'not long noww els x'
p630
aS'sent you a dm sweetie xx'
p631
aS'i have some amazing supportersthank you so much for all the retweets favourites and likes '
p632
aS'the first edit of the red carpet music video will be ready this week im so excited and i just cant hide it woooo'
p633
aS'whos yet to hear red carpet'
p634
aS'ok will check it out  how wasis london xx'
p635
aS'will do babygirl xx'
p636
aS'got chained on repeat'
p637
aS'listening to chained by the katanas beautiful girls beautiful voices making beautiful music well done girls x'
p638
aS'spotconcealer gangnamhangman'
p639
asS'2013_27'
p640
(lp641
S'what a mesmerizing woman sade'
p642
aS'paying for it today vodka tequila cocktails wine amp a rice pick up padthai livin the dream wher\xe2\x80\xa6'
p643
aS'thank you sweetheart always so positive and encouraging x'
p644
aS'gemini have a great deal of creative talent'
p645
ag394
aS'little teaser there is still at work on it redcarpet'
p646
aS'whos excited to see the music video for red carpet by eli cripps on soundcloud'
p647
aS'yesss that was a vital break right there for murray '
p648
aS'im scared of what andy murrays mum will do to him if he loses'
p649
aS'thanks sweetie x'
p650
aS'aww ur new dp is beautiful eli moo  xx'
p651
aS'thanks rhi xx im thinking of joining you on the natural hair'
p652
aS'new profile picture taken by michaelyeungphotography'
p653
aS'i dont usually drink so im quite a light weight haha x'
p654
aS'did you enjoy your thai food i had planned to have a bbq today so sore head or not im going to get up and start marinatingx'
p655
aS'not too great haha'
p656
aS'dad had lol'
p657
aS'hi gorgeous girl yes great night but i knew i shouldnt have dad vodka bad idea haha how are you this morning x'
p658
aS'manchester its been emotional \xe2\x9c\x8c'
p659
aS'it was'
p660
aS'what i wish wed met'
p661
aS'aww enjoy ur night have one for me lol x'
p662
aS'thank you gorgeous girl x'
p663
aS'good guess sugar pie thats my next one  x'
p664
aS'white rum punch x'
p665
aS'dom baby you got it  passion tequila mojito xx'
p666
aS'tequila mojito \xf0\x9f\x91\x8c'
p667
aS'can you guess which one im having'
p668
aS'completely captivating letyourfearsgo'
p669
aS'watching perform full circle you go girl x'
p670
aS'coucou '
p671
aS'accepting an award for maliko at africa festival wurtzberg photo by'
p672
aS'catching up on glastonbury highlights favourite song sowa by fatoumata diawara beautiful'
p673
aS'so happy we finally had our lunch date  x'
p674
aS'ff the beautiful and talented miss xx'
p675
aS'if the neighbours didnt already know it sandra and i are shaking our booties to antenna and africamassive tuuuuune'
p676
aS'cheers eli gotta jam with you sometime'
p677
aS'sending you big kisses and hugs sexy mama xx'
p678
aS'uh oh sexy se\xc3\xb1orita currently watching the 2nd cut of my red carpet music video very excited to show \xe2\x80\xa6'
p679
aS'currently watching the 2nd cut of my red carpet music video very excited to show you all stay tuned'
p680
aS'yeah sure lets arrange it '
p681
aS'tomorrow this starts new 1xtra breakfast with twin b \xf0\x9f\x98\x81 wake up with us '
p682
aS'sing your song dance your dance tell your tale'
p683
aS'good luck on saturday kickass'
p684
aS'you made a wise choice my friend lol'
p685
aS'im having a party for one dancing to africamassive this is a tune fena'
p686
aS'will do thank you '
p687
aS'my heart beats like an african drum i got the heat like the african sun fena africamassive'
p688
aS'blacker the berry sweeter the juice  fena africamassive'
p689
aS'get to know eli a little better gt gt me'
p690
aS'yes hopefully in 2weeks ill keep you posted  just wanted to touch base i miss you x'
p691
aS'i like this strategy i might try it haha '
p692
aS'now looking forward to performing a live poetry set alongside 6713 fullcircletour ma\xe2\x80\xa6'
p693
aS'hey babygirl just checking up on ya xxx'
p694
aS'get to know eli a little better gt gtme'
p695
aS'my little cutie pie baby cat'
p696
aS'part of my music postit collection today cant wait to check out more of his songs beautiful voice'
p697
aS'lets do this weekend xx'
p698
aS'nope'
p699
aS'ok babygirl friday xx'
p700
aS'its almost ready  we should go for a nandos date soon x'
p701
aS'lool im hereee im good thankyou still vry excited to see this video  xxx'
p702
aS'with the recently released single red carpet june was a great month a lot of support from nairobi kenya and manchester uk thank you'
p703
aS'i love my new nickname by eli moo'
p704
aS'morning eli moo xx'
p705
aS'yes sweetie  how are you you disappeared xxx'
p706
aS'good morning  its wednesday two days till the weekend yay'
p707
aS'thank you so much for all the support  its an amazing feeling knowing that im not the only one singing red carpet in the shower'
p708
aS'africa massive  fena gitu by fena music on soundcloud'
p709
aS'hey julez how are you'
p710
aS'feels like just an ordinary mondaysometimes ordinary is alright i suppose hoping for an extraordinary tuesday keepsmiling'
p711
asS'2013_20'
p712
(lp713
S'you were fab  x\xe2\x80\x9d thank you sweetie x'
p714
aS'photo taken by sandra cripps'
p715
aS'great night'
p716
aS'missjamesstyles photo'
p717
ag394
aS'singing it live live lounge'
p718
aS'sat watching sing at lavida live x'
p719
aS'rise and shine its lounge today '
p720
aS'sawthisandthoughtofyou you should totally rock this lookpose at your next shoot longlegs xx'
p721
aS'love this '
p722
aS'morningoh i mean afternoon lazy saturday in bed with my babycatlet the work begin rehearse clean cook rehearse some more pilates'
p723
aS'looking forward to seeing you and your sexy outfit  x workit ownit'
p724
aS'bring it on miss long legs work it baby work itown it  so looking fwd to hearing redcarpet amp meeting th\xe2\x80\xa6'
p725
aS'ff'
p726
aS'great weekend ahead music dance cocktails great company happy days '
p727
aS'really excited to hear all the artists perform lois and letitia are going to bring some serious vocal power to this live event'
p728
aS'great '
p729
aS'yupp gdstuff xx'
p730
aS'thank you look forward to bringing my creative touch with me \xf0\x9f\x98\x81 lookingforw\xe2\x80\xa6'
p731
aS'welcome to the family'
p732
aS'woo cant wait'
p733
aS'it took 2 seconds haha youre such a baby aww x'
p734
aS'you big baby x'
p735
aS'well it wont hurt as much as that do it xx'
p736
aS'my little sister is a total groupie shes sitting in on my rehearsal with the biggest grin on her face aww thats sisterly love '
p737
aS'it only hurt in that instant its a little sore afterwards but nothing a big girl cant handle  justdoit xxx'
p738
aS'cooked just for me rice fish veg mmmm'
p739
aS'got my tragus pierced much less painful than a tattoo thats for sure'
p740
aS'thank you sweetheart x'
p741
aS'youl do it babe  x'
p742
aS'rehearsal time'
p743
aS'send over details '
p744
aS'not sure yet actuallywhats happening'
p745
aS'my birthday is fast approaching and i have so many goals yet to achievethese next 13 days are going to be intense bringiton'
p746
aS'well done'
p747
aS'everything in your life is a reflection of a choice you have made if you want a different result make different choices'
p748
aS'probably doesnt need explaining too much'
p749
aS'thank you '
p750
aS'sounds mint have a good one '
p751
aS'performing my awesome foursome redcarpet myflaws becauseofyou tryforyourlove and a sneak preview of a new song this sunday'
p752
aS'yes coming along well should have a sample to send to you by the end of the month x'
p753
aS'aww youre so sweet love you too gorgeous x'
p754
aS'love u  x'
p755
aS'mmmmwah xxx'
p756
aS'\xe2\x9d\xa4'
p757
aS'rehearsals complete for the evening yesss  excited sun19th'
p758
aS'the gemini woman is a real challenge to understand'
p759
aS'hes trying haha'
p760
aS'thanks court xx'
p761
aS'hey will have all information tomorrow x is coming to grace the studios with h\xe2\x80\xa6'
p762
aS'rehearsing for my band are just superb im so excited to be performing with these amazing musicians '
p763
aS'its official my debut single red carpet will be out on 09062013 watch this space x'
p764
aS'hey court waiting for your reply'
p765
aS'just 5 days till'
p766
aS'super excited about getting my designs brought to life by chikizialuitu getting my outfits created for the video redcarpet'
p767
aS'thank you sweetie pie xxxxx'
p768
aS'keep going girlur doing amazingly  x'
p769
aS'taking matters into my own handsim nearing my 18month targetgot lots still to do music'
p770
aS'me too very excited redcarpet'
p771
aS'great looking forward to getting this moving'
p772
aS'this sunday i will be performing at at for tickets visit'
p773
aS'morning happy monday '
p774
asS'2013_21'
p775
(lp776
S'goodnight folks sweet dreams x'
p777
aS'24052013 at entourage manchester'
p778
aS'just watched miss potter what a beautiful story have i cried or have i cried ive smiled too great film'
p779
aS'look what i just found in my auntys cupboard my ears have died and gone to heaven leonardcohen'
p780
aS'my favourite mmmmm'
p781
aS'watching pingu with my lovely little niece priceless '
p782
aS'happy sunday eli cripps '
p783
aS'happy sunday everyone  x'
p784
aS'lovely cats just cant keep away from us next door neighbours cat climbed in through our window to sleep with us'
p785
aS'ooh oh oh whenwefirstmet'
p786
aS'thank you sweetie hope to see you performing again soon x'
p787
aS'hey hun u too would love to see u perform again x'
p788
aS'whenwefirstmet'
p789
aS'looking fantabulous'
p790
aS'you cant be angry when the suns out  finally \xf0\x9f\x98\x83\xf0\x9f\x98\x83\xf0\x9f\x91\x8a\xf0\x9f\x91\x8a'
p791
aS'hello beautiful girl  was great seeing you perform'
p792
aS'lucky lady  x'
p793
aS'youre awesome love jsky'
p794
aS'we smashed it tonightlets all get in the studio together and make a monster jam '
p795
aS'at entourage ready to do a little performance of my own '
p796
aS'had such an amazing time at concert tonight beautiful x'
p797
aS'you want to always be as open creative and fluid as possible amp never become rigid old or tight'
p798
aS'when u realize ur headed in the wrong direction get up out ur seat and start going the other way'
p799
aS'i wonder what got me for my bday early birthday present  waiting till weds to open xxx'
p800
aS'performing at the street dreams concert academy 3 manchester last oct before eating three r82 cupcakes and'
p801
aS'singing at all about good music last year great audience and wonderful people all round'
p802
aS'rooftop songwriting with lee smith this was when i first wrote my flaws'
p803
aS'one of my first performances feeling a little shy at lamars manchester'
p804
aS'tomorrow ill be performing alongside jsky at the alicia keys after party and bigz birthday party at entourage'
p805
aS'hahahaaa'
p806
aS'thought your manager would appreciate this'
p807
aS'good rehearsal with  x'
p808
aS'im nailing this routine yes xxx redcarpet'
p809
aS'triple t k a time to totally kick ass whitechicks quote of the day'
p810
aS'just finished day 2 of red carpet choreography im motivated and exhausted at the same time'
p811
aS'i posted a new photo to facebook'
p812
aS'i posted a new photo to facebook'
p813
aS'i posted a new photo to facebook'
p814
aS'if i cant have hair no one can'
p815
aS'i look up and see a pigeons arse exploding diarrhoea all over me literally covering me in brown lumpy pigeon shit'
p816
aS'because 1 youre awesome 2 i love elephants 3 its hilarious'
p817
aS'time for tea'
p818
aS'this berry fanta is a badman ting mmmm'
p819
aS'being thankful for little things can add a little more happiness in your life its that simple'
p820
aS'be happy be who you wanna be happiness is a choice life isnt about pleasing everybody'
p821
aS'my ears have been very sticky outy today \xf0\x9f\x90\x98'
p822
aS'thank you sweetie x'
p823
aS'u was great was fun  what you have planned sounds exciting see you tomorrow  xxx'
p824
aS'loving this routine for redcarpet  quick breather then back to work dance'
p825
aS'just about to start my first choreography session with for the redcarpet music video yay'
p826
aS'feeling fresh as a daisy sunday is the new saturday nachos disco goodcrowd happytimes'
p827
aS'love this image'
p828
aS'recently signed up to the chicks with short hair club love it'
p829
aS'thank you to my new followers on soundcloud xx'
p830
aS'it was great  x'
p831
aS'haha and it was a malibu nothing too hardcore i was performing so took it easy on the aaaaaalcohol xx'
p832
aS'beautiful audience last night thank you xxx'
p833
aS'performed a preview of my new song last night thanks to an audience member it went from untitled to titled  sunrise will be out soon'
p834
aS'ready to face the day'
p835
aS'ok  i had one drink haha im a good girl just a little tired x'
p836
aS'the morning after the night before'
p837
asS'2013_22'
p838
(lp839
S'good day rehearsals with and tli  '
p840
aS'love to all soulbirdsworldwide '
p841
aS'mama aint raised no suckers'
p842
aS'do not go past the mark you aimed for in victory learn when to stop'
p843
aS'geminis are soo energetic they stay youthful for a very long time'
p844
aS'great session with zanesha today at studio 25  woo its all coming together redcarpet'
p845
aS'no partying for me tonight saving myself for dance rehearsal with tomorrow'
p846
aS'night night world exhausted'
p847
aS'sick shoot cant wait to see the results bcc'
p848
aS'bcc great photoshoot'
p849
aS'the boyz and cheeky smile'
p850
aS'sneak peek at todays photoshoot bcc'
p851
aS'thank you sugar bun x'
p852
aS'photoshoot time hair did makeup did nails did bcc'
p853
aS'photoshoot time hair did makeup did nails did bcc'
p854
aS'sat listening to von marcus bcc project with the lovely and crew firstclass'
p855
aS'ahaha i bloody love this'
p856
aS'getting ready for the bcc photoshoot with'
p857
aS'morning '
p858
aS'what a guy walking around town with his cat on his shoulders this might just start a trend super cat dude'
p859
aS'amazing idea xx'
p860
aS'aww thank you x'
p861
aS'thank you sweet potato pie  xx'
p862
aS'thank you sweetie pie xx'
p863
aS'happy birthday hope youve had a great day  x'
p864
aS'thank you '
p865
aS'happy birthday xx'
p866
aS'thank you so much for your beautiful colourful card  such kind words courtney thank you for taking the time x'
p867
aS'happy birthday and there we was discussing rehearsals lol hope your having a great day'
p868
aS'lots of love back mami \xf0\x9f\x98\x98\xf0\x9f\x98\x98\xe2\x9d\xa4'
p869
aS'happy birthday have a blessed day girl allowit\xe2\x80\x9d thanks bridge x'
p870
aS'yes all is great thank you so much x'
p871
aS'thank you x'
p872
aS'happy birthday  hope you have a lovely birthday  x'
p873
aS'sacrifice  dedication  success '
p874
aS'happy birthday  \xe2\x80\x9d thank you x'
p875
aS'thank you stacey sparklepants xxx'
p876
aS'happy birthday pretty lady sexycelebrations tastytreats gorgeousgifts candlesandcake makeawish bigbirthda\xe2\x80\xa6'
p877
aS'happy birthday x hope u had a fab day x\xe2\x80\x9d thanks sweetheart x'
p878
aS'happy biiiiiirthday x\xe2\x80\x9d thank you bizzy x'
p879
aS'happy birthday to the beautiful hope youre enjoying your day miss x'
p880
aS'thank you  xxx'
p881
aS'sending lots of love your way sexy se\xc3\xb1orita  xx'
p882
aS'aww welcome love you \xf0\x9f\x98\x98 rt aww thank you beautiful thats so sweet of you  sending you\xe2\x80\xa6'
p883
aS'happy birthday beaut hope u have a lovely day xxx\xe2\x80\x9d thank you babygirl  xxx'
p884
aS'aww thank you beautiful thats so sweet of you  sending you big fat kisses xxx'
p885
aS'happy birthday beautiful i wish you all the best now and always hope you are having an amazing day enjo\xe2\x80\xa6'
p886
aS'happy birthday lovely xxx\xe2\x80\x9d thank you becky x'
p887
aS'thank you my gorgeous girl love you too xxx'
p888
aS'happy birthday to the beautiful love you xx'
p889
aS'yay no rest for the wickedim even squeezing in some practice today on my birthday work x'
p890
aS'planning for new music video under way cant wait to see the dance routine redcarpet m\xe2\x80\xa6'
p891
aS'thank you sweetheart x'
p892
aS'thank you all for my beautiful birthday messages mwah x'
p893
aS'thank you to my new followers on twitter '
p894
aS'join me on facebook for news on my music and invitations to my upcoming performances eli x'
p895
aS'hahaaaa '
p896
aS'wait and see  hahaha'
p897
aS'its my bday today i ate toooo much lol feelsick x\xe2\x80\x9d happy birthday xxxx'
p898
aS'im going to be super chubby haha'
p899
aS'two loool gwaarnnn girl x'
p900
aS'wonderful day with family  two bbqs and far too much to drink goodtimes'
p901
asS'2013_23'
p902
(lp903
S'what a sweetheart'
p904
aS'dad says i belong in aladdin with my harempants so i started singing awholenewworld at him when shopping in tesco htt\xe2\x80\xa6'
p905
aS'yaaaay go rosie woo hoo smile with your eyes  xxx'
p906
aS'yay are you doing the finger click move  x'
p907
aS'been singing it nonstop  and obviously dancing round my room'
p908
aS'cheeky little song by the beautiful everyone go listen and buy '
p909
aS'thank you gorgeous girl xxx'
p910
aS'just bought it amazing love it \xf0\x9f\x91\x8c\xe2\x9d\xa4\xe2\x80\x9d thank you gorgeous xxx'
p911
aS'my new sounds red carpet on soundcloud'
p912
aS'also out on amazon redcarpet'
p913
aS'red carpet is out now its the first in the series of 4 singles to be released by eli cripps this summer stay'
p914
aS'red carpet is out now '
p915
aS'its finally out red carpet  single by eli cripps'
p916
aS'close my eyes and i could be anywhere sun summer bluesky planes nofilter sunshine'
p917
aS'this sunday its out on itunes video to follow shortly after x redcarpet'
p918
aS'great day with the film crew for redcarpet im exhausted so are and sweet dreams guys xx'
p919
aS'well done today u worrrked ittt d xx\xe2\x80\x9d thank you yay x'
p920
aS'redcarpet video shoot coming soon june 2013'
p921
aS'me and sweetie pie at redcarpet video choreography'
p922
aS'redcarpet video shoot underway'
p923
aS'busy day today video shoot redcarpet yayy nd lovely weather '
p924
aS'yay thank you so much sweetie xxx'
p925
aS'just finished rehearsals with soo proud nd she looks hawwtt  redcarpetvideotomorrow'
p926
aS'looking forward to this ever since the first dance rehearsal redcarpet m\xe2\x80\xa6'
p927
aS'new song writing project starts on monday sunrise'
p928
aS'will be great thank you for using'
p929
aS'dress rehearsal for redcarpet video tonight with cant wait'
p930
aS'just got the final versions of my songs its been a year in the making  getting it right requires patience im so happy'
p931
aS'i need that tonight so i can be all fresh faced and in diva mode at dress rehearsal tomorrow night haha redcarpet video x'
p932
aS'had such a goood sleeep gd morning'
p933
aS'stay positive the sun might just come back might haha'
p934
aS'cant decide both are hot '
p935
aS'remember ashanti only u tuneage '
p936
aS'love me because nothing happens leonard cohen'
p937
aS'believe in yourself push your limits experience life conquer your goals and be happy'
p938
aS'let it be magic'
p939
aS'hello sweetie how are you'
p940
aS'thanks ben  it was nice to see you too'
p941
aS'rehearsals with beautyindarkness'
p942
aS'morniiiiing have a great day '
p943
aS'me and crown at the bcc photoshoot'
p944
aS'aww miss you xx'
p945
aS'some people get too thirsty when the sun comes out chill'
p946
aS'my single red carpet will be out on itunesamazonspotify this sunday 09062013'
p947
aS'quick lunch time recording session at blueprint studios  my second home for the past year '
p948
asS'2012_49'
p949
(lp950
S'thank you x'
p951
aS'congrats to james arthur'
p952
aS'no surprises with the result really was there look forward to hearing his album'
p953
aS'wow are we agreeing on something lol can i make a note of this this is an historic moment lol'
p954
aS'massive compliment  x'
p955
aS'ep will be released in january and songs will be available to preview before christmas wooo thanks so much soriebah'
p956
aS'nasty'
p957
aS'whhhoooooosaaaaa and breath'
p958
aS'omg tmi haha'
p959
aS'fav female artists gt rihanna jessie j rita ora and emeli sande in no order love them x'
p960
aS'rt beware of brief delight and lasting shame'
p961
aS'and the winner of the x factor is lmaooooooooo'
p962
aS'you know dudes are going to the barbers for a rihanna tomorrow'
p963
aS'awww ive watched it alreadybut you know what sometimes the ones you watch alone are the best '
p964
aS'wow thank you i thought she looked stunning and gave an excellent performance thats a big compliment '
p965
aS'wow did you hear that last note shocking would kill her vocally'
p966
aS'start tweeting '
p967
aS'haha why on your own lol'
p968
aS'im sure theyll get over it with the money they earn cause he earns big money hes okay to g '
p969
aS'hahaaaa photo bombed'
p970
aS'gwenny bear x'
p971
aS'mwah'
p972
aS'just posted a photo'
p973
aS'big sis tosin looking gorgeous as usual lt3'
p974
aS'me and gwenny at xfactor finals yesterday great production and well done to james and jahmene'
p975
aS'i posted a new photo to facebook'
p976
aS'after a night of seeing the xfactor finals and having a great time at one central afterwardsits time to face'
p977
aS'big people in the mixxx tonight at xfactor'
p978
aS'just confirmed that is partying at with tonight down at whos joining the '
p979
aS'xfactors amp serious partyer in the mix tonight at beautmanchester'
p980
aS'what an experience xfactor live well done james and jahmene '
p981
aS'its now 3pm and i still havent had breakfasttime for a break i need some crunchy nut yall'
p982
aS'you know youre dedicated when you wake up and even before your eyes are fully opened youre already working on your music'
p983
aS'loving the chorus from this that falsetto is onpoint'
p984
aS'drinks with friends and brown hair '
p985
aS'our mate at the safari park x'
p986
aS'valentines lt3'
p987
aS'2012 has been such a great year a lot of my time has been spent hurr'
p988
aS'hey karen how are you xxx'
p989
aS'thanks babe x'
p990
aS'im good thanks  nice new hair hun x'
p991
aS'just had a beautiful night catching up with my sisters '
p992
aS'hey sorry didnt link up this weekim recording next week but should have a day i promise '
p993
aS'im good babe you x'
p994
aS'ff'
p995
aS'short but not too short and still red'
p996
aS'working on my cd cover work\xe2\x80\x9d wicked wanna c this x'
p997
aS'im good darling how are you x'
p998
aS'mwah x'
p999
aS'ff beautiful and talented cant wait for her ep'
p1000
aS'mmmmmmmmmm sisters cooking x'
p1001
aS'my focus is on always trying to treat the inevitable highs and lows of life with the same blissful calm energy'
p1002
aS'working on my cd cover work'
p1003
aS'sometimes the bad things that happen in our lives put us directly in the path of the best things that will ever happen '
p1004
aS'tonight no games shall be played murkage is not for the weak this evening truss mih'
p1005
aS'put new years day n your diary rt shotty blizz envy oneda for sure'
p1006
aS'been a turbulent day extremely happy about something'
p1007
aS'todays long crazy day at work has taught me that people get cranky at christmas noneed'
p1008
aS'wow just realised how that nandos napkin could be seriously placed out of context haha dirtymind'
p1009
aS'thats great ill wait go your call babe x'
p1010
aS'awww lt3 haha'
p1011
aS'ginger bread man split 3 ways i got the head the eyes are made with raisins yum'
p1012
aS'manchester here we come chilly'
p1013
aS'mcdonalds is packed boy'
p1014
aS'cant i live in poems leonard cohen'
p1015
aS'music is the emotional life of most people leonard cohen'
p1016
aS'i seem to have the concentration span of a goldfish todayaway with fairies'
p1017
aS'dont let your humble mind sway'
p1018
aS'have a great day folks x'
p1019
aS'could be worseat least its not raining'
p1020
aS'night night and fairy kisses to all the lovely people supporting me  sweet dreams x'
p1021
aS'so proud of u ellie moo good things happen to good people and ur deffo one of the good ones  x'
p1022
aS'most definitely itll be in the new year will keep you posted '
p1023
aS'i luv ruby ann patterson u do too right check this out like  comment  retweet'
p1024
aS'dinner for twonot sure about this no carbs thing james has us oni need rice lol'
p1025
aS'im not designed for this climate freezing'
p1026
aS'my good thing is music it has come to me so now i just have to make sure it sticks around perseverance'
p1027
aS'good things come to those who well actuallygood things come to lots of pplbut they only stick around with for those who deserve'
p1028
aS'do good things and good things will happen for you'
p1029
aS'this journey into town seems to be taking all day publictransportfidead'
p1030
aS'even when things aint going to what you think is the plan they are you just need keep the faith  godisgood'
p1031
aS'is we jammin yet'
p1032
aS'dont ever mistake silence for ignorance calmness for acceptance or kindness for weakness'
p1033
aS'getting butterflies in my tummyeverything is coming together and its crunch time elicripps ep release launchparty'
p1034
aS'hey sweetie how are you feels like ages since i last spoke to you x'
p1035
aS'haha join the masses'
p1036
aS'they sleep  we grind'
p1037
aS'breakfast 1 bowl with boiling water and vix thisisnotlife'
p1038
aS'paris get ready '
p1039
aS'if this guy on the seat next to me sits any closer im gonna have him done for assault moooooove'
p1040
aS'to escape the scandal you gotta keep your head firmly screwed on'
p1041
aS'morning x'
p1042
aS'the day started off a little toughbut has just got pretty damn good '
p1043
aS'haha'
p1044
aS'theres no chip on this shoulder'
p1045
aS'awakea lot in my head but instead i may just go back to bed thatishrhymed'
p1046
aS'why do some people think yolo is the answer to everything no matter how silly or stupid it is s lol'
p1047
aS'its okay to have fun once in a while but at the same time be responsible and not do stupid things'
p1048
aS'some people dont know what they have and its so sad all they want to is fuck about i feel sorry for them cos they not '
p1049
aS'if ur a star then im a fan be open minded the world is too big to be placed in a box'
p1050
aS'good times in paris with an old pal'
p1051
aS'morniiiing time for a tea break '
p1052
aS'if its shit why you still watching it  the sheep '
p1053
aS'bad times'
p1054
aS'homeland is getting a bit tense'
p1055
aS'taurus loves makeup sex'
p1056
aS'just had such a good nap i needed that napqueen'
p1057
aS'aaaw '
p1058
aS'thank god i missed you p xo'
p1059
aS'im back '
p1060
aS'me and alibear last night in paris x'
p1061
asS'2013_28'
p1062
(lp1063
S'youtube  search eli cripps red carpet official video xx'
p1064
aS'just what the doctor ordered  enjoy x'
p1065
aS'yes  are you x'
p1066
aS'what a beautiful day'
p1067
aS'yes we do shall we come down and see you guys or would you like to come up to mcr xxx'
p1068
aS'haha  have you watched it theres another coming out at the end of sept x'
p1069
aS'up till 5am working on music time for bed methinks night night x'
p1070
aS'thanks '
p1071
aS'your videos amazing well done hehe xx'
p1072
aS'its getting exciting up in here '
p1073
aS'haha hope i didnt succeed we need you around a little longer '
p1074
aS'tryna give me a heart attack'
p1075
aS'love you dominate grr'
p1076
aS'thanks lovely im glad u like it rt this is amazing doom l\xe2\x80\xa6'
p1077
aS'redcarpet'
p1078
aS'youtube elicripps redcarpet officialvideo'
p1079
aS'i cannot wait to eat this x'
p1080
aS'every gd bbq birthday party needs a giantdoughnut sunshine amp goodtimes gorgeousgirlies'
p1081
aS'haha i guess i should say thanks for that comment '
p1082
aS'im fab honey thanks 4 asking glad ur getting lotsa feedback x'
p1083
aS'morning wonderful people  how has everyone started their saturday morning'
p1084
aS'yes sweetie pie im great how are you doing x'
p1085
aS'has got men everywhere gob smacked with this one  sexy skepta voice'
p1086
aS'high five panda animal lover'
p1087
aS'i love this picture good luck wishes from my work colleagues  positivity'
p1088
aS'just watched new vid osbebejsbsbdjfbdidnsnsbsjs shsbbajsnsbsnsjshshhsbaisisjs\xe2\x80\x9d haha i take that as a good thing '
p1089
aS'thanks bizzy i will do x'
p1090
aS'hi babygirl how are you doing xxx'
p1091
aS'lovely lunch date with positivethinking'
p1092
aS'happy friday folks x whether youre going out tonight or just chilling out at homeadd my new song red carpet'
p1093
aS'dawn thank you so much for this post  i cant believe i am only just seeing this now xx hope youre well xx'
p1094
aS'elicripps you are amazing '
p1095
aS'thanks bizzy im about 7 months late on seeing this post but thanks so much '
p1096
aS'she gave a stunning performance at the last aagm now check out her website elicripps'
p1097
aS'if youre having a let me check out whats new on youtube moment  type in elicripps redcarpet officialvideo and get that foot tapping'
p1098
aS'looking forward to seeing you tomorrow baby cakes xxx'
p1099
aS'thank you all so much for the support youve shown meim so happy with your response to the red carpet video todaylet the good times roll'
p1100
aS'haha thanks sparklepants xx'
p1101
aS'sothe video is out you little minx i see you babyshakin that ass rearoftheyear superstarinabra wor\xe2\x80\xa6'
p1102
aS'happy birthday gwen cripps  i baked this with love'
p1103
aS'your phone call made my day x'
p1104
aS'smashed itxx'
p1105
aS'thank babygirl bigkisses'
p1106
aS'hey dominators check out my girl new video amazing youll love her \xf0\x9f\x91\x8c'
p1107
aS'have you seen the video '
p1108
aS'congratulations to the amazing on her fab music video check it out at yessherocks'
p1109
aS'takes one to know one  x'
p1110
aS'love it sexy se\xc3\xb1orita \xf0\x9f\x91\x8c\xe2\x9d\xa4\xf0\x9f\x98\x98'
p1111
aS'eli cripps  red carpet video out now'
p1112
aS'thanks babygirl im trying to look like you  x'
p1113
aS'you look absolutely stunning from head to toe wow'
p1114
aS'thank you sweetheart you always have something wonderful to say xx'
p1115
aS'wow absolutely amazing got my shoes on and will forever dance to it  xx'
p1116
aS'thanks you gorgeous xx'
p1117
aS'the previous link i rtd is a video i choreographed for check it and follow the lady herself shes amazing \xe2\x80\xa6'
p1118
aS'so proud nd happy for you looks amazing  get it gurl'
p1119
aS'thank you sexy lady mwah xx'
p1120
aS'hi sweetheart the video is out xxx'
p1121
aS'my sweetie pie the video is out xxx'
p1122
aS'hi sexy senorita the red carpet video is out now  xxx'
p1123
aS'here it is my gorgeous girls  red carpet video xx'
p1124
aS'the videos out yay'
p1125
aS'thank you and your team for all your hard work on this video'
p1126
aS'sweetie the video is out now yay xxx'
p1127
aS'have you been practicing the moves xx'
p1128
aS'red carpet video out now'
p1129
aS'any plans for lunch today feast your eyes on elis red carpet video'
p1130
aS'this almost feels like a lifetime ago'
p1131
aS'no hurdle is too high when youve got support around you thank you all so much for making these hurdles feel that'
p1132
aS'happy wednesday  were right in the middle of the week  weve survived monday the finish line is in sight friday'
p1133
aS'hope everyones having a fantastic tuesday'
p1134
asS'2013_29'
p1135
(lp1136
S'my pleasure beautiful cant wait to see the finished video tryforyourlove such a sincere amp emotional song tea\xe2\x80\xa6'
p1137
aS'thanks so much to for spending her sunday helping me on my tryforyourlove video big kisses gorgeous lady xxx'
p1138
aS'haha black amp white is awesome'
p1139
aS'its a wrap mikeyeung yay\xe2\x80\x9d next step black and white'
p1140
aS'its a wrap mikeyeung yay'
p1141
aS'capturing raw emotion has never been this fun filming for tryforyourlove music video with and mikeyeu\xe2\x80\xa6'
p1142
aS'on set try for your love music video stay tuned'
p1143
aS'on set tryforyourlove music video with and mikeyeung stay tuned'
p1144
aS'haha not me  xx'
p1145
aS'nope no drinking for me'
p1146
aS'shhh me too  im just having a little dance at home to myself hehe need my beauty sleep for tomorrow video xx'
p1147
aS'hope everyones having a great saturday keep the party going'
p1148
aS'superman is just too cool for school hotness'
p1149
aS'nationaltellagirlsheisbeautifulday il tell a few lol'
p1150
aS'ur a beauty too bestever'
p1151
aS'good seeing you today and are pans to take over the world lol'
p1152
aS'yay this is so cool  thanks rhi x'
p1153
aS'its friday  dance like no ones watching'
p1154
aS'i gotchu eli moo  x'
p1155
aS'haha its not that hot jeeez its pretty awesome though imagine if england was like this all year round  awesome times '
p1156
aS'always knows how to put a smile on my face  kind words go a long way x'
p1157
aS'on location makes me sound very important we all know youre the important one  manager mcd'
p1158
aS'just had an awesome first meet with weve just written our first song together light stay tuned'
p1159
aS'the prettiest people are the best at making ugly faces trust me ask my little sister to make an ugly face  shes a pro prettiest baby'
p1160
aS'of course justdoit '
p1161
aS'cant wait to get in the studio with she doesnt know it yet but i think should hook that up'
p1162
aS'its a soul take on the song  the release youll all hear at the end of the summer is more jazz blues indie stay tuned  becauseofyou'
p1163
aS'hey you how are you doing im loving the music on soundcloud '
p1164
aS'im going to have to step up my game with the other ladies on set '
p1165
aS'this is where because of you was bornthe 4th in the series of singles youll hear from me and my band this summer'
p1166
aS'thanks  x'
p1167
aS'thats most important glad you like the song lol'
p1168
aS'thank you nathaniel '
p1169
aS'one to watch check out official video for red carpet   realtalent jhheeeezze\xe2\x80\xa6'
p1170
aS'there is just something so wonderful about this place  africa your music is beautiful'
p1171
aS'haha crown '
p1172
aS'all i can say is lord have mercy and forgive me for my sins red carpet video damn girl '
p1173
aS'beautiful voice from cote divoire fatoumatadiawara'
p1174
aS'huge collaborations on the way with good friends   and more manchester is comi\xe2\x80\xa6'
p1175
aS'working from home with this little cutie'
p1176
aS'haha '
p1177
aS'oh st you dont mess about i need to keep up with ya '
p1178
aS'headphones untitled is also ready wooo fire'
p1179
aS'cheatin so you say is finished  see you on friday'
p1180
aS'eli cripps  red carpet official video'
p1181
aS'check out eli cripps first official video'
p1182
aS'i liked a video eli cripps  red carpet official video'
p1183
aS'some beautiful girls have just told me listening to my music makes them feel proud of me what a wonderful thing to hear thank you girlsx'
p1184
aS'thank you honey bun im happy to make you guys proud of me xx'
p1185
aS'just watched red carpet vid amazing proudofyou'
p1186
aS'thank you for being my fan sweetheart im a fan of yours too xx'
p1187
aS'hi hun thank you for the support its great i love the job your a true artist who cares about their fans \xf0\x9f\x98\x8a'
p1188
aS'of course workhardplayhard is the motive remain blessed xx'
p1189
aS'cheeky little cameo from me'
p1190
aS'definatly bbz i cant wait to don the stage once again with the one amd only ecripps defo need to get that v\xe2\x80\xa6'
p1191
aS'hi sweetie its wonderful to see youre enjoying your new job work hard but play too  enjoy the rest of your week x'
p1192
aS'not yet sweetie pie this weekend  x'
p1193
aS'so now that i know where you hide your front door keycan i be your new friend lol nonewfriends'
p1194
aS'so excited to be getting our groove back and performing brand new soonseriously have to get your verse recorded like now'
p1195
aS'another beautiful shot by michael yeung taken during the try for your love photoshoot if youre wondering what'
p1196
aS'get to know me a little better  in my own words'
p1197
aS'get to know me a little better  in my own words'
p1198
aS'its you its you its all for you everything i do beautiful words lanadelrey'
p1199
aS'hey '
p1200
aS'to keep up to date on whats going on with me check out'
p1201
aS'youtube views on my red carpet official video are going up and up every day thank you for all your shares'
p1202
aS'sneak peek at try for your love artwork its the third in the series of 4 singles im releasing this summer'
p1203
aS'sneak peek at try for your love artwork its the third in the series of 4 singles im releasing this summer'
p1204
aS'sneak peek at try for your love artwork its the third in the series of 4 singles im releasing\xe2\x80\xa6'
p1205
aS'rise and shine have a wonderful day '
p1206
aS'my flaws will be out on itunes amazon spotify and everywhere on 27072013 spread the word'
p1207
aS'how is everyones monday going so far mines great thanks to you all for your wonderful comments on the new'
p1208
aS'of course not share share share '
p1209
asS'2012_48'
p1210
(lp1211
S'whenwefirstmet'
p1212
aS'eli cripps  try for your love acoustic'
p1213
aS'eli cripps  because of you acoustic'
p1214
aS'eli cripps  red carpet  revisited acoustic'
p1215
aS'put your head down and do the work there are no shortcuts'
p1216
aS'even this army of naysayers will change their tune one day'
p1217
aS'loving my new dress'
p1218
aS'dear god thankyou for food health shelter and the wonders of the world heal those in need and in the struggle all '
p1219
aS'next time u go paris take me plzzzi miss it  x'
p1220
aS'im extremely flattered to know that people are taking an interest in me and my music thank you so much everyone xxx'
p1221
aS'puppet by produced by'
p1222
aS'nopea sunflower'
p1223
aS'check out brilliant sets from the last aagmlive '
p1224
aS'a full on string ensemble in the subway classic'
p1225
aS'the notre dame paris'
p1226
aS'paris today'
p1227
ag394
aS'omg wrong very wrong'
p1228
aS'guess where tattoo'
p1229
aS'paris flashinglights'
p1230
aS'just had a great catch up with old friends curtis silfoor black kent and freddy we talked growing up in'
p1231
aS'curtis2panams photo'
p1232
aS'should you arrive at a metro stop in paris and desperately need some protectiona durex street vending ma'
p1233
aS'awww thanks babe x'
p1234
aS'okely dokely'
p1235
aS'hey babe how are you x'
p1236
aS'yes lovely aaron will be mg pleasure  im still im paris till monday but we can chat xx'
p1237
aS'its kapital baby'
p1238
aS'the hairon my headis getting the chop when i get back to manchester the rrrrrred is also going  timeforchange methinks'
p1239
aS'so  now that im finally connected back with my twitter its time for me to tell you guys about a big decision im making'
p1240
aS'still laughing'
p1241
aS'ff my lovelies love them x'
p1242
aS'red wine after a long day touristing doing the tourist ting in paris has gone straight to my head funtimes'
p1243
aS'hilarious i actually just burst into laughter out loud lol to the max'
p1244
aS'this black guy that busks in town with the shades on is having a laugh im sorry'
p1245
aS'all tables sold out and only 1 hour left to get your name on the guestlist for beaut tonight at one central full ht '
p1246
aS'gemini women have plenty of imagination in the bedroom'
p1247
aS'freezing'
p1248
aS'bubble bath  candles  old skool rnb  relaxing time only one thing missing a sexy mama to rub me down'
p1249
aS'paris on a cold sat afternoon sniffle eats almond tart happy days'
p1250
aS'been too busy being french to tweet lol but i still miss manchester x'
p1251
aS'mention10peopleyoureallylove my mom sister brother '
p1252
aS'so thankful to have some really amazing people supporting me xxx'
p1253
aS'very excited to have been asked to feature in the aagm mixtape 2 woo hoo xxx check out mixtape 1'
p1254
aS'hahaaaaa'
p1255
aS'shits real'
p1256
aS'tea'
p1257
aS'life is not a problem to be solved but a reality to be experienced'
p1258
aS'minus 3 right now in manchester what a myth ffs'
p1259
aS'i will not leave you only strangers travel owning everything i have nowhere to go '
p1260
aS'another sick snap from perth'
p1261
aS'every photo in my upcoming website gallery has been taken by brightrain photographics thanks david x'
p1262
aS'bed bound for today  but still got my music cap on songwriting is on the agendain my pjs with lemsip'
p1263
aS'awww ur a fkin superstar babes  i cnt wait 4 u ep x'
p1264
aS'all about good musica little bit about me '
p1265
aS'mwah x'
p1266
aS'omg you super woman i love my sleep too much to do that xx'
p1267
aS'eli cripps at allaboutgoodmusic live video'
p1268
aS'all about good music  elip cripps live per '
p1269
aS'thanks babygirl xxx how are you x'
p1270
asS'2013_5'
p1271
(lp1272
S'haha maybe fame is not the be all and end all but we shall see'
p1273
aS'haha no people dont recognise me in the street im not exactly a superstar'
p1274
aS'i cant say im an expert on how it goes but everything has a price i suppose it depends what kind of artist you want to be'
p1275
aS'mrkenzos photo'
p1276
aS'how did thursday go sweetie x'
p1277
aS'haha yes i did make a few friends and yes  last day of bootcamp youre very curious about this'
p1278
aS'thank you gorgeous x'
p1279
aS'and my heart is breaking for the young lady who got attacked with acid the world is full of so many awful people don '
p1280
aS'new single coming out very soon eli cripps  red carpet  revisited acoustic guys '
p1281
aS'thank you sweetie xxx'
p1282
aS'that song and your vocals both sooooo good \xf0\x9f\x91\x8c\xf0\x9f\x91\x8f'
p1283
aS'thank you to my new followers \xf0\x9f\x92\x9a x'
p1284
aS'oh no poor baby xxx'
p1285
aS'i loved singing this cover impromptu for you guys at the launch of my ep beyonce  sweet dreams  eli cripps cover'
p1286
aS'planning the red carpet music video excited'
p1287
aS'new single coming out very soon eli cripps  red carpet  revisited acoustic'
p1288
aS'yes i had amazing feedback4 yeses  a great response some people have asked about the audition videoim sorry you cant see it'
p1289
aS'in life never ever limit yourself'
p1290
aS'did you wake up this morning feeling brand new haha'
p1291
aS'who doesnt no this y does the world not no who she is '
p1292
aS'\xe2\x9d\xa4\xf0\x9f\x92\x8b'
p1293
aS'baaaaaaabe all honesty i didnt no how it would go cos ppl dnt no it u actually smashed '
p1294
aS'i was sooooo excited when i heard my song that was amazing thank you whenwefirstmet xx'
p1295
aS'aww thanks gorgeous takes one beauty queen to know one  big kisses i'
p1296
aS'an her big song smashed an no1s even heard it speaksforitself voiceofanangel  '
p1297
aS'cant beat this t '
p1298
aS'umno i wasnt things are not always as they seembut it was an eyeopening experience learnedalot'
p1299
aS'i was sooo excited when carlton played my track  xxx'
p1300
aS'ino shes amazing her track actually went off in tonight \xe2\x9d\xa4\xe2\x9d\xa4'
p1301
aS'yup for a short while'
p1302
aS'we actually have a perfect team '
p1303
aS'absolutely gutted i missed it been listening to her ep non stop since the launc '
p1304
aS'awww i love you too gorgeous xx'
p1305
aS'shes amazing i \xe2\x9d\xa4her xx'
p1306
aS'always do with my girl  xx lovely to meet u too pretty lady xxx'
p1307
aS'thank you for being there sweetie x'
p1308
aS'amazing performance from the 1 amp only beautiful lady herself  i absolutely loved it keep up the goo '
p1309
aS'of course'
p1310
aS'great show can i get a signed cd'
p1311
aS'i posted a new photo to facebook'
p1312
aS'i posted a new photo to facebook'
p1313
aS'i posted a new photo to facebook'
p1314
aS'ep launch party photo taken by xx'
p1315
aS'love'
p1316
aS'always miss cripps you were awesome as always'
p1317
aS'im grrrreat sweetie live your dp xxx'
p1318
aS'im amazing thanks you \xe2\x9d\xa4 rt how are you sweetie\xe2\x80\x9d'
p1319
aS'how are you sweetie'
p1320
aS'thank you darling xxx'
p1321
aS'aaronisradios photo'
p1322
aS'the wonderful doing her thang at her ep launch on thursday evening'
p1323
aS'aww thanks aaron xxx'
p1324
aS'thank you to everyone who came to my launch party im extremely grateful for your support big kisses xxx'
p1325
aS'my gorgeous sister'
p1326
aS'thank you so much to for coming and cheering so loud for me on thursday night mwah x'
p1327
aS'love you jay '
p1328
aS'aww the pleasure is all mine you brought the house down bbz 2 encoures amp a standin ovation you we '
p1329
aS'very welcome'
p1330
aS'you were on fire at the launch party it was such a pleasure being on stage with you i feel so blessed to know you thank you xx'
p1331
aS'loving the new style beard'
p1332
aS'on a lighter note good night with'
p1333
aS'hey sweetie is carlton on twitter just want to say thank you so much for opening the night x'
p1334
aS'thank you to the gorgeous for doing my makeup last night xx'
p1335
aS'vicky and sandybear xxx'
p1336
aS'thank you to for hosting the night'
p1337
aS'thank you so much to the band i was so proud to be on stage with such amazing and talented musicians last night'
p1338
aS'hey beaut hope u had a great night tonight pics look amazing looking forward to hearing the ep hun xx'
p1339
aS'loved seeing preform tonight xx'
p1340
aS'lucky enough to see two amazing women perform tonight amp take a bow ladies'
p1341
aS'lucky enough to see two amazing women perform tonight amp take a bow la '
p1342
aS'was fantastic tonight a wonderful performance greats vocals and got a sneak peek of her bcc verse soun '
p1343
aS'good night out with the brothers amp to launch party tonight'
p1344
aS'if a girl ever sang song red carpet to me oh my'
p1345
aS'me amp at the eli cripps ep launch at \xe2\x99\xa5 love these girls so much mwahhh xxxx '
p1346
aS'hope u had a good bday same again sat miss was 2busy for a pic lol '
p1347
aS'not forgetting amp msg me for glist amp tablesl 0759544 '
p1348
aS'you are amazing feel so lucky to know you me amp had a fab nightxx'
p1349
aS'my beautiful sisters and mama'
p1350
aS'big kisses x'
p1351
aS'the wonderful jay and von marcus x'
p1352
aS'mwah'
p1353
aS'amazing night thank you so much to everyone who came to see me and listen to the music ive worked so hard to make xxx lots of love xxx'
p1354
aS'tonight ep launch at 830pm with champagne reception live pa amp free giveaways contact for '
p1355
aS'very much looking forward to the beautiful ep launch tonight talent manchestermusic'
p1356
aS'wishing you all the success with your ep launch im in london atm but cant wait to collaborate at a late '
p1357
aS'on way to ep launch letssss go'
p1358
aS'just watching she is killing it  redcarpet is a tune go check it out from her new ep  \xf0\x9f\x98\x84\xf0\x9f\x98\x84'
p1359
aS'you looked beautiful absolutely smashed it thanks for the cd see you soon x'
p1360
aS'830 x'
p1361
aS'thank you  xx'
p1362
ag394
aS'was to excited to sleep its finally 31012013 see you all at my ep launch party tonight at 830 onecentral'
p1363
aS'rehearsal for tomorrow is amazing ep launch party 830'
p1364
aS'hey env you coming tomorrow night xx'
p1365
aS'just picked up my launch party outfit its beautiful kenyan fabric tailor made by the amazing chikizia luitu designers right here in mcr'
p1366
aS'hey sweetie your signed copy of my ep will be in the post to you today xxx'
p1367
aS'yeah i know ive been super busy too busy to be vain its nice to know ive been missed '
p1368
aS'blush thank you xxx'
p1369
aS'mentionyourtwittercrush x100'
p1370
aS'thats really cool'
p1371
aS'hmmmthats a little sadistic aaron haha'
p1372
aS'haha bad times'
p1373
aS'afternoon chaps how yall feel out there'
p1374
aS'the most beautiful train station ive ever seen trainspotter victorian constructed 1863 nearly as old as me '
p1375
aS'listen labrinth  meanest man feat devlin wretch 32 ed'
p1376
aS'trust respect loyalty and communication 4 essential parts of a successful relationship'
p1377
aS'feeling rather fresh for a monday morning'
p1378
aS'whatever it takes allin'
p1379
aS'lol'
p1380
aS'studio'
p1381
aS'new york city'
p1382
aS'very nice'
p1383
aS'work time'
p1384
aS'azealia banks reveals details of first single from debut album'
p1385
aS'how are you doing pussy face haha'
p1386
aS'were releasing an album today you can buy it here then join us at 12pm with '
p1387
aS'looking forward to seeing you x'
p1388
aS'3 more sleeps cant wait for thursday ep launch party'
p1389
asS'2013_4'
p1390
(lp1391
S'yay looking forward to that'
p1392
aS'hahaa i like that'
p1393
aS'tomorrow sweetie x'
p1394
aS'wow send it to me  would love to hear it xx'
p1395
aS'well that shit is sounding like fire your working without working right now haha'
p1396
aS'yes an eliphant never forgets haha'
p1397
aS' alls going great how are you x'
p1398
aS'i was recently asked what are your two favourite eli cripps songs my answer was red carpet and my flaws whats your answer '
p1399
aS'the uk music scene is gradually growing with multitalented upcoming artists us better get ready for this one'
p1400
aS'laughing keeps you young'
p1401
aS'wooo hoooo my ep is available now on itunes whenwefirstmet'
p1402
aS'all guests attending the launch party will receive a copy of my ep therell also be free hugs as per usual suckerforcuddles'
p1403
aS'super excited just opened a very special delivery ep cd'
p1404
aS'morning beautiful people '
p1405
aS'for those hoping to hear something a little mellow on the launch night ep track  my flaws'
p1406
aS'a little hint of what ill be performing on the launch night ep bonus track  brand new'
p1407
aS'watching ddk on scuzz tv wooooo'
p1408
aS'thanks sweetie will do x'
p1409
aS'hey hun would you be free to help out x'
p1410
aS'thank you wish you could make it x'
p1411
aS'thanks kaps x'
p1412
aS'yes just about to open dropbox now excited d'
p1413
aS'launch party details see u there'
p1414
aS'im so sorrythere are too many conflicting things on the weekend for most of the guests that can make it xx'
p1415
aS'thanks babe x'
p1416
aS'launch party details'
p1417
aS'thank you to for the design x'
p1418
aS'hey sweetie did you tweet me i thought i saw something from you but when i went to reply it had vanished x'
p1419
aS'im great sweetie how are you'
p1420
aS'recorded this cover for you all a few weeks ago but coming up in a few more weeks is a sexy new original ive written'
p1421
aS'thank you to my new followers youve put a big smile on my face d'
p1422
aS'aww dont worry ill have another party im sure'
p1423
aS'launch party details attached see you there x'
p1424
aS'10 days to go launchparty music greatcompany friends'
p1425
aS'thank you thats so lovely of you to say x'
p1426
aS'night yall \xf0\x9f\x98\xb4\xf0\x9f\x98\x87'
p1427
asS'2013_7'
p1428
(lp1429
S'she is super lovely and the man of the night cure duchenne '
p1430
aS'great event such a good cause your an amazing person carl big thank u to james an the b '
p1431
aS'as if i sed zombie personal joke between me james an lol'
p1432
aS'she is super lovely and the man of the night cure duchenne'
p1433
aS'erm well nervous signing alongside and tonight they are so bloody good\xe2\x80\x9d'
p1434
aS'my damn sausage fingers singing singing singing'
p1435
aS'thank you  x'
p1436
aS'beautiful voice excellent songs stunning'
p1437
aS'see you in a few hours gang'
p1438
aS'evryone go download my girl ep when we first met  its wicked'
p1439
aS'its such a pleasure to meet you x'
p1440
aS'tonight at 7pm \xc2\xa35 entry with live entertainment from x factor and and '
p1441
aS'look who was in the paper xx'
p1442
aS'how and where are you x'
p1443
aS'gawjuss babes x'
p1444
aS'hey aaron xx'
p1445
aS'pls check out track i produced puppet written amp recorded by'
p1446
aS'hey gorgeous \xf0\x9f\x98\x98'
p1447
aS'cant wait for this month'
p1448
aS'just in case you havent heard it '
p1449
aS'just in case you havent seen it '
p1450
aS'my ep when we first met available on itunes folks x'
p1451
aS'pls check out track i produced puppet written amp recorded by'
p1452
aS'pls check out track i produced puppet written amp recorded by'
p1453
aS'pls check out puppet written amp performed by amp produced by me'
p1454
aS'yes you do '
p1455
aS'i need to get more beats over to  shes on fire but wheres my ep digital copy '
p1456
aS'the most beautiful roses ive ever seen thank you baby mwah'
p1457
aS'aaaarh this is sounding amazing wooo hooo x'
p1458
aS'thanks sally i would love that you made me look pretty  xx'
p1459
aS'im great thanks hunnicant wait to work with u again gorgeous girl xx'
p1460
aS'happy times at the studio a brand new version of red carpet coming soon'
p1461
aS'hey hunni love ur profile pic gorgeousness xx'
p1462
aS'thanks sally  how are you xx'
p1463
aS'aww thanks sweetie  xxx'
p1464
aS'new song verse 1 written sunrise'
p1465
aS'its my pleasure really'
p1466
aS'really appreciate your support i just want to say a massive thank you lets go make as much money as we '
p1467
aS'awwww thanks carl told u not 2worry my pleasure an the band deserve the thanks theyl '
p1468
aS'awww a famous carlty lol xxx'
p1469
aS'i was just flicking through a magazine at the salon today will double check what its called if i pass by'
p1470
aS'my baby boy'
p1471
aS'look what i saw today'
p1472
aS'rt absolutely cannot wait for streetdreams2 loving the buzz for it already nice to see our hard work paying '
p1473
aS'very excited to be a part of the event this saturday a great cause looking forward to meeting some great people'
p1474
aS'thank you for doing singing at birthday fundraiser your awesome cant wait to meet you'
p1475
aS'thank you cant wait to meet you'
p1476
aS'will be performing at birthday fundraiser to cure duchenne please show support for an amaz '
p1477
aS'will be performing at birthday fundraiser to cure duchenne please show support for  '
p1478
aS'cant wait x'
p1479
aS'cant wait to do some home diy whilst eating loads of pancakes tonight yum'
p1480
aS'the stunning performing at bdaycharity event this saturday msg me for tickets 075954485 '
p1481
aS'hey sweetie im great how are you'
p1482
aS'long day in the studio today same again tomorrow lalasalama players xxx'
p1483
aS'im sentimental if you know what i mean leonard cohen'
p1484
aS'every day set the simple goal of trying to be more awake and less distracted'
p1485
aS'everybody makes mistakes '
p1486
aS'studio tonight  got a very lot to say to the microphone'
p1487
aS'in a meeting at manchester college grown up stuff using big words and that'
p1488
asS'2013_6'
p1489
(lp1490
S'late night dinner mmm'
p1491
aS'thanks 4 locking this morning big up for blessing the unity studios by coming in for a natter  back tomorrow '
p1492
aS'me and the totally talented on my show this morning \xf0\x9f\x98\x8a'
p1493
aS'aww thanks jade johnson x'
p1494
aS'fyi'
p1495
aS'launch party fun get my ep now on'
p1496
aS'great chat with this morning hope youre tuned in to unity radio right now'
p1497
aS'almost there woo hoo '
p1498
aS'joins bizzy after 11am so lock in from now '
p1499
aS'gorgeous display pic babe xx'
p1500
aS'red wine snuggled up by the fire winding down a long week '
p1501
aS'mad busy show tomorrow morning charlie brown ticket giveaways nandos giveaway guest mix and in the studio w '
p1502
aS'it is d xxx'
p1503
aS'im great babygirl just checking up on you hoping to see you soon xx'
p1504
aS'beaut at one central tomorrow carlton delingo amp stylus spinning the best in house amp rnb till 5am only 1 '
p1505
aS'you ok sweetie pie x'
p1506
aS'this is me today '
p1507
aS'yesterday i had a bizarre and unexpected experience that could just change my life could be nothingbut it could be something '
p1508
aS'ff'
p1509
aS'thanks for the cd eli much appreciated'
p1510
aS'youre welcome thank you for requesting it '
p1511
aS'join me on saturdays weekend wake up as talks about her new ep when we first met'
p1512
aS'haha its never too early for chicken amp cripps everybody tune in this saturday for the breakfast show unityradio'
p1513
aS'so its chicken amp cripps this saturday 9am  12 on the weekend wake up'
p1514
aS'haha ive known about them for years but you rekindled my love for them '
p1515
aS'vapour release olbas tissues are the best thing ever '
p1516
aS'new songs are just little scribbles on paper for now but soon theyll be ready for you all new music'
p1517
aS'it was great thank you good luck with your mixtapealbum its going to be amazing im sure of it'
p1518
aS'yep should be up thursday  will contact u friday to arrange for saturday'
p1519
aS'perfect'
p1520
aS'obrigado'
p1521
aS'brazil what has happened to the skill that you used to posses good on yah england'
p1522
aS'hey how are you its been a while'
p1523
aS'beaut at one central this saturday carlton delingo amp stylus spinning the best in house amp rnb till 5am '
p1524
aS'just paid 60p for skittles i remember when they were 34p daylightrobbery inflation'
p1525
aS'i love them all but u know my faves ive told u b4 lol when we first met n my flaws lt3 thanks so much '
p1526
aS'my pleasure sweet pea glad youre enjoying it  xxx'
p1527
aS'did you receive it'
p1528
aS'goddit  thanks'
p1529
aS'look what i gottttt  x'
p1530
aS'yay so glad you got it sweetie x'
p1531
aS'so i cudnt make ep launch so my girl sent me a copy  what a sweety xx blasting it now xx '
p1532
aS'woo hoooo x'
p1533
aS'so this eps addictive when we first met 3rd play already lool x'
p1534
aS'nope not yet but this guys lazytea break evry hour lolwe get our post like 1pm lol x'
p1535
aS'hahaaaaa'
p1536
aS'resent x'
p1537
aS'joins me this saturday on the weekend wake up to talk about her new ep when we first met'
p1538
aS'morning sweetie has the postman arrived '
p1539
aS'me and doing our thang'
p1540
aS'thank you to everyone who came to support me thanks to gb multimedia for photos xx'
p1541
aS'eli cripps amp jay scorch feeling brand new'
p1542
aS'i posted a new photo to facebook'
p1543
aS'ep launch party  gorgeous friends'
p1544
aS'sent '
p1545
aS'gwenny says hi she must miss you xx'
p1546
aS'yeeup '
p1547
aS'what my big sis is a gemini tooooo no wonder i loved ya so much at bc'
p1548
aS'sending tonight thats a promise '
p1549
aS'aww thats weirdmaybe snow slowed it down '
p1550
aS'gemini gets bored with their surroundings easily they like to change things up'
p1551
aS'as well as wanting thrills and adventure in a relationship gemini also craves security and stabili '
p1552
aS'infection avoid the unhappy and unlucky'
p1553
aS'yayyyy yummy'
p1554
aS'ill bring the machine over to make the diydiva amp the troops some tasty decoratingdelights time to sto '
p1555
aS'so jealous why wasnt i invited x'
p1556
aS'perfectpancakes sometimesyou just dont feel like a proper tea x'
p1557
aS'its like all manchesters artistestalent have upped their levels for 2013 im hearing so much good music and energy'
p1558
aS'thanks bizzy im excited '
p1559
aS'a crap day just got a bit better with confirming she will be on my show on saturday talking all things eli \xf0\x9f\x98\x8a w '
p1560
aS'so to recaptune into saturdays weekendwakeup to hear talk about her new ep when we first met '
p1561
aS'mmwah '
p1562
aS'is my only lady lover hottie'
p1563
aS'my new sounds when we first met ep on soundcloud'
p1564
aS'time for a cuppa tea \xf0\x9f\x98\x8a'
p1565
aS'should be tomorrow sweetie  xx'
p1566
aS'hey would you be able to send me a copy of the ep please didnt get one the other night'
p1567
aS'definitely buzzy '
p1568
aS'of course x'
p1569
aS'invented sex remix trey usher and keri dayum tune'
p1570
aS'morning hows u x'
p1571
aS'im great sweetie how are you x'
p1572
aS'those steaks were beautiful delicious wish wed had them together thanks gorgeous xx'
p1573
aS'hey pretty lady how are you coffee date x'
p1574
aS'morning '
p1575
asS'2013_1'
p1576
(lp1577
g394
aS'2 and half hours till my journey back home begins 2 weeks of adventure will fly by and then ill be back to'
p1578
aS'cannot wait to see you all there x'
p1579
aS'anytime x'
p1580
aS'haha venture out a little for the day '
p1581
aS'me and big sis xxx'
p1582
aS'thank you for the rts x'
p1583
ag394
aS'for details about my ep launch party either join the facebook events page or rsvp vicky to confirm your attendance 21d3338e  07528008838 x'
p1584
aS'i havent forgotten about instagram chill out on dbag thing haha'
p1585
aS'yupxx'
p1586
aS'definition of stupid is knowing the truth seeing the truth but still believing the lies'
p1587
aS'naptime'
p1588
aS'baby ostriches are so cute'
p1589
aS'africa gives me goosebumps twomoresleeps'
p1590
aS'your amazing too hun x'
p1591
aS'my pleasure im a big fan x'
p1592
aS'iconx anthem release '
p1593
aS'loving this video '
p1594
aS'hats off to the best'
p1595
aS'you should get to ep launch party in jan she is going to be big 2013theyearoftheeli'
p1596
aS'if youre on facebookrsvp to the launch party event page'
p1597
aS'dingdong hangovercured all is well in the world once more x'
p1598
aS'cant wait to see you all at my launch party this will be a chilled out event just some great company and great'
p1599
ag394
ag394
aS'slowly nodding off right now last night was alot'
p1600
aS'thank you sweetheart happy new year to you too x'
p1601
aS'hangover cure'
p1602
aS'adventure is out there'
p1603
aS'watching up i love this movie cute'
p1604
aS'nye with new yr resolution  not to mix my drinks lightweight thanks for a cracking eve lady 2013 x '
p1605
aS'one for the family photo album slicksisters 2013 x'
p1606
aS'aww so great to have started the new year with you yaya x'
p1607
aS'happy new year xxx'
p1608
aS'happy new year honey  x'
p1609
aS'happy new year '
p1610
aS'happy new years'
p1611
aS'happy new year plan for 1st day of 2013detox '
p1612
aS'are you in manc'
p1613
aS'oh wowwhich one will you choose cant you ask for one to reschedule x'
p1614
aS'last day in 2012 time to paint the town red wooo hoo'
p1615
aS'if you cant trust anything else trust your instincts'
p1616
aS'sometimes the road bares no direction just rely on your heart to lead the way'
p1617
aS'ep comes with bonus track brand new\xe2\x80\x9dlooking forward to hearing it '
p1618
aS'happy new year xxxxx'
p1619
aS'rhiannawhitney in the making boom bootay ep comes with bonus track brand new\xe2\x80\x9d'
p1620
aS'haha bootay x'
p1621
asS'2013_3'
p1622
(lp1623
S'beyonce  sweet dreams  eli cripps cover'
p1624
aS'gemini can be all the right things to you '
p1625
aS'bad times '
p1626
aS'me and mr kendrick lamar sure unbelievable flawless gig mindblown bar risen amazing'
p1627
aS'my mum said my neck has grown what sort of statement is this pls'
p1628
aS'well done sweetie x'
p1629
aS'aagmlive 240213 feat'
p1630
aS'awesome'
p1631
aS'thats great cant wait to hear it '
p1632
aS'you back from ur trip ill send something over to ya so you can have a listen 0 hope all is good x'
p1633
aS'thanks darling yay xx'
p1634
aS'karmas a bitch n shes coming for you  loveee enough babe x'
p1635
aS'guess im not too tired to share this with you guys i wrote this song after having a really frustrating dayenough'
p1636
aS'yupexhausted how are you x'
p1637
aS'my new sounds enough on soundcloud'
p1638
aS'night folks tired'
p1639
aS'haha eddie was awesome but hwoarang was siiiick tekken 3'
p1640
aS'hey its getting there  ep is called when we first met x'
p1641
aS'im back feeling the holiday blues in a big waybut counting down the days till i get to see you all at the launch party x'
p1642
aS'ff my faves '
p1643
aS'i just saw your cover to we found love and watched more of ur videos after your voice is amaaazziiinggg keep it up '
p1644
aS'the bcc phenomenon and me '
p1645
aS'fun night on the beacheven though i got chewed by mosquitos through my trousers bloodthirstybeasts haha'
p1646
aS'hey you cant wait to see you at the end of the month wooo x'
p1647
aS'gorgeous display pic babe xx'
p1648
aS'hey sweetie pie how are you xxx'
p1649
aS'hey babygirl feels like weve not spoken for ages hows 2013 treating you so far mwah x'
p1650
aS'oh haha that makes more sense hes looking pretty brown x'
p1651
aS'ummok '
p1652
aS'great night with hubby x'
p1653
aS'sorryit wasnt intentional after enduring several english winters and summersi figure i deserve some real sun haha'
p1654
aS'its a good feeling when you get great feedback about yourself someone told me i liven their day up when times are hard aw'
p1655
aS'awe my little sisters singing at the o2 arena tomorrow \xe2\x98\xba\xf0\x9f\x98\x8e'
p1656
aS'basking in the sun like the mara crocsexcept in diani beach'
p1657
aS'good luck sweetie x'
p1658
aS'one exam down six more to go'
p1659
aS'gotta get straight onit'
p1660
aS'i need to master the one liner subtle insult like maggie smith on downton abby'
p1661
aS'nope'
p1662
aS'good times become good memories bad times become good lessons'
p1663
aS'let me sleep this hungover over'
p1664
aS'this sat every week we get busier an busier dnt miss out msg me for tables amp glist 075954 '
p1665
aS'looking up at the monkeys in the trees'
p1666
aS'a little difficult to see but they are there'
p1667
aS'thank you sweetie xx'
p1668
asS'2013_2'
p1669
(lp1670
S'happy timesgoing for dinner on the beach yay'
p1671
aS'back next sat xx'
p1672
aS'thanks sweetie pie miss you looking forward to catching up yay xxx'
p1673
aS'delighted to hear the fab ia news workhardplayharder well deserved celebrations when u return pretty lady '
p1674
aS'diani beach is paradise'
p1675
aS'hey bizzy how are you doing'
p1676
aS'ff ones to watch this year '
p1677
ag394
ag394
aS'im literally getting eaten by these mosquitosdamn they must recognise fresh bloodim eating garlic everyday from now on haha'
p1678
ag394
aS'yup its amazing  how are you sweetie x'
p1679
aS'just had the best strawberry jam ever ingredients strawberries lemon and sugar no artificial stuff preservatives nada realfood'
p1680
aS'awesome times love you soph x'
p1681
aS'music video for when we first met coming soon'
p1682
aS'you dont have to come and confess were looking for you we gon find you bedintrudersong hahaaaa drunkness kenya'
p1683
aS'so excited to see you all at the launch party cant wait thurs 31012013 xx'
p1684
aS'omg thats amazing '
p1685
aS'you lucky thing'
p1686
aS'having such an amazing time sophies family are so beautiful  kenya'
p1687
aS'hi tried finding you on facebook but not having much luck'
p1688
aS'still living and breathing music whilst on holidaygetting cd printed and ready for launch party x'
p1689
aS'i accept and send back x2'
p1690
aS'hi sweetie how are you please say hi to everyone at work for me xxx'
p1691
aS'back in nairobilake naivasha tomorrowthen coast the masai mara was just as breathtaking as it was when i was 12 living in kenya '
p1692
aS'it was definitely worth waking up at 6am 3 lionesses sitting in the shade 3 metres from us'
p1693
aS'our masai guide lolo tells us we are very good animal trackers lion adventure'
p1694
aS'sending you all hugs and kisses xx'
p1695
aS'thank you sweetie x'
p1696
aS'thanks ajay its frikkin amazing james and i saw our first leopard today with 2 gorgeous cubs x'
p1697
aS'just come across your someone like you cover\xe2\x80\xa6 wow'
p1698
aS'hi hope your new year has got off to a great start mine started with landing in nairobi sophie picked me up im now in the mara happy'
p1699
asS'2013_9'
p1700
(lp1701
S'quick trip to brom got music from for '
p1702
aS'keep your eyes on the dance floorx'
p1703
aS'my babyboy x'
p1704
aS'im cominggggg'
p1705
aS'haaa dam right girlsincharge femaleboss'
p1706
aS'james is here stealing ur mo\xc3\xabt lol quick'
p1707
aS'haha hes no longer missing in action expect to see some crrrraziness x'
p1708
aS'i think cos is here hes being a good boy noyourplace girlsare '
p1709
aS'eli cripps looks and sounds like sade\xe2\x80\x9d'
p1710
aS'eli cripps  red carpet  revisited acoustic'
p1711
aS' xx'
p1712
aS'lol sneaked mi shoe off and scratched it then smoked a cigarette itwasgoodforme'
p1713
aS'hey babygirl you are finally using your twitter d'
p1714
aS'that hot shower has sent me under weak legsback to bed with some paracetamol '
p1715
aS'brave girl i could never do that scardy cat'
p1716
aS'thanks sweetie x'
p1717
aS'omg this episode of embarrassing bodies is intense if you hadnt thought of abstinence before do it now casual sex is very bad '
p1718
aS'who knew that salmon fishing in the yemen could be a good day time watch almost cried at one point'
p1719
aS'hi sweetie im at home ill and bored how are you x'
p1720
aS'there are some gorgeous girls out therebut i have to ask are you all morphing into the the same person why does everyone look the same'
p1721
aS'african countries look up to kenya so we should not fail when it comes to keelections13'
p1722
aS'hows that foot coming along bizzy lol'
p1723
aS'this is a tune real rampb that makes you feel jojo  too little too late'
p1724
aS'yes i just referred to myself as cinderella whatofit'
p1725
aS'on the bus with an itchy foot sending me insane needtotakemyshoeoff'
p1726
aS'happy'
p1727
aS'mocha from starbucks to start the day then off to selfridges for hairampmakeup '
p1728
aS'completely forgot about american boy tellemwahgwahblud'
p1729
aS'no such thing as a lie in when there is shit to be done'
p1730
aS'daydreaming can help gemini deal with reality'
p1731
aS'gemini are not easily influenced by rumors they believe in their friends'
p1732
aS'fingers crossed for you sweetie x'
p1733
aS'blasting me some mariah carey 90s tunes in the car and weirdly not ashamed to admit it'
p1734
aS'thank you for all the lovely compliments ive received about try for your lovetheres more where that came from x'
p1735
aS'hey seidu how are you x'
p1736
aS'great advice from a special friend x'
p1737
aS'being ill sucksi cant sleep eat or do anything you know somethings really wrong with you when you miss being at work bad times'
p1738
aS'lovely little babies elephants favourite kenya'
p1739
aS'lc  great words poetry is just the evidence of life if your life is burning well poetry is just the ash leonard cohen\xe2\x80\x9d'
p1740
aS'manchester talent was going off last night makes me proud to be from manchester was reunited last nig '
p1741
aS'be happy with the little that you havethere are people with nothing that still manage to smile'
p1742
aS'janet jackson best hits album going offf ohmygoodnessss '
p1743
aS'strum me like a guitar plug blow up my amplifier when you hear some feed back keep going take it higher crank it up g '
p1744
aS'mcrmovements'
p1745
aS'the world belongs to the people who say \xe2\x80\x9ci can\xe2\x80\x9d'
p1746
aS'aww thanks kayne more songs of the same genre coming up in april x'
p1747
asS'2013_8'
p1748
(lp1749
S'at lovin the acts'
p1750
aS'well done babe '
p1751
aS'are you coming to mattampphreds afterwards'
p1752
aS'just double checking whether i can make it by 5 boo xx'
p1753
aS'where it all started africa home african hotties kenyanprincess haha xx'
p1754
aS'speaking of smoothmy boy is the smoothest rapper ive heard in the uk standout from the crowd jay '
p1755
aS'now onto mary j blige and joerampb never sounded smoother'
p1756
aS'going back to curly'
p1757
aS'where it all started africa home'
p1758
aS'how much did they have to drink lol james said you kept telling him to go home haha'
p1759
aS'now listening to owl cityfireflies aww i feel like a teenager in isk kenya again'
p1760
aS'oh lord hahaaaa'
p1761
aS'sounds very interesting email me at'
p1762
aS'today ive been listening toleonard coheneta jameswande coalsader kellyits no wonder i find it hard to explain my musical influence'
p1763
aS'workout done laundry done dishes done cat fednow time for a relaxing bath before getting ready for tonight woooo'
p1764
aS'sounds interestingwhat about '
p1765
aS'love this picture tosin gwen and little me '
p1766
aS'haha love this d'
p1767
aS'i love those too thanks kayne x'
p1768
aS'yup its called brand new lol'
p1769
aS'my beautiful seble missing you more each day time really doesnt heal all wounds'
p1770
aS'cheeky babyplaying in newspaper spooky eyes'
p1771
aS'xx buy now on itunes elicripps ep xx'
p1772
aS'haha aww  which song'
p1773
aS'aww i bet he sang it beautifully haha x'
p1774
aS'carlton was singing ur song in the shower before lol had ur cd on in the car all week lol xx \xe2\x9d\xa4'
p1775
aS'ive seen this before but is so great that i have to watch it again'
p1776
aS'take the wheel take control of your life'
p1777
aS'you can do it '
p1778
aS'i was never wrong '
p1779
aS'as if fans r camping outside the men arena wow hes takin over the world'
p1780
aS'do not go past the mark you aimed for in victory learn when to stop'
p1781
aS'hearing your voice would be bliss right now'
p1782
aS'my plans to have a diy pamper session have gone completely out the window im just a couch potato for the rest of the night chillin'
p1783
aS'coming up with red carpet soon to be releasedbecause of you wrote this last year on happy day spring tune'
p1784
aS'having some soup for my fever jazz freestyle inspiration'
p1785
aS'time for a quick cup of good ol english breakfast tea  which is actually kenyan tea happy times'
p1786
aS'tracks going to be massive just warming up the mic now yep bcc winning lol'
p1787
aS'epic winning lol'
p1788
aS'getting into the mindset of a bonnet car chick bcc'
p1789
aS'to those who arent quite sureyes those are my legs in the red carpet cover image haha'
p1790
aS'on my way to studio to record on his new track bcc'
p1791
aS'just singing my verse over and overyoure going to love it '
p1792
ag394
aS'hi vikasssss x'
p1793
aS'hi rachel its eli x'
p1794
aS'hi david how are you ill be giving you and a call later today '
p1795
asS'2013_17'
p1796
(lp1797
S'ff'
p1798
aS'its friday follow theese amazing people'
p1799
aS'ff'
p1800
aS'great time basement live tonight'
p1801
aS'morning '
p1802
aS'thank you'
p1803
aS'good luck'
p1804
aS'really excited to be performing at bassment live tomorrow night goodtimesahead'
p1805
aS'yay its going to be an awesome night'
p1806
aS'i cant wait for you to hear it '
p1807
aS'excited to hear it bring it on '
p1808
aS'had an exhausting couple daysmusic is almost ready night x'
p1809
aS'ah shucks'
p1810
aS'official brand new vid tynee jayscorch tizz nolookingback \xe2\x80\xa6'
p1811
aS'lol people are funny'
p1812
aS'i just burnt a gazillion calories shaking my booty to the afro house buruntuma set you cant help but dance africa'
p1813
aS'thats awesome'
p1814
aS'spontaneity over predictability any day'
p1815
aS'shall we plan a meet this week x'
p1816
ag394
ag394
aS'meet we will be working together x as agreed will arrange a meet\xe2\x80\x9d hi '
p1817
aS'recording because of youmy manc accent is well and truly coming outintit haha manchester funtimes studio'
p1818
asS'2012_52'
p1819
(lp1820
S'thank you x'
p1821
aS'im in stitches bigfatquizoftheyear'
p1822
aS'you can\xe2\x80\x99t change the world but you can change the way you look at it'
p1823
aS'1 more day to go then its our year ycht'
p1824
aS'yes you will x'
p1825
aS'ep comes with bonus track brand new'
p1826
aS'seen it  x'
p1827
aS'thank you for the retweets everyone xx'
p1828
aS'thanks gorgeous xxx thank you to you and wes for our lovely christmas prezzie xxx'
p1829
aS'yay x'
p1830
aS'eli cripps ep launch party thursday 31012013 one central manchester champagne reception live performances'
p1831
aS'good morning \xe2\x9d\xa4last sunday in 2012what are you doing'
p1832
aS'aww thursday is the new friday '
p1833
aS'haha weljel d'
p1834
aS'my launch party date is now confirmed 31st january 2013 at one central club manchester sign up to for tickets xxx'
p1835
aS'super excited for going to kenya in 5 days home wildlife sun food culture beach dance friends'
p1836
aS'happy birthday x'
p1837
aS'1 more sleep until the big one ppl i will b at one central all afternoon tomorrow with tickets tables limited h '
p1838
aS'djing at for nye rap  90s rnb  house  garage  whatever the fuck else i want 93am free entry  '
p1839
aS'but its like soon as i cum i come to my senses lil wayne gives me toooooo much jokes'
p1840
aS'would you be free to dj on the 31st jan for my launch party'
p1841
aS'hey are you free on the 31st jan was hoping you might wanna do me favour haha x'
p1842
aS'its at the end of jan  will publish full details next week xx'
p1843
aS'how are you'
p1844
aS'its good so farbusy planning the launch party xx'
p1845
aS'i do try '
p1846
aS'yaaaaay aint u good to us  x'
p1847
aS'slowly but surelythe cogs are turning'
p1848
aS'cant wait  x'
p1849
aS'no matter what height of success you achieveyou must always remember that youre only human'
p1850
aS'my ep will be available to preview on my website 2 weeks before the official launch datesign up to my mailing list for all the details xx'
p1851
aS'agatha christies poirot i love trying to solve the mystery secretdetective'
p1852
aS'ok thats great'
p1853
aS'ill tell him now x'
p1854
aS'i found you'
p1855
aS'great sweetie how about you'
p1856
aS'haha did you over eat too'
p1857
aS'green tea detox after all that food'
p1858
aS'cannoteatanymore stuffed'
p1859
aS'so happy with my tea pot and cup  christmaspresent'
p1860
aS'from our lovely nephews xxx'
p1861
aS'family christmas'
p1862
aS'merry christmas \xf0\x9f\x98\x98 \xf0\x9f\x8c\x9f \xf0\x9f\x8e\x84 \xf0\x9f\x8e\x84\xf0\x9f\x8e\x84 \xf0\x9f\x8e\x84\xf0\x9f\x8e\x84\xf0\x9f\x8e\x84 \xf0\x9f\x8e\x84\xf0\x9f\x8e\x84\xf0\x9f\x8e\x84\xf0\x9f\x8e\x84 \xf0\x9f\x8e\x84\xf0\x9f\x8e\x84\xf0\x9f\x8e\x84\xf0\x9f\x8e\x84\xf0\x9f\x8e\x84 \xf0\x9f\x8e\x81\xf0\x9f\x8e\x81\xf0\x9f\x8e\x81'
p1863
aS'merry christmas'
p1864
aS'merry christmas to all my friends amp their families'
p1865
aS'merry christmas everyoneim my new onesy leaning back haha'
p1866
aS'merry christmas have a great day  x'
p1867
aS'merry christmas baby girl  x'
p1868
aS'mwah x'
p1869
aS'merry christmas everyone wishing you a glorious day xx'
p1870
aS'thank you x'
p1871
asS'2012_50'
p1872
(lp1873
S'yet another great tweet  haha'
p1874
aS'does the damn thang every time aagmlive'
p1875
aS'haha '
p1876
aS'be careful who you open up to only a few people actually care the rest just want to have something to gossip about'
p1877
aS'now your just somebody that i used to know'
p1878
aS'my watch has no battery so now it is just a bracelet fail'
p1879
aS'if only common sense was more common place'
p1880
aS'walking across market street is like being on total wipeout jheeeeze'
p1881
aS'this is one of the strangest but most amazing experiences'
p1882
aS'put my earphones in and just zone out '
p1883
aS'yal we need to pray this cant keep happening  my mama always said  if u think youve seen it all just keep on living'
p1884
aS'ms hillie is an absolute doucheface'
p1885
aS'singing at the church hall was beautiful being in such lovely company was a blessing truly'
p1886
aS'watching the best film ive seen all year again yup beats batman  the help'
p1887
aS'thank you to all my new followers on twitter instagram facebook and youtube youve been so encouraging lt3 xxx'
p1888
aS'awwww bet itl sound beautifull babe good luck xx'
p1889
aS'thanks glad you have faith in me '
p1890
aS'amazing song youll smash it'
p1891
aS'thank you sweetie xxx'
p1892
aS'silent night is so much more beautiful than i remember lets hope i can do it justice today in less than 3 hours ill be singing it'
p1893
aS'singing christmas carols at church this eveningsolo im a little nervous i have to admit'
p1894
aS'ooh sounds tempting xx'
p1895
aS'hey how are you got your messagejust been really busy got a million things happening at once lets talk in the new year'
p1896
aS'every day do something that will inch you closer to a better tomorrow'
p1897
aS'let the music do the talking'
p1898
aS'decided i need more musicim not a very patient gal lol x'
p1899
aS'aww its coming very soon darling x'
p1900
aS'you have always been x'
p1901
aS'im good sweetie how are you'
p1902
aS'i had to go crazy to love you leonard cohen'
p1903
aS'you told me again you preferred handsome men but for me you would make an exception leonard cohen'
p1904
aS'homesweethome'
p1905
aS'dear god thank you for food health and shelter amen xx'
p1906
aS'enough is enough im ready to march riot whatever if we cant protect our children then what good is any of it'
p1907
aS'yup have you'
p1908
aS'ohh your kinda cute'
p1909
aS'tonight is looking like a messy 1 ppl 5 djs playing the best in deep house for tables amp glist contact 07595 '
p1910
aS'ff \xf0\x9f\x92\x97'
p1911
aS'rt ff '
p1912
aS'ff people with heart and passion '
p1913
aS'some ff 4 some talented mofos '
p1914
aS'thats probably a good idea '
p1915
aS'a lot of positive feedback about my theatre play 12 pages and counting lets hope the rest will be as good'
p1916
aS'so infuriating being a subject to itand more infuriating seeing someone else go through it'
p1917
aS'there are few things i hate more than powerhunger bullies its just a disgusting display of their own fears of inferiority'
p1918
aS'i like big butts and i cannot lie do you these fakebum pants newin today will be right up your street lol'
p1919
aS'ready as ill ever be to face this weather'
p1920
aS'i swear down i have more spelling mistakes with the iphone than ive had hot dinners touchscreendummy axx'
p1921
aS'lol okso im guessing it didnt turn out too well'
p1922
aS'i love soulrnb amp pop music'
p1923
aS'haha you never know you might be the guy that brings her sexy side out give the benefit of doubt'
p1924
aS'im a good girl i usually dont do this  yeahhhhh right \xf0\x9f\x98\x82\xf0\x9f\x98\x82\xf0\x9f\x98\x82'
p1925
aS'friends are the family we choose'
p1926
aS'walking to work gives me head space lotstothinkabout'
p1927
aS'aww theres no crazy rush the end of next week would be fine  thank you xx'
p1928
aS'morning thank god its friday wooooooo'
p1929
aS'work then studio for recording then just refining all my songs and getting everything ready for before christmashow are youx'
p1930
aS'oh crap sorry tony you dont look shitfaced i thought that was toms comment lol'
p1931
aS'ur dp is soooooo hot '
p1932
aS'i know right toms pic is sizzling haha thanks babygirl and look whos talking your pic is sexyfied'
p1933
aS'very productive day but exhausted time to wind down and watch brave im such a big kid love animated movies'
p1934
aS'so do i haha in fact so do you jades concealing it well'
p1935
aS'true dat x'
p1936
aS'wow happy birthday  wooooo and i hope you get better soon xx'
p1937
aS'wish you were here for it tomorrow its so your kind of thing  hope the troops are being good x'
p1938
aS'that night was so much fun totally worth the hangover on monday morning lol x'
p1939
aS'whatever you chase will run away from you so stop chasing success and realize you already have it all'
p1940
aS'be encouraged stay on your hustle you can\xe2\x80\x99t fail until you quit'
p1941
aS'your not all that'
p1942
aS'cant wait to have lil kids of my own yepsaidit'
p1943
aS'i really cant play computer games anymore i do try though'
p1944
aS'thank god for that i would resort to boiling water in a pan to have a cup of tea'
p1945
aS'my broken kettle isnt broke yay'
p1946
aS'were all african'
p1947
aS'weakness of attitude becomes weakness of character  albert einstein'
p1948
aS'why'
p1949
aS'are you having a good time stace x'
p1950
aS'thank you so much for your lovely email today sweetie pie mwah x'
p1951
aS'everythings good just a little exhausting trying to get everything done before christmas how are you '
p1952
aS'thank you im really grateful  x'
p1953
aS'its the auditions for the voice today at mediacity going to try and blag my way in lol'
p1954
aS'we have a lot of children dying unnecessarily every day every minute ever second '
p1955
aS'taken by x'
p1956
aS'oh nooo hate it when that happens'
p1957
aS'however im up and at em  i speeeeet in the faces of negativity and adversity mexican voice'
p1958
aS'when u forget your headphones fail '
p1959
aS'whatever happened last nite was not sleep '
p1960
aS'today presents a fresh opportunity to replenish your mind body and soul i for one plan 2 take advantage do you'
p1961
aS'im a grumpy bear this morning'
p1962
aS'do it like a dude'
p1963
aS'cant beat ending the day with some good news feeling positive '
p1964
aS'what do you do when you reach your life goal  embrace it '
p1965
aS'what music is no no to have sex to has anyone had sex to dubstep haha thats must be awkward '
p1966
aS'hi everyone what a busy start to the day its been non stop phew'
p1967
aS'tune'
p1968
aS'gemini women rarely show any anger they tend to bottle up their feelings until they explode fb'
p1969
aS'gemini women are often generously optimistic'
p1970
aS'that shit crayfish'
p1971
aS'nooooooooooo'
p1972
aS'practicing the two covers ill be filming tomorrowtrying to remember the lyrics its so much easier when ive written the song myself lol'
p1973
aS'bouncing vocals in logicprepping for next weeks recording \xe2\x9c\x8c'
p1974
aS'at the more magazine shoot getting dolled up with a glass of bubbles oh daaahling \xf0\x9f\x98\x98'
p1975
aS'scotlands calling'
p1976
aS'no dont die '
p1977
aS'dont make excusesmake progress'
p1978
aS'aww beautiful girls x'
p1979
aS'awwww 2 of my fave girls lol great pic x'
p1980
aS'aww'
p1981
aS'haha okdont worry no conspiracy going on '
p1982
aS'fun time with'
p1983
aS'thats great thanks so much just something short would be wonderful'
p1984
aS'for guestlist christmas kinda vibe with our usual good vibes is what its all about '
p1985
aS'uh oh must be pretty bad haha'
p1986
aS'morning'
p1987
aS'i am not scared to be a popstar in england anymore thats where the raasclaat money is u nutters lol '
p1988
aS'morning beautiful people '
p1989
aS'that was a gooood napnow for ice cream and music'
p1990
aS'i got a plan'
p1991
aS'i got this issue where i see someone in a green tshirt and i get hungry for peas'
p1992
aS'this feels like it was ages ago how time has flown in 2012'
p1993
aS'\xf0\x9f\x98\x98'
p1994
aS'oh no '
p1995
aS'nap time yes'
p1996
aS'behind the pain someone is rejoicing leonard cohen'
p1997
aS'just got a lovely phone call from see you next week x'
p1998
aS'african print hot water bottles from'
p1999
aS'strong dislike for pedestrians who have an invincibility complex human vs car wont end well greencrosscode'
p2000
aS'when you feel the energy shift amp u know the stars are aligning amp the universe is preparing when u let go amp '
p2001
aS'nappies and beats'
p2002
aS'im honored that people are lovin the whole akgirlonfire album so thankful for all your kind words'
p2003
aS'amen just like being called a genius icon amp diva its best when someone else assigns that title\xe2\x80\x9d'
p2004
aS'why '
p2005
aS'i think riri has posted some pics up just for you haha'
p2006
aS'whos that huge lollipop head next to you in the dm article haha you look stunning babe x'
p2007
aS'im good toojust missed you and wanted to check up on you xx'
p2008
aS'having a staring competition with a seagull'
p2009
aS'grab the new single here'
p2010
aS'hey babygirl how are you sings wherehaveyouuuubeen '
p2011
aS'haha '
p2012
aS'lmao me too no sleep crew 0 xxxx'
p2013
aS'hi i have a favour to ask you if you would be so kind '
p2014
aS'amazing songwriter'
p2015
aS'one listen to bruno mars new record can tell why its a hit  great song  love hes vocal '
p2016
aS'hungover lol  x'
p2017
aS'you must be exhausted it was so lateearly when i got home i figured i might as well stay up its going to be a tough day x'
p2018
aS'haha you crack me up sophmingle'
p2019
aS'im great darling how are you'
p2020
aS'mmmwah'
p2021
aS'mi amore x'
p2022
aS'love you xxx'
p2023
aS'lovely pic quality haha'
p2024
aS'and another artistic aka blurry pic haha'
p2025
aS'toms terrible photography skills artistic lol'
p2026
aS'me and xx'
p2027
aS'dont apologise i was in awe haha'
p2028
aS'has anyone elses twitter pics off instagram vanished '
p2029
aS'get on it x'
p2030
aS'thats just how you roll'
p2031
aS'yeah yeah get over it lol justkidding'
p2032
aS'was so lovely to see you last night sweetheart cant wait for you and heba to come up xx'
p2033
aS'mwah had so much fun with you last night sweetie x'
p2034
aS'after looking tres chic last night in a gorgeous outfitwhy oh why post up pictures with no knickers on '
p2035
asS'2012_51'
p2036
(lp2037
S'be good to people in this life karma is alive and that is a fact x'
p2038
aS'will do x'
p2039
aS'im great babygirl hope you are too would love to see you in the new year  mwah'
p2040
aS'lovely christmas lovely christmas'
p2041
aS'hey sweetie pie merry christmas x'
p2042
aS'both im a gemini '
p2043
aS'thanks becky would be so happy to see you there xx'
p2044
aS'hope you can make it babe ill know the date in january itll be very soon after the ep release on itunes on the 27th jan x'
p2045
aS'thanks joel have a great christmas and happy new year xx'
p2046
aS'thank you sweetie it was great xxx'
p2047
aS'thanks for the rt becky hope to see you there ill let you know as soon as i have the date confirmed  happy christmas x'
p2048
aS'thanks for the rt darling hope to see you at my launch party date coming soon x'
p2049
aS'thanks for the rt when the date for the launch party is confirmed i would love for you to come x'
p2050
aS'sign up to my mailing list at for news on my launch party and live performances x'
p2051
aS'project eli cripps ep launch party is fully under way yes'
p2052
aS'purple rain purple rain what a tune prince'
p2053
aS'thanks cutie x'
p2054
aS'im great sweetheart just waiting to get on stage how are you x'
p2055
aS'love you aaron xx'
p2056
aS'twerds please check my \xc3\xbcber talented friends new website also follow her on here s '
p2057
aS'mwah x'
p2058
aS'thank you darling xx'
p2059
aS'please go and check out the very talented website  looking amazing girl'
p2060
aS'my baby sis sandy pants is the sweetest ever'
p2061
aS'rehearsals for tonights live showcase at the deaf institute good times ahead'
p2062
aS'thank you so much for your kind words on love you both x'
p2063
aS'wwwthisiselicouk'
p2064
aS'wwwthisiselicouk'
p2065
aS'no where near set for christmas haha what about you x'
p2066
aS'ff lt watch out for this girl talented ep out next month get following x'
p2067
aS'aww thanks sweetie xxx'
p2068
aS'ff my fave girls loveeee those mo '
p2069
aS'thank you so much to lee smith david lee bright rain photographics gary brown gb multimedia blueprint studios and kenzo xylo'
p2070
aS'thank you to david lee for taking such amazing shots for my website xx'
p2071
aS'now live stay tuned for my ep release on 27012013 next one will feature red carpet with a full band x'
p2072
aS'now live check out my website and stay tuned for my ep release on 27012013 work on my 2nd has already started'
p2073
aS'aww small towns are the best personalised customer service from my bank from a lovely lady ilovewales'
p2074
aS'thank you   xxx well have to meet up soon so i can give you a copy of my ep x'
p2075
aS'i knew youd like that  xx'
p2076
aS'just for you this christmas'
p2077
aS'please come along and join us all from about 8pm on sat ill be singing tears of a clown smokey robinson cant wait woooo'
p2078
aS'last night i was at blueprint studios rehearsing for their 10th anniversary bash this saturday night at the deaf'
p2079
aS'talent is god given be humble fame is mangiven be grateful conceit is selfgiven be careful'
p2080
aS'i thought me and james were your favourite \xf0\x9f\x98\x9c'
p2081
aS'morning guys we completely forgot to share our weekly roundup with you hope you find some interesting '
p2082
aS'chillin'
p2083
aS'a good life is when you smile often dream big laugh a lot and realize how blessed you are for what you have'
p2084
aS'last school day of the term last school day of the calender year and maybe the last few hours on this earth lets make it '
p2085
aS'morning'
p2086
aS'thy kingdom come thy will be done on earth as it is in heaven \xe2\x9d\xa4\xef\xb8\x8f'
p2087
aS'4 days till christmassssss \xf0\x9f\x98\x81\xf0\x9f\x8e\x85\xf0\x9f\x8e\x84\xf0\x9f\x8e\x81\xf0\x9f\x8e\x89'
p2088
aS'\xe2\x80\x9clooked through the paper  makes you want to cry  nobody cares if the people  live or die\xe2\x80\x9d leonard cohen'
p2089
aS'oooh and shoutout to the world for not ending'
p2090
aS'bangers amp mash'
p2091
aS'has outdone himself yet again with the red carpet cd artwork'
p2092
aS'premince pie days'
p2093
aS'mmmmm all mine haha just need a cuppatea'
p2094
aS'5 days till christmas 5 weeks till my ep launch party music funtimes'
p2095
aS'christmas dolots of food drink and fun then straight to studio for rehearsals work play sing la la la'
p2096
aS'christmas do with my lovely work mates'
p2097
aS'night night sugar bun x'
p2098
aS'ineedsleep'
p2099
aS'omg 6 days till christmas day notprepared'
p2100
aS'just read the press on instagram owning rights to users photos'
p2101
aS'finishing touches'
p2102
aS'no negativity around here  were all about loveeeeeeee x'
p2103
aS'my man keep one cold for us'
p2104
aS'positivity is the foundation of greatness but some of the best music comes from pain'
p2105
aS'praise talent always and give credit where credit is due some incredible talent in the uk'
p2106
aS'i see the future and the future looks good gonna put my all into it'
p2107
aS'2012hastaughtme never give up'
p2108
aS'love is powerful'
p2109
aS'yesss ur rite lol  look forward to it xx'
p2110
aS'thanks kaps \xf0\x9f\x98\x8axx'
p2111
aS'you deserve everything thats coming your way extremely humble and hardworking and im a true supporter of '
p2112
aS'you defo did hun i remember it to this day you came in the studio and i remeber thinkin this girl is an am '
p2113
aS'mmmmm that food was so good you have outdone yourself xx'
p2114
aS'i know it will be worth the wait congrats babe x'
p2115
aS'like a fish to wateri remember stepping into studio in dec 2011a bit nervous but i did the damn thing'
p2116
aS'me and lee doing our thing'
p2117
aS'and ur letting us wait till nxt year lol  congrats bbe  x'
p2118
aS'oioi look at your profile pic you hot girrrrrrrrl thats my big sis x'
p2119
aS'haha thanks babygirl  xxxx'
p2120
aS'thanks bizzy  x'
p2121
aS'aww thatll make it all the more exciting when you receive your personal signed copy in the post sweetie x'
p2122
aS'release date 27012013'
p2123
aS'after going through the stages of creativity development then criticism going through every thing a million'
p2124
aS'my sister gwen is cooking me some yummy nigerian food to celebrate completing my first ep yay cant wait for tonight d'
p2125
aS'do you not think so far ahead cos ive been thinking about forever tune'
p2126
aS'uk has raw talent i appreciate most peoples grind all im saying is \xf0\x9f\x92\xaf\xe2\x9d\xa4'
p2127
aS'aagmlive mixtape mixed by  2312 feat '
p2128
aS'morning '
p2129
aS'thank you im really happy got lots more music in the pipeline but this is just the start  x'
p2130
aS'looking forward to the ep youve gone so far with music proud of you \xe2\x9d\xa4'
p2131
aS'thank you gorgeous x'
p2132
aS'eaten far too much chocolatei feel sick'
p2133
aS'quick grab them before theyre all gone'
p2134
aS'previews available before christmas d'
p2135
aS'my ep when we first met is complete 4 tracks plus a bonus track just for you release date 27012013'
p2136
aS'you opened the night brilliantly'
p2137
aS'same here '
p2138
aS'ep complete with bonus track wooooo not long now before you all get to hear it'
p2139
aS'lunch break getaway to the studio last minute touches ep'
p2140
aS'this bus route is nonsensical grrr'
p2141
aS'sunday roast with family yesterday was amazing julie your potatoes are soooo goood yum xxx'
p2142
aS'shout out to doing an impromptu performance sounded sick represented on the decks too had '
p2143
aS'lol  serious tho u are quality and your performance was siiick '
p2144
aS'thank you  x'
p2145
aS'thank you for sharing your talent with us great en '
p2146
asS'2013_37'
p2147
(lp2148
S'at the o2 about to see my all time favourite artist leonardcohen cant believe it'
p2149
aS'j im so sorry i didnt get back to you i meant to but got caught up in other plans how was your night x'
p2150
aS'looks yummy eli moo x\xe2\x80\x9d it was mmm x'
p2151
aS'haha yes of course '
p2152
aS'someones been pumping it up hotness'
p2153
aS'heres a little something i made earlier mmm lemon cake with extra icing for my boo'
p2154
aS'live showcase  the official launch of elis red carpet ep  new songs and special guests 4th\xe2\x80\xa6'
p2155
aS'love you pretty face xx'
p2156
aS'ff my faves'
p2157
aS'is my baby mwah x'
p2158
aS'allaboutgoodmusics photo'
p2159
aS'this is the funniest thing ever ste you are hilarious \xf0\x9f\x98\x82\xf0\x9f\x98\x82'
p2160
aS'youre right crown i do'
p2161
aS'\xf0\x9f\x98\x82\xf0\x9f\x98\x82'
p2162
aS'hahaha ste is obsessive beyond comprehension lol'
p2163
aS'taking time out to laugh during the tryforyourlove video with director mike yeung'
p2164
aS'redcarpet with video director amir shah working very hard'
p2165
aS'2012'
p2166
aS'some of these captions people post are sooooo not well thought out either be funny or be real but dont try too hard either way jeez'
p2167
aS'pixylangs photo'
p2168
aS'less than 3 weeks till the live showcase get in touch for tickets x'
p2169
aS'already written hahaha'
p2170
aS'haha only just saw this youre so funny  was great to meet you properly x'
p2171
aS'just thought id let you know that i met the ever beautiful during an evacuation today im still m\xe2\x80\xa6'
p2172
aS'hey thank you  please email'
p2173
aS'hi i sent you a text  guess i put in the wrong number woops will reply to your email today '
p2174
aS'someone asked me to sing this cover on youtube recentlyso heres a little snippet all i want is a\xe2\x80\xa6'
p2175
aS'good point i might have blocked that memory out but youve brought it back to me  thank you haha '
p2176
aS'blame ll cool j for the lip thing'
p2177
aS'hahaha exactly d'
p2178
aS'loool you know when flys rub their hands they kinda look like that'
p2179
aS'yep  dm me your number xx'
p2180
aS'ok sweetie  calltext me beforehand and ill be here x'
p2181
aS'theres a 100 guarantee that youll post at least 1 thing per day that will crack me up haha  toofunny'
p2182
aS'haha it kinda creeps me out and makes me laugh at the same timebut never has the desired effect headoverheels not haha'
p2183
aS'9 days woo hoo ok we need to make a plan  x'
p2184
aS'the disneyland tv ads are basically emotional blackmail to parents take your kids to disneyland or theyll hate you forever \xe2\x80\xa6'
p2185
aS'can somebody please tell me why rappers have this habit of rubbing their hands together and licking their lips at the same time haha shady'
p2186
aS'start your own fires '
p2187
aS'sneaky pic of the marron sisters amp serious face debbie'
p2188
aS'how are you doing babygirl x'
p2189
aS'missy elliot all in my grill killingit'
p2190
aS'syria and september 11  aryeh neier on us foreign policy ampamp syria intervention from a human rights perspective'
p2191
aS'whos coming to on the 29th in manchester rt if you are'
p2192
aS'hey j how are you miss our lunch dates '
p2193
aS'hey sexy senorita when are you coming to the uk x'
p2194
aS'thank you to new subscribers on my youtube channel thisiseliuk and for the recent interest on my website x'
p2195
aS'tuesdays dont get enough credittheyre proof that youve endured the horrid monday before and survived 9to5 aint all bad '
p2196
aS'im so sorry if i have crossed the line my flaws personal favourite find it on soundcloud itunes'
p2197
aS'new song take you home original music let me know what you think'
p2198
aS'sent'
p2199
aS'behind the scenes at the red carpet video with'
p2200
aS'taking a break to laugh during the try for your love video with yekim888 and sassymcd'
p2201
aS'because of you out soon'
p2202
aS'awwww sisterly love my older sister feeding me gwen giggling away  sisters love'
p2203
aS'basement live session w at last week cant wait till it airs guitarist manchester'
p2204
aS'djg2uks video i love this hahaha'
p2205
aS'sure will do tonight '
p2206
aS'no worries i look forward to the next gig'
p2207
aS'because of you out soon girl inlove jazz blues reggae live showcase stay tuned'
p2208
asS'2013_36'
p2209
(lp2210
S'belt up amp be ready for the rideofyourlife xx'
p2211
aS'looking fabulous darling welldone brrrrilliant driver '
p2212
aS' the driving seat  my face like this hahaha'
p2213
aS'been getting down and dirty today  planting my new little additions to my garden now thats what i\xe2\x80\xa6'
p2214
aS'lets get red carpet to 4000 if youve watched itliked it amp wanna share it that would be awesomethanks guys x'
p2215
aS'try for your love has reached 1000 views thank you everyone '
p2216
aS'hey sam sorry i didnt get a chance to say bye last timesee you soon'
p2217
aS'new film the arrival check out \xe2\x80\xa6'
p2218
aS'djg2uks video hilarious'
p2219
aS'hey rebz first verse and chorus written '
p2220
aS'me and kommy singing an acoustic session for unity radio manchester stay tuned for new song light'
p2221
aS'thank you all so much for your support with both my red carpet video and try for your love video i will be'
p2222
aS'just discovered how to bid on ebay this sh is addictive its like gambling hooked'
p2223
aS'now youre talking haha'
p2224
aS'that doesnt count as a present if he had told you in advance youd have ordered a whole chicken  all the sides hes cheeky'
p2225
aS'haha yep that sounds like my jimbobs  hope he got you a whole chicken '
p2226
aS'of course i will babygirl xx'
p2227
aS'aww dont worry i have plenty of incriminating video footage of him singing and dancing for us to laugh at  xx'
p2228
aS'he sang chocolate thunder for you you lucky girl you haha x'
p2229
aS'haha its a pretty good song  i might get him to start helping me songwrite haha xx'
p2230
aS'edinburgh youve been great to me so sad to be heading home but im missing my bed homesweethome'
p2231
aS'hi  thanks ive just seen it x'
p2232
asS'2013_35'
p2233
(lp2234
S'ive had a great night in edinburgh beautiful fire work display and concert and delicious food '
p2235
aS'dont feel silly at all you wont be the last person to confuse us'
p2236
aS'kaykayless photo'
p2237
aS'shes actually not my twin  shes my little sister but she looks pretty similar as you found out yesterday haha'
p2238
aS'haha she gets that all the time dont worry  im the one with the short hair'
p2239
aS'last night i saw a woman in spinning field so i shouted  hey eli    she replied im not eli im her t\xe2\x80\xa6'
p2240
aS'great gig with at on sunday love playing there music live guitarist manchester'
p2241
aS'was great seeing everyone today well done all you guys'
p2242
aS'thank you i had a great time '
p2243
aS'great time today filming a live session with the wonderful what an unbelievable live performer'
p2244
aS'me and kommy today recording for unity radio basement live'
p2245
aS'off to do a live session at with'
p2246
aS'a little thought that has stayed with me since i was 18 years old time doesnt always heal all wounds but for'
p2247
aS'very excited to be performing tomorrow looking forward to seeing you all there d'
p2248
aS'its all about wyzfest tomorrow 410pm got a huge line up 3 stages all just 50p to members spread the word\xe2\x80\xa6'
p2249
aS'dont miss talent like at saturdays wyzfest three stages 4  10pm and the usual 50p in taster'
p2250
aS'red carpet live showcase  get in touch on facebook for details and tickets elicripps music live'
p2251
aS'try for your love by thisiseli on soundcloud'
p2252
aS'iyanyas photo'
p2253
aS'great gig at last night with and band some big stuff coming up check her out'
p2254
aS'thats me right now having a marathon'
p2255
aS'such a delight to play with such tastef\xe2\x80\xa6'
p2256
aS'orange is the new black is too hilarious'
p2257
aS'watch try for your love music video now on youtube elicripps tryforyourlove'
p2258
aS'redcarpet video youtube elicripps'
p2259
aS'thanks to what an amazing night love \xe2\x80\xa6'
p2260
aS'was a pleasure to introduce such awesone talent'
p2261
asS'2013_34'
p2262
(lp2263
S'amazing gig tonight i love my leading ladies you rocked my world xxxxxx'
p2264
aS'thank you to my amazing band  you guys are the best high five'
p2265
aS'what an amazing night i had wonderful audience talented ladies sharing the stage with me just wonderful '
p2266
aS'watch try for your love on youtube elicripps tryforyourlove'
p2267
aS'see you at tonight for the ill be performing try for your love red carpet  and new song light x'
p2268
aS'thanks kayne xx'
p2269
aS'try for your love video   love this song especially the low notes'
p2270
aS' lana del rey  blue jeans julezsalvo edit by julezsalvo on soundcloud'
p2271
aS'thank you everyone  keep watching liking and sharing the tryforyourlove video'
p2272
aS'sneak peek at photoshoot today  with my suit on'
p2273
aS'try for your love video '
p2274
aS'so you dont like the lights i set up for you  haha'
p2275
aS'experimenting with a suit on'
p2276
aS'vases decorated by yours truly african art creative'
p2277
aS'everyone follow her musics amazing x'
p2278
aS'sneak peek because of you  outfit created by chikizialuitu'
p2279
aS'thanks babygirl  xxx'
p2280
aS'is bloody fantasticdoing her own thing since x factorepsingles vids showsso proud of herr thats ho\xe2\x80\xa6'
p2281
aS'loving your new songgg d x\xe2\x80\x9d thank you sweetie x'
p2282
aS'awww u look so sad in the new vid lol x\xe2\x80\x9d its a sad song  x'
p2283
aS'proud of you girl officially adopted manc allowit'
p2284
aS'watch elis try for your love music video here'
p2285
aS'aww do you have spotify you can download it on amazon as well  x'
p2286
aS'try for your love video '
p2287
aS'taken during the tryforyourlove shoot by michael yeung'
p2288
aS'tryforyourlove is out now download it here'
p2289
aS'try for your love is out now get it here'
p2290
aS'try for your love is out now get it here'
p2291
aS'ff bank holliday sunday showcase 25th'
p2292
aS'see me and my band performing live at the sunday showcase this sunday 25th august at mattampphreds manchester'
p2293
aS'try for your love will be released tomorrow cant wait for you all to hear it and watch the video and relate'
p2294
aS'always trust your gut instinct'
p2295
aS'breakfast yum'
p2296
aS'the sunday showcase 25th aug line up boo\xe2\x80\xa6'
p2297
aS'the sunday showcase 25th aug line up book\xe2\x80\xa6'
p2298
aS'thanks babe i am very excited too  5 days to go'
p2299
aS'love your song try for your love looking forwrad to playing the same night as you at matt n phreds its goi\xe2\x80\xa6'
p2300
aS'oh no i am the worst best friend in the world sorry stace my phone was on silent all night  xx'
p2301
aS'the sunday showcase 25th aug line up bo\xe2\x80\xa6'
p2302
aS'i agree top vid\xe2\x80\x9d'
p2303
aS'thanks kaps '
p2304
aS'love the video \xf0\x9f\x91\x8c\xf0\x9f\x91\x8f\xe2\x80\x9d thank you sweetie redcarpet'
p2305
aS'stay tuned for try for your love  out this saturday 24th august '
p2306
aS'if you havent already got it get red carpet here'
p2307
aS'thank you for your wonderful comments about my flaws download it here'
p2308
aS'new electro tune ft eli cripps the description ft eli cripps on soundcloud'
p2309
aS'dominique is just amazing omfg'
p2310
asS'2013_33'
p2311
(lp2312
S'the sunday showcase 25th aug line up bo\xe2\x80\xa6'
p2313
aS'yinyang86s photo'
p2314
aS'i will be performing live next sunday 25th august savethedate at the sunday showcase mattampphreds manchester'
p2315
aS'try for your love will be out next saturday 24th august savethedate'
p2316
aS'saturday 5th october 800pm  save this date elicripps live showcase redcarpet manchester specialguests'
p2317
aS'4 newwwwww ones    i want themmmmmm x'
p2318
aS'youll get them sweetie pie  when theyre ready xx'
p2319
aS'me too  looking forward to your performance'
p2320
aS'looking forward to it'
p2321
aS'the sunday showcase 25th aug line up book\xe2\x80\xa6'
p2322
aS'its friday follw some amazing people'
p2323
aS'the sunday showcase 25th aug line up book\xe2\x80\xa6'
p2324
aS'the sunday showcase 25th aug line up bo\xe2\x80\xa6'
p2325
aS'to find out more about where ill be performing next sunday 25082013 look at the sunday showcase on facebook'
p2326
aS'4 new songs  almost completed '
p2327
aS'mattampphreds next sunday 25th  be there for some great live music from myself and some very gorgeous ladies too redcarpet'
p2328
aS'next sunday 25th playing matt and phreds alongside some damn powerful ladies and \xe2\x80\xa6'
p2329
aS'thank you chikizialuitu this is delicious mmm mmm mmm cake'
p2330
aS'my first instagram snap long hair days'
p2331
aS'thats exactly right  stay positive x'
p2332
aS'by your side  sade what a beautiful song when youre cold ill be there to hold you tight to me'
p2333
aS'morning sugar pie  how are you doing'
p2334
aS'i like it sweet haha xx'
p2335
aS'breakfast honey greek yoghurt and banana mmm'
p2336
aS'breakfast honey greek yoghurt and banana mmm'
p2337
aS'its here has finally released his ep  out of nowhere its not only brilliant but is free for your'
p2338
aS'check out eli cripps music on facebook'
p2339
aS'must be there 25082013 at mattampphreds ill be performing two of my new songs as well as an awesome version of red carpet'
p2340
aS'hi everyone please come along to this wonderful live music event on the 25th of august 2013  sunday showcase'
p2341
aS'onwards n upwards drivelikeformula1'
p2342
aS'set your goals high and dont stop until you get there'
p2343
aS'changing room banter in the studio this morning'
p2344
aS'its gonna be a great day  i can just feel it'
p2345
aS'saturday 05 october 2013'
p2346
aS'one central likes eli cripps music'
p2347
aS'i added a video to a playlist jacksun fear  peoples feat eli cripps invader music'
p2348
aS'save this date saturday 05102013 eli cripps amp band live showcase more details to follow  stay tuned'
p2349
aS'please watch like and share red carpet'
p2350
aS'soup is good for the soul mmm'
p2351
aS'it was most definitely a team effort thanks kommy'
p2352
aS'and stormed the stage yesterday too great playing for you'
p2353
aS'me and the absolutely scrumptious'
p2354
aS'short hurr dont curr with'
p2355
aS'i cant wait to wear this x'
p2356
aS'designed and created by chikizialuitu'
p2357
aS'tryforyourlove video out soon stay tuned'
p2358
aS'have a wonderful day x'
p2359
asS'2013_32'
p2360
(lp2361
S'thanks gorgeous how are you doing looking forward to you coming to the uk xx'
p2362
aS'hey sexy se\xc3\xb1orita how are you loveee your new look \xf0\x9f\x91\x8c rt hotness x\xe2\x80\x9d'
p2363
aS'hey carl how are you doing dont worry youll hear it very soon '
p2364
aS'oh sorry will send them tomorrow morning '
p2365
aS'try for your love'
p2366
aS'getting help with my hair from my lovely friend stacey try for your love video shoot out soon'
p2367
aS'sneak peek of newest outfit designed and created by'
p2368
aS'hotness x'
p2369
aS'thank you '
p2370
aS'my twin mwah'
p2371
aS'its all about being natural baby afro here i come embrace the curls'
p2372
aS'newest addition to my collection of gorgeous designs by chikizialuitu african fashion plenty more\xe2\x80\xa6'
p2373
aS'stacey helping me with my hair at the tryforyourlove video shoot with'
p2374
aS'tryforyourlove video  out end of august i cant wait for you all to see it and possibly relate to it'
p2375
aS'practice makes perfect'
p2376
aS'rehearse'
p2377
aS'this is a great picture thanks mark and stace you two are awesome x'
p2378
aS'assisting eli during the filming of tryforyourlove blackandwhite emotional stephenmark'
p2379
aS'assisting during the filming of tryforyourlove blackandwhite emotional stephenmark'
p2380
aS'i just caught a glimpse of myself and wow i look completely different change is good '
p2381
aS'youre going to save heaps on shampoo luckyyou  and youll be able to just washampgo hothair goodtogo xxx'
p2382
aS'you gotta keep it fresh amp mix it up pretty lady bebold takechances workit ownit xxx\xe2\x80\x9d i love my new hair x'
p2383
aS'hair'
p2384
aS'looking forward to it beautiful girl x'
p2385
aS'excited to play out with saturday itsbeenawhile '
p2386
aS'thank you to those who have taken the time to like my red carpet video on youtube write comments about it and make reviews on itunes xx'
p2387
aS'versatility is always a good thing mix things up with your imagehair change this weekend'
p2388
aS'what a great picture let the countdown begintryforyourlove music video'
p2389
aS'im looking forward to showing you all the results from a fun day in the studio and on set'
p2390
aS'oooh say what say what say what you know that i like it baby you know whats up'
p2391
aS'today i received a lot of likes from kampala uganda thanks guys and girls'
p2392
aS' perfect haha x'
p2393
aS'hey rhi currently sorting out set times will get back to you soon  xx'
p2394
aS'im currently looking for two backing vocalists  please get in touch if youre interested '
p2395
aS'great to see im getting a lot of support from the ladies  thank you girls for relating to my music thank you to the guys too'
p2396
aS'this sunday august 11th my band and i will be performing at the manchester carnival your presence there will be'
p2397
aS'receiving lots of wonderful feedback about the red carpet video and my flaws rerelease thanks everyone '
p2398
asS'2013_31'
p2399
(lp2400
S'my band rehearsal today was awesome totally smashed it guys '
p2401
aS'the try for your love video is ready out at the end of august with the single stay tuned'
p2402
aS'this song has now been rereleased with the full band myflaws'
p2403
aS'go girl  xxx'
p2404
aS'love this song by thank you x'
p2405
aS'the eli amp chikizialuitu collection is growing african fashion with a modern twist'
p2406
aS'what ever you do today make it good ill be rehearsing with my band good times'
p2407
aS'yep thats exactly what ill be touring in all aboard '
p2408
aS'thanks hayley i was looking forward to seeing you on thursday  next time  x'
p2409
aS'love this hun cant wait to see it lovin the black and white x'
p2410
aS'hey carl im good how are you doing x'
p2411
aS'smallest tour bus in the planet beautiful day out away from the hustle and bustle'
p2412
aS'sneak peek of try for your love video scene august'
p2413
aS'sneak peek of tryforyourlove video scene'
p2414
aS'all over it baby girl x let the countdown to our sizzling hot summer holiday begin beachbabes bikinibabes \xe2\x80\xa6'
p2415
aS'great meeting  thank you onwards and upwards really looking forward to more'
p2416
aS'positive meeting tonight with a big new talent and oh y\xe2\x80\xa6'
p2417
aS'the bikini has arrived lets book our holiday  yay sun sea cocktails xx'
p2418
aS'yep thought i saw  recognised you  well we should say hi next time we see each other'
p2419
aS'feeling a lot better today  thank you all for the lovely get well wishes '
p2420
aS'where are you x'
p2421
aS'my flaws  single by eli cripps'
p2422
aS'for those of you who have been loving the video you can download red carpet here now'
p2423
aS'my flaws is my personal favourite of the 4 singles im releasing this summer listen and download it here'
p2424
aS'at the end of august try for your love will be released with video stay tuned'
p2425
aS'my red carpet video has reached over 3000 views thanks for all your support please keep sharing and liking  x'
p2426
aS'this fever has knocked me out of action for a couple days but im getting a little betterapparently ive lost 4 pounds since yesterday '
p2427
aS'i certainly do x'
p2428
aS'you need a bigbubblebath skinnyhotchocolate fluffyblanket pickampmix boxset amp a butlerinthebuff named santia\xe2\x80\xa6'
p2429
aS'i missed you too  im still bed bound we need to start holiday planning xx intit haha'
p2430
aS'missed my gorgeous girl today prettyface velvetvoice stylesister longlegs sunnydisposition brewbuddies i\xe2\x80\xa6'
p2431
aS'part 2 of loisdavinalive  heartbroken \xf0\x9f\x92\x94 keep supporting my movement \xf0\x9f\x8e\xb6click the'
p2432
aS'it was great meeting you too '
p2433
aS'this is the fabric chikizialuitu are using to design and create my newest outfit jumpsuit african\xe2\x80\xa6'
p2434
aS'you can also download my flaws on amazon and spotify'
p2435
aS'the rerelease of my flaws band version is out now'
p2436
asS'2013_30'
p2437
(lp2438
S'hi hayles how are you did you send me a direct message i cant open it  xx'
p2439
aS'look lol x thanks jenny moo x'
p2440
aS'shout out to and for performing for the kids yesterday at panda13 big set'
p2441
aS'its always a pleasure performin with the wonderfull amp eli cripps nothin but luv and respect for u hun x'
p2442
aS'hi sweetie pie its the band version xx'
p2443
aS'i have nothing but love and respect for was so good performing on the same stage with you today xx'
p2444
aS'thanks alex '
p2445
aS'awesome voice nicework'
p2446
aS'my flaws is out now get it here happy listening '
p2447
aS'my flaws is out get it now happy'
p2448
aS'im sure it will be just perfect'
p2449
aS'haha being a bfg is not all bad the highlight of my day is helping little old ladies get their groceries from the top shelf '
p2450
aS'photos looked wicked girl hope ur well and ur music is doing good x'
p2451
aS'thanks joel how are you you doing x'
p2452
aS'have an awesome launch day tomorrow'
p2453
aS'thanks mark d im also meeting up with mike tomorrow to look at the first cut tryforyourlove woo'
p2454
aS'researching the myths of peoples heights with apparently im 4 inches taller than rihanna who is also 1 inch shorter than ciara'
p2455
aS'happy friday folks party like a rock star or just eat loads of cake like me haha '
p2456
aS'my flaws will be out on itunes amazon spotify and everywhere this saturday 27072013 stay tuned'
p2457
aS'haha eli has already called feds mate the investigation has begun'
p2458
aS'i just got told by that justin bieber is 19 years old wow i feel old'
p2459
aS'thank you'
p2460
aS'eli cripps music just got to 2000 likes thank you everyone for your support on my facebook page stay tuned'
p2461
aS'counting down the days to sophie and jamies wedding  kenya'
p2462
aS'goooooooooood morning'
p2463
aS'black amp white its good to mix things up'
p2464
aS'\xf0\x9f\x98\x82\xf0\x9f\x98\x82\xf0\x9f\x98\x82\xf0\x9f\x98\x82 hes scaring me lol'
p2465
aS'let the countdown begin  cant wait to see it slickandstylish xx'
p2466
aS'wow indeed blushing but its slightly creepy chinese babies are so cute though lol'
p2467
aS'i heard this and thought of eli letthecreepinesscontinue chinesebabies'
p2468
aS'vonmarcuss photo'
p2469
aS'myflaws will be available on download on 27072013'
p2470
aS'and its looking awesome '
p2471
aS'yay thats very cool '
p2472
aS'get well soon my jenny moo big kisses and hugs x'
p2473
aS'haha you two are cracking me up please dont cry '
p2474
aS'\xf0\x9f\x98\x82\xf0\x9f\x98\x82\xf0\x9f\x98\x82i think she might call feds lad lol'
p2475
aS'crying'
p2476
aS'im feeling to find her to serenade her if you take your love away from me ill go crazy ill go\xe2\x80\xa6'
p2477
aS'crying u know hahaha elis not playin'
p2478
aS'look what u do to people eli lol'
p2479
aS'eli is beautiful i want her to have my chinese babiesjewelz im crying whilst looking at her pro\xe2\x80\xa6'
p2480
aS'crown i just watched it love it they dont wanna give me credit but i topped up wooooo backstabbers got told well done x'
p2481
aS'hey carl how are you doing everything is going okslight set back with our project but dont you worry ive got it sorted'
p2482
aS'every1 watch u will like it red carpet video if you like it share it if you havent seen it'
p2483
aS'hi eli please watch my new backstabbers video im sure u can relate please watch\xe2\x80\xa6'
p2484
aS'elis red carpet video continues to build momentum on views if you like it share it if you havent seen it'
p2485
aS'my flaws will be out on release everywhere this saturday 27072013 its my personal favourite i hope you all like it too'
p2486
asS'2013_19'
p2487
(lp2488
S'clothingconceptart sinful clothing'
p2489
aS'one hell of a party being thrown tonight you know where to find us beaut'
p2490
aS'thanks'
p2491
aS'at wembley this stadium is humongous city'
p2492
aS'aww have a lovely time x'
p2493
aS'yay sounds exciting x'
p2494
aS'thats good to hear gorgeous xx'
p2495
aS'omg that tweet took ages i send x'
p2496
aS'kukere and drowning i love it gwens is the murder she wrote sample one xx'
p2497
aS'for what '
p2498
aS'good luck study hard kick ass'
p2499
aS'yay thats so nice x'
p2500
aS'my neighbours listen to excellent music whether they like it or not'
p2501
aS'hakkasan las vegas tonight '
p2502
aS'aww poor baby hope you feel better soon x'
p2503
aS'i over think way too much'
p2504
aS'check us out newmusic'
p2505
aS'if only clarissa the teenage witch was still on tv sad face'
p2506
aS'going to start saying ciao more often underused and soooo cool ciao'
p2507
aS'awww x train to where'
p2508
aS'in the middle of every difficulty lies opportunity  albert einstein'
p2509
aS'present kukere master in action with 9thjunemanc presenting\xe2\x80\xa6'
p2510
aS'listening to drowning tune'
p2511
aS'just won \xc2\xa32 on my \xc2\xa32 scratch card i broke even these are very exciting times haha'
p2512
aS'ff my faves'
p2513
aS'everyday i wake up missing east african loved ones family ethiopia uganda kenya tanzania'
p2514
aS'blue sky and sea breeze perfect writing conditions studiotime'
p2515
aS'three spoons of honey in my peppermint tea thuglife'
p2516
aS'in pictures  charting the rise and fall of lauryn hill'
p2517
aS'morning happy friday x'
p2518
aS'just finished rehearsing with my bandgetting ready for'
p2519
aS'new dramas oh nosend me a text honey child x'
p2520
aS'youre welcome sassy stace xxx'
p2521
aS'thanks a million i love my vegas mints always handy to have  mintyfresh'
p2522
aS'it was so great sun cocktails funtimes'
p2523
aS'im good sweetie thank you how are you xx'
p2524
aS'a change is going to comeright'
p2525
aS'geminis are the least confrontational but if you cross them the wrong way they will let you know'
p2526
aS'\xe2\x80\x9ci spent my hatred everyplace on every work on every face someone gave me wishes and i wished for an embrace\xe2\x80\x9d leonard co\xe2\x80\xa6'
p2527
aS'holla'
p2528
aS'would love your company at la vida live lounge  sun may 19th ill be performing red carpet my flaws try for'
p2529
aS'email coming soon just rehearsing for now'
p2530
aS'rehearsing with loka beautyindarkness'
p2531
aS'its 2013 and guy are still way too thirsty'
p2532
aS'haha you hustler'
p2533
aS'see for updates and release dates redcarpet tryforyourlove myflaws becauseofyou'
p2534
aS'thank you so much lifesaver'
p2535
aS'hi long time no speak how are you'
p2536
aS'stay positive good things will happen'
p2537
aS'red lips tequila nights'
p2538
aS'one word  fine'
p2539
aS'find someone who will change your life not just your status'
p2540
aS'we got a four pack student style'
p2541
aS'lovely day in manchester today the sun is shining and weather is hot'
p2542
aS'big up to all the women with substance'
p2543
aS'some peeps cant create so they copy trying to be what their not  youaresad'
p2544
aS'jealousy is ugly'
p2545
aS'sooo blessed'
p2546
aS'beer garden'
p2547
aS'i have a reserved place in my heart for nerd'
p2548
aS'being able to listen to on is the only thing making this traffic jam bearable 1 hour and counting'
p2549
aS'looking forward to seeing you next weekend hopefully x'
p2550
aS'missed youuuuu \xe2\x9d\xa4'
p2551
aS'vegas nights with hubby'
p2552
aS'vegas days fun times'
p2553
aS'just landed exhausted but very happy to be home cannot wait for a proper cuppa theres nothing like english breakfast tea'
p2554
asS'2013_18'
p2555
(lp2556
S'mentally preparing for this 15 hour journey back manchester here we come'
p2557
aS'will doim back tomorrow so will give you a call'
p2558
aS' thank you so much will get in touch tomorrow morning x'
p2559
aS'hey kenzo please let me know if you received my email thanks x'
p2560
aS'thanks sweetheart it was an awesome night coffee patron is very dangerous tequila tao'
p2561
aS'strawberry by jay arie'
p2562
aS'another shot from my recent series color me caribbean  shot by jay arie'
p2563
aS'this is beautiful jay'
p2564
aS'something a bit more natural that i shot  photography art beauty fashion'
p2565
aS'its not right but its ok'
p2566
aS'remember the good times be strong during the difficult times love always laugh often and thank god daily'
p2567
aS'people that enlighten me love that shit'
p2568
aS'club mode vegas'
p2569
aS'ff my lovely lovely '
p2570
aS'never thought id get sun burnt on my chestouch haha'
p2571
aS'hi sweetie pie your card to james was sooooo sweet aww best message ever  mwah xxx'
p2572
aS'thats exactly what imma do tonight'
p2573
aS'haha enjoy it go blow it on strippers'
p2574
aS'thanks blushing '
p2575
aS'ive seen your vids on youtube youre dope keep working'
p2576
aS'i never win anything im soooooo happy haahaha'
p2577
aS'wooooohoooooo '
p2578
aS'just won 100 on a fruit machine well chuffed'
p2579
aS'awesome i hope it lasts '
p2580
aS'yay hopefully itll still be hot when i get back  x'
p2581
aS'last night  the view from my window'
p2582
aS'tweet '
p2583
aS'good morning folks x well its 917 in vegas hows everyones day going so far in the uk any news im missing out on x'
p2584
aS'i cant reply cos youre not following me lol'
p2585
aS'yep  it was a very long trip x'
p2586
aS'yeah  looking forward to your dm'
p2587
aS'thank you sweetheart thats really nice of you to say x'
p2588
aS'love that song eli your performance at bassmentlive was stunning ps i have pics  ill tweet them to u sho\xe2\x80\xa6'
p2589
aS'where the clubs at in vegas'
p2590
aS'my red carpet is almost ready to be rolled out woo redcarpet'
p2591
aS'finally here vegas'
p2592
aS'its a tune and alicia in the vid thisgirlisonfiiiiire'
p2593
aS'got a little treat for you lot later stay tuned '
p2594
aS'ok thats my twitter break over hope ur all having an amazing day love light laughter happiness health harmony w\xe2\x80\xa6'
p2595
aS'aww no im away what are we celebrating  x'
p2596
aS'keenan instead of kel tut tut not good enough lol my flaws is an amazing piece of music \xe2\x80\x9d thank you x'
p2597
aS'haha just googled them of course i know who they are  doh ill watch an episode and then decide lol'
p2598
aS'keenan instead of kel tut tut not good enough lol my flaws is an amazing piece of music '
p2599
aS'your hair looks gorgeous babe night out needed soon with xxx'
p2600
aS'mwaah rt'
p2601
aS'morning world '
p2602
asS'2013_39'
p2603
(lp2604
S'ok babygirl x'
p2605
aS'perfect '
p2606
aS'hey sweetie id love it if you could come to my showcase next friday xx'
p2607
aS'hey court how are you doing i would like to personally invite you to my showcase next friday '
p2608
aS'just gave me a mug of this weird looking grey tea what have i done to deserve this dishwater '
p2609
aS'can i just say to any manc fans of mine pls go and support my girl on the 4th oct launch'
p2610
aS'beautiful girl beautiful voice if u can make it to the showcase mwah thanks babygirl x'
p2611
aS'foxy'
p2612
aS'insidejoke'
p2613
aS'thanks so much horsewhisperer '
p2614
aS'new word for the day jeah hahaaaaa'
p2615
aS'keithlemon is hilarious wearing melbs orange knickers'
p2616
aS'loving try for your love \xf0\x9f\x91\x8d keepupthegoodwork x\xe2\x80\x9d thanks jules xx'
p2617
aS'loving try for your love \xf0\x9f\x91\x8d keepupthegoodwork x'
p2618
aS'singing along to the radio bbc 1'
p2619
aS'hey  will reply this weekend tomorrow thanks'
p2620
aS'stunning music \xf0\x9f\x91\x8c\xe2\x80\x9d thank you made my day '
p2621
aS'be unique  swim the other way up stream '
p2622
aS'try for your love has reached over 2000 views  thank you '
p2623
aS'weareone'
p2624
aS'weareone'
p2625
aS'let us defeat them with our unity kenya weareone'
p2626
aS'heres to hoping for a better tomorrow my fellow kenyans lets continue standing together for weareone'
p2627
aS'we are as brave and invincible as the lions on our coat of armspresident kenyatta weareone photo'
p2628
aS'this is not the time to issue travel advisories terrorism is a global challenge that we must meet as a united\xe2\x80\xa6'
p2629
aS'copy declare share i am kenyan i will survive i will rise i will help my fellow man i will remain unbowed amp strong \xe2\x80\xa6'
p2630
aS'in times of tragedy weareone lets always keep it that way kenya westgate'
p2631
asS'2013_38'
p2632
(lp2633
S'to all in kenya my dear friends keep strong'
p2634
aS'sums up my weekend'
p2635
aS'beautiful day work and play at the same time'
p2636
aS'lots of you are loving this video  thanks for your comments  had a lot of fun filming this with the boys'
p2637
ag394
ag394
aS'less than 2 weeks till the live showcase i cant wait to see you there  special guests lois davina and jay'
p2638
aS'time to take off my makeup kick back and reeeelax'
p2639
aS'thank you '
p2640
aS'stunning'
p2641
aS'my photography amp light skills are real sign me up mike  teamworkmakesthedreamwork xx'
p2642
aS'haha what is this '
p2643
aS'i know right too funny '
p2644
aS'kaykayless photo hahahaha \xf0\x9f\x98\x82\xf0\x9f\x98\x82'
p2645
aS'more to come from todays photoshoot with michael yeung what a beautiful day in southport it wouldnt have'
p2646
aS'listening right now babe x'
p2647
aS'live now on  951fm bbc manchester  tune in'
p2648
aS'wonderful photoshoot with today cant wait to see the photos  this one was taken by x'
p2649
aS'on location with and such a great day  wet bum then fishandchips and icecream'
p2650
aS'kaykayless photo hahahaha '
p2651
aS'its always a pleasure working with yekim888 photo taken by the beautiful and talented sassymcd\xe2\x80\xa6'
p2652
aS'photoshoot today with yekim888 and our lovely lighting assistant sassymcd i had the best time thank\xe2\x80\xa6'
p2653
aS'we made it '
p2654
aS'mmmm yummy'
p2655
aS'saturdaynight seasidesweettreats southportrocks queenelizabeth  xx'
p2656
aS'traditional seasidesupper happy with x'
p2657
aS'on location with sunseasand southport xx grrrreat day '
p2658
aS'good band practice with tonight im now very much looking forward to the ep showcase'
p2659
ag394
aS'my ep launch in january was a great night  thank you to those who came the red carpet live showcase taking'
p2660
aS'if youd like to hear me sing a cover at the red carpet live showcase let me know i will sing 1 of your chosen covers on the night x'
p2661
aS'yes definitely  ive sent you a reply email'
p2662
aS'if youd like to hear me sing a cover at the red carpet live showcase let me know  i will sing 1 of your chosen covers on the night x'
p2663
aS'hey just replied listened to the track about 5 times in a row '
p2664
aS'thank you to those who have already bought tickets for the live showcase on oct 4th just over 2 weeks to go and'
p2665
aS'pixylangs photo'
p2666
asS'2013_11'
p2667
(lp2668
S'feeling the after party effects today sick'
p2669
aS'hello sweetie x'
p2670
aS'eli moooo lt3 x'
p2671
aS'wooops'
p2672
aS'i just realised what your twitter name is genius mandazi '
p2673
aS'love my band \xf0\x9f\x91\x8f such a great night'
p2674
aS'gorgeous pic sweetie xx'
p2675
aS'ff girls '
p2676
aS'each day is another chance to change your life forever'
p2677
ag394
aS'can you relate soundcloud on soundcloud'
p2678
aS'morning everyone have a beautiful day whatever the weather xx'
p2679
aS'hello  xx'
p2680
aS'ill be coming to landan soon xxx'
p2681
aS'ill be performing in birmingham sat 16th march wales sun 31st march liverpool 5th april hope to see some of you guys there  x'
p2682
aS'looking forward to my upcoming meets with lots of interesting projects to di '
p2683
aS'if i had enemies i definitely wouldnt be keeping them closer than friends aint nobody got for that clearyourmind'
p2684
aS'whos in birmingham this weekend ill be singing for you '
p2685
aS'every day set the simple goal of trying to be more awake and less distracted'
p2686
aS'how was your gym session yesterday x'
p2687
aS'cnt wait lady x'
p2688
aS'exactly sweetheart keep that positive attitude x'
p2689
aS'thursday friday from 5pmwould that work for youx'
p2690
aS'its not going to be one of those days stay positive'
p2691
aS'you wrote me a letter onceyou said i was an angeli must have been a reflection of yourest welltill we meet again'
p2692
aS'official music video coming soon redcarpet cant wait'
p2693
aS'my ep launch was just 5 weeks ago and its making a big change to my lifeprogress'
p2694
aS'hello everyone today is a good day because i get to play at londons historic shepherds bush empire xxxxxx'
p2695
aS'the next allaboutgoodmusic live is apr 28th and its going to be ridiculous oh gawd big sean voice aagmlive'
p2696
aS'my weakness is that i care too much'
p2697
aS'swore id be back on the good food diet today but when given the gift of chocolate on a monday morning what else is o '
p2698
aS'hahahah its all good i like a good sprint then slow jog anyway hahahha x'
p2699
aS'i loved you for your innerbut you treated me like a beginner getting inspired fantasia'
p2700
aS'being a creative a gemini and a nomad sometimes creates this tug of wear within meits time to put in those ear phones and write'
p2701
aS'yay you will have to go from fast to slow motion jogging when it changes from track 2 to track 3 go girl workit xx'
p2702
aS'i jinxed itits slowing down now x'
p2703
aS'snow'
p2704
aS'just discovered a new songits got a lionel richie vibeone word tunage'
p2705
aS'great '
p2706
aS'thanks brad ill text you tomorrow if thats ok a little easier than tweeting x'
p2707
asS'2013_10'
p2708
(lp2709
S'face mask sunday'
p2710
aS'thank you how lovely of you to say that '
p2711
aS'watching a film called something new this whole black people cant date white people and vice versa malarkey prejudice  nonsense'
p2712
aS'lol bless em \xe2\x9d\xa4'
p2713
aS'he is the master of hearttohearts lol'
p2714
aS'did people enjoy the song x'
p2715
aS'miss you too x'
p2716
aS'haha '
p2717
aS'wooooo  thats awesome yay xx'
p2718
aS'dancing along with a club full of people to brand new \xf0\x9f\x8e\x89\xf0\x9f\x91\x8f\xf0\x9f\x92\x83'
p2719
aS'she told me she wasnt going out cheeky have fun babe xxx'
p2720
aS'hey sweetie hows the night going beaut wonder if youll hear my song tonight xxx'
p2721
aS'hey bradmight need your help with something music video'
p2722
aS'emeli sande is different gear whatavoice'
p2723
aS'at home snuggled up with about 6 layers on missing you guys  being ill sucks xxx'
p2724
aS'dont look back youre not going that way'
p2725
aS'along came polly is just too funny movie comedy'
p2726
aS'help spread the word about a multiplatform media outlet looking 4 up amp coming talent '
p2727
aS'big kisses x'
p2728
aS'you go girl  were all here to support ya x'
p2729
aS'hi everyone thank you so much for the support and encouragement you have all shown me it has pushed me forward'
p2730
aS'mary j blige is on point vocals'
p2731
aS'coming soon  very excited to be getting this single ready for official release becauseofyou'
p2732
aS'yep im crossing my fingers for you too sweetie  miss you too and your baking xxx'
p2733
aS'my beautiful roses valetinesday'
p2734
aS'eating one of the juiciest mangos ever yum'
p2735
aS'looking forward to my chat with about the try for your love music video comingsoon'
p2736
aS'very excited to be planning my official release of red carpet goodthingstaketime'
p2737
aS'gorgeous'
p2738
aS'damn dawg intense'
p2739
aS'hey sweetie how are you doing just checking up on you xx'
p2740
aS'true dat'
p2741
aS'theyll never know the full of joy of us with rhythm though miss eli'
p2742
aS'good babe how ate you x'
p2743
aS'haters gonna potate wait and aligate haha'
p2744
aS'eli blackampwhite'
p2745
aS'i like big'
p2746
aS'rt in 2007 zag het duchenneheroes fietsshirt er zo uit wat wordtt  h '
p2747
aS'got 2 shows in brooklyn this weekend ny followers holla me'
p2748
aS'haha if they dont know it then its bliss just dance'
p2749
aS'i feel really sorry for people with no rhythm'
p2750
aS'apples are more efficient at waking you up in the morning than caffeine'
p2751
aS'nothing lasts forever so live it up breath it out laugh it off take chances amp never have regrets'
p2752
aS'great hair sweetie really suits you x'
p2753
aS'look at the hair band on its ears poor thing so cute'
p2754
aS'poaching needs to stop full stop protect wildlife'
p2755
aS'watching to walk with lions classic'
p2756
aS'just rustled this up yum'
p2757
aS'how cute is this big bunny aww'
p2758
aS'there aint no cure for love '
p2759
aS'haha standard beaut procedure x'
p2760
aS'you ready for jam on 15th march  def jam with we '
p2761
aS'shawty whats up im in town for one night finding old tunes on my ipod'
p2762
aS'it feels so good to be loved food art xx'
p2763
asS'2013_13'
p2764
(lp2765
S'a gemini is wild they seem to have sudden outbursts of energy at random times'
p2766
aS'food for thought real talk'
p2767
aS'right within'
p2768
aS'thank you sweetie pie x'
p2769
aS'good luck beautifull x'
p2770
aS'at hendre hall where theres a beautiful landscape in the background sound check in 45 mins loka wales'
p2771
aS'lee struggled with the early studio time today time for a quick nap crazy boy'
p2772
aS'hey julez im great how are you'
p2773
aS'no computerisation here real claps a la lee and budge sounds amazing redcarpet'
p2774
aS'im the happiest bunny in the world right now my babies are coming alive redcarpet becauseofyou myflaws tryforyourlove'
p2775
aS'happy easter \xf0\x9f\x90\xa3\xf0\x9f\x90\xa5\xf0\x9f\x90\xa4'
p2776
aS'waking up feeling extremely blessed waking up to love giving and receiving it today is gonna be an anointed day cupo '
p2777
aS'show me your friends and ill show you who you are that saying is real'
p2778
aS'the options are endless damn it feels good if i could go back and tell this to the younger me i would'
p2779
aS'just finished watching the guardians was sickkkkkkk loved it them owls kickeedddd ass'
p2780
aS'sunset in kenya by tourism travel picoftheday kenya365'
p2781
aS'will do x'
p2782
aS'studio'
p2783
aS'much better end resultnothing wrong with a bit of help but beyourself'
p2784
aS'why '
p2785
aS'snogmarryavoid  guys and girls beware of the fakery this girl is wearing 2 bras hair extensions botox lipsbum padsdare i say more'
p2786
aS'hey sweetie how are you im not performing tomorrow but will be on sunday  xxx'
p2787
aS'just let go'
p2788
aS'what the this is why i dont eat fast food junk gross'
p2789
aS'after a while it gets annoying'
p2790
aS'i have the talent and the drive loveandwar is confirmation of this wait til you hear it  march 31st 0001am stay '
p2791
aS'and samstarin fact just everything'
p2792
aS'very excited to be joining you on stage tomorrow cant wait to perform beautyindarkness'
p2793
aS'mwah'
p2794
aS'great video i got my fist in the air streetdreams'
p2795
aS'great video crown looking forward to tomorrow streetdreams'
p2796
aS'hey eli please can you watch my new video masterpieces drop a comment share'
p2797
aS'check out new video storysofar'
p2798
aS'getting excited for a full day in the studio tomorrowrecording refined material special day of hard work ahead'
p2799
aS'watching matilda im such a big kid'
p2800
aS'and my faves ff '
p2801
aS'ff '
p2802
aS'hey how are you'
p2803
aS'why am i obsessed with oneborneveryminute  emotional'
p2804
aS'introducing lokas new singer'
p2805
aS'yay thanks to your friend and you of purse  hugs'
p2806
aS'thanks to my try for your love video is all mapped out yippee'
p2807
asS'2013_12'
p2808
(lp2809
S'thank you so much minimoves'
p2810
aS'guard your loins'
p2811
aS'ask questions agree or disagree gemini women know the art of fine conversation'
p2812
aS'a little info on the history of african sailors living in canning town london'
p2813
aS'\xe2\x80\x9cevery moment you get is a gift spend it on things that matter don\xe2\x80\x99t spend it by dwelling on unhappy things\xe2\x80\x9d  c '
p2814
aS'so much swag r e s p e c t well done little sweethearts'
p2815
aS'chillin sounds very cool  im working on some music and will also be working on the song for our projectx'
p2816
aS'hey david how are you x'
p2817
aS'great thank you ill get in touch in a few weeksplanning is still in progress '
p2818
aS'if you are planning to shoot a video for red carpet we do have the big red carpet at east end studios h '
p2819
aS'let the work begin planning my music video for try for your love youll be getting an email shortly x'
p2820
aS'it is the focus on the highest ideal day after day that saves life from being wrapped up in small whirlwinds maharishi'
p2821
aS'yehhh i heard this one honey  love it gunna download now x'
p2822
aS'tough love definitely caught my attention thanks'
p2823
aS'i know hun thats why i wanted to tell you about the download cos you said you liked it x'
p2824
aS'off to rehearse with loka fun times and great music'
p2825
aS'morning sweetie x'
p2826
aS'check out my soundcloud there will soon be songs available for free download as part of my songwriting project'
p2827
aS'hi jenny i know you like this songits now available for free download xx'
p2828
aS'the wonderful cellist youre going to hear on the rerelease of my flaws breathtaking lilu'
p2829
aS'night night xx sweet dreams'
p2830
aS'the cello parts for my flaws and red carpet are so beautiful breathtaking thank you li lu xx'
p2831
aS'learning the music for my rehearsal with loka tomorrow very excited to be performing with them next sunday'
p2832
aS'great meeting with the wonderfully talented chloe brotherton great day but hectic day  '
p2833
aS'ff my faves x'
p2834
aS'muse  uprising is such a tune muse'
p2835
aS'bask in the ambience haha whitechicks'
p2836
aS'im gonna write a letter '
p2837
aS'im gonna have a bf'
p2838
aS'5pm '
p2839
aS'haha white chicks is just too funny movie'
p2840
aS'yep of course tickets x'
p2841
aS'i am also starting to write forwith other artists get in touch xthisss lt3 i told you loool x'
p2842
aS'abbey road masterclass last year gave me advice and focus i still refer to now priceless bbcintroducing doing grea '
p2843
aS'love is the only engine of survival leonard cohen'
p2844
aS'i am also starting to write forwith other artists get in touch x'
p2845
aS'my flaws amp try for your love will be rereleased later this year always strive to improve music lives and breathes'
p2846
aS'cant wait to get the band into the studio next week red carpet amp because of you are almost ready for your ears stay tuned'
p2847
aS'if you did x factor and didnt get to where u wanted 2 be after it take a leaf out of book you could a '
p2848
aS'this is grrrreat well done and you too babe videography is great such lovely comments as well bigfans x'
p2849
aS'she just finished 1 sick i filmed and done the edit  jadeellis ineed mav '
p2850
aS'new video nopeshow me aww thats great for jade yay sick tracks coming soon i hope'
p2851
aS'its your burrrday happy birthday  xxxxx'
p2852
aS'im wearing a rucksack today for the first time ever i think rule 1 you cant bend down with it on your back'
p2853
aS'true'
p2854
aS'air drumming is so liberating haha bet you look amazing doing it im well  how are you xx'
p2855
aS'haha me to i always end up air drumming hope you are all well x'
p2856
aS'i always thought i was a great multitasker but if im listening to great music i cant do anything else i just stop and listen'
p2857
aS'ready for bbc introducing master class today with have a good day players xxx'
p2858
aS'if you dont see it with your eyes dont witness it with your mouth'
p2859
aS'you can always appreciate the weather more when you know youll be indoors all day '
p2860
aS'me too x'
p2861
aS'thats great news im happy to hear from you the project is going wellmight take a few more weeks '
p2862
aS'the power of musicive just been taken back to my childhood my father is still alive im dancing in my mickey mouse tshirt royorbison'
p2863
aS'the role of music in human culture  vikas shah interviews moby am '
p2864
aS'just had the absolute pleasure of reading an incredible interview by my good friend he interviewed hans zimmer and mobyyou boss'
p2865
aS'finally bought this bookvery happy thehelp'
p2866
aS' i will do tonight xx'
p2867
aS'hey layla suggested i get in touch  good advice methinks'
p2868
aS'haha morning stalk i havent stalked you yetill put that on the agenda for tomorrow morning  thanks  redcarpet x'
p2869
aS'hey eli you found me  well ive just completed my morning stalk on you haha im feeling red carpet x'
p2870
aS'yes we did see each other for a quick moment how was your night x'
p2871
asS'2013_15'
p2872
(lp2873
S'night night xx'
p2874
aS'pjs and bed all day \xf0\x9f\x91\x8c'
p2875
aS'pain makes people change but it also makes them stronger'
p2876
aS'baby sis sandy pants aka my twin'
p2877
aS'i need roast potatoes in my life'
p2878
aS'didnt do ff so follow my faves '
p2879
ag394
aS'eli on the left sandy on the right oh you lucky girl you x'
p2880
aS'boobkisses'
p2881
aS'hahahahahahaha'
p2882
aS'he says how much lol'
p2883
aS'omg would pay to see him now haha drunken lil sausage awww x'
p2884
aS'haha if only you could see the state of him now x'
p2885
aS'the morningafternoon after the night before time for tea '
p2886
ag394
aS'love you too xxx'
p2887
aS'just casually going sleep with my boobs covered in kisses off sandy amp nyomi ha \xe2\x99\xa5 love youuu xxx'
p2888
aS'deffo my eli is so sexyyyy bootyshake boobiesss ha x'
p2889
aS'awww thanks babygirl mwaaah x'
p2890
aS'family  '
p2891
aS'how hot did look tonight tho that is all say no more love this chick missed this chick amazin '
p2892
aS'a photo with the beautiful sandra cripps rare'
p2893
aS'ok crown well see you soon  kaps come back to manny x'
p2894
aS'oh but were not in nyc haha'
p2895
aS'come out where are you'
p2896
aS'i wanna party'
p2897
aS'going to soon come x'
p2898
aS'mwaaaaaaaah'
p2899
aS'thanks xx'
p2900
aS'youre in good hands babygirl xxx'
p2901
aS'out tonight for the first time in 3 months your responsible '
p2902
aS'cocktails with my booo hotness'
p2903
aS'thank you x'
p2904
aS'new hair looking good miss eli '
p2905
aS'my baby girls xxx'
p2906
aS'i love this sweetie pie xx'
p2907
aS'my beautiful girls xxx'
p2908
aS'oh yes we is '
p2909
aS'we gon partyyyy tonightttttt '
p2910
aS'haha dont ya worry  we know what were doing  x'
p2911
aS'none of this burnt ass steak lol sloppy'
p2912
aS'finally decided to unwrap my ferrero rocher easter eggwith a cuppa of course mmmmm thanks\xe2\x80\xa6'
p2913
aS'miss you too gorgeous girl when are you coming we might actually be able to eat steaks at home this time  xx'
p2914
aS'be encouraged stay on your hustle you cant fail until you quit'
p2915
aS'excited to see tonight xxx'
p2916
aS' mwah'
p2917
aS'pilates'
p2918
aS'haha booty shake love it xx'
p2919
aS'yayyyy miss my els mwahhh \xe2\x99\xa5 booty shakeee xxx'
p2920
aS'for you vicky anything  ill be there xxx'
p2921
aS'you best be out tonight madam i miss youuuu \xe2\x99\xa5'
p2922
aS'always  xxx'
p2923
aS'im fabulous el hope u are too  xx'
p2924
aS'beckybfcs photo'
p2925
aS'thanks babygirl how are you today happy to hear yesterday was a good day x'
p2926
aS'love the new hair lady  x'
p2927
aS'i see no reason why my ma doesnt do deliveries justtome ackeeandsaltfish'
p2928
aS'whats real doesnt fade'
p2929
aS'ok now im definitely going on a run its not like kelly rowland is just going to give me her thighs sigh'
p2930
aS'when youre down to nothing god is up to something the faithful see the invisible believe the incredible amp then '
p2931
aS'morning everyone hope your weekend is filled with love fun good times and music x'
p2932
aS'there is a big difference from having talent and being gifted gifted blessed'
p2933
aS'cherishing the old memories but more concerned with creating new ones'
p2934
aS'these two are my favourites got them when i was 19 africa art birthday kenya'
p2935
aS'i cant wait to put up my african art been collecting some of these beauties since i was 12 africa\xe2\x80\xa6'
p2936
aS'my boys are killin it awesomeness'
p2937
aS'sing it lee wooo'
p2938
aS'yeah'
p2939
aS'someone promoting their track something to do with the current govt amp posting my name against the pmsi havent even heard it'
p2940
aS'people just randomly involve you in things how did my name and the pms end up in the same tweet uncool'
p2941
aS'great how are you xx'
p2942
aS'ff '
p2943
aS'hi sweetie hows your day going x'
p2944
aS'eli mooooo lt3'
p2945
aS'hey please dont involve me in any direct political rantsi havent even heard your track'
p2946
aS'morning'
p2947
aS'new hair short dark boyish'
p2948
aS'new hair boyish '
p2949
aS'of course '
p2950
aS'listened to your album yesterday thumbs up applause\xe2\x80\x9d awww thanks eli so it gets the '
p2951
aS'nice lipstick btw rubyred perfectpout'
p2952
aS'today is going to be a great day positivity'
p2953
aS'listened to your album yesterday thumbs up applause'
p2954
aS'never give up great things take time'
p2955
aS'great studio session redcarpet'
p2956
aS'i just love old school singers so much musicality no need for frilly adlibs everywhere pure control beautiful'
p2957
aS'getting more custom outfits made by my lovely girls at chikizia luitu cant wait african fabric  colour designer unique'
p2958
aS'i love that race for life advert its so strong'
p2959
aS'to accomplish great things we must not only act but also dream not only plan but also believe'
p2960
aS'just did pilates for the first time my stomach muscles are on fire abs'
p2961
aS'i already feel better in myself first aid is extremely important knowledge'
p2962
aS'haha naughty'
p2963
aS'doing first aid trainingthe idea of acting out the heimlich manoeuvre is a little scary but rest assured if you choke im your man'
p2964
aS'i love that calls me honeychild '
p2965
aS'this tangy pineapple is making me pull all sorts of unflattering faces haha'
p2966
aS'morning jenny  x'
p2967
aS'morning honey  x'
p2968
aS'morning everyone its going to be a great day x'
p2969
aS'thanks babygirl xxx'
p2970
aS'thanks babygirl  made my day xx'
p2971
aS'and the tour finally reaches london hammersmithapollo ovoelive2013 apollo part 1'
p2972
aS'been listening to music all day \xf0\x9f\x99\x8c'
p2973
aS'mwah'
p2974
aS'passion desire music whats yours'
p2975
aS'interesting you have to pronounce each syllable to show you really mean it'
p2976
aS'that is good news '
p2977
aS'looking forward to singing my awesome foursome for you all soon xx'
p2978
aS'high five panda animal lover'
p2979
aS'pleasure to meet you too hope you enjoy what you heartheres more to come'
p2980
aS'thanks dom  x'
p2981
aS'shes amazing jx \xf0\x9f\x91\x8c'
p2982
aS'now following you back '
p2983
aS'now following '
p2984
aS'i aint tryna grasp a new idea with old thoughts   joe budden'
p2985
aS'haha \xf0\x9f\x99\x88 mwaaah '
p2986
aS'the doc tells me my vitamin d levels are lowhis prescription says one way ticket outta the uk fast haha i need sun desperately'
p2987
aS'got lots done today  progress positivethinking'
p2988
aS'it was wrong very wrong'
p2989
aS'haha i stalked yours too pretty lady x'
p2990
aS'sorry for stalking your instagram lol'
p2991
aS'wow  wtf indeed'
p2992
aS'omgdid i actually just witness a man taking a slash right against the glass door im sat against as in 4 inches away from my face wtf'
p2993
aS'instagramthisiseliuk'
p2994
aS'car sickthat taxi driver was wak yes i said wak motion sickness'
p2995
aS'tea time mmmm'
p2996
asS'2013_14'
p2997
(lp2998
S'night night babe x'
p2999
aS'sweet dreams x'
p3000
aS' thats awesome i love you even more now haha xx i love you too africanprincess xxxx'
p3001
aS'how sweet of you  x'
p3002
aS'dinner is servedcourtesy of moi wifey cook healthy yum'
p3003
aS' thats awesome i love you even more now haha xx'
p3004
aS'omg are you kenyan how did i not know this x'
p3005
aS'love this picture in starbucks of my home land  kenyan'
p3006
aS'one of my three biggest musical influences boyziimen definitely wouldnt be making the music we do without them '
p3007
aS'let the music speak for itself no gimmicks no politics just music'
p3008
ag394
aS'its ok you gotta kiss a few frogs  x\xe2\x80\x9d amen to that xxxx'
p3009
aS'get it together'
p3010
aS'its ok you gotta kiss a few frogs  x'
p3011
aS'thanks so much for your beautiful prawn risotto delicious'
p3012
aS'ive preordered woo\xe2\x80\x9d thank you so much \xf0\x9f\x99\x8c'
p3013
aS'hey how are you'
p3014
aS'hey beautiful  '
p3015
aS'dare to be different'
p3016
aS'time for some fun'
p3017
aS'hey forbesy'
p3018
aS'ive preordered woo'
p3019
aS'i woke up with super soft hair this morning did someone condition me in my sleep '
p3020
aS'hi when are you releasing your ep cant wait to hear it your artwork is beautiful x'
p3021
aS'had a great night on stage with loka at the lomax in liverpool also heard some amazing bands including plank awesome'
p3022
aS'hearing some great music tonight lomax'
p3023
aS'really pretty babygirl x hair colour'
p3024
aS'what do you think xx'
p3025
aS'thank you sweetheart xxx'
p3026
aS'good luck honey x'
p3027
aS'ate so much i might need a nap on stage in 2 hoursfresh air  that always helps'
p3028
ag394
aS'just had the most delicious dinner with fresh ingredients at fonsecas in liverpool yum'
p3029
aS'let them entertain you  lol'
p3030
aS'iphone is back amp the absolute gent of a man in the phone shop got all my shit back from i clouds tremendousplayfr '
p3031
aS'haha fakeplaya thats hilarious x'
p3032
aS'wow thats intense im sure you look gorgeous x'
p3033
aS'stop chasing ppl be fully engaged in your work and the ppl wll chase you myrisingtide'
p3034
aS'sometimes i wish i was nigerian unno so i can have powers'
p3035
aS'my work for  congrats for the ep '
p3036
aS'bad times you can do it x'
p3037
aS'study your craft dont wait find the white space make your your business your passion and prayer myrisingtide'
p3038
aS'sound check'
p3039
aS'thanks sparklepants love you lots x'
p3040
aS'have fun tonight gorgeous workit ownit  hope to catch up tomorrow much love amp happy friday hugs xx'
p3041
aS'big shout goes to out recent followers'
p3042
aS'haha'
p3043
aS'see you in liverpool tonight'
p3044
aS'morning xx'
p3045
aS'its a pummelo sojuicy  '
p3046
aS'thats quite a fruit'
p3047
aS'thanks julez xx'
p3048
aS'shout to ya on your website lady looks really good  '
p3049
aS'watching brave with the boysher mums a bear but shes normal loli never quite understand theese kids films pmsl'
p3050
ag394
aS'creating'
p3051
aS'patience reflection reality'
p3052
aS'crazy how easily you can get consumed with meaningless matters if you waited 5 minutes before reacting youd realise its not worth it'
p3053
aS'beaut at one central this saturday is the place to party 2 of manchesters finest djs spinning u the best in '
p3054
aS'gemini will never be boring they can find fun things to do anywhere they go'
p3055
aS'what the '
p3056
aS'need to get my driving sorted rapid 5 lessons or so an test time'
p3057
aS'yo'
p3058
aS'sade drawing'
p3059
aS'awesomeness'
p3060
aS'its coming along great boys version is done mixing girls version bcc'
p3061
aS'hi sweetie pie '
p3062
aS'this weather is confusing people im seeing a lot of socks and sandals'
p3063
aS'definitely my sister lol xx'
p3064
aS'where there is tea there is hope'
p3065
aS'i think ive seen you a few times but i can never tell if its you or your sister lol think im always gon '
p3066
aS'haha dont worry we get that a lot just remember shes cuter '
p3067
aS'hows the track coming along youre being very mysterious about all this'
p3068
aS'oh wow well i work nearby as well  im surprised we havent bumped into each other sooner xx'
p3069
aS'every end has a start every start has a decision every decision has a reason and every reason has a meaning'
p3070
aS'from hot weather to this stupid cold ass weather fml'
p3071
aS'is convinced im hiding something but im not hahaaaa xxx'
p3072
aS'yep  x'
p3073
aS'hey i saw you yesterdaybut i think we both doubted whether we are who we are haha'
p3074
aS'whos in liverpool tomorrow ill be performing with loka'
p3075
aS'im bursting to get back into the studio next week and finish red carpet cannotwait'
p3076
aS'what a beautiful morningand a beautiful surprise my favourite flowers in a gorgeous bouquet sunflower hubby'
p3077
aS'it did sweetheart thank you xxx'
p3078
as.