(dp0
S'2013_42'
p1
(lp2
S'no matter how good your selfie is its not as good as this one'
p3
aS'advantage of being super pale if you wear all white you look naked'
p4
aS'ive lost my job and my livelihood because of perceptions of me that were concocted and malicious that isnt reality its lies'
p5
aS'good luck melissa you rock'
p6
asS'2013_40'
p7
(lp8
S'you will probably be delayed when they see that plane in your ear'
p9
aS'i hope you see this tweet i wanted to compliment you on your positive attitude amp joyful spirit you are respectful and kind'
p10
aS'dont listen to andy he may have won the money but you have more followers and more loyalty'
p11
aS'wow thanks for the advanced notice 8 months may not be enough time to plan the party but itll have to do really'
p12
aS'we have the same friends arent they a fun bunch tell them i said hello'
p13
aS'i know how it feels to have family friends andor coworkers turn their backs instead of fighting for justicetruth easywayout'
p14
aS'i feel the same way you do downtoearth'
p15
asS'2013_41'
p16
(lp17
S'mccrafia'
p18
aS'stay away from that prednisone if you can hope you feel better soon'
p19
asS'2013_46'
p20
(lp21
S'invented by the lazy guy who hates refilling the pepper grinder'
p22
aS'winners deal with the truth drphil'
p23
aS'please try and remember to keep it classy dont jab at your guests or nbc keep your integrity and character intact'
p24
aS'you rock'
p25
aS'so pretty'
p26
aS'please acknowledge your spelling error yikes youre still handsome and funny more videos please'
p27
asS'2013_49'
p28
(lp29
S'your weather man should not use the word nailed when informing us of who will be affected by the winter weather'
p30
asS'2012_41'
p31
(lp32
S'happy birthday love you long time'
p33
asS'2012_40'
p34
(lp35
S'please explain to the american people debates can be had without rude zingers and interruptions and is a choice not a weakness'
p36
asS'2013_26'
p37
(lp38
S'you handled bruce jenner like a champ i hope you joke about his face every single night before the move start with his hair'
p39
asS'2013_21'
p40
(lp41
S'worstcarieverhad pacer i used to have to feed a rope down into the gas tank to see how much gas i had'
p42
asS'2013_22'
p43
(lp44
S'hit and run was so fun great job'
p45
asS'2013_29'
p46
(lp47
S'now would be a great time to use select all and enter have fun i still feel lucky and grateful'
p48
aS'i thought i was special mustfollowallordietrying'
p49
aS'well all of a sudden i dont feel as special as i did but if you came over and started following me i would feel better\xe2\x99\xa5'
p50
aS'what does it symbolize\xe2\x98\x85\xe2\x96\xa0\xe2\x99\xa1\xe2\x97\x8b\xe2\x97\x8f\xe2\x99\xa5\xc2\xb0\xe2\x96\xa0\xe2\x98\x86\xc2\xb0'
p51
aS' so nice to be followed by a comedy genius that i have admired and respected over the years well isnt that special  \xe2\x99\xa5'
p52
asS'2013_5'
p53
(lp54
S'dont text and sleep'
p55
asS'2013_4'
p56
(lp57
S'you ok not many tweets today miss you'
p58
aS'your presence is powerful your words moving amp when you turned around to look at the crowd one more time your heart so pure'
p59
asS'2013_1'
p60
(lp61
S'dont forget to choose from the hawaiian gods they even had goddesses'
p62
aS'i need some godgervais love too happy new year god nice to be able to chat in tweets have a good day make it snow'
p63
asS'2013_3'
p64
(lp65
S'so cute'
p66
aS'all natural bees wax coconut oil vitamin e peppermint by sayiteightso via'
p67
aS' its a saying i perpetuatehappiness is a choice not a response'
p68
aS'i watched your talk show from beginning to endyou said the word amazing a lot wanna know whats amazing you are'
p69
asS'2014_9'
p70
(lp71
S'i thought of you when i saw this'
p72
aS'thx for the music amp hugs last night in portland or marshall your hug is still with me you give such tender hugs \xe2\x99\xa5'
p73
asS'2013_8'
p74
(lp75
S'0'
p76
aS'well in my heaven which is also your heaven we meet should i pick you up or will you be driving'
p77
aS'i have often thought this and have shared this view with a select few it was neat to see this post from you see you in heaven'
p78
asS'2014_12'
p79
(lp80
S'when a fb friend posts a comment to check if anyone reads their posts and threatens to delete people that dont reply lame makesmemad'
p81
asS'2012_33'
p82
(lp83
S'its my birthday too'
p84
asS'2012_46'
p85
(lp86
S'we need a mama update how is your mom feeling'
p87
aS'saw this and thought of youobviously haha yeah ive always loved that quote'
p88
asS'2013_51'
p89
(lp90
S'i could use a hand massage as well'
p91
aS'they clearly spend all the money cleaning the walls'
p92
asS'2013_50'
p93
(lp94
S'for the father to ask his children to rob a bank goes against everything it means to be a good parent no matter the hardships'
p95
aS'its so generous the amount of gifts you give away the best gift you give is your kindness and laughter thank you'
p96
aS'pickmeellen ive been a good girl well mostly'
p97
asS'2013_52'
p98
(lp99
S'i would have to fix that carpet immediately mele kalikimaka hauoli makahiki hou'
p100
asS'2012_52'
p101
(lp102
S'umno she doesnt'
p103
aS'you share so many kind words and insights with the world thank you let the world comfort you with prayers and well wishes'
p104
aS' im a big fan and i think you are beautiful inside and out thank you for all that you do'
p105
aS'12daysofgiveaways im going to keep trying thank you for giving all of us another chance so exiting'
p106
aS'that karl is a genius and why arent tshirts with congress tart available'
p107
aS'nextchapter women and children are still becoming heroes they dont want to be heroes they want to be free'
p108
asS'2012_50'
p109
(lp110
S'i feel your passion amp pain it is the person mental instability intent that kills they will find a way legal or not'
p111
aS'btwi am sorry others have to make you feel bad for being you it isnt that you dont care its your way of dealing'
p112
aS'pongity pingity pong'
p113
aS'pick me because then i will win thank you'
p114
aS'you got your nails done'
p115
aS'ive never been to vegas yetbut you can change that please and thank you '
p116
aS'possible tornado it was or it wasnt come on'
p117
aS'you too ms hawn you are such a bright soul i miss you in movies'
p118
asS'2012_51'
p119
(lp120
S'power of the people we the people i am proud when we come together and stand up for what we will and will not tolerate'
p121
aS'i do'
p122
asS'2014_1'
p123
(lp124
S'very romantic'
p125
asS'2013_37'
p126
(lp127
S'i hope your shoulder gets younger soon are you drunk you are a trooper'
p128
asS'2013_36'
p129
(lp130
S'bam nice way to shut it down'
p131
aS'buscemi memi mo memi banana fanna fo femi me mi mo memi buscemi makebuscemisay'
p132
aS'you deserve it melissa'
p133
aS'every heart'
p134
aS'i absolutely love this'
p135
aS'ge a thing you are a beautiful person inside and out thanks for all the info you share'
p136
aS'that would be awesome you really are so fun to watch you have humility and an open vulnerability that you are not afraid to share '
p137
aS'thank you you rock have you found any other eye cream that compares to the bobbi brown that is less expensive'
p138
aS'do you still use the aha cream from walgreens how is the clarisonic working out'
p139
aS'this reminded me of you but i dont know why '
p140
asS'2013_35'
p141
(lp142
S'this picture exemplifies the meaning of life so many of us lose sight of these precious moments in life slowdown'
p143
aS'i only have 2 followers i think i could handle 3'
p144
asS'2013_34'
p145
(lp146
S'no thank you'
p147
asS'2013_33'
p148
(lp149
S'\xe2\x99\xa5'
p150
aS'happy birthday you wild and crazy guy'
p151
aS'a prayer for all tragedies dear lord please make with the opposite thing of that other really shitty thing you just made\xe2\x80\xa6'
p152
asS'2013_32'
p153
(lp154
S'i like to reminisce with people i dont know'
p155
asS'2013_31'
p156
(lp157
S'loved on conan brilliantly funny keep harmonizing'
p158
asS'2013_30'
p159
(lp160
S'boxing bell dingding ring announcer booming voice ok fighter metaphor for you this ends that roundgo to your corner'
p161
asS'2012_34'
p162
(lp163
S'i would die if you would hang out with me although it might be awkward dragging my body around places'
p164
asS'2013_39'
p165
(lp166
S'recently saw an article on medicinal marijuana high in cbd and low in thc that helped with seizures can this help you'
p167
asS'2013_38'
p168
(lp169
S'derek takes me on an emotional roller coaster one minute im laughing then crying then angry then laughing again weeeeeee \xe2\x99\xa5'
p170
aS'itsajokeyoudopeycunt its got a nice ring to it a bit subtle but it might work'
p171
aS'longislandmedium i am so happy tlc is bringing you back i \xe2\x99\xa5 the show it would be an honor to meet you i hope to be chosen to win'
p172
aS'you should never point its rude'
p173
asS'2013_10'
p174
(lp175
S'you are a beautiful person thank you for letting us get to know you you deserve all great things that come to you'
p176
asS'2014_22'
p177
(lp178
S'helpsomemen'
p179
aS'yesallwomen stories are powerful and meaningful but we need to focus on getting these unstable men help helpsomemen not all men'
p180
asS'2012_38'
p181
(lp182
S'you were amazing to watch you made the game exciting you should have won dont beat yourself up you did what you had to do'
p183
as.