(dp0
S'2013_40'
p1
(lp2
S'these two are amazing talents korean art is vast and next level time to collab \xf0\x9f\x94\xa5 \xeb\x82\x98\xeb\x8f\x84 \xf0\x9f\x99\x8f\xf0\x9f\x99\x8f\xf0\x9f\x99\x8f\xf0\x9f\x99\x8f\xf0\x9f\x99\x8f\xe2\x80\x9d'
p3
asS'2012_49'
p4
(lp5
S'jameson meets coke  the park ultra lounge'
p6
aS'happy bday shey lah sapporo grill on yelp'
p7
aS'i checked in at 24 hour fitness on yelp'
p8
aS'at ambush show room in tokyo rock that shiiiiiiit'
p9
aS'vvv collection gggg'
p10
aS'i checked in at 24 hour fitness on yelp'
p11
aS'i checked in at ihop on yelp'
p12
asS'2012_48'
p13
(lp14
S'i checked in at alonzos coffee shop on yelp'
p15
aS'i checked in at cafeteria 15l on yelp'
p16
aS'sixbang after mama lol winner chicken dinner'
p17
aS'you guys are pretty awesome'
p18
aS'peace to kpop'
p19
aS'love her'
p20
aS'i checked in at the elixir bar on yelp'
p21
aS'im loving your cartier love bracelet \xf0\x9f\x98\x8a'
p22
aS'i checked in at 24 hour fitness on yelp'
p23
aS'i checked in at bjs restaurant amp brewhouse on yelp'
p24
aS'i checked in at 24 hour fitness on yelp'
p25
aS'this is awesomeness'
p26
aS'my laptop \xf0\x9f\x98\x81'
p27
aS'i checked in at cisco master eyebrow designer on yelp'
p28
aS'i think oscars is closed look online i heard they opened one in west sac'
p29
aS'yep 24 hour fitness on yelp'
p30
aS'yum'
p31
aS'\xea\xb7\x80\xec\x97\xbd\xeb\x8b\xa4 \xeb\xa7\x9b\xec\x9e\x88\xec\x97\x90\xeb\xa8\xb9\xea\xb2\xa0\xec\x8a\xb5\xeb\x8b\x88\xeb\x8b\xa4'
p32
asS'2013_45'
p33
(lp34
S'i love sign up using my promo code and get 10 off your first ride'
p35
asS'2012_45'
p36
(lp37
S'i checked in at sloane squared on yelp'
p38
aS'i checked in at sahn maru korean bbq on yelp'
p39
aS'i checked in at cisco master eyebrow designer on yelp'
p40
aS'sephora on yelp all sephoras are great but this one is even better because its in downtown disney you get to exp\xe2\x80\xa6'
p41
aS'spirit halloween on yelp way over priced for cheap costumes make your own '
p42
aS'lampl hawaiian barbecue on yelp this is probably the cleanest lampl left i drive all the way to greenhaven just for it\xe2\x80\xa6'
p43
aS'jacks urban eats on yelp all i have to say is garlic fries they are sooo delish the mac and cheese is pretty tast\xe2\x80\xa6'
p44
aS'quality inn amp suites on yelp i booked my room an hr before i drove down to la for the big bang concert it was the c\xe2\x80\xa6'
p45
aS'heart clothing boutique on yelp this is a cute little place with the right amount of product to choose from and not \xe2\x80\xa6'
p46
aS'kru restaurant on yelp all i have to say is delish i cant believe i havent beed here before my friend knew the s\xe2\x80\xa6'
p47
aS'cold stone creamery on yelp honestly i think the place is over priced for my liking the ice cream is good and all \xe2\x80\xa6'
p48
aS'i notice that a lot of your fans incorporate your name in their twitter an instagram names is that weird'
p49
aS'get ready'
p50
aS'finally ny'
p51
aS'good times in la til next time and you guys should watch on danny from la on mnet peace'
p52
aS'onceinalifetime meetampgreet in paris'
p53
aS'i had such a great time today thank you chromehearts loveamppeace'
p54
aS'today was a memorable day met a lot of cool creative people love the westcoast danja'
p55
aS'2 chainz  birthday song explicit ft kanye west via'
p56
aS'2 chainz  birthday song explicit ft kanye west via'
p57
aS'it should be illegal to have such bright headlights'
p58
asS'2012_44'
p59
(lp60
S'now were chilling'
p61
aS'thanks it was an amazing concert'
p62
aS'its right next to costco gas station i had to stop lees sandwiches on yelp'
p63
aS'hes day'
p64
aS'happy birthday to top'
p65
aS'amaze amazing performance tonight in la cant wait for you guys to come back'
p66
aS'im at your la concert im on the right with hot pink short hair'
p67
aS'bigbang honda center'
p68
aS'yay honda center on yelp'
p69
aS'a little behind schedule but its ok listening to some bigbang while getting dressed'
p70
aS'to la i go bigbang '
p71
aS'i checked in at manaao thai cuisine on yelp'
p72
aS'\xeb\x8f\x84\xec\xb4\xac1'
p73
aS'\xec\x82\xac\xec\xa7\x84\xec\x9d\x84 \xeb\x93\xb1\xeb\xa1\x9d\xed\x95\x98\xec\x98\x80\xec\x8a\xb5\xeb\x8b\x88\xeb\x8b\xa4'
p74
aS'bye seoul'
p75
aS'seoul gtgtgtgtgtgtgtgtgtgt la'
p76
aS'happy halloween trick or treat '
p77
aS'i checked in at starbucks coffee on yelp'
p78
aS'of course i know you were watching my checkin like a hawk \xf0\x9f\x98\x81'
p79
aS'i checked in at mellow me out on yelp'
p80
aS'i checked in at 24 hour fitness on yelp'
p81
aS'what do you think youd be doing if you decided not to become a musician'
p82
asS'2012_47'
p83
(lp84
S'theyre open today not sure why yep says closed crepeville on yelp'
p85
aS'yumm crepeville on yelp'
p86
aS'you cant go wrong with pbr '
p87
aS'v'
p88
aS'late dinner  joes crab shack on yelp'
p89
aS'its thanksgiving '
p90
aS'seoul gtgtgtgtgtgtgtgt osaka'
p91
aS'night cap the elixir bar on yelp'
p92
aS'you should come to sacramento ca '
p93
asS'2012_46'
p94
(lp95
S'i checked in at mahoroba japanese bakery on yelp'
p96
aS'i checked in at de veres irish pub on yelp'
p97
aS'i checked in at firestone public house on yelp'
p98
aS'i checked in at otos marketplace on yelp'
p99
aS'la gtgtgtgtgtgtgtgt finally seoul'
p100
aS'get'
p101
aS'no way '
p102
aS'peru gtgtgtgtgtgtgtgt la'
p103
aS'i checked in at starbucks coffee on yelp'
p104
aS'hope you had a great time in the states you should visit more often'
p105
aS'guess who likes rides '
p106
aS'fun times '
p107
aS'when you listen carefully everything that comes from your heart can be music anilgupta inspiration'
p108
asS'2012_43'
p109
(lp110
S'do u like halloween'
p111
aS'us next weekend'
p112
aS'study session 2 starbucks coffee on yelp'
p113
aS'i checked in at cold stone creamery on yelp'
p114
aS'garlic fries jacks urban eats on yelp'
p115
aS'i checked in at spirit halloween on yelp'
p116
aS'i checked in at target on yelp'
p117
aS'study time starbucks coffee on yelp'
p118
aS'singing in the rainlets go malaysia'
p119
aS'rain rain go awaytanning is better'
p120
aS'eventually a person will show their true colors'
p121
aS'i checked in at 24 hour fitness on yelp'
p122
aS'its nice to see someone with an appreciation for art '
p123
aS'i was reading some of the comments from your andy warhol instagram post honesty some people can be rude an immature love the pix'
p124
aS'ambush\xc2\xae vvv collection coming soon '
p125
aS'skeleton leggings heart clothing boutique on yelp'
p126
aS'sangria yes please paesanos'
p127
aS'early dinner  paesanos on yelp'
p128
aS'i checked in at cisco master eyebrow designer on yelp'
p129
aS'blood typing can kick rocks at the moment'
p130
aS'the only reason i know about bigbang is because of gangnam style thank you youtube'
p131
aS'i love how music can take you away from reality even if its for 4 min '
p132
aS'boyz in taiwan'
p133
aS'your music is pretty fantastic i wish i could get more of my friends to listen'
p134
aS'us next weekend'
p135
aS'vote for bigbang amp gdragon at 2012 mama bigbang and gdragon are nominated for 2012 mnet asian music awards '
p136
aS'rain rain go away i need a tan'
p137
aS'oh how i miss vegas'
p138
aS'im dancing on my own'
p139
aS'its been awhile oh how ive missed it 24 hour fitness on yelp'
p140
aS'study time starbucks coffee on yelp'
p141
aS'if you get to start your own line of clothing that would be pretty awesome hopefully it will be available in the us'
p142
aS'i totally ran out of clever things to say '
p143
aS'and im pretty cute '
p144
aS'mexican girl in neon dont forget would love to meet you'
p145
aS'gdragon1021sbs inkigayocrayon \xed\x81\xac\xeb\xa0\x88\xec\x9a\xa9 copyright\xe2\x93\x922012 sbs contents hub coltd amp yg entertainment inc all '
p146
aS'i dont speak any korean but i love your music'
p147
aS'im running out of clever things to say '
p148
aS'dont forget about the mexican girl in neon at your us concert  would live to meet you'
p149
asS'2012_42'
p150
(lp151
S'taken 2 century theaters downtown plaza on yelp'
p152
aS'mmmmm pho bac hoa viet on yelp'
p153
aS'ill be the girl in neon at your nov 3rd concert in la keep a look out '
p154
aS'i checked in at kru restaurant on yelp'
p155
aS'just hanging  the elixir bar on yelp'
p156
aS'happy birthday cousin'
p157
aS'short hair again i think i see it in my near future '
p158
aS'yea yea'
p159
aS'ha ha'
p160
asS'2013_24'
p161
(lp162
S'i checked in at 24 hour fitness on yelp'
p163
aS'i checked in at 24 hour fitness on yelp'
p164
aS'its been 20min and im just now getting water thumbs down bjs restaurant amp brewhouse on yelp'
p165
aS'late dinner thanks ang \xf0\x9f\x98\x92 bjs restaurant amp brewhouse on'
p166
aS'just tried to make every excuse to skip \xf0\x9f\x98\x92 24 hour fitness on'
p167
asS'2013_25'
p168
(lp169
S'better late than never firestone public house on yelp'
p170
aS'i checked in at 24 hour fitness on yelp'
p171
asS'2013_26'
p172
(lp173
S'breakfast with dad  alonzos coffee shop on yelp'
p174
aS'i have no idea why we keep coming back \xf0\x9f\x98\x91 bjs restaurant amp brewhouse on'
p175
asS'2013_27'
p176
(lp177
S'bear pancakes black bear diner on yelp'
p178
aS'despicable me with the kiddo and boo \xf0\x9f\x98\x8a regal cinema natomas marketplace 16 on'
p179
aS'kid is spending the night with gp and bf is working \xf0\x9f\x98\x9c target on'
p180
asS'2013_20'
p181
(lp182
S'typical sunday \xf0\x9f\x98\x92 costco on'
p183
aS'i checked in at florez bar amp grill on yelp'
p184
aS'maybe this weekend youre welcome ha \xf0\x9f\x98\x9c'
p185
asS'2013_21'
p186
(lp187
S'delish vallejos restaurant on yelp'
p188
aS'no crazy im at work today i was remote wed and thurs \xf0\x9f\x98\x81'
p189
aS'xavier and i are ljs special friends today  cabrillo john elementary school on yelp'
p190
aS'iron man century sacramento greenback 16 on yelp'
p191
aS'first day back since i busted my ankle \xf0\x9f\x98\x91\xf0\x9f\x98\x92 24 hour fitness on'
p192
asS'2013_22'
p193
(lp194
S'ive cream social \xf0\x9f\x8d\xa6\xf0\x9f\x8d\xa8\xf0\x9f\x8d\xa7 belle cooledge library on'
p195
aS'fast 6 regal cinema natomas marketplace 16 on yelp'
p196
aS'\xf0\x9f\x91\x8d petra greek on'
p197
aS'super friendly quick quack car wash on yelp'
p198
aS'pearl needs a major washing quick quack car wash on yelp'
p199
asS'2013_23'
p200
(lp201
S'i checked in at round table pizza on yelp'
p202
aS'i checked in at european wax center on yelp'
p203
aS'i just won an ipad for referring enrique markham orthodontics on yelp'
p204
aS'yep ricks dessert diner on yelp'
p205
aS'dinner time \xf0\x9f\x98\x9c zen sushi on'
p206
aS'happy hr with the boo im starting to love tuesdays \xf0\x9f\x98\x81\xf0\x9f\x8d\xba\xf0\x9f\x8d\xb8\xf0\x9f\x8d\xb7 ella dining room and bar on'
p207
asS'2013_28'
p208
(lp209
S'i checked in at yelps a hottie for piatti on yelp'
p210
aS'yelp event thanks for the invite latda piatti ristorante amp bar on yelp'
p211
aS'i checked in at 24 hour fitness on yelp'
p212
aS'i checked in at 24 hour fitness on yelp'
p213
aS'no excuses 24 hour fitness on yelp'
p214
asS'2013_5'
p215
(lp216
S'i checked in at buffalo wild wings on yelp'
p217
aS'saturday funday the other office on yelp'
p218
aS'much needed latda time florez bar amp grill on yelp'
p219
aS'i checked in at 24 hour fitness on yelp'
p220
aS'coming soon'
p221
asS'2013_4'
p222
(lp223
S'its a way of life  24 hour fitness on yelp'
p224
aS'yep 24 hour fitness on yelp'
p225
aS'i checked in at 24 hour fitness on yelp'
p226
aS'i checked in at 24 hour fitness on yelp'
p227
asS'2013_7'
p228
(lp229
S'date day with the boo taros by mikuni on yelp'
p230
aS'i checked in at 24 hour fitness on yelp'
p231
asS'2013_6'
p232
(lp233
S'yummer paesanos on yelp'
p234
aS'i love saturdays 24 hour fitness on yelp'
p235
aS'i checked in at 24 hour fitness on yelp'
p236
aS'todays the day markham orthodontics on yelp'
p237
aS'i checked in at shoki ramen house on yelp'
p238
aS'i checked in at 24 hour fitness on yelp'
p239
asS'2013_1'
p240
(lp241
S'i checked in at raleys supermarket amp drug center on yelp'
p242
aS'i checked in at target on yelp'
p243
aS'yummers pho bac hoa viet on yelp'
p244
aS'i checked in at uncle vitos slice of ny on yelp'
p245
aS'yep even though its raining simons cafe on yelp'
p246
aS'lunch with good friends  cafe bernardo on yelp'
p247
aS'hello 2013 24 hour fitness on yelp'
p248
aS'i checked in at cisco master eyebrow designer on yelp'
p249
aS'happy new year le rivage hotel on yelp'
p250
aS'a movie before the night gets started  regal cinema natomas marketplace 16 on yelp'
p251
aS'dinner with the boo since he has to work tomorrow morning  burgers and brew on yelp'
p252
aS'last day before the new years resolution rush \xf0\x9f\x98\xa4 24 hour fitness on'
p253
aS'kat von d tattoo concealer did no concealing at all sephora on yelp'
p254
aS'i checked in at sephora on yelp'
p255
asS'2013_3'
p256
(lp257
S'i checked in at the white orchid salon amp spa on yelp'
p258
aS'i checked in at 24 hour fitness on yelp'
p259
aS'yep 24 hour fitness on yelp'
p260
aS'i checked in at paesanos on yelp'
p261
aS'working on a song with and irl on the internat right now'
p262
aS'i checked in at 24 hour fitness on yelp'
p263
aS'i checked in at 24 hour fitness on yelp'
p264
aS'the calm before the storm markham orthodontics on yelp'
p265
asS'2013_2'
p266
(lp267
S'gdragon \xe2\x80\x93 2013 1st world tour originally posted by'
p268
aS'katrina mellow me out on yelp'
p269
aS'i checked in at 24 hour fitness on yelp'
p270
asS'2013_9'
p271
(lp272
S'love saturdays 24 hour fitness on yelp'
p273
aS'i checked in at 24 hour fitness on yelp'
p274
aS'i checked in at 24 hour fitness on yelp'
p275
aS'how did 1 day off turn into 2 weeks 24 hour fitness on yelp'
p276
asS'2013_8'
p277
(lp278
S'forgot the eggs last night at the store black bear diner on yelp'
p279
aS'happy bday sleezy zen sushi on yelp'
p280
aS'i checked in at bar r15 on yelp'
p281
asS'2011_4'
p282
(lp283
S'if only i could have panera atmosphere and starbucks coffee studying can kick rocks'
p284
aS'ohh blackberry how i hate you'
p285
asS'2011_26'
p286
(lp287
S'im going to start since my facebook app sucks'
p288
asS'2010_28'
p289
(lp290
S'inception 345'
p291
asS'2010_25'
p292
(lp293
S'dirty ass bitches '
p294
aS'there was a line to get into the grown ups this movie better be good'
p295
aS'schoolblah blah blah'
p296
aS'its a beautiful day for a stroll'
p297
asS'2010_24'
p298
(lp299
S'boondock saints ii '
p300
aS'have fun and be safe take lots of pictures '
p301
aS'crawdad festival today maybe'
p302
aS'up at 430 like clock work'
p303
aS'the babes is sleepingnow i can catch up on my shows '
p304
aS'its 930 and were on the way home what movie is it gonna be tonight'
p305
aS'burger king for dinner then off to the fams'
p306
aS'what to do on a friday '
p307
aS'omg kelly from ny housewives needs to be put in the loony bin'
p308
aS'cabin fever'
p309
asS'2010_27'
p310
(lp311
S'grandmas watching the babes shopping and movie time team edward '
p312
asS'2011_44'
p313
(lp314
S'because you dress is too short '
p315
asS'2011_45'
p316
(lp317
S'hahaha'
p318
asS'2011_41'
p319
(lp320
S'you should clean the apt '
p321
asS'2011_42'
p322
(lp323
S'ha ha'
p324
aS'dont be scared well br home in a little bit '
p325
asS'2011_43'
p326
(lp327
S'ugggh im studying  ill be home soon  xoxo'
p328
asS'2012_52'
p329
(lp330
S'yep blue cue on yelp'
p331
aS'i checked in at chevys fresh mex on yelp'
p332
aS'i checked in at 24 hour fitness on yelp'
p333
aS'i checked in at 24 hour fitness on yelp'
p334
aS'need to get in before all those new years resolution people take over the place 24 hour fitness on yelp'
p335
aS'they forgot to give me the 20 cash back bel air supermarkets on yelp'
p336
aS'merry xmas hope santa brings you everything you want'
p337
aS'and the winner of the greatest song of 2012 is\xe2\x80\xa6\xe2\x80\x9ccrayon\xe2\x80\x9d by gdragon \xec\x97\x90\xec\x84\x9c'
p338
asS'2012_50'
p339
(lp340
S'i said the same thing breaks my heart '
p341
aS'happy belated bday december babies are the best'
p342
aS'korean rapper gdragon talks kpop hype new ep and past scandals psy isnt the only\xe2\x80\x94or even the m hi '
p343
aS'\xeb\xb9\x85\xeb\xb1\x85bigbang  \xed\x81\xac\xeb\xa0\x88\xec\x9a\xa9crayon amp \xed\x8c\x90\xed\x83\x80\xec\x8a\xa4\xed\x8b\xb1 \xeb\xb2\xa0\xec\x9d\xb4\xeb\xb9\x84fantastic baby  mama 2012 \xec\x97\x90\xec\x84\x9c'
p344
asS'2012_51'
p345
(lp346
S'last time arden fair mall on yelp'
p347
aS'haircut for xavier  sweet salon on yelp'
p348
aS'i checked in at arden fair mall on yelp'
p349
aS'holiday lunch the cheesecake factory on yelp'
p350
aS'i checked in at outback steakhouse on yelp'
p351
aS'let the madness begin arden fair mall on yelp'
p352
aS'nice lipstick'
p353
aS'team photo '
p354
aS'my hairstylist told me today that pantene shampooconditioner used to be used as a carpet cleaner and is made from plastic '
p355
aS'i totally believe it'
p356
aS'i checked in at kicos mexican food on yelp'
p357
asS'2011_48'
p358
(lp359
S'love love love'
p360
asS'2013_11'
p361
(lp362
S'not too crowded for st pattys the streets of london pub on yelp'
p363
aS'i checked in at the streets of london pub on yelp'
p364
aS'pizza and beer  luigis slice on yelp'
p365
aS'cheese sandwich  johnny rockets restaurant on yelp'
p366
aS'breakfast for lunch  black bear diner on yelp'
p367
aS'i checked in at 24 hour fitness on yelp'
p368
aS'i checked in at 24 hour fitness on yelp'
p369
asS'2013_10'
p370
(lp371
S'yum pho bac hoa viet on yelp'
p372
aS'jeff garcia punchline sacramento on yelp'
p373
aS'i checked in at applebees neighborhood grill amp bar on yelp'
p374
aS'i checked in at california pizza kitchen on yelp'
p375
aS'i checked in at 24 hour fitness on yelp'
p376
aS'im now the duchess of black bear diner on yelp'
p377
aS'i checked in at ernestos mexican food on yelp'
p378
aS'yo gabba gabba sacramento memorial auditorium on yelp'
p379
asS'2013_13'
p380
(lp381
S'yep mahoroba japanese bakery on yelp'
p382
aS'i checked in at dollar tree on yelp'
p383
aS'just when i was getting use to having them on the top its time for the markham orthodontics on yelp'
p384
asS'2013_12'
p385
(lp386
S'mmmmm el novillero on yelp'
p387
aS'trains california state railroad museum on yelp'
p388
asS'2013_15'
p389
(lp390
S'i checked in at zocalo on yelp'
p391
aS'i checked in at 24 hour fitness on yelp'
p392
asS'2013_14'
p393
(lp394
S'i checked in at round table pizza on yelp'
p395
aS'its a great day 24 hour fitness on yelp'
p396
asS'2013_17'
p397
(lp398
S'the is sallys not saltys saltys famous fishwich on yelp'
p399
aS'let see if it really is hands down best fish sandwich saltys famous fishwich on yelp'
p400
aS'i checked in at 24 hour fitness on yelp'
p401
asS'2013_16'
p402
(lp403
S'lunch with moms \xf0\x9f\x98\x81\xe2\x9d\xa4 kicos mexican food on'
p404
aS'snowcone for babes  osaka ya on yelp'
p405
aS'hanging with babes \xf0\x9f\x98\x8a\xe2\x9d\xa4 fairytale town on'
p406
aS'i checked in at 24 hour fitness on yelp'
p407
aS'first day without a preworkout supplement \xf0\x9f\x98\xa9 24 hour fitness on'
p408
asS'2013_19'
p409
(lp410
S'happy moms day  cafe bernardo on yelp'
p411
aS'i checked in at bjs restaurant amp brewhouse on yelp'
p412
aS'yummy black bear diner on yelp'
p413
asS'2013_18'
p414
(lp415
S'the kid loves to play games golfland sunsplash on yelp'
p416
aS'i checked in at paul martin on yelp'
p417
aS'happy hr from 37 scotts seafood on the river on yelp'
p418
aS'happy hr before dinner  scotts seafood on the river on yelp'
p419
aS'happy birthday boo the westin sacramento on yelp'
p420
aS'having lunch with the birthday boy \xf0\x9f\x98\x8a\xe2\x9d\xa4 paesanos on'
p421
aS'first time guests with ca id pay 21 for brazilians european wax center on yelp'
p422
aS'giving this place a shot european wax center on yelp'
p423
aS'xavier was such a good boy at the drs he didnt even cry after his shot jamba juice on yelp'
p424
asS'2010_52'
p425
(lp426
S'he couldnt make it to midnight'
p427
asS'2013_35'
p428
(lp429
S'lets see how this is lobster me on yelp'
p430
aS'panchos cocina mexicana amp grill on yelp this is my go to mexican restaurant very chill very casual place everyo\xe2\x80\xa6'
p431
asS'2011_33'
p432
(lp433
S'good job '
p434
asS'2013_33'
p435
(lp436
S'the search for candy continues in zeptolabs om nom stories stay tuned for om noms next adventurehgfrdff'
p437
asS'2010_30'
p438
(lp439
S'happy friday'
p440
asS'2010_37'
p441
(lp442
S'my bf has it and loves it im a blackberry user and have been for so long the iphone 4 made me want to switch'
p443
as.