(dp0
S'2012_29'
p1
(lp2
S'what did the toilet say to the toilet paper nothing because toilets dont talk'
p3
aS'what do a trex and a duck have in common theyre both not a lamp'
p4
aS'yo mammas so fat her doctor directed her to develop healthy eating habits a proper diet and exercise daily'
p5
aS'whats worse than finding a worm in your apple being raped by a giant scorpion'
p6
aS'what does a tree and your friend have in common they both fall down when hit multiple times with an axe'
p7
aS'i was diagnosed with clinical depression yesterday it made me sad'
p8
aS'why did the plane crash the pilot was a loaf of bread'
p9
aS'how do stop a black person from drowning you throw him a pfd'
p10
aS'want to here a joke the wnba'
p11
aS'is this the krusty krab no this is patrick'
p12
aS'how do you make a plumber cry you kill his family'
p13
aS'a duck walks into a bar and the bartender sayswhatll it be and the duck doesnt say anything because its a duck'
p14
aS'why did the boy drop his ice cream he was hit by a bus'
p15
aS'how do you confuse a blonde paint yourself green and throw forks at her'
p16
aS'an irish man walks out of a bar'
p17
aS'roses are red violets are blue i have a gun get in the van'
p18
aS'whats the difference between a duck oranges because trees dont have doors'
p19
aS'whats the difference between a plum and a small bunny there both purple except for the bunny'
p20
aS'i just got up to 18215 in doodlejump beat that'
p21
asS'2012_28'
p22
(lp23
S'good question'
p24
aS'retweet this with your elbow no cheating'
p25
asS'2012_27'
p26
(lp27
S'just wrong'
p28
asS'2012_26'
p29
(lp30
S'01212'
p31
asS'2012_24'
p32
(lp33
S'im going to drake at nikon at jones beach theater in new york ny  jun 16'
p34
asS'2012_30'
p35
(lp36
S'why cant stephen hawking dance because hes white'
p37
asS'2012_21'
p38
(lp39
S'thats 8 to many'
p40
aS'fail'
p41
as.