(dp0
S'2014_43'
p1
(lp2
S'just me and some makers tonight flyingsolo blacksburg taphouse'
p3
aS'on my own manhattan saturday turndownforwhat'
p4
aS'making ends meet survivaljob'
p5
aS'this is going to be a great friday lotr turndownforwhat'
p6
aS'hong kong deserves better than iranstyle elections where tycoons get to pick the slate'
p7
aS'are you trying to ride a roller coaster again \xf0\x9f\x98\x94'
p8
aS'dreary day in the district ebenezers coffeehouse'
p9
aS'aziz ansari dons a chicken suit for his appearance on \xe2\x80\x9csesame street\xe2\x80\x9d'
p10
aS'what threat is more lethal than isis our new iraq matters podcast winteriscoming to complicate your tuesday'
p11
aS'starving refugees make for good advertising classy jimmyjohns iraq'
p12
aS'watching thefaultinourstars with some pizza and cider but sans tissues'
p13
aS'lifes a party rock your body marceltheshellwithshoeson'
p14
aS'washington\xe2\x80\x94not dc\xe2\x80\x94named \xe2\x80\x9cbest in travel\xe2\x80\x9d by lonely planet magazine'
p15
aS'im equal parts sweetheart and smart ass'
p16
aS'changing my name is so much fun marriedlife killmenow'
p17
aS'35 that\xe2\x80\x99ll restore your faith in john krasinski'
p18
aS'27 nicole kidman reactions that perfectly sum up your life via'
p19
aS'bridesmaids cantstopshouldstop'
p20
aS'love you too brother man mrandmrsbenr'
p21
aS'cant believe this was two weeks ago today mrandmrsbenr marriedlife'
p22
asS'2014_42'
p23
(lp24
S'but why do they always go looking for the killer why dont they run away americanhorrorstoryfreakshow'
p25
aS'theres so much about this clown that im not ok with americanhorrorstoryfreakshow'
p26
aS'im ready for a 101 dalmatians remake with jessicalange as cruella americanhorrorstoryfreakshow'
p27
aS'ok ok everybody calm down'
p28
aS'im so scared to watch it by myself '
p29
aS'i have free time tonight what do i do americanhorrorstoryfreakshow of faultinourstars '
p30
aS'postconflict development efforts in afghanistan are quietly unraveling read more by'
p31
aS'designed an app for election monitoring amp analysis its been a productive day onlyatgw'
p32
aS'day two of learning how to use tech to manage humanitarian responses with'
p33
aS'insecurity bores me'
p34
aS'at first i thought tweeted this which makes a lot of sense'
p35
aS'hanging out with today to learn about how we can use tech to respond to intl crises and conflicts humanitarian'
p36
aS'castle rock \xf0\x9f\x93\xb7 via craig peterson'
p37
aS'brunch in dc is always a good decision treatyoself tonic at quigley\xe2\x80\x99s bar and restaurant'
p38
aS'weekend classes call for a dc brunch flyingsolo treatyoselfday'
p39
aS'the most insane fall cocktail is served in an entire delicata squash via'
p40
aS'i would call but the cat wont answer the phone its overheard in dc time'
p41
aS'i posted 8 photos on facebook in the album first look sarah and ben'
p42
aS'my favorite little people on a very big day mrandmrsbenr'
p43
aS'a daily commute to survive in iraq'
p44
aS'preach scarier than ebola'
p45
aS'how malala can help defeat the islamic stateempowering women is a key to stemming the tide of extremism worldwide'
p46
aS'halloween decorations are up'
p47
asS'2014_41'
p48
(lp49
S'asking someone what your favorite lordoftherings movie is is like asking a mother who their favorite child is'
p50
aS'4 ways to tell funnier jokes'
p51
aS'finally headed back to see my husband its so weird to say that'
p52
aS'the houston radio station playing only beyonc\xc3\xa9 isnt quite as crazy as it sounds'
p53
aS'sometime after my four hour commute '
p54
aS'we could watch it together tomorrow long distance'
p55
aS'it would help if i could find somewhere to stream it'
p56
aS'hopefully leftover wedding cake will make watching americanhorrorstory without less heartbreaking missingmysupreme'
p57
aS'\xe2\x80\x9ci\xe2\x80\x99m happy to be back at school\xe2\x80\x9d nooran 9 displaced amp 2 yrs out of school childrenofsyria'
p58
aS'the eiffel tower is getting a glass floor'
p59
aS'you know you live in dc when people standing on the left side of the escalator makes you feel violent metrorage'
p60
aS'great photo mt nice one from dc rt sunrise onlyatgw gwu'
p61
aS'the colorful world of hong kongs protest art'
p62
aS'thanks for the photo i had an amazing day mrandmrsbenr'
p63
aS'thanks to for taking such beautiful pictures this weekend mrandmrsbenr'
p64
aS'weddingd too hard this weekend'
p65
aS'exhausted from wedding festivitiesand rebooting my twitter'
p66
asS'2014_44'
p67
(lp68
S'i miss you like a lot'
p69
aS'i will never forget buddy the elf'
p70
aS'sometimes being sexy for halloween is too much work heisenberg walterwhite breakingbad'
p71
aS'yobitch breakingbad walterwhite heisenberg halloween'
p72
aS'stay out of my territory heisenberg breakingbad walterwhite happyhalloween'
p73
aS'cause there aint no halloween like a greeley halloween'
p74
aS'i have to work til 3 am and im literally the only one here dressed up \xf0\x9f\x98\x94'
p75
aS'i feel the same way its actually kind of depressing'
p76
aS'that dude there im gonna need his prosthetic leg rocketraccoon guardiansofthegalaxy halloween'
p77
aS'tellin it like it is gradschoolproblems broke'
p78
aS'check out this article on the mideast for your paper'
p79
aS'is it weird that im starting to enjoy international finance onlyatgw'
p80
aS'happy nationalcatday and halloween mycathatesme'
p81
aS'the strange spooky history of the ouija board'
p82
aS'the best theater venues in dc from the kennedy center to the capitol hill arts workshop'
p83
aS'because russia is a grumpy irascible secondrate power onlyatgw shotsfired'
p84
aS'gendry you know you shouldnt insult people that are bigger than you are arya then i wouldnt get to insult anyon\xe2\x80\xa6'
p85
aS'long obnoxious wedding hair is no more'
p86
aS'video gwu grants adorable crying toddlers wish to meet george washington'
p87
aS'todays a tweet about my cats kind of day phoebe smellycat'
p88
aS'vogue catsofinstagram'
p89
as.