(dp0
S'2013_28'
p1
(lp2
S'hip bones have come outits finally working'
p3
aS'like they touch when i stand up'
p4
aS'fucking ew'
p5
aS'disscusting'
p6
aS'my thighs are so fucking discussing'
p7
aS'whilst most people would call it eating i would call it binging'
p8
aS'dont even fit into a size 6 on the bottom woooooooo'
p9
aS'i should just die because im only a burden to everyone'
p10
aS'she was sinking not far enough to drown she felt herself getting deeper and deeper and no one pulled her out'
p11
aS'no one actually likes me'
p12
aS'im not'
p13
aS'go ahead barchicken salad sandwichcouple slices of cucumberand some oreos fuck sake'
p14
aS'id rather have small cute boobs than huge ones and i dont understand why men like them tbh'
p15
aS'skip dinner be thinner'
p16
aS'hungry go weigh yourselfare you still hungry no way'
p17
aS'i swear to god if you blog food in to my tl im never talking to you again'
p18
aS'fasting starts today'
p19
aS'retweet this if you hate looking in the mirror'
p20
aS'binge purge starve fails repeat  thats what i keep doing all day '
p21
aS'its always the girls who love the mostboys never do'
p22
aS'i feel sick to look in the mirror'
p23
aS'today i was diagnosed with clinical depression'
p24
aS''
p25
aS'my hipbones are starting to come throughyay for fasting'
p26
aS'perfect legs'
p27
aS'why'
p28
aS'urgh im so fat'
p29
aS'today i ate a bar of oreo dairy milka chicken salad and a whole box of grapespurge time'
p30
aS'hey fattynice legs\xf0\x9f\x98\x9e'
p31
aS'so fucking ewlook how fat'
p32
aS'fuck sake'
p33
aS'binged way too much today'
p34
asS'2013_31'
p35
(lp36
S'yes'
p37
aS'im skinny on the top but my legs are ginormous why'
p38
as.