(dp0
S'2013_42'
p1
(lp2
S'and why are they \xe2\x80\x9cdrinking whiskey and rye\xe2\x80\x9d shouldn\xe2\x80\x99t they just fucking pick one'
p3
aS'remember when diving head first into an impromptu scat solo always safe to start with ski boot kabob'
p4
aS'being called a bitch is a compliment cause bitches get stuff done work tinafey amypoehler'
p5
asS'2013_43'
p6
(lp7
S'oh really i didnt realize cops were considered sensitive vegetation'
p8
asS'2013_40'
p9
(lp10
S'\xe2\x80\x9cmy best friends red wedding\xe2\x80\x9d addawordruinamovie'
p11
aS'please tell me you slapped him'
p12
aS'im an and you can be too be a tastemaker for access to perks products and offers trendsetting'
p13
asS'2013_46'
p14
(lp15
S'just got the butterbeer latte at rose starbucks bless you for making all my potterhead dreams come true'
p16
aS'congrats for being the first segment in the daily shows racistnot racist piece way to go harrisonburg'
p17
aS'im loving these sfe quotes '
p18
aS'someone should tell ehall to hurry up and get on that train i would lose my mind if they made that'
p19
asS'2013_44'
p20
(lp21
S'dont forget to come to festival for 90s day costume contest and dance party 8 '
p22
aS'jmu dont forget to come out to 90s day at festival tomorrow well have 90s music all day amp great prizes for the costume contest'
p23
asS'2013_45'
p24
(lp25
S'so happy you like the jmuhomecoming treat rt the teddygrahams and icing in festival are your \xe2\x80\xa6'
p26
aS'haha no problem the students and i had a great time looking forward to working with you again hopefully'
p27
aS'had to get a ladder to get the first popcorn tin of the season at walmart dont even care cause its totally worthit christmas2013'
p28
asS'2013_26'
p29
(lp30
S'guys guys i cant wndrbby coolestkidever'
p31
aS'this is how you do female armor'
p32
asS'2013_22'
p33
(lp34
S'so no hburg visit '
p35
asS'2013_23'
p36
(lp37
S'help make it happen for to hell and back a duke dogs tale on jmu dukes harrisonburg'
p38
asS'2013_28'
p39
(lp40
S'how cool would it be to live in a world where george zimmerman offered trayvon martin a ride home to get him out of the rain t\xe2\x80\xa6'
p41
aS'im so sorry our justice system failed you trayvon martin'
p42
aS'amy poehler casts game of thrones if it were parks and rec'
p43
asS'2013_29'
p44
(lp45
S'jesse and the rippers are reuniting and performing tonight on jimmy fallon   90sgirlso\xe2\x80\xa6'
p46
asS'2013_50'
p47
(lp48
S'hey jmu if youre up late studying in ecl make sure to come to festival for free food from midnight6 am '
p49
asS'2014_3'
p50
(lp51
S'loving nymcleanfreak dry shampoo my hair feels so clean and smooth youre the best influenster violetvoxbox'
p52
asS'2013_37'
p53
(lp54
S'start encouraging students to frequent java city instead of starbucks were organic amp fair trade '
p55
asS'2013_36'
p56
(lp57
S'reading the stories on the whsv website makes me sadapparently our news station needs a proofreader on staff harrisonburg'
p58
asS'2013_13'
p59
(lp60
S'harry potter withnail amp i actor richard griffiths age 65 passes away'
p61
aS'oh sorry is iran free because i didnt get the memo wake up sheeple'
p62
aS'animaniacs supercut is zany to the max includes most of the theme songs alterate endings'
p63
aS'loving these rt if characters of firefly lived in westeros these would be their sigils'
p64
aS'a fan illustrated han solo leia and lando in their current looks and turned it into a starwars vii poster '
p65
aS'agreed i really cant get over megan fox as aprildid they stop to even consider felicia day'
p66
aS'speaking of starwars  when will my mom learn its pronounced layuh not leeuh youd think 23 years of hounding later shed know'
p67
aS'nerd girl problems everyone but your nerdy friends thinks your new princess leia hoodie is creepy nerdproblems starwars dontcare'
p68
aS'the ten biggest liars in comics via'
p69
aS'am i the only one who finds this cast not only whitewashed but really disappointing tmnt ihateyoumichaelbay'
p70
aS'boyfriend bought me a signed flashdrive and a tshirt with joco riding a wampa at paxeast  thats true love people'
p71
aS'rewatching lok todaygotta love the little avatar'
p72
asS'2013_12'
p73
(lp74
S'someone put the audio from jurassic park over scenes from return of the jedi oddly enough it works'
p75
aS'cant believe im graduating in may with a job lined up with the company i love in the building i love surrounded by people i love sweet'
p76
aS'im sorry but if the new cover of doesnt make you hungrywell dammit im resigning'
p77
asS'2013_14'
p78
(lp79
S'a day in the life of the voice of lisa simpson'
p80
aS'peter jackson releases some footage of the next hobbit movie with stephen colbert and billy boyd'
p81
asS'2013_18'
p82
(lp83
S'officially a jmu alum foreveraduke'
p84
asS'2013_11'
p85
(lp86
S'tastycakes and coffee is the perfect way to start the day'
p87
aS'first ladys ice cream social to kick off madison week today 11am1pm between dhall and carrier yummy'
p88
aS'who likes ice cream come try some ice cream floats on monday 11 am and explore different type of ice cream '
p89
aS'make sure to check out the commons at 11 to see the amazing ice cream social jmu inauguration harrisonburg'
p90
asS'2013_10'
p91
(lp92
S'my encarta cdrom isnt working and i have a report due tomorrow 90sgirlproblems'
p93
aS'tomorrow kicks off madison week check out all sorts of fun events here'
p94
aS'jmu tomorrow from 112 free ice cream social on the commons stop by to see all the awesome work weve done to make this a special week'
p95
aS'i should not be allowed into the book fair without a serious spending limit nerdgirlproblems'
p96
aS''
p97
aS'everyone else is excited for snow im just excited to spend the next day marathoning bsg nerdgirlproblems'
p98
aS'im hungry but the fridge is so far theendlessstruggle'
p99
aS'artist chris sprouse leaves orson scott cardpenned superman story'
p100
aS'guys someone cosplayed as the hawkeye initiative at emerald city comicon'
p101
aS'is vulcan a logical name for one of plutos new moons via and by me'
p102
aS'tomb raider a chance to make a difference via'
p103
asS'2014_23'
p104
(lp105
S'it is absolutely official now lupita nyon\xe2\x80\x99o and gameofthrones\xe2\x80\x99 gwendoline christie are in starwars ep 7'
p106
asS'2014_22'
p107
(lp108
S'i am not the girl in girl meets world 90sgirlproblems'
p109
aS'if you dont want to give money then dont pretty simple its anonymous for the safety of the victim'
p110
aS'i started this campaign i assure you its 100 legitimate but if you have any questions feel free to dm me'
p111
aS'the shooters ideas about women were not crazy by the standards of the world today they are the norm'
p112
aS'you may not control all the events that happen to you but you can decide not to be reduced by them maya angelou'
p113
aS'beloved and now departed dr angelou our teacher and mentor'
p114
aS'watch interview with dr maya angelou from september 2012 nerdland'
p115
aS'yesallwomen because when i think about an assault to share on the thread i have to decide which one'
p116
aS'oh my god i am part of the problem'
p117
aS'father of victim in ca shootings i dont give a shit that you feel sorry for me get to work and do something'
p118
aS'yesallwomen'
p119
aS'a personal piece from me today how to end the college class war via'
p120
aS'yesallwomen because every woman remembers the first time she experienced street harassment  i was 12'
p121
aS'every man should read the yesallwoman thread for five minutes stop being defensive and just consider a womans dayt\xe2\x80\xa6'
p122
aS'call me crazy but i hope someday women have more rights than guns do'
p123
aS'todays fun feminism fact do you know what year it was when american women could get their own credit cards without a \xe2\x80\xa6'
p124
aS'no but seriously dont tell me i should smile more yesallwomen'
p125
aS'we are still teaching women on how not to be raped rather than telling men not to rape yesallwomen'
p126
aS'because in the steubenville rape case the biggest tragedy was that the rapists football careers were over yesallwom\xe2\x80\xa6'
p127
aS'yesallwomen because schools restrict girls clothes to prevent boys from ogling amp arent teaching them that girls arent sex\xe2\x80\xa6'
p128
aS'from the same people that brought you my best friend is black notallmen'
p129
aS'because people are actually getting insulted and trolled through this get a life yesallwomen'
p130
aS'because every time i see sexist behavior i have to explain it carefully to reactive men yesallwomen'
p131
aS'wow thats ridiculous stay strong it sounds like youre doing everything you can to raise your son well'
p132
aS'thank you that means so much'
p133
aS'yesallwomen because people on twitter are calling my character into question when i talk about being raped'
p134
aS'are you serious no im lying about being raped and im lying about flashbacks and panic attacks and diagnosed ptsd yesallwomen'
p135
aS'yesallwomen because im still afraid to talk to my family about the sexual violence ive suffered because they dont believe me'
p136
aS'yesallwomen because i didnt ask to be raped when i was hanging out with people i thought were friends'
p137
aS'nailed it'
p138
aS'because women are taught to hate themselves if men reject them and men are taught to hate women if women reject them y\xe2\x80\xa6'
p139
aS'real men don\xe2\x80\x99t hate women who stand up for themselves they stand right beside them yesallwomen'
p140
aS'\xe2\x80\x9cnot all men are monsters imagine a bowl of mampms 10 of them are poisoned go ahead eat a handful not all mampms are poison\xe2\x80\x9d \xe2\x80\xa6'
p141
aS'we are husbands sons boyfriends brothers friends strong women fill our lives with love feminism is fighting for our\xe2\x80\xa6'
p142
aS'if you think yesallwomen is an attack on men youre not listening to women which is kind of the problem'
p143
aS'yesallwomen because every conversation about this on fb is being derailed by men denying their privilege just stop now'
p144
aS'remember this misogynist rampage next time you claim online threats are \xe2\x80\x9cjust boys being boys\xe2\x80\x9d or \xe2\x80\x9cjust how the internet is \xe2\x80\xa6'
p145
aS'i repeat the fact that there are male victims isnt proof its not misogyny its evidence that misogyny hurts men too\xe2\x80\xa6'
p146
aS'because robin thicke can write a song about date rape and cheat on his wife and people feel sorry for him when she leav\xe2\x80\xa6'
p147
aS'we get shamed for saying yes and we get insulted for saying no  where does it end yesallwomen'
p148
aS'women in 1914 fought for their right to vote women in 2014 fight for their right to say no and dress how they please yesa\xe2\x80\xa6'
p149
aS'yesallwomen because the boys who raped my best friend could still joke about her in the interrogation room and feel no remorse'
p150
aS'yesallwomen because if elliot rodger had hated jewish people it would be a hate crime because he hated women its \xe2\x80\xa6'
p151
aS'because in about 30 states rapists whose victims choose to keep the baby can get parental rights like weekend visita\xe2\x80\xa6'
p152
aS'yesallwomen bc rape is the only crime where the victim has to prove it wasnt their fault'
p153
aS'if you think yesallwomen is about hating men you havent read the stream its about hating injustice its about hating liv\xe2\x80\xa6'
p154
aS'because make me a sandwich shirts arent against dress code but my bra strap is yesallwomen'
p155
aS'because were taught dont leave your drink alone instead of dont drug someone yesallwomen'
p156
aS'yesallwomen because i shouldnt feel the need to call my boyfriend every time i walk to my car after work'
p157
asS'2014_25'
p158
(lp159
S'will someone let disney know that a really cool twist on dystopian ya would be a star wars stand alone film about teen leia'
p160
aS'seriously if youre a jmu alum amp you arent furious you need to wake up standwithbutters'
p161
aS'i standwithbutters because the women of jmu and the world deserve justice'
p162
aS'wonder how the officials who swept this tragedy under the rug sleep at night standwithbutters'
p163
aS'sarah butters is a brave woman you have a whole alumni community behind you standwithbutters'
p164
aS'the fact that people are saying this sexual assault was her fault bc she chose to get blacked out literally disgusts me \xe2\x80\xa6'
p165
aS'standwithbutters because apparently mens educations are more important than a womans body again why we need yesa\xe2\x80\xa6'
p166
aS'james madison university change the response to sexual assault at jmu via standwithbutters'
p167
aS'expelled them the fraternity takes sexualassualt more seriously than standwithvictims standwithbutters'
p168
aS'jmu needs to hold mike lunney jay dertzbaugh and nick scallion accountable for their horrific actions endsexualassa\xe2\x80\xa6'
p169
aS'this story needs to be told in support of my coworker and friend you should be ashamed standwithbutters'
p170
aS'students are told if a person isnt sober then they cant give consent and josh bacon seem to have forgotten that stan\xe2\x80\xa6'
p171
aS'whether shes a sister friend family or complete stranger to you sarah is a modern day martyr for women everywhere st\xe2\x80\xa6'
p172
aS'you make me embarrassed to be from virginia standwithbutters'
p173
aS'jmu this is not what being a duke is about no donations from me until things are rectified wrongcall dobetter standwith\xe2\x80\xa6'
p174
aS'jmu your horrible decision in a clear case of sexual assault is unconscionable way to be the change standwithbutters'
p175
aS'its so disheartening to hear that would try to lessen the gravity of a sexual assault incident standwithbutters'
p176
aS'your judicial system is absolutely disgusting standwithbutters'
p177
asS'2014_24'
p178
(lp179
S'photos brazilians furious over 11b being spent to host the worldcup protest on opening day'
p180
aS'is it bad that im more excited about the return of the magic school bus than i am about the world cup 90sgirlproblems'
p181
asS'2014_27'
p182
(lp183
S'an illustrated guide to american personhood scotus hobbylobby'
p184
aS'apply now kitchen garden tours are back find out how your school or community can come visit'
p185
aS'nothing says republican like threatening defenseless women amp children on the 50th anniversary of the civilrightsact'
p186
aS'nicknaming women beyonc\xc3\xa9 voters is exactly why we dont vote republican also dont use beys\xe2\x80\xa6'
p187
aS'so much for the hobby lobby decision only impacting 4 types of birth control'
p188
aS'our ability to control our reproductive organs has enabled us to become a part of the american workforce and economy hobbylobby scotus'
p189
aS'absolutely disgusted by todays hobbylobby decision scotus just set american women back at least a decade'
p190
aS'american women\xe2\x80\x99s equality continues to be undermined by the privileging of religion in public discourse'
p191
aS'hardworking women will pay the price for todays two troubling scotus decisions  in wages health care amp dignity'
p192
aS'this is totally not about sex because none of the women writing about this case are being called whores oh wait we all are'
p193
aS'the conservative mission to shrink government \xe2\x80\x99til it\xe2\x80\x99s small enough to double as a chastity belt'
p194
asS'2014_26'
p195
(lp196
S'some days i wish i could wear one of those do not disturb signs around my neck\xf0\x9f\x98\x8f'
p197
aS'always likeagirl'
p198
aS'remind prolifers abortion is more common where its illegal and more dangerous too is that what they want'
p199
aS'once again the us power structure sees the word abortion and abandons all pretense of protecting individual liberty'
p200
aS'if you want a chris hemsworthstarring fairy tale vehicle just call it prince charming and call it a fucking day'
p201
aS'heartbreaking news a vital voice for justice is silenced'
p202
as.