(dp0
S'2013_43'
p1
(lp2
S'a green life is a good life '
p3
asS'2013_40'
p4
(lp5
S'mean green squeaky clean '
p6
asS'2011_18'
p7
(lp8
S'new organic fungicides for gardens  landscapes'
p9
asS'2013_46'
p10
(lp11
S'what is life without taking risks'
p12
aS'how was everyones long weekend freecountry thankstooursoldiers godblessamerica'
p13
asS'2013_47'
p14
(lp15
S'a branch christmas tree so cool enviroselects christmas pinterestneverfails'
p16
asS'2011_50'
p17
(lp18
S'need a chlorine alternative'
p19
asS'2011_13'
p20
(lp21
S'get more chemical contact time with the portafoamer'
p22
aS'check out this relevant current and helpful publication on organic living\xe2\x80\xa6'
p23
aS'interview environmentallyfriendly pond algae control  is there such a thing as environmentallyfriendly algae con'
p24
aS'interview environmentallyfriendly pond algae control'
p25
asS'2011_12'
p26
(lp27
S'organic food market trending up or down'
p28
aS'check out this article on organic farming'
p29
aS'newsletter effective systemic pest control'
p30
aS'composting for your organic garden three important tips to consider\xe2\x80\xa6'
p31
aS'greenclean xtreme concentrate liquid bacteria stimulates your ecosystem and helps it thrive'
p32
asS'2011_41'
p33
(lp34
S'how to \xe2\x80\x9cimmediately\xe2\x80\x9d battle high gas prices with these 5 tips and lower emissions in the process'
p35
asS'2011_10'
p36
(lp37
S'greencleanpro attacks algae on contact killing within hours of application'
p38
aS'tired of rampant algae growth spoiling your beautiful pond'
p39
asS'2012_41'
p40
(lp41
S'two new greenclean products registered for use in california'
p42
asS'2011_16'
p43
(lp44
S'mold doesnt have a chance with sanidate 50'
p45
aS'how to \xe2\x80\x9cimmediately\xe2\x80\x9d battle high gas prices with these 5 tips and lower emissions in the process'
p46
asS'2011_15'
p47
(lp48
S'want to learn how to prevent and control fusarium'
p49
aS'azaguard rebate \xe2\x80\x93 2 days left'
p50
aS'pythium water treatment in hydroponic  aquaponic systems'
p51
asS'2011_14'
p52
(lp53
S'what is your carbon footprint'
p54
aS'biological fungicides how does oxidate compare'
p55
asS'2010_41'
p56
(lp57
S'gr8 to hear your story of gods faithfulness  thx'
p58
aS'video environmentallyfriendly algae removal from grape trellis with greencleanfx'
p59
aS'seeing god in the rearview mirror of an iowa harvest'
p60
asS'2010_28'
p61
(lp62
S'storox  postharvest bactericidefungicide increases shelf life and decreases spoilage of crops in storage  on special'
p63
aS'useful home gardening tips for beginners plant'
p64
asS'2011_5'
p65
(lp66
S'an ounce of prevention enviroselects january 2011 newsletter'
p67
aS'the onetwo punch for controlling fusarium on your crops'
p68
asS'2012_27'
p69
(lp70
S'biological fungicides how does oxidate compare'
p71
aS'organic fruit amp vegetable wash worryfree snacking'
p72
asS'2011_27'
p73
(lp74
S'treatment of foliar nematodes on hosta'
p75
aS'powdery mildew treatment \xe2\x80\x93 is it working'
p76
asS'2012_25'
p77
(lp78
S'residuefree chemistry inspiration'
p79
asS'2012_24'
p80
(lp81
S'oxidate readytospray on powdery mildew'
p82
aS'lower fiesta weed killer application rate more affordable'
p83
asS'2012_22'
p84
(lp85
S'need a chlorine alternative'
p86
aS'ecofriendly cleaning of moss amp mildew'
p87
asS'2012_21'
p88
(lp89
S'small applications of azaguard concentrate'
p90
asS'2011_52'
p91
(lp92
S'need a chlorine alternative'
p93
asS'2011_42'
p94
(lp95
S'oxidate ready to spray is now omri listed'
p96
asS'2011_9'
p97
(lp98
S'treat your emerging lawn fungus with terracyte'
p99
asS'2010_27'
p100
(lp101
S'terraclean fungicide  agricultural soil treatment through your drip irrigation system'
p102
aS'if germany wins today there could be all out war okay friendly rivalry here at enviroselects'
p103
aS'organic farming significant for food trade pawar new delhi via'
p104
asS'2010_38'
p105
(lp106
S'weekend time hit the moss mold  mildew in your yard  home with our new greencleanfx'
p107
asS'2011_28'
p108
(lp109
S'need a chlorine alternative'
p110
aS'plant diseases devising a defense system'
p111
aS'safeguarding against plant disease'
p112
aS'azaguard rebate \xe2\x80\x93 2 days left'
p113
aS'check out this relevant current and helpful publication on organic living\xe2\x80\xa6'
p114
aS'what is your carbon footprint'
p115
aS'organic food market trending\xe2\x80\xa6 up or down'
p116
aS'composting for your organic garden three important tips to consider\xe2\x80\xa6'
p117
aS'why not just use hydrogen peroxide it\xe2\x80\x99s cheaper\xe2\x80\xa6'
p118
asS'2011_23'
p119
(lp120
S'safeguarding against plant disease'
p121
asS'2011_21'
p122
(lp123
S'lawncare operators love fiesta'
p124
aS'natural weed killer \xe2\x80\x93 fiesta'
p125
asS'2011_26'
p126
(lp127
S'plant diseases devising a defense system'
p128
asS'2012_9'
p129
(lp130
S'newsletter effective systemic pest control'
p131
aS'need a chlorine alternative'
p132
aS'ecofriendly cleaning of moss  mildew'
p133
asS'2011_25'
p134
(lp135
S'anne wareham confessions of a grumpy gardener'
p136
aS'im on twiends join me'
p137
aS'how to treat heavy algae growth with an organic algaecide'
p138
asS'2012_5'
p139
(lp140
S'need a chlorine alternative'
p141
aS'ecofriendly cleaning of moss  mildew'
p142
asS'2012_6'
p143
(lp144
S'newsletter effective systemic pest control'
p145
asS'2012_7'
p146
(lp147
S'improved label for azaguard\xc2\xae botanical insecticidenematicide'
p148
asS'2011_11'
p149
(lp150
S'greenclean liquid blue colorant blocks the sun\xe2\x80\x99s uv rays from helping algae grow'
p151
aS'green clean tablets improve water quality in ponds and water features'
p152
asS'2010_23'
p153
(lp154
S'get rid of algae in pond water'
p155
aS'oxidate  an effective omriapproved bactericide  fungicide for organic fieldgrown crops and commercial greenhouses'
p156
asS'2012_3'
p157
(lp158
S'ecofriendly cleaning of moss  mildew'
p159
asS'2012_16'
p160
(lp161
S'codling moth control q  a and azaguard rtu'
p162
aS'verticillium wilt in trees assessment treatment  prevention'
p163
asS'2012_17'
p164
(lp165
S'organic apples and fungicides'
p166
asS'2012_14'
p167
(lp168
S'plant diseases devising a defense system'
p169
aS'newsletter effective systemic pest control'
p170
aS'check out this relevant current and helpful publication on organic living\xe2\x80\xa6'
p171
asS'2012_13'
p172
(lp173
S'need a chlorine alternative'
p174
aS'ecofriendly cleaning of moss  mildew'
p175
asS'2012_10'
p176
(lp177
S'check out this relevant current and helpful publication on organic living\xe2\x80\xa6'
p178
asS'2010_47'
p179
(lp180
S'video will bacteria or fungus become resistant to enviroselects products'
p181
asS'2010_36'
p182
(lp183
S'gardening advice  identifying plant disease how to spot  treat  rt'
p184
asS'2010_43'
p185
(lp186
S'lake of the ozarks group says simple landscaping could help hold down ecoli  by jay scherder ky3 news jscher'
p187
asS'2012_18'
p188
(lp189
S'organic apples and fungicides'
p190
aS'need a chlorine alternative'
p191
aS'ecofriendly cleaning of moss amp mildew'
p192
aS'newsletter effective systemic pest control'
p193
aS'world asthma day 2012 san francisco childcare centers eliminate exposure to bleach cleaning products'
p194
aS'world asthma day sf childcare centres eliminate exposure to bleach cleaning products worldasthmaday asthma'
p195
aS'codling moth control q amp a and azaguard rtu'
p196
aS'check out this relevant current and helpful publication on organic living\xe2\x80\xa6'
p197
asS'2010_40'
p198
(lp199
S'top 10 questions our customers ask  stick around for the outtakes'
p200
asS'2013_37'
p201
(lp202
S'go green go clean '
p203
asS'2013_36'
p204
(lp205
S'have a good full day back at school everyone'
p206
asS'2013_35'
p207
(lp208
S'the countdown is on only 6 days before labour day what will you be doing for your long weekend'
p209
asS'2013_34'
p210
(lp211
S'enviroselects algae attackers '
p212
aS'just joined pinterest you should follow us via'
p213
asS'2013_33'
p214
(lp215
S'the grass is always greener '
p216
asS'2013_32'
p217
(lp218
S'enviroselects photo contest  win 100 gift certificate have you posted your picture yet photocontest'
p219
aS'helping with water issues this guy was spending to much to have water borne diseases'
p220
aS'roots of goodness '
p221
asS'2010_33'
p222
(lp223
S'our new pond algae control product  greencleanfx liquid algaecide'
p224
asS'2012_35'
p225
(lp226
S'p allen smith partners with biosafe systems garden products'
p227
asS'2012_31'
p228
(lp229
S'pythium water treatment in hydroponic amp aquaponic systems'
p230
aS'an apple or two a day'
p231
asS'2013_39'
p232
(lp233
S'gearing up for fall cleanup '
p234
asS'2013_38'
p235
(lp236
S'final day of sale '
p237
aS'fiesta 3 day sale '
p238
asS'2010_22'
p239
(lp240
S'need reliable gardening advice find your local cooperative extension service office'
p241
aS'combat black mold with sanidate rtu peroxygen chemistry  up to 10x stronger than other alcohols and hydrogen peroxides'
p242
aS'greenclean pond clarifier is ideal for water bodies that support sensitive wildlife and fish adding vital oxygen'
p243
aS'landscaping underground dog fences'
p244
aS'our products use envirofriendly peroxygen technology to quickly kill many diseasecausing bacteria and fungi'
p245
aS'koi pond algae control  results within hours of application'
p246
aS'fastacting lawn fungus prevention and cure'
p247
asS'2010_26'
p248
(lp249
S'organic commercialgrade liquid sanitizer  sanidate 5  prevents growth of mold spores mildew and bacteria'
p250
aS'pesticide health hazard at the smithsonian  garden rant dear public gardens at least tell us what youre spraying'
p251
aS'effective pond water treatment with greencleanpro commercialgrade algaecide'
p252
aS'view potato webcasts on late blight nitrogen management seed performance and others at'
p253
aS'garden rant can perennial borders really be easy as easy as roses'
p254
aS'gardenism if youve never experienced the joy of accomplishing more than you can imagine plant a garden  rober '
p255
aS'special on zerotol algaecide  fungicide  specially formulated to kill bacteria algae fungi and spores on contact'
p256
aS'spotted tomato plants'
p257
aS'6 tricks to organic weed control'
p258
asS'2011_31'
p259
(lp260
S'long island tomato blight'
p261
aS'oxidate rtu small scale organic disease control'
p262
aS'newsletter effective systemic pest control'
p263
aS'composting for your organic garden three important tips to consider\xe2\x80\xa6'
p264
aS'safeguarding against plant disease'
p265
aS'what is your carbon footprint'
p266
aS'check out this relevant current and helpful publication on organic living\xe2\x80\xa6'
p267
aS'organic food market trending\xe2\x80\xa6 up or down'
p268
asS'2011_35'
p269
(lp270
S'newsletter effective systemic pest control'
p271
aS'organic pest control neem tops growers\xe2\x80\x99 list'
p272
asS'2011_34'
p273
(lp274
S'organic pest control neem tops growers\xe2\x80\x99 list'
p275
aS'ecofriendly cleaning of moss  mildew'
p276
asS'2011_37'
p277
(lp278
S'what is your carbon footprint'
p279
aS'safeguarding against plant disease'
p280
asS'2011_44'
p281
(lp282
S'what is your carbon footprint'
p283
asS'2011_30'
p284
(lp285
S'newsletter effective systemic pest control'
p286
asS'2011_32'
p287
(lp288
S'canada storox for greenhouse tomatoes approved'
p289
asS'2010_32'
p290
(lp291
S'terracyte moss  algae control  effective  safe for humans pets  wildlife on special now'
p292
aS'to me a lush carpet of pine needles or spongy grass is more welcome than the most luxurious persian rug  helen'
p293
asS'2012_38'
p294
(lp295
S'biosafe systems sustainable chemistries overview'
p296
asS'2010_30'
p297
(lp298
S'10 myths about organic'
p299
asS'2010_31'
p300
(lp301
S'join the enviroselects community and receive instant benefits  discounts  no hazmat charge on comm products'
p302
aS'azaguard  powerful organicapproved insect control for over 300 insect species'
p303
asS'2011_39'
p304
(lp305
S'newsletter effective systemic pest control'
p306
aS'what is your carbon footprint'
p307
asS'2010_34'
p308
(lp309
S'this cornell u study on the toxic effects of captan fungicide makes me glad we carry oxidate'
p310
aS'the research speaks for itself  new article on storox postharvest bactericide  fungicide'
p311
asS'2010_35'
p312
(lp313
S'research reveals keys to bacterial spot prevention and control'
p314
aS'thx researchers fight to save fruits of their labor pavlovsk'
p315
as.