(dp0
S'2013_42'
p1
(lp2
S'got nothing in our current batch of samples maybe ish had a mislabeled mp3 before he grabs a lot of random shit like that'
p3
aS'you ask whether trouse or trancev2 will be on the guide but not bigroom surely there are those who claim differences seriouslypeople'
p4
asS'2013_43'
p5
(lp6
S'i would like to take this time to let you all know that exists'
p7
aS'dyin here whys this happen every autumn'
p8
asS'2013_40'
p9
(lp10
S'would it be too cruel to claim the guide will be finished when american politics stops derping'
p11
asS'2013_41'
p12
(lp13
S'because of course weirdshitondiscogs'
p14
asS'2013_46'
p15
(lp16
S'so thats what those fucking twats have been up to'
p17
aS'electroswing yep theres a gimmick thatll last neverforgetdoop'
p18
asS'2013_17'
p19
(lp20
S'i can tell this track is ambient because zzzzzzzzzzz'
p21
aS'this tracks hippitying its boppitying and the black guys talking really fast guess it goes into hiphop'
p22
aS'no flash is dead'
p23
aS'time to raid some backups'
p24
aS'so close yet so far progress'
p25
asS'2013_44'
p26
(lp27
S'i would like to take this time to let you all know that exists'
p28
asS'2013_45'
p29
(lp30
S'i suspect when no ones around dancehall toasters actually speak perfect queens english'
p31
asS'2013_16'
p32
(lp33
S'cheers for a friend in supplying a motherload of old reggae dub jeers for the lack of release dates'
p34
aS'electrohouse'
p35
aS'just stop youre only embarrassing yourself stupidmadeupgenres'
p36
aS'dammit shoegaze you could have just been left over with indie rock whyd you have to go and include drum machines and sequencers'
p37
aS'twinkle prog doesnt end it just goes all the way through coldharbourwontstopmakingmusic'
p38
asS'2013_24'
p39
(lp40
S'i can tell this track is noise because'
p41
aS'incidentally italodisco also good 80smontage music'
p42
asS'2013_25'
p43
(lp44
S'youd have to ask that ishkur guy'
p45
aS'im all dark likeabauhaus and im moody likeabauhaus i wear black likeabauhaus and stay up all night likeabauhaus'
p46
aS''
p47
aS'i can tell this track is futurepop because i wish to watch the light of lasers glisten across the blood trailing down my cut raised arms'
p48
asS'2013_26'
p49
(lp50
S'unless youre using a synthesizer the size of your living room youre not really making musiqueconcrete in the modern era'
p51
aS'you know youve gathered a fuckton of samples when you dont realize when youre making dupes'
p52
aS'found a chiptunes track based on a game called grimblood guess what decade its from duuuuuudddeee '
p53
aS'the chillout scene is where youll likely find the most nonelectronic instruments also white people'
p54
ag47
asS'2013_27'
p55
(lp56
S'whats the most pretentious genre ever odds are good someones still making it musicgenrescannotdie'
p57
aS'spacesynth looks at chiptunes dude youre so dated'
p58
aS'thats just trap so they added brobelches nearly every genres been doing that'
p59
aS'listening to spacesynth is like watching a scifi movie where you can clearly see the matte lines'
p60
asS'2013_21'
p61
(lp62
S'i can tell this track is freestyle because damn kraftwerk never thought to include divas and orchestral stabs'
p63
aS'i can tell this track is reggaeton because i cant understand a damned thing anyone is saying monolinguist'
p64
aS'hell i cant even understand what the one white man is saying'
p65
aS'be nice to have a beta by the summer provided the rw doesnt keep throwing impediments'
p66
aS'i can tell this track is dancehall because i cant understand a damned thing the black man is saying'
p67
aS'last tally 153 genres and counting'
p68
asS'2013_22'
p69
(lp70
S'its ironic that those who raked the old guide over coals are now fearing the new guide will lose all that which they hated tranceaddict'
p71
aS'i can also tell this track is freestyle because the chorus is the same damned thing as the last fifty freestyle tracks formulaic'
p72
aS'youre about the hundredth person asking this is there really a difference between burial skream and borgore beingfacetious'
p73
asS'2013_23'
p74
(lp75
S'i can tell this track is eurobeat because im spazzinglikeamaniac in my chair right now   '
p76
asS'2013_28'
p77
(lp78
S'the stuffs all over the place really all of it could be lumped as goth sexes ketamine club culture'
p79
aS'this stuffs apparently witchhouse'
p80
aS'you mean witchhouse which is darkwave meets chicagohouse'
p81
asS'2013_29'
p82
(lp83
S'i can tell this track is nujazz because so much saxophone and xylophone'
p84
aS'or who was more important'
p85
asS'2013_5'
p86
(lp87
S'can i have a goth'
p88
aS'modernclassical 1970s how can we get these electronics to sound real  2000s how can we get these instruments to sound electronic'
p89
asS'2013_4'
p90
(lp91
S'did you know humpbackwhale has its own entry question is which one weirdthingsondiscogs'
p92
aS'even worldbeat went electro midivalpunditz'
p93
aS'seems even worldbeat has an undergroundpop dichotomy'
p94
aS'going through some musiqueconcrete right now at what year does the music begin'
p95
aS'on discogs one can set a filter for electronic or stage amp screen but neither at the same time annoyances'
p96
aS'we need weird creepy music but have no money left to hire a composer how about a quirky synth guy then 80shorrormovies'
p97
aS'already have some basic stuff but wont be focusing on it for a while yet will keep in mind tho'
p98
asS'2013_7'
p99
(lp100
S'need to work at 730am still wide awake at 230am might as well make samples forcedproductivity'
p101
asS'2013_6'
p102
(lp103
S'500 oldschoolhardcore tracks culled down to 40 so much redundancy'
p104
aS'italodisco so triumphant'
p105
aS'will someone please take the eurotrash out to the house garage the stench is getting hardcore'
p106
aS'on musicwaveforms 1980s  thin black line 1990s  bumpy roads 2000s  all fucking black mang'
p107
aS'inpetto truly innovators of 8th note progressive'
p108
asS'2013_3'
p109
(lp110
S'this is a good example of how obscure im looking for'
p111
aS'doesnt have to be 100 electronic and yeah already got the obvious ones looking more for obscure samples'
p112
aS'looking for examples of 19802010 film amp tv scores that are entirely electronic only original compositions any suggestions'
p113
aS'finished gathering newage 75 samples you may think its a lot but this stuffs been around forever barely scratching the surface here'
p114
aS'lol weirdthingsondiscogs'
p115
aS'one of the only ways to tell if a composition is ambient drone or meditative new age is whether a pan flute ever crops up newage ambient'
p116
aS'when you sift through over 1000 prog tracks made between 2004 and 2010 and only need about 25 because the rest are redundant regressive'
p117
aS'when youve got a 20 minute noodly ambient piece how do you choose which 2 minutes of noodle to sample'
p118
aS'the first guide had 100 samples the second guide had 1000 samples the third guide will have 10000 samples with infinite scalability'
p119
aS'yes this is for real'
p120
asS'2013_9'
p121
(lp122
S'foresttrance elftrance goblintrance nighttrance hedfuktrance nazgultrance cybrogtrance willothewisptrance am i missing any'
p123
aS'making some grime samples now i cant get this out of my head'
p124
asS'2013_8'
p125
(lp126
S'i just realized something u2s the joshua tree is really a concept album its about finding loose change under the couch'
p127
aS'seriously if folks complain about using more plinkyplonk tracks over plonkyplink tracks minimal'
p128
aS'even the black people in europe are white 2unlimited snap pharoa bgtheprinceofrap culturebeat captainhollywoodproject haddaway'
p129
asS'2013_37'
p130
(lp131
S'dunno things have heated up in other areas so guide progress is sluggish right now'
p132
aS'yes never saw use for rym as lord discogs provides all'
p133
asS'2013_36'
p134
(lp135
S'yes turns out freestyle as a genre is just one giant ripoff of itself'
p136
aS'anyone familiar with the old rap group rappers rapp group their best track was that rap song called that rapp song'
p137
asS'2013_35'
p138
(lp139
S'need to focus less on the beef and more on the bones'
p140
aS'life happens'
p141
aS'i can tell this track is triphop because the movie credits are rolling'
p142
aS'because of course even car audio technobass would have a retro return'
p143
aS'also in nujazz so much trumpet'
p144
aS'who knew 40 years of dub music would take so long to gather'
p145
aS'please sort out your downtempo as its annoying having the jazzy hiphop stuff mixed in with the wibbly psy dub stuff'
p146
asS'2013_34'
p147
(lp148
S'you know what goes great with trap lil jon samples why isnt this being done more'
p149
aS'the last thing needed is investors requesting whats said about certain genres kind of betrays the guides vision'
p150
asS'2013_33'
p151
(lp152
S'about time those slackers showed up again theres still so much work to be done'
p153
asS'2013_14'
p154
(lp155
S'some old guide stuff that deserves a share'
p156
asS'2013_31'
p157
(lp158
S'so thats what nyan cat was'
p159
aS'knew it existed didnt know the extent of it my god its full of mods'
p160
aS'you think youve unearthed everything there is to find then you discover something like this'
p161
asS'2013_30'
p162
(lp163
S'30 will be subtitled a progressive journey'
p164
aS'there 6000 samples made progress bitches'
p165
aS'i can tell this track is pendulum jungle because my head just flew off from headbangin'
p166
aS'want to hear some of the new music for the guide made a mixtape of 80s ambient he helped gather'
p167
aS'in terms of practical work maybe two'
p168
aS'its getting done'
p169
asS'2013_19'
p170
(lp171
S'when a puzzle clicks into focus bliss'
p172
aS'i can tell this track is gabber because all my base are belong to us'
p173
aS'its not hard to create 5 labels 10 artists and 20 tracks online these days should add 2 festival theme stages'
p174
aS'i can tell this track is ukhardhouse because i cant stop donkin'
p175
aS'i can tell this track is nrg because i cant stop jumpin cant stop hoppin cant stop pumpin cant stop rockin cant stop thumpin'
p176
aS'so muzak jingles then bet its best enjoyed when played real quiet too'
p177
aS'that track is a epic trance cover of an old oliver lieb tune and was released in the year 2000'
p178
asS'2013_18'
p179
(lp180
S'so its music based around sampling then like hiphop collagist experimental world beat how is this a new thing again'
p181
aS'who said it was were talking overproduced electro house what the fuck is vaporwave anyway '
p182
aS'there 5000 samples completed mutha fuckin progress'
p183
aS'alright chiptunes lets do this'
p184
aS'i dare any of you motherfuckers to call their track progressive noise seriously just try it you asshole brandishingcrowbar'
p185
aS'yeah electro house'
p186
aS'finding those tracks that fill in the blanks littlepleasuresinlife'
p187
aS'never fail to facepalm when someone names their remix a vocal dub'
p188
aS'but which scene listens to it im guessing urban only because thats where most of the chicks are'
p189
aS'thug rap is definitely hiphop rnb is definitely urban where would all these thug luv songs go then'
p190
aS'the guides gotten plenty o flack in the past but how much might it get if nsync were to go into rnb'
p191
aS'i can tell this track is darkambient because im cowering behind my couch fearing the cenobites arrival'
p192
asS'2013_39'
p193
(lp194
S'whatthefuckis picopop '
p195
aS'synth pop'
p196
aS'took a listen to those dungeon names its plain ol dubstep classic dubstep really guess its old enough to have that'
p197
aS'seriously night bus is considered a fucking genre there whatthefuckisnightbus'
p198
aS'how can dungeon exist if even beatport hasnt recognized it as a genre on the rise theyve made up tons of bullshit'
p199
aS'laws of ishkurs guide 1 lord discogs knows all except when i know more 2 wikipedia knows some but never as much as me'
p200
asS'2013_38'
p201
(lp202
S'i dont mind being chained to a computer making guide samples but when the doritos are thrown the gremlins have the advantage of numbers'
p203
aS'sometimes it feels like the pain comes in the process not the pain the finished product shall present'
p204
aS'yes definitely most likely quite probably look nothings absolute except perhaps 0 kelvin'
p205
aS'reporter whats your prediction for the new music guide ish t prediction pain'
p206
asS'2013_11'
p207
(lp208
S'i can tell this track is techhouse because its boring'
p209
aS'hm passed the 4000 mark on samples made a few hundred ago should keep track of this more frequently progress'
p210
asS'2013_10'
p211
(lp212
S'thats handy thanks will have to look into it some more'
p213
aS'is there such a thing as latinhouse like a major thing'
p214
asS'2013_13'
p215
(lp216
S'surprisingly acidjazz got its start on the label acid jazz'
p217
aS'is that like wonky or are you just making up genres'
p218
aS'on making dubstep samples 20042006 hm this isnt so bad 20072008 some interesting stuff but whats with 20082012 dafuq'
p219
asS'2013_12'
p220
(lp221
S'because of course the idm wonks would make a countergenre to noise whats this stuff called then quiet'
p222
aS'its like choosing between death by terminator sent back in time or death by burial up to your neck and army ants eating your face'
p223
aS'to make a ton of jungle samples or a ton of dubstep samples onell be fun the other not so much'
p224
asS'2013_15'
p225
(lp226
S'beatport does not get to make up the genres complextro'
p227
aS'dubstep producer dar kist should team up with producer li tits to form the supergroup gr\xc3\xa9 sk\xc3\xa9il note one of those is real'
p228
aS'annoying thing about making samples from ambient never knowing if the source is supposed to be that quiet or not'
p229
aS'need to stop wasting time making money and get back to making samples priorities'
p230
as.