(dp0
S'2013_42'
p1
(lp2
S'you have to go there go to pacific beach out there best spot'
p3
aS'fast forward to me having my degree please'
p4
aS'me on my wedding day you still like me right'
p5
asS'2013_43'
p6
(lp7
S'drinkinouttavasesamirightttt celebrate bangerztour2014'
p8
aS'i feel so sad when i see people living in the streets i cant help it'
p9
aS'i dont like scary movies but i wanna see carrie'
p10
aS'shake it like a polaroid picture \xf0\x9f\x98\x89'
p11
aS'i have no life any more perks of being an old lady \xf0\x9f\x98\x92'
p12
aS'there is more happiness in giving than in receiving  acts 2035'
p13
aS'i wanna go out tonight but all the good stuff is 21 \xf0\x9f\x98\x94'
p14
aS'can i go to urban outfitters already and get film for my new camera '
p15
aS'me and drake have the same birthday what the \xf0\x9f\x98\x89'
p16
aS'i will never doubt that god has gotten me though every hard moment in my life'
p17
aS'you know that feeling like somethings missing but you just cant figure out what it is \xf0\x9f\x98\x94'
p18
aS'always try your best even if you fail keep trying god sees your work your passion and persistence'
p19
aS'i wanna move out to plesanton its so nice  and id be closer to work'
p20
aS'i need to get 16 people presents and still counting i love xmas shopping '
p21
aS'oh thats cute'
p22
aS'ohhh okay thats like a pimp bunny lmao \xf0\x9f\x98\x82'
p23
aS'like 1920s playboy lol'
p24
aS'god not only sees where you are he sees where you can be'
p25
aS'you\xe2\x80\x99re not a failure until you stop trying if you have no other testimony you have this one i\xe2\x80\x99m still here'
p26
aS'id rather do things the right way even if its the hardest way'
p27
aS'ew i hate people who are all charming just to get what they want you just use people'
p28
aS'sil is like a sexy cave manlumberjack ahaha'
p29
aS'let go of the disappointments and setbacks in your life and hang on to the promises of god for your future'
p30
aS'i wanna drive my bf out to the city today since bart isnt working but what in the world would i do for 9 hours '
p31
aS'i already know theres gonna be horrible traffic'
p32
aS'having to drive out to the city tomorrow lt \xf0\x9f\x98\xad'
p33
aS'me and my little sister snap chat how awkward lmao'
p34
aS'we must obey god rather than men  acts 529'
p35
aS'don\xe2\x80\x99t give up on the people you love your patient love and faithfulness may be exactly what they need to make a complete\xe2\x80\xa6'
p36
aS'headache'
p37
aS'my brain hurts so much new information \xf0\x9f\x98\x81'
p38
aS'i love my new coworkers at starbucks theyre so nice and fun '
p39
aS'im gonna go in a bart strike as well'
p40
aS'wow 2 bart workers were killed by an oncoming train'
p41
asS'2013_41'
p42
(lp43
S'banana bread is sooooo tasty'
p44
aS'im a barista now \xe2\x98\xba\xef\xb8\x8f\xf0\x9f\x98\x8d'
p45
aS'second interview at starbucks \xf0\x9f\x98\x8a'
p46
aS'omgosh sac is so sketch'
p47
aS'hahahahahah jk \xf0\x9f\x98\xb0'
p48
aS'when you realize your bf is crazy  \xf0\x9f\x98\xb3'
p49
aS'baking cookies tonight '
p50
aS'i went from 107 to 125 in about a 3 month span'
p51
aS'starting back at the gym feels amazing'
p52
aS'i miss performing'
p53
aS'i have no friends so i wanna get back online haha'
p54
aS'watching the movement inspiration'
p55
asS'2013_46'
p56
(lp57
S'i really wanna go to kate nash concert this weekend \xf0\x9f\x91\x8d\xf0\x9f\x91\x8d\xf0\x9f\x91\x8d'
p58
aS'i like working mornings cause i get off early but then i like working nights cause i get a whole bunch of free food'
p59
aS'i love cake pops'
p60
aS'omgosh i love the holiday decor at our store too so pretty'
p61
aS'never grow up by taylor \xf0\x9f\x98\xad\xf0\x9f\x98\xad\xf0\x9f\x98\xad\xf0\x9f\x98\xad'
p62
aS'i meant flowey \xf0\x9f\x98\xb3\xf0\x9f\x98\x81'
p63
aS'my goal is to have gawgeous flower hair like sarah \xf0\x9f\x91\xb8'
p64
aS'\xf0\x9f\x98\x82 \xf0\x9f\x91\x8d'
p65
aS'free tall brewed coffee today for veterans active duty military and active duty spouses tha\xe2\x80\xa6'
p66
asS'2013_47'
p67
(lp68
S'sushi time \xf0\x9f\x98\x8d'
p69
aS'sooo everytime i loose my favorite scrunchie im always like babe have you seen le scrunchie \xf0\x9f\x98\xa9\xf0\x9f\x98\xa2 ahahaha almost everyday \xf0\x9f\x98\x82'
p70
aS'true'
p71
aS'i hate working mornings'
p72
aS'even the best fall down sometimes'
p73
aS'focus on the positive'
p74
aS'i miss spoiling her even though shes bratty \xf0\x9f\x91\xb8\xf0\x9f\x98\x89'
p75
aS'i miss my best friend'
p76
aS'are my favorite from x factor i only look forward to their performance'
p77
aS'im so excited to see miss kate nash with my bf'
p78
aS'anyone want to buy a kate nash ticket for 30 for friday night 9pm sf at the filmore '
p79
aS'can i just be a housewife minus the cooking cleaning and kids\xe2\x80\x9d\xf0\x9f\x91\x8d\xf0\x9f\x98\x82'
p80
aS'begin againtaylor \xe2\x9d\xa4\xef\xb8\x8f\xe2\x9d\xa4\xef\xb8\x8f\xe2\x9d\xa4\xef\xb8\x8f\xe2\x9d\xa4\xef\xb8\x8f'
p81
aS'who wants to see miley with me in february either at oakland or san jose cause i know my bf wont wanna hahah'
p82
aS'so sleepy \xf0\x9f\x98\xb4'
p83
aS'is the minimum wage in new york really 725 wtf \xf0\x9f\x98\xb3'
p84
aS'\xf0\x9f\x98\x94'
p85
aS'i have no idea what i want to do with my life'
p86
aS'hanging lights with christmas blend and a red mug named rudolph'
p87
aS'damned if you do damned if you dont'
p88
aS'uhhh pomski pomsky however is it spelled they melt me'
p89
asS'2013_44'
p90
(lp91
S'boooooooooring \xf0\x9f\x98\x92'
p92
aS'all he wants to do is watch sons of anarchy'
p93
aS'well im bored and my bf doesnt wanna hangout with me \xf0\x9f\x98\xad\xf0\x9f\x98\xa1'
p94
aS'it\xe2\x80\x99s never too early for a little joy redcups sharejoy'
p95
aS'locked my keys in the car again for like the 4th time \xf0\x9f\x98\x81\xf0\x9f\x98\xb1\xf0\x9f\x98\xab\xf0\x9f\x98\xad\xf0\x9f\x98\xa2\xf0\x9f\x98\xa1'
p96
aS'\xf0\x9f\x98\x81'
p97
aS'sleeping beside someone you love improves quality of sleep makes it easier to wake up\xe2\x80\x9d'
p98
aS'boys should learn not to piss girls off cause we can be all sorts of crazy'
p99
aS'i love you baby '
p100
aS'im gonna go on an american apparel shopping spree by the new year'
p101
aS'aahalloween'
p102
aS'\xf0\x9f\x98\x98'
p103
aS'i need something to wake myself up'
p104
aS'youre that constant reminder of love'
p105
aS'theres pizza when you get home \xf0\x9f\x98\x8b\xf0\x9f\x91\x8d'
p106
aS'i wish all the syrups at starbucks werent so bad id get hot drinks more often'
p107
aS'pumpkin pie  mmm'
p108
aS'seriously tho bill collectors got to stop harassing me\xe2\x80\x9d \xf0\x9f\x98\x82'
p109
aS'mmm salmon is my fav '
p110
aS'i miss my baby  '
p111
asS'2013_45'
p112
(lp113
S'smile things are working out you may not see it now but just know god is directing you'
p114
aS'god is at work in your life right now he is directing your steps what you thought was a setback is going to turn out to\xe2\x80\xa6'
p115
aS'i remember the good ole high school days not hahaha'
p116
aS'carrie diaries '
p117
aS'continue to love your brothers and sisters 2 and don\xe2\x80\x98t forget to love strangers  hebrews 131'
p118
aS'my car is pretty ghet right now'
p119
aS'i wanna fix up my car instead of buying a new one but ehhh idk'
p120
aS'im a conservative control freak and hes a liberal weirdo'
p121
aS'nick and jess are so different like me and sil ahaha \xf0\x9f\x98\x82'
p122
aS'well maybe cause he is ahahah gettin his masters getterdone'
p123
aS'he acts like a college student'
p124
aS'me and sil call my dad frat boy shawn ahaha'
p125
aS'my dad seriously reminds me of nick from new girl fratboyshawn'
p126
aS'peacemakers should be happy for they\xe2\x80\x98ll be called gods children  matthew 59'
p127
aS'i seriously just want to pay all my bfs debt smh \xf0\x9f\x98\xb3 petpeeve'
p128
aS'i wanna try out photography'
p129
aS'but how can you know what you want to do without even trying everything out there '
p130
aS'but everyones just like you need to pick one thing and stick to it'
p131
aS'i wanna try so many things'
p132
aS'i have no idea what i want to do in my life career wise so depressing'
p133
aS'bottoms up is trashy just saying'
p134
asS'2013_48'
p135
(lp136
S'we found a cupcake atm i repeat a cupcake atm'
p137
aS'my boyfriend asks me to do everything like im his mexi house wife ex squeeze me no'
p138
aS'i find eating in bed horrible yet i still continue to do it so much'
p139
aS'i like our la boulange croissants though'
p140
aS'tracy starbucks dont have the la boulange bakeries yet \xf0\x9f\x98\x80'
p141
aS'my favorite starbucks in tracy is the one off valpico its so nice  and they have the most random cake pop flavors'
p142
as.