(dp0
S'2013_42'
p1
(lp2
S'ya fng beauty mate  yeeesssssssss champion 1'
p3
asS'2013_43'
p4
(lp5
S'superb mate well done  well chuffed that you and won  fantastic  '
p6
asS'2012_49'
p7
(lp8
S'what a clubbing right hand that was by marquez'
p9
aS'what a fight marquez is a warrior'
p10
aS'all the best for tour school mate'
p11
aS'the new livery for 2013 you like'
p12
aS'check out this great download'
p13
asS'2012_48'
p14
(lp15
S'just watching an old episode of idiot abroad how funny would it be to see me giving karl pilkington a pillion ride around '
p16
asS'2011_51'
p17
(lp18
S'looking forward to ur clean sweep at nw 200  stroll on may'
p19
aS'very disappointed with todays verdict this is the time when needs our full support lets not let h '
p20
aS'stroll on 2012 this year has been pish'
p21
asS'2011_50'
p22
(lp23
S'go on mikey best of luck m8'
p24
aS'all the best in thailand '
p25
asS'2009_23'
p26
(lp27
S'who will be the next manager'
p28
asS'2012_44'
p29
(lp30
S'is the internet ok in troon  ive struggled to get a connection since last night '
p31
asS'2012_47'
p32
(lp33
S'2011 was my first nw200  so glad your going next year so i can support a fellow scot can i get a rt please mate'
p34
aS'looking forward to seeing you ride the wheels of your bike at nw200 great job doc  rt please'
p35
asS'2012_43'
p36
(lp37
S'shocking decision liverpool have been robbed there whats the lineman thinking techneeded'
p38
asS'2012_42'
p39
(lp40
S''
p41
aS'at edinburgh playhouse watching phantom of the opera lol'
p42
asS'2011_47'
p43
(lp44
S'bored out my fcuking tree  '
p45
asS'2012_29'
p46
(lp47
S'hows u'
p48
aS'good morning'
p49
asS'2012_28'
p50
(lp51
S'i live in troon and cant get any speed from my connection latest test 143mbps'
p52
asS'2012_27'
p53
(lp54
S'hey joey thats some offer from  hope u take it up m8'
p55
asS'2012_26'
p56
(lp57
S'best of luck hope the wrist is better mate'
p58
asS'2012_25'
p59
(lp60
S'well done boys keep it going '
p61
aS'best of luck today in bonnie wet scotland'
p62
asS'2012_24'
p63
(lp64
S'well flash tommy  any chance of a bed at knockhill lol'
p65
aS'can i start the countdown to 2013 yet iomtt2013'
p66
aS'emma i love you lol'
p67
asS'2012_23'
p68
(lp69
S'come on mcguiness'
p70
asS'2012_20'
p71
(lp72
S'superb tonight m8 u could have stopped and waved too me on the balcony at church corner lol'
p73
aS'thanks for signing my lid in coltrane today  pleasure to meet you and all the best for sat'
p74
aS'ah come along emma we have a a big house on the metropole '
p75
asS'2013_7'
p76
(lp77
S'nearly had a highside on bike earlier shitmypantslol'
p78
asS'2013_6'
p79
(lp80
S'it\xe2\x80\x99s likely i would\xe2\x80\x99ve survived channel 4\xe2\x80\x99s planecrash in seat 29b find out how you would\xe2\x80\x99ve fared and more at'
p81
aS'absolute legend and proper gentleman  can wait to see you at nw200  any chance of a rt from a living legend'
p82
asS'2013_1'
p83
(lp84
S'commentators out of order it hit his hand but he couldnt get it out of way both calling him a cheat wrong'
p85
aS'seriously anyone who thinks it was hand to ball rather than ball to hand needs to sort themselves out hatersgonnahate'
p86
asS'2011_42'
p87
(lp88
g41
ag41
asS'2013_3'
p89
(lp90
S'if you want just cash in '
p91
aS'this would bore you to tears mate'
p92
aS'i will bring the popcorn tonight lol'
p93
aS'you cheating low lifehope you cant sleep at night with shame and guilt  '
p94
aS'some say even when he\xe2\x80\x99s asleep he gets a speeding ticket erasing two years of bad '
p95
ag41
ag41
asS'2013_2'
p96
(lp97
S'think this should send twitternovice'
p98
aS'scariest sport ever  irish road racing'
p99
aS'guy martin will hopefully challenge him  but michael is awesome and seems to have an advantage on guy'
p100
aS'i first came across on 2011 the year ryan farquhar spilled the oil on track and it had to be cancelled last year was superb'
p101
aS'good theory lol so do you go to the nw200 '
p102
aS'its a k7 750 mate i got it recently so its good from a 600 how do you decide which bike to take out lol'
p103
aS'there superbus men need our space lol couldnt do without the manhut now '
p104
asS'2011_43'
p105
(lp106
S'rest in peace 58 marcosimoncelli'
p107
asS'2013_9'
p108
(lp109
S'please can you rt conor as were struggling for house rental for tt 2014 it would be for 56 adults from 31st may for 7 nights'
p110
aS'john please can you rt as were looking for house rental for tt 2014 there will be 56 adults from 31st may for 7 nights'
p111
aS'lm looking for house rental for 2014 tt  31st may for 7 nights for 56 adults can you rt as were struggling '
p112
aS'looking for house rental 31st may to 7th june 2014 for the isle of man tt  there is 5 coming'
p113
asS'2013_8'
p114
(lp115
S'your an absolute clown tweeting that statement '
p116
aS'dont let tossers like that get to you  john is one of the nicest people ive met and a true gentlivinglegend'
p117
aS'tosser talking about a legend like that im genuinely angry whatatosser'
p118
asS'2011_28'
p119
(lp120
S'let james know happy birthday from colin at troon thistle can i get a rt please'
p121
aS'morning emma any chance of putting a smile on my moaning monday face please can i get a rt'
p122
asS'2012_8'
p123
(lp124
S'31k come on lets get there folks'
p125
aS'thats superb another 31k for vanessa to reach her target'
p126
asS'2012_9'
p127
(lp128
S'i got 2436168 points while escaping from demon monkeys in temple run beat that'
p129
aS'i got 1708392 points while escaping from demon monkeys in temple run beat that'
p130
asS'2011_24'
p131
(lp132
S'best of luck mate you can do it  '
p133
asS'2011_25'
p134
(lp135
S'kyle and the nile via'
p136
asS'2011_26'
p137
(lp138
S'superb'
p139
asS'2012_6'
p140
(lp141
S'cant be pestered working'
p142
aS'hi mate'
p143
aS'sorrynemma its'
p144
aS'soooo sad  rt can you please retweet to help this little girl thanks eugene '
p145
ag41
aS'can you please rt to your followers to help this little girl thanks sam '
p146
aS'cmon guys give a little here  can you please retweet to help this little girl h '
p147
aS'hi jack any chance of a rt for who is 11 year old fighting cancer'
p148
aS'hiemma can rt too help wee vanessa'
p149
aS'hi gary can you please rt to your followers about vanessas journeyfundraising going well but still short'
p150
ag41
aS'any chance of a rt for my new gsxr'
p151
aS'any chance of a rt for my new gsxr '
p152
aS'my new toy lol'
p153
asS'2012_7'
p154
(lp155
S'my lovely girls xx'
p156
aS'today is international childhood cancer day can all my fab followers please rt this message iccd vanessariddleappe '
p157
ag41
aS'i got 1838256 points while escaping from demon monkeys in temple run beat that'
p158
aS'i got 2024610 points while escaping from demon monkeys in temple run beat that'
p159
aS'alright mate hows things'
p160
asS'2012_1'
p161
(lp162
S'what is it with neds on the train the absolute shite chat and squeaky voices would burst u'
p163
aS'oh yes happy new year lol sorry working till 5 so counting down the minutes'
p164
aS'hello wee kellie hows u and steven'
p165
asS'2012_2'
p166
(lp167
S'its so obvious he is anti rangers lol'
p168
aS'truly grateful as hopefully people close to me will understand my illnessafter all its more than a shake as i was told to do'
p169
ag41
aS'truly grateful as hopefully people close to me will understand the illness after all its more than a shake as i was told to do'
p170
aS'truly grateful as hopefully people close too me will understand my illness  got told to give myself a shake if only that easy'
p171
aS'totally agree michael  i have been diagnosed with ptsd depression and i agree with them all as you dont want to seem weak'
p172
aS'hidden side of sport was extremely eye opening hats off incredible courage from you  the rest of the p '
p173
ag41
aS'can you please rt to your followers to help this little girl get to the states for medical help'
p174
aS'can you please retweet to help this little girl get to the states urgently for help'
p175
aS'can you please rt to your followers to help this little girl thanks sam'
p176
aS'hi mel thanks for that can you retweet to your followers also x'
p177
aS'liam can you please rt to your followers as this little girl needs urgent help'
p178
aS'holly can you please retweet this to your followers as this little girl needs urgent help'
p179
aS'can you please rt to your followers king kenny to help this little soul'
p180
aS'can you please retweet brittney to help this little girl get over to the states for treatment'
p181
aS'can you please rt george to help out this wee soul'
p182
aS'can you please help out noel with a retweet for this little soul'
p183
aS'tim can you please help urgently with a rt please mate'
p184
aS'robbie can you please rt this to your followers'
p185
aS'joey can you help out mate and retweet this to your followers'
p186
aS'can you please rt to help this little girl david'
p187
aS'cay you please retweet to help this little girl graham'
p188
aS'can you please rt your followers urgently as this little girl needs help'
p189
aS'can you please retweet this urgently stuart'
p190
aS'can you please retweet this urgently mate'
p191
aS'can you please retweet this urgently'
p192
aS'can you please retweet to your followers holly'
p193
aS'can you please retweet urgently fenners'
p194
aS'can you please help urgently with a rt'
p195
aS'can you please retweet this to help urgently'
p196
aS'can you please retweet to help urgently'
p197
aS'can you please retweet kris to help urgently'
p198
aS'michael can you retweet this mate'
p199
aS'can you please please retweet this to help urgently'
p200
aS'can you please retweet this jonathan to help this little girl'
p201
aS'can you please retweet this to help this little girl'
p202
aS'can you please retweet this gino to help out please'
p203
aS'can you please retweet to help this little girl thanks gary'
p204
aS'conor can you please retweet to help this little girl'
p205
aS'can you please retweet to your followers please chaz'
p206
aS'can you please retweet to help this little girl thanks eugene'
p207
aS'keith can you please retweet this to help this little girl'
p208
aS'can you please retweet to help this little girl ynwa'
p209
aS'steve can you please retweet to help this little girl'
p210
aS'can you please retweet to help this little girl thanks leon'
p211
aS'can you please help with a retweet big man to help this little girl'
p212
aS'can you please retweet as this little girl needs urgent help'
p213
aS'can you please retweet to your followers to help this little girl urgently'
p214
aS'can you please retweet to your followers emma x'
p215
aS'can you please retweet to your followers please michael'
p216
aS'jack please please can you retweet this to you followers'
p217
aS'can you please retweet to your followers please rory'
p218
aS'can you please retweet to your followers keith'
p219
aS'can you please help with a retweet please floyd'
p220
aS'can you please retweet to followers to help please'
p221
aS'can you please retweet this to your followers tommy'
p222
aS'can you please help with a retweet please robbie'
p223
aS'can you please help by retweeting this stoksey'
p224
aS'joe can you please please help with a retweet to ask for help'
p225
aS'shane can you please retweet to all your followers please to help this little girl'
p226
aS'can you please please help by retweeting to your followers'
p227
aS'please can you help and retweet to all your followers alastair'
p228
aS'can you please help and retweet to your followers please carl'
p229
aS'can you please let all your followers read this please cesc'
p230
aS'please can you retweet this to everyone who can help this little soul'
p231
asS'2011_27'
p232
(lp233
S'any chance of a rt because its only taken me 3 years to get the knee down lol'
p234
asS'2011_44'
p235
(lp236
S'i agree its nuts lol'
p237
aS'its cool mate might jump up on train cheers anyway bud'
p238
aS'so they selling it the now old boy '
p239
aS'alright boss whats happening'
p240
aS'was it not this month you said you were turning pro all the best mate we believe in you '
p241
aS'get a life you degenerate'
p242
asS'2011_45'
p243
(lp244
S'glad to hear it m8'
p245
aS'off tonight as im going ghost hunting at my mates haunted house his 2 year old is seeing and talking to things lol'
p246
aS'torture mate what warm climate country you off to bud'
p247
aS'where u been working m8 did the big drew gaffer go with you'
p248
aS'good mate just heading out for nightshift m8 wonder how many bawbags i will pick up from pebbles tonight lol'
p249
aS'alright chief hows things'
p250
asS'2011_46'
p251
(lp252
S'you on cod later m8'
p253
asS'2012_15'
p254
(lp255
S'im backing you at bookies for all 5 '
p256
aS'thanks gail'
p257
aS'cheers'
p258
aS'cheers mate'
p259
aS'cheers mate'
p260
aS'hey conor can i get a rt for my new toy'
p261
aS'hey emma like my new toy rocketship'
p262
aS'can i get a rt for converting to suzuki  well done monday m8'
p263
asS'2011_40'
p264
(lp265
S'superb ride and fingers crossed for next race its seeley time'
p266
asS'2011_41'
p267
(lp268
S'any chance of a rt as im bored out my head at work'
p269
aS'im working booo any chance of a rt to help me get through tonight hail hail'
p270
aS'cmon the welsh from scotland'
p271
aS'cmon the welsh from scotland'
p272
aS'any chance for a rt for a troon biker'
p273
aS'well done on title you are magic'
p274
asS'2012_10'
p275
(lp276
S'happy birthday mate hope its a good one hail hail'
p277
asS'2012_11'
p278
(lp279
S'prayformuamba'
p280
asS'2012_52'
p281
(lp282
S'merry xmas to everyone hope you all have a great day'
p283
asS'2011_48'
p284
(lp285
S'no m8 weekend off buddy'
p286
aS'got to say im with andy on this one m8'
p287
aS'get the xfactor to fuck'
p288
aS'grow up what age are you'
p289
aS'aluko wants his money back'
p290
asS'2011_49'
p291
(lp292
S'champion2012'
p293
aS'hope you guys enjoyed my walkout song big thanks to everyone who supports me i love you and youre all beautiful'
p294
aS'ill need to change my pic now you have a new bike looks good the new one'
p295
aS'good luck m8 looking forward to your name on leaderboards'
p296
aS'superb news about bsb and northwest 200  all the best mate you have the game for them'
p297
asS'2012_18'
p298
(lp299
S'thanks so much for all your help thanks'
p300
aS'florida is amazing'
p301
aS'he followed u half way up street lol x'
p302
aS'please can u help with the disgraceful treatment im receiving from u stuck in florida with wrong car size and got 2 pay upgrade'
p303
asS'2013_37'
p304
(lp305
S'ideal im a out 30 mins away from therebest of luck to guy and you today at gold cup'
p306
aS'superb will get in touch when i purchase the gixxer mate im in troon in ayrshire'
p307
aS'if guy lets you near his bike thats good enough for me to visit from scotland '
p308
aS'top man mate gixxer it is  thanks danny'
p309
aS'looking for some expert advice please mate im on a 750 k7 and thinking of a 1000 k9 or mv augusta f4 what u think '
p310
aS'thinking of a mv augusta f4 whats your views on this '
p311
asS'2013_10'
p312
(lp313
S'12 weeks until the isle of man tt ttraces'
p314
aS'new tyres and chain and sprocket on bike just need the good weather now '
p315
aS'fly guy lol blockedinthemorning'
p316
asS'2013_13'
p317
(lp318
S'im good buddy tell mum and dad i said hi so hows belfast  im over soon for the bike racing for hopefully pop 2 c u'
p319
aS'hey ollie how you doing and family'
p320
aS'not long till the road racing season '
p321
asS'2013_33'
p322
(lp323
S'good luck to and the team at the ulster today have a safe one everyone \xe2\x9c\x8c\xe2\x9c\x8a fullgas'
p324
asS'2012_39'
p325
(lp326
S'it\xe2\x80\x99s not all bad for justin lee collins \xe2\x80\x93 the 12 people on the jury is the largest audience he\xe2\x80\x99s ever likely to perfor '
p327
asS'2013_17'
p328
(lp329
S'check out this item i found on ebay'
p330
asS'2012_35'
p331
(lp332
S'just watched your first ulster gp victory on the 2005 dvd  was a great victory can i have a rt please mate'
p333
aS'what a awesome gig in troon  cheers boys made my sons night with his 1st ever gig  differentclass'
p334
asS'2012_36'
p335
(lp336
S'come see me'
p337
aS'im good mate out in manhut watching golf lol sharon bringing the coffee out too me lol'
p338
aS'alright mate how are you and emma '
p339
aS'you have fcuk all luck mate its the bike mate not your ability thats causing a not so good season'
p340
asS'2012_37'
p341
(lp342
S'pj jacobsen will make his british supersport debut at assen with tyco suzuki'
p343
aS'my first ever tweet flying back from filming ferraris f12berlinetta for wowza'
p344
aS'big news coming tomorrow  watch this space'
p345
aS'just got the new road legal size plate lol had to put my favourite racer on it'
p346
aS'what a tennis match this is '
p347
aS'another test this time 4 scottish followers if u believe police in scotland should be able to negotiate pensions with '
p348
ag41
aS'alright pal '
p349
asS'2012_30'
p350
(lp351
S'do you still get weekly payment from union if off long term sick '
p352
aS'i would eat victoria pendletons saddle teamgb'
p353
aS'this is how close the battle between and myself got last weekend that\xe2\x80\x99s from his front tyre great fun ht '
p354
aS'gareth bale who pulled out of the olympics through injury played for spurs last night once in a lifetime opportunity t '
p355
aS'just been out all morning ringing the neck out of my gsxr k7any chance of a rt mate'
p356
asS'2012_31'
p357
(lp358
S'ask ally mccoist if she is good at it ha'
p359
asS'2013_38'
p360
(lp361
S'oh god hope you recover quickly mate  best wishes'
p362
asS'2011_29'
p363
(lp364
S'well said john any chance of a rt'
p365
asS'2009_9'
p366
(lp367
S'mw2 if you camp for more than 60 seconds you die'
p368
asS'2013_36'
p369
(lp370
S'want to know the reality behind pinterest it may shock you  10 is gross but hilarious'
p371
aS'hilarious pinterest fails this is why i dont make stuff at home'
p372
aS'disneys got a few new tricks up its sleeve pirates 5 finding dory maleficent which do you want to see'
p373
aS'take a second look at these logo fails im laughing so hard at 14'
p374
aS'the weirdest stuff out of japan yet you wont believe 4'
p375
aS'more tattoo dos and donts 3 glows'
p376
asS'2013_35'
p377
(lp378
S'come on andy murray'
p379
asS'2011_37'
p380
(lp381
S'thinking we can get a result tonight big john wish you were still playing'
p382
aS'its a buzz go and learn'
p383
asS'2011_36'
p384
(lp385
S'superb yesterday im confident of another result next weekend'
p386
aS'any chance of a rt for a victory on sunday hail hail big man'
p387
aS'superb today mate well done mate and catch u soon '
p388
asS'2011_30'
p389
(lp390
S'catwoman23uk you really are pond life'
p391
asS'2011_33'
p392
(lp393
S'any chance of a rt for my son kyle'
p394
aS'cmon robbie lol what about ki of celtic u couldnt lace his boots '
p395
asS'2011_32'
p396
(lp397
S'u on ps or xbox'
p398
asS'2011_52'
p399
(lp400
S'today is my day in meerkovo come and see the meerkat parade in my honour'
p401
asS'2012_38'
p402
(lp403
S'the other half has the couches tv box and a beer fridge lol '
p404
aS'any chance of a rt for the tyco tas racing manhut '
p405
aS'any chance of a rt for the tas racing manhut'
p406
aS'any chance of a rt for the tas racing manhut '
p407
aS'great team and great riders first bike i ever seen win was a tas bike at northwest 2011go josh for title can i get rt please'
p408
aS'cracking picture kellie x'
p409
aS'a poem from a celtic fan myself about the hillsborough disaster please give it a minute of your tim '
p410
aS'great weekend results mate guy was sure riding it like he stole it '
p411
asS'2011_38'
p412
(lp413
S'your the man jonny bones '
p414
aS'any chance of a rt to bring me out my boredom at work'
p415
aS'that was awesome today well done mate and to tas also '
p416
aS'hows your nerves lol the wee man is doing amazing 1weewizard  '
p417
aS'come on alastair its in the bag '
p418
aS'just read your colum in the sun superb big man as these are the questiins we need answered hail hail'
p419
as.