(dp0
S'2013_42'
p1
(lp2
S'from lunching with my virtuous ladies some girl talk is always so good for the soul love you rhodies '
p3
aS'can saturday just not end '
p4
asS'2013_43'
p5
(lp6
S'so true'
p7
aS'god isnt a genie in a bottle you cant continue doing what caused you to get in a mess amp pray for god to miraculously fi\xe2\x80\xa6'
p8
aS'love each other as i have loved u greater love has no one than this that he lay down his life for his friends john\xe2\x80\xa6'
p9
aS'lol i will definitely try that'
p10
aS'lets hope season 3 wont disappoint'
p11
aS'if we confess our sins he is faithful and righteous so he may forgive us for our sins and cleanse us from all unrighteo\xe2\x80\xa6'
p12
asS'2013_40'
p13
(lp14
S'sometimes you have to be okay with a sorry you never got forgiveness unblocks your blessing do it youre worth it'
p15
aS'i wanna scream and shout and let it all out '
p16
asS'2013_41'
p17
(lp18
S'that moment when all the ice trays are emptykikiki theheat'
p19
aS'be daring be bold focus on and affirm the experiences you desire'
p20
aS'when u love someone u just do there are no maybes no buts and no whys'
p21
asS'2013_46'
p22
(lp23
S'lol zoe by the way my second name is anele and i am a uberhuge fan of yours you rock pretty lady'
p24
aS'tjo they still havent figured out who his real dad is  i miss generations'
p25
aS'thats a good question'
p26
aS'never let people make you feel guilty about being blessed rehabtime'
p27
aS'loving this track  primetime by janelle monae ft miguel'
p28
asS'2013_44'
p29
(lp30
S'tjo musa '
p31
aS'dont get burned twice by the same flame'
p32
asS'2013_45'
p33
(lp34
S'god has an appointment with your breakthrough and when that time comes god will not be late'
p35
asS'2013_24'
p36
(lp37
S'pride can make a leader a loser humility is freedom from that destructive attitude learn more'
p38
aS'hoping for a even just a ray of sun'
p39
asS'2013_36'
p40
(lp41
S'you are where god wants you to be at this very moment every experience is part of his divine plan'
p42
asS'2013_35'
p43
(lp44
S'when you ask god to direct your path you have to accept the closed doors as his will too'
p45
aS'jesus said \xe2\x80\x9ccome to me all you who are weary and burdened and i will give you rest\xe2\x80\x9d matthew 1128'
p46
aS'never lose your life because someone leaves your life you need god to survive not them rehabtime'
p47
asS'2013_34'
p48
(lp49
S'when youve tried your best and youre starting to lose hope remember god plans are better than your dreams rehabtime'
p50
aS'stop expecting something new from the same old situation rehabtime'
p51
asS'2013_23'
p52
(lp53
S'james and the giant peachhope this will be good'
p54
asS'2013_39'
p55
(lp56
S'forgiveness may not change the past but it gives the future a chance'
p57
aS'there are things deposited inside you waiting to be developed waitingtobedeveloped'
p58
asS'2013_38'
p59
(lp60
S'not one tear is ignored by god he collects them all in a bottle and waters your seed of faith with them wait for the\xe2\x80\xa6'
p61
aS'\xe2\x80\x9challelujah for the lord our god the almighty reigns let us rejoice and exult and give him the glory revelation 196\xe2\x80\xa6'
p62
aS'got a surprise visit from your lil brother  well i guess hes not that little anymore lol hope you lekker'
p63
aS'happy birthday'
p64
aS'indeed it was'
p65
aS'thats so true and it takes our focus off the problem and puts it back onto god'
p66
aS'thanks for that reminder i will wait on him'
p67
aS'the anointing of god will bring you through for it\xe2\x80\x99s not by might nor by power but by my spirit said the lord'
p68
as.