(dp0
S'2014_17'
p1
(lp2
S'man my twin uncles are starting to grind my gear i swear beatsmusic'
p3
aS'has the rudest moderators ever in gaming history n they had the nerv to tell me that there mods are very respectful'
p4
asS'2014_18'
p5
(lp6
S'ive beaten the black death scenario on normal difficulty  are you as infectious as me'
p7
aS'doc said i had acute tosilitise i blame sydney cause he daft punked me lol'
p8
asS'2014_19'
p9
(lp10
S'whoop whoop my ninjas beatsmusic'
p11
asS'2014_21'
p12
(lp13
S'lord i hope this day is good beatsmusic'
p14
aS'emailed the president demanding him to appolgies to china for our hacking chrimes against them aprantly we been doing it long before they'
p15
aS'china man be like lets hack something us be like bitch please'
p16
aS'if you play world of tanks n believe n a higher power n looking for friends that wont judge join our clan gsr'
p17
asS'2014_20'
p18
(lp19
S'i was diagnosed with bipolar ptsd n ocd you wanna know what i honestly think about mental disorders its a bunch of crock shit a excuse'
p20
aS'gah had to use my boondox bandanna on my left hand i think i fractured the palm i figured the bandanna would give my palm a cushion'
p21
aS'yall guys should know i aint never seen a concert but my sister has aint that a kick in the head'
p22
aS'so my favorite album from pychopathic records is carnival of carnage icp but now i have a new favorite abaddon by boondox sorry icp'
p23
aS'always wanted to see the gathering of the juggalos if it wasnt for the fact i am dirt poor i would but someday just someday'
p24
aS'can you show me the home screen some how'
p25
aS'congrats to our homie boondox on his devastating new album abaddon which drops today'
p26
aS'chinese general tours us carrier as maritime tensions fester via wtf are we thinking'
p27
asS'2014_16'
p28
(lp29
S'beatsmusic'
p30
asS'2014_22'
p31
(lp32
S'the weed fairy visits seattle gives out pot via'
p33
aS'technology is a curse given to n by man i despise technology they say it makes life easy but i think it complicates life more'
p34
asS'2014_12'
p35
(lp36
S'music beatsmusic'
p37
aS'i cant use twitter worth a shit bwhaha'
p38
asS'2014_14'
p39
(lp40
S'beatsmusic'
p41
asS'2014_15'
p42
(lp43
S'she got that cat piss white widow alkida pinapple purple haze odp buy a sack n smoke with me whoop whoopbeatsmusic'
p44
aS'oh shit not the amazing maze n rick da dick oo he is fucked hey i know where saw got there idea for the puzzle d'
p45
aS'redit can to cant for ziron linux n ubuntu'
p46
aS'i whent from ubuntu to ziron linux there simular except it has windows back grounds n you can multi task windows'
p47
aS'bwhaha the undergarments are white to make sure the water pures you fully during baptism trust me i must of had been mormon p'
p48
aS'my personal playlist check it out it has everything if its missing music shoot me a title if it makes me feel gre'
p49
as.