(dp0
S'2013_45'
p1
(lp2
S'this is let me remind you seven hundred billion times better than the black eyed peas incident'
p3
aS'what a slut time is she screws everybody xd'
p4
aS'i could listen to thrift shop all day'
p5
aS'theawkwardmomentwhen you find a picture of your car on someones twitter'
p6
aS'kendrick lamar gtgt'
p7
aS'wish i could be in my bed all day'
p8
aS'i always wanted to sit on a beach drinking corona like the commercials'
p9
aS'i dont know how to waste today hrm black opps 2 again me thinks'
p10
aS'sooo exhausted'
p11
aS'this is exactly like a train wreck its horrible but i cant look away'
p12
aS'i just remembered that theres this social experiment that i want to do radical honesty stole the idea but it sounds interesting'
p13
aS'lol please tell youre joking'
p14
aS'white people are hilarious'
p15
aS'can i sleep till summer'
p16
aS'iam truly blessed'
p17
aS'trying to arrange last minute camping stuff i wasnt going to go but i just decided that i want to go hopefully everything will work out'
p18
aS'best touchdown ever'
p19
aS'kpop either you love it think its weird but catchy or hate it'
p20
aS'thunderbuddys'
p21
aS'drake thinks a sibling is a pig'
p22
aS'south american metal fans do it like no other'
p23
aS'oh my goshhh with the intro alone i think caleb is dead based on hannas expression pll'
p24
aS'just stop'
p25
aS'crocodile rock morningjams'
p26
aS'youre a part time lover and a full time friend'
p27
aS'late night texts long phone calls telling her shes beautiful thats what girls want'
p28
aS'dang the whole family couldve gone to ca for my grandpas funeral if it was next weekcuz tickets are cheap but the family in ca dont care'
p29
aS'going to ireland was great for my sleeping schedule im already tired enough to fall asleep if it wasnt for my shows tonight i would xd'
p30
aS'my bed would be nice right about now'
p31
aS'about to interview for work study  more excited than nervous'
p32
aS'taylor thinks everyone of my tweets are about the same guyno'
p33
aS'people that think you have the perfect life when actually its the complete opposite lt'
p34
aS'i absolutely adore amanda seyfried goldenglobes'
p35
aS'cant wait to see rogers seniors homecoming shirts tomorrow when they post up pictures p'
p36
aS'since im bored and have nothing to do im gonna tweet some celebs to see if theyll reply back p'
p37
aS'i swear sometimes the girls on pll are stupid not to be mean but some of the things they do  ughhhhhh im still on season 2 p'
p38
aS'okay have only just woke up o'
p39
aS'i feel like dancing tonight'
p40
aS'when in doubt duck face it out'
p41
aS'itshardformeto not sing along to songs that i know'
p42
aS'well thats another person i wish i never met'
p43
aS'public washrooms are actually so disgusting'
p44
aS'stoner babes want dudes with great skills blunt rolling skills bong rip skills munchie making skills'
p45
aS'will you be my cuddle buddy'
p46
as.