(dp0
S'2013_42'
p1
(lp2
S'sorry but im from a place where everything was shared equally and it wasnt as nice as some of you seem to think it wou\xe2\x80\xa6'
p3
aS'this is so cool scifi is now'
p4
aS'progressive failure obamaspresidencyintwowords'
p5
aS'the obamacare girl got the worst photo shoot gig since joey did the std poster on friends'
p6
aS'how many close friends do most person have just read stats saying average is 2 good reason never to feel lonely god\xe2\x80\xa6'
p7
aS'youve gone from preaching to meddling '
p8
aS'a sensible college plan for nros education week  skip the expensive private schools stay out of debt'
p9
aS'the problem is the vast majority of republicans dont even try to get the message out spineless suckupitude'
p10
aS'my daughter said white chocolate the chocolate of my people affinity'
p11
aS'davesideas basic cable detective show starring obama and biden mompants amp muffinbringer'
p12
aS'please destroy 343k babies wouldve had 1 candle this year had it not been for planned parenthood'
p13
aS'soldier delivers salute seen around the world it doesnt get more profoundly moving than this'
p14
aS'financial advice for obamacare start thinking about ways to decrease income \xc2\xab via badsuccessadvice'
p15
aS'did u hear the one about the washington redskins removing washington from their name because it\xe2\x80\xa6'
p16
aS'we are in end times rt our pal told us duck face is out and sparrow face is in'
p17
aS'congress is going to put out another album '
p18
aS'its not too late to create this alternative history now via'
p19
aS'coming soon here nhs director dies after operation is cancelled four times at her own hospital via'
p20
aS'obamascare its coming\xe2\x80\xa6'
p21
aS'more secure than our borders installing new government shutdown barricades at world war ii memorial'
p22
aS'correction we are being ruled by a man who is insane and shameful spiteful vindictive arrogant narcissistic'
p23
asS'2013_43'
p24
(lp25
S'   \xe2\x9a\xbe\xef\xb8\x8fworldseries'
p26
aS'coolest birthday gift so far wattage booster for electrified fence and just in time for halloween too'
p27
aS'outside of the womb the most dangerous place for a black american to be is in a city run by democrats'
p28
aS'my parents just asked me about kale and edamamethanks hipsters for ruining a happy family'
p29
aS'because this the real world relevance of media politicians and public to each others daily lives'
p30
aS'has a glitch also jayne mansfield was in a fender bender thatllbuffrightout'
p31
aS'gt rt what an incredible statement rt we cooperate with all legitimate congressional over\xe2\x80\xa6'
p32
aS'after the obamacare website im no longer concerned about the nsas spying software silverlining'
p33
asS'2013_40'
p34
(lp35
S'investigate the closure problem not the gummi bear problem just to clarify'
p36
aS'i am finding a solution i warned our congressman about the coming gummi bear gift now he can investigate the problem'
p37
aS'was that to me'
p38
aS'watch neil cavuto slam president in best obamacare monologue ever'
p39
aS'read this review to see why another customer wants to send them to congress i want you on the job 22'
p40
aS'beware getting these as a gift 12'
p41
aS'like nascar drivers thinking about wearing commercial logos on my suits trying it out soon with my depends blazer'
p42
aS'obama furloughs the sea barrycades'
p43
aS'no time for gop but lots of time to spout off on irrelevanciesobama open to name change for washington redskins'
p44
aS'potus on obamacare its the law of the land potus on the borders its complicated'
p45
aS'asking wheres the investigation ben carsons irs audit cant possibly be coincidence'
p46
aS'from thug usurpers of the bureaucracy want to send a message'
p47
aS'love it father makes son hold sign for bullying student via'
p48
aS'nbc police remove vietnam war veterans at memorial wall'
p49
aS'its happy hour here at the seven dwarfs bar may hang around for dopey hour next'
p50
aS'obamas america'
p51
aS'best wwii mmeorial sign normandy was closed when we got there too'
p52
aS'man is a marine vet from woodbridge he runs a carpentry business but took the day off to support vets'
p53
aS'media thronelickersthis isnt hard 1 memorial is outdoors always open 2 omb obama admin hired people to barricade amp\xe2\x80\xa6'
p54
aS'only obama would think the wwii memorial needs to be protected from wwii veterans'
p55
aS'decades of esteem bldg exercises latertough teachers get good results'
p56
asS'2013_41'
p57
(lp58
S'an absolutely devastating indictment of the radical invasion into the heart of our nation a must read'
p59
aS'for funwe need itwatch this video for the youth bake sale fundraiser thanks'
p60
aS'wow all that profanity and in just 140 characters im impressed getaclue'
p61
aS'i cant put my arms down'
p62
aS'east coasters may not know 1st heavy rain of season lifts all oil dripped on roads in summer think black ice everywhere'
p63
aS'in 2006 increase would have paid for gop stuff now its for obamas stuff completelydifferent doublestandard'
p64
aS'i want a windshield'
p65
aS'is there video of the interview'
p66
aS'omg mt contractor posts server source code asking for help obamacarecodefail ha\xe2\x80\xa6'
p67
aS'\xe2\x80\x9cnps removed water spigot handles on campo canal path where many exercise so they cant drink'
p68
aS'if the constitution requires the govt to insure domestic tranquility they should create domestic violence insurance'
p69
aS'sadder this kids share of debt rt via the absolute saddest shutdown photo you will see'
p70
aS'i heard a strange sound outside went to investigate its raining buckets welcome to october'
p71
aS'jesus good luck no tearing up i\xe2\x80\x99ve been there it\xe2\x80\x99s brutal'
p72
aS'yes we cone spitehouse shutdown'
p73
aS'these soldiers will never see their families again potus refused to pay death benefits and gop is called heartless'
p74
aS'obamas opinion of those who are willing to die for us'
p75
aS'the best thing about going to the dentist is that they never want to weigh you'
p76
aS'did you see hypocrisy obama to allow amnesty rally on national mall after kicking veterans out via'
p77
aS'fun fact about my daughter veronica she was too lazy to walk until she was 2 morefunfactsrevealedifyouhackmeagain'
p78
aS'fun fact about rick just found mayo in his fridge that expired 3 years ago and i think he recently ate some of it ha\xe2\x80\xa6'
p79
aS'that bad pr guy has a real nose for money like pigs sniffing up truffles'
p80
aS'as part of shutdowntheater we should launch space drones to intercept and destroy the voyager probes'
p81
aS'per my dad when someone says that obamacare is settled law i mention that so was slavery caring'
p82
asS'2013_46'
p83
(lp84
S'ben stein is this really happening liars in obama admin trust liars in iran to tell the truth'
p85
aS'i haven\xe2\x80\x99t felt this confident since hearing a copilot say \xe2\x80\x9ci\xe2\x80\x99ve never flown one with two engines before\xe2\x80\x9d obamacare'
p86
aS'omg my sleep number is 666'
p87
aS'the uniform of success suit donation event  jos a bank'
p88
aS'when you jam a horrific piece of legislation through on 100 partisan lines  you not only own it you cant expect help fixi\xe2\x80\xa6'
p89
aS'render unto seizure'
p90
aS'traditional public schools and charter schools have had roles in helping my children succeed schoolchoiceworks'
p91
aS'watching we were soldiers for veterans day love that movie'
p92
asS'2013_17'
p93
(lp94
S'i can tell im not young anymore my first instinct is not to check my phone painfullyclear'
p95
asS'2013_44'
p96
(lp97
S'for hanging clothes on i still think the elliptical trainer is more efficient than either the pilates or the treadmill'
p98
aS'gottaloveit 37 percent of americans think zombies could run the country better via'
p99
aS'people used to think i was flat now they think they can control my temperature ah humans you gotta love em'
p100
aS'punished enough already so we need to have pea party protests'
p101
aS'ran out of candy all i had were some little airline liquor bottles had no idea neighborhood parents were so testy'
p102
aS'father of the year'
p103
aS'fun halloween ordered several of my people to dress up and go trick or treating for me cant wait to see what i get'
p104
aS'all business successes are due to government all government failures are due to businesses ministryoftruth'
p105
aS'for obamas human props to be like kim jong uns thered have to be some swooning oh wait there was several days ago'
p106
aS'aca security flaws whoda thunk'
p107
aS'purpose of obamacare insure the uninsured effect of obamacare to date uninsure the insured'
p108
aS'i am your constituent this speaks for me do not open our borders'
p109
aS'enjoying bahamas beaches put conch shell to my earthink i heard someone from nsa listening'
p110
aS'\xe2\x80\x9cno you cannot have your old plan you didn\xe2\x80\x99t like it you must have this new expensive plan which you now love\xe2\x80\x9d'
p111
asS'2013_45'
p112
(lp113
S'happy 238th birthday marines thank you for your selfless service to our great nation'
p114
aS'scott adams explains the entire obamacare website disaster  in 1999 rt'
p115
aS'heres 100 billion go implement my new antigravity law how do i look like a lowlevel detail person just do it\xe2\x80\xa6'
p116
aS'the drift toward despotism analrape bythebook'
p117
aS'at some point after you turn the microwave on you realize youre either making ninja popcorn or you forgot to put a bag in'
p118
aS'just because they are so darn cute cougar orphans at oregon zoo'
p119
aS'no x in espresso one r in sherbet its jewelry not jewlery and its realtor not relator my work is done'
p120
aS'gottaloveit lake teacher uses exercise balls to control squirming students'
p121
asS'2013_16'
p122
(lp123
S'nbc reporting obama admin will treat terrorist as a criminal and not enemy combatant will obama allow him to lawyer up'
p124
aS'the two happiest days of a boat owner\xe2\x80\x99s life is the day he buys a boat and the day he gets a terrorist out of it'
p125
aS'caroline glick has great news israel'
p126
aS'watch as all 17565strong belt out the national anthem prior to tonights game tv  '
p127
asS'2012_42'
p128
(lp129
S'its quite brilliant really  liberal men have convinced women to think sex wo commitment amp abortion as birth control '
p130
asS'2013_25'
p131
(lp132
S'two men who look as if theyd rather be anywhere else on earth'
p133
asS'2013_27'
p134
(lp135
S'heard obama admin may delay obamacare employer mandate for 1 year how about we delay it all forever fullrepeal'
p136
aS'rt one year ago today the supreme court upheld obamacare see how its working for americans today'
p137
asS'2013_21'
p138
(lp139
S'i just pulled my laundry out of the dryer and saw a handful of underwear oh no pantiesinabunch'
p140
aS'obamascandalmovies lack of valor'
p141
aS'i took a big bag of carrots that had gone bad out to the green waste can itjustseemswrong then i threw in some red onions notgreen'
p142
asS'2013_22'
p143
(lp144
S'because everybody knows that the bible says somewhere god will not allow stinky people in heaven or in church'
p145
asS'2013_29'
p146
(lp147
S'44 years after moon landing we should follow footsteps of neil armstrong to lead world not apologize to it'
p148
aS'read this carefully as i dont want 2 be misunderstood screw the doj if they wont give zimmerman his gun back ill buy\xe2\x80\xa6'
p149
asS'2009_12'
p150
(lp151
S'figuring out that knowing the brain is binary can help me in more arenas than just the one i blogged about'
p152
aS'looking into the binary nature of the human brain'
p153
asS'2008_50'
p154
(lp155
S'hhrs hugh amazefm needs a song title search facility too'
p156
aS'done with school for now'
p157
aS'blogging progress in malawi'
p158
aS'hhrs so if any technology worth implementing started in porn did twitter start in porn'
p159
aS'russell just go to your homepage and type your message to hugh and make sure you have hhrs in your twitter text'
p160
aS'hhrs hugh youre challenging my pitiful technological prowess here but im giving it the ole college try'
p161
asS'2009_36'
p162
(lp163
S'gotta go to the bank to get a bunch of change for tomorrows garage sale'
p164
asS'2013_37'
p165
(lp166
S'a fine is a tax for doing wrong a tax is a fine for doing well'
p167
aS'the stuff you find online'
p168
aS'rebuts vladimir putin on american exceptionalism worth reading president obama should read it too'
p169
aS'i can only assume by unbelievably small kerry means obama is going to shut down all student tours to assads living quarte\xe2\x80\xa6'
p170
aS'study one abortion increases a woman\xe2\x80\x99s death risk 45 women health tcot abortion'
p171
aS'no mention wont dc be surprised pass the popcorn'
p172
asS'2013_36'
p173
(lp174
S'sad statement about the economy amp job market that the 2 book is on career selfhelp'
p175
aS'my motherinlaw used to like getting shots she enjoyed the tingle of the needle pokes  must not have had the same nurse as you'
p176
aS'and you would know this how '
p177
aS'pearl harbor was not actually an act of warjust a limited air strike with no boots on the ground'
p178
aS'hahahahahahahahahahahaha rt bill clinton says gop has duty to help fix obamacare glitches'
p179
aS'if syrian use of chemicals violates internl norms doesnt slavery still being practiced in mauritania africa'
p180
aS'the elephant in the room is the human in the womb baby elephant in the womb'
p181
aS'yep it was needed mom jeans girl bike throws like a girl nailedit'
p182
aS'global warming expedition fail inconvenienttruth'
p183
aS'dont you hate it when you kill a jockey and someone else gets the credit left4dead2'
p184
asS'2013_35'
p185
(lp186
S''
p187
aS'classic how to bathe a cat'
p188
aS'bam barack obama is proving an embarrassing amateur on the world stage compared to george w bush via'
p189
aS'i have a dream too  that someday all americans will realize that one of the biggest cons going is the race grievance industr\xe2\x80\xa6'
p190
asS'2013_34'
p191
(lp192
S'tweetyourgrandfatherswwiistories postwar grandpa stationed in france 2 years helping to identify remains of us troops'
p193
aS'tweetyourgrandfatherswwiistories about grandpas john wayne story that was his story and he stuck with it notsureiftrue'
p194
aS'shot machine guns from hip in high grass of wwii pacific trainers all laughed then found how to do it tweetyourgrandfatherswwiistories'
p195
aS'tweetyourgrandfatherswwiistories grandpa served in wwi trained troops in wwii said a trainer saw a john wayne movie where us troops'
p196
aS'forgot to say ice speeds healing if you dont have an ice gelpack frozen peas on your back 1015 min every 2 hrs helps'
p197
aS'my chiropractor once had a patient who threw out her back brushing her teeth so youre not the dorkiest prayers for you'
p198
aS'today in history dolly madison saved the portrait of george washington before british could enter in 1814'
p199
aS'so the federal government er we the people are employing someone at the department of homeland security whose htt\xe2\x80\xa6'
p200
aS'disgusting 89yearold world war ii veteran beaten to death by two black teens'
p201
aS'fightlikeagirl mexicos women up in arms'
p202
aS'its aggrandizement of obama not the presidency this kind of cooing and sighing never happened under bush'
p203
aS'nerd brains just work this way'
p204
asS'2013_33'
p205
(lp206
S'wow only 3 hour windows the cable guy must hate whites because he makes me wait 4 hours oprah cancel the press conference'
p207
aS'off to hike in the deep woods maybe ill find our country back there with a broken leg and discover why we havent heard fr\xe2\x80\xa6'
p208
aS'putin should offer to hold a summit with the obama rodeo clown g20'
p209
aS'my local wont serve bob filner stepintoawesome respect lunch'
p210
asS'2013_32'
p211
(lp212
S'natural progression'
p213
aS'it is possible to holster a cat inadvisable but possible'
p214
aS'cnn piece why youth arent finding jobsnot one word about obama obamacare higher taxes regs not one word '
p215
aS'excuse me mr presidentwould you mind working parttime'
p216
aS'for the record  when youre forced to close a record amount of embassies your enemy isnt on the run you a\xe2\x80\xa6'
p217
aS'obamacareisworking to destroy the finest health care system in the world exactlyasplanned'
p218
aS'obamacareisworking as well as alec baldwins anger therapy'
p219
asS'2013_31'
p220
(lp221
S'oh dang and i thought costco was bad for having halloween costumes in the store in july'
p222
aS'but blacklists cant be a concern everybody knows only cons make blacklists sarc'
p223
aS'must'
p224
asS'2013_30'
p225
(lp226
S'omg my hispanic neighbor 27yo woman just came over to tell me shes removed her obama bumper sticker and that i was \xe2\x80\xa6'
p227
asS'2013_19'
p228
(lp229
S'why in the hell is having another vote on obamacare vote to repeal the tax on medical devices'
p230
asS'2013_18'
p231
(lp232
S'jenny i hate running over possums they pop when you hit them colleen maybe they should call them popsums heh'
p233
aS'benghazi hearing on may 8  rt and share to help spread the word'
p234
asS'2013_39'
p235
(lp236
S'a selection of bulwerlytton prize winners classic'
p237
aS'wwii soldiers letter reaches daughter seven decades later'
p238
asS'2013_38'
p239
(lp240
S'because adding taxes to the chart would open our eyes and turn too many against the dems lefties dont like that'
p241
aS'headline no one should be hungry in america gt remember terri schaivo'
p242
aS'no matter what else does or doesnt get done my day is complete i fixed the paper towel dispenser at work aaaahh'
p243
asS'2008_51'
p244
(lp245
S'just got a temp job while i look for a day job plus a christmas song to enjoy'
p246
aS'book recommendation the gift of fear'
p247
aS'just finished up posting about me on the receiving end of poetic justice'
p248
aS'a cool aurora borealis video and some disturbing nasa news'
p249
asS'2013_15'
p250
(lp251
S'are you out of your minds pass the meddevicetax bill says'
p252
aS'how thatcher was \xe2\x80\x9cfreakishly correct\xe2\x80\x9d about the euro \xc2\xab the greenroom via'
p253
as.