(dp0
S'2013_42'
p1
(lp2
S'you know youre in love when you cant fall asleep because reality is finally better than your dreams\xe2\x80\x9dmy favorite quote ever'
p3
aS'finally watching the breakfast club \xf0\x9f\x98\x8a\xf0\x9f\x91\x8d'
p4
aS'done with the psats \xe2\x9c\x94\xef\xb8\x8f'
p5
aS'i am seriously there for everyone that needs me but then when i need something nope back to being all alone'
p6
aS'good night at home then psats in the morning wish me luck'
p7
aS'victory against paramus \xf0\x9f\x91\x8d'
p8
aS'risky buisness for the paramus game today \xf0\x9f\x91\x8d'
p9
aS'gotta love when mr quirk says that if i dont get to the top of the rock wall and stand up then i wont start thank god i made it'
p10
aS'i dont even try anymore'
p11
aS'gotta love toueykay when we do nothing all period'
p12
aS'happy birthday to the most amazing brother ever you are 20 already i love you so much and you are always there for mehave a great day\xe2\x9d\xa4\xef\xb8\x8f\xf0\x9f\x98\x98'
p13
aS'i will always stand up for you'
p14
asS'2013_43'
p15
(lp16
S'sleeping my problems away \xf0\x9f\x91\x8d'
p17
aS'they keep saying it will run its course but it wont run if there is nothing there to push it to start'
p18
aS'loosing everything \xf0\x9f\x91\x8c'
p19
aS'im so done'
p20
aS'what the hell is the thing with the pins'
p21
aS'you never realize what you had until its gone'
p22
aS'it can always get better but it can also always get worse'
p23
aS'and my shoulder is gone haha'
p24
asS'2013_40'
p25
(lp26
S'i just want to sleep'
p27
aS'some day boy am i tired'
p28
aS'cant wait to see my boy next weekend'
p29
aS'long day at the tournament time for some food'
p30
aS'friday night and i have no plans\xf0\x9f\x91\x8c'
p31
aS'wanna talk'
p32
aS'is everything ok'
p33
aS'bad day'
p34
aS'yeah but still i have been with u and mealz all week im surprised it took this long'
p35
aS'haha its not like you have been trying all week or anything'
p36
aS'hmmm im starting to get sick i wonder who got me sick'
p37
aS'miley cyrus all night'
p38
aS'what to do'
p39
aS'well that was bad'
p40
aS'thankssss'
p41
aS'i think way too much at night \xf0\x9f\x98\x94\xf0\x9f\x99\x87'
p42
aS'just forget about the past move on to the future'
p43
aS'my mom just told me next backwoods i should wear a garlic necklace to ward away people no'
p44
aS'falling apart'
p45
aS'tuesday wednesday friday saturday all volleyball games and a tournament'
p46
aS'october\xf0\x9f\x8d\x82\xf0\x9f\x8d\x83\xf0\x9f\x8d\x81 fall is in the air'
p47
aS'breast cancer awareness month tomorrow \xf0\x9f\x92\x9e\xf0\x9f\x92\x9e \xf0\x9f\x92\x9e \xf0\x9f\x92\x9e \xf0\x9f\x92\x9e \xf0\x9f\x92\x9e \xf0\x9f\x92\x9e \xf0\x9f\x92\x9e \xf0\x9f\x92\x9e \xf0\x9f\x92\x9e \xf0\x9f\x92\x9e\xf0\x9f\x92\x95 \xf0\x9f\x92\x95\xf0\x9f\x92\x9e \xf0\x9f\x92\x9e \xf0\x9f\x92\x9e\xe2\x80\xa6'
p48
aS'forget the haters because somebody loves you  miley cyrus'
p49
aS'listening to bangerz'
p50
aS'mileys new albumgt'
p51
aS'perks of being a wallflower one of the saddest but best movies'
p52
asS'2013_41'
p53
(lp54
S'i love deep i fight hard i trust much i forgive often l learn more i grow strong'
p55
aS'i would do anything for my girls \xe2\x9d\xa4\xef\xb8\x8f'
p56
aS'life is like a box of chocolates you never know what your gonna get'
p57
aS'and thats all i have to say about that'
p58
aS'run forrest run'
p59
aS'forrest gump\xf0\x9f\x98\x8d\xf0\x9f\x98\x8d\xf0\x9f\x98\x8d\xf0\x9f\x98\x8d'
p60
aS'cant wait to see my brother tomorrow \xf0\x9f\x98\x98'
p61
aS'it will be like im not even here'
p62
aS'whats wrong my baby text me im here for you'
p63
aS'you think you know everything about me but really you dont know anything'
p64
aS'im so done rn i cant deal with these ppl'
p65
aS'im done'
p66
aS'the only people you need in life are the ones that need you in theirs'
p67
aS'bangerz \xe2\x9d\xa4\xef\xb8\x8f\xe2\x9d\xa4\xef\xb8\x8f\xf0\x9f\x98\x98\xf0\x9f\x98\x8d'
p68
aS'oh yeah'
p69
aS'gotta love these ridgewood girls'
p70
aS'haha we will see what happens \xf0\x9f\x98\x81'
p71
aS'its official i have tendinitis'
p72
aS'hahaha ill try'
p73
aS'dont talk shit about me or my family if im sitting right there i can hear you'
p74
asS'2013_46'
p75
(lp76
S'when he tweets about you\xf0\x9f\x98\x8dgtgt'
p77
aS'maybe i dont cry but it hurts maybe i wont say but i feel maybe i dont show but i care'
p78
aS'only i would eat dinner at 1100 \xf0\x9f\x91\x8c'
p79
aS'first day of physical therapy and they shock me thats cool'
p80
aS'well of course'
p81
aS'1 universe 8 planets 204 countries 804 islands 7 seas 7 billion people don\xe2\x80\x99t let one person fuck up your mood'
p82
aS'when someone tickles my neck im like'
p83
aS'be yourself and enjoy life or be fake and have to change every 5 seconds'
p84
aS'adorable'
p85
aS'craving cookie dough just about now \xf0\x9f\x98\x8d\xf0\x9f\x98\x8d'
p86
aS'i wish i had a delete button in my life to delete some people some memories and some feelings'
p87
aS'why is it so cold in my house'
p88
aS'poison ivy is not ivy and poison oak is not an oak they are both part of the cashew family my snapple factgtgt yours'
p89
aS'what ok thats cool'
p90
asS'2013_47'
p91
(lp92
S'wonderful i have to type a whole essay all over because it got deleted'
p93
aS'my boy is coming home tomorrow '
p94
aS'im sorry'
p95
aS'come on po'
p96
aS'perfection \xe2\x99\xa5'
p97
aS'\xf0\x9f\x91\x8c\xf0\x9f\x99\x8c'
p98
aS'happy birthday princess have a great one love you \xe2\x9d\xa4\xf0\x9f\x92\xb0\xf0\x9f\x8e\x89'
p99
aS'when you say thou love me know i love you more'
p100
aS'sometimes i cant deal with you'
p101
aS'free rn anyone '
p102
aS'hakuna matata is a swahili phrase that literally translates to there are no worries'
p103
aS'ill always be here for ya'
p104
aS'youre the closest to heaven ill ever be'
p105
aS'love \xf0\x9f\x98\x8a'
p106
aS'dont lie to me really all you wanna do is start something'
p107
aS'girls that always search for drama ltlt'
p108
aS'elite'
p109
aS'cant wait until tomorrow morning \xf0\x9f\x91\x8d\xf0\x9f\x98\x8a'
p110
aS''
p111
aS'physical therapy then volleyball tryouts \xf0\x9f\x91\x8d'
p112
aS'yippee im sick \xf0\x9f\x98\xb0\xf0\x9f\x98\x90'
p113
aS'yeeeaaapp'
p114
aS'thanks beb tho \xf0\x9f\x98\x98'
p115
aS'i would never hurt you'
p116
aS'hahaha nahhh we are all good '
p117
aS'never let her fall asleep upset'
p118
aS'say it to my face'
p119
aS'tweetabondthatcantbebroken'
p120
aS'what would make anyone think that about me'
p121
aS'fallen for a fool\xf0\x9f\x91\x8d'
p122
aS'basically'
p123
aS'if someone actually wants to set me that would be cool\xf0\x9f\x91\x8c'
p124
aS'advil all the way and ready for my tryout hope m shoulder does not fail'
p125
asS'2013_44'
p126
(lp127
S'thank you \xf0\x9f\x99\x8f'
p128
aS'why am i so amused by this'
p129
aS'people will'
p130
aS'we need to catch up'
p131
aS'the pinky promise originally indicated that the person who breaks the promise must cut off their pinky finger'
p132
aS'2'
p133
aS' \xe2\x9c\x8c\xef\xb8\x8f here i come \xf0\x9f\x91\x8c'
p134
aS'in three'
p135
aS'dammit no purple hearts \xf0\x9f\x92\x9c\xf0\x9f\x98\x82'
p136
aS'i jacked you r scranton sweatshirt \xf0\x9f\x98\x81'
p137
aS'i miss you i miss your smile'
p138
aS'gotta love'
p139
aS'the people that help you through hard times truly care'
p140
aS'lol so true'
p141
aS'missing the good old days'
p142
aS'idek whats going on anymore'
p143
aS'through all the painful times there is always someone there for you'
p144
aS'be thankful for what you have and do what you can'
p145
asS'2013_45'
p146
(lp147
S'money literally just fell out of my shirt what'
p148
aS'nope defiantly not'
p149
aS'yeahhh i guess i should'
p150
aS'i dont even know'
p151
aS'cuz im sorta talking to someone'
p152
aS'ummmm nahh not yet'
p153
aS'i literally took a 3hr nap today how am i still tired'
p154
aS'save some for me \xf0\x9f\x98\x8d\xf0\x9f\x98\x8d\xf0\x9f\x98\x98'
p155
aS'nap time\xf0\x9f\x91\x8d\xf0\x9f\x98\xb4'
p156
aS'its been a good break thank god it isnt over yet'
p157
aS'i cant promise that things will be perfect but i swear ill never leave'
p158
aS'sometimes i just wanna tell you everythinghow i feel about you how much you mean to mehow much i care about you and h\xe2\x80\xa6'
p159
aS'your like my great great great great great great great great great great great great aunt'
p160
aS'\xe2\x80\x9cin three words i can sum up everything ive learned about life it goes on\xe2\x80\x9d'
p161
aS'what brownies take 2 hrs to cook and still dont turn out right'
p162
aS'finally watching mean girls'
p163
aS'your always on my mind'
p164
aS'im always in the mood for a smoothie'
p165
aS'dont be so picky then you can surprise yourself and be happy'
p166
aS'ummm what '
p167
aS'exactly \xf0\x9f\x98\x98'
p168
aS'last day of school then break\xf0\x9f\x91\x8c'
p169
aS'stay strong make them wonder how youre still smiling'
p170
aS'thanks \xf0\x9f\x91\x8c'
p171
aS'nothing is impossible the word itself says \xe2\x80\x9ci\xe2\x80\x99m possible\xe2\x80\x9d'
p172
aS'of course the alarm goes off now'
p173
asS'2013_48'
p174
(lp175
S'lol everyones tweeting about the amas and im just like im in bed lazyass'
p176
asS'2013_37'
p177
(lp178
S'my past is my past ive made mistakes but i have learned from them too'
p179
aS'why so much drama'
p180
aS'guns are ment to poke people'
p181
aS'you cant have a tiger'
p182
aS'of course i actually get up on time on the weekend'
p183
aS'i am having leg pain \xf0\x9f\x98\xa9'
p184
aS'i am so confused'
p185
aS'so driving in this storm'
p186
aS'and its back'
p187
aS'mr knott its time to go home'
p188
aS'its so sketchy in here'
p189
aS'so the power at rhs went out'
p190
aS'baby im here for you'
p191
aS'when you get that text that you cant help smiling from gt'
p192
aS'heres to everyone who was in 911 and everyone who survived'
p193
aS'hahaha volleyball  we need to hang out'
p194
aS'crying  releases stress hormones which is why you feel better after crying\xe2\x80\x9d this is why im so stressed cus i dont cry'
p195
aS'to write love on your wrist'
p196
aS'im done'
p197
aS'first tweet on my new twitter cus the old one was stupid'
p198
asS'2013_39'
p199
(lp200
S'perfect day tomorrowor today i guess mall soccer game backwoods \xe2\x98\xba\xef\xb8\x8f'
p201
aS'only i would get floor burn on my hip veebsprobs'
p202
aS'at least tomorrow is friday'
p203
aS'i love my friends and family you really mean the world to me \xe2\x9d\xa4\xef\xb8\x8f\xe2\x9d\xa4\xef\xb8\x8f'
p204
aS'what you never hear anyone say yay homework'
p205
aS'most tweeted thing im done'
p206
aS'saying we slaughtered them would be an understatement rich wood jv'
p207
aS'most stressful game ever'
p208
aS'gonna kill the girls from paramus who say behind me you lost bake your cake after you win'
p209
aS'killed it jv so proud rich wood'
p210
aS'today turned out pretty great'
p211
asS'2013_38'
p212
(lp213
S'hahaha love you girl '
p214
aS'i want to be'
p215
aS'crying is good for your health  flushing unhealthy bacteria out of your body strengthening the immune system and relieving stre\xe2\x80\xa6'
p216
aS'on my way to my brother'
p217
aS'why are there so many motorcycles'
p218
aS'time to sleep'
p219
aS'should i give up or should i just keep chasing pavements'
p220
aS'you ok'
p221
aS'stop changing the length of time just pick one and stay'
p222
aS'ok so now i have to wait 52 hours'
p223
aS'i feel terrible and im so cold'
p224
aS'im sick'
p225
aS'ok good '
p226
aS'awwww now im all alone '
p227
aS'miss you babe \xf0\x9f\x98\x98'
p228
as.