(dp0
S'2013_43'
p1
(lp2
S'closeupforeversummer lets enjoy this moment ughh dami na ng p\xe2\x80\xa6'
p3
aS'ui sama niyo nmn ako jan'
p4
aS'closeupforeversummer summer is love lt3'
p5
aS'yah '
p6
aS'closeupforeversummer summer is love lt3'
p7
aS'closeupforeversummer summer is love lt3'
p8
aS'closeupforeversummer summer is love lt3'
p9
aS'closeupforeversummer summer is love '
p10
aS'closeupforeversummer summer is love lt3'
p11
aS'closeupforeversummer summer is love lt3'
p12
aS'closeupforeversummer summer is love lt3'
p13
aS'closeupforeversummer summer is love lt3'
p14
aS'closeupforeversummer summer is love lt3'
p15
aS'closeupforeversummer summer is love lt3'
p16
aS'closeupforeversummer summer is love lt3'
p17
aS'closeupforeversummer summer is coming lets party '
p18
aS'closeupforeversummer summer is coming lets party '
p19
aS'closeupforeversummer let me won pls my friends are going there except me give me free ticxpls'
p20
aS'yaaa why'
p21
aS'closeupforeversummer summer is love '
p22
aS'closeupforeversummer summer is love'
p23
aS'closeupforeversummer summer is love lt3'
p24
aS'closeupforeversummer summer is love lt3'
p25
aS'closeupforeversummer summer is love lt3'
p26
aS'closeupforeversummer summer is love'
p27
aS'closeupforeversummer summer is love'
p28
aS'closeupforeversummer summer is love'
p29
aS'i want  plsss'
p30
aS'want to get closer than ever we are giving away free vipgold tickets to closeupforeversummer so keep those tweets coming\xe2\x80\xa6'
p31
aS'closeupforeversummer summer is love'
p32
aS'closeupforeversummer summer is love'
p33
aS'closeupforeversummer summer is love lt3'
p34
aS'closeupforeversummer summer is love'
p35
aS'closeupforeversummer summer is love'
p36
aS'closeupforeversummer summer is love'
p37
aS'closeupforeversummer summer is love'
p38
aS'closeupforeversummer summer is love'
p39
aS'closeupforeversummer help me get through this lt3'
p40
aS'closeupforeversummer i would love to share this to you'
p41
aS'closeupforeversummer lets party'
p42
aS'closeupforeversummer i would love to share this to you'
p43
aS'closeupforeversummer yeaaaah this is it gurl '
p44
aS'closeupforeversummer celebrate with us '
p45
aS'closeupforeversummer leggo  party2'
p46
aS'closeupforeversummer lets party'
p47
aS'closeupforeversummer lets enjoy this moment'
p48
aS'closeupforeversummer we wont stop '
p49
aS'closeupforeversummer we wont give up untill we win'
p50
aS'closeupforeversummer sugod lng ng sugod'
p51
aS'closeupforeversummer go lng ng go'
p52
aS'closeupforeversummer'
p53
aS'ahh okay po gnun po tlga sa milyonmilyong pumila para magaudition isa lng po yung kukunin nila'
p54
aS'help rt kita menjual baju rajut dan hoodie berkualitas dan murah check fav ya'
p55
aS'san po kayo nagaudition  sa davao ba'
p56
aS'closeupforeversummer'
p57
aS'closeupforeversummer'
p58
aS'closeupforeversummer'
p59
aS'closeupforeversummer'
p60
aS'closeupforeversummer'
p61
aS'closeupforeversummer'
p62
aS'closeupforeversummer'
p63
aS'closeupforeversummer'
p64
aS'closeupforeversummer'
p65
aS'closeupforeversummer'
p66
aS'closeupforeversummer'
p67
aS'closeupforeversummer'
p68
aS'closeupforeversummer'
p69
aS'closeupforeversummer'
p70
aS'closeupforeversummer'
p71
aS'closeupforeversummer'
p72
aS'closeupforeversummer'
p73
aS'closeupforeversummer'
p74
aS'closeupforeversummer'
p75
aS'closeupforeversummer'
p76
aS'closeupforeversummer'
p77
aS'closeupforeversummer'
p78
aS'closeupforeversummer'
p79
aS'closeupforeversummer'
p80
aS'closeupforeversummer'
p81
aS'closeupforeversummer'
p82
aS'closeupforeversummer'
p83
aS'closeupforeversummer'
p84
aS'closeupforeversummer'
p85
aS'closeupforeversummer'
p86
aS'closeupforeversummer'
p87
aS'closeupforeversummer'
p88
aS'yeaaa  go for the win gurl'
p89
aS'ou masaya yan ksi party2'
p90
aS' go iflood na yang closeupforeversummer'
p91
aS'its not a summer party if youre alone which is why its awesome that tickets to closeupforeversummer are buy 1 take 1\xe2\x80\xa6'
p92
aS'ayy sge2 thank you '
p93
aS'ou ahahaxd nakakatwa nga yan eeh sya pa tlga nagsabi ng selfie nahihiya ksi ako uiii psa mo skin url ng friend mo'
p94
aS'ahahaha thanks c lng yung maganda  nadamay lng ako sa ganda nya d'
p95
aS'tpos na gurl '
p96
aS'pasend ng url fb ng friend mo kagabi'
p97
aS'na send ko na '
p98
aS'add moko sa'
p99
aS''
p100
aS'sge'
p101
aS'uiii upload mo ang picx'
p102
aS'your welcome apple pie  '
p103
aS'closeupforeversummer'
p104
aS'closeupforeversummer'
p105
aS'closeupforeversummer'
p106
aS'closeupforeversummer'
p107
aS'closeupforeversummer'
p108
aS'closeupforeversummer'
p109
aS'closeupforeversummer'
p110
aS'closeupforeversummer'
p111
aS'closeupforeversummer'
p112
aS'closeupforeversummer'
p113
aS'closeupforeversummer'
p114
aS'closeupforeversummer'
p115
aS'closeupforeversummer'
p116
aS'closeupforeversummer'
p117
aS'closeupforeversummer'
p118
aS'closeupforeversummer'
p119
aS'closeupforeversummer'
p120
aS'closeupforeversummer'
p121
aS'closeupforeversummer'
p122
aS'closeupforeversummer'
p123
aS'closeupforeversummer'
p124
aS'closeupforeversummer'
p125
aS'closeupforeversummer'
p126
aS'closeupforeversummer'
p127
aS'closeupforeversummer'
p128
aS'closeupforeversummer'
p129
aS'closeupforeversummer'
p130
aS'closeupforeversummer'
p131
aS'closeupforeversummer'
p132
aS'closeupforeversummer'
p133
aS'closeupforeversummer'
p134
aS'closeupforeversummer'
p135
aS'closeupforeversummer'
p136
aS'closeupforeversummer'
p137
aS'closeupforeversummer'
p138
aS'closeupforeversummer'
p139
aS'closeupforeversummer'
p140
aS'closeupforeversummer'
p141
aS'closeupforeversummer'
p142
aS'closeupforeversummer'
p143
aS'closeupforeversummer'
p144
aS'closeupforeversummer'
p145
aS'closeupforeversummer'
p146
aS'closeupforeversummer'
p147
aS'closeupforeversummer'
p148
aS'closeupforeversummer'
p149
aS'closeupforeversummer'
p150
aS'closeupforeversummer'
p151
aS'closeupforeversummer'
p152
aS'closeupforeversummer'
p153
aS'closeupforeversummer'
p154
aS'closeupforeversummer'
p155
aS'closeupforeversummer'
p156
aS'closeupforeversummer'
p157
aS'closeupforeversummer'
p158
aS'closeupforeversummer'
p159
aS'closeupforeversummer'
p160
aS'closeupforeversummer'
p161
aS'closeupforeversummer'
p162
aS'closeupforeversummer'
p163
aS'closeupforeversummer'
p164
aS'closeupforeversummer'
p165
aS'closeupforeversummer'
p166
aS'closeupforeversummer'
p167
aS'closeupforeversummer'
p168
aS'closeupforeversummer'
p169
aS'closeupforeversummer'
p170
aS'closeupforeversummer'
p171
aS'closeupforeversummer'
p172
aS'closeupforeversummer'
p173
aS'closeupforeversummer'
p174
aS'closeupforeversummer'
p175
aS'closeupforeversummer'
p176
aS'closeupforeversummer'
p177
aS'closeupforeversummer'
p178
aS'closeupforeversummer'
p179
aS'closeupforeversummer'
p180
aS'closeupforeversummer'
p181
aS'closeupforeversummer'
p182
aS'closeupforeversummer'
p183
aS'closeupforeversummer'
p184
aS'closeupforeversummer'
p185
aS'closeupforeversummer'
p186
aS'closeupforeversummer'
p187
aS'closeupforeversummer'
p188
aS'closeupforeversummer'
p189
aS'closeupforeversummer'
p190
aS'closeupforeversummer'
p191
aS'closeupforeversummer'
p192
aS'closeupforeversummer'
p193
aS'closeupforeversummer'
p194
aS'closeupforeversummer'
p195
aS'closeupforeversummer'
p196
aS'closeupforeversummer'
p197
aS'closeupforeversummer'
p198
aS'closeupforeversummer'
p199
aS'closeupforeversummer summer is us lets make it happen '
p200
aS'closeupforeversummer summer is us lets make it happen '
p201
aS'closeupforeversummer summer is us lets make it happen '
p202
aS'closeupforeversummer lets witness the freshnest beach party ever in the city'
p203
aS'closeupforeversummer lets witness the freshnest beach party ever in the city '
p204
aS'the 10 followers w the most tweets using the attached photo amp the hashtag closeupforeversummer win vipgold tickets'
p205
aS'hndi gabi na sya dumating bkt'
p206
aS'good morning everyone  today is a brand new day to show what the lord has blessed us with allforyourgreaterglory go\xe2\x80\xa6'
p207
aS'yun na yun sama ka mamaya ha'
p208
aS'eeeh pareho kami ng iniisip eh di pa din ksi ako nakapanuod ng shes the one'
p209
aS'sama '
p210
aS'tae xd parang gets ko na cla nlng papuntahin ntn sa phfw tpos tayu sa moa'
p211
aS'ehdiba 2 lang yung ticx mo sa moa di qu gets 3'
p212
aS'nanalo ka din sa '
p213
aS'ilan ba yung ticx jay'
p214
aS'pwede po parewind ng performance hndi ko pa ksi napanuod para tuloy akong nalugi ng hndi ko napanuod performance niyo lt'
p215
aS'hindi ko napanuod  bad waaaa'
p216
aS'pwede po bang irewind ang performance nila itsshowtime gusto ko po mapanuod '
p217
aS'napanuod mo 3'
p218
aS'im inlove lt3'
p219
aS'nag dm na'
p220
aS'nyeee p okay lng yun watcher lng ako xd'
p221
aS'ahahaha luko hndi ako nainom eeh  ahahaha'
p222
aS'invite niyo rin ksi ako minsan pag magbonding kayo nila  para masaya '
p223
aS'ahahaha xd di biro lng namiss ko kayo kayo nila jesper hope to see you soon '
p224
aS'gagi ahaha ou namiss kita pero joke lng fo yun  kelangan sa buhay ehh para ma explore ko din yung world '
p225
aS'naman  matagal na kita di nakikita ah  namiss kita konti p ahaha'
p226
aS'ahaha your welcome joaquin  p'
p227
aS'yehey edi punta na tayo ngayung thursday ba'
p228
aS'wee ilang tickets baka para sayo lng'
p229
aS'hi po wala pa po akong natatanggap na invite para sa phfw ako po si rapunzel yap yung isa sa mga nanalo 2nd accout ko po to'
p230
aS'rt if youre excited to see amp webisode on the smmensfashion exclusive app in 1\xe2\x80\xa6'
p231
aS'wala pa nga tayung confirmation dun sa sm eeh '
p232
aS'may vip ticx ka'
p233
aS'ahahah nakiusap tlga eeeh '
p234
aS'ano po to'
p235
aS'ahahahaha  invite moko plssssssssssss bored sa bahay lt'
p236
aS'chuke lng yun hndi nmn ako malandi eh ahahaha d tsaka sanay ako lalake kasama ko d'
p237
aS'aah invite mo rin kaya ako minsan pag magbonding2 kayo'
p238
aS'san to gsto ko makita cla joseph '
p239
aS'your welcome po  '
p240
aS'hi wala pa pong email na narerecieve yung friend ko gt thanks isa po ako sa nanalo gt'
p241
aS'whats this'
p242
aS'bryansam lt3'
p243
aS'the awkward moment when rip facebook is trending on twitter  getwellsoonfacebook'
p244
aS'getwellsoonfacebook'
p245
aS'hindi dapat rip facebook ang dapat getwellsoonfacebook  di naman deads yan babalik yan mamaya  haha'
p246
aS'kpop fans  sino gusto ng free super junior concert tickets on oct 24  rt therealunli realunli'
p247
aS'i want kuya jam pls pick me'
p248
aS'ready na ba ang mga kpop fanatics  rt free super junior concert tickets therealunli'
p249
aS'hi wala pa kong email na narereceive kung pano makuha yung invite for phfw gt ito po yung isang account ko'
p250
aS'nakakapagod mag excersie wooooooh 3'
p251
aS'im hungry 3'
p252
aS'follow smshoesandbags on facebook and get a chance to win a'
p253
aS'follow smshoesandbags on facebook and get a chance to win a'
p254
aS'follow smshoesandbags on facebook and get a chance to win a'
p255
aS'nagbago ako ng account '
p256
asS'2013_44'
p257
(lp258
S'retweet this follow me and everyone else who retweets this to gain 100 followers fast teamfollowback ifbgaintrai\xe2\x80\xa6'
p259
aS'i see family bonding '
p260
aS'san ba ang punta mo eneng '
p261
aS'idonate na yan '
p262
aS'sa sobrang dami ng damit mo di mo na tuloy alam kung anong isusuot mo hay'
p263
aS'get lost yung mga lalakeng paasa at manloloko errrg 3'
p264
aS'danielpadillaroadtour november 16 8pm at island cove hotel and leisure park with kathryn khalil and parking 5  htt\xe2\x80\xa6'
p265
aS'ride on plane for free the best thing in life when it is free living  closeupforeversummer'
p266
aS'a ride on plane for free the best thing in life when it is free living  closeupforeversummer'
p267
aS'a ride on plane for free the best thing in life when it is free living  closeupforeversummer'
p268
aS'a ride on plane for free the best thing in life when it is free living  closeupforeversummer'
p269
aS'ride on plane for free the best thing in life when it is free living  closeupforeversummer'
p270
aS'a ride on plane for free the best thing in life when it is free living  closeupforeversummer'
p271
aS'a ride on plane for free the best thing in life when it is free living  closeupforeversummer'
p272
aS'best summer throwback was a trip from davao for free the best thing in life when it is free living  closeupforeversummer'
p273
aS'best summer throwback was a trip from davao for free the best thing in life when it is free living  closeupforeversummer'
p274
aS'wuii'
p275
aS'seriouslymy summer was so fantastic thats why i dont want to miss the freshnest beach party ever closeupforeversummer'
p276
aS'im giving away a pair of gold tickets to forever summer\xe2\x98\x80\xef\xb8\x8ftell me your fave summer throwback w the hashtag closeupforevers\xe2\x80\xa6'
p277
aS'woot woot \xe2\x98\x80\xef\xb8\x8f rt are you ready to give away free gold tickets to closeupforeversummer '
p278
aS'and\xe2\x98\x85rt\xe2\x98\x85if\xe2\x98\x85you\xe2\x98\x85want\xe2\x98\x85followers\xe2\x98\x85happy8thanniversarysuperjuniorawalnovemberwithcumers'
p279
aS'and\xe2\x98\x85rt\xe2\x98\x85if\xe2\x98\x85you\xe2\x98\x85want\xe2\x98\x85followers\xe2\x98\x85happy8thanniversarysuperjuniorawalnovemberwithcumersz'
p280
aS'8 days till closeupforeversummer remember that tickets are buy 1 take 1 guys '
p281
aS'just rt this guys  \xe2\x80\xa6'
p282
aS'bahala na si batman'
p283
aS'ahahaha  pagnanalo ka sama moko ha'
p284
aS'lets party baby closeupforeversummer'
p285
aS'wow sumasali na c jesper sa ganyan'
p286
aS'c benedict kaklase nya dati'
p287
aS'wala eh madugas tong closeup pakshit may favoritism eh hndi ako nanalo lt'
p288
aS'closeupforeversummer every summer has a story mine last forever lt3let us make it happen'
p289
aS'closeupforeversummer every summer has a story mine last forever lt3let us make it happen'
p290
aS'closeupforeversummer every summer has a story mine last forever lt3let us make it happen'
p291
aS'closeupforeversummer every summer has a story mine last forever lt3let us make it happen'
p292
aS'closeupforeversummer every summer has a story mine last forever lt3 let us make it happen'
p293
aS'closeupforeversummer every summer has a story mine last forever lt3 let us make it happen'
p294
aS'closeupforeversummer every summer has a story mine last forever lt3 let us make it happen'
p295
aS'closeupforeversummer summer has a story mine last forever lt3 let us make it happen'
p296
aS'closeupforeversummer every summer has a story mine last forever lt3 let us make it happen'
p297
aS'closeupforeversummer every summer has a story mine last forever lt3 let us make it happen'
p298
aS'sge tulungan moko '
p299
aS'waaa antay ka lng pagnanalo ako  makakapunta tayong dalawa  pray mo na mapili ako'
p300
aS'push pa yan  tiwala lng kay god'
p301
aS'closeupforeversummer every summer has a story mine last forever lt3'
p302
aS'closeupforeversummer every summer has a story mine last forever lt3'
p303
aS'closeupforeversummer every summer has a story mine last forever lt3'
p304
aS'closeupforeversummer every summer has a story mine last forever lt3'
p305
aS'closeupforeversummer every summer has a story mine last forever lt3'
p306
aS'closeupforeversummer every summer has a story mine last forever lt3'
p307
aS'closeupforeversummer every summer has a story mine last forever lt3'
p308
aS'closeupforeversummer every summer has a story mine last forever lt3'
p309
aS'closeupforeversummer every summer has a story mine last forever lt3'
p310
aS'leznupar yap'
p311
aS'closeupforeversummer every summer has a story mine last forever lt3'
p312
aS'closeupforeversummer every summer has a story mine last forever lt3'
p313
aS'closeupforeversummer every summer has a story mine last forever lt3'
p314
aS'closeupforeversummer every summer has a story mine last forever lt3'
p315
aS'closeupforeversummer every summer has a story mine last forever lt3'
p316
aS'rt for 45 freefollow must be following though im checking '
p317
aS'closeupforeversummer every summer has a story mine last forever lt3'
p318
aS'closeupforeversummer every summer has a story mine last forever lt3'
p319
aS'closeupforeversummer every summer has a story mine last forever lt3'
p320
aS'closeupforeversummer every summer has a story mine last forever lt3'
p321
aS'closeupforeversummer every summer has a story mine last forever lt3'
p322
aS'closeupforeversummer every summer has a story mine last forever lt3'
p323
aS'closeupforeversummer every summer has a story mine last forever lt3'
p324
aS'closeupforeversummer every summer has a story mine last forever lt3'
p325
aS'closeupforeversummer summer has a story mine last forever lt3'
p326
aS'closeupforeversummer every summer has a story mine last forever lt3'
p327
aS'closeupforeversummer every summer has a story mine last forever lt3'
p328
aS'closeupforeversummer every summer has a story mine last forever lt3'
p329
aS'closeupforeversummer every summer has a story mine last forever lt3'
p330
aS'closeupforeversummer every summer has a story mine last forever lt3'
p331
aS'closeupforeversummer min every summer has a story mine last forever lt3'
p332
aS'closeupforeversummer every summer has a story mine last forever lt3'
p333
aS'closeupforeversummer every summer has a story mine last forever lt3'
p334
aS'closeupforeversummer every summer has a story mine last forever lt3'
p335
aS'closeupforeversummer every summer has a story mine last forever lt3'
p336
aS'closeupforeversummer every summer has a story mine last forever lt3'
p337
aS'closeupforeversummer every summer has a story mine last forever lt3'
p338
aS'closeupforeversummer every summer has a story mine last forever lt3'
p339
aS'closeupforeversummer every summer has a story mine last forever lt3'
p340
aS'thank you lord '
p341
aS'closeupforeversummer every summer has a story mine last forever lt3'
p342
aS'closeupforeversummer every summer has a story mine last forever lt3'
p343
aS'closeupforeversummer every summer has a story mine last forever lt3'
p344
aS'closeupforeversummer every summer has a story mine last forever lt3'
p345
aS'closeupforeversummer every summer has a story mine last forever lt3'
p346
aS'closeupforeversummer every summer has a story mine last forever lt3'
p347
aS'closeupforeversummer every summer has a story mine last forever lt3'
p348
aS'closeupforeversummer every summer has a story mine last forever lt3'
p349
aS'closeupforeversummer every summer has a story mine last forever lt3'
p350
aS'closeupforeversummer every summer has a story mine last forever lt3'
p351
aS'closeupforeversummer every summer has a story mine last forever lt3'
p352
aS'closeupforeversummer every summer has a story mine last forever lt3'
p353
aS'closeupforeversummer every summer has a story mine last forever lt3'
p354
aS'closeupforeversummer every summer has a story mine last forever lt3'
p355
aS'closeupforeversummer every summer has a story mine last forever lt3'
p356
aS'closeupforeversummer every summer has a story mine last forever lt3'
p357
aS'closeupforeversummer every summer has a story mine last forever lt3'
p358
aS'closeupforeversummer every summer has a story mine last forever lt3'
p359
aS'closeupforeversummer every summer has a story mine last forever lt3'
p360
aS'closeupforeversummer every summer has a story mine last forever lt3'
p361
aS'closeupforeversummer every summer has a story mine last forever lt3'
p362
aS'closeupforeversummer every summer has a story mine last forever lt3'
p363
aS'closeupforeversummer every summer has a story mine last forever lt3'
p364
aS'closeupforeversummer every summer has a story mine last forever lt3'
p365
aS'closeupforeversummer every summer has a story mine last forever lt3'
p366
aS'closeupforeversummer every summer has a story mine last forever lt3'
p367
aS'closeupforeversummer every summer has a story mine last forever lt3'
p368
aS'closeupforeversummer every summer has a story mine last forever lt3'
p369
aS'closeupforeversummer every summer has a story mine last forever lt3'
p370
aS'closeupforeversummer every summer has a story mine last forever lt3'
p371
aS'closeupforeversummer every summer has a story mine last forever lt3'
p372
aS'closeupforeversummer every summer has a story mine last forever lt3'
p373
aS'closeupforeversummer every summer has a story mine last forever lt3'
p374
aS'closeupforeversummer every summer has a story mine last forever lt3'
p375
aS'closeupforeversummer every summer has a story mine last forever lt3'
p376
aS'closeupforeversummer join me as we celebrate the freshnest beach party ever'
p377
aS'closeupforeversummer join me as we celebrate the freshnest beach party ever'
p378
aS'closeupforeversummer join me as we celebrate the freshnest beach party ever'
p379
aS'closeupforeversummer join me as we celebrate the freshnest beach party ever'
p380
aS'closeupforeversummer join me as we celebrate the freshnest beach party ever'
p381
aS'closeupforeversummer join me as we celebrate the freshnest beach party ever'
p382
aS'closeupforeversummer join me as we celebrate the freshnest beach party ever'
p383
aS'closeupforeversummer join me as we celebrate the freshnest beach party ever'
p384
aS'closeupforeversummer join me as we celebrate the freshnest beach party ever'
p385
aS'closeupforeversummer join me as we celebrate the freshnest beach party ever'
p386
aS'closeupforeversummer lets celebrate and party the freshnest beach party ever'
p387
asS'2013_45'
p388
(lp389
S'i want to win live in manila concert tickets odysseyonerepublicmanila 13'
p390
aS'i want to win live in manila concert tickets odysseyonerepublicmanila 12'
p391
aS'i want to win live in manila concert tickets odysseyonerepublicmanila 11'
p392
aS'i want to win live in manila concert tickets odysseyonerepublicmanila 10'
p393
aS'i want to win live in manila concert tickets odysseyonerepublicmanila 9'
p394
aS'i want to win live in manila concert tickets odysseyonerepublicmanila 8'
p395
aS'i want to win live in manila concert tickets odysseyonerepublicmanila 7'
p396
aS'i want to win live in manila concert tickets odysseyonerepublicmanila 6'
p397
aS'i want to win live in manila concert tickets odysseyonerepublicmanila 5'
p398
aS'i want to win live in manila concert tickets odysseyonerepublicmanila 4'
p399
aS'i want to win live in manila concert tickets odysseyonerepublicmanila 3'
p400
aS'i want to win live in manila concert tickets odysseyonerepublicmanila 2'
p401
aS'i want to win live in manila concert tickets odysseyonerepublicmanila 1'
p402
aS'i want to win live in manila concert tickets odysseyonerepublicmanila'
p403
aS'i want to win live in manila concert tickets odysseyonerepublicmanila'
p404
aS'uiii sali2 ka dun sa closeup may bago clang promo'
p405
aS'do you want to be the one rt this to be my special girl on nov 8 at the kiosk in trinoma enriqueforyot\xe2\x80\xa6'
p406
aS'heyyy do you want to be the one rt this to be my special girl on nov 8 at the kiosk in trinoma enriqu\xe2\x80\xa6'
p407
aS'sitting like a boss d'
p408
aS'ngee ganyan ka nmn eeh porket ba may mga bffs ka na ge lt'
p409
aS'medyo emotera lng nmn yung mga tweets mo'
p410
aS'anyare apple pie'
p411
aS'no im available always bur it seems like always a wrong timing'
p412
aS'ou nga eeh meron pero silver nga lng i think 500 why u wanna join us bili na lets have some party'
p413
aS'oh'
p414
aS'my best fans via'
p415
aS'ayun nga pupunta ako'
p416
aS'di uso ang magonline sa fb'
p417
aS'wuiii '
p418
aS'thank you po such a blessing godbless'
p419
aS'winner closeupforeversummer 1 pair of gold tickets please follow us and wait for our dm con\xe2\x80\xa6'
p420
aS'pa follow back po thank you'
p421
aS'thank you nafollow ko na po kayo'
p422
aS'congratz dear see u there closeupforeversummer'
p423
as.