(dp0
S'2014_36'
p1
(lp2
S'thats how i look when im hella gesuip though \xf0\x9f\x98\x82 spiritanimal'
p3
aS'it might have been me'
p4
aS'if my hand falls off just remember that i told you the fucking bee stung me'
p5
aS'i think a bee stung me im allergic to bee stings omg this is not a drill'
p6
aS'lets have a moment of silence for their jawlines'
p7
aS'i havent even read through my oral for moderation'
p8
aS'her eye makeup is life \xf0\x9f\x98\xbb'
p9
aS'nah lekker'
p10
aS'and i started exams with clear skin and now theres a mountain range of pimples on a forehead \xf0\x9f\x92\xa9'
p11
aS'but on a serious note i started exams with long nails and now my nails are history \xf0\x9f\x92\xa9'
p12
aS'probably my extended family or something x'
p13
aS'maths is making me so emo god let i stop'
p14
aS'you promised me one last dance and now youre leaving nah lekker \xf0\x9f\x91\xbd'
p15
aS'im probably gonna be rude to anyone that talks to me rn'
p16
aS'i dont get why it bothers me when we dont talk \xf0\x9f\x92\x80'
p17
aS'last nights shenanigans'
p18
aS'probably'
p19
aS'i feel like going for a run \xf0\x9f\x92\x80 i never run \xf0\x9f\x92\x80'
p20
aS'someone come with me to claremont library tomorrow \xf0\x9f\x99\x8a'
p21
aS'im actually so fucking moody'
p22
aS'lazy sunday \xf0\x9f\x91\xbd'
p23
aS'im starting to stress so badly rn \xf0\x9f\x98\xad\xf0\x9f\x98\xad\xf0\x9f\x98\xad'
p24
aS'ive been trying to study for the past 2 hours \xf0\x9f\x98\xa3'
p25
aS'this video of this people making out has been taking over my newsfeed \xf0\x9f\x99\x8a'
p26
aS'when your parents make you call to make your own appointments'
p27
aS'im so fucking unmotivated'
p28
aS'maths makes me want to vomit tbh'
p29
aS'society be yourself society not like that'
p30
aS'me i want to lose weight me i want skinny legs me i want a flat stomach me i want to be thin me sees mcdonalds \xe2\x80\xa6'
p31
aS'play with my hair so i know its real \xf0\x9f\x92\x86'
p32
aS'youre so pretty \xf0\x9f\x98\x8d please teach me your ways look really smet most of the time and really nice wh\xe2\x80\xa6'
p33
aS'youre so pretty \xf0\x9f\x98\x8d please teach me your ways '
p34
aS'i keep suffering from such bad headaches \xf0\x9f\x98\xad swear that theres something wrong'
p35
aS'\xf0\x9f\x8c\x9a'
p36
aS'textbooks are very useful for many things such as a nice hard flat surface to paint your nails on'
p37
aS'text a girl something stupid and it takes 42 seconds for three of her friends to get the screenshot'
p38
aS'boys this is how you earn points'
p39
aS'on public transportation so next time we take a train we gott\xe2\x80\xa6'
p40
aS'i just wrote my last lo exam passed my accounting test and chad liked my insta post \xe2\x9c\x8c\xef\xb8\x8f today is going to be a good day \xf0\x9f\x99\x8c'
p41
aS'youre too special \xe2\x9c\x8c\xef\xb8\x8f'
p42
aS'im not into exercise if god wanted me to bend over he would put diamonds on the floor'
p43
aS'but joan rivers is literally the definition of being too fab to give a damn \xf0\x9f\x91\x8f'
p44
aS'joan rivers was such a boss \xf0\x9f\x99\x8c ripjoanrivers'
p45
aS'a head message will be great right about now'
p46
aS'what is this i hear of neymar being brazils nt captain \xf0\x9f\x99\x8c'
p47
aS'when bae is being selfish'
p48
aS'i dont really care who you came with unless you got a couple of friends that look like you \xf0\x9f\x92\x83'
p49
aS'baby lets try a new thing'
p50
aS'\xf0\x9f\x91\xa7'
p51
aS'i still sleep with a baby blanket judge me'
p52
aS'\xf0\x9f\x8c\x9a preach'
p53
aS'usher songs make me feel some kind of way \xf0\x9f\x92\x83'
p54
aS'gotze is so fucking cute \xf0\x9f\x98\x8d'
p55
aS'watching soccer with my daddy is the best ever \xe2\x9c\x8c\xef\xb8\x8f'
p56
aS'\xf0\x9f\x99\x8c\xf0\x9f\x99\x8c\xf0\x9f\x99\x8c\xf0\x9f\x99\x8c'
p57
aS'youre slowly losing interest lekker'
p58
aS'my future boyfriend can show up now'
p59
aS'life is better with icecream \xf0\x9f\x8d\xa6'
p60
aS'too fab to give a damn'
p61
aS'where has the night gone to i literally just came from school 10 minutes ago'
p62
aS'concentration span of 5 seconds'
p63
aS'when in doubt say uniform rock structure snaps fingers in z formation'
p64
aS'when in doubt say dendritic amirightoramiright'
p65
aS'i have a feeling that im not sleeping tonight lekker'
p66
aS'such bathos \xf0\x9f\x8c\x9a'
p67
aS'its bromance law \xe2\x9c\x8c\xef\xb8\x8f'
p68
aS'bros before hoes soz bae'
p69
aS'ive always wanted someone to call me boo \xe2\x9c\x8c\xef\xb8\x8f why are you stalking me \xf0\x9f\x91\x80'
p70
aS'best bro around \xf0\x9f\x91\x8c'
p71
aS'studying makes me moody af \xf0\x9f\x98\xb6'
p72
aS'who else gets cute texts like this \xf0\x9f\x98\x8d'
p73
aS'im gone \xe2\x9c\x8c\xef\xb8\x8fyou study dat rivers \xf0\x9f\x8f\x8a'
p74
aS'pretty sure your break is over and you need to study \xf0\x9f\x98\x82'
p75
aS'anythinggt exams \xf0\x9f\x98\xad'
p76
aS'sometimes i come up with the funniest pick up lines but some people will take me serious and noooo \xf0\x9f\x98\x82\xf0\x9f\x98\x82'
p77
aS'way better than this kak \xf0\x9f\x98\x94'
p78
aS'english makes me want to cry literal tears \xf0\x9f\x98\xad'
p79
aS'i dont even know what to think anymore'
p80
aS'berocca coffee and monster tonight shall be good \xf0\x9f\x98\x82'
p81
aS'actually made my day thank youuuu \xf0\x9f\x92\x95'
p82
aS'ive been using the word wanker all too often'
p83
asS'2014_37'
p84
(lp85
S'stomach cramps are the fucking worst \xf0\x9f\x98\xa4'
p86
aS'i just drugged myself with painkillers'
p87
aS'idk man im trying so hard to be open minded and give life a chance here'
p88
aS'would i trust you to do so though \xf0\x9f\x98\x82'
p89
aS'can someone please just dry my hair for me \xf0\x9f\x99\x86'
p90
aS'\xf0\x9f\x99\x8b'
p91
aS'reminded me of you'
p92
aS'someone who has the patience for me when im sad is a keeper'
p93
aS'gonna sleep if off xx'
p94
aS'huuuugs'
p95
aS'hug'
p96
aS'i need a hug'
p97
aS'i want out im so over this \xf0\x9f\x98\xad\xf0\x9f\x98\xad\xf0\x9f\x98\xad'
p98
aS'fuck im so over this shit'
p99
aS'\xf0\x9f\x98\x82\xf0\x9f\x98\x82\xf0\x9f\x98\x82'
p100
aS'not all heros wear capes'
p101
aS'love seeing you this sad x'
p102
aS'coutinhos hair game strong \xf0\x9f\x91\x8c and face game \xf0\x9f\x98\x8d'
p103
aS'i just got called my little baby what fuckery is this'
p104
aS'\xf0\x9f\x92\x99\xe2\x9c\x8c\xef\xb8\x8f'
p105
aS'love seeing you so happy rn \xe2\x99\xa1'
p106
aS'go get some tonight you deserve it'
p107
aS'chelsea neymar chelsea neymar chelsea i can only watch one \xf0\x9f\x98\x82'
p108
aS'neymarrrrr again \xf0\x9f\x98\x8d\xf0\x9f\x98\x8d'
p109
aS'neymar \xf0\x9f\x98\x8d'
p110
aS'\xf0\x9f\x92\x99\xf0\x9f\x98\x8d\xf0\x9f\x92\x99'
p111
aS'cant get myself to study \xf0\x9f\x98\xad going to regret not studying'
p112
aS'im 999 sure im the ugly friend'
p113
aS'girls like this are the real mvp \xf0\x9f\x98\x8d\xf0\x9f\x99\x8c straight upppppppp bruh'
p114
aS'on that note im leaving twitter for now'
p115
aS'relationship goals sing old chris brown songs \xf0\x9f\x98\x8d'
p116
aS'baby i know that you thinking bout leaving with me toniiiight\xf0\x9f\x99\x8c\xf0\x9f\x92\x83'
p117
aS'dont you think you should give him up coz he aint worth your love'
p118
aS'tell me whats the definition of love it seems like everybody thinks they figured it out but every time they fall up in it they fall out'
p119
aS'omg old chris brown album playing prepare for some lyrics \xf0\x9f\x98\x8d'
p120
aS'theres something about you thats making me wanna say yo'
p121
aS'oh i dont know what you had planned to do tonight but i just wanna be the one to do you right'
p122
aS'just don\xe2\x80\x99t stop cause you\xe2\x80\x99re the one that i freak with you know my secrets'
p123
aS'i am studying and i can hear the soccer downstairs livingthekaklife'
p124
aS'kinda just like the idea of you'
p125
aS'why does your gf have to be so pretty \xf0\x9f\x98\xad\xf0\x9f\x98\xad'
p126
aS'yes can i get a pumpkin spice latte and you to go pls'
p127
aS'soon guurl \xf0\x9f\x92\x97 gonna get all the anger out \xf0\x9f\x99\x8b'
p128
aS'we are gonna be venting about what makes us sick \xf0\x9f\x98\x82'
p129
aS'wow i really needed to hear this'
p130
aS'i was too lazy to make supper and now im hungry \xf0\x9f\x98\xad'
p131
aS'we need to have a venting session on a day that we are not stressed out x'
p132
aS'crying myself to sleep life is great'
p133
aS'i need a lot of love support and prayers to get me through tomorrow'
p134
aS'everyone has relationship goals but no life goals'
p135
aS'exams make me ugly af \xf0\x9f\x94\xab'
p136
aS'i need someone to wipe my tears '
p137
aS'i havent started accounting yet '
p138
aS'im stressing me in my chops for accounting on friday but im writing consumers tomorrow makes sense'
p139
aS'wtf how are you sleeping \xf0\x9f\x98\xad'
p140
aS'give me motivation please \xf0\x9f\x90\xac'
p141
aS'someone offer to listen to me complain about studying'
p142
aS'i did not know siri could do this retweet to save someones life'
p143
aS'im studying at claremont library and life feels so official rn \xf0\x9f\x91\xb5'
p144
aS'seriously be that guy'
p145
aS'thank you very much for all the birthday messages i feel so happy with them'
p146
aS'muito obrigado a todos que mandaram e ainda est\xc3\xa3o mandando mensagens pelo meu anivers\xc3\xa1rio fiquei muito feliz'
p147
aS'i think i need about 7 shots of vodka'
p148
aS'make me tea and ill love you forever \xf0\x9f\x98\x8d'
p149
aS'i think you need a shave boy'
p150
aS'being a true friend means caring about someone enough to not give up on them even when they have given up on them self'
p151
aS'sad depressed feeling lonely well bitch theres a drake song for that \xf0\x9f\x98\x9b hopethismakesyou\xe2\x80\xa6'
p152
aS'i just wanna cry \xf0\x9f\x98\xaa'
p153
aS'someone needs to force me out of bed'
p154
aS'0 lis to study accounting now \xf0\x9f\x98\xa9'
p155
aS'thanks \xf0\x9f\x91\x8c'
p156
aS'after how long after someone doesnt reply does one ask if something is wrong help'
p157
aS'i just wanna do cute things with you no k'
p158
aS'hey boy youre kinda cute \xe2\x98\xba\xef\xb8\x8f'
p159
aS'one of the many reasons i would date a fan'
p160
aS'give me a mcm'
p161
asS'2014_34'
p162
(lp163
S'tell me what you want'
p164
aS'i thought i was the only apparently not \xf0\x9f\x91\x8f'
p165
aS'more goals \xf0\x9f\x99\x8b'
p166
aS'relationship goals'
p167
aS'i dont get it you said youll never me'
p168
aS'when bae favorites another girl selfie'
p169
aS'gonna miss you too much \xf0\x9f\x98\xad'
p170
aS'hi is mtn mychoice minute 100 a top up or does it run up a bill'
p171
aS'i promise you its not over rated \xf0\x9f\x98\x8ebestthingtohappentomylife'
p172
aS'my biggest fear is that youll be disappointed \xf0\x9f\x98\x94'
p173
aS'soon'
p174
aS'how about you turn 18 first \xf0\x9f\x98\x82'
p175
aS'partyyy \xf0\x9f\x91\xaf\xe2\x9c\x8c\xef\xb8\x8f'
p176
aS'hahahaha \xf0\x9f\x92\x97\xf0\x9f\x92\x90\xf0\x9f\x99\x8b'
p177
aS'but guys when is someone gonna bring me flowers and take me for a drive \xf0\x9f\x99\x8b'
p178
aS'nahh \xe2\x9c\x8c\xef\xb8\x8fhahah'
p179
aS'technically i am a stranger \xf0\x9f\x98\x8f\xf0\x9f\x98\x82'
p180
aS'if you have a sexy face please send me your insta name so i can stalk'
p181
aS'talk to me im bored \xe2\x9c\x8c\xef\xb8\x8f'
p182
aS'every single one of my faves has done the ice bucket challenge \xe2\x9c\x8c\xef\xb8\x8f'
p183
aS'today has been a bad day tbh'
p184
aS'neymars new tattoo though \xf0\x9f\x99\x8a\xf0\x9f\x99\x8b\xf0\x9f\x98\xbb'
p185
aS'probably such a fool for remembering every detail'
p186
aS'best one yet its just a bucket challenge \xf0\x9f\x98\x82\xf0\x9f\x98\x82'
p187
aS'woah woah woah so damn handsome \xf0\x9f\x98\xb6'
p188
aS'ive just bought neymars book and the august issue of gq life seems a bit better \xf0\x9f\x92\x81'
p189
aS'drop me your number \xf0\x9f\x98\x82\xe2\x9c\x8c\xef\xb8\x8f'
p190
aS'that made me laugh \xf0\x9f\x98\xb6 your lameness is working on me \xf0\x9f\x98\x82 but on a serious note save some time for me to vent later \xf0\x9f\x99\x86'
p191
aS'not sure if i need to vent or just need someone to tell me that im being stupid'
p192
aS'i need to vent \xf0\x9f\x8c\xbc'
p193
aS'hate when guys are dicks its not gonna make their dicks any bigger preachitgurl tftd taketheadvice'
p194
aS'what is life without over thinking anyway'
p195
aS'happy birthday to the most beautiful human being \xf0\x9f\x92\x97\xf0\x9f\x92\x97'
p196
aS'ramos though \xf0\x9f\x98\xbb\xf0\x9f\x91\x85\xf0\x9f\x98\xbb\xf0\x9f\x91\x85\xf0\x9f\x98\xbb'
p197
aS'anaconda \xf0\x9f\x98\x90'
p198
aS'who said you cant find love in a club'
p199
aS'estou muito feliz im very happy'
p200
aS'whenever i want to sleep early someone decides to want to have a dmc and im too kind to say that im tired \xf0\x9f\x99\x86'
p201
aS'shakira and pique are my everything goals'
p202
aS'best icebucketchallenge out there'
p203
aS'hope youre having a good day x'
p204
aS'hi \xe2\x9c\x8c\xef\xb8\x8f'
p205
aS'i type every important message in my notes to make sure its what i want to send please tell me that im not the only one \xf0\x9f\x98\xad'
p206
aS'i actually have no right to be sad about this'
p207
aS'the amount of times i get when i first met u i thought you were a bitch is unreal\xe2\x80\x9d'
p208
aS'attention seeking hoe'
p209
aS'im trying to study but the soccer is on \xf0\x9f\x98\xad'
p210
aS'well this has gotta be the longest crush ever'
p211
aS'im done trying so hard'
p212
aS'i just want to get to know you \xf0\x9f\x99\x86'
p213
aS'i feel so stupid for being scared of what other people might think'
p214
aS'the paap is real \xf0\x9f\x98\xb6'
p215
asS'2014_35'
p216
(lp217
S'sleep makes everything better right'
p218
aS'but he was the one friend i actually believed'
p219
aS'sorry if im a terrible friend \xf0\x9f\x98\x94'
p220
aS'swear you like it though \xf0\x9f\x98\x90'
p221
aS'i feel like such a bad friend i cant even talk to you \xf0\x9f\x98\x94'
p222
aS'awwwww \xe2\x9c\x8c\xef\xb8\x8f'
p223
aS'lets spark a new flame'
p224
aS'dat is amazing and a goal you can actually achieve \xf0\x9f\x98\x82\xf0\x9f\x98\x82 got ya back \xf0\x9f\x92\xaf'
p225
aS'did you guys really have to decide this after i put my phone away to go study \xf0\x9f\x98\x82'
p226
aS'yes i see all your my boyfriend is not allowed to tweets and yes i am on to you yoursecretisnotverysecret'
p227
aS'you literally just admitted to loving me cuuute \xf0\x9f\x98\x82\xf0\x9f\x98\x82'
p228
aS'is that you offering'
p229
aS'someone who really loves me will take me to the beach to study \xf0\x9f\x98\x94'
p230
aS'i cannot fathom this geography and its making me moody'
p231
aS'they are so hot \xf0\x9f\x98\x8d ew'
p232
aS'but i just dreamt about a guy that i dont even know \xf0\x9f\x98\x8d'
p233
aS'just woke up to having the best dream ever \xf0\x9f\x98\x8d'
p234
aS'you need a bad boy to blow your mind \xf0\x9f\x92\xa2'
p235
aS'my friend was suppose to say bye to me today wow such a dick'
p236
aS'my daddy pisses me off so much'
p237
aS'my biggest problem is that i look at things that i know will make me sad'
p238
aS'its bad manners to not reply x'
p239
aS'this game is mad come on chelsea\xf0\x9f\x91\x8f\xf0\x9f\x91\x8f\xf0\x9f\x91\x8f'
p240
aS'hello chad \xf0\x9f\x92\x97'
p241
aS'better luck with everything next time \xf0\x9f\x98\x89'
p242
aS'betterlucknexttime'
p243
aS'shame you jinxed everton \xf0\x9f\x98\x82'
p244
aS'chelseaaaa \xf0\x9f\x98\x8d\xf0\x9f\x92\x99'
p245
aS'\xf0\x9f\x92\x99\xf0\x9f\x92\x99\xf0\x9f\x92\x99'
p246
aS'lets try'
p247
aS'i cant study anymore anyone keen for some jolling \xf0\x9f\x99\x8c'
p248
aS'im sure effort is meant to work both ways why do i even bother \xf0\x9f\x98\x94\xf0\x9f\x98\x94'
p249
aS'you make me feel like shit tbh'
p250
aS'where do grandmas and aunties even buy this shit it\xe2\x80\x99s not in stores do they have a dealer who sells to them '
p251
aS'ill be excited when its like one month \xf0\x9f\x98\x94 been waiting too long for you to be 18 \xf0\x9f\x98\xad\xf0\x9f\x98\xad\xf0\x9f\x98\xad'
p252
aS'acting like you dont care when you actually do is not attractive'
p253
aS'when your friends make plans without you you were right \xf0\x9f\x98\x82\xf0\x9f\x98\x82\xf0\x9f\x98\x82'
p254
aS'why am i in bed already \xf0\x9f\x98\x82'
p255
aS'the more i think about you the more i realize that i dont need you in my life \xe2\x9c\x8c\xef\xb8\x8f'
p256
aS'\xf0\x9f\x98\x82\xe2\x9c\x8c\xef\xb8\x8f\xf0\x9f\x98\xad\xf0\x9f\x98\x81\xf0\x9f\x98\x8a\xf0\x9f\x99\x88\xf0\x9f\x98\x90\xf0\x9f\x98\xb6\xf0\x9f\x91\x8f\xf0\x9f\x92\x97\xf0\x9f\x98\x8d\xf0\x9f\x98\x94\xf0\x9f\x99\x86\xf0\x9f\x99\x8a\xf0\x9f\x91\x8c\xf0\x9f\x98\x9e\xf0\x9f\x91\x80\xf0\x9f\x91\x8d\xf0\x9f\x92\x81\xf0\x9f\x99\x8b\xf0\x9f\x98\x9c tweetyourrecentemojis'
p257
aS'i get attached way too easily to people \xf0\x9f\x98\x9e'
p258
aS'i wanna take your misery replace it with happiness but i need your faith in me im a sucker for love \xf0\x9f\x92\x83'
p259
aS'jokes my bed would be perf \xf0\x9f\x98\x8d'
p260
aS'a shot of tequila or something will be good right about now'
p261
aS'still waiting for my one on one conversation with a random boy that will be completely honest \xe2\x9c\x8c\xef\xb8\x8f needtoknowstuff \xf0\x9f\x98\x82'
p262
aS'i just wanna listen to sexy songs and go for a drive why am i studying'
p263
aS'we sang let me love you though'
p264
aS'this picture saved my life \xf0\x9f\x98\x8d\xf0\x9f\x98\x8d\xf0\x9f\x98\x8d  how far are you with finding me one'
p265
aS'i was suppose to message you like yesterday already \xf0\x9f\x98\xb6 hahahah im  definitely  not  dodging  it  \xf0\x9f\x98\x82\xf0\x9f\x98\x82'
p266
aS'i talk to you bc i wanna tap dat knowing how youre doing is just an extra'
p267
aS'i cant stop drinking about you'
p268
aS'cannot study someone entertain me \xe2\x9c\x8c\xef\xb8\x8f'
p269
aS'i dont have the stability to be emotional rn \xf0\x9f\x98\xb6 bestdayofmylife'
p270
aS'i just want chocolate \xf0\x9f\x98\x9e'
p271
aS'is it like a thing that if a boys name is josh that hes a douche \xf0\x9f\x98\x82 hey hey \xf0\x9f\x98\x89'
p272
aS'guuuurl frequent jam sessions to calm the nerves \xe2\x9c\x8c\xef\xb8\x8f tomorrow at break gurl\xf0\x9f\x98\x86 gonna rap for ya\xe2\x9c\x8c'
p273
aS'guuuurl frequent jam sessions to calm the nerves \xe2\x9c\x8c\xef\xb8\x8f'
p274
aS'not sure if shaking bc of cold or stress'
p275
aS'why is she so special'
p276
aS'stop making fun of what school are you on bc we have a friend faatimah that says it\xf0\x9f\x98\x82\xf0\x9f\x98\x82\xf0\x9f\x98\x82'
p277
aS'im not even gonna bother dont bother either'
p278
aS'goodbye im gone x'
p279
aS'will i be da hoe den'
p280
aS'i am deleting fb this is for sure'
p281
aS'taking a bath with daddy wow paapi can i also take a bath with daddy'
p282
aS'im so over this already \xf0\x9f\x98\x9e gonna miss the bae \xf0\x9f\x98\x9e'
p283
aS'\xe2\x9c\x8c\xef\xb8\x8fi shall have a new line by tomorrow hos'
p284
aS'i know that you know that the world knows that that youre fine so i aint gonna feed your ego all the time'
p285
aS'can you not let me study in peace \xf0\x9f\x98\x82'
p286
aS'someone give me motivation \xf0\x9f\x98\xad'
p287
aS'ill buy you one \xf0\x9f\x98\x89'
p288
aS'theres a dragon on real madrids away kit\xf0\x9f\x98\xb1\xf0\x9f\x98\xb1 it looks so amazing that even i would buy it'
p289
aS'but its hard because i still think about you everyday'
p290
aS'tonight i realized that i follow waaay too many liverpool supporters \xf0\x9f\x98\xb6'
p291
aS'its called taking a 5 minute study break \xf0\x9f\x98\xa9'
p292
aS'but what you dont see is that when we dont speak i dont sleep'
p293
aS'if youre watching the vmas youre definitely doing matric wrong'
p294
asS'2014_32'
p295
(lp296
S'but on the other hand i dont want to come across as being annoying do you see my problem'
p297
aS'tbh i just want to talk to you even if its a pointless conversation'
p298
aS'send me your snapchat name im bored \xf0\x9f\x99\x86'
p299
aS'thank youuuuu'
p300
aS'ive had the best 18th birthday ever wow thank you everyone \xf0\x9f\x99\x86'
p301
aS'im literally replying to every birthday wish i got on fb on whatsapp bc it wont allow m to comment '
p302
aS'i must have come to your house and ate your food enough to clear your fridge at least twice thanx for being part of my life\xe2\x80\xa6'
p303
aS'biday girl \xf0\x9f\x92\x82\xf0\x9f\x92\x83\xf0\x9f\x92\x83i am so proud of you and you are such a loyal friend thank you for these past 4 years'
p304
aS'happy birthday to my main nigga \xf0\x9f\x98\x84\xe2\x9c\x8c'
p305
aS'would be fab if youd want to talk to me as much i want to talk to you x'
p306
aS'i feel as though i put so much effort in for other people and no one even cares'
p307
aS'i\xe2\x80\x99ve asked about you and they told me things but my mind didn\xe2\x80\x99t change and i still feel the same whats a life with no fun'
p308
aS'go listen to secret love by jojo'
p309
aS'would be pretty fab if the feelings were mutual tbh'
p310
aS'im done'
p311
aS'giving someone a chance is the best thing to do x'
p312
aS'i want you for my birthday please \xf0\x9f\x99\x86'
p313
aS'someone teach me an effective way to chise \xf0\x9f\x98\x82'
p314
asS'2014_33'
p315
(lp316
S'sometimes it just feels so amazing to finally stand up for yourself i highly recommend it life is too short to be taken for\xe2\x80\xa6'
p317
aS'sometimes im not always doing amazing but its okay because everyone struggles amp its okay to be flawed because thats wha\xe2\x80\xa6'
p318
aS'i dont know what it is but you are just my type'
p319
aS'so to dry your nail polish quick you put your hands in ice cold water \xf0\x9f\x98\xb6 my whole life has been a lie or'
p320
aS'seeing him with her was the best thing \xe2\x9c\x8c\xef\xb8\x8f'
p321
aS'would you believe me if i said im in love baby i want you to want me'
p322
aS'so will wear number 11 and i am going to the number 8 comeonchelsea'
p323
aS'youre actually such a fuck up but im really intrigued'
p324
aS'i had a dream i had a boyfriend it was fucking awesome'
p325
aS'i wanna have a completely honest one to one conversation with a random boy needtofigureshitout'
p326
aS'where do broken hearts go'
p327
aS'i just wasnt good enough for you'
p328
aS'can i cry already'
p329
aS'buy me ice cream so i know its real \xf0\x9f\x99\x8b'
p330
aS'sometimes my sister really pisses me off'
p331
aS'boys are actually such lus rn ew'
p332
aS'its a cruel thing youll never know all the ways i tried its a hard thing faking a smile when i feel like im falling apart inside'
p333
aS'combination of tiredness jealousy stressed and depressed \xf0\x9f\x99\x85'
p334
aS'ok \xf0\x9f\x91\x80'
p335
aS'whenaminotdeprothough'
p336
aS'no one actually cares anymore you are all alone in this world \xf0\x9f\x8c\x8d'
p337
aS'please come to south africa \xf0\x9f\x90\x85 askthedragon'
p338
aS'if only you knew \xf0\x9f\x98\x93'
p339
aS'0 self esteem'
p340
aS'i have officially given up on happiness'
p341
aS'but on a very serious note i need to find myself a maths tutor any ideas'
p342
aS'am i'
p343
aS'is it the cool thing for boys not to reply \xf0\x9f\x8c\x9a'
p344
aS'cause i cant make you love me if you dont i cant make your heart feel something it wont'
p345
asS'2014_30'
p346
(lp347
S'the big question of the commonwealth games'
p348
aS'im in love \xf0\x9f\x98\x8d and so so so proud'
p349
aS'hahaha \xf0\x9f\x91\xb5'
p350
aS'i miss you more than ever \xf0\x9f\x98\xad'
p351
asS'2014_31'
p352
(lp353
S'i love this emoji so much \xf0\x9f\x99\x86'
p354
aS'i wanted to kiss him so badly last night'
p355
aS'i dont think you realize how hard it is for me to see you \xf0\x9f\x92\x94'
p356
aS'apparently i was sleeping in the cab on the way home last night i promise it was exhaustion awkwardpicturesonotherpeoplesphone'
p357
aS'wtf matric dance today \xf0\x9f\x91\x91\xf0\x9f\x99\x86'
p358
aS'holy fuck im so nervous'
p359
aS'omgaaaaad'
p360
aS'thats what friends are for right'
p361
aS'buy me the gq and ill love you \xf0\x9f\x98\x8d\xf0\x9f\x98\x8d\xf0\x9f\x98\x8d'
p362
aS'im actually so happy \xf0\x9f\x98\x81 haha im too excited to sleep \xf0\x9f\x91\x91 peasant'
p363
aS'no matter what youre wearing youre gonna look beautiful \xf0\x9f\x92\x97\xf0\x9f\x91\xad'
p364
aS'go sleep'
p365
aS'i also did my nails so \xf0\x9f\x99\x86'
p366
aS'today i got conditionally accepted at uct and im actually so happy \xf0\x9f\x99\x8b'
p367
aS'its my birthday month \xf0\x9f\x91\x91'
p368
aS'whitegirlproblems'
p369
aS'my biggest problem right now is deciding what phone cover will match for tomorrow \xf0\x9f\x99\x86'
p370
aS'\xf0\x9f\x91\x91\xf0\x9f\x99\x8b'
p371
aS'conditional offer at uct \xe2\x98\xba\xef\xb8\x8f\xe2\x98\xba\xef\xb8\x8f\xe2\x98\xba\xef\xb8\x8f'
p372
aS'what the fuck i want a boyfriend already'
p373
aS'would be fabulous if i could find a nice guy right about now'
p374
aS'need to stop over thinking need to stop over thinking need to stop over thinking need to stop thinking'
p375
aS'need to stop over thinking need to stop over thinkingneed to stop over thinkingneed to stop over thinking'
p376
aS'youre gonna look so beautiful \xf0\x9f\x98\xad\xf0\x9f\x92\x97'
p377
aS'if you cup a girls face like this you deserve all the booty in the world'
p378
asS'2014_38'
p379
(lp380
S'intelligence is attractive \xf0\x9f\x91\x8c'
p381
aS'need sleep'
p382
aS'can we just tap dat \xf0\x9f\x91\x8f \xf0\x9f\x98\x8d\xf0\x9f\x8d\x91\xf0\x9f\x98\x82'
p383
aS'that movie made me wanna fall in love \xf0\x9f\x98\x94'
p384
aS'chelsea fans cheering lampard makes me wanna cry im so emotional at the moment dont talk to me'
p385
aS'only frank lampard knows how to break down that chelsea bus'
p386
aS'feeling emotional frankie \xf0\x9f\x98\x82'
p387
aS'imagine scoring an important goal against the team of your heart and not even smiling out of respect grande lampard'
p388
aS'i just cant get myself to hate on lampard'
p389
aS'da fuck'
p390
aS'i dont wanna watch anymore'
p391
aS'dont even think about it lamps'
p392
aS'no frank'
p393
aS'yussss'
p394
aS'wtf is going on'
p395
aS'comn \xf0\x9f\x92\x99\xf0\x9f\x92\x99\xf0\x9f\x92\x99'
p396
aS'lamps to come on and score an og in the 87th minute to give us the win'
p397
aS'ive been in love with love and the idea of something binding us together you know that love is strong enough'
p398
aS'i wish that i was chelseas physio \xf0\x9f\x98\x94'
p399
aS'just saying'
p400
aS'suppose to only go now \xf0\x9f\x98\x82\xf0\x9f\x92\x83'
p401
aS'my sister was suppose to fetch me at 1030 already '
p402
aS''
p403
aS'fetch me already'
p404
aS'please laugh \xf0\x9f\x98\x82\xf0\x9f\x98\x82\xf0\x9f\x98\x82\xf0\x9f\x98\x82 getmealife'
p405
aS'i bet neymar got some last night'
p406
aS'listen let go of the tension if i get a minute ima put your bad ass in detention'
p407
aS'when you see your crush flirting with someone else'
p408
aS'neymar with models yoh'
p409
aS'someone come with tonight'
p410
aS'x is so fucking amazing holy fuck'
p411
aS'im gonna clear out my clothing cupboard so much lus'
p412
aS'sending your selfies to nasa because you\xe2\x80\x99re a star\xe2\x80\x9d \xf0\x9f\x98\x82\xf0\x9f\x98\x82\xf0\x9f\x98\x82'
p413
aS'maybe i care about you too much oops'
p414
aS'brazilian mafia \xf0\x9f\x98\x8d'
p415
aS'if you can make someone smile even just for a bit do it \xf0\x9f\x98\x8a\xf0\x9f\x98\x8a'
p416
aS'i havent made any really bad decisions lately im getting bored'
p417
aS'never give up on something you really want it\xe2\x80\x99s difficult to wait but worse to regret'
p418
aS'such a cutie \xf0\x9f\x98\x8d'
p419
aS'whats that public show of affection thing'
p420
aS'okay serious planning session on monday \xf0\x9f\x91\xaf'
p421
aS'i was thinking about it today actually'
p422
aS'i love you so muchhh \xf0\x9f\x92\x97\xf0\x9f\x92\x97\xf0\x9f\x92\x97\xf0\x9f\x92\x97'
p423
aS'why are you so cute huh'
p424
aS'has arrived for tonights show get your questions in for him using chelseatv'
p425
aS'friday night live on chelsea tv now cfc fun'
p426
aS'i never watch tv but when i do someone changes the channel'
p427
aS'i have been siting in bed for the entire day without any clothes on time to put some clothes on i guess \xf0\x9f\x99\x8b towellife'
p428
aS'idk what this feeling is'
p429
aS'im still in bed \xf0\x9f\x92\x97'
p430
aS'being happy without a reason is the most genuine form of happiness \xf0\x9f\x92\x97 thank you for some words of inspiration'
p431
aS'dont anyone dare tell me that i must get out of bed today'
p432
aS'i need to get my fucking license \xf0\x9f\x98\xad\xf0\x9f\x99\x8b'
p433
aS'just because its fabfriday we thought wed throw in another 24hr giveaway retweet amp you could win iheartswiss'
p434
aS'i think im getting sick ny lekker'
p435
aS'can the pimples stop already'
p436
aS'i also got to meet some fans who else went to the predatorinstinct event share your thoughts with me'
p437
aS'i promise that im not chising \xf0\x9f\x98\x82\xf0\x9f\x98\x82'
p438
aS'one trey songz with a side of sex please'
p439
aS'makes me feel some kinda way \xf0\x9f\x98\x8d\xf0\x9f\x98\x8d\xf0\x9f\x98\x8d'
p440
aS'i want a neymar \xf0\x9f\x98\xad\xf0\x9f\x98\xad\xf0\x9f\x98\xad'
p441
aS'long drives and ice cream please \xf0\x9f\x99\x8b'
p442
aS'the only thing thats missing at that fokken party is me \xf0\x9f\x98\xad'
p443
aS'where do i buy a neymar'
p444
aS'father my children \xf0\x9f\x99\x8a\xf0\x9f\x98\x8d\xf0\x9f\x98\x8d\xf0\x9f\x99\x8a\xf0\x9f\x98\x8d'
p445
aS'my bad if my ex tryna fight you'
p446
aS'on the real no lie but you just my type'
p447
aS'baby i want you to want me'
p448
aS'i got plans to get to know you better'
p449
aS'so can we make this thing us'
p450
aS'i need something special i need something new just give me youuu'
p451
aS'there are actually a lot of attractive people in this world \xf0\x9f\x99\x8b'
p452
aS'thanks girl you deserve it after these last 3 weeks'
p453
aS'retail therapy to \xe2\x9c\x8c\xef\xb8\x8f prayingforyou'
p454
aS'i just bought me 3 pairs of shoes \xf0\x9f\x99\x8a'
p455
aS'what if i told you that ive been thinking about ya x'
p456
aS'you say you a good girl boy but i know you would girl boy \xf0\x9f\x99\x8b'
p457
aS'just did my last prac \xf0\x9f\x8d\xb4'
p458
aS'i just wanna spend a night playing scrabble or something with you and get to know everything about you \xf0\x9f\x92\x97'
p459
aS'right now i want to crawl in bed and take a nap with you'
p460
aS'send me good morning messages so i know its real wait send me any messages so i know \xf0\x9f\x98\x82'
p461
aS'relationship goals a relationship \xf0\x9f\x98\x82 me \xf0\x9f\x99\x8b'
p462
aS'fun fact im actually happy today and this literally only comes once in a blue moon \xf0\x9f\x98\x8a\xf0\x9f\x98\x8a\xf0\x9f\x98\x8a'
p463
aS'someone talk to me so i can sleep'
p464
aS'can i have my own hazard pls\xf0\x9f\x99\x8b'
p465
aS'costa or oscar on please \xf0\x9f\x99\x8f'
p466
aS'i just wanna make you smile but no not good enough k \xf0\x9f\x8c\xb0'
p467
aS'i wanna talk to you all night and complain in the morning that i didnt sleep but it would have been worth it you see \xf0\x9f\x92\x8e'
p468
aS'cesc'
p469
aS'\xf0\x9f\x92\x99\xf0\x9f\x92\x99\xf0\x9f\x92\x99'
p470
aS'ill probably never tell people how i feel about them'
p471
aS'i feel like im never good enough though'
p472
aS'done trying'
p473
aS'but guys im finished with mocks \xf0\x9f\x98\xad\xf0\x9f\x92\x97\xf0\x9f\x98\xad'
p474
aS'thank you for giving me a notification \xf0\x9f\x98\x8d'
p475
aS'so i decided to take a bunch of tablets without eating worst decision of my life rn'
p476
aS'fun fact i didnt get out of my pajamas until now \xf0\x9f\x99\x8a'
p477
aS'youre gone now and im finally moving on \xe2\x9c\x8c\xef\xb8\x8f'
p478
aS'if youre gonna care about your boyfriend more than your friends whos been there all your life you have a problem lmao'
p479
aS'sometimes i wish i could just take tablets like a normal person \xf0\x9f\x98\x94'
p480
aS'pain pain go away come back another day \xf0\x9f\x92\x8a'
p481
asS'2014_39'
p482
(lp483
S'not sure if its a crush or if i just like your face \xf0\x9f\x99\x8a'
p484
aS'im not a fighter i just ignore \xf0\x9f\x98\x8a'
p485
aS'why is trey so fucking hot \xf0\x9f\x98\x8d\xf0\x9f\x98\x8d\xf0\x9f\x98\x8d\xf0\x9f\x98\x8d'
p486
aS'i need to know you wont leave when things get hard even if i come off like i want you to'
p487
aS'sometimes i just really want to feel youre here with me'
p488
aS'you are such a nai'
p489
aS'demi lovato is goals'
p490
aS'living alone at home actually sucks tbh its too quiet \xf0\x9f\x98\x92'
p491
aS'theres a big difference between being sad angry and disappointed'
p492
aS'im just not that into you'
p493
aS'my baby \xf0\x9f\x98\x88'
p494
aS'my anaconda dont want none unless you got a decent idea of what youre doing with your life hun'
p495
aS'please lets just watch chick flicks together'
p496
aS'neymarrrr \xf0\x9f\x98\xbb\xf0\x9f\x98\xbb\xf0\x9f\x98\xbb'
p497
aS'wiliaaaaaan'
p498
aS'costaaaaaa'
p499
aS'oscaaaaarrrr'
p500
aS'i miss you so much but i cant even tell you bc i mean nothing to you'
p501
aS'respect is key \xf0\x9f\x92\x8e'
p502
aS'youre kinda fab and the bestest friend ever \xf0\x9f\x91\xad\xf0\x9f\x99\x8b\xf0\x9f\x92\x97'
p503
aS'you gotta strike the ballssss harder i think you are cock blocked \xf0\x9f\x98\x82\xf0\x9f\x98\x88\xf0\x9f\x98\x82\xf0\x9f\x98\x88\xf0\x9f\x98\x82\xf0\x9f\x98\x88\xf0\x9f\x98\x82'
p504
aS'stop fingering me im not \xf0\x9f\x98\x88 omg i cannot deal'
p505
aS'playing pool with jayde you know ne either you or me is gonna win thats a fact \xf0\x9f\x98\x82 only2peopleplayi\xe2\x80\xa6'
p506
aS'hi chad \xe2\x9c\x8c\xef\xb8\x8f'
p507
aS'not looking like anyone is the real struggle \xf0\x9f\x98\x94\xf0\x9f\x98\x82'
p508
aS'yoh but the 17 year old struggle is real notlegal problems'
p509
aS'youre so attractive that it hurts \xf0\x9f\x98\xad'
p510
aS'cool \xe2\x9c\x8c\xef\xb8\x8f'
p511
aS'josh is my favoritest name ever \xe2\x9c\x8c\xef\xb8\x8f btw'
p512
aS'youre not chise material oops'
p513
aS'youre too full of nonsense tbh'
p514
aS'im an indecisive fuck how do you not know this by now'
p515
aS'can i just have my own please \xf0\x9f\x98\x92'
p516
aS'all these dream weddings making me wanna get married'
p517
aS'im still laughing at this mutual that unfollowed me we even spoke before how mean'
p518
aS'telling you i loved you was the worse decision of my life \xf0\x9f\x99\x8a\xf0\x9f\x98\x82'
p519
aS'how do you not wanna'
p520
aS'i dont understand how everything can go wrong and fall apart in such a short amount of time'
p521
aS'i stopped believing in a future when the past continued to repeat itself'
p522
aS'im not mentally stable enough for anything that is going on lately'
p523
aS'i dont care how hard i push away just stay'
p524
aS'its so hard to keep feelings and thoughts organized like wheres my damn binder'
p525
aS'youre out there waiting to break my heart again'
p526
aS'im so bad at being mean \xf0\x9f\x98\x94'
p527
aS'had the bestest dream ever \xf0\x9f\x98\x8d'
p528
aS'being a dick aint gonna make your dick any bigger words to live by \xf0\x9f\x99\x8c'
p529
aS'the data struggle is real'
p530
aS'but you were no good \xe2\x9c\x8c\xef\xb8\x8f'
p531
aS'i miss you so fucking much \xf0\x9f\x98\xad'
p532
aS'all deleted just one to go the hardest one \xf0\x9f\x99\x8a'
p533
aS'i need to delete all the pictures of you and of us off my phone \xf0\x9f\x99\x8c'
p534
aS'guys with earrings though \xf0\x9f\x91\x8c'
p535
aS'send me cute emojis so i know its real \xf0\x9f\x94\xae'
p536
aS'i told you i hate you but i dont mean it'
p537
aS'i want you to know that i should have loved you way more he she has your heart nowwww'
p538
aS'chris brown never disappoints \xf0\x9f\x98\x8d'
p539
aS'fun fact i dont really eat braaid food \xf0\x9f\x91\xbd'
p540
aS'there are some genuinely nice guys out there idk thank you to the stranger that kept the door open for me and\xe2\x80\xa6'
p541
aS'there are some genuinely nice guys out there idk thank you to the stranger that kept the door open for me and said hiii \xe2\x9c\x8c\xef\xb8\x8f'
p542
aS'my faith in boys has been restored'
p543
aS'i support neither teams and my nerves are kla \xf0\x9f\x99\x8a'
p544
aS'zayn malik is glorious \xf0\x9f\x99\x8b\xf0\x9f\x98\x8d'
p545
aS'when i told you that you need some dick \xf0\x9f\x98\x82\xf0\x9f\x98\x82\xf0\x9f\x98\x82 please laugh with me bc this is golden'
p546
aS'why am i even watching this match\xf0\x9f\x98\x82'
p547
aS'guys i havent worn my chelsea tshirt in a year bc whenever i wear it they lose im gonna try wearing it again tomorrow \xf0\x9f\x99\x8f\xf0\x9f\x99\x8f\xf0\x9f\x99\x8f'
p548
aS'dylan obrien more like dylan obemyboyfriend'
p549
aS'babe \xf0\x9f\x98\x88'
p550
aS'i will find you and i will love you'
p551
aS'its been a year or so and you moved on and left me cold and i i wish that i could let you know that i still got a thing for you'
p552
aS'hoping that i could find love on the broken road'
p553
aS'im such a fuck up \xf0\x9f\x98\x94'
p554
aS'i cant make you love me if you dont'
p555
aS'i passed lo why am i so clever \xf0\x9f\x98\x88\xf0\x9f\x98\x82\xf0\x9f\x98\x82'
p556
aS'man everytime i try to be happy i get this feelin thats tellin me to not be'
p557
aS'were using it as an acronym okay \xf0\x9f\x98\x82'
p558
aS'\xf0\x9f\x94\xae\xf0\x9f\x94\xae\xf0\x9f\x94\xae'
p559
aS'i remember years ago someone told me i should take caution when it comes to love i did i did'
p560
aS'one of those days that you just feel fucking sad but try your best to lift up your spirits but you get to a point when you just done trying'
p561
aS'how is this so accurate \xf0\x9f\x92\x80'
p562
aS'neymar looks glorious when he is kissing someone \xf0\x9f\x98\x8d'
p563
aS'my phone screen just cracked \xf0\x9f\x99\x8a'
p564
aS'the problem with us girls is that we fall for boys who gives us the sweetest words they never really me\xe2\x80\xa6'
p565
aS'reminder to self never get too over attached to someone'
p566
aS'had such a kak day today yoh'
p567
aS'giveaway prestigious weekend for 2  value close to r15000 follow them amp rt step13 100kcapetown'
p568
aS'\xf0\x9f\x98\x82\xf0\x9f\x91\x8c\xf0\x9f\x99\x8b\xf0\x9f\x98\x81\xf0\x9f\x98\xad\xe2\x9c\x8c\xef\xb8\x8f\xf0\x9f\x98\x8d\xf0\x9f\x98\x8a\xf0\x9f\x98\xb6\xf0\x9f\x99\x8a\xf0\x9f\x98\x94\xf0\x9f\x92\x83\xf0\x9f\x98\x92\xf0\x9f\x91\x8f\xf0\x9f\x92\x80\xf0\x9f\x92\x99\xf0\x9f\x98\x88\xf0\x9f\x98\x8c\xf0\x9f\x94\x9e\xf0\x9f\x8d\x91\xe2\x9d\xa4\xef\xb8\x8f tweetyourrecentemojis'
p569
aS'my recently used emojis are a mess \xf0\x9f\x99\x8a'
p570
aS'im with you on that guurl \xf0\x9f\x91\x8c'
p571
asS'2014_18'
p572
(lp573
S'you try too hard'
p574
aS'what is ramos lately'
p575
aS'current mood'
p576
aS'sleep gt'
p577
aS'tattoo working out '
p578
aS'fuck this im marrying rich or becoming homeless'
p579
aS'yay go study'
p580
aS'but mostly i just hope you know that not a day goes by when i dont miss you \xe2\x99\xa5 love and miss you more than word\xe2\x80\xa6'
p581
aS'get a room'
p582
aS'i love you a lot too'
p583
aS'i miss you a lot'
p584
aS'awks \xf0\x9f\x99\x88 haha ill send in now babe xxx'
p585
aS'future dictionary entry hose noun people mainly females who are not loyal'
p586
aS'got 99 problems and being out of school would solve all of them'
p587
aS'k cool \xf0\x9f\x91\x8a'
p588
aS'me rn'
p589
aS'come to my funeral'
p590
aS'literally'
p591
aS'this is what started my internet addiction the accuracy'
p592
aS'matric or cause of suicide'
p593
aS'no one understands how much im dreading this week coming up im fucking terrified'
p594
aS'yusssss \xf0\x9f\x91\x8a'
p595
aS'no'
p596
aS'finally going to be seeing the boyf after so long \xf0\x9f\x98\x8d\xf0\x9f\x98\x8d\xf0\x9f\x98\x8d'
p597
aS'she wanna do drugs smoke weed get drunk'
p598
aS'getting to close to someone will eventually fuck you up'
p599
aS'pushing people away became a habit for me'
p600
aS'talents fucking up'
p601
aS'i still think about you at night'
p602
aS'wise'
p603
aS'noooo you have to be in bed and falling asleep'
p604
aS'one day ask haley to tell you a bedtime story \xf0\x9f\x98\x81'
p605
aS'are you listening to dat rap \xf0\x9f\x98\x82\xf0\x9f\x98\x82\xf0\x9f\x98\x82'
p606
aS'never thought of it like this \xf0\x9f\x98\xa3\xf0\x9f\x98\x94 yoh'
p607
aS'he was in an accident'
p608
aS'hows marcelo'
p609
aS'can i just stare at you bc beautiful'
p610
aS'top three \xf0\x9f\x91\x8a'
p611
aS'next week saturday \xf0\x9f\x98\x81'
p612
aS'someone come with me to the chocolate factory'
p613
aS'i will always be happy for other peoples happiness in a way its just nice to see them smile'
p614
aS'that was last night'
p615
aS'looooook'
p616
aS'lol braa i miss you'
p617
aS'come home \xf0\x9f\x98\xad'
p618
aS'tattooooooo \xf0\x9f\x91\x8a'
p619
aS'true friends \xf0\x9f\x91\x8c'
p620
aS'idk still some hope for real madrid \xf0\x9f\x91\x8a'
p621
aS'champions league nights are my favorite'
p622
aS'youre so attractive ew'
p623
aS'thank you just replied to the dm looking forward to it \xf0\x9f\x91\x8c'
p624
aS'please follow me so i can reply to dm about my address \xf0\x9f\x98\x8a\xf0\x9f\x98\x8a'
p625
aS'makes my heart happy'
p626
aS'ek huil'
p627
aS'congrats to my friends from real sergio ramos  you are unbelievable fcbrma'
p628
aS'goaaaaallll'
p629
aS'please take ramos off dont risk him'
p630
aS'team is on point \xf0\x9f\x91\x8c\xf0\x9f\x91\x8c\xf0\x9f\x91\x8c'
p631
aS'dat klap doe'
p632
aS'gooooaaaallll'
p633
aS'ramosssssss baeeeee'
p634
aS'baeeee'
p635
aS'meet my baby rocco \xf0\x9f\x8d\xbc\xf0\x9f\x92\x99'
p636
aS'being ugly doesnt stop me from calling other people ugly'
p637
aS'hey you'
p638
aS'i heard that youre gonna send me a poster \xf0\x9f\x91\xaf'
p639
aS'she wouldnt make one typo'
p640
aS'too true'
p641
aS'todays look is bananainspired\xe2\x80\xa6shoutout to my beautiful brazilian brothers amp weareallmonkeys'
p642
aS'saynotoracism'
p643
aS'thought you started that already \xf0\x9f\x98\x82'
p644
aS'sure thang gal \xf0\x9f\x98\x98'
p645
aS'place and time'
p646
aS'but if its as much as i miss you \xf0\x9f\x98\xad\xf0\x9f\x98\xad'
p647
aS'i miss you more \xf0\x9f\x92\x97\xf0\x9f\x92\x97\xf0\x9f\x92\x97'
p648
aS'he is beautiful \xf0\x9f\x98\x8d\xf0\x9f\x98\x8d\xf0\x9f\x98\x8d'
p649
aS'somostodosmacacos has been trending wolrdwide since last night wooow '
p650
aS'all these soccer players sending their support to alves \xf0\x9f\x91\x8c\xf0\x9f\x91\x8c\xf0\x9f\x91\x8c saynotoracism'
p651
asS'2014_19'
p652
(lp653
S'ive been wearing so much black lately \xf0\x9f\x94\xab'
p654
aS'give us a break why dont you '
p655
aS'bestest ever'
p656
aS'i love this picture so much thank you for the book signing'
p657
aS'come to cape town on holiday \xf0\x9f\x91\xaf'
p658
aS'haha awesome \xf0\x9f\x91\x8c'
p659
aS'did you ask him today \xf0\x9f\x98\x81'
p660
aS'good meeting you girls today xx'
p661
aS'prayer circle that chad will follow me \xf0\x9f\x99\x8f'
p662
aS'thank you chad \xf0\x9f\x98\x98'
p663
aS'thank you for today'
p664
aS'i love you \xf0\x9f\x98\xad\xf0\x9f\x92\x99'
p665
aS'why you late'
p666
aS'someone entertain me im at waterfront already'
p667
aS'seee you later alligator'
p668
aS'having my mom love chad as much as me is great breakfast and waterfront \xf0\x9f\x91\x8c'
p669
aS'good morning chad see ya later chad d'
p670
aS'i will always love'
p671
aS'hello from cape town \xf0\x9f\x98\x8a\xf0\x9f\x98\x8a\xf0\x9f\x98\x8a'
p672
aS'chad chad chad flashback to this day \xf0\x9f\x98\x8d'
p673
aS'get ready for your love letter tomorrow  notreally'
p674
aS'do you remember that you owe us a 6 pack flash tomorrow is the day ya know'
p675
aS'marry me tomorrow unbelievable'
p676
aS'im so excited for tomorrow see you tomorrow chad'
p677
aS'please tell me why i am this cute loveletters capetownbooksigning'
p678
aS'she googled map stalked him too \xf0\x9f\x98\x82\xf0\x9f\x98\x82'
p679
aS'today says is gonna fall in love with me \xf0\x9f\x98\x82 and then she proceeds to tell us about their future \xe2\x80\xa6'
p680
aS'im so weird and awkward \xf0\x9f\x98\xad\xf0\x9f\x98\xad'
p681
aS'throwback \xf0\x9f\x91\x8f'
p682
aS'my song too \xf0\x9f\x91\x8c'
p683
aS'past the infatuation phase right in the thick of love at times we get sick of love it seems like we argue everyday'
p684
aS'you can make me coffee anyday boo'
p685
aS'chad makes me happy wow he is beautiful'
p686
aS'hahahaha \xf0\x9f\x98\x98'
p687
aS'im recording top billing but i still wanna watch'
p688
aS'happy happy happy omg smile'
p689
aS'idk why but i feel happy \xf0\x9f\x98\x81'
p690
aS'ramossssssss'
p691
aS'proud \xf0\x9f\x92\x9b\xf0\x9f\x92\x9a'
p692
aS'well done lads cfc'
p693
aS'thanks for the signed poster'
p694
aS'congratulations \xf0\x9f\x91\xb6\xf0\x9f\x92\x99'
p695
aS'tbh victoria and david looked better than beyonc\xc3\xa9 and jay z'
p696
aS'today i wish that i was in australia \xf0\x9f\x98\xad\xf0\x9f\x98\xad'
p697
aS'wish i could go to met ball and just admire'
p698
aS'david beckham definitely takes best dressed man at the met ball gala'
p699
aS'wish i could just meet a nice guy'
p700
aS'boniwe what do you wanna do next year boniwe does it look like i know i cant even pass a freaking maths\xe2\x80\xa6'
p701
aS'thank you so much really appreciate it \xf0\x9f\x92\x97'
p702
aS'got home to a little surprise delivery \xf0\x9f\x92\x8c thaaanks xxx surprise signedposter'
p703
ag403
aS'stressed and sad whats new'
p704
aS'life  made \xf0\x9f\x98\x82\xf0\x9f\x98\x82\xf0\x9f\x98\x82 he is my hero i hope they make it a celebration on fifa15'
p705
aS'take a moment \xf0\x9f\x91\x8f'
p706
aS'why you gotta be so rude dont you know im human too'
p707
asS'2014_14'
p708
(lp709
S'u r a \xf0\x9f\x92\x9e \xf0\x9f\x92\x9e \xf0\x9f\x8c\xb8\xf0\x9f\x8c\xb8 \xf0\x9f\x92\x95\xf0\x9f\x92\x95\xf0\x9f\x92\x95 \xf0\x9f\x92\x9e \xf0\x9f\x92\x9e \xf0\x9f\x8c\xb8 \xf0\x9f\x8c\xb8 \xf0\x9f\x92\x95 \xf0\x9f\x92\x9e \xf0\x9f\x92\x9e \xf0\x9f\x8c\xb8 \xf0\x9f\x8c\xb8\xf0\x9f\x92\x95 \xf0\x9f\x92\x9e\xf0\x9f\x92\x9e\xf0\x9f\x92\x9e \xf0\x9f\x8c\xb8 \xf0\x9f\x8c\xb8\xf0\x9f\x92\x95\xf0\x9f\x92\x95\xf0\x9f\x92\x95 \xf0\x9f\x92\x9e \xf0\x9f\x92\x9e \xf0\x9f\x8c\xb8 \xf0\x9f\x8c\xb8\xf0\x9f\x92\x95 \xf0\x9f\x92\x9e \xf0\x9f\x92\x9e \xf0\x9f\x8c\xb8 \xf0\x9f\x8c\xb8 \xf0\x9f\x92\x95 \xf0\x9f\x92\x9e \xe2\x80\xa6'
p710
aS'im tired of trying to keep the conversation going its a two way thing you know'
p711
aS'sure thing any tea you want \xe2\x9d\xa4\xef\xb8\x8f'
p712
aS'one of the hardest things right now in life is loving someone that doesnt love you'
p713
aS'come visit me'
p714
aS'plot twist you actually think about me too'
p715
aS'missing you more xx'
p716
aS'guess who got da book'
p717
aS'babe amp \xe2\x80\x9cbaby creep me out if you wanna give me a pet name call me something cute like esteban julio ricardo montoya de\xe2\x80\xa6'
p718
aS'im literally gonna have been sitting in front of my tv watching three soccer matches'
p719
aS'thanks bc i checked if they had it and it said that it didnt ill defs go there tomorrow'
p720
aS'where did you get it \xf0\x9f\x98\x8a'
p721
aS'im saving that tweet'
p722
aS'do you promise \xf0\x9f\x98\x89'
p723
aS'boys confuse me'
p724
aS'off course hope u enjoy it'
p725
aS'thats for all the stuff you write in your diary \xf0\x9f\x98\x82'
p726
aS'at least you kissed yourself'
p727
ag403
aS'friends with benefits dont sound too shabby'
p728
aS'definitely \xf0\x9f\x98\x81'
p729
aS'any idea if you going to do a book signing in cape town \xe2\x80\x9d lets petition \xf0\x9f\x91\x8a'
p730
aS'youre so cute chad'
p731
aS'chad chad chad chad chad chad chad chad chad'
p732
aS'is that a promise cant wait to get one \xf0\x9f\x98\x81'
p733
aS'ill only get one if you promise that youll sign it  '
p734
aS'if i get one will you sign it'
p735
aS'whens national kiss a soccer player day because thats why i play soccer'
p736
aS'head massage please ill love you forever and pay you in whatever you want\xf0\x9f\x91\x8c'
p737
aS'pic amp in the tunnel'
p738
aS'i basically failed at watching two matches at once'
p739
aS'god bless you eden'
p740
aS'iscoooo'
p741
aS'dont talk to me when you only want something you fucker'
p742
aS'neymar you beautiful little angel\xf0\x9f\x92\x9b'
p743
aS'bae \xf0\x9f\x98\x8d\xf0\x9f\x98\x8d\xf0\x9f\x98\x8d\xf0\x9f\x98\x8d'
p744
aS'its like boys are the oscars and im leonardo dicaprio'
p745
aS'\xf0\x9f\x98\x81'
p746
aS'hashtag relationship goals'
p747
aS'skyping with my fave spiderman'
p748
aS'i was eating pizza and my dog looked at me like'
p749
aS'the best april fools\xe2\x80\x99 trick on twitter'
p750
aS'lets go sit by the sea and eat ice cream'
p751
aS'everyday i wish i could drive \xf0\x9f\x98\xad\xf0\x9f\x98\xad'
p752
aS'going to sleep bc emo'
p753
aS'if i get a little prettier can i be your baby'
p754
aS'definitely the jealous type'
p755
aS'i guess im just in love with the idea of you'
p756
aS'but no'
p757
aS'i dont need advice i just need distractions'
p758
aS'thoughts why cant you like me back and we can fall in love and live happily ever after'
p759
aS'pretty much'
p760
aS'loving you kind of like waiting for a ship at an airport'
p761
aS'loving you is like moving mountains'
p762
aS'and then it got better'
p763
aS'bae'
p764
aS'cara aka queen'
p765
aS'cough cough what is your purpose'
p766
aS'my camera roll dem feels doe'
p767
aS'boys dont get how jealous girls get just when they see you talking to another girl'
p768
aS'pity i dont even have a crush'
p769
aS'thinking of you hurts so much bc i know well never be'
p770
aS'okay \xf0\x9f\x92\x83\xf0\x9f\x92\x83\xf0\x9f\x92\x83'
p771
aS'when your crush uploads a selfie'
p772
aS'pfft no i didnt'
p773
aS'someone come with me to see at sideshow on thursday'
p774
aS'have a lovely day xx'
p775
aS'come to cape town soooon'
p776
aS'how are you \xf0\x9f\x98\x8a\xf0\x9f\x98\x8a'
p777
aS'good luck chaddie \xf0\x9f\x92\x97'
p778
aS'but technically not that much bc its an audiobook'
p779
aS'nerd alert im reading the great gatsby'
p780
aS'miss you toooo'
p781
aS'i could listen to usher all day everyday'
p782
asS'2014_15'
p783
(lp784
S'life goals coachella'
p785
aS'just finished unbelievable \xe2\x9d\xa4\xef\xb8\x8f such an inspiration'
p786
aS'this aint a movie no no fairy tale conclusion yall it gets more confusing everyday'
p787
aS'youre fucked when you get attached'
p788
aS'most beautiful person'
p789
aS'today my sister brought up my matric dance partner again'
p790
aS'babe'
p791
aS'happy birthday gorgeous hope you had a lovely day \xf0\x9f\x98\x98'
p792
aS'happy birthday \xf0\x9f\x92\x83'
p793
aS'7am common missions'
p794
aS'tomorrow im spamming with chad pictures so be warned \xf0\x9f\x98\x8d you go girl me too d'
p795
aS'tomorrow im spamming with chad pictures so be warned \xf0\x9f\x98\x8d'
p796
aS'coachella \xf0\x9f\x98\xad\xf0\x9f\x98\xad\xf0\x9f\x98\xad'
p797
aS'lets petition \xf0\x9f\x91\x8a'
p798
aS'on his birthday oh gosh how special \xe2\x9d\xa4\xef\xb8\x8f\xe2\x9d\xa4\xef\xb8\x8f'
p799
aS'crying \xf0\x9f\x98\xad\xf0\x9f\x98\xad\xf0\x9f\x98\xad'
p800
aS'what dates do durban have i saw the 3may i hope he goes to other cities like i really do durban already gets all the galas\xf0\x9f\x98\xad'
p801
aS'praying \xf0\x9f\x99\x8f'
p802
aS'youre getting old babe'
p803
aS'my heart says carry on reading and my mind says go to sleep'
p804
aS'its horrible '
p805
aS'sara is dating someone  yay  champagne papi '
p806
aS'aka you love me'
p807
aS'hahahahahahaha'
p808
aS'i have chocolate'
p809
aS'you dont need to be a snake to tap dat '
p810
aS'im baptizing him eden richard john thomas'
p811
aS'it depends on you though'
p812
aS'eden is a boys name \xf0\x9f\x98\x90\xf0\x9f\x98\x90  your appointment at the hairdresser is booked for saturday after uct'
p813
aS'eden snake says you must got for a wash and blow'
p814
aS'hahahahahahaaa idk ask your snake \xf0\x9f\x98\x82\xf0\x9f\x98\x82\xf0\x9f\x98\x82\xf0\x9f\x98\x82'
p815
aS'i wonder \xf0\x9f\x98\x89 what are you gonna get done'
p816
aS'wanna go to the hairdresser'
p817
aS'the bae makes me proud \xf0\x9f\x92\x99'
p818
aS'im becoming a comedian  just cracked my first joke publicly  wait that was lame'
p819
aS'bra i dunno what to do i cant lie and say i miss you too if i dont'
p820
aS'oscar as long as ramires me and willian stay david luiz wont go anywhere we wont let him he is a true blue via \xe2\x80\xa6'
p821
aS'making decisions with your friends'
p822
aS'oscar and luiz are so cute brotp'
p823
aS'god is a chelsea fan'
p824
aS'holy shit chelsea \xf0\x9f\x92\x99\xf0\x9f\x92\x99'
p825
aS'psg have enough money to buy a player disguised as a goalpost'
p826
aS'rt how does one read book without tears oh my gosh yes'
p827
aS'you know '
p828
aS'how are all the faves in one picture \xf0\x9f\x92\x99'
p829
aS'ill whatsapp youuuu'
p830
aS'dem boys though \xf0\x9f\x92\x99\xf0\x9f\x92\x99\xf0\x9f\x92\x99'
p831
aS'how does one read book without tears'
p832
aS'neymar looked so good today and your opinion is invalid'
p833
aS'mcm'
p834
aS'well done bae \xf0\x9f\x91\xaf'
p835
aS'i just want to write june exams mocks and finals and fuck off outaaa this place countingdownthedays'
p836
aS'hopeless love'
p837
aS'lets go on a short holiday to durban in may \xf0\x9f\x91\x8a'
p838
aS'dont make my hopes go up \xf0\x9f\x98\x92'
p839
aS'take me to durban'
p840
asS'2014_16'
p841
(lp842
S'i havent forgotten about you i promise'
p843
aS'is it like really cold or'
p844
aS'such a lovely day \xf0\x9f\x90\xb0\xf0\x9f\x92\x97'
p845
aS'lunch at shimmy \xf0\x9f\x91\x8c'
p846
aS'happy easter \xe2\x9d\xa4\xef\xb8\x8f'
p847
aS'torres is a liability tbh'
p848
aS'officially have no phone'
p849
aS'oscars hair is on point'
p850
aS'god proved his love on the cross when christ hung and bled and died it was god saying to the world i love you happy easter \xe2\x9d\xa4\xef\xb8\x8f'
p851
aS'finally met baby rocco \xf0\x9f\x92\x99\xf0\x9f\x92\x99\xf0\x9f\x92\x99'
p852
aS'my life is like a romantic comedy except there\xe2\x80\x99s no romance and it\xe2\x80\x99s just me laughing at my own jokes'
p853
aS'my life is like a romantic comedy except there\xe2\x80\x99s no romance and it\xe2\x80\x99s just me laughing at my own jokes\xe2\x80\x9d'
p854
aS'i luh ya papi is my new jaaaam'
p855
aS'do you ever get sad over something that happened a long time ago because i do'
p856
aS'i wanna sneak out in the middle of the night and drive to the middle of nowhere and lay in the roof of a car and stare at the\xe2\x80\xa6'
p857
aS'goals'
p858
aS'loyal is such a mad song \xf0\x9f\x91\x8a'
p859
aS'have you had an injection for mumps what an erection for mumps noerection'
p860
asS'2014_17'
p861
(lp862
S'every girls weakness definitely mine \xf0\x9f\x91\x8a'
p863
aS'reminiscing is bad for my emotional well being'
p864
aS'why cant i fucking drive'
p865
aS'the banner though i believe \xf0\x9f\x92\x99\xf0\x9f\x92\x99'
p866
aS'thank you'
p867
aS'yeassssssx'
p868
aS'demba baaaaaaaaa\xe2\x9d\xa4\xef\xb8\x8f\xe2\x9d\xa4\xef\xb8\x8f\xe2\x9d\xa4\xef\xb8\x8f\xe2\x9d\xa4\xef\xb8\x8f'
p869
aS'road trip'
p870
aS'please follow me so i can reply to the dm about address and tel \xf0\x9f\x98\x8a\xf0\x9f\x98\x8a'
p871
aS'my type of guy wow he is my new obsession'
p872
aS'financial aid for life'
p873
aS'one year europe the next south america'
p874
aS'like ive done homework'
p875
aS'he plays in epl though so'
p876
aS'i have 0 done \xf0\x9f\x98\x82'
p877
aS'exhibit a argentinian \xf0\x9f\x98\x8d\xf0\x9f\x98\x8d'
p878
aS'i probably have too many soccer player crushes'
p879
aS'paulos eyes are magic\xf0\x9f\x98\x8d'
p880
aS'hot'
p881
aS'remember when we thought he had a gf \xf0\x9f\x98\x82'
p882
aS'lol thanks for the compliment 0 unbelievable'
p883
aS'chat with with pictures unbelievable'
p884
aS'thank you for taking time out if your day to make some fans happy really appreciate it have a safe flight xx unbelievable'
p885
aS'chad is single and ready to mingle what a great time to be alive unbelievable'
p886
aS'post a selfie unbelievable'
p887
aS'unbelievable\xe2\x80\x9d this is so cute'
p888
aS'chad is fab wow'
p889
aS'serious question why are you topless and why wasnt i invited bestquestion unbelievable'
p890
aS'pictures or its not true'
p891
aS'definitely gonna make a tshirt with that printed on it \xf0\x9f\x98\x9d\xf0\x9f\x98\x9d unbelievable'
p892
aS'hahahahahahaha \xf0\x9f\x99\x88'
p893
aS'did you choose swimming because youre too sexy to do a sport that requires clothes unbelievable'
p894
aS'what made you decide to do an inspirational book unbelievable'
p895
aS'well be definitely be coming down to the fairest cape of them all will keep you posted cant wait unbeliev\xe2\x80\xa6'
p896
aS'yesssssss'
p897
aS'please have a book signing in cape town unbelievable'
p898
aS'gonna have a book signing in cape town loved reading it unbelievable'
p899
aS'hw do u feel about phelps maybe coming out of retirement amp having the opportunity 2 race him againunbelievable'
p900
aS'champions league gt school'
p901
aS'wow you turned out pretty attractive'
p902
aS'torres doesnt even bother'
p903
aS'hope that youre having a successful book launch \xe2\x9d\xa4\xef\xb8\x8f'
p904
aS'happppy birthday luiz \xf0\x9f\x98\x81\xf0\x9f\x98\x81\xf0\x9f\x98\x81'
p905
aS'hair on point'
p906
aS'its like a monday so mcm'
p907
aS'had to be asked oops'
p908
aS'as easter has just passed can i eat chocolate off your body oops'
p909
aS'dat v line \xf0\x9f\x98\xb1\xf0\x9f\x98\xb1\xf0\x9f\x98\xb1'
p910
aS'im in awe pure perfection'
p911
aS'like lower arms too and veins and wow thats my weakness'
p912
aS'arms arms arms arms arms arms arms arms \xf0\x9f\x98\xbb\xf0\x9f\x98\xbb\xf0\x9f\x98\xbb\xf0\x9f\x98\xbb\xf0\x9f\x98\xbb'
p913
aS'soft spot'
p914
aS'finally a surprise tweet well hiiiii \xf0\x9f\x98\x81\xf0\x9f\x98\x81'
p915
aS'early nights and tea \xe2\x9d\xa4\xef\xb8\x8f'
p916
aS'i forgot to tell you that im bringing your easter egg tomorrow \xf0\x9f\x98\x81'
p917
aS'neymar with a fan'
p918
aS'buy me a drill for my birthday so i can do my own diy stuff please'
p919
aS'literally everyone sending me that picture of neymar and niall you guys know me too well \xe2\x9d\xa4\xef\xb8\x8f\xe2\x9d\xa4\xef\xb8\x8f\xe2\x9d\xa4\xef\xb8\x8f'
p920
aS'saw it on instagram and died \xf0\x9f\x98\xb1'
p921
asS'2014_10'
p922
(lp923
S'promises arent meant to be broken'
p924
aS'a little fun never harmed anyone'
p925
aS'im getting hungry '
p926
aS'i will never understand guys with foot fetishes'
p927
aS'you smoke weed wow \xf0\x9f\x91\x8f'
p928
aS'such a shit weekend'
p929
aS'you keep making excuses'
p930
aS'i  am  so  stressed  about  everything  all  the  time '
p931
aS'do you'
p932
aS'sometimes you just need someone to tell you youre not as terrible as you think you are'
p933
aS'sad'
p934
aS'do you wanna build a snowmannnnnn \xe2\x9d\x84\xef\xb8\x8f\xe2\x9b\x84\xef\xb8\x8f\xe2\x9d\x84\xef\xb8\x8f'
p935
aS'\xf0\x9f\x98\x82\xf0\x9f\x98\x82'
p936
aS'i dont get it'
p937
aS'exhibit a the number one reason why my expectations are high'
p938
aS'how do you manage to meet so many boys like'
p939
aS'the worst thing is being attracted to someone but not knowing why'
p940
aS'after this week ill be so happy like lets have a party ill supply alcohol'
p941
aS'your girlfriend is so beautiful sigh'
p942
aS'relationship like scott and kourtney pls'
p943
aS'annoyed as fuck'
p944
aS'worst decision of my life was telling people about you'
p945
aS'i want someone to grind with at a club and cuddle with and talk to and fck'
p946
aS'literal thoughts rn why couldnt i unbutton your pants with my mouth sorrynotsorry oops'
p947
aS'unknown tumblr boys \xf0\x9f\x98\x9e'
p948
aS'what is virginity'
p949
aS'a friend is someone who knows all about you and still loves you'
p950
aS'demi is literally everything i wanna be'
p951
aS'no jayde go do homework'
p952
aS'my project is printing best feeling ever'
p953
aS'pls help me'
p954
aS'saving for when 1d comes to south africa'
p955
aS'this work just isnt getting done im crying'
p956
aS'talk to me \xf0\x9f\x98\xad'
p957
aS'thanks for not replying to my messages you motherfucker'
p958
aS'life feels 100 better if youre wearing a pretty bra'
p959
aS'i think hell is something you carry with you not somewhere you go'
p960
aS'id tap dat'
p961
aS'oops'
p962
aS'horny'
p963
aS'are his jeans so tight sabeegahhe takes skinny jeans to a whole new level wears tights \xe2\x80\xa6'
p964
aS'old love new feelings'
p965
aS'permanently shaking'
p966
aS'on the bright side i went shopping and finally found a maroon colored tshirt that ive been looking for for ages \xf0\x9f\x91\x8c'
p967
aS'stress levels right now'
p968
aS'my advert looks pretty legit though \xf0\x9f\x91\xbd'
p969
aS'this project is getting nowhere'
p970
aS'feeling some neymar on my phone today \xf0\x9f\x91\x8c neymar phone cover iphone slelfie boyfriend bae'
p971
aS'a certain darkness is needed to see the stars'
p972
aS'i hate when i dream about hot guys that dont exist \xf0\x9f\x98\xbf\xe2\x80\x9d we are one'
p973
aS'cocktails and projects dont go well together'
p974
aS'love of my life \xf0\x9f\x92\x99'
p975
aS'goodnight'
p976
aS'3 hours of sleep k'
p977
aS'done'
p978
aS'raise your hand if you have a hopeless crush on someone you can never call yours'
p979
aS'my mommy stayed awake with me while im studying best mommy \xe2\x9d\xa4\xef\xb8\x8f'
p980
aS'why am i watching national geographic'
p981
aS'this night before studying is becoming a problem'
p982
aS'haha  physically  sick  because  of  stress'
p983
aS'say hello'
p984
aS'irrelevanttoday i cried bc overwhelmed with stress and pressure then i realized that i better wipe my tears and be productive'
p985
aS'living life on the edge'
p986
aS'alone at home if the electricity goes off again im gonna shit myself'
p987
aS'my mommy is so supportive bc i was proactive and made sure that theres ink and not just night before'
p988
aS'awkward saarah gt no saarah'
p989
aS'studied in the dark with a candle and on the verge of asking my neighbor to print for me am i african yet'
p990
aS'ill miss you too much though'
p991
aS'fucking annoyed'
p992
aS'this fucking electricity i need to print my fucking project you fuckers'
p993
aS'my loves\xf0\x9f\x98\x8d'
p994
aS'the brazil national team gt you'
p995
aS'dont bother im not interested anyway'
p996
aS'too tired to do anything'
p997
ag403
aS'first day if being vegetarian \xe2\x9c\x85'
p998
aS'i wanna give you a kisssss'
p999
aS'been thinking about you a lot lately'
p1000
aS'soccer gt fake bitches oops'
p1001
aS'motm \xf0\x9f\x98\x98'
p1002
aS'ssfootball neymaarrrrr'
p1003
aS'noscar makes me smile so much \xf0\x9f\x98\x8d\xf0\x9f\x98\x8d\xf0\x9f\x98\x8d\xf0\x9f\x98\x8d\xf0\x9f\x98\x8d\xf0\x9f\x98\x8d\xf0\x9f\x98\x8d\xf0\x9f\x98\x8d\xf0\x9f\x98\x8d'
p1004
aS'noscar pls'
p1005
aS'babbbyyyyy'
p1006
aS'braaaazzziiiillllll dayum'
p1007
aS'hoje tem amistoso brasil x \xc3\xa1frica do sul boa sorte a todos os meus amigos good luck to my friends'
p1008
aS'who is neymar and why is he in south africa  ewww'
p1009
aS'what was i even thinking'
p1010
aS'he took their hands im depressed'
p1011
aS'dat hair doe'
p1012
aS'my mom making pancakes nutella caramel banana cream and cinnamon sugar youre doing it right mom'
p1013
aS'\xf0\x9f\x99\x8b\xf0\x9f\x99\x8b\xf0\x9f\x99\x8b\xf0\x9f\x99\x8b\xf0\x9f\x99\x8b\xf0\x9f\x99\x8b\xf0\x9f\x99\x8b'
p1014
aS'pancakes was good'
p1015
aS'jared leto is prettier than you'
p1016
aS'jaymar le clos threesome pls'
p1017
aS'im telling myself that i can only eat pancakes after i study'
p1018
aS'neymar looks so good paapi'
p1019
aS'im so fucking distracted rn'
p1020
aS'im going to go drown my sorrows in studying'
p1021
aS'they signed autographs ek huil'
p1022
aS'dont do this to me \xf0\x9f\x98\xad\xf0\x9f\x98\xad secretly thanks you'
p1023
aS'brazilian national soccer team '
p1024
aS'i wanna go to johannesburg'
p1025
aS'oscar is so cute my life is sad'
p1026
aS'i just wanna be happy but at the rate my life is going at now'
p1027
aS'jared leto is my guilty pleasure oops'
p1028
aS'fighting a battle with yourself is one of the hardest'
p1029
aS'you dont even care'
p1030
aS'i seriously need to stop feeling this nervous ball of stress in my stomach'
p1031
ag403
aS'whats an acceptable time to go sleep nowadays'
p1032
aS'doing something weird that you think only you do but then finding out that your best friend does it too best feeling'
p1033
aS'versatile boys have more fun'
p1034
aS'how does lupita manage to kill every red carpet fuck shes beautiful'
p1035
aS'the neymar feels are real yo'
p1036
aS'babies \xf0\x9f\x98\x8d\xf0\x9f\x98\x8d\xf0\x9f\x98\x8d\xf0\x9f\x98\x8d\xf0\x9f\x98\x8d\xf0\x9f\x98\x8d'
p1037
aS'my poor heart'
p1038
aS'and oscar and luiz and bernard'
p1039
aS'neymar is in south africa'
p1040
asS'2014_11'
p1041
(lp1042
S'super small world'
p1043
aS'every weakness you have is an opportunity for god to show his strength in your life'
p1044
aS'who is this and where can i buy one'
p1045
aS'who wants to listen to a sob story'
p1046
aS'hating on her aint gonna make you love me any more'
p1047
aS'im in bed with 6 pillows talk about cuddles'
p1048
aS'today i nearly bought a stellies tshirt'
p1049
aS'care too much of what others think insecurities'
p1050
aS'heartache is all it brings'
p1051
aS'i dont think it ever needs to be spoken of \xf0\x9f\x98\x90'
p1052
aS'haha okay ill see which ever ones they have in stock \xf0\x9f\x91\x8d its an online shop that moves from markets to lil boutiques'
p1053
aS'dating my best friends ex was always on my bucket list but after this weekend hell fucking no'
p1054
aS'i really cant \xf0\x9f\x99\x88 between wasted aint no wifey you cant sit with us and selfie'
p1055
aS'iphone fell again casual'
p1056
aS'boys dont like sad girls'
p1057
aS'forgiveness is a process'
p1058
aS'my crush wont follow me back how awks'
p1059
aS'my new tshirt is better than yours'
p1060
aS'if god is for us who can be against us'
p1061
aS'today is my 2nd birthday im 21 years old but 2 years ago today i finally started living im so beyond gratefulitwork\xe2\x80\xa6'
p1062
aS'its the little things that bother me the most '
p1063
aS'ok '
p1064
aS'possibly'
p1065
aS'being unwanted isnt a new thing for me'
p1066
aS'nothing even makes me happy'
p1067
aS'why did i even think any more of you'
p1068
ag403
aS'admit it youre missing someone who doesnt even think about you'
p1069
aS'best friends dont do this to each other'
p1070
aS'might as well just die kill me now'
p1071
aS'heart just dropped lost appetite'
p1072
aS'couldnt possibly feel more stupid and ugly'
p1073
aS'days like today remind me why i want to die'
p1074
aS'ive always been kind of a loner'
p1075
aS'woah'
p1076
aS'this is the best day of my life'
p1077
aS'i didnt get a video  only got a video of youuuu \xf0\x9f\x98\x84\xf0\x9f\x98\x84\xf0\x9f\x98\x84'
p1078
aS'\xf0\x9f\x98\x93'
p1079
aS'dat dance moves doe'
p1080
aS'constantly figuring out if im sick or if its just emotional sickness'
p1081
aS'excuse my french prefect but holy motherfucker i am proud of youuuuu \xe2\x9d\xa4\xef\xb8\x8f\xe2\x9d\xa4\xef\xb8\x8f\xe2\x9d\xa4\xef\xb8\x8f\xe2\x9d\xa4\xef\xb8\x8f\xe2\x9d\xa4\xef\xb8\x8f'
p1082
aS'sigh sigh sigh i dont wanna be sad'
p1083
aS'its funny how you call hugging cuddling whut'
p1084
aS'wtf since when is there cricket all over my tlhaha same here'
p1085
aS'wtf since when is there cricket all over my tl'
p1086
aS'nope not jealous at all'
p1087
aS'mushrooms are more closely related to human beings than they are to plants\xe2\x80\x9d cough cartilage cough'
p1088
aS'i need to stop imagining scenarios that have a 2 chance of happening'
p1089
aS'babe amp \xe2\x80\x9cbaby creep me out if you wanna give me a pet name call me something cute like esteban julio ricardo montoya\xe2\x80\xa6'
p1090
aS'i have da best daddy'
p1091
aS'trust me to not be sleepy when i can actually sleep'
p1092
aS'why did i stress about yesterdays math test'
p1093
aS'love will tear us apart'
p1094
aS'the things i find on desk \xf0\x9f\x98\x90\xf0\x9f\x98\x90\xf0\x9f\x98\x90'
p1095
aS'adorable oops'
p1096
aS'mei dont like you sees picture'
p1097
aS'jay seans old songs \xf0\x9f\x91\x8c'
p1098
aS'reply to me den'
p1099
aS'i thought my now id get my shit together and study oh well chocolate and coke in bed while watching tv sounds promising too'
p1100
aS'happy birthday \xf0\x9f\x91\xaf\xf0\x9f\x91\xaf'
p1101
aS'how is rafaella only 18 \xf0\x9f\x98\x90'
p1102
aS'wishes electricity goes off has excuse for doing bad in my test tomorrow'
p1103
aS'im so exhausted physically and mentally i just want a hug'
p1104
aS'that jelena video is actually hot'
p1105
aS'if you care enough this is actually my life'
p1106
aS'sad teens with happy faces'
p1107
aS'nausea tablets to the rescue'
p1108
aS'please lord let me sleep by 2'
p1109
aS'anxiety'
p1110
aS'let go and let god'
p1111
aS'some inspo'
p1112
aS'1030 0130 intense math session leggo'
p1113
aS'fokol motivation'
p1114
aS'all the guys that ive had feelings for screwed me over one way or another i cant win can i'
p1115
aS'why havent i left procrastination station yet'
p1116
aS'what rock where'
p1117
aS'why does this bother me so much omg'
p1118
aS'stop stalking my tweets i see you'
p1119
aS'lol my obsessions bother people uh no thank you'
p1120
aS'wtf leave me alone'
p1121
aS'thanks'
p1122
aS'if i understood math life would be better'
p1123
aS'hope youre having a lovely day \xe2\x9d\xa4\xef\xb8\x8f'
p1124
asS'2014_12'
p1125
(lp1126
S'2 years 7 months \xf0\x9f\x92\x94 oh how time has passed by'
p1127
aS'you annoy me so much fuck'
p1128
aS'how many cans of red bull does everyone think di maria had before the match my estimate is 24'
p1129
aS'el clasico is porn for all soccer fans'
p1130
aS'benzemaaaaa '
p1131
aS'ew'
p1132
aS'bernabeau looks beautiful'
p1133
aS'and they call it puppy love i guess theyll never know'
p1134
aS'youre a vision of ecstasy'
p1135
aS'ive slept the entire day and if i close my eyes now i would fall asleep'
p1136
aS'sigh \xf0\x9f\x98\xad\xf0\x9f\x98\xad'
p1137
aS'these tablets are disgusting \xf0\x9f\x98\xad\xf0\x9f\x98\xad'
p1138
aS'is it weird that gaybi guys turn me on im a girl \xe2\x80\x94 no'
p1139
aS'i pray dat i never had homework'
p1140
aS'someone come to my house and dry my hair ill pay'
p1141
aS'apparently you have to eat if youre gonna be taking pain killers'
p1142
aS'i literally slept the whole day i have no life'
p1143
aS'should probably get out of bed'
p1144
aS'no boundaries'
p1145
aS'my phone is gonna die and i have no charger \xf0\x9f\x98\xad\xf0\x9f\x98\xad\xf0\x9f\x98\xad\xf0\x9f\x98\xad'
p1146
aS'matthew is so cuuuuute'
p1147
aS'i forgave you long time ago'
p1148
aS'yes i know bitch'
p1149
aS'sitting at waterfront reevaluating my life fab'
p1150
aS'blue ivys snacks'
p1151
aS'skype is what keeps me sane tbh'
p1152
aS'neymar to thiago silva a brother is not always a friend but a friend is always a brother and you are one'
p1153
aS'why cant i be in paris right now and have my dream french wedding \xf0\x9f\x98\xad\xf0\x9f\x98\xad\xf0\x9f\x98\xad\xf0\x9f\x98\xad'
p1154
aS'ive never felt that anyone has ever loved me more than what i loved them'
p1155
aS'can i please turn 18 asap'
p1156
aS'i loved her i really did i still love her'
p1157
aS'apple beer uh ok'
p1158
aS'mentally preparing myself for the bachelorette'
p1159
aS'shes not even that pretty yusssss'
p1160
aS'my logic work whole week spend all money on clothes on the weekend'
p1161
aS'do you wanna see something cute '
p1162
aS'thanks daddy'
p1163
aS'pretty boys  weakness'
p1164
aS'me yea he is not my crush anymore i dont like him  sister speaks about him internal conflict'
p1165
aS'movie night at my house tonight ill supply popcorn'
p1166
aS'i came out from under my rock selfie'
p1167
aS'just ate the best tasting cupcake ever'
p1168
aS'difference between depressed and just wanting to be quiet'
p1169
aS'my face is burning uhhh'
p1170
aS'me im going to the rugby dad since when are you interested in rugby me i just wanna go see hot boys what am i why did i tell him'
p1171
aS'forever wondering where broken hearts go'
p1172
aS'you know that theres something wrong yet youll never ask great friend arent you'
p1173
aS'winter pajamas gt'
p1174
aS'neymar and davi my heart is melting'
p1175
aS'motherfucking bitch'
p1176
aS'chanel'
p1177
aS'i start work in 30 minutes and im exhausted oh gosh the things i do to earn money \xf0\x9f\x98\x92'
p1178
aS'my toes are getting cold but im too lazy to get socks \xf0\x9f\x98\x93'
p1179
aS'when do i get to party my eyebrows off'
p1180
aS'probably not but okay ill try to make sense of you '
p1181
aS'huh'
p1182
aS'tbh its not worth it life is too short'
p1183
aS'youre too clever \xf0\x9f\x91\x8f\xf0\x9f\x91\x8f\xf0\x9f\x91\x8f'
p1184
aS'downhill battle'
p1185
aS'lekker sounds like a plan'
p1186
aS'being ugly comes natural to me though \xf0\x9f\x98\x90 but if i ever need help ill know who to go to '
p1187
aS'but you pretty though'
p1188
aS'it seems like no one understands but then again i also make no effort to try and make people understand so'
p1189
aS'too much time to think i need to be distracted'
p1190
aS'confession hour'
p1191
aS'i get sad every time im reminded of you'
p1192
aS'im working to make money bc my lifestyle is just not working out'
p1193
aS'shakirawhen you feel complete you dont need to get married and you dont think about it whatever pique is mine nowpr\xe2\x80\xa6'
p1194
aS'the day i actually decide to do something useful and make pancakes theres no eggs'
p1195
aS'goodnight \xf0\x9f\x91\xbd\xe2\x9d\xa4\xef\xb8\x8f\xf0\x9f\x91\xbd'
p1196
aS'why wont you love me'
p1197
aS'goodbye'
p1198
aS'hellloooo \xf0\x9f\x91\xbd'
p1199
aS'this is literally like midnight hair dos wtf when can i go sleep'
p1200
aS'things change i guess'
p1201
aS'ewwww why you so cute man \xf0\x9f\x98\x93'
p1202
aS'gotten to the stage where ill pay people to live my life'
p1203
aS'haha  still  doing  accounting  thats  worth  fokol  marks  kmn'
p1204
aS'nobody cares bitch'
p1205
aS'will pay you to do my accounting'
p1206
asS'2014_13'
p1207
(lp1208
S'ill give it a look at \xf0\x9f\x91\x8d'
p1209
aS'i care too much and it hurts'
p1210
aS'no didnt even know there was a book \xf0\x9f\x99\x8a'
p1211
aS'lost souls'
p1212
aS'sister why do you have a whole pack of oreos in your draw uhhhh'
p1213
aS'how do you manage to like somebody without even properly knowing them'
p1214
aS'i have headaches in my eyes'
p1215
aS'come home already'
p1216
aS'is victoria beckham still here'
p1217
aS'happy birthday bae \xf0\x9f\x92\x97'
p1218
aS'mixing drinks is probably the dumbest thing to do'
p1219
aS'trust me to miss you replying to people \xf0\x9f\x98\xad'
p1220
aS'said ill always be your friend took an oath ima stick it out till the end'
p1221
aS'what home africa home \xf0\x9f\x90\x98'
p1222
aS'sure thats exactly what i meant \xe2\x9c\x8c\xef\xb8\x8f'
p1223
aS'what does that even mean'
p1224
aS'being thirsty at 2am whyyyyyy'
p1225
aS'babbbyyyy'
p1226
aS'what even is it with straight girls and gay porn idgi'
p1227
aS'idk sometimes i feel like an ugly step sister in this house'
p1228
aS'you get a neymar cutout where have i been all my life'
p1229
aS'tea and chocolate muffins'
p1230
aS'sure nice come back \xf0\x9f\x98\x98'
p1231
aS'you didnt ask me ifeelsospecial'
p1232
aS'true story bro'
p1233
aS'ive been crazy for you all this time ive kept it close always hoping'
p1234
aS'the problem is that i care too much about people who dont give a shit about me'
p1235
aS'done'
p1236
aS'ive been crazy for you all this time know the feel girl \xf0\x9f\x92\x95\xf0\x9f\x92\x95\xf0\x9f\x92\x95'
p1237
aS'why is your tshirt off and why arent i there'
p1238
aS'why am i happy this isnt the norm'
p1239
aS'happy for no reason k den'
p1240
aS'ive been crazy for you all this time'
p1241
aS'lets play strip poker oops'
p1242
aS'boyfriend like kyle please'
p1243
aS'awks when your real crush is your mcm'
p1244
aS'gisele and neymar woah'
p1245
aS'movie night yes please'
p1246
aS'\xe2\x9d\xa4\xef\xb8\x8f'
p1247
aS'my twitter keeps on unfollowing and following random people k den'
p1248
aS'onesie weather \xf0\x9f\x98\x81'
p1249
asS'2014_8'
p1250
(lp1251
S'goodnight lovely people \xf0\x9f\x91\xbd'
p1252
aS'i literally say yes to everything'
p1253
aS'who are you living for our society or for yourself'
p1254
aS'why is twitter being so active now like hello i wanna go sleep'
p1255
aS'druggie'
p1256
aS'midnight snack \xf0\x9f\x98\xa3'
p1257
aS'waiting for the chance but it seems like its impossible'
p1258
aS'my biggest fear is that one day you will see me the way that i see myself'
p1259
aS'basically i remember too fucking much'
p1260
aS'tbh i remember way too much small detail that nobody would even think twice about'
p1261
aS'my mind is crowded with all these thoughts of you'
p1262
aS'jealousy or care'
p1263
aS'dont let this go to your head but youre the best i ever had'
p1264
aS'lovely day \xe2\x9d\xa4\xef\xb8\x8f'
p1265
aS'moody af go away'
p1266
aS'finally dat lo project \xe2\x9c\x85'
p1267
aS'take me to yde pls'
p1268
aS'i either dress like im going to a red carpet event or like im a homeless drug addict there is no in between'
p1269
aS'its doesnt really work when my biggest fear is rejection but i also live by you never know if you dont try life is hard'
p1270
aS'i want a krusher'
p1271
aS'come to my house'
p1272
aS'older boyfriend that will drive me places please'
p1273
aS'i just wanted some good relationship with you but it seems like youre not even interested in being my friend k den'
p1274
aS'you didnt ask thats what hurts the most'
p1275
aS'isco dedicated his goal to his unborn baby'
p1276
aS'self diagnosed depression'
p1277
aS'how can you miss something you never ever had'
p1278
aS'yusssss'
p1279
aS'yes yes yes just tell me what to do'
p1280
aS'im indecisive how can you tell me lets do something and not expect me to ask what'
p1281
aS'lis vir niks'
p1282
aS'fuck fake love amp half ass friends'
p1283
aS'just used dtk for the first time in years  see everything about you reminds me of home p miss you like cra\xe2\x80\xa6'
p1284
aS'my friday lo project whatfuckery'
p1285
aS'someone come with me to the movies tomorrow \xf0\x9f\x98\x9e nofriends'
p1286
aS'i massively fluctuate between feeling totally ready to leave home for university and being terrified and not wanting to \xe2\x80\xa6'
p1287
aS'regretting it so badly rn '
p1288
aS'i still wonder how my best friend and i are best friends we are totally different and get on each others nerves every 5 m\xe2\x80\xa6'
p1289
aS'why is everyone talking about their matric jersey and why didnt i get mine'
p1290
aS'battl\xc7\x9dfield'
p1291
aS'no \xc7\x9dmotions'
p1292
aS'battl\xc7\x9dfield'
p1293
aS'no \xc7\x9dmotions'
p1294
aS'but it taste so gooood'
p1295
aS'what surprises me most is that you remembered me'
p1296
aS'awkward life this is'
p1297
aS'math jokes aren\xe2\x80\x99t funny nothing about math is funny math is a sin'
p1298
aS'perfect amount of arm veins \xf0\x9f\x91\x8c'
p1299
aS'the more crap you go through the more you kind of want to be alone'
p1300
aS'i feel like a vida frio rn \xf0\x9f\x98\x94'
p1301
aS'zayn and louis went back to zayns house and had their own party their after the brit awards\xe2\x80\x9d 420 blaz\xe2\x80\xa6'
p1302
aS'happy birthday queen'
p1303
aS'so much happier with my new essay \xf0\x9f\x91\x8d'
p1304
aS'this is so awkward why why why'
p1305
aS'goodnight then'
p1306
aS'0 motivation'
p1307
aS'will the brits ever show in south africa'
p1308
aS'english essay is giving me headaches'
p1309
aS'happy birthday hope you had a lovely day so far xx'
p1310
aS'im on 97 \xf0\x9f\x98\x81\xf0\x9f\x98\x81'
p1311
aS'brits2014 britsonedirection'
p1312
aS'britsonedirection'
p1313
aS'whats your high score'
p1314
aS'zouis zouis zouis zouis'
p1315
aS'weekly conversation with friend talks about missioning for a matric dance partner'
p1316
aS'zarry though'
p1317
aS'jayde we brought pizza me goes down to eat me goes back to room dad what did you just come downstairs to eat what do u expect\xf0\x9f\x98\x82'
p1318
aS'aint nobody got time for boi drama'
p1319
aS'dis is discrimination for not showing da brits'
p1320
aS'its 830 and im in bed what is matric'
p1321
aS'need to learn the balance between being nice and being awkward help'
p1322
aS'i dont really wanna sleep i just wanna do nothing '
p1323
aS'i was just being nice \xf0\x9f\x98\x93'
p1324
aS'you stupid insensitive cunt'
p1325
aS'i love you \xf0\x9f\x8c\xb8\xf0\x9f\x8c\xb8'
p1326
aS'can i go sleep'
p1327
aS'literally started breathing faster when i saw neymars last ig'
p1328
aS'stupid oral \xe2\x9c\x85'
p1329
aS'can someone pls volunteer to give me advice'
p1330
aS'lekker alone at home'
p1331
aS'i just wanna have a sleep over with my friends like just chill watch cute movies and eat unhealthy food'
p1332
aS'oh really you love her wow'
p1333
aS'i wish i wasnt so emotional'
p1334
aS'there is wifi in africa ya know'
p1335
aS'okay fuck im ready to fall inlove now'
p1336
aS'why do teachers force us to speak about ourselves like hello i have no future and youre just rubbing it in'
p1337
aS'me picks up phone  oh wow why do you sound so down and out'
p1338
aS'maybe maybe not \xf0\x9f\x98\x88'
p1339
aS'comn its not that bad \xf0\x9f\x98\x82'
p1340
aS'dead ends '
p1341
aS'still trying to fugure out if its a good or bad thing \xf0\x9f\x98\x82\xf0\x9f\x98\x82\xf0\x9f\x98\x82\xf0\x9f\x98\x82'
p1342
aS'maybe if my face didnt look as shit id feel better'
p1343
ag403
aS'sorry but you try too hard'
p1344
aS'my eyes are already closing but i wanna watch the soccer'
p1345
aS'reason 1 why demi is queen'
p1346
aS'yes its always my fault'
p1347
aS'forever procrastinating'
p1348
aS'why didnt you say hello'
p1349
aS'hi'
p1350
aS'i keep telling myself that writing an oral cant take that long and therefore i can lay on my bed for longer \xf0\x9f\x91\x8d'
p1351
aS'one of those days where you just need a bottle of vodka and a tub of chocolate icecream'
p1352
aS'anything is possible  my bird could lose weight on the way and fit through the pipes \xf0\x9f\x98\x82\xf0\x9f\x98\x82'
p1353
aS'still figuring out being nice or being annoying'
p1354
asS'2014_9'
p1355
(lp1356
S'self implicated awkwardness its only awkward bc in my head you were mine but in reality im nothing to you'
p1357
aS'just wanna talk to someone but no bc awkward'
p1358
aS'here we go again with your mixed signals and my second thoughts'
p1359
aS'theres that denim shirt shoot that neymar did and its up in waterfront and aye papi i wanted to steal it'
p1360
aS'literal faves'
p1361
aS'why do you have to be so nice i dont want to like you'
p1362
aS'making conversations in my head but you dont follow it'
p1363
aS'study or sleep'
p1364
aS'such a lovely day with family and friends \xf0\x9f\x92\x99'
p1365
aS'what to do when a boy makes fun of your shoes \xf0\x9f\x98\x9e'
p1366
aS'shaved zayn is m favorite zayn'
p1367
aS'baby boy you stay on mind fulfill my fantasies'
p1368
aS'its awkward bc they probably see me looking at them funny \xf0\x9f\x98\x82'
p1369
aS'today i literally sat in a public place and silently judged everyone that walked past me there are some weird characters in cape town oops'
p1370
aS'ill pay you in sexual favors who wants your sexual favors anyway my que to go study'
p1371
aS'this is called sacrifice'
p1372
aS'hahahaha \xf0\x9f\x98\x82\xf0\x9f\x98\x82\xf0\x9f\x98\x82'
p1373
aS'everyone is watching a movie downstairs and im about to study lekker saturday'
p1374
aS'my new phone cover \xf0\x9f\x92\x99\xf0\x9f\x92\x9c\xf0\x9f\x92\x99'
p1375
aS'i found a jeans that i actually like finally'
p1376
aS'new phone cover from forever new \xf0\x9f\x91\x8c'
p1377
aS'dat arms doe im in love'
p1378
aS'my sister annoys me'
p1379
aS'the only thing thats getting me through doing work is bangerz'
p1380
aS'going to attempt to go vegetarian as of wednesday \xf0\x9f\x91\x8d'
p1381
aS'how come we didnt have a chadfest in along time  '
p1382
aS'hi'
p1383
aS'someone do my geography project for me ill pay you in money favors and food'
p1384
aS'my ex crush can fly a plane jeez ive been playing'
p1385
aS'who likes you anyway eewww'
p1386
aS'shes depressed and you judge her'
p1387
aS'dis is so awkward'
p1388
aS'cause ive been doing forensic on your body in this clubi can tell the way you walk your body aint been touched the right way'
p1389
aS'i shouldnt feel special but i do \xf0\x9f\x98\x82'
p1390
aS'must you like every fucking thing i like'
p1391
aS'why are tickets to johannesburg so expensive next week'
p1392
aS'he remembers me not sure if i should feel special or freaked out'
p1393
aS'i made a bet with a boy about not talking to me and its like 2 years later and we still havent spoken am i dat lame'
p1394
aS'they everywhere they like living close to water \xf0\x9f\x98\x89'
p1395
aS'whats new '
p1396
aS'ones that are not inside houses'
p1397
aS'never be angry at people'
p1398
aS'are we talking about the same cockroach here \xf0\x9f\x98\x82'
p1399
aS'you just called me bitch \xf0\x9f\x98\xb1 k whatevs i love you'
p1400
aS'you do know that theres land on the sides of the river right \xf0\x9f\x98\x82'
p1401
aS'k'
p1402
aS'everyone thinks im sleeping lol'
p1403
aS'i said no expectations \xf0\x9f\x98\x81'
p1404
aS'and how the hell do you know that'
p1405
aS'cough orange river cough'
p1406
aS'i find this hilarious oops'
p1407
aS'i thought you were happy not talking to me  haha okay no expectations just do your best \xf0\x9f\x8c\xb8'
p1408
aS'ha  im  such  a  loner '
p1409
aS'its not stalking if i genuinely care about you'
p1410
aS'sometimes i read your tweets just see how youre doing'
p1411
aS'does the somebody have to pass the test \xf0\x9f\x98\x82'
p1412
aS'chocolate brownie milkshakes from primi \xf0\x9f\x98\x8d'
p1413
aS'goodluck for tomorrow lovelies \xe2\x9d\xa4\xef\xb8\x8f study lekker x'
p1414
aS'not meeeeee \xf0\x9f\x98\x81'
p1415
aS'im feeling like right now i wish you were here with me cause right now everything is new to me'
p1416
aS'physically and mentally exhausted'
p1417
aS'i never ever like you oops'
p1418
aS'wow fiji looks amazing \xe2\x9d\xa4\xef\xb8\x8f'
p1419
aS'have fun and behave yourself \xf0\x9f\x98\x98'
p1420
aS'im really stupid when im tired'
p1421
aS'study in morning im way too tired rn'
p1422
aS'i might or might not have just threatened my daddy that he cant go with josh to brazil match if i dont go with oops \xe2\x9a\xbd\xef\xb8\x8f\xf0\x9f\x99\x8b please lemme go'
p1423
aS'i didnt think id ever be lucky to get both but hey if i can why not '
p1424
aS'who says i want dem french boy'
p1425
aS'can i also get married in paris no ok'
p1426
aS'why are you so cute \xf0\x9f\x98\xad\xf0\x9f\x98\xad\xf0\x9f\x98\xad'
p1427
aS'nervous ball of stress in my stomach'
p1428
aS'ive watched it  i just dont remember him \xf0\x9f\x98\xa3'
p1429
aS'passed my goal on flappy bird dis is my que to do some accounting'
p1430
aS'i think my biggest problem is being nice to people'
p1431
aS'oh you can make time for all your other friends but me oh ok cool'
p1432
aS'smoke 2 blunts at once call me double jointed'
p1433
aS'are the oscars showing in south africa'
p1434
aS'goodbye is the only perfect thing we have'
p1435
aS'jonathan dos santoss fashion though \xf0\x9f\x91\x8c'
p1436
aS'still considering italian or french boys \xf0\x9f\x91\xbd'
p1437
aS'say something i wanna fuck you'
p1438
aS'every time you pat me im gonna hug you \xf0\x9f\x92\x81 hashtag like to be annoying'
p1439
aS'venting session needed'
p1440
aS'\xf0\x9f\x98\x82\xf0\x9f\x98\x82\xf0\x9f\x98\x82\xf0\x9f\x98\x82 it was my only reaction'
p1441
aS'\xf0\x9f\x98\x82\xf0\x9f\x98\x82\xf0\x9f\x98\x82\xf0\x9f\x98\x82 i got you bro patpat'
p1442
aS'someone listen to me complain'
p1443
aS'i need to study accounting but no im in bed bc moody and no shits are given'
p1444
aS'not sure if it sounded right but you get what i mean right'
p1445
aS'whos a pussie awh whos a lil pussie me rubspats your head'
p1446
aS'not interested \xf0\x9f\x98\x9e'
p1447
aS'\xf0\x9f\x98\x92'
p1448
aS'lame'
p1449
aS'you suck'
p1450
aS'im going with a reply from neymar is impossible'
p1451
aS'i love you k bye'
p1452
aS'hello'
p1453
aS'are you coming to south africa like really really'
p1454
aS'yes its me im sorry for being moody i choose to be moody yes you fuck face'
p1455
aS'can i have some of you who ever you are'
p1456
aS'im going with crying now and later'
p1457
aS'neymar is gonna be here and im not gonma see him its only just sinking in do i cry now or later'
p1458
aS'alves and neymar have been called up by brazil for the friendly against south africa in johannesburg on wednesday 5 march \xe2\x80\xa6'
p1459
aS'someone come with me to eminem \xf0\x9f\x91\xaf'
p1460
aS'haha this  is  depressing '
p1461
aS'i keep telling myself that its okay but sometimes i just wonder'
p1462
asS'2014_6'
p1463
(lp1464
S'goodnight'
p1465
aS'i love you stay strong and keep smiling \xe2\x9d\xa4\xef\xb8\x8f'
p1466
aS'my dogs keep on barking im scared '
p1467
aS'sad people make me sad'
p1468
aS'make me go sleep'
p1469
aS'person do you have a boyfriend me are you making fun of me'
p1470
aS'i cant sleep and im tired this is not a good combination'
p1471
aS'pat pat'
p1472
aS'i wanna sleep'
p1473
aS'i cant fall asleep \xf0\x9f\x98\x93\xf0\x9f\x98\x93'
p1474
aS'why is one direction on my tv i wanna go sleep'
p1475
aS'so tired yoh'
p1476
aS'its small and meaningful \xe2\x9d\xa4\xef\xb8\x8f'
p1477
aS'this is one of the most beautiful tattoos i have ever seen'
p1478
aS'i was trying to be romantic'
p1479
aS'i just want a cross tattoo is that too much to ask for'
p1480
aS'swallowing rn has got to be the worst'
p1481
aS'neymar winking has the ability to make one horny oops sorry not sorry'
p1482
ag403
aS'ya haley care to explain'
p1483
aS'and i was being sarcastic thats all'
p1484
aS'its weird but sundays are my happy days'
p1485
aS'you know too much'
p1486
aS'ramoss new icon \xf0\x9f\x98\x8d\xf0\x9f\x98\x8d\xf0\x9f\x98\x8d\xf0\x9f\x98\x8d'
p1487
aS'cute relationship please'
p1488
aS'why are you this sassy tonight'
p1489
aS'laughing bc that wasnt even a joke'
p1490
aS'lol ja tell yourself that im not funny the next time you laugh at my jokes \xf0\x9f\x98\x82'
p1491
aS'you actually not funny'
p1492
aS'i miss you so much it makes me feel so empty inside that i actually get hungry  \xe2\x99\xa1 tehehe d \xe2\x99\xa5 \xe2\x99\xa5'
p1493
aS'yes bc i am and so are you'
p1494
aS'hahahaha fine i agree youre amazing'
p1495
aS'oh wow youre funny'
p1496
aS'who says im single tho \xf0\x9f\x98\x88 oh'
p1497
aS'i made it to my bathroom basin and its white and the blood just poured out what a scene'
p1498
aS'did you just call yourself amazing'
p1499
aS'there is blood everywhere'
p1500
aS'fucking nose bleed'
p1501
aS'you never ever cared but i always did thats why it hurts i guess'
p1502
aS'it bothers me that i remember everything'
p1503
aS'why does my father hate neymar this much \xf0\x9f\x98\xad like get to love your son in law you fool'
p1504
aS'can i also take selfies with you'
p1505
aS'hope you had a good day \xf0\x9f\x8c\xb8'
p1506
aS'i had a dream that i went on a date in paris to this beautiful cinema'
p1507
aS'can united sack moyes for just one match and then assign him again we need united to win against arsenal'
p1508
aS'going through old pictures and i see a screen grab of a message that says  i hope we friends forever oh how things have changed \xf0\x9f\x98\x9e'
p1509
aS'i just want to be happy with my body and face tho'
p1510
aS'do u ever want to punch yourself in the face for liking someone a lot'
p1511
aS'tbh the hardest time to study is when you know enough to pass but you want a good mark the lack of motivation is real'
p1512
aS'pleasure \xe2\x98\xba\xef\xb8\x8f'
p1513
aS'stop stressing \xe2\x9d\xa4\xef\xb8\x8f'
p1514
aS'happy birthday wade \xf0\x9f\x98\x84 hope you had a lovely day xx'
p1515
aS'do you ever just oops'
p1516
aS'can i be done studying already \xf0\x9f\x98\x9e'
p1517
aS'isnt keagan your lover boi dis is my que to leave why do i even have to deal with dis'
p1518
aS'procrastination station'
p1519
aS'5 minutes then im going to die in a hole'
p1520
aS'50 shades of so over this shit goodnight'
p1521
aS'i know i mess things up sometimes but im really trying'
p1522
aS'18th birthday present maybe'
p1523
aS'i wanna get a tattoo really badly now'
p1524
aS'best friend lets do this'
p1525
aS'honey he gay'
p1526
aS'perk of dating me i have no social life so we can hang out whenever it\xe2\x80\x99s convenient for you'
p1527
aS'sometimes i wish i wasnt this sentimental i wish id forgotten by now'
p1528
aS'metro boys gtgtgt'
p1529
aS'do you remember telling me that youll take me to go play water golf clearly not'
p1530
aS'so i told my mom that i think im suffering from anxiety and stress lets see what happens'
p1531
aS'tbh as much as id like to be myself i constantly feel like im being judge thank you society'
p1532
aS'you said you loved me youre a liar cause you never ever ever did baby'
p1533
aS'maybe if you replied to my message life would be easier'
p1534
aS'youre an attention seeking individual arent you'
p1535
aS'early night \xf0\x9f\x91\x8d'
p1536
aS'dont get too close its dark inside its where my demons hide its where my demons hide'
p1537
aS'yess yess yess \xf0\x9f\x98\x84\xf0\x9f\x98\x84'
p1538
aS'see ya there \xf0\x9f\x99\x8b'
p1539
aS'doing a test that says you have severe depression great'
p1540
aS'oh dear god jesus take the wheel love love love love'
p1541
aS'one of those days again'
p1542
aS'eden fucking hazard'
p1543
aS'you were such a big part of my life and now youre gone i dont know what else i should do'
p1544
aS'69 on flappy bird k'
p1545
aS'23 hes 23'
p1546
aS'i still believe in love i still believe in us i hope you believe in us the way i believe in us'
p1547
aS'bc what you dont see is when we dont speak i really dont sleep i wanna talk to ya'
p1548
aS'you say you a good girl but i know you would girl'
p1549
aS'a girls biggest lie'
p1550
aS'my day flappy bird'
p1551
aS'and you wonder why i never wanna fucking leave my room'
p1552
aS'never good enough '
p1553
aS'me not doing any projects me looking for dresses'
p1554
aS'i have this nervous knot in my stomach for no reason that im aware of'
p1555
aS'im a few months short of 18 why is my hardest life decision which one of my crushes im gonna make my wallpaper'
p1556
aS'baby lets do confessionals'
p1557
aS'ultimate friend zone you look young'
p1558
aS'guys i think its dowel sticks \xf0\x9f\x99\x88\xf0\x9f\x98\x82'
p1559
aS'doing projects on a saturday morning can life get any better \xf0\x9f\x90\xb6'
p1560
aS'accents and jawlines are my weaknesses'
p1561
aS'why not me'
p1562
aS'is there like financial aid for concert tickets'
p1563
aS'im happy but im exhausted so im sad wow i never win do i'
p1564
aS'your black name is innocence \xf0\x9f\x98\x82 oops'
p1565
aS'why wont you love me'
p1566
aS'hate missing twitter i never know whats going on '
p1567
aS'what a time to get home'
p1568
aS'sure bob'
p1569
aS'sure'
p1570
aS'cute how you think its love'
p1571
aS'its 2014 already wheres my boyfriend'
p1572
aS'my mind is consumed with someone that doesnt even care'
p1573
aS'why do i even think about you'
p1574
aS'why do you suck so much'
p1575
aS'i want someone to share my anger with'
p1576
aS'i dont like you i just cant stop thinking about you'
p1577
aS'i cant believe how dom i was gosh'
p1578
aS'forever not in love always just a thing'
p1579
aS'at least its almost not entirely weird yet \xf0\x9f\x98\x82'
p1580
aS'reply to me you lil fucker i love you k'
p1581
aS'why wont you love me'
p1582
aS'if i love you will you love me back'
p1583
aS'love me \xe2\x9d\xa4\xef\xb8\x8f'
p1584
aS'love me'
p1585
aS'hello'
p1586
aS'flappy bird truly tests ones insanity'
p1587
aS'every time this weed account comes on my tl i get naar'
p1588
aS'watches cant remember to forget you mami im lesbian'
p1589
aS'havent read anything more accurate atm'
p1590
aS'i have the best friends ever \xf0\x9f\x91\xaf'
p1591
aS'im so fucking nervous for no reason'
p1592
aS'me and one of my best friends are talking about matric dance dresses \xe2\x9d\xa4\xef\xb8\x8f oh wow how fast 5 years have gone by'
p1593
aS'how can so little of a person make you horny hashtag sorry not sorry oops'
p1594
aS'but aya papi he can get it anywhere anytime anyway'
p1595
aS'if i cant have you can i have your car'
p1596
aS'cough cough  do you have tb'
p1597
aS'i passed 50 pipes'
p1598
aS'thiscouldbeusbutimfat and youre not zac efron'
p1599
aS'thiscouldbeusbutyouplayin'
p1600
aS'great result tonight amazing atmosphere at the madrid derby halamadrid'
p1601
aS'but guys my mom is still on her own little mission to find me a matric dance partner the more i tell her to chill the more she looks \xf0\x9f\x99\x88\xf0\x9f\x99\x88'
p1602
aS'why dis is what i found in my messages'
p1603
aS'trust me to not see chad tweeting fab'
p1604
aS'i love today i get so many cute pictures of neymar'
p1605
aS'rafaellas picture made me smile so much'
p1606
aS'my best friend omg oscar made my heart melt'
p1607
aS'us deciding that we going to ultra andrew omg what am i gonna wear feggit \xf0\x9f\x98\x82'
p1608
aS'reading through old fb messages this is a disaster'
p1609
aS'reply to me you fucker'
p1610
aS'im looking forward to having a good sleep'
p1611
aS'some girls be wearing holy cross leggings with a pussy full of sins'
p1612
aS'oscars message was the bestest'
p1613
aS'these are the best ab exercises'
p1614
aS'plot twist'
p1615
aS'actually now its time to make collages \xf0\x9f\x98\x82\xf0\x9f\x98\x82 thankxx \xf0\x9f\x98\x98'
p1616
aS'congrats dear friend i disnt know soccer players talk to each other like that'
p1617
aS'friend joins soccer club few days later im meant to train in gugalethu im laughing so hard rn get to our south african level\xf0\x9f\x98\x82\xf0\x9f\x98\x82'
p1618
aS'please'
p1619
aS'so you have it if you do send it to me ease'
p1620
aS'that picture when he was really young \xf0\x9f\x98\x95'
p1621
aS'one two three four five six \xf0\x9f\x92\xaa\xf0\x9f\x98\xbb happy birthday'
p1622
aS'do you have the picture of neymar peeing'
p1623
aS'neymar appreciation day be prepared'
p1624
aS'literal 11 years older'
p1625
aS'happy birthday \xf0\x9f\x91\xaf\xf0\x9f\x91\xaf'
p1626
aS'ronaldo is 29 oops'
p1627
aS'neymar22'
p1628
aS'thiagos pictures to neymar was the cutest'
p1629
aS'happy birthday neymar \xf0\x9f\x98\x98\xf0\x9f\x98\x98\xf0\x9f\x98\x98'
p1630
aS'are you feeling 22'
p1631
aS'happy birthday boyfriend neymar \xf0\x9f\x98\x98'
p1632
aS'boys are distractions oops'
p1633
aS'ok no problem yeah i think i am gonna try and buy my ticket tomorrow \xf0\x9f\x98\x84\xf0\x9f\x98\x84 yay d going to be sick'
p1634
aS'ok no problem yeah i think i am gonna try and buy my ticket tomorrow \xf0\x9f\x98\x84\xf0\x9f\x98\x84'
p1635
aS'yep \xf0\x9f\x98\x8a'
p1636
aS'can i buy that ticket from you x'
p1637
aS'the problem is i remember everything and you dont bc you didnt care'
p1638
aS'idc im getting into bed'
p1639
aS'i play flappy bird with my left hand so that i feel better about myself'
p1640
aS'sometimes i just wish i had someone to talk to then cry then hug then go get some ice cream'
p1641
aS'you are awesome basically'
p1642
aS'i know crying isnt gonna help but thats all i have energy for \xf0\x9f\x98\x93'
p1643
aS'im going to have a nervous break down soon i sense it'
p1644
aS'i cant anymore'
p1645
aS'theres a difference between being sad and just not in the mood to talk to people'
p1646
aS'this picture made my day \xe2\x9d\xa4\xef\xb8\x8f\xe2\x9d\xa4\xef\xb8\x8f\xe2\x9d\xa4\xef\xb8\x8f'
p1647
aS'bitch dont kill my vibe'
p1648
aS'heinekenliveaccess ill go on my knees and give you a kiss surly that deserves something '
p1649
aS'hallelujah chelsea'
p1650
aS'heinekenliveaccess i wanna have the best night of my life and you can make it happen please make it happen \xf0\x9f\x99\x8b'
p1651
aS'thankxx'
p1652
aS'heinekenliveaccess id go on my knees and beg and give you a kiss'
p1653
aS'heinekenliveaccess i just wanna have the best night of my life you can make it possible lekkerjol \xf0\x9f\x91\xaf'
p1654
aS'heinekenliveaccess doing it for the peoe i love surely good enough'
p1655
aS'heinekenliveaccess doing it for the people i love \xf0\x9f\x92\x83'
p1656
aS'heinekenliveaccess o wanna have the best night of my life'
p1657
aS'heinekenliveaccess doing it for my sister amp wanting to have the best night of my life is defs a good reason to why i deserve em'
p1658
aS'heinekenliveaccess im doing it for my sister good enough reason please'
p1659
aS'heinekenliveaccess isnt wanting to have the best night if my life a good enough reason '
p1660
aS'heinekenliveaccess it will be my friends birthday and it will just be the perfect present \xf0\x9f\x92\x83'
p1661
aS'when do you announce the winner \xf0\x9f\x98\x8a'
p1662
aS'if you dont get angry while playing flappy bird then youre doing it wrong'
p1663
aS'jesus'
p1664
aS'its chelsea time come on you blue boys \xe2\x9a\xbd\xef\xb8\x8f'
p1665
aS'south africa cfc'
p1666
aS'gonna watch some soccer to cheer me up byeee'
p1667
ag403
aS'maths is depressing me'
p1668
aS'waiting patiently for my sister to come home so i can beg for ultra'
p1669
aS'mom ya m busy canvassing'
p1670
aS'im gonna be very disappointed'
p1671
asS'2014_7'
p1672
(lp1673
S'new line bro'
p1674
aS'what a nice way to say go fck yourself \xf0\x9f\x98\x82\xf0\x9f\x98\x82\xf0\x9f\x98\x82'
p1675
aS'its so fucking annoying like can ya not ffs'
p1676
aS'that annoying moment when people only respond to the last part of your text and leave the first and middle parts unansw\xe2\x80\xa6'
p1677
aS'i never watch tv but when i do i hear that'
p1678
aS'buy a dildo and get a better attitude'
p1679
aS'on another note when will boys realize that theres actually 3 questions and not just reply to the last one'
p1680
aS'i lied i suffer from insomnia and cant sleep'
p1681
aS'do you ever just want to turn your phone off for like a week and forget everything'
p1682
aS'sleeping goodbye evil people'
p1683
aS'haha i dont even know i just dont want a shitty relationship that most people seem to have lately'
p1684
aS'i dont want a relationship if its going to be like yours'
p1685
aS'maybe yes'
p1686
aS'sigh'
p1687
aS'fuck man'
p1688
aS'my throat feels terrible'
p1689
aS'but you laughing arent you \xf0\x9f\x98\x82'
p1690
aS'you guys arent cool enough'
p1691
aS'such a fabulous weekend \xe2\x9d\xa4\xef\xb8\x8f\xf0\x9f\x91\xaf'
p1692
aS'my biggest wish is to be able to drive rn'
p1693
aS'headaches you give me headaches'
p1694
aS'fake bitches everywhere'
p1695
aS'my best friend'
p1696
aS'the older i get the less age matters'
p1697
aS'why have a started to find hands attractive'
p1698
aS'lots of motivation and self control needed to do this lo project'
p1699
aS'old people asking me how ultra was and having to resist the description as motherfucking jas has been the struggle'
p1700
aS'hahahaha exhausted'
p1701
aS'ek is lief vir jou'
p1702
aS'how many times do i have to tell you even when youre crying youre beautiful too'
p1703
aS'whats going on in that beautiful mind'
p1704
aS'last night fireworks sparks went in my eye what a scary time to be alive'
p1705
aS'tiestos all of me remix literally made me cry lastnight \xe2\x99\xa5 fucking amazing'
p1706
aS'made a new friend on the way to ultra yesterday \xf0\x9f\x98\x82'
p1707
aS'feel like someone with a hangover no energy whatsoever'
p1708
aS'aww i love you too \xe2\x9d\xa4\xef\xb8\x8f xx'
p1709
aS'i just want to have a mass braai and talk about lastnight'
p1710
aS'swim and ice cream please'
p1711
aS'i looked drunk but i didnt even drink that much uh ok'
p1712
aS'enjoy ultraaaaaaaa'
p1713
aS'i bought a bucket and he fucking spilt it all over me'
p1714
aS'my sister has a 12 minute video of last night omg those dancing skills doe'
p1715
aS'looking at pictures from last night wtf happened to my face'
p1716
aS'embarrassing ultra videos bring it on bitch'
p1717
aS'jas night omg'
p1718
aS'judge me but im still not over you'
p1719
aS'i keep distancing myself i hate it'
p1720
aS'sometimes i think that theres something wrong with me i always find myself chasing people away'
p1721
aS'you make me feel uncomfortable'
p1722
aS'broken heart again another lesson learn'
p1723
aS'when is it my turn to meet boys that arent stupid'
p1724
aS'no more drama \xe2\x9d\xa4\xef\xb8\x8f'
p1725
aS'i found a song that describes my life perfectly'
p1726
aS'cause i was young and restless but that was long ago i dont wanna cry no more'
p1727
aS'you have no idea of how scared i am to lose you'
p1728
aS'okay same maybe ill find you before were even in \xf0\x9f\x98\x84\xf0\x9f\x98\x84\xf0\x9f\x98\x84 xx'
p1729
aS'what time are you gonna go'
p1730
aS'if we even get to find each other xx'
p1731
aS'joller hey'
p1732
aS'im feeling really emotional please le my emotions go away i wanna be happy'
p1733
aS'like ill flood my room on purpose'
p1734
aS'listening to animals and thinking omigawsh ima hear this live tomorrow ultra superamped \xf0\x9f\x98\x80\xf0\x9f\x98\x80\xf0\x9f\x98\x80 \xe2\x80\xa6'
p1735
aS'so i flooded my room omg stop shouting at me'
p1736
aS'i need fashion advice dear god help'
p1737
aS'lost my mommy while shopping k'
p1738
aS'i love you good people \xe2\x9d\xa4\xef\xb8\x8f'
p1739
aS'wcw \xf0\x9f\x92\x99\xf0\x9f\x92\x99\xf0\x9f\x92\x99 can i be her pls'
p1740
aS'im not sure if i whatsapp went through or not but dont forget your money xx'
p1741
aS'lol why does no one believe me'
p1742
aS'how were you even an option'
p1743
aS'my mother said i can only get a tattoo when im 21 k cool'
p1744
aS'such a lovely night to clear my mind \xe2\x9d\xa4\xef\xb8\x8f'
p1745
aS'the love of my life \xe2\x9d\xa4\xef\xb8\x8f'
p1746
aS'why is in capetown omg go away'
p1747
aS'so over life'
p1748
aS'there there you go pat pat yourself'
p1749
aS'early morning selfies with my crush'
p1750
aS'fine bye '
p1751
aS'dmcs are needed ill supply tea anyone keen'
p1752
aS'i will i will'
p1753
aS'its emotionally straining'
p1754
aS'bottling things up never works'
p1755
aS'and its not like i need to find someone that i trust i have i just need to make sense of it all'
p1756
aS'slight obsession'
p1757
aS'i wanna tell someone about everything thats going on in life but its hard bc i hardly even understand it myself'
p1758
aS'the tattoo \xf0\x9f\x98\x8d'
p1759
aS'but still  i miss you man \xf0\x9f\x98\xad'
p1760
aS'bless your soul'
p1761
aS'and i dont even know what to do to help you to feel better \xf0\x9f\x98\x9e'
p1762
ag403
aS'me at night 100x more emotional'
p1763
aS'but fake happiness is still the worst sad'
p1764
aS'same shit different day'
p1765
aS'its the small things that matter'
p1766
aS'k not like i had feelings or anything'
p1767
aS'tattoos on guys are attractive \xf0\x9f\x98\x8d'
p1768
aS'i just wanna be friends with you'
p1769
aS'where do broken hearts go'
p1770
aS'we fighting because he didnt say he loved me too'
p1771
aS'i wish'
p1772
aS'imagine these were our school subjects wewouldloveschool'
p1773
aS'i have no life sigh'
p1774
aS'91 on flappy bird get on my level'
p1775
aS'this accounting project can go suck some balls'
p1776
aS'his son is so cute \xf0\x9f\x98\xad\xf0\x9f\x98\xad\xf0\x9f\x98\xad'
p1777
aS'neymars video melted my heart'
p1778
aS'hahahaha hashtag trying to be fency and laughing at your own jokes \xf0\x9f\x98\x82\xf0\x9f\x98\x82'
p1779
aS'martin garrix is so adorable my god'
p1780
aS'but remember jaymar le clos omg ot3'
p1781
aS'i guess it was never meant to be but its just something we have no control over and thats what destiny is'
p1782
aS'my problem is loving you secretly'
p1783
aS'how do you manage to get like every boy do boys see slut written all over you'
p1784
aS'idk id be such a cool sister \xf0\x9f\x98\x82'
p1785
aS'want a little sister so badly \xf0\x9f\x98\x93'
p1786
aS'ice cream and hugs please'
p1787
aS'i never knew that school could make me feel this worthless and stupid sigh'
p1788
aS'it was just a random picture i saw \xf0\x9f\x99\x88 shoot me'
p1789
aS'fine \xf0\x9f\x98\x92'
p1790
aS'how does it not count \xf0\x9f\x98\x82 so you want yours to be 60 \xf0\x9f\x98\x82'
p1791
aS'hahahaha'
p1792
aS'67 baym point proven'
p1793
aS'do it youre a rebel arent you'
p1794
aS'my dad talking to my dog youre a real fucking asshole im looking for you outside and youre inside you freaken nut case'
p1795
aS'i really didnt know it was monday'
p1796
aS'oh you have a girlfriend fab'
p1797
aS'i need more fucking energy'
p1798
aS'youre cute but youre a douche such a waste'
p1799
aS'learning to prioritize but you seem to always be there'
p1800
aS'going to clear out my mind'
p1801
asS'2014_4'
p1802
(lp1803
S'why do movies make falling in love so quick and easy'
p1804
aS'this movie i watched just made me want to train a dog and then fall in love with a hot farm boy'
p1805
aS'pls'
p1806
aS'wow can i be alex morgan pls'
p1807
aS'josiah is so hot yoh'
p1808
aS'just got done playing flappy bird'
p1809
aS'flappy bird can go fuck itself'
p1810
aS'like are you dom or'
p1811
aS'im sorry but having a whatsapp group with my class is one of the most irritating things ever oops'
p1812
aS'gotta gets some sleep for da date tomorrow \xf0\x9f\x98\x98'
p1813
aS'dis plen better werk'
p1814
aS'all packed for aus and ready to go will be racing next friday lets go team sa'
p1815
aS'theres only cake in this house'
p1816
aS'whats cookn good lookn'
p1817
aS'an activity that involves throwing your phone against a wall'
p1818
aS'good luck in perth \xf0\x9f\x92\x95\xf0\x9f\x8f\x86'
p1819
aS'sometimes i just think and wonder who really cares'
p1820
aS'dis is me oops'
p1821
aS'dont use that as an excuse \xf0\x9f\x98\xb1 i said ill leave it open or give you a key \xf0\x9f\x91\x8d'
p1822
aS'can calvyn justus be my boyf pls \xf0\x9f\x99\x8b'
p1823
aS'my score is 1 on flappy bird'
p1824
aS'im the weird person that everybody ignores'
p1825
aS'bc i stole your locker \xf0\x9f\x98\x81'
p1826
aS'can i pretty please just have one of these'
p1827
aS'skype makes me smile'
p1828
aS'my baby \xf0\x9f\x92\x95'
p1829
aS'who has the carrie diaries \xf0\x9f\x98\x98'
p1830
aS'wherever you are i hope youre good darling'
p1831
aS'cause of death'
p1832
aS'sorry but i find this really really hilarious \xf0\x9f\x98\x81\xf0\x9f\x98\x81\xf0\x9f\x98\x82\xf0\x9f\x98\x82'
p1833
aS'i just want ice cream on the beach \xf0\x9f\x8d\xa6\xf0\x9f\x8c\x8a'
p1834
aS'what the fuck man this flappy bird game can kiss my ass'
p1835
aS'im always happy on sunday \xf0\x9f\x98\x84'
p1836
aS'i had such a cool dream about going to france omg'
p1837
aS'oh you smoke weed woah youre so cool'
p1838
aS'i have the best cheese cake here you are all invited \xf0\x9f\x8d\xb0'
p1839
aS'wow all that movie did was make me want to slow dance at a prom and kiss'
p1840
aS'oh wow arent you cool'
p1841
aS'uh oh mommys been playing with my hair'
p1842
aS'who wants to buy me beyonc\xc3\xa9s album \xe2\x98\xba\xef\xb8\x8f\xe2\x98\xba\xef\xb8\x8f'
p1843
aS'demi lovatos style is literally me'
p1844
aS'i just drowned all my sorrows in ice cream and nutella i feel worse now'
p1845
aS'the bachelorette is my guilty pleasure judge me'
p1846
aS'justin was arrested and in a few seconds the whole world knew about that bruno mars was arrested in 2010 and i just found \xe2\x80\xa6'
p1847
aS'i should really follow more people on instagram'
p1848
aS'these people who think selling mata is a good thing because jose has done it really piss me off'
p1849
aS'ive been up since 5 this morning painting my nails and it still looks like shit \xf0\x9f\x98\x92 fuck'
p1850
aS'cant you just cheer me up \xf0\x9f\x8d\xad'
p1851
aS'may i'
p1852
aS'googles how to get a boyfriend'
p1853
aS'woah tweets or my life'
p1854
aS'its okay i dont deserve to be happy anyway'
p1855
aS'feeling useless is becoming the norm'
p1856
aS'im so over this though going to find better ways to deal'
p1857
aS'why are you only interested when im sad maybe if you cared i wouldnt be sad'
p1858
aS'i cant handle this shit anymore i really cannot handle it'
p1859
aS'sorry i asked'
p1860
aS'i always disappoint people \xf0\x9f\x98\x9e never ever good enough'
p1861
aS'i just dont know whats the point of trying anymore'
p1862
aS'sigh'
p1863
aS'youre just going to leave me like everyone else did and break my heart so whats the point'
p1864
aS'we act like everything is ok so no one worries about us but we need help'
p1865
aS'my biggest fear is that eventually you will see me as i see myself'
p1866
aS'you make me want to pull the trigger'
p1867
aS'whats the point its all fucked anyway'
p1868
aS'im sorry but i dont need you or your negativity in my life'
p1869
aS'i found my box with my nail polish ive been looking for a year i am rejoicing'
p1870
aS'me wow usher is so sexy mom i thought you liked tall blonde and handsome me hell no how can someone resist dat fine papi hell no'
p1871
aS'i can only hope that when mata gets to old trafford he signs the contract pulls of his mask and reveals its actually torres'
p1872
aS'my cupcakes brings all the boys to the yard\xe2\x80\x9d lol \xf0\x9f\x98\x82'
p1873
aS'waiting for the mata announcement from is what i imagine it feels like when youre waiting for your family pe\xe2\x80\xa6'
p1874
aS'im too ugly for everything'
p1875
aS'if i wouldnt text him we wouldnt talk at all i dont want this anymore he can fuck off im totally done with this shit'
p1876
aS'i have so much to do but im so exhausted \xf0\x9f\x98\xa3'
p1877
aS'im tired of feeling useless'
p1878
aS'dont you just love being ignored'
p1879
aS'dont worry about replying its not like i actually wanted to speak to you or nothing\xf0\x9f\x98\x90\xf0\x9f\x98\x90'
p1880
aS'twitter is currently more depressing than the tons of books i have to study'
p1881
aS'i think i have the best daddy ever \xf0\x9f\x98\x84 took me to marcels after school \xf0\x9f\x91\x8c\xf0\x9f\x98\x98\xf0\x9f\x8d\xa6'
p1882
aS'im too lazy to put my tv on this is a serious problem'
p1883
aS'this is really nerdy but i really laughed oops'
p1884
aS'why do parents feel the need to hold a phone to look at a picture'
p1885
aS'woah im in bed this feels good'
p1886
aS'hope youre having a great week xx'
p1887
aS'finding someone is hard and awkward though \xf0\x9f\x99\x88 haha xx'
p1888
aS'if i eat a muffin now will i get fat seriousquestion'
p1889
aS'im going to have an application for a matric dance partner you so desperate youre gonna havta take any volunteers you get'
p1890
aS'id pay for someone to dry my hair rn \xf0\x9f\x98\x92'
p1891
aS'i didnt mean to hurt your feelings  xxx'
p1892
aS'ilovetoflywithctk and gifts9to5 you have 20 minutes to make this happen rt amp follow amp to win\xe2\x80\xa6'
p1893
aS'win grandprize 2 return domestic flights for 2 rt amp follow amp tampcs apply'
p1894
aS'win grandprize 2 return domestic flights for 2 rt amp follow amp tampcs apply\xe2\x80\x9d\xf0\x9f\x99\x8b\xf0\x9f\x99\x8b'
p1895
aS'win grandprize 2 return domestic flights for 2 rt amp follow amp tampcs apply\xe2\x80\x9d\xf0\x9f\x98\x84'
p1896
aS'win grandprize 2 return domestic flights for 2 rt amp follow amp tampcs apply\xe2\x80\x9d\xf0\x9f\x99\x8b'
p1897
aS'win grandprize 2 return domestic flights for 2 rtamp follow amp tampcs apply'
p1898
aS'win grandprize 2 return domestic flights for 2 rtamp follow amp tampcs apply\xe2\x80\x9d\xf0\x9f\x99\x8b\xf0\x9f\x99\x8b'
p1899
aS'win grandprize 2 return domestic flights for 2 rtamp follow amp tampcs apply\xe2\x80\x9d\xf0\x9f\x99\x8b'
p1900
aS'win grandprize 2 return domestic flights for 2 rtamp follow amp tampcs apply\xe2\x80\x9d \xf0\x9f\x91\x8d'
p1901
aS'win grandprize 2 return domestic flights for 2 rtamp follow amp tampcs apply\xe2\x80\x9d'
p1902
aS'this is a fab time to remember that i havta go over map work'
p1903
aS'literally got home had a cup of tea and now i havta start the homework'
p1904
asS'2014_5'
p1905
(lp1906
S'a penny yes'
p1907
aS'double bed to myself but i still manage to almost fall off every time'
p1908
aS'and it really sucks tbh'
p1909
aS'im honestly too nice to people who dont even care one bit about me'
p1910
aS'i wanna sleep but no'
p1911
aS'my last rt i am dying'
p1912
aS'\xf0\x9f\x91\xad'
p1913
aS'late night nail polish removal missions'
p1914
aS'my sisters boyfriend thinks hes some black gangster little does he know that hes a skinny white boy hahaha'
p1915
aS'i need motivation to carry on'
p1916
aS'haha you always do though \xf0\x9f\x98\x82 ill whatsapp you now'
p1917
aS'theres nothing to spill my heart just feels sad for them '
p1918
aS'or just expose me'
p1919
aS'queens'
p1920
aS'can i kiss someone under the eiffel tower in winter please wow it looks so beautiful'
p1921
aS'if i had a dick it would be up'
p1922
aS'such a lovely weekend \xe2\x9d\xa4\xef\xb8\x8f'
p1923
aS'old crush new feelings'
p1924
aS'considering you wouldnt let me hold your phone my doodles are pretty epic \xf0\x9f\x98\x82'
p1925
aS'hey baby soccer players can go for 90 minutes and know 11 different positions just thought you should know that socce\xe2\x80\xa6'
p1926
aS'one cannot play flappy bird without using the word fuck'
p1927
aS'i really wanna see you but im not gonna beg'
p1928
ag403
aS'it was fun \xf0\x9f\x98\x81\xf0\x9f\x98\x81'
p1929
aS'im laughing look at my sisters comment \xf0\x9f\x98\x82\xf0\x9f\x98\x82\xf0\x9f\x98\x82'
p1930
aS'making memories \xf0\x9f\x98\x82\xe2\x9d\xa4\xef\xb8\x8f'
p1931
aS'im really awkward phoning people omg no'
p1932
aS'tell me why i am awake'
p1933
aS'all i wanted to do was give the player with the hair a hug \xf0\x9f\x98\x93'
p1934
aS'dankie for inviting me to go today \xe2\x98\xba\xef\xb8\x8f loved it xx'
p1935
aS'have better things to do in life than him'
p1936
aS'pinkie and the brain'
p1937
aS'trying to conquer the world with someone who cant even get the juice out of her cup'
p1938
aS'minus the fact that i do t have wifi rn today was a good day \xf0\x9f\x98\x8a'
p1939
aS'so i had to so the dishes after i painted my nails im not impressed whitegirltweet'
p1940
aS'can my daddy read his whatsapps pls i could be dying alone at home but no'
p1941
aS'yesterday me tomorrow im going to sleep late today  i get woken up too they just broke into the cars'
p1942
aS'mom ya they stupid that was my genuine leather bag that they left'
p1943
aS'is this my que to leave south africa'
p1944
aS'wow what a morning of drama'
p1945
aS'its just scary to think that people were over our gate and right by our house'
p1946
aS'fuckers just broke into two cars in my driveway'
p1947
aS'drunk in love'
p1948
aS' i just saw a lion'
p1949
aS'woke up in the kitchen saying  how the hell did this shit happen'
p1950
aS'youre just going to think that im desperate with no life'
p1951
aS'im happy for you \xf0\x9f\x92\x83'
p1952
aS'i just introduced flappy bird to my sister and her boyfriend they hate me now'
p1953
aS'but x factor'
p1954
aS'i knew him long already hahaha'
p1955
aS'no his name is brandon and sings really nice \xe2\x98\xba\xef\xb8\x8f cough cough i dont stalk '
p1956
aS'my boyfriend \xe2\x9d\xa4\xef\xb8\x8f'
p1957
aS'insecurities everywhere'
p1958
aS'i check ya out everyday i have no life'
p1959
aS'me being awake is actually beyond me'
p1960
aS'please'
p1961
aS'srms arms arms arms asdfghjkl \xf0\x9f\x98\x8d\xf0\x9f\x98\x8d\xf0\x9f\x98\x8d\xf0\x9f\x98\x8d'
p1962
aS'different life in my head'
p1963
aS'im not normal '
p1964
aS'sigh'
p1965
aS'googles causes of cancer'
p1966
aS'but everyone will probably say im being stupid and over reacting'
p1967
aS'im so scared \xf0\x9f\x98\x9e'
p1968
aS'the two best things in life '
p1969
aS'lol im proud of myself ive only taken 2 tablets today \xf0\x9f\x91\x8f'
p1970
aS'i dont know \xf0\x9f\x98\xb1 i just find cool things that i dont know where to find \xf0\x9f\x98\x82\xf0\x9f\x98\x82'
p1971
aS'omg it was my really old crush and he came to the room right next to mine but i pretended to sleep \xf0\x9f\x90\x92fab'
p1972
aS'there the door bell went again'
p1973
aS'nike air yeezy 2'
p1974
aS'david beckham is the worlds biggest dilf'
p1975
aS'dis is so attractive fok'
p1976
aS'youre attractive oh hello there'
p1977
aS'why is there people ringing my bell at 10pm i wanna sleep'
p1978
aS'i cant get past 5 on flappy birdk lekker'
p1979
aS'hope youre having a great time \xf0\x9f\x98\x84'
p1980
aS'theres toothpaste all over my face and now i cant walk downstairs the struggle is real'
p1981
aS'now i just need a translator'
p1982
aS'awh im happy you had a happy day \xf0\x9f\x98\x82'
p1983
aS'demi lovato is my animal spirit'
p1984
aS'guyys'
p1985
aS'why cant i be at uni yet \xf0\x9f\x98\x9e come home to my sister and her friends having pre drinks before they go out why am i stuck at school'
p1986
aS'so did you have a good not your birthday \xf0\x9f\x98\x81'
p1987
aS'not sure if i really care about you or if im just really inquisitive'
p1988
aS'ill pay you if you write me an essay'
p1989
aS'highlight of my day sat outside at break with my friends'
p1990
aS'a head massage will be good right about now'
p1991
aS'i can choose between doing homework or my hair im too exhausted to do both'
p1992
aS'wow what a great time to get home'
p1993
aS'yoh you funny'
p1994
aS'ive been up since 5am what is life'
p1995
aS'forever wcw'
p1996
ag403
aS'pharell is hot oops'
p1997
aS'i dont even know why you consume so much of my thoughts tbh'
p1998
aS'can i listen to high school musical songs pls'
p1999
aS'awh my sister brought me nachos \xf0\x9f\x99\x8b'
p2000
aS'woah youve moved on quick'
p2001
aS'oscar marry me'
p2002
aS'sigh '
p2003
aS'send me pictures that will distract me'
p2004
aS'\xf0\x9f\x98\x9e'
p2005
aS'my header is better than you'
p2006
aS'i could die right now'
p2007
aS'early morning pictures in bed \xe2\x9c\x8c\xef\xb8\x8f'
p2008
aS'i feel like a druggy \xf0\x9f\x92\x8a'
p2009
aS'wow stalking people on fb has become a habit of procrastination'
p2010
aS'finally watched the grammys \xf0\x9f\x99\x8b wow macklemore \xe2\x9d\xa4\xef\xb8\x8f'
p2011
aS'feel so sick'
p2012
aS'wow im such a cool friend \xf0\x9f\x98\x81\xf0\x9f\x98\x82'
p2013
aS'why do i follow such a controversial bunch of people on twitter'
p2014
aS'so much to do so little time'
p2015
aS'so when begging at robots doesnt work then your mommys gonna make some magic yourmomisboss'
p2016
aS'yes yes exactly wait ill whatsapp you now \xf0\x9f\x99\x88\xf0\x9f\x98\x81'
p2017
aS'thats last resort shes so excited she even said shell canvas you one too \xf0\x9f\x98\x82\xf0\x9f\x98\x82'
p2018
aS'so itumeleng khune is caught for speeding what a great sports star of the year hun i still think should \xe2\x80\xa6'
p2019
aS'mom yes i must canvas my daughter a partner'
p2020
aS'tell me you havent done it before \xf0\x9f\x98\x82 haha maybe '
p2021
aS'if there is one recipe for unhappiness its that  expectations'
p2022
aS'you attention seeking fool'
p2023
aS'im trying if you dont wanna dont'
p2024
aS'i did one of those tests and got one wrong \xf0\x9f\x99\x88 but i still feel nervous'
p2025
aS'do i need to be scared'
p2026
aS'you were a year younger ya'
p2027
aS'stop being a lame friend \xf0\x9f\x98\x9e'
p2028
aS'stalking your old crushes profiles to see where they are in life'
p2029
aS'studying dis learners \xf0\x9f\x9a\x99\xe2\x9a\xa0\xef\xb8\x8f'
p2030
aS'ps drink yo milk lil niggas so u can be strong and smart and be like a street fighter  scientist'
p2031
aS'jaydes on my feet jaydes on my feet tftd bestremixever \xf0\x9f\x98\x82\xf0\x9f\x98\x82\xf0\x9f\x98\x82'
p2032
aS'im running late but we leaving home soon \xf0\x9f\x98\x98'
p2033
asS'2014_2'
p2034
(lp2035
S'sleeping in 5 minutes'
p2036
aS'can someone just give me one of those adam hugs'
p2037
aS'i dont even know what makes me happy anymore'
p2038
aS'how does anyone stand to be my friend or even around me im so annoying i annoy myself all the time seriously guys its\xe2\x80\xa6'
p2039
aS'i get scared of becoming close to people because all they ever do is leave'
p2040
aS'no one would ever fall in love with someone like me'
p2041
aS'okay im fucking sorry what more do you want me to do'
p2042
aS'these lonely nights are killing me im so sick of being and feeling alone'
p2043
aS'i know you shouldnt rely on anyone else for your happiness but im getting kind of desperate'
p2044
aS'sorry that im this fucked up'
p2045
aS'\xf0\x9f\x99\x8b'
p2046
aS'im just tired of existing thats all'
p2047
aS'i havent read more accurate tweets than'
p2048
aS'its difficult for someone like me to not overthink when im alone most of the time'
p2049
aS'i care about people who dont give a flying fuck about me do you see my problem'
p2050
aS'im sorry i pushed you away its what i do when im afraid'
p2051
aS'im sorry i pushed you away its what i do when im afraid\xe2\x80\x9d this this this'
p2052
aS'why cant i just be fucking pretty'
p2053
aS'i have issues and i created them all in my own head with my own thoughts i made them all out of nothing'
p2054
aS'what happened to me i used to be so happy but now i just dont see the sense in living anymore'
p2055
aS'i find it hard to be happy'
p2056
aS'why tweet when you can just rt at least im not the only one feeling like this'
p2057
aS'these thoughts they wont stop'
p2058
aS'i really want someone to want me so much theyd literally do anything to have my attention'
p2059
aS'im that person everyone replaces after a while'
p2060
aS'i dont know'
p2061
aS'do you'
p2062
aS'i just dont know what to say wow'
p2063
aS'ive distanced myself so much because i thought that i was better alone'
p2064
aS'maybe my expectations are just too high'
p2065
aS'physical pain gt emotional'
p2066
aS'you make these stories in your head now you blaming me but i know nothing k fab'
p2067
aS'im trying give me a chance'
p2068
aS'woah ive disappointed so many people'
p2069
aS'woah take a seat you know nothing'
p2070
aS'why dont i have sad songs on my phone \xf0\x9f\x98\x92'
p2071
aS'two of my fingers got cut k cool'
p2072
aS'husky australian accents yes please'
p2073
aS'your picture is you half naked not sure if im attracted to the confidence or put off by the arrogance'
p2074
aS'do you ever stop and realize that the average person doesnt know what a ship is or what canon means or what feels are'
p2075
aS'go suck a fat \xf0\x9f\x8d\x86 is going to be my new line thank you miley'
p2076
aS'one word answers go suck a fat \xf0\x9f\x8d\x86'
p2077
ag403
aS'haha just  cut  my  finger '
p2078
aS'im going to go watch a movie bye'
p2079
aS'thanks for ignoring me you make me feel so special lt3'
p2080
aS'i cant stop watching it'
p2081
aS'bc its perf'
p2082
aS'wait is that really neymar playing the piano or'
p2083
aS'im hyperventulating thats ao orecious'
p2084
aS'thats so cool'
p2085
aS'wtf us tbat really beymar playi g tbe puani wtf adgjk'
p2086
aS'it cost nothing to be nice'
p2087
aS'suicidal kids telling other suicidal kids that suicide isnt the answer'
p2088
aS'bye'
p2089
aS'ive literally put my phone down and went to sleep about 5 times now'
p2090
aS'headache \xf0\x9f\x98\x9e'
p2091
aS'been having nightmares but now it just seems like reality'
p2092
aS'can you hug someone and just never let go'
p2093
aS'tbh im terrified to go sleep  sigh'
p2094
aS'feeling fragile'
p2095
aS'lets have a conversation about absolutely nothing \xf0\x9f\x90\xbc'
p2096
aS'yes im sad now leave me alone'
p2097
aS'but on another note my header is perfect'
p2098
aS'sigh i need to calm down'
p2099
aS'sigh'
p2100
aS'i feel like such an idiot though'
p2101
aS'i literally just burst into tears bc'
p2102
aS'confession im almost 18 and im terrified of a gecko'
p2103
aS'if you sent me an imessage please resend bc ive kind of fucked it up oops'
p2104
aS'i think i just napped my day away \xf0\x9f\x98\x92'
p2105
aS'we are the worst waiter callers ever'
p2106
aS'i thought watching tv would make me tired'
p2107
aS'aha good timess'
p2108
aS'im going to ask one more time'
p2109
aS'im going to cry bc amazing'
p2110
aS'thats so cool omfg'
p2111
aS'sorry but one word jassss'
p2112
aS'being fabulous is exhausting'
p2113
aS'what a night'
p2114
aS'replyyyyy'
p2115
aS'why is my mommy so paranoid'
p2116
aS'a timezone just woke up and have noticed happily acoustic that was so like 5 hours ago'
p2117
aS'its actually physically impossible for me to get out of bed before 12'
p2118
aS'morning selfie actually a lets see how i look before i get up but yoh no wonder i have no friends'
p2119
aS'i lost wifi therefore im going to sleep'
p2120
aS'my friendships in a picture'
p2121
aS'but its like i only have friends at night'
p2122
aS'a text from you would be great actually holding a conversation would be perfect'
p2123
aS'i told my mom that ill be out of bed before 1 tomorrow lol what a joke'
p2124
aS'what a shit friend that is omg'
p2125
aS'every time i close my eyes i see you wait no i see a monster thats stopping me from sleeping'
p2126
aS'but i cant like her ig post bc then shell know im awake and i made like im sleeping oh'
p2127
aS'wtf its 1230am and my sister is frying spring rolls'
p2128
aS'nervous knot and butterflies'
p2129
aS'is it that hard to have a decent conversation'
p2130
aS'maybe i should update it'
p2131
aS'what fuckery is this \xf0\x9f\x98\x9e'
p2132
aS'i got a message that i received last week that i only saw now'
p2133
aS'why does my whatsapp not show me all my messages'
p2134
aS'people saying they feel ignored etc you do realize you need to make an effort as well right thats usually how friendships \xe2\x80\xa6'
p2135
aS'me you beach house'
p2136
aS'if you have an accent id probably have a crush on you shallowtweet'
p2137
aS'oops wrong account \xf0\x9f\x99\x8d'
p2138
aS'zayns hair looked so lush today like all i wanna do is brush my fingers through his hair'
p2139
aS'that way i dont give them the chance go judge me and ill finally feel better'
p2140
aS'ive wanted that for three years now '
p2141
aS'tbh i just wanna sit with a total stranger and tell them everything about my life and just let go of everything then never see them again'
p2142
aS'explaining is so much effort i just wish people could understand'
p2143
aS'woah youre a cunt take a seat \xf0\x9f\x92\x81'
p2144
aS'wait shes 13 oh'
p2145
aS'the fact that im matric this year is still sinking in'
p2146
aS'she lives in jozi'
p2147
aS'im making a freind on my other account haha'
p2148
aS'lol wait last tweet gon be deleted'
p2149
aS'seeing frozen was one of the best decisions of my life'
p2150
aS'i waste so much chances'
p2151
aS'tbh the main reason why i push people away because i feel that im not good enough'
p2152
aS'monsters dont sleep under your bed they sleep in your head'
p2153
aS'immature guys no just no'
p2154
aS'zayn and perrie look like a disney prince and princess tbh'
p2155
aS'lol a mutual that i actually spoke to unfollowed me'
p2156
aS'haha thanks need some eye candy for when i get bored ya know \xf0\x9f\x98\x82'
p2157
aS'take me to a place with snow ill be happy'
p2158
aS'my maths book is my fave \xf0\x9f\x99\x8b\xf0\x9f\x8c\xb8 books covers chad neymar zayn oscar ramos my book is'
p2159
aS'only four days until cant remember to forget you with  heres the single artwork\xe2\x80\xa6 soexcited shak'
p2160
aS'sorry seeing zerrie pictures just reminded me'
p2161
aS'on the day i went to disney i got lost in paris ill never forget'
p2162
aS'oh how i love waking up to an empty house'
p2163
aS'ill even go watch believe alone'
p2164
aS'if i woke to a beach view id probably be a morning person'
p2165
aS'that was thee most fucked up dream ever'
p2166
aS'this is making me feel physically sick bye'
p2167
aS'i miss you but you seem fine without me\xe2\x80\x9d story of my life'
p2168
aS'im ok i just want to die a lot'
p2169
aS'everything is just so fucked up'
p2170
aS'i dont want to try anymore'
p2171
aS'why should i like myself nobody else does'
p2172
aS'no one will fall in love with someone like me'
p2173
aS'was it fun for you to watch me fall apart'
p2174
aS'no one sees how broken i really am'
p2175
aS'i just hate everything'
p2176
aS'want to know what hurts the most having to pretend it doesnt hurt at all'
p2177
aS'i really like being alone i just hate feeling alone'
p2178
aS'i am so tired of faking smiles i dont want to do this anymore'
p2179
aS'i dont know why i feel this bad'
p2180
aS'i dont know what to do with myself'
p2181
aS'i suddenly feel sad'
p2182
aS'dearfuturehusband \xf0\x9f\x98\x8d\xf0\x9f\x92\x8d'
p2183
aS'could do with a head massage right about now \xf0\x9f\x98\x9e\xf0\x9f\x98\xad'
p2184
ag403
aS'can we get the number of retweets and favourites the same try it \xf0\x9f\x98\x98'
p2185
aS'twitter is boring tonight'
p2186
aS'two minutes of attention'
p2187
aS'great news the contract extension of one of the best midfielders in the world is staying with us congratulat\xe2\x80\xa6'
p2188
aS'sometimes really feel that money could buy happiness like concert tickets and traveling shallowtweet'
p2189
aS'i never liked you anyway lol'
p2190
aS'haha hello there \xf0\x9f\x90\xb5'
p2191
aS'some ariana never fails'
p2192
aS'hold up wait shut up and kiss me baby i just wanna get a little taste'
p2193
aS'baby dont you know you got all my love'
p2194
aS'was it really that hard to say hello'
p2195
aS'at least this wasnt up to me \xf0\x9f\x91\x8d'
p2196
aS'yes i hate making decisions'
p2197
aS'cameron dallas is really cute actually'
p2198
aS'insecurities limit you so much though'
p2199
aS'a crush is called a crush bc all they do is crush you and all your dreams pahahahhahaha soo funny but so true'
p2200
aS'a crush is called a crush bc all they do is crush you and all your dreams'
p2201
aS'never again'
p2202
aS'see you have friends why do you only come to me when you need something'
p2203
aS'me home alone can have house party but instead eats and watches series alone'
p2204
aS'ramos ramos ramos \xf0\x9f\x91\xb6 yayyy'
p2205
aS'congratulations \xf0\x9f\x91\xb6\xf0\x9f\x92\x99'
p2206
aS'gonna be home alone tonight fab'
p2207
aS'being ocd and covering books that im going to have to look at for a year doesnt go well together'
p2208
aS'literally me so can i go to jozi to watch soccer please mom is neymar gonna be there me yess\xf0\x9f\x98\x84 mom now what happened to chad omg \xf0\x9f\x99\x88'
p2209
aS'maybe if i actually get out of bed and put on some decent clothes ill feel better'
p2210
aS'well goodnight lovely people xx'
p2211
aS'before i go sleep i leave you with queen'
p2212
aS'no one should ever read my tweets at night early hours of the morning i probably sound dumb'
p2213
aS'laughing bc i went on my second email account today amp i found 100s of messages to remind me to play fantasy football but i only saw them now'
p2214
aS'even though its cheesy this is still one of my favorite movies \xf0\x9f\x99\x8b\xf0\x9f\x92\x97'
p2215
aS'this is cute and so attractive both at the same time'
p2216
aS'pretty please lets go watch frozen'
p2217
aS'im on 10 battery'
p2218
aS'one day can i please have a boyfriend that supports the same soccer teams as me \xf0\x9f\x98\x92\xe2\x9c\x8c\xef\xb8\x8f'
p2219
aS'the mirror can lie and it it can tell you youre full of life its amazing what you can hide just by putting on a smile'
p2220
aS'one of the most scariest things in lifeis when you come to the realization that the only thing that can save youis yourself demi'
p2221
aS'im the type of person to push another person away when i think im getting too fond of them bc im afraid of getting hur\xe2\x80\xa6'
p2222
aS'why am i awake'
p2223
aS'would it make you feel better to watch me while i bleed all my windows still are broken but im standing on my feet'
p2224
aS' i cant set my hopes too high bc every hello ends with a goodbye  demi'
p2225
aS'maybe its what didnt happen aha nah its okay '
p2226
aS'i think i sigh too much for someone my age'
p2227
aS'sigh'
p2228
aS'dilf dilf dilf'
p2229
aS'im not lying it was just a statement'
p2230
aS'who wouldnt wanna tap dat doe'
p2231
aS'nothing \xf0\x9f\x98\xb6'
p2232
aS'on another note i still havent finished bunheads \xf0\x9f\x98\x92'
p2233
aS'our house is literally dead quiet and you hear my mom winning something on candy crush wtf put yo phone on silent r you trying to kill me'
p2234
aS'when theres nothing to do you catch up on pop culture \xf0\x9f\x91\x8d'
p2235
aS'rihanna and cara are everywhere together where did this come from'
p2236
aS'how is lord disick so hot though'
p2237
aS'dont ever tell me to choose bc i cant'
p2238
aS'fucking perfection'
p2239
aS'just one look at arianas instagram is enough to make me wanna starve myself for the next decade'
p2240
aS'tbh all i want is a chanel bag \xf0\x9f\x98\xad'
p2241
aS'boys are dumb'
p2242
aS'its not out yet hahah'
p2243
aS'whats a hello without a goodbye'
p2244
aS'exactly'
p2245
aS'otp'
p2246
aS'shakira and rihanna in one song yesssss'
p2247
aS'idk but this biscuit just looked perfect \xf0\x9f\x8d\xaa'
p2248
aS'i can finally go downstairs'
p2249
aS'im sorry i hate it im working in it'
p2250
aS'i tend to avoid people often'
p2251
aS'cutie'
p2252
aS'this generation sucks compared to the 80s'
p2253
aS'wow rafaella is pretty can i get dat genes'
p2254
aS'he looks so happy my heart is smiling'
p2255
aS'its been three years already'
p2256
aS'i wanna go fetch food downstairs but my parents have people over and i really dont lis'
p2257
aS'why do i try'
p2258
aS'gonna do some hustling tomorrow \xf0\x9f\x99\x8b'
p2259
aS'fine \xf0\x9f\x98\x9e\xf0\x9f\x98\x9e becomes a stripper during final year of school and goes to both'
p2260
aS'but but but'
p2261
aS'yep '
p2262
aS'this or ultra'
p2263
aS'only thing is its on a wednesday so test period though but the match is only at 7pm'
p2264
aS'if we fly we can legit make it with only missing a few lessons'
p2265
aS'lets go'
p2266
aS'the best greeting is probably hello sunshine'
p2267
aS'but our conversations got a bit weird so maybe its a good thing'
p2268
aS'once i met a really nice friend on kik and now i forgot my password so'
p2269
aS'currently running three twitter accounts an instagram and a blog yoh'
p2270
aS'someone help me with finding cool quotes \xe2\x98\xba\xef\xb8\x8f'
p2271
aS'i have a feeling that if i dont get out of bed soon theres gonna be afrikaans words shouted at me'
p2272
aS'what ok'
p2273
aS'where did you get wifi'
p2274
aS'hahaha and i thought i was just sweet and they liked me'
p2275
aS'are you saying i ate a banana'
p2276
aS'nothing to do so might as well stay in bed'
p2277
aS'i havent stayed in bed this late in a long time \xf0\x9f\x91\x8d'
p2278
aS'someone watch believe with me pleassssseee'
p2279
aS'with all this hype im just like where the fuck am i even gonna find a matric dance partner im socially awkward and twitter obsessed uhh'
p2280
aS'ive been running from the truth ever since i fell in love with a lie'
p2281
aS'can i just stay in bed all day'
p2282
aS'wow thanks you dumb fuck'
p2283
aS'if you can dance youre 100000x more attractive'
p2284
aS'im too emotional for this why do i even try'
p2285
aS'this is a disaster'
p2286
aS'i must be the most fucking annoying shitty insecure little miserable bitch to be friends with i\xe2\x80\x99m so sorry and i wish\xe2\x80\xa6'
p2287
aS'can i legally change my name to awkward jayde'
p2288
aS'there is no wifi in room i could cry'
p2289
aS'i feel so sick fuck'
p2290
aS'wtf is my daddy in wellington'
p2291
aS'all the time'
p2292
aS'i feel so excluded from this world'
p2293
aS'falling asleep with a denim jacket on is so uncomfortable \xf0\x9f\x98\x95'
p2294
aS'lets just watch movies all night'
p2295
aS'my daddy dragged me to go watch a movie with him haha'
p2296
asS'2014_3'
p2297
(lp2298
S'an entire day without signal and ive honestly not missed anything'
p2299
aS'why do i sleep'
p2300
aS'wow beyonc\xc3\xa9 is perf'
p2301
aS'it really sucks tbh'
p2302
aS'i have exact same feeling'
p2303
aS'why did i update my twitter'
p2304
aS'i just want to talk to someone but i dont want to feel like a burden or something \xf0\x9f\x98\x9e sigh'
p2305
aS'on such a downer'
p2306
aS'i just painted my nails with blue glitter'
p2307
aS'i just downloaded an app that teaches you how to take selfies what am i'
p2308
aS'hakuna mavodka it means no memories for the rest of your night'
p2309
aS'haha prom is in 5 months and i havent got a dress nor a date and time is running out and i will forever be alone'
p2310
aS'cloud sofa uses magnetic force to float'
p2311
aS'need something to cheer me up'
p2312
aS'im still learning to love just starting to crawl'
p2313
aS'fashion star is my guilty pleasure'
p2314
aS'i feel so distant'
p2315
aS'i used to tweet whatever i wanted but now i dont because im scared people will judge me like fuck when did that happen'
p2316
aS'i dont think people understand how hard it is to explain whats going on in your head when you dont even understant it y\xe2\x80\xa6'
p2317
aS'following people everyday for a while it only lets me follow 1k a day so rt for a follow amp ill come back to this link \xe2\x80\xa6'
p2318
aS'boniwei think im going to steal your car and drive you over with it you even reach the pedals lau\xe2\x80\xa6'
p2319
aS'woah ive been neglecting twitter'
p2320
aS'tbt to mauritius and on our way to swimming with dolphins \xf0\x9f\x90\xac\xf0\x9f\x8c\x8a tbt mauritius swim dolphins'
p2321
aS'chelsea want \xe2\x82\xac35m for david luiz next summer barcelona are ready to pay the sum tuttomercatoweb\xe2\x80\x9d \xf0\x9f\x98\x9e'
p2322
aS'such a lovely evening \xf0\x9f\x91\x8d\xf0\x9f\x92\x95 i think i might have possibly definitely ate too much \xf0\x9f\x98\xa3'
p2323
aS'am i a photographer yet'
p2324
aS'wait i lied shits getting real'
p2325
aS'k seriously goodnight'
p2326
aS'i could listen to talk all day long and probably just say thank you'
p2327
aS'wow you missed me didnt you'
p2328
aS'im gonna make like im sleep walking drinking bless'
p2329
aS'guys im really thirsty but if i go downstairs my mommy is gonna shout at me for still being awake'
p2330
aS'i dare the people who waited outside liams house to wait outside louis'
p2331
aS'have a lovely day at school tomorrow \xf0\x9f\x98\x98'
p2332
aS'what will happen if i morph chad and neymar i reckon disaster oops'
p2333
aS'my home screen is better than yours'
p2334
aS'heyy'
p2335
aS'seriously i waited so long to watch fashion police tonight then i missed it'
p2336
aS'i missed fashion police im gonna cry'
p2337
aS'im going to a 21st tomorrow what do i even wear'
p2338
aS'someone make me go sleep pls i beg'
p2339
aS'me whats the easiest way to get rid if a guy sends selfie jeez am i dat ugly'
p2340
aS'tell my girlfriend that she must have a good day and successful year'
p2341
aS'every time i tell my mom that im moving to australia after matric she laughs at me'
p2342
aS'if youre my friend you would be very proud of my nails'
p2343
aS'please help me be in bed my 1030'
p2344
aS'woah im really scared for this year fuck'
p2345
aS'mom show me how you clean your room and ill buy you the map this is corruption at its best but hey i got a broom in my hand'
p2346
aS'summer skin gets darker and hair gets lighter why is it school tomorrow \xf0\x9f\x99\x8d gotta say goodbye to'
p2347
aS'dearest cute new boys please befriend me immediately the others are not to be trusted i shall give you hugs and make you \xe2\x80\xa6'
p2348
aS'im awake already yall should be proud of me'
p2349
aS'i might be in love'
p2350
aS'bye'
p2351
aS'if you care youd make me stop'
p2352
aS'how do you not overthink if youre always alone'
p2353
aS'people only talk to me when im sad cool'
p2354
aS'who even cares'
p2355
aS'i really wanna but cant get myself to say sup to someone'
p2356
aS'pleeeease'
p2357
aS'pls'
p2358
aS'if you see me smiling in public it means im laughing at the jokes i tell myself in my head'
p2359
aS'id do anything for you not to be mad at me \xf0\x9f\x98\x92 just say hello'
p2360
aS'have you ever been so sad that you cant even cry you just sit there and think about how sad you are'
p2361
aS'baby ronaldo is so cute aww'
p2362
aS'very proud to win the ballon d\xe2\x80\x99or for the second time it means so much to me i thank my teammates'
p2363
aS'youd be lying if you say that this isnt something youd do \xf0\x9f\x98\x82'
p2364
aS'im really sorry for being a shit friend and a disappointment im sorry and working on it i hope youre not mad \xe2\x98\xba\xef\xb8\x8f'
p2365
aS'either adriana is super tall and had on heels or everyone she took a picture with is tiny small'
p2366
aS'no drama just me i feel happy'
p2367
aS'my thoughts while watching yep neymar and bruna defs broke up bc he went with papa neymar bless'
p2368
aS'heres that bowl of attention you ordered i know youre hungry for it'
p2369
aS'i needed today just me myself and my thoughts i feel a lot better \xf0\x9f\x8c\xbb'
p2370
aS'woah \xf0\x9f\x92\x81'
p2371
aS'its a honor to be in the fifapros eleven looking forward to keep growing with my team and national selection'
p2372
aS'i feel terribly alone'
p2373
aS'this is beautiful cr7'
p2374
aS'he was so emotional and im so happy'
p2375
aS'congratulations \xe2\x9a\xbd\xef\xb8\x8f\xf0\x9f\x92\x99'
p2376
aS'ronaldo ronaldo ronaldo ronaldo ronaldo'
p2377
aS'chris pine can get it'
p2378
aS'omg rihannas voise sounds so natural and wow'
p2379
aS'shakira and rihanna yess please'
p2380
aS'whos immature enough to watch frozen'
p2381
aS'that post made me think and realize things but im really annoyed bc he used your instead of youre'
p2382
ag403
aS'idk i read something that made me think a bit'
p2383
aS'we are already here i hope this is criss year and im very proud to be once again amongst the fifpro eleven'
p2384
aS'im back and alive'
p2385
aS'my phone is going off and im disappearing dont look for me xx'
p2386
aS'pharrell is playing coachella and nothing else matters to me'
p2387
aS'think im going to use today to do some soul searching and get my myself in the right space of mind'
p2388
aS'i know it costs nothing to be nice but jeez theres a limit'
p2389
aS'i give up lol'
p2390
aS'im just gonna get out of bed and hope for the best'
p2391
asS'2014_1'
p2392
(lp2393
S'no one loves me'
p2394
aS'no one wants to talk to me sigh goodbye'
p2395
aS'id rather be lonely than trying to be friends with you \xf0\x9f\x91\x8d'
p2396
aS'well fuck you too'
p2397
aS'i dont mind stating up but how the fuck am i gonna wake up early tomorrow \xf0\x9f\x98\xad'
p2398
aS'haha well thanks \xf0\x9f\x8c\xb8 and its a pleasure d i love being your friend \xe2\x9d\xa4\xef\xb8\x8f'
p2399
aS'what does being pretty have to do with being friends hahahaha'
p2400
aS'you can come cry with me my bed does look pretty cosy'
p2401
aS'gonna go cry and try to fall asleep \xf0\x9f\x99\x8d'
p2402
aS'i dont know if my sorry will be good enough i dont dont if i want it to be'
p2403
aS'theres an itchy bite on my vein on my wrist and every time i scratch it i feel as though my vein is going to burst or something \xf0\x9f\x98\xad'
p2404
aS'ok i think i should stop listening to usher now'
p2405
aS'and its better for me to let it go now than hold on and hurt you'
p2406
aS'what im trying to say is that i love you i feel like this is coming to an end'
p2407
aS'omg'
p2408
aS'neymar and rafaella got matching tattoos for each other this is the cutest thing ever \xe2\x9d\xa4\xef\xb8\x8f'
p2409
aS'tell me why i should stay in this relationshipwhen im hurting baby i aint happy baby plus theres so many other things i gotta deal with'
p2410
aS'i know i made a mistake now its too late'
p2411
aS'so i decided to eat sour sweets in bed but now im thirsty and im too lazy'
p2412
aS'i have so much to rant about that i just keep quiet'
p2413
aS'on a serious note who wants to start a blog with me \xe2\x98\xba\xef\xb8\x8f'
p2414
aS'i didnt mean any bad'
p2415
aS'im twisted cause one side of me is tellin me that i need to move on on the other side i wanna break down and cry'
p2416
aS'really wanna work this out but i dont think youre gonna change'
p2417
aS'yes by 930 im going to be in bed \xf0\x9f\x91\x8c'
p2418
ag403
aS'can i be neymars phone pleeaase'
p2419
aS'follow me on instagram\xf0\x9f\x92\x81 jaydexxx'
p2420
aS'people with dreams and ambitions are so attractive'
p2421
aS'who wants to go to camps bay later'
p2422
aS'im sorry but liam said i was amazing and thats all that matters rn'
p2423
aS'i feel bad for still being in bed sigh'
p2424
aS'casual dm from \xf0\x9f\x98\xb1 yay asdhjklll'
p2425
aS'i dont have your number oops'
p2426
aS'woah slow down there boy i also wanna get a kiss from \xf0\x9f\x98\xad'
p2427
aS'brazilian press say that he broke up with bruno thank'
p2428
aS'i work there'
p2429
aS'where are you now when i need you around'
p2430
aS'i gave my best it wasnt enough you keep saying we argue too much'
p2431
aS'hi jayde happy new year'
p2432
aS'you cant just openly question me like this \xf0\x9f\x98\xb1 hahaha ill whatsapp you now \xf0\x9f\x98\x81\xf0\x9f\x98\x88'
p2433
aS'no no no i think i just forgot  i got his name and number but not age oops'
p2434
aS'all my life ive prayed for someone like you'
p2435
aS'say something im giving up on you'
p2436
aS'youre either jealous or lesbian if you dont find this attractive'
p2437
aS'do they really need to be playing pool rn'
p2438
aS'my tumblr ways takes very long to load \xf0\x9f\x98\xad'
p2439
aS'haha i dont know why i didnt even tell you  haha he kept on asking me for a hug but he seemed cool so'
p2440
aS'holy fuckery'
p2441
aS'tongue asgjkll'
p2442
aS'lips adgjkll'
p2443
aS'eyes afhjkl'
p2444
aS'omg wtf asdghjkll'
p2445
aS'neymars selfies just killed me'
p2446
aS'i hugged him three times \xf0\x9f\x98\xb1 omg i swear i was like shaking yoh it was so awkward \xf0\x9f\x98\xad'
p2447
aS'and then he asked for my number and a few hours later he phoned me but i got nervous so i didnt answer and omg why am i this awkward'
p2448
aS'haha he was cute yeah but i was so scared bc i hugged him and omg im stupid '
p2449
aS'it was probably the most awkward day'
p2450
aS'confession the other day i was at the shops amp a guy came up to me amp was talking to me amp then he asked me to kiss him amp i literally ran away'
p2451
aS'you know shits going down when you eat burgers at this time '
p2452
aS'woah youre cute'
p2453
aS'is it too late to do some new year wishing'
p2454
aS'hello ears'
p2455
aS'going to make a fan account \xf0\x9f\x99\x8b'
p2456
aS'i still would rather go to london for my 18th than have a party im an introvert im not good at socializing hahaha so\xe2\x80\xa6'
p2457
aS'i need to stop befriending kids you know what i need to stop befriending humans in general they are all source of disappoi\xe2\x80\xa6'
p2458
aS'i just wanna meet you and be your friend'
p2459
aS'sigh'
p2460
aS'havent stopped thinking about you'
p2461
aS'its never too late to make things right'
p2462
aS'im so happy i thought my mom was mad at me but she wasnt and she bought be sweets today \xe2\x98\xba\xef\xb8\x8f'
p2463
aS'how did my dress get shorter omg'
p2464
aS'catching up with masterchef on a saturday and andy and ben are definitely my brotp'
p2465
aS'jiley shippers win at photoshop though fuck theyre good'
p2466
aS'if you can make me laugh you can date me'
p2467
aS'itchy bites '
p2468
aS'good night'
p2469
aS'flipagram yourself off a cliff'
p2470
aS'jesus i hope this works'
p2471
aS'getting out of bed bc vark mosquitos'
p2472
aS'it doesnt feel nice'
p2473
aS'something is biting me'
p2474
aS'disappointment is worse than anger'
p2475
aS'you have your life i have mine and thats just my opinion'
p2476
aS'but tbh im pretty disappointed'
p2477
aS'i need to let go'
p2478
aS'if i sleep will my headache go away'
p2479
aS'tell me you love me come back and haunt me'
p2480
aS'they saw a tsunami approaching so they decided to kiss for their last time but instead a double headed shark jumped and ate them lol'
p2481
aS'0 selfie game'
p2482
aS'yoh dis headache'
p2483
aS'youre a slut lol'
p2484
aS'people tweet in dutch and im like fuck yeah i gots dis'
p2485
aS'got home and my mom wasnt mad at me \xf0\x9f\x98\xb1 thank you'
p2486
aS'feelin sassy'
p2487
aS'theres no wifi in my room is this telling me to go sleep'
p2488
aS'early hours of the morning and im seriously considering who is my ultimate otp i have no life'
p2489
aS'she just uses you bc youre cool'
p2490
aS'is it better to be ignored by someone or them lying about loving you'
p2491
aS'that movie was hectic'
p2492
aS'oh really'
p2493
aS'she uses you darling dont you see'
p2494
aS'i only saw now the movie has a 18 age restriction woah im such a rebel'
p2495
aS'the shark ate them all'
p2496
aS'threesome in water wtf'
p2497
aS'the girls are topless wtf am i watching porn or'
p2498
aS'why am i watching a movie about shark attacks'
p2499
aS'hi antisocial shy wifi seeking person are you in your element now \xf0\x9f\x98\x82'
p2500
aS'a bit'
p2501
aS'i didnt do anything i was just a it sassy'
p2502
aS'should i go say sorry to my mom bc shes mad at me'
p2503
aS'enjoy the rest of your holiday chad \xe2\x98\x80\xef\xb8\x8f'
p2504
aS'dis gon be a good year'
p2505
aS'hi jayde happy new year\xe2\x80\x9d'
p2506
aS'okay dis really gon be my last tweet pleeeease follow meeee \xe2\x9d\xa4\xef\xb8\x8f'
p2507
aS'okay im gonna risk it and get offline'
p2508
aS'please give a lovely new year follow d have a great day \xe2\x98\xba\xef\xb8\x8f xx'
p2509
aS'i need to go shower but is online oh the struggle'
p2510
asS'2014_43'
p2511
(lp2512
S'tried my best to please you show you what it means to be a victim of love \xf0\x9f\x8e\xb6'
p2513
aS'someone talk to me please \xf0\x9f\x92\x80'
p2514
aS'but who doesnt like some attention'
p2515
aS'decided to take a supplement to make me concentrate \xf0\x9f\x99\x88\xf0\x9f\x99\x86'
p2516
aS'my underwear matchesso yeah kinda got my life figured out and feeling accomplished \xf0\x9f\x98\x82 whatevenislife'
p2517
aS'but really'
p2518
aS'that was a few years ago \xf0\x9f\x98\x82'
p2519
aS'flashback to when this boy told me that he wishes every girl was like me and i was like whut and now i dont even talk to boys bc 0 life \xf0\x9f\x98\x82'
p2520
aS'on the verge of break down'
p2521
aS'\xf0\x9f\x98\xad'
p2522
aS'feeling so fucking sad \xf0\x9f\x9a\xac'
p2523
aS'just had the best shower ever \xf0\x9f\x98\x8d\xf0\x9f\x9a\xbf'
p2524
aS'feeling ugly has become a way too often occurrence \xf0\x9f\x92\x80\xf0\x9f\x92\xa9'
p2525
aS'so does this'
p2526
aS'seems appealing \xf0\x9f\x91\x8c'
p2527
aS'tryna break the chains but the chains only break me'
p2528
aS'my hearts beating in slow motion knowing that its a lie thoughts got me thinking bout suicide baby this is do or die'
p2529
aS'dis boys exists \xf0\x9f\x94\xa5\xf0\x9f\x99\x8b please let them be real\xf0\x9f\x99\x8a\xf0\x9f\x99\x8a'
p2530
aS'dis boys exists \xf0\x9f\x94\xa5\xf0\x9f\x99\x8b'
p2531
aS'and all your boys say that i aint shit and they the same ones lost in the club them niggas is basic'
p2532
aS'i see youre happy now youre the life of the party acting out aint seen you in months you aint call me once'
p2533
aS'lets be procrastination buddies'
p2534
aS'bro he has always been fiiine \xf0\x9f\x94\xa5\xf0\x9f\x94\xa5\xf0\x9f\x94\xa5\xf0\x9f\x94\xa5'
p2535
aS'studying and watching soccer the ultimate multitask \xf0\x9f\x92\xaa'
p2536
aS'and i on the stalk jayde if he follows me ill chise slide into his dms \xf0\x9f\x98\x82 tftd lovethesestudysessions'
p2537
aS'he had on a sexy tie for his matric ball he wasnt sexy but his tie was \xf0\x9f\x98\x82 tftd lol'
p2538
aS'there was about 10000 goals tonight \xf0\x9f\x99\x8a'
p2539
aS'my anaconda might overthink it resulting in depression'
p2540
aS'if i take a study break for you youre probably cool \xf0\x9f\x8c\x88\xf0\x9f\x8c\x80\xf0\x9f\x90\xac\xf0\x9f\x8c\xbb'
p2541
aS'there are mistakes in wced exam memos wtf is education anyway'
p2542
aS'if you dont look like a hobo while studying youre doing it wrong'
p2543
asS'2014_42'
p2544
(lp2545
S'my mommy is making me watch this scary movie with her \xf0\x9f\x98\xad\xf0\x9f\x98\xad\xf0\x9f\x98\xad'
p2546
aS'perks of dating me what perks \xf0\x9f\x98\x82'
p2547
aS'idk kinda wanna get to know you \xf0\x9f\x92\x8e\xf0\x9f\x8c\x88\xf0\x9f\x8c\x80'
p2548
aS'i dont want feelings i want new clothes'
p2549
aS'if by chance youre laying next to someone else right now i hope its the worst sex ever hope its the worst sex ever \xf0\x9f\x94\xa5\xf0\x9f\x92\x83\xf0\x9f\x8e\xb6\xf0\x9f\x99\x8b\xf0\x9f\x98\x82'
p2550
aS'123 am thinking about you dont wanna be without youuu'
p2551
aS'snapchatting someone you like is so much harder than snapchatting a friend'
p2552
aS'last night this guy started to talking to me and then said youre so cute i want to eat you up \xf0\x9f\x98\x82 was i suppose to laugh or cry \xf0\x9f\x98\x82\xf0\x9f\x98\x82\xf0\x9f\x98\x82'
p2553
aS'was literally scared to look at the photos on my phone this morning \xf0\x9f\x98\x82\xf0\x9f\x98\x82'
p2554
aS'holy fuck just hit me that im done with school hallelujah sister amen bless'
p2555
aS'my old crushs sister keeps putting videos and pictures of him on snapchat and i die a little \xf0\x9f\x92\x80'
p2556
aS'serious question what are you wearing tomorrow \xf0\x9f\x91\x97\xf0\x9f\x91\x97\xf0\x9f\x91\x97\xf0\x9f\x91\x97'
p2557
aS'who signed off nut on my dress today iwanttofindyou'
p2558
aS'writing all my friends letters tonight \xf0\x9f\x98\xad\xf0\x9f\x92\x97\xf0\x9f\x93\x9d\xf0\x9f\x92\x8c'
p2559
aS'on the verge of giving up'
p2560
aS'quick forget the world rn and make something of this moment be spontaneous'
p2561
aS'i would love you if you'
p2562
aS'probably pissed about 10000 people off today'
p2563
aS'i really think that victoria beckhams work gets so easily overlooked she is an inspirational women \xf0\x9f\x94\xae'
p2564
aS'im so in love with neymar \xf0\x9f\x98\x8d'
p2565
aS'really annoyed rn i cannot depend on anyone this is horrible'
p2566
aS'im about to do some body shoooots'
p2567
aS'intoxicated thats when i think about you the most'
p2568
aS'so baby tonight im blowing up your liiiife \xf0\x9f\x92\x83'
p2569
aS'drunk texting \xf0\x9f\x98\x8d\xf0\x9f\x8d\xb7\xf0\x9f\x8e\xa4'
p2570
aS'idk youre so mysterious i just want to get to know you and maybe love you \xf0\x9f\x8c\x80'
p2571
aS'everyone talks so much shit about you and i genuinely care but youll never know \xf0\x9f\x98\x92'
p2572
aS'some people are actually ridiculous tbh'
p2573
asS'2014_41'
p2574
(lp2575
S'goals be shakira'
p2576
aS'can you tell that its almost christmas \xf0\x9f\x99\x8b\xf0\x9f\x98\x81 bought me some christmas shoes today \xf0\x9f\x98\x82'
p2577
aS'sinuss \xf0\x9f\x98\xa4'
p2578
aS'apparently when boys stop talking to you they talking to someone else'
p2579
aS'i think that i have a shoe addiction \xf0\x9f\x99\x8b'
p2580
aS'my parents are making me go with them for lunch \xf0\x9f\x98\xad no im feeling sick and dont want to leave my room'
p2581
aS'drug me \xf0\x9f\x98\xad\xf0\x9f\x94\xaa\xf0\x9f\x92\x89\xf0\x9f\x98\xad\xf0\x9f\x9a\xac\xf0\x9f\x94\xab\xf0\x9f\x94\xaa\xf0\x9f\x92\xa3\xf0\x9f\x98\xad'
p2582
aS'cape town is way too small everyone knows everyone and im not sure if i like it that way or not '
p2583
aS'lets do it again \xf0\x9f\x99\x8b'
p2584
aS'they say you cant have cake and eat it too but aint that what you suppose to dooooo'
p2585
aS'cake \xf0\x9f\x98\x8d'
p2586
aS'me what can i wear today mom please wear something pretty yoh okay den like i wear ugly clothes'
p2587
aS'actually doing exercise and going to gym out of choice this is a big game changer for me \xf0\x9f\x98\x82\xf0\x9f\x92\xaa\xf0\x9f\x92\xaai normally do literally nothing'
p2588
aS'hey date me free 2 week trial'
p2589
aS'\xf0\x9f\x98\xa9\xf0\x9f\x99\x8c'
p2590
aS'truth \xf0\x9f\x98\xa9'
p2591
aS'actual relationship goals'
p2592
aS'when life gives you lemons get the tequila ready \xf0\x9f\x8d\x8b'
p2593
aS'dylan o be my boyfriend \xf0\x9f\x98\x8d'
p2594
aS'girls like booty too'
p2595
aS'neck massage will be good right about now'
p2596
aS'where are you \xf0\x9f\x90\xa3'
p2597
aS'hiiiiiiii \xf0\x9f\x94\xae'
p2598
aS'hahah not really my dads keeping at all \xf0\x9f\x98\x82 ilostout'
p2599
aS'woke up after the best nap ever \xf0\x9f\x98\xb2\xf0\x9f\x98\x8d'
p2600
aS'it aint hard to see it through girl boy i know you want to so tell me you gon serve it up nice the customers always right baby'
p2601
aS'my phone feels glorious now that its fixed \xf0\x9f\x94\xae'
p2602
aS'feeling happy today \xf0\x9f\x8c\xbb\xf0\x9f\x8c\xb7\xf0\x9f\x8c\xb8\xf0\x9f\x92\x90\xf0\x9f\x8c\xbc\xf0\x9f\x8c\x88 these days dont come too often \xf0\x9f\x98\x82'
p2603
aS'ive got a sweet tooth and its just for you\xf0\x9f\x92\x83\xf0\x9f\x92\x83\xf0\x9f\x92\x83\xf0\x9f\x92\x83\xf0\x9f\x92\x83\xf0\x9f\x92\x83'
p2604
aS'cant get this song out of my head \xf0\x9f\x98\x82\xf0\x9f\x98\x82\xf0\x9f\x98\x82'
p2605
aS'id like to have dessert for starters tell me baby cant you take my order \xf0\x9f\x99\x8b\xf0\x9f\x8e\xb5\xf0\x9f\x8e\xb6\xf0\x9f\x91\xaf\xf0\x9f\x92\x83'
p2606
aS'oops didnt see your reply \xf0\x9f\x98\x82\xf0\x9f\x98\x82 not a secret anymore i guess \xf0\x9f\x98\x82\xf0\x9f\x98\x82'
p2607
aS'new ish valedictory plan \xf0\x9f\x99\x8b\xf0\x9f\x98\x88\xf0\x9f\x8d\xbb \xf0\x9f\x8d\xb8\xf0\x9f\x8d\xb7\xf0\x9f\x8d\xb9\xf0\x9f\x8d\xba make sure you have proof that youre 18 by next week please'
p2608
aS'please study today so that next week can happen \xf0\x9f\x98\x94'
p2609
aS'my domestic worker just walked into my room opened all the blinds and windows and left wtf im sleeping man'
p2610
aS'on my way to get a brad so i dont havta be a loner \xf0\x9f\x8f\x83'
p2611
aS'bestestestestestestest friends \xf0\x9f\x92\x97\xf0\x9f\x99\x8b\xf0\x9f\x94\xae\xf0\x9f\x91\xad\xf0\x9f\x91\x8c\xf0\x9f\x98\xad\xf0\x9f\x92\x97\xf0\x9f\x8c\xb8\xf0\x9f\x98\x98'
p2612
aS'today was a good day i reckon \xf0\x9f\x99\x8b\xf0\x9f\x94\xae'
p2613
aS'waves a magic wand headache goes away'
p2614
aS'someone make my headache go away \xf0\x9f\x94\xae'
p2615
aS'got my screen fixed today guess its been a good day'
p2616
aS'sigh \xf0\x9f\x98\xad'
p2617
aS'hi boo \xf0\x9f\x98\x8d'
p2618
aS'thank you \xf0\x9f\x99\x8b'
p2619
aS'someone please tell me what to wear today or else im never getting out of bed today \xf0\x9f\x98\x90'
p2620
aS'do i need to book my phone in to have it fixed on the same day or can i just take it into a store urgent'
p2621
aS'just me or'
p2622
aS'cute that you think so \xf0\x9f\x98\x82\xf0\x9f\x98\x82'
p2623
aS'you know you hot though \xf0\x9f\x92\x80'
p2624
aS'this over partying anyday \xf0\x9f\x99\x8b'
p2625
aS'wow neymar is glorious \xf0\x9f\x98\x8d'
p2626
aS'people say time heals all wounds but i think it wears you down and makes you tired and doesnt help at all'
p2627
aS'tattoos and man buns are it'
p2628
aS'maybe i miss you'
p2629
aS'who said you cant find love in the club \xf0\x9f\x94\xa5\xf0\x9f\x94\xa5'
p2630
aS'didnt say i miss it just couldnt stop thinking about you being annoying \xf0\x9f\x98\x82\xf0\x9f\x98\x82\xf0\x9f\x98\x82'
p2631
aS'but i dont want to get out of bed now \xf0\x9f\x98\xad\xf0\x9f\x98\xad\xf0\x9f\x98\xad\xf0\x9f\x98\xad\xf0\x9f\x98\xad\xf0\x9f\x98\xad\xf0\x9f\x98\xad\xf0\x9f\x98\xad'
p2632
asS'2014_40'
p2633
(lp2634
S'happy birthday gurl hope you had a lovely day \xf0\x9f\x92\x97 and enjoyed the whale festival \xf0\x9f\x98\x82 xx'
p2635
aS'my anaconda will take whatever it can get at this point'
p2636
aS'watching frozen and cant stop thinking about you and your singing \xf0\x9f\x98\x82\xf0\x9f\x98\x82'
p2637
aS'random but dont you think that its time to change your twitter picture \xf0\x9f\x98\x81'
p2638
aS'so proud of you \xf0\x9f\x91\x8c'
p2639
aS'what a fun night congratulations david im so proud x vb haigclub'
p2640
aS'okay maybe \xf0\x9f\x99\x8b'
p2641
aS'french toast and nomu chocolate milkshake for breakfast can life get any better'
p2642
aS'trueeee \xf0\x9f\x91\x8c\xf0\x9f\x8d\xab'
p2643
aS'dont think ive honestly read anything more accurate than this'
p2644
aS'whyneymar'
p2645
aS'wgat the actualy fuckthat selfie'
p2646
aS'dead dead wtf'
p2647
aS'songs on 12 play chris brown \xf0\x9f\x98\x8d'
p2648
aS'feeling so unloved rn \xf0\x9f\x99\x8b'
p2649
aS'atelophobia is the fear of not being good enough or having imperfections'
p2650
aS'i hate you come hold my hand'
p2651
aS'i never sleep early but when i do its bc im sad'
p2652
aS'what will ever cheer me up'
p2653
aS'today has been a bad day a very bad day \xf0\x9f\x98\xad'
p2654
aS'my ma is actually useless living by me'
p2655
aS'im probably gonna end up crying today'
p2656
aS'blasting my music to put me in a better mood partially working'
p2657
aS'you fucking cunt never wake me up'
p2658
aS'why pimples why'
p2659
aS'please do yourself a favour and youtube chris brown grinding to take you down \xf0\x9f\x92\xaf\xf0\x9f\x94\xa5\xf0\x9f\x94\xa5\xf0\x9f\x94\xa5\xf0\x9f\x94\xa5'
p2660
aS'shes dying to talk to you but refuses to text you'
p2661
aS'this is the most accurate representation of my life \xf0\x9f\x99\x8a'
p2662
aS'im 18 and my biggest goal is independence yet i want my mommy to come back already makes sense \xf0\x9f\x98\xbc'
p2663
aS'i am the most scared person youll ever meet'
p2664
aS'guys deserve to be pampered too'
p2665
aS'get me my mommy \xf0\x9f\x98\xad\xf0\x9f\x98\xad\xf0\x9f\x98\xad'
p2666
aS'everyone leaves but its my own fault'
p2667
aS'hahahah \xf0\x9f\x98\x82\xf0\x9f\x99\x88\xf0\x9f\x98\x82\xf0\x9f\x99\x8a'
p2668
aS'i fb stalked my old crush and it was a disaster \xf0\x9f\x98\x82'
p2669
aS'wtf is that you \xf0\x9f\x98\x8d'
p2670
aS'can my mommy come home please'
p2671
asS'2014_44'
p2672
(lp2673
S'if you think that im ignoring you i probably am'
p2674
aS'anxiety hair loss \xf0\x9f\x99\x8a'
p2675
aS'no1 reason why i prefer not to talk to anyone'
p2676
aS'i fucking hate maths paper 2'
p2677
aS'gonna be alone at home tonight someone come visit \xe2\x9c\x8c\xef\xb8\x8f'
p2678
aS'daddy took me for lunch \xe2\x9d\xa4\xef\xb8\x8f\xf0\x9f\x98\xad\xe2\x9d\xa4\xef\xb8\x8f'
p2679
aS'next time we talk i dont wanna just talk i wanna trust'
p2680
aS'win grandprize 2 return domestic flights for 2 rtamp follow amp tampcs apply'
p2681
aS'win grandprize 2 return domestic flights for 2 rtamp follow amp tampcs apply'
p2682
aS'do you still feel like that \xf0\x9f\x98\x82'
p2683
aS'when u accidentally touch ur heart'
p2684
aS'when you accidentally touch your soul'
p2685
aS'i hope this shit is worth it'
p2686
aS'gonna study from 2 till 2 leggo geography \xf0\x9f\x8c\x8d\xf0\x9f\x99\x88\xf0\x9f\x92\x80'
p2687
aS'feeling kinda bleh'
p2688
aS'but who will love a girl with an anxiety disorder \xf0\x9f\x98\x9e'
p2689
aS'is it socially accepted to tell guys that theyre fiiine \xf0\x9f\x99\x8a'
p2690
aS'when someone sends you a hot snapchat and if you have to decide if its worth looking like a creeper and replaying it to\xe2\x80\xa6'
p2691
asS'2014_29'
p2692
(lp2693
S'i appreciate your pats thank you \xe2\x98\xba\xef\xb8\x8f'
p2694
aS'when girls think foundation covers their acne'
p2695
asS'2014_28'
p2696
(lp2697
S'lmao \xf0\x9f\x98\x82\xf0\x9f\x98\x82\xf0\x9f\x98\x82 yohhhh'
p2698
aS'it would really be fabulous if i could just find a nice guy'
p2699
aS'what are you doing awake me talking to bae you dont even have a bae \xf0\x9f\x98\x82\xf0\x9f\x98\x82\xf0\x9f\x98\x82'
p2700
aS'a girls twitter is full of hints'
p2701
aS'life is too short to be angry at people \xf0\x9f\x98\x8a'
p2702
aS'im confused \xf0\x9f\x91\x80'
p2703
aS'just dmd thanks'
p2704
aS'before opening my cupcake i saw a long a hair in it disgusting \xf0\x9f\x98\xa3'
p2705
aS'i nogal miss you '
p2706
aS'you have a beautiful country wonderful people and amazing footballersthis match may not destroy your pride brasil ht\xe2\x80\xa6'
p2707
aS'proud'
p2708
aS'oscar \xf0\x9f\x98\xad\xf0\x9f\x98\xad\xf0\x9f\x98\xad\xf0\x9f\x98\xad\xf0\x9f\x98\xad'
p2709
aS'hahaha no shame im leaving her to sleep \xf0\x9f\x98\x81'
p2710
asS'2014_21'
p2711
(lp2712
S'i tied my cousins hair up and she ran to pose and told me to take a picture \xf0\x9f\x8c\xb7 britishinvasion'
p2713
aS'congratulations proudfriend'
p2714
aS'when i have a crush on someone i play it cool like really cool like i do nothing to show im attracted to them this never work\xe2\x80\xa6'
p2715
aS'the scratches on my arm will always be a mystery'
p2716
aS'whats good is worth waiting for the reward for hard work and sacrifice for so many years kings of europe'
p2717
aS'i see hearts \xf0\x9f\x98\x8d'
p2718
aS'im studying for lo i dont even have a life whats the point'
p2719
aS'ramos is a lovely lad'
p2720
aS'ramos on what casillas said to him after the late equaliser you are the fucking chief'
p2721
aS'imagine the vibe in madrid rn'
p2722
aS'ramos and iker'
p2723
aS'ramos \xf0\x9f\x98\x8d'
p2724
aS'blesssss'
p2725
aS'what are nails'
p2726
aS'fragile'
p2727
aS'please no penalties \xf0\x9f\x99\x8f'
p2728
aS'this picture is priceless'
p2729
aS'motherfucking bae'
p2730
aS'alonsos reactions are priceless'
p2731
aS'real madrid gives me headaches'
p2732
aS'what did i do wrong now again'
p2733
aS'haha pleasure hope you feel better when you wake up xxx'
p2734
aS'ive been up since 6 oh ok'
p2735
aS'haha how long do you still have to wait'
p2736
aS'please tell me you read my letter'
p2737
aS'reply to me while youre waiting '
p2738
aS'breaking news and official  psg have signed david luiz'
p2739
aS'luiz \xf0\x9f\x98\xad'
p2740
aS'help'
p2741
aS'i need to concentrate on studying not dom boys'
p2742
aS'my mother is making me decide on a matric dance partner this weekend like can ya not'
p2743
aS'my study timetable is literally planned around tomorrows final'
p2744
aS'life would be easier if you loved me back'
p2745
aS'i have the best aunty in the world'
p2746
aS'pretending you dont have feelings of anger sadness or loneliness can literally destroy you mentally leg\xe2\x80\xa6'
p2747
aS'studying on a friday night is one the shittiest of things'
p2748
aS'that tweet fitted perfectlywow'
p2749
aS'one direction one direction one direction one direction one direction one direction one direction one direction one direction one direction'
p2750
aS'sleep makes everything better'
p2751
aS'but have you not realized that theres something going on'
p2752
aS'im fine now go'
p2753
aS'special people in my life \xf0\x9f\x92\x97'
p2754
aS'idk man just leave me alone'
p2755
aS'please tell me what you wanted to tell me k bye'
p2756
aS'cant seem to tell the difference between hunger cramps or nerves'
p2757
aS'me rn'
p2758
aS'12 dietary related diseases can suck my non existent balls'
p2759
aS'precisely'
p2760
aS'sometimes you have to fake a smile just to stop people from asking what is wrong'
p2761
aS'you and i ontheroadagain1d'
p2762
aS'still havent met one guy thatll reply to everything in a message and not just one thing'
p2763
aS'if im prepared to sacrifice my sleep for you know that youre special bc'
p2764
aS'go'
p2765
aS'is sucking your thumb really such a bad thing'
p2766
aS'when zayn does his highnotes in dubai the whole stadium is gonna be like mashallah'
p2767
aS'my bro'
p2768
aS'shitttttttt'
p2769
aS'wtf niall snd neymar fuck'
p2770
aS'fun \xf0\x9f\x98\x82'
p2771
aS'so sick of love songs \xe2\x9c\x8c\xef\xb8\x8f'
p2772
aS'im getting one direction tickets for my birthday yusssss'
p2773
aS'did something happen again or'
p2774
aS'rt this tweet for a chance to win golden circle tickets to see 1d live in south africa 1dsouthafricagiveaway'
p2775
aS'hate that i love you \xf0\x9f\x8e\xb5'
p2776
aS'why is ronaldo naked on vogue and why cant i be irina paaaapii'
p2777
aS'must everything you do make me wanna smile can i not like you for awhile'
p2778
aS'\xf0\x9f\x98\xad yoh'
p2779
aS'thanks for not replying to me youre such a gentleman'
p2780
aS'youre such a dick ew get over yourself'
p2781
aS'lol'
p2782
asS'2014_20'
p2783
(lp2784
S'thanks for being my judging partner so i wouldnt be a loner tonight \xf0\x9f\x98\x82 xxxc'
p2785
aS'thanks for being my polisher and serviette folder and ball hanger and friend \xf0\x9f\x98\x82\xf0\x9f\x92\x97'
p2786
aS'what is dancing and what are moves'
p2787
aS'so proud of for learning dem dance moves \xf0\x9f\x92\x82\xf0\x9f\x92\x83'
p2788
aS'yoh the accuracy'
p2789
aS'become my online math tutor'
p2790
aS'missioning with andrew \xf0\x9f\x91\x8f'
p2791
aS'its 2014 and im wearing a colour skinny jeans werkingit'
p2792
aS'professional ball maker \xf0\x9f\x92\xa5'
p2793
aS'im still learning to love just starting to crawl'
p2794
aS'someone entertain me'
p2795
aS'thanks for not replying to me i appreciate it \xf0\x9f\x98\x8a you motherfucking bitch'
p2796
aS'why am i this funny'
p2797
aS'its a fun fact but its not fun its just a fact tftd \xf0\x9f\x98\x82\xf0\x9f\x98\x82'
p2798
aS'dont ship them ill ship her and sink her tftd \xf0\x9f\x98\x82 thats true love right there'
p2799
aS'define boys'
p2800
aS'woke up and im alone at home oh ok'
p2801
aS'why do i even think about you'
p2802
aS'i figured it outsaw the mistakes of up and down meet in the middle theres always room for common ground'
p2803
aS'do they fight like we do'
p2804
aS'i might have or might not have just insta stalked you oops'
p2805
aS'theres no time to be confused but yoh'
p2806
aS'bye im gonna go try and get a reply from neymar'
p2807
aS'my printer is the most unreliable piece of shit ever'
p2808
aS'knot of nervousness cloud of sadness'
p2809
aS'this lo project annoys me so much bc its so fucking useless like hello im in matric i could be using my time on something else'
p2810
aS'ew i feel terrible'
p2811
aS'me when im married to a soccer player'
p2812
aS'youre such a fake motherfuckrr'
p2813
asS'2014_23'
p2814
(lp2815
S'arrogance is only attractive if youre scott disick'
p2816
aS'a cumulative frequency curve yea'
p2817
aS'okay \xf0\x9f\x98\x81'
p2818
aS'at least i can draw an ogive surly i should get some credit for that \xf0\x9f\x98\x82'
p2819
aS'can teachers minus marks if i write something ridiculously funny in my exams'
p2820
aS'apparently its international best friends day but im stuck at home studying'
p2821
aS'it\xe2\x80\x99s a metaphor you see you put the textbook in front of you but you don\xe2\x80\x99t give it the power to actually teach you anyth\xe2\x80\xa6'
p2822
aS'i go on tumblr for motivation but it actually turns out to be such a distraction \xf0\x9f\x98\x82'
p2823
aS'get up study maths get back into bed eat study maths repeat'
p2824
aS'give only thing thats getting me through studying is just two more left the thought alone makes me excited'
p2825
aS'i cant even believe that im such a good friend actually \xf0\x9f\x98\xb6 but hey whats friendship without trust \xf0\x9f\x98\x81\xf0\x9f\x92\x81'
p2826
aS'this is why i dont like phone calls \xf0\x9f\x98\x82'
p2827
aS'me answers the house phone my sisters boyfriend hi babe hahahahahahaha'
p2828
aS'i hate being tickled i do not think it is cute i do not think it is funny i will kick you in the fucking face\xe2\x80\x9d'
p2829
aS'hey youre finally legal and ready for some blowjobs xx'
p2830
aS'but i find that everything that bothers me i think that other people will find stupid thats why i never talk to people'
p2831
aS'it has been emotionally draining lol im probably emotionless now'
p2832
aS'after such a hectic week im finally feeling content \xf0\x9f\x98\x8a'
p2833
aS'please dont take your frustration out on me'
p2834
aS'less than two hours \xf0\x9f\x91\xaf'
p2835
aS'if youre not laying in bed or on the couch after that exam youre doing it wrong'
p2836
aS'but today my calculator broke during my exam i knew i had to take another one \xf0\x9f\x98\xb1'
p2837
aS'\xf0\x9f\x91\xab'
p2838
aS'its 1am and im contemplating how im gonna ask someone to my matric dance ok'
p2839
aS'ive been looking forward to sleeping since i woke up'
p2840
aS'there is a special place reserved in heaven for soccer players that translate their tweets \xf0\x9f\x91\xbc'
p2841
aS'i want kylies body with kendalls face khloes attitude kims money and kourtneys boyfriend'
p2842
aS'being stressed and depressed has almost become a personality trait'
p2843
aS'there is something about exam time that just makes me feel on my absolute lowest'
p2844
aS'world cup can start already'
p2845
aS'basically'
p2846
aS'im literally craving to just sleep'
p2847
aS'congratulations oscar \xf0\x9f\x91\xb6\xf0\x9f\x92\x97'
p2848
aS'still sad'
p2849
aS'i just woke up after the best dream \xf0\x9f\x98\xadim sad now'
p2850
aS'goals \xf0\x9f\x98\x8d thiscouldbeusbut im not shakira and youre not pique'
p2851
aS'i just read a bio in your boyfriends thoughts \xf0\x9f\x98\x82\xf0\x9f\x98\x82\xf0\x9f\x98\x82'
p2852
aS'many different situations but some genius just pushed it too the edge today and i just thought id make it public \xf0\x9f\x90\x92'
p2853
aS'my hypothesis is proven boys are dom motherfuckers \xf0\x9f\x8c\x9a'
p2854
aS'i cant help that im an over protective jealous bitch'
p2855
aS'lol just a question'
p2856
aS'is it normal for a guy to to make you feel inadequate and worthy of nothing'
p2857
aS'when you and your friends see someone hot and you just like'
p2858
aS'i do so much for you yet you are being blatantly selfish thank you'
p2859
aS'lampard \xf0\x9f\x92\x99'
p2860
aS'thank you pick me up whenever'
p2861
aS'drive me to the beach'
p2862
aS'my warm and fluffy bed gt'
p2863
aS'neymars watch is brighter than my future'
p2864
asS'2014_22'
p2865
(lp2866
S'omg oh my god \xf0\x9f\x98\x82\xf0\x9f\x98\x82\xf0\x9f\x98\x82 hahahaha ly whoever made this \xf0\x9f\x98\x82'
p2867
aS'well done \xf0\x9f\x92\x97\xf0\x9f\x91\x8f'
p2868
aS'please dont take this personal but you aint shit and you werent special til i made you so'
p2869
aS'ive been fighting for this friendship but you dont even try'
p2870
aS'im sick and tired of being sick and tired its you that im missing'
p2871
aS'so tell me whats the point of fighting because well all end up with scars'
p2872
aS'ask him to take his shirt off askchad amen'
p2873
aS'ask him to take his shirt off askchad'
p2874
aS'chris brown always hits some weak spot in me'
p2875
aS'today i watched a short documentary on cristiano ronaldo and literally got goosebumps'
p2876
aS'liam strikes again bless his soul'
p2877
aS'idk take note'
p2878
aS'nice to be in sweden official you want me to drop by for a quick lesson in french'
p2879
aS'jajajaja csby'
p2880
aS'my ma phoned and i told her that i was alone at home studying she says no man get you a boyfriend so you dont have to be alone oh ok'
p2881
aS'point proven boys are dumb'
p2882
aS'perfect time to start watching series'
p2883
aS'will probably regret not studying'
p2884
aS'dom motherfuckers'
p2885
aS'youre such a dick'
p2886
aS'but i found so many hot pictures of neymar i need to share'
p2887
aS'when you see someone you dont like'
p2888
aS'look how thiago silva directly came to neymar his childhood was very hard too he knows what neymar must be feeling'
p2889
aS'many make fun of neymar on everything he does but in fact hes a very emotional peaceful person he broke down here'
p2890
aS'neymar almost broke down into tears after listening to the story it reminded him of his childhood when he was poor'
p2891
aS'god bless neymar for the world cup may he bring a smile to the million of brazil fans across the globe'
p2892
aS'neymar training on a pitch of sand'
p2893
aS'ive never been in a seriously relationship amp ive never had my heart broken yet i listen to taylor swift amp cry over the\xe2\x80\xa6'
p2894
aS'be careful what you wish for'
p2895
aS'yes'
p2896
aS'snoop tweeted one direction and louis followed him why am i laughing this much \xf0\x9f\x98\x82\xf0\x9f\x98\x82\xf0\x9f\x98\x82'
p2897
aS'are you excited for south africa \xf0\x9f\x91\xaf'
p2898
aS'but guys i finally applied at a university im a big girl now \xf0\x9f\x91\xa7'
p2899
aS'theres is two weeks left im so excited'
p2900
aS'with all these other attractive soccer players i sometimes forget how much i love neymar \xf0\x9f\x98\xbb im in love wow \xf0\x9f\x98\xbb'
p2901
aS'zouis never left each others side in the entire concert thats what real brothers and partners in crime are for'
p2902
aS'over thinking damages'
p2903
aS'why so hot'
p2904
aS'someone talk to me im bored'
p2905
aS'where can i buy self confidence a personality and a pretty face'
p2906
aS'ngl neymar was more attractive when nobody knew about him'
p2907
aS'oscar takes the best selfies'
p2908
aS'i wont even listen to myself though'
p2909
aS'can someone just listen please'
p2910
aS'school has me like'
p2911
aS'when the beat drops while studying'
p2912
aS'i love you but you love her'
p2913
aS'gonna work on it \xf0\x9f\x98\x82'
p2914
aS'sure thang \xf0\x9f\x91\x8c'
p2915
aS'you never know i might wake up one day as shakira'
p2916
aS'so do i choose you or pique \xf0\x9f\x98\x82 hahahaha okay i choose being your friend \xf0\x9f\x8c\x9a'
p2917
aS'am i classified as stupid for thinking about you this much'
p2918
aS'to study or not to study'
p2919
aS'nope not at all'
p2920
aS'its a metaphor you see you put the joint right between ur teeth and light it up like you dont give a motherfuck'
p2921
aS'im off till tuesday thank you bless'
p2922
aS'zouis smoking is a metaphor'
p2923
aS'not at all'
p2924
aS'but guys security was with them when they were smoking joints if you dont find that funny then what is wrong with you'
p2925
aS'im a wreck'
p2926
aS'i dont even care anymore shame'
p2927
aS'so what if they got high'
p2928
aS'shows have been great  \xe2\x80\x9d how great on a scale 1420'
p2929
aS'bands who smoke weed together stay together'
p2930
aS'that video changed my life zouis ftw'
p2931
aS'shakira is the fabbest ever can i be her'
p2932
aS'probably gonna give me diabetes oops'
p2933
aS'if you are not studying on your bed with a furry blanket and popcorn youre doing it wrong'
p2934
aS'me flirting'
p2935
aS'dying is an understatement im suffering sleepisfortheweak'
p2936
aS'apparently i cant live on coffee and monster only'
p2937
aS'watched this 20 times and still laughing'
p2938
aS'have you done entrepreneurship im must still do a bit of clothing and all nutrition nosleep'
p2939
aS'how far are you \xf0\x9f\x91\x80'
p2940
aS'loving you has caused me so much pain'
p2941
aS'apparently hoes aint loyal'
p2942
aS'eyes closed smoking marijuana rolling up that bob marley im a rastaaaa'
p2943
aS'but i dont fuck with broke bitches'
p2944
aS'id like to say we gave it a try id like to blame it all on life'
p2945
aS'its actually perfect'
p2946
aS'on day when im big ill get married in paris wearing givenchy'
p2947
aS'because it is beautiful and your point is irrelevant \xf0\x9f\x98\x82'
p2948
aS'death is approaching'
p2949
aS'but kim kardashian looked like a princess \xf0\x9f\x92\x95'
p2950
aS'shit most fucked up dream ever'
p2951
aS'me i just wanna talk to someone two minutes later me no no no im fine leave me alone'
p2952
aS'but 0 self esteem so'
p2953
aS'gotta fake it till you make it'
p2954
aS'this scratches are getting ridiculous no nails and not cat uh'
p2955
aS'how does one be confident about something'
p2956
aS'i keep on watching shakiras video and it just makes me want world cup even more'
p2957
ag403
asS'2014_25'
p2958
(lp2959
S'me jaydes going to make a friend how do i make a friend like in a pot \xf0\x9f\x98\x82\xf0\x9f\x98\x82 delayedtftd'
p2960
aS'disappointments everywhere'
p2961
aS'your selfie was the best'
p2962
aS'well done \xf0\x9f\x91\x8f'
p2963
aS'dear people i talk to'
p2964
aS'omg chad is so cute \xf0\x9f\x98\xad\xf0\x9f\x98\xad\xf0\x9f\x98\xad\xf0\x9f\x98\xad\xf0\x9f\x98\xad\xf0\x9f\x92\x97'
p2965
aS'confessionnight hahahaha no'
p2966
aS'sooner or later well wonder why we gave up'
p2967
aS'see what you dont understand is fallin in love wasnt part of my plan started with a crush i call you my man'
p2968
aS'everyone i meet is  older than me  hotter than me  more sociable than me do you see my problem'
p2969
aS'for commentator please \xf0\x9f\x98\x82'
p2970
aS'hahahahaha stressed depressed and definitely not well dressed'
p2971
aS'can i see hot boys cry please'
p2972
aS'\xf0\x9f\x98\x92'
p2973
aS'i need a hug or 8 shots of vodka please'
p2974
aS'im a nervous wreck'
p2975
asS'2014_24'
p2976
(lp2977
S'yep'
p2978
aS'sometimes i forget that people are lame and cant read my mind so i actually have to talk to them\xf0\x9f\x99\x88\xe2\x80\x9d cough cough'
p2979
aS'david luiz with a fan in training can i'
p2980
aS'i had the biggest crush on giroud do you remember'
p2981
aS'the light of my life \xf0\x9f\x92\x99\xe2\x9c\x88\xef\xb8\x8f\xf0\x9f\x8c\x8f'
p2982
aS'blonde neymar was the best do you understand how happy i am'
p2983
aS'blonde neymar can get it anyday wait any neymar can'
p2984
aS'but its better to say nothing than to be mean right'
p2985
aS'a lot \xf0\x9f\x98\xad'
p2986
aS'did you know  scolari usually refers to bernard by calling him bernardinho cause he is the smallest in the group'
p2987
aS'new header is better than you \xf0\x9f\x98\x8d\xf0\x9f\x92\x99'
p2988
aS'come visit me \xf0\x9f\x98\xad'
p2989
aS'scolari i told oscar at half time that he owes me a goal he came to me after the game and told me hey boss i paid my\xe2\x80\xa6'
p2990
aS'scolari oscar is a pure good boy every parent would like to have him as a son when press criticized him he didnt eve\xe2\x80\xa6'
p2991
aS'me praying that all these fake neymar fans leave soon amp its just the wc spirit jealousbitchandknowit heismine'
p2992
aS'great minds think alike \xf0\x9f\x91\x8c its been bothering me whole night already \xf0\x9f\x98\x82 okay '
p2993
aS'my biggest question is why would giggs be in south africa when he could get like vip for the world cup '
p2994
aS'congratulation my bro for your goal\xf0\x9f\x91\x8d\xf0\x9f\x91\x8d\xe2\x80\x9d\xf0\x9f\x92\x99\xf0\x9f\x92\x99\xf0\x9f\x92\x99\xf0\x9f\x92\x99'
p2995
aS'im sorry but soccer isnt just about the players being attractive \xf0\x9f\x98\xa3'
p2996
aS'this is the cutest ever davi \xf0\x9f\x92\x99\xf0\x9f\x92\x9a\xf0\x9f\x92\x9b'
p2997
aS'definitely please yussssssss'
p2998
aS'motm oscar please'
p2999
aS'god bless this oscar work rate unmatchable'
p3000
aS'how do yall tweet while the match is on like i thought you suppose to be watching '
p3001
aS'and suddenly everyones a football fan'
p3002
aS'baeeeee'
p3003
aS'only saw now but thanks for the follows \xf0\x9f\x92\x97 xx'
p3004
aS'but the pope is so cool wow'
p3005
aS'hello chad \xf0\x9f\x98\x8a'
p3006
aS'selfie award goes to'
p3007
aS'\xc3\xbaltimo treino antes da estr\xc3\xa9ia vamos com tudo brasil'
p3008
aS'pic sergio portrait'
p3009
aS'why doesnt a rich nigga want me \xf0\x9f\x98\x82\xf0\x9f\x98\x82 dafuq lol onlymyfriends delayedtftd'
p3010
aS'\xf0\x9f\x98\x92\xf0\x9f\x98\x92\xf0\x9f\x98\x92\xf0\x9f\x98\x92'
p3011
aS'im taking a bubble bath and its the best thing to happen in my life rn \xf0\x9f\x9b\x80\xf0\x9f\x98\x8d'
p3012
aS'im basically finished studying for my last ever mid year exams k'
p3013
aS'thursday is a happy day \xf0\x9f\x92\x81 ill be done with exams and world cup starts what more could i ask for'
p3014
aS'why is matric dance a thing'
p3015
asS'2014_27'
p3016
(lp3017
S'thank you \xf0\x9f\x92\x83'
p3018
aS'\xf0\x9f\x91\xad \xf0\x9f\x98\x81'
p3019
aS'one month until my birthday ok'
p3020
aS'if they were to get to the final'
p3021
aS'no no no im not happy with neymar forcing his body to play'
p3022
aS'but he cant risk to get a further injury \xf0\x9f\x98\xad\xf0\x9f\x98\xad\xf0\x9f\x98\xad'
p3023
aS'alvess message got me in tears \xf0\x9f\x98\xad'
p3024
aS'you can clearly see that neymar has been crying a lot in the video \xf0\x9f\x98\xaa\xf0\x9f\x98\xaa'
p3025
aS'i love you my brother thats all i can say at this time you can be sure that we will run twice for you'
p3026
aS'if you cant beat them injure them'
p3027
aS'\xf0\x9f\x92\x99\xf0\x9f\x92\x99'
p3028
aS'official  david luiz has been voted fifas man of the match lion'
p3029
aS'david luiz is the best though'
p3030
aS'my heart is broken'
p3031
aS'thiago and luizs bromance though \xf0\x9f\x92\x99\xf0\x9f\x92\x9a\xf0\x9f\x92\x9b'
p3032
aS'im going to miss luiz so much this next season \xf0\x9f\x98\xad'
p3033
aS'defs \xf0\x9f\x91\x8f'
p3034
aS'god bless brazil'
p3035
aS'what emotional needs talk to meeee'
p3036
aS'sorry bae i was watching soccer \xf0\x9f\x98\x82\xf0\x9f\x98\x98'
p3037
aS'right here \xf0\x9f\x92\x81'
p3038
aS'where you at'
p3039
aS'this matric dance kak is too much of a lus oops'
p3040
aS'today my sister played with a tiger im so jealous \xf0\x9f\x98\xad\xf0\x9f\x98\xad'
p3041
aS'kiss me when im being a brat'
p3042
aS'face timing the sister \xf0\x9f\x98\x82'
p3043
aS'matric ball today in a month nervousaf'
p3044
aS'belgium \xf0\x9f\x99\x8f'
p3045
aS'well played eden\xf0\x9f\x91\x8c\xf0\x9f\x91\x8f'
p3046
aS'can i please massage soccer players legs at times like this \xf0\x9f\x99\x8a'
p3047
aS'im going for belgium \xf0\x9f\x91\x8f'
p3048
aS'i want to talk to you everyday i want you to want to talk to me too \xf0\x9f\x92\x8c'
p3049
ag403
asS'2014_26'
p3050
(lp3051
S'but theres people like you who listen to me \xf0\x9f\x92\x97 so it makes everything better xx'
p3052
aS'dont think too much youll create a problem that wasnt even there in the first place'
p3053
aS'yet to meet a guy that will reply to every question in one message \xf0\x9f\x91\x80'
p3054
aS'still sad but thanks for the second chance x'
p3055
aS'first time i touched my hair since then \xf0\x9f\x98\x81'
p3056
aS'thanks for plaiting braiding dread locking my hair \xf0\x9f\x98\xb3'
p3057
aS'you can see the happiness in his eyes and smile im in love \xf0\x9f\x92\x97\xf0\x9f\x98\x8d'
p3058
aS'ill hold you in my heart till i can hold you in my arms'
p3059
aS'i\xe2\x80\x99ve asked about you and they told me things but my mind didn\xe2\x80\x99t change and i still feel the same whats a life with no fun'
p3060
aS'\xe2\x9c\x88\xef\xb8\x8f \xf0\x9f\x92\x99'
p3061
aS'incredibly proud and jealous \xf0\x9f\x92\x99'
p3062
aS'not that i know of'
p3063
aS'heyy \xf0\x9f\x98\x8a'
p3064
aS'motm \xf0\x9f\x92\x99'
p3065
aS'neymars underwear was the third best thing to happen today \xf0\x9f\x98\x82'
p3066
aS'my love for him is clearly known \xf0\x9f\x92\x99 hahaha'
p3067
aS'i take that as a complement \xf0\x9f\x98\x81\xf0\x9f\x91\x8c'
p3068
aS'but when the entire stadium started to chant neymars name i literally had goosebumps \xf0\x9f\x92\x99 \xf0\x9f\x92\x9b\xf0\x9f\x92\x9a'
p3069
aS'neymarrrrrrr'
p3070
aS'bae \xf0\x9f\x98\x8d'
p3071
as.