(dp0
S'2014_32'
p1
(lp2
S'one person unfollowed me  automatically checked by'
p3
aS'one person followed me  automatically checked by'
p4
asS'2014_31'
p5
(lp6
S'2 people followed me  automatically checked by'
p7
asS'2014_38'
p8
(lp9
S'2 people unfollowed me  automatically checked by'
p10
aS'one person followed me  automatically checked by'
p11
asS'2014_19'
p12
(lp13
S'i also just heard that my cousin is going to be training this week with the marine corps proud fuckyea'
p14
aS'lol i look scary in my profile image i just noticed'
p15
aS'hey im one of john braswells uncles man glad to meet ya'
p16
aS'just learned my younger brother is training to become a united states marine he said he wanted to serve like me i feel honored'
p17
aS'back from another long deployment to afghan home'
p18
asS'2014_15'
p19
(lp20
S'i was thinking the same thing when i watched the season finale'
p21
aS'well define good and bad'
p22
aS'forgot to mention im back and at home'
p23
aS'that\xc2\xb4s cute'
p24
asS'2014_17'
p25
(lp26
S'when does the next season start'
p27
asS'2014_10'
p28
(lp29
S'by the way im being deployed again tomorrow'
p30
aS'damn'
p31
aS'is that you'
p32
aS'thank ya'
p33
aS'leaving for deployment tomorrow'
p34
aS'my brother'
p35
aS'does anyone else have a crush on sadie robinson'
p36
aS'stop fucking hating jesus fucking chirst is this the kinda people i fucking fight for in america'
p37
aS'idk i meant to type somethin else lol'
p38
aS'i cant call you because im on base but i can say good night'
p39
aS'help me out people retweet '
p40
aS'yea though i walk through the valley of the shadow of death i will fear no evil for i am the baddest motherfucker in the goddamn valley'
p41
aS'i support my brothers and sisters who i fight beside day by day'
p42
aS'a united states soldier is who i am'
p43
aS'well ive been shot 3 times by al qaeda i am currently being deployed again to afghanistan for the 5th time'
p44
aS'well ive been shot 3 times by al qaeda i am currently being deployed again to afghanistan'
p45
aS'well ive been shot 3 times by al qaeda i am currently being deployed again to afghanistan'
p46
aS'well ive been shot 3 times by al qaeda i am currently being deployed again to afghanistan'
p47
asS'2014_11'
p48
(lp49
S'good night'
p50
aS'i could talk forever when it comes to my faith in god love the heart to hearts im blessed to have with my friends and famil\xe2\x80\xa6'
p51
aS'im a master sgt in the us army and proud and i wished i was the one who put a bullet in that assholes head'
p52
aS''
p53
aS'good night'
p54
aS'ill be back in merica in 6 months my deployment was extended'
p55
aS'official on my way to afghan again'
p56
aS'i just want a hug \xf0\x9f\x99\x8d'
p57
aS'hug'
p58
aS'i sleep with an m16 beside me in a barracks with my family over seas dontjudgeme'
p59
aS'rt for daryl dixon favorite for shane walsh thewalkingdead'
p60
asS'2014_12'
p61
(lp62
S'welcome'
p63
aS'please visit my page i need to see something'
p64
asS'2014_13'
p65
(lp66
S'the sexiest thing about a girl is her personality oh yeah and her butt i really like butts'
p67
aS'hope ya feel better'
p68
aS'hey guys im official back from a long deployment to afghan but imma be deployed again soon'
p69
asS'2014_9'
p70
(lp71
S'hoorah'
p72
aS'i just finished my 4th deployment to afghanistan might be deploying again'
p73
aS'i am a pirate who were you in your past life via'
p74
asS'2014_6'
p75
(lp76
S'oh i know how ya feel trust me but your pt aint nuthin compared to what we go through'
p77
asS'2014_7'
p78
(lp79
S'hey top 100 oversight gaming is cheating'
p80
aS'yoloswag'
p81
asS'2014_4'
p82
(lp83
S'reflex squad roster'
p84
asS'2014_5'
p85
(lp86
S'merle managed to cut his arm off killed about half a dozen walkers and still survive the zombie apocalypse likeaboss'
p87
aS'what happen dm me'
p88
aS'ah you hate me lol'
p89
aS'lol'
p90
aS'thank you for your support i am on my 4th deployment to afghan and my final deployment'
p91
aS'people suck'
p92
aS'2 more weeks in afghan then back home homesweethome'
p93
aS'that groan in the distance scares me wait its just a cummins'
p94
aS'no problem i wish ya the best but i have 2 go because im in afghan on m 4th deployment hopefully my last'
p95
aS'rt if you think we need a redneck in the whitehouse to clean up their mess'
p96
aS'what branch are ya im army and currently on my fourth deployment'
p97
aS'what type of cancer'
p98
aS'pack dip spit now show me your tits'
p99
aS'in afghan gettin setup and hitting the hay for the night'
p100
ag53
aS'who lol'
p101
aS'nice i live in monroe'
p102
aS'wait what part of nc do you live in'
p103
aS'watching ur new video before i get deployed to afghanistan'
p104
aS'being deployed to afghanistan for the 4th time please keep me in your prayers'
p105
aS'i hope cause im being deployed for the 4th time to afghanistan'
p106
aS'im going onto my 4th deployment to afghanistan in an hour need all the prayers i can get'
p107
aS'being deployed in an hour tired'
p108
aS'i need ya to keep me in ya prayers for a safe deployment just pray for alpha company'
p109
aS'already am might not be on twitter for a while im going ino my 4th deployment in afghan'
p110
aS'i agree but its hard to find the right southern girl in todays world'
p111
aS'he shoud do something for the troops like me im currently heading into my 4th deployment to afghanistan armylife'
p112
aS'on my 4th deployment to afghanistan cant wait to get home armystrong'
p113
aS'hey outlaw can i get a shoutout in a video im currently serving in afghan and im a big fan of yours'
p114
ag53
aS'oh lord'
p115
aS'lol nothing wrong with that'
p116
aS'oh'
p117
aS'wat ya talkin bout'
p118
aS'proudtobecountry'
p119
aS'if ya proud to be from the south can i get a hell yea'
p120
aS'im srry for your loss'
p121
aS'what happen'
p122
aS'creating a new social media site any ideas for names stressed'
p123
aS'my gamerscore makes me a contender what are you go gold to unlock myachievements and get rewarded'
p124
aS'haha yep i know but your welcome'
p125
aS'tryhard'
p126
aS'demoted'
p127
asS'2014_29'
p128
(lp129
S'one person followed me  automatically checked by'
p130
asS'2014_28'
p131
(lp132
S'was your ig account really hacked by trojan'
p133
aS'one person unfollowed me  automatically checked by'
p134
asS'2014_21'
p135
(lp136
S'fuckyoucancer'
p137
aS'mouth cancers a bitch fucky'
p138
aS'yup'
p139
aS'oh shes a beast we call her karma'
p140
aS'all yall crying to michael jacksons hologram really billboardawards'
p141
aS'queer lol'
p142
aS'i just feel like there should be a law that requires everyone to wear a certain amount of clothes before they leave the ho\xe2\x80\xa6'
p143
asS'2014_20'
p144
(lp145
S'i know i was pissed i called them and they said they couldnt do anything i was like bullshit you suspended it you unsuspend it'
p146
aS'they said he was hacking when he was at his dads this week what the hell'
p147
aS'your account has been suspended from xbox live you wont be able to sign in to xbox live until 5302014lt john was suspended'
p148
aS'im getting real tired of you guy and your bullshit bans'
p149
aS'what happened this email is to notify you that your xbox live account privileges have been temporarily suspended due to cheating'
p150
aS'oh lol  i was about to say i would miss it because im being deployed again great excited'
p151
aS'wait theres a new season on'
p152
aS'getting redeployed this week damn redeploymenttoafghan'
p153
asS'2014_23'
p154
(lp155
S'one person unfollowed me  automatically checked by'
p156
aS'i was wondering if you would like to be one of the recorders for a new vision gaming'
p157
aS'4 people followed me and 4 people unfollowed me  automatically checked by'
p158
aS'rt for a chance to win 1 of our brand new lanyard amp a clinch bag opticxgames'
p159
aS'5 people followed me and 3 people unfollowed me  automatically checked by'
p160
asS'2014_22'
p161
(lp162
S'i know it pissed me off when i read that'
p163
aS'and your ass is fine and theres is not lol asspicture'
p164
aS'and the american flag is hanging in my bunk and outside on the base well i might have to do some morning pt'
p165
aS'i also have the same flag hanging in my bunk in the barracks lol'
p166
aS'lol yea plus im getting redeployed some time this month'
p167
aS'im on a military base and we cant take pics lol'
p168
aS'lol this is wierd'
p169
aS'i aint got any way of taking pics right now sadly'
p170
aS'i look kinda like you lol'
p171
aS'is that you in pic'
p172
aS'we kinda look alike'
p173
aS'dont say that you will find love one day'
p174
aS'whats your darkest secret'
p175
aS'just heard im going to redeploy to afghan again for the 11th time sometime in june not announced yet redeployment armylife'
p176
aS'guys come amp go best friends shouldnt'
p177
aS'ill help'
p178
aS'just did'
p179
aS'wow'
p180
aS'whats dm jail'
p181
aS'a pretty mermaid'
p182
aS'go shoot something or go mudding itll make ya feel better'
p183
aS'ill revive them'
p184
aS'good cause im brunette and i have a huge beard lol'
p185
aS'that ass tho'
p186
aS'what does your face look like lol'
p187
aS'yes i would when im not getting deployed'
p188
aS'i did'
p189
aS'gamer follow train 1 follow 2 retweet this 3 follow all who retweet 4 gain active followers'
p190
aS'your pretty'
p191
aS'bae come over me my ass is glued to a lawn chair bae im home alone me'
p192
aS'lol'
p193
aS'a little vodka and moonshine would be good right now what ya think'
p194
aS'lol ok then'
p195
aS'well fuck you to lol i dont see you getting shoot at to protect you guys freedom huh'
p196
aS'me either im glad i wasnt there'
p197
aS'okay so i just got into it with an old man for saying death to this gd country thats one fucking thing you dont say w\xe2\x80\xa6'
p198
aS'if i cant wear my boots i aint goin'
p199
aS'dont like our country fucking leave we dont want you here anyways\xe2\x80\x9d \xf0\x9f\x87\xba\xf0\x9f\x87\xb8'
p200
aS'i drink budlight and moonshine and and jd'
p201
aS'hello soldier i am also apart of the army i am a staff sergeant'
p202
aS'lol same here'
p203
aS'and plus you are very nice to me to'
p204
aS'i try my best lol'
p205
aS'i pick you which do you do'
p206
aS'lol show me you are not an amateur then'
p207
aS'there you go think positive'
p208
aS'i cant sleep with both legs under the covers idk y'
p209
aS'lol not what i mean'
p210
aS'i asked you a question on'
p211
aS'keeps getting better and better also dirtier'
p212
aS'well start sweating and gasping for breath let your legs start quivering'
p213
aS'that looks like one of my cats'
p214
aS'daisy was a beautiful women so you must be to'
p215
aS'no problem i always go to shooting range when im down it lifts my spirit'
p216
aS'thats good dont forget to shoot something'
p217
aS'maybe you never know lol'
p218
aS'youll be fine each time this happens you get stronger and stronger and you learn from your mistakes'
p219
aS'k lol'
p220
ag53
aS'pics lol'
p221
aS'tell him i said army strong soldier'
p222
aS'sorry cousin lol'
p223
aS'yep it sucks but i signed the paper they own me until i get out and your brother army or marines'
p224
aS'i was diagnosed with ptsd a few hours ago and cant sleep'
p225
aS'posttraumatic stress disorder ptsd is a type of anxiety disorder it can occur after you have gone through an extreme emotional trauma'
p226
aS'and when home he has to suffer nightmares of the men he has killed and the lifes that were lost within his company'
p227
aS'one cannot explain the pain a soldier must endure during deployment he is away from his family and friends'
p228
aS'yea kinda lol'
p229
aS'lol thanks'
p230
aS'of you i saw it'
p231
aS'i would do all that lol lt awkward'
p232
aS'lol'
p233
aS'yes it is'
p234
aS'party'
p235
aS'lets not forget the moonshine'
p236
aS'yep jd some vodka and a little bacardi'
p237
aS'i need to lol'
p238
aS'hold on while i cry\xf0\x9f\x98\xad\xf0\x9f\x92\x8d\xe2\x9d\xa4\xef\xb8\x8f'
p239
aS'wow i am a soldier i wish this could happen to me'
p240
aS'thank you for your support of the troops'
p241
aS'gamer follow train 1 follow me key to gaining 2 retweet this 3 follow all who retweet 4 gain gamer followers'
p242
aS'me either but i gotta wake up at 400 am every morning'
p243
aS'yes they are'
p244
aS'same here'
p245
aS'one of my commanders is an asshole i hate him but then again if i disrespect him ill be introuble lol'
p246
aS'gay as fuck'
p247
aS'hacked by your cousin'
p248
aS'if you are female and can twerk send me a video'
p249
asS'2014_25'
p250
(lp251
S'2 people followed me  automatically checked by'
p252
aS'yessss its true we are not being deployed again yes'
p253
aS'one person followed me  automatically checked by'
p254
asS'2014_24'
p255
(lp256
S'2 people unfollowed me  automatically checked by'
p257
asS'2014_26'
p258
(lp259
S'one person followed me and 2 people unfollowed me  automatically checked by'
p260
aS'do it so it '
p261
aS'im headed to kuwait'
p262
aS'3 people unfollowed me  automatically checked by'
p263
aS'2 people followed me  automatically checked by'
p264
as.