(dp0
S'2013_25'
p1
(lp2
S'don cherry\xe2\x80\x99s outfit of the night via'
p3
aS'i feel pretty good about 6 now'
p4
aS'what is your over under for this match i say spain scores 6'
p5
aS'rt us beats honduras 10 usmnt now has a 996 chance of qualifying for world cup 2014'
p6
aS'dear god no no no '
p7
asS'2013_26'
p8
(lp9
S'classy state real classy'
p10
asS'2013_21'
p11
(lp12
S'on this beautiful sunday morning in oxford the countdown continues just 95 days away from the rebels 2013 season'
p13
asS'2013_22'
p14
(lp15
S'going way back with the countdown today we are 91 days out from kicking off the 2013 season live on'
p16
aS'keep spreading the word rebelnation the countdown continues it will be a sea of red in nashville 92 days'
p17
aS'rebelnation the countdown continues we are now 93 days away from taking on vanderbilt to start the 2013 season'
p18
aS'what is your commute time to the mancave '
p19
asS'2013_23'
p20
(lp21
S'mississippi state to get penalized by ncaa'
p22
aS'i would argue that the most damaging thing to education in mississippi is electing someone who has monogrammed cowboy b\xe2\x80\xa6'
p23
asS'2013_28'
p24
(lp25
S'white girl wednesdays often give way to mary jane mondays'
p26
asS'2013_29'
p27
(lp28
S'or maybe you prefer defense heres denzel nkemdiche throwing up the landshark share with your friends hottytoddy'
p29
aS'early congratulations  so happy for both of you today '
p30
aS'just glad the chef who makes applebees double crunch shrimp doesnt wear that hotty toddy emeril'
p31
asS'2012_16'
p32
(lp33
S'molsonmart'
p34
aS'tweet molsonmart to add your twitter handle to our installation by worldrenowned artist kustaa saksi'
p35
asS'2012_10'
p36
(lp37
S'this is how my week goes mooooonnnnnddaaaaaaaaay tueeeesssdaaaaaaayyyyy weeedddnnnesssdayyyyy thursssssdaaaaaaaayyy '
p38
asS'2012_18'
p39
(lp40
S'everyone get ryankennedy trending 9 yr old cancer patient whos wish is to trend on twitter rt'
p41
aS'according to barack obama this is our state'
p42
aS'two russians i assume vodka and girls are involved '
p43
aS'alexander radulov and andrei kostitsyn suspended for game 3 by the predators preds nhl coyotes'
p44
asS'2013_13'
p45
(lp46
S'breaking nick saban in an ole miss landshark photo'
p47
asS'2013_14'
p48
(lp49
S'pringletimes photo'
p50
asS'2013_19'
p51
(lp52
S'how not to fuck up mothers day for your wife gq interviewed me about mothers day this is for husbands everywhere'
p53
asS'2013_18'
p54
(lp55
S'tim tebow hasnt been this sad since he lost to ole miss'
p56
asS'2011_19'
p57
(lp58
S'no not at all'
p59
aS'vandy baseball'
p60
asS'2011_18'
p61
(lp62
S'the actual bear bryant commercial from several followers you folks are awesome'
p63
aS'remember what bear bryant once said be sure to call your momma i wish i could call mine'
p64
aS'you watching at sg '
p65
aS'i love you this much'
p66
aS'the more i read about bin ladens house in pakistan the more he sounds like an evil anne frank'
p67
asS'2011_13'
p68
(lp69
S'preach on brother'
p70
asS'2011_17'
p71
(lp72
S'you going to the office  to watch the game '
p73
aS'random fact the most stolen item at the drugstore is hemorrhoid cream'
p74
aS'7 tornado warnings in 24 hours and el possum still stands'
p75
aS'oh my rt hail in oxford'
p76
asS'2011_16'
p77
(lp78
S'if you take everything out of saturday jeans and place it in sunday pants you might almost put a beer cap in an offe '
p79
aS'sweet  go preds'
p80
aS'where can we get one of your tee shirts '
p81
aS'awesome rt watch an exclusive performance of shook down by from our house down in austin texas htt '
p82
aS'favorite quote if you want to appear smarter hang around someone stupider garfield'
p83
aS'hey man 3hl tweeted you about talking hockey'
p84
aS'yes i did nana told me monday so sad for gill'
p85
aS'hear what monkey  tell me '
p86
aS'cant wait to see you friday monkey'
p87
asS'2011_5'
p88
(lp89
S'fantastic show last night  ran into nancy griffith before the show she is going to check lissie out on youtube'
p90
asS'2013_5'
p91
(lp92
S'up since 230 here no fun tonight'
p93
aS'watch out for henderson'
p94
asS'2013_4'
p95
(lp96
S'need a link rt the original url for the henderson gif is down no fear i am here lets continue '
p97
aS'channel not working on oxford ms went blank after ole miss game get with it  '
p98
aS'fivestar de elijah daniel commits to ole miss maybe i shouldve waited a few years to do meat market in oxford'
p99
asS'2013_7'
p100
(lp101
S'gotta love bama fans rt only in birmingham'
p102
aS'my neighbors are immigrants who came here because they were stuck in poverty in countries where the government domi '
p103
aS'ua players accused of robbery said that they knocked the victim unconscious'
p104
aS'aint jayme says hold your horses'
p105
asS'2013_6'
p106
(lp107
S'the best birth control is watching chew food'
p108
aS'retweet this if you have eaten healthy all weekend'
p109
aS'started from bottom now we here ovo me and my heisman brother mardi grassss '
p110
aS'yep rt johnny manziel is apparently at mardi gras this could get good'
p111
aS'thats also denzel nkemdiche with johnny football sec fun in nola'
p112
aS'get used to it it only gets worse with age '
p113
aS'think olemiss cheated to land topfive class rebels coach hugh freeze says come on with it'
p114
aS'ranking sec recruiting classes from 114'
p115
aS'check the hotel front desk its worth a try'
p116
aS'ole miss aint messing around today big time recruits coming in sec is crazy'
p117
aS'is an english sweet'
p118
aS'all the ole miss hats had been used 5star ashawn robinson just put on the bama hat'
p119
aS'another espn 150 player picks olemiss with s antonio conner going with the rebels over bama batesville is 20 minutes '
p120
aS'the ghost of william faulkner is now insanely drunk ole miss on fire'
p121
aS'and the next time we play football ole miss will likely be in the game aug 29 against vanderbilt'
p122
aS'the superdome lights have committed to ole miss'
p123
aS'im sure theyre passing the hat around the super dome just like we did at tad pad during the ark game it can happe '
p124
asS'2013_1'
p125
(lp126
S'retweet if you are headed to the on saturday to watch the rebels take on pittsburgh lockthelegion '
p127
asS'2013_3'
p128
(lp129
S'poor dores rt incredible lastsecond shots sending olemiss vandy into overtime'
p130
asS'2013_2'
p131
(lp132
S'could this be the most stereotypically ole miss photograph ever'
p133
aS' this game is boring show a j mccarrons girlfriend again'
p134
aS'ndom common opponents norte dame vs pitt 2926 3ot ole miss vs pitt 3817 nd vs bama in 2nd quarter 021 om v '
p135
aS'alabama bin laden'
p136
asS'2013_9'
p137
(lp138
S'this milking cows video is not helping mississippi states image any'
p139
asS'2013_8'
p140
(lp141
S' sorry i couldnt get close to you cuz your genius teammate was too busy messing up the ins '
p142
asS'2013_32'
p143
(lp144
S'roll tide'
p145
aS'red'
p146
aS'blue or red preparing road jerseys on a friday for thursday night'
p147
asS'2012_49'
p148
(lp149
S'so shall it be you cant spell nutt without ut'
p150
aS'ad for vols head coach posted on craigslist'
p151
aS'can we all just agree to ignore whatever comes after dvds i dont want to have to restart my collection'
p152
asS'2012_48'
p153
(lp154
S'run away love your music old friends with matt fat possum'
p155
asS'2012_45'
p156
(lp157
S'never been done i do not see it happening'
p158
asS'2012_44'
p159
(lp160
S'fantastic 30 on 30 lots of good talk press in nashville as an ole miss grad with a history degree well done  '
p161
aS'watch ghosts of ole miss tomorrow night espn 30 for 30'
p162
asS'2012_47'
p163
(lp164
S'rt if you dont give a shit what everyone on facebook is thankful for today'
p165
asS'2012_46'
p166
(lp167
S'this picture of ut vol fan truck postvandy loss is amazing via'
p168
aS'happy birthday '
p169
aS'hope so long way to go failstate'
p170
asS'2012_41'
p171
(lp172
S'what happened '
p173
asS'2012_40'
p174
(lp175
S'vb was cinematic genius awesome ode to varsity blues in this college gameday sign'
p176
aS'seriously yall aampm blog did an ole miss football video in ken burns style'
p177
aS'football ole miss homecoming game will kick off at 1121 am kickoff for ole miss oct 13 homecoming game agai htt '
p178
asS'2012_43'
p179
(lp180
S'in case you needed reminding'
p181
aS'retweet this if you havent murdered anyone today'
p182
aS'on my way to oxford'
p183
asS'2012_42'
p184
(lp185
S'chris johnson is now 1st player in nfl history with 4 career 80 yard td runs tenvsbuf'
p186
aS'give em hell dan ps i will be at the bears game call me'
p187
asS'2011_52'
p188
(lp189
S'we get the tamu fightin rick perrys and dan mullens choochoo of cuckoo coming into town the same year maroon eve '
p190
asS'2011_51'
p191
(lp192
S'with kim jong ils death nick saban becomes the most powerful dictator in the world under 55'
p193
asS'2011_50'
p194
(lp195
S'they say 5 out of 4 people have problems with fractions'
p196
aS'it will be fun to watch both programs next year getfergtooxfordnextyear'
p197
aS'bawhahaha great hire none the less'
p198
asS'2012_8'
p199
(lp200
S'miami or drinking and farting with the knuckle heads  you tell me'
p201
aS'scott  hardy are in dayton drinking at their camper'
p202
asS'2013_39'
p203
(lp204
S'most of life is learning growing falling down and getting back upforgiving and forgettingaccepting and going ons\xe2\x80\xa6'
p205
aS'i meant what ole miss games yall coming to'
p206
aS'what games yall coming to we need to meet up at a titans game'
p207
aS'as your attorney  i advise you to drink heavily'
p208
aS'if this gets 50000 rt by halftime of the bama ole miss game will go streaking across the field beatbama'
p209
asS'2012_4'
p210
(lp211
S'did the captain trip and fall into the lifeboat'
p212
aS'tv in nash said nav lights out on the bridgenotgood'
p213
aS'new ole miss qb gets hit with underage possession of alcohol'
p214
aS'kneesocks'
p215
aS'smile '
p216
aS'no matter what life brings you take a lesson from your dog kick some grass over that shit and move on'
p217
asS'2012_5'
p218
(lp219
S'i have to correct writing on reports from my sales staff all the time ughi feel your pain'
p220
asS'2012_6'
p221
(lp222
S'how did bobbie brown out live whitney'
p223
aS'drinking from an open bottle of wine in front of a baptist church in your car makes you mayor of nashville pretty sure that '
p224
asS'2012_7'
p225
(lp226
S'too funny '
p227
aS'what happened '
p228
aS'any baseball players on the list ole miss hopes so'
p229
asS'2012_1'
p230
(lp231
S'as i mentioned late wednesday night vandy defensive back coach wesley mcgriff has accepted the corners job at ole miss'
p232
aS'dude she just called you taylor swift  oh hell no hold my wait im gonna write a song about this'
p233
asS'2012_2'
p234
(lp235
S'remember eat your school stay in drugs and dont do vegetables'
p236
aS'why is alabamas kicker in the halftime contest'
p237
asS'2012_3'
p238
(lp239
S'great story here on patrick williss upbringing in rural tennessee'
p240
asS'2012_52'
p241
(lp242
S'yall are in trouble now  all good stuff'
p243
asS'2012_50'
p244
(lp245
S'interesting read rt the column hard to square secs suspension decisions on hard hits '
p246
aS''
p247
aS'would love to try this flavor of pringles sold in china via'
p248
asS'2012_51'
p249
(lp250
S'as a graduate of the school from which i attended i feel im obligated to link to this'
p251
asS'2011_35'
p252
(lp253
S'what do you do if you see your ex running around in your front yard covered in blood and screaming for help stay cal '
p254
aS'ole miss named most beautiful  the clarionledger  clarionledgercom via'
p255
aS'get with it girl '
p256
aS'the awkward moment when you spell something right but think its wrong so you just sit there and stare at it'
p257
aS'aha your really gonna fight me over the internet whats the best you can do caps lock my ass'
p258
asS'2011_34'
p259
(lp260
S'dont be surprised if houston nutts name comes up in libyas search for a new head coach'
p261
asS'2011_37'
p262
(lp263
S'rt a gentleman can live through anything unless that thing is 2011 ole miss football'
p264
aS'the demoralizing feeling of losing to vanderbilt and being hungover can only be cured by another booze binge session c '
p265
aS'im pretty sure whoopi goldberg is lil waynes real mother'
p266
aS'its a lou holts doll arkansas years'
p267
asS'2011_36'
p268
(lp269
S'really funny rt mike munchaks halftime speech quiet guys im asking jeff fisher on the phone w '
p270
aS'the really long sarcastic hahahahahaha before the no'
p271
aS'you are '
p272
aS'a cute wet dog'
p273
asS'2011_33'
p274
(lp275
S'ole miss freshman cb golson turns down red sox'
p276
asS'2011_32'
p277
(lp278
S'great boots'
p279
asS'2011_39'
p280
(lp281
S'were now the 13th best team in the sec welcometamu'
p282
aS'update hostage negotiation talks stall in congress congresshostage'
p283
aS'ghetto word of the day hotel my momma said she aint gonna tell shaqueta nothing else cuz dat hotel everthang she '
p284
asS'2011_38'
p285
(lp286
S'just caught up with an old pal on the square like most ole miss alums our age all we did was gripe about how crowded t '
p287
aS'nevermind radio on siriusxm is awesome forgot how much i love this band nirvana'
p288
asS'2013_42'
p289
(lp290
S'bill murray has been ejected for targeting '
p291
aS'bill murray has been ejected for targeting'
p292
asS'2013_43'
p293
(lp294
S'my vcr is busted can you tell me when the replay of miss state vs kentucky will air on espn classic thx'
p295
aS'espn doesnt know how to spell mississippi state head coachs name'
p296
aS'oh dan needs to stay for the cheese alone in starkganastan '
p297
aS'whoops we did it again whenning msu with jerseys where spelling doesnt matter artimas samuel'
p298
aS'another msu sellout propaganda'
p299
aS'theybelieve rt this week one year ago mississippi state was undefeated and ranked 11 in the last 12 gam\xe2\x80\xa6'
p300
aS'great truth about the olemiss lsu game from'
p301
aS'sharkd rt oh dan'
p302
asS'2013_40'
p303
(lp304
S'seeing live college football is a great experience not just for the poetry of the game but i havent heard mark mays voi\xe2\x80\xa6'
p305
aS'love you'
p306
asS'2013_41'
p307
(lp308
S'great store  oh and they do deliver'
p309
asS'2013_46'
p310
(lp311
S'rt dmitsch so theres a huge penis on nippert ucprobs'
p312
asS'2013_47'
p313
(lp314
S'hotty toddy starkville feedmoncreif'
p315
aS'one week from tonight the bulldogs will play in a bowl game for the fifth straight year under dan mullen hailstate'
p316
asS'2013_44'
p317
(lp318
S'breaking news common sense prevails judge rules siracha hotsauce factory can stay open for now \xe2\x80\xa6'
p319
aS'a pumpkin killed his daddy'
p320
asS'2013_45'
p321
(lp322
S'thanks for taking time for a pic with me on the square hotty toddy'
p323
asS'2012_29'
p324
(lp325
S'i know theres no way to be sure but i cant help but think bear bryant wouldve beaten sandusky to death with a rock'
p326
aS'donte moncrief looking sharp yea he casket sharp'
p327
aS'i know the feelingenjoy your work'
p328
aS'you are so right  '
p329
asS'2012_28'
p330
(lp331
S'the 3 worst words to hear right nowtoday is monday'
p332
asS'2012_27'
p333
(lp334
S'rip andy griffith listen to this and laugh what it was was football via'
p335
asS'2012_25'
p336
(lp337
S'omg yes'
p338
aS'tweet when you land in manchester'
p339
aS'have fun post stuff on fb and twitter from nanas puter'
p340
asS'2012_23'
p341
(lp342
S'ez good th see you on twitter pringle here'
p343
aS'yes the bama van really has a family photo on the side'
p344
aS'they marinate the chicken for the sandwiches in pickle juice'
p345
aS'really what did jampg have'
p346
asS'2012_21'
p347
(lp348
S'i went to the university of mississippi not mississippi state theres a huge difference'
p349
aS'don cherry jacket update guy always comes to play via'
p350
asS'2012_20'
p351
(lp352
S'asu killing the rebs in b ball dang'
p353
asS'2011_22'
p354
(lp355
S'checkout who i follow if you like them click follow i have nascar driversole miss reports etc'
p356
asS'2011_20'
p357
(lp358
S'arnolds really a kennedy now'
p359
aS'man i dont think sanford and son n the jeffersons can ever get old'
p360
asS'2011_26'
p361
(lp362
S'coaching em up ole miss '
p363
aS'were close enough to the college season that players have to start thinking about when to stop smoking pot so excited'
p364
asS'2011_28'
p365
(lp366
S'well im drinking my troubles away its working'
p367
aS'things you dont want to hear a walmart employee say no hes not supposed to have a gun in here'
p368
asS'2011_29'
p369
(lp370
S'when i see an argument on facebook i sit there refreshing the page while thinking to myself shit this is gonna be g '
p371
aS'amy winehouse died at age 27 what is it about 27 hendrix joplin morrison cobain all died at 27'
p372
aS'i wish i had doras parents they let that bitch go everywhere'
p373
aS'i think car horns should sound like gun shots i bet youll move then'
p374
asS'2011_44'
p375
(lp376
S'rt i would trade saban a kicker for his second string and a coach to be named later olemiss'
p377
aS'ole miss hockey where we beat mississippi state before literally beating mississippi state fights canadians '
p378
aS'waiting gym to opendid i just say that'
p379
aS'best costumes thus far yes'
p380
aS'monday discussion houston nutt halftime activities via'
p381
asS'2011_45'
p382
(lp383
S'bye bye houston nutt '
p384
aS'smile'
p385
asS'2011_46'
p386
(lp387
S'pringles should make their containers like a pushpop'
p388
aS'i dont hate everybody i love everybody some i love to be around some i love to avoid and others i would love to '
p389
aS'yes he did'
p390
asS'2011_40'
p391
(lp392
S'theres a drive thru daiquiri shop on every corner of louisiana'
p393
aS'get it brother'
p394
asS'2011_41'
p395
(lp396
S'knowledge is knowing a tomato is a fruit wisdom is not putting it in a fruit salad'
p397
aS'arizonas mike stoops is fired effectively setting the coaching carousel in motion'
p398
aS'so true dallas balance is needed'
p399
aS'whisky for classy women since well since whenever this awesome picture is from'
p400
asS'2011_43'
p401
(lp402
S'we need a teethoff between lousiville  wvu fans for final big 12 spot'
p403
aS'dam did you get kicked out class'
p404
aS'good grief check out the very very great canadian pumpkin making its way to franklins pumpkinfest'
p405
asS'2011_48'
p406
(lp407
S'u in mtown xmass i will be there w my daughter we need to get the gang together'
p408
aS'the most terrifying question a woman can ask a man is notice anything different'
p409
asS'2011_49'
p410
(lp411
S'thingsthatneedtoend facebook farmville invitations seriously'
p412
aS'checking what time you sent the text calculating how long it took for them to reply  making them wait longer befo '
p413
aS'reading a typo and looking at your keyboard to see if the letters are next to each other soml'
p414
aS'this coach freeze video has me so fired up olemiss hottytoddy'
p415
aS'i am living in nashville let me know if you stay the night in bna'
p416
aS'at least you can still see him coach next year'
p417
asS'2013_37'
p418
(lp419
S'hysterical rt roll sideboob rt'
p420
aS'memphis birthdays are the realest birthdays menphis via'
p421
aS'my moment at the dome today'
p422
asS'2013_36'
p423
(lp424
S'any way we can get siri to lead the hotty toddy chant next game'
p425
aS'spelling errors strike msu yet again'
p426
aS'lou holtz is talking about notre dame history on tv someone make it stop oh please now i can smell shapes'
p427
asS'2013_35'
p428
(lp429
S'my thoughts exactly'
p430
aS'miley cyrus approves rt bama kid with jim beam foam finger'
p431
aS'yes thats an eight year old with a jim beam foam finger rolltide startemyoung'
p432
aS'you think rebs played to these rules posted in the locker room last night i do'
p433
aS'nashville rebel friend informed me this morning that the truck has arrived at vandy1 day finsup'
p434
asS'2013_34'
p435
(lp436
S'well at least tottenham got lucky'
p437
aS'ouch what a match  cardiff over man city'
p438
aS'rt exclusive adidas has also created a special alternate helmet to be worn for the 2013 egg bowl'
p439
asS'2013_33'
p440
(lp441
S'gotta also point out that nbcs premier league coverage was great very good ratings too all soccer is exploding braz\xe2\x80\xa6'
p442
asS'2012_39'
p443
(lp444
S'another great defensive effort from the titans today ballgame'
p445
aS'kickoff has been announced as 826 espn worldwideleaderinlatekickoffs'
p446
aS'nick saban makes his team watch tim tebow\xe2\x80\x99s \xe2\x80\x9cpromise\xe2\x80\x9d for ole miss'
p447
aS'look a you getting an answer from coach freeze'
p448
asS'2013_30'
p449
(lp450
S'shark week is all season long finsup'
p451
asS'2012_34'
p452
(lp453
S'do some homework '
p454
aS'i wish i got as excited to see other people as dogs do when they see other dogs'
p455
asS'2012_36'
p456
(lp457
S'so funny'
p458
aS'yes they are  sad faces in nashville '
p459
aS'great to see yall this weekend getfergtooxford'
p460
asS'2012_37'
p461
(lp462
S'i wonder about you guys on pintrest'
p463
aS'how is j doing '
p464
aS'my brother got into some poison oak'
p465
asS'2012_30'
p466
(lp467
S'thus the lithium rt 18yearold ted turner announced he was to major in classics his dads response '
p468
asS'2012_31'
p469
(lp470
S'i am now  get a pic on your profile '
p471
asS'2012_32'
p472
(lp473
S'tell him to get down'
p474
as.