(dp0
S'2011_44'
p1
(lp2
S'aaaaw arent u just the sweet one love u'
p3
asS'2011_19'
p4
(lp5
S'sumtymz i just wishwe could trun da handz of time'
p6
aS'sick behond'
p7
asS'2011_18'
p8
(lp9
S'suffering 4rm hik upz help'
p10
aS'mwah u mad girl wat ur mum say'
p11
asS'2012_29'
p12
(lp13
S'patently i wait sigh'
p14
asS'2011_51'
p15
(lp16
S'have the most adorable friend i love u kirsten  couldnt hav asked 4 a beta fwd'
p17
aS'hay you '
p18
aS'oh yoa hectic ya i hav a job at canal walk'
p19
aS'i noo bt y u not on bbm enymore'
p20
asS'2011_45'
p21
(lp22
S'so we ask ourselfs the question wat happends nw '
p23
asS'2011_41'
p24
(lp25
S'wat a crappy daysigh'
p26
asS'2011_17'
p27
(lp28
S'okiedokiedid kay say she maybe going 2 chrome'
p29
aS'y babe wat happend'
p30
aS'hw can i move onwen i am stil inlove wif u'
p31
aS'lolkirky i no wat u gana dohehe gr8 weather 2 cuddle wif mrlt hehe love u'
p32
aS'mwah thanx 4 everything ma lil gul love u'
p33
aS'i hate winter'
p34
aS'get warm'
p35
aS'letz go put on ourpjz'
p36
aS'hehehenah i struggled ma way thru itdnt wana go bk hell noo'
p37
asS'2011_46'
p38
(lp39
S'itz nt the same enymore'
p40
aS'aaw thank you kirsten blush blush u rock as a friend 2hehe cnt wait 2 party so0o0oo0n wink hehe'
p41
asS'2011_14'
p42
(lp43
S'lol thatz just mean'
p44
aS'i sooo agree wif that\xc3\xactz just hw i work'
p45
aS'the twilight of our love'
p46
aS'you know what i think hurts the most the feeling of being replaced it\xe2\x80\x99s like no matter what you did it wasn\xe2\x80\x99t enough'
p47
asS'2011_47'
p48
(lp49
S'falling'
p50
aS'run away wif ma heartrun away wif my love'
p51
asS'2013_22'
p52
(lp53
S'if you only knew how much l think about you'
p54
aS'itz so hard to say goodbye when it comes 2 you'
p55
aS'still ignoring me'
p56
aS'i believe in fairy tales'
p57
asS'2013_23'
p58
(lp59
S'i call it cheap men'
p60
aS'guys are so gullible  just say something that excites them and they like putty in your hands  pathetic'
p61
asS'2011_40'
p62
(lp63
S'it was south africas game 2 win dam ref robbed us'
p64
asS'2012_24'
p65
(lp66
S'but u have been living here insa all ur life'
p67
aS'lol u hav a lot 2 learn'
p68
aS'and u onli discovered that word nw'
p69
aS'lol domkop'
p70
asS'2012_23'
p71
(lp72
S'on twitter instead of sleepingyolo'
p73
aS'still awake'
p74
aS'im not ignoring you im just waiting for you to talk to me first'
p75
aS'goooood muthafuckin morning people stop bitching about monday  take monday  bend it over amp fuck it like a champ '
p76
asS'2012_22'
p77
(lp78
S'lol hectic haha will onli happen in cape town'
p79
aS'lol where did this happen'
p80
aS'pssssssh '
p81
aS'okie'
p82
aS'lol no not u'
p83
aS'that awkward moment when someone invites them self and u like errrruhmya i guess'
p84
aS'that awkward moment when men think we need them huh really hahaha thats funny'
p85
aS'tha moment when guys think they have u wrapped around there fingernigga please talk 2 the hand'
p86
asS'2012_21'
p87
(lp88
S'coke n cola mmmmm'
p89
aS'karma is a bitch just make sure that bitch is beautiful'
p90
aS'cupid aim like a mofo'
p91
aS'being called weird is like being called limited edition meaning you\xe2\x80\x99re something people don\xe2\x80\x99t see that often remember that'
p92
asS'2012_20'
p93
(lp94
S'that awkward moment when your ex downgrades so bad its almost funny im so much better than her new one'
p95
aS'i no i deserve'
p96
aS'asshole '
p97
aS'so cold ryt nw'
p98
aS'lovely day with the fam'
p99
aS'sometimes i wish i could hurt you the way you hurt me but i know if i had the chance to i wouldnt'
p100
aS'memories seeps through my vains'
p101
aS'mwa'
p102
aS'ya sumthing like that'
p103
aS'nah its nuthing on a downer'
p104
aS'control yourself'
p105
aS'dont tell me who my ex is with i feel sorry for both she gets my sloppy seconds and he lowers his standards'
p106
aS'lolwill wait patiently'
p107
aS'hahathe q is do u hav the skill 2 give a good massage'
p108
aS'loli need 1 to so a massage 4 a massage'
p109
aS'when someone steals ur dream'
p110
aS'laying in bed listening 2 music any ideas on whats hot that i should download songs'
p111
asS'2011_42'
p112
(lp113
S'some people alwayz make a big issue out of something small'
p114
aS'last day off collegegana miss my cosmo chickzz smo0ch'
p115
asS'2011_43'
p116
(lp117
S'sexy and i no it lmfao'
p118
asS'2011_21'
p119
(lp120
S'i cnt belive itwat do u tak me 4'
p121
asS'2012_8'
p122
(lp123
S'awkward moment wen u making styles wif chop stickz and ur sis is like i eat wif that oopzz'
p124
asS'2012_9'
p125
(lp126
S'fly away in2 the stars'
p127
aS'that moment wen ur bf was out with friend and ex he gets home and is 2 tired 2 talk 2 u on the phone'
p128
aS'that shit moment when u dnt no wat 2 do'
p129
aS'that shit moment when ur boyfriend dnt ask if u hav plans 4 the eve and u find out his ex was with'
p130
aS'the crapest moment when ur boyfriend up dates his status of what a good night he had wif all his friends an his ex girlfriends name is ther'
p131
aS'under so much pressure'
p132
aS'feel alone  only me myself can understand me'
p133
aS'amateurs hahahaha kids of 2day'
p134
aS'loved 2nights show of the voice '
p135
aS'mmmm was it wise '
p136
asS'2012_4'
p137
(lp138
S'so0o0 amped 2 be leaving 4 america whoop'
p139
asS'2012_5'
p140
(lp141
S'so i am at my steiner stay in'
p142
aS'ese momento en que su novio anterior no puede conseguir m\xc3\xa1s de usted'
p143
asS'2012_6'
p144
(lp145
S'not happy at all'
p146
aS'feel like i failed my self'
p147
aS'i feel weak'
p148
asS'2012_7'
p149
(lp150
S'best bf ever love u darren'
p151
aS'y do we love love wen seems 2 hate us'
p152
asS'2012_1'
p153
(lp154
S'parents pfft '
p155
aS'if this isnt love then wat is i am willing 2 tak the risk'
p156
aS'ag nee erin was looking 4 ui am babysitting lil fatty 2nyt'
p157
aS'a lot like love thatz ma movie'
p158
aS'kanyewest just cnt stop tweeting bbm cnt watch face all i see is kanyewest wen i scroll down'
p159
asS'2012_2'
p160
(lp161
S'super hot day in cape town 2day'
p162
aS'u say that thing kirsten'
p163
asS'2012_16'
p164
(lp165
S'pointless'
p166
aS'loosing interest every second of the day'
p167
aS'i agreebut whats the guy doing to make her fall'
p168
asS'2012_17'
p169
(lp170
S'lol i guess so0o0o0'
p171
aS'well that is a good question'
p172
aS'mmm yess mrmhateyu dnt no wat i am capable of'
p173
aS'dnt underestimate the things i will do '
p174
aS'see i got it ryt'
p175
aS'laying in bed on this cold sunday eveninglistening to soothing music'
p176
aS'10 hitzgame over '
p177
aS'and there will onli be heart break 4 me'
p178
aS'an i want u 2 run away with me and experience something new lt3 everything u aready done will just nt do  '
p179
aS'that awkward moment wen ur ex bf and ur song playsyou like a dream cum true all lies '
p180
asS'2012_14'
p181
(lp182
S'play the game act like a women and think like a man '
p183
aS'the funniest thing i hav seen all day hahahahahaaha '
p184
asS'2012_15'
p185
(lp186
S'wen immo sends me the song i wanted hehe awesome '
p187
aS'big love'
p188
aS'the best way to get thru what your going thru is to express how you feel as well as letting go and letting god work '
p189
asS'2012_12'
p190
(lp191
S'lmao '
p192
aS'once u had the best boi u cont do beta baby i am the best so u cnt do beta'
p193
asS'2012_13'
p194
(lp195
S'i know hes a player but i want to be the girl that he hangs up hes jersey for and leaves the game'
p196
aS'i want someone that i can call my own someone that i trust and love fully with my heart and someone i know that wont '
p197
aS'that awkward moment then the guy ur interested in suckz at keeping a conversation rolling on bbm so it just dies '
p198
asS'2012_10'
p199
(lp200
S'some facts about me i hate liars hypocrites  people who take advantage of people who care about them'
p201
aS'the awkward moment when your kindness is mistaken for flirting'
p202
aS'if his ex is still calling him its because shes still getting an answer'
p203
aS'sometimes the one u think u r meant to be with is only there to prepare u for the one u r really meant to be with \xe2\x99\xa1'
p204
aS'rt if while studying you keep on looking at your cellphone if you have any new messages'
p205
aS'his smile his eyes his lips his hair his laugh his hands his smirk his humor his weird faces rt if you thought of '
p206
aS'u havnt seen the last of me yet  i will be bk itz far 4rm over'
p207
aS'when your world starts to crumble because ur hart got brokenby a guy u thought was different'
p208
aS'u win sum u lose sum wat dnt kill u onli makes u a fucken bitch'
p209
asS'2012_11'
p210
(lp211
S'so0o0o we on step 2 ladys and gents thumbs up whoopwhoop tick'
p212
aS'tick 1 look hot'
p213
aS'my new cut looking good thumbs up'
p214
aS'o so u think u no me nwhav u 4gotton hw u would mak me feel wen u dragged my spirt downbt that u 4 the pain  it made me raise my game '
p215
aS'day 1  '
p216
aS'watz up with this rghs shit all up on my twitter geezz kids bbm cnt watch face'
p217
aS'who runs the world u got that ryt girls'
p218
asS'2011_48'
p219
(lp220
S'love the note book '
p221
aS'we dnt no wat the future holdz bt thez a chance we are so made '
p222
aS'so that spa exam sorta sucked ass letz see how 2m go'
p223
aS'he surprises me each day '
p224
aS'i wana no watz nxt'
p225
aS'think i am falling 4 him '
p226
asS'2011_49'
p227
(lp228
S'had a wonderful sunday on the beach with ma fwdz  priceless memories \xe2\x99\xa1'
p229
asS'2012_18'
p230
(lp231
S'a relationship shouldnt ruin a friendship but a friendship shouldnt ruin a relationship either'
p232
aS'hahaha'
p233
aS'be a millionbilliontrillion miles away '
p234
aS'ive loved amp ive lost \xe2\x99\xa1'
p235
aS'i so0o0o agree cookie'
p236
aS'lol nyt'
p237
aS'lol and u dnt mind'
p238
aS'lol wen u say ppl i am guessing males 2 haha'
p239
aS'my dignity has become undone'
p240
aS'so0o0u gana show me ur bumbumz lol'
p241
aS'lol that just made me laughhahaha made ma nyt'
p242
aS'loland proud of it'
p243
aS'lol u lil bum'
p244
aS'wen u announce talking 2 ur bfs on ma fbi dnt hav bfs'
p245
aS'me and mrwrong has a good thing going on'
p246
aS'i was here i livedi loved i didive done i wana leav ma mark'
p247
aS'it hurts my pride 2 tell u how i feel'
p248
aS'plus whos gana keep me company i dnt no'
p249
aS'when i feel like ma asian fwd is hiding away 4rm me raised eyebrow ma bbm is so0o0o dull and boring without him'
p250
aS'lol u weirdo'
p251
aS'lol u lesbo was a good one'
p252
aS'haha so u wana date'
p253
aS'lol i dnt no hw this works'
p254
aS'oya  4 got 2 tell u  i am lesbian nw'
p255
aS'lol thanx 4 sharing that rolling eyes'
p256
aS'ooooooooooooooh ma bad wat u doing'
p257
aS'wats that'
p258
aS'lol wat '
p259
aS'when i miss my asian friend rolling eyes'
p260
aS'wolf man'
p261
aS'lol wolf man'
p262
aS'hahaha i see so'
p263
aS'lol see so thers nthing rong with wat i tweet '
p264
aS'lol no ur asian'
p265
aS'i agree with that hay '
p266
aS'once you go asian you never miss an equation'
p267
aS'lol thats super mad'
p268
aS'lol u havnt u hav 2 def see me in action then'
p269
aS'dnt hate mehate my swag'
p270
asS'2012_19'
p271
(lp272
S'when it looks like his about 2 give himself a concussionlol epic'
p273
aS'going to bed lt\xe2\x80\xa2\xc2\xb0lt so tired finally in bed the fuck im more awake then i was the entire day '
p274
aS'l2 uplifting music thumbsup'
p275
aS'ma tym 2 shine '
p276
aS'dont be racist be like mario hes an italian plumber created by japenese people who speaks english and looks like a mexican'
p277
aS'i hate that moment where everyone around me is in a relationship and i\xe2\x80\x99m just sitting there like \xe2\x80\x98i love food\xe2\x80\x99'
p278
aS'and shes crying big crocodile tears awwww lol'
p279
aS'watching this chick cry because she crashed her car in 2 someone elses car shame'
p280
aS'ya u sure do 1'
p281
aS'lol dig ya tweets '
p282
aS'if i had jimmy neutrons brain phineas amp ferbs summer and timmy turners goldfish my life would be better'
p283
aS'hahaha good one imoms cuz'
p284
aS'lol yes the bunny onemust i send it 2 u'
p285
aS'u like the song'
p286
aS'u ddnt hav 2 cut me off mak lik we nver happend an that we were nuthing i dnt evn need ur luv u treat me lik a stranger an i feel so rough'
p287
asS'2012_32'
p288
(lp289
S'imo '
p290
aS'happy womens day lt3'
p291
asS'2012_33'
p292
(lp293
S'heart protected far away 4rm my sleeve'
p294
aS'lost myself along the way'
p295
aS'far 4rm perfect'
p296
aS'do not chase after someone who is not chasing you back'
p297
aS'so considerate'
p298
aS'if youre going to lie to me at least make sure your lie makes sense first dont insult my damn intelligence'
p299
asS'2011_35'
p300
(lp301
S'thay say a hero can save us  bt i am nt gana stand an waiti hold on to the wingz of an eagle watch as thay all fly'
p302
aS'maybe u wana sound cocky winkwink'
p303
aS'lol wal itz true'
p304
aS'i can make u do enything that i want'
p305
aS'eat ou the palm of ma hand asshole'
p306
aS'like a puppet on a string i can mak u do enything'
p307
aS'y are guyzz such assholezzznot all walmost'
p308
aS'wen a guy cheatzrtif u felt dis feeling b4'
p309
asS'2011_34'
p310
(lp311
S'yipyip 2730af84 add me'
p312
aS'shez doing well'
p313
aS'ya starting mondayu'
p314
aS'doing well ma fwd '
p315
asS'2011_36'
p316
(lp317
S'love is a losing game'
p318
aS'lol'
p319
aS'so turned of by that'
p320
aS'aaahh nail tec examz wish me luck'
p321
aS'meeee to okie no the viem part ma view is calvinz ex barba shop haha bt love being a cape town chick big upz to that'
p322
aS'aaaahhhh karma is a fudgeing bitchhaha'
p323
asS'2011_30'
p324
(lp325
S'awwwbk dnt stwsnibz bum'
p326
aS'i hav da m0s aws0me bf eva i l0ve u christ0pher'
p327
asS'2011_33'
p328
(lp329
S'yo bub watz up'
p330
aS'i can relate to that both wayz'
p331
aS'had a awsum birthdaybt nw ma backz sore sadness'
p332
aS'yo ma gul hehe havent tweeted in a whileso yere i am '
p333
aS'wal thaz a good questionis ther a answer 4 that'
p334
aS'wall thatz a good questionis rhe a answer'
p335
asS'2011_39'
p336
(lp337
S'sometymzz i dnt understand menai'
p338
asS'2011_38'
p339
(lp340
S'kirky curwi keenanalexisfartyaly mikaeel hahaha you guys are loosers  love youhope the brandy kicking'
p341
aS'hey mi fellow loosers that im lamimg with love you retards'
p342
aS'yo bumz  miss u hb loosers'
p343
aS'shame manunluckyhoope u get well lol i am also sick again bt i cnt stay at home sadness'
p344
aS'lol ya bt nw itz nyc went 4 a cleaning '
p345
aS'aww missing u 2 i went to the dentist ma mouth is eina '
p346
as.