(dp0
S'2013_42'
p1
(lp2
S'i hate writing essays id rather read'
p3
aS'i feel so out of place and cant decide if i am or not'
p4
aS'now i remember why i stopped hanging out with you'
p5
aS'i hate feeling like this like damn'
p6
aS'damn man'
p7
aS'deleting pictures is always so hard for me because im a picture hoarder \xf0\x9f\x98\xa9\xf0\x9f\x93\xb7'
p8
aS'damn pa is like a fucking trap house '
p9
aS'hair at night beautiful as ever hair in the morning chief keef'
p10
aS'my fat cousin always call us two months in advance amp asks us whos cooking for thanksgiving this year \xe2\x80\xa6'
p11
aS'ovcourse norfolk dont got school lmaoo'
p12
asS'2013_43'
p13
(lp14
S'im happy so fuck you'
p15
aS'youre a shitty friend'
p16
aS'even when im mad at you i still want you to hmu \xf0\x9f\x98\xa9\xf0\x9f\x93\xb2 hmu so i can ignore you \xf0\x9f\x98\xaa'
p17
asS'2013_40'
p18
(lp19
S'i just wanna cry man'
p20
aS'i hate being ignored'
p21
aS'im so emotional'
p22
aS'sometimes i get really needy'
p23
aS'kjhgredwaqsdxfchgvbnjmkmljiuhgytrfdszdxfchgvbjnkm fuck'
p24
aS'fuck man'
p25
aS'hurry up and get out the shower mane we got hardees'
p26
aS'once again another great day with him lt3 amp now with amazing day'
p27
aS'but i did though'
p28
aS'imma need you to text me use your phone'
p29
aS'every black family has a collection of plastic grocery bags somewhere in their house and uses them as garbage bags \xf0\x9f\x98\x82'
p30
aS'spent all day with him amp it was amazing lt3'
p31
aS'not everything is about you kateline'
p32
aS'no your fake ass aint coming over to my house'
p33
aS'crying chemistry and country'
p34
aS'i listen to country on the low'
p35
aS'i look around and see everyone else doing all these things and then i look at us and realize we dont do shit'
p36
aS'i miss your fucking kisses'
p37
aS'youre so fucking fake subtweet i hope you realize im talking about you'
p38
aS'being someones first love is great  but being someones last love is beyond perfect \xf0\x9f\x91\x8c'
p39
aS'when im in a relationship my girl is my bestfriend\xf0\x9f\x91\xabmy reslest homie\xe2\x9c\x8amy shoota\xf0\x9f\x94\xabima never give that up for a hoe\xf0\x9f\x92\x81or an ex\xf0\x9f\x99\x85ima\xe2\x80\xa6'
p40
aS'cheating isnt always kissing touching or flirting if you gotta delete text messages so your partner wont seem em yo\xe2\x80\xa6'
p41
aS'i feel like crying'
p42
aS'i can hold grudges for a long time and if i hold them for too long i end up hating you on the low'
p43
aS'im a crybaby'
p44
aS'damn you even smell trashy'
p45
aS'todays gonna suck i can feel it in my bones'
p46
aS'i really hate it when i cant stop crying'
p47
asS'2013_41'
p48
(lp49
S'the first thing see when i go on facebook for the first time in a long time is snapping \xf0\x9f\x98\xaf'
p50
aS'im not putting up with this shit andre'
p51
aS'all i wanna do is lay in bed and cry'
p52
aS'cuddling clears the mind it builds trust and emotional security cuddling is like a psychological medicine'
p53
aS'i dont like that shit point blank'
p54
aS'words are like a knifethey can hurt'
p55
aS'mkay'
p56
aS'are you guys coming to monicas birthday thing tomorrow'
p57
aS'and so is jayz'
p58
aS'i just wish i had more close best friends'
p59
aS'blood is thicker than water but at the same you need water to survive'
p60
aS'so if youre reading this youre probably also staying in on a friday night'
p61
aS'poppies gonna write your ass out his will haha'
p62
aS'lies lies and more lies'
p63
aS'well by now shes in portable 4'
p64
aS'damn im not at school can you goto the cafeteria and give it to jennifer'
p65
aS'finally'
p66
aS'i always wanna cry'
p67
aS'i cant let go of things easily'
p68
aS'you once told me you could listen to me talk for hours and now we barley do'
p69
asS'2013_46'
p70
(lp71
S'damn i dropped my pencil im feeling some type of way now\xf0\x9f\x98\x94 hahahah'
p72
aS'i think its just a phase maybe i dunno like i for real dont text anyone back i wanna communicate but i cant'
p73
aS'i dont talk to people for real anymore like last week i cut mike off completely for some reason'
p74
aS'hmu '
p75
aS'i miss talking to and all the time on the real'
p76
aS'fuck everybody else ambers my best friend and the only one i wanna hang out with on the real'
p77
aS'i saw this and thought of you'
p78
aS'youre gay im done peace\xe2\x9c\x8c\xef\xb8\x8f'
p79
aS'fuck you on the real'
p80
aS'im craving a vanilla black'
p81
asS'2013_44'
p82
(lp83
S'i need to do laundry'
p84
aS'me im happy thinks about life for 35 seconds me im sad'
p85
aS'takes 50 selfies deletes 49 stares at that one selfie till it turns ugly deletes that too'
p86
aS'abc familys 25 days of christmas movie schedule\xf0\x9f\x8e\x84\xe2\x9d\xa4\xef\xb8\x8f'
p87
aS'im not leaving my bed today'
p88
aS'please love me no oh okay'
p89
aS'this is stupid'
p90
aS'interracial couples are the best'
p91
aS'rt if you miss someone right now \xf0\x9f\x98\x94'
p92
aS'nothing was the same'
p93
aS'i really wish you were mine'
p94
aS'i for real for real want you'
p95
asS'2013_45'
p96
(lp97
S'can bob the builder fix my life'
p98
aS'stay faithful or stay single its that simple'
p99
aS'i want kids but i dont wanna be pregnant or give birth but i dont wanna adopt either because i want them to be mine do you s\xe2\x80\xa6'
p100
aS'i feel like imma throw up i stay feeling that way'
p101
aS'i just want a relationship like the ones in the movies'
p102
aS'i really dont wanna go to school tomorroww'
p103
aS'some people act like they love being single all the time  hell no not me \xf0\x9f\x99\x85 i rather b amp a relationship with somebody \xe2\x80\xa6'
p104
aS'parents think as grow on trees \xf0\x9f\x85\xb0\xf0\x9f\x8c\xb3'
p105
aS'smoke 2 blunts at once call me double jointed'
p106
aS'bipolar at the playground i call that mood swings'
p107
aS'caught an std in the freezer call it kool aids'
p108
asS'2013_37'
p109
(lp110
S'today was a good day lt3'
p111
aS'sometimes scorpio get stuck between not caring at all and caring too much'
p112
aS'just because you tell me something doesnt mean i believe it and just because i believe it doesnt mean its true'
p113
aS'i get tired of everyone eventually'
p114
aS'i dont feel bad for you at all'
p115
aS'dm me'
p116
aS'insidious 2 and the beach tomorrow  its gonna be a good day'
p117
aS'of course you are'
p118
aS'hahaha s old twitter'
p119
aS'ever since you guys dated youve changed and im starting to hate you for it'
p120
aS'one does not simply order fast food without saying ummm'
p121
aS'not listening to you is either going to be one of the best decisions ive made or turn out to be the worst'
p122
aS'sometimes people dont notice the things you do for them until you stop doing them'
p123
aS'niggas be like i need a female thats lightskin  long hair big booty amp tatted \xf0\x9f\x98\xa4\xe2\x9c\xa8\xe2\x9d\xa4\xf0\x9f\x99\x8b nigga this aint buildabitch\xe2\x80\xa6'
p124
aS'i was having a good day until you calledand that should say something'
p125
aS'i cant even do this'
p126
aS'damn of course shed do that'
p127
asS'2013_36'
p128
(lp129
S'may all your bacon burn'
p130
aS'that shit still brings tears to my eyes'
p131
aS'i want a relationship where everyone is like damn theyre still together'
p132
aS'sarah was the baddest girl on the real bgc11'
p133
aS'damn she didnt deserve to go home bgc11'
p134
aS'im glad mimis going home like damn bgc11'
p135
aS'its about time someone fought mimi shes the reason for all the drama bgc11'
p136
aS'i never miss the person just the memories'
p137
aS''
p138
aS'i dont care anymore shit'
p139
aS'youre pushing me more and more everyday'
p140
aS'of course this is what i get'
p141
asS'2013_35'
p142
(lp143
S'you havent talked to me all fucking day what if i died'
p144
aS'my boyfriend needs to get his own phone  im tired of calling him and his momma picks up lmao'
p145
aS'im tired of being the nice girl time for a change'
p146
aS'im so depressed i can actually relate to the weeknd'
p147
aS'i still dont trust you'
p148
aS'i like strawberry jam'
p149
aS'i dont need you i just really like having you around'
p150
aS'the fuck you mean'
p151
aS'what do you mean youre too busy to talk to me'
p152
aS'fuck that new girl you love so bad  i kno you still think about the times we had'
p153
aS'i write poetry on the low'
p154
aS'when you wake up in a shitty moodltlt'
p155
aS'daddys little girls gtgt'
p156
aS'whatever happened to tila tequila '
p157
aS'i feel like asdfghjkl'
p158
aS'no calls no texts nothing but here i am thinking about you like crazy'
p159
aS'im so anti social but i always complain about not having friends'
p160
aS'1 finger 2 wordsfuck you \xf0\x9f\x98\xa4 2 fingers 1 worddeuces \xf0\x9f\x98\x8f'
p161
aS'if two people are meant to be together they will eventually find their way back into each others arms no matter what'
p162
aS'i dunno why i feel like this'
p163
aS'youre shitty'
p164
aS'damn i feel lonely'
p165
aS'i keep waiting for you to call even though i know its not going to happen'
p166
aS'you made me feel like you really liked meand then you just left like it was nothing'
p167
aS'when you go to chickfila and order a mcchicken'
p168
aS'id be one bomb ass wife id make you sandwhichs and what not'
p169
aS'youre stupid and i dont like you'
p170
aS'im really growing to hate you but at the same time i still love you'
p171
aS'im a hateful person'
p172
aS'drake is not a rapper drake is an emotionim feeling very drake today'
p173
aS'gah this shit really has me heated and upset like the fuck'
p174
aS'i really fucking hope you didnt lie to me on purpose'
p175
aS'one minute'
p176
aS'you never know how much you love someone until some serious shit happens'
p177
aS'i am so freaking scared its not even funny'
p178
aS'i hate when i dont know how to feel'
p179
aS'i just realized shrek is an indirect musical'
p180
aS'the fuck is an  uncle grandpa cartoon network needs to stop please'
p181
aS'my dog has the stinkiest farts ever'
p182
aS'i wish i could draw'
p183
aS'sometimes i just get really sad for no reason'
p184
aS'i spend way toooo much time on tumblr'
p185
aS'having a phone will sometimes make you feel lonely af knowing that people got a way to contact you but never hit u up is \xe2\x80\xa6'
p186
aS'coffee makes me sleepy'
p187
aS'alright im done peace out'
p188
aS'can you shut the fuck up about that shit youre really pissing me off thats why i stopped fucking with you subtweet'
p189
aS'are you trying to call me ugly the fuck you mean bitch hahah'
p190
aS'youre just mad because i dont want to talk to you hahahaha oh well'
p191
aS'do you really think i care about you not liking me really'
p192
aS'it has nothing to do with him'
p193
aS'on life hahaha'
p194
aS'i call bull shitttt'
p195
aS'im too sexy for my sexy too sexy for my sexy too sexy for my sexy hahaha i love the fairly odd parents'
p196
aS'i got something to tell you but dont know how imma say it'
p197
aS'sometimes when people say hey to me it pisses me off and i wont text you back because you pissed me off'
p198
aS'why do i even try man'
p199
aS'you only delete your messages if you have something to hide the fuck you mean hahahaha im not stupid'
p200
aS'im not even on twitter for the followers im here so i can post whats on my mind'
p201
aS'i feel like shit'
p202
aS'im sooooooooo in my feelings'
p203
aS'he makes me happy so why does it even matter just drop it because im not changing my mind about him but about you yes'
p204
aS'this vicks is burning my nostril'
p205
aS'i dont even know what to do man'
p206
aS'finna put 10 ounces of meth in a blender and drink it'
p207
aS'i try to sleep the pain away but it never seems to work'
p208
aS'some days are better than others'
p209
aS'sometimes i dunno why i stay but other times i do'
p210
aS'it seems like the harder i try the harder i fall'
p211
aS'man i really want to watch howls moving castle'
p212
aS'why thank ya homie'
p213
aS'i feel like you dont even care'
p214
asS'2013_34'
p215
(lp216
S'this sucks man'
p217
aS'you will be forever in my head and i will continue to cry every time i think of you'
p218
ag138
aS'thecraft lt3'
p219
aS'in middle school we aint screenshot we put em on three way and muted the phone'
p220
aS'something about you is so damn addicting'
p221
aS'i need a phone with 500 battery life \xf0\x9f\x94\x8b'
p222
aS'mirror oh you look so cute today camera lol no'
p223
aS'when your grandparents bob you ltltltlt'
p224
aS'alright thanks for the help haha'
p225
aS' dang i guess i need better milkshakes hahahaha'
p226
aS'i swear saving money is so hard'
p227
aS'play your part dont get caught up playing someone elses  \xf0\x9f\x92\xaf'
p228
aS'i wish my milkshakes would bring all the boys to my yard'
p229
aS'a jealous girlfriend is a faithful girlfriend if she doesnt get jealous when someone has your attention its because s\xe2\x80\xa6'
p230
aS'its not me amp yuu  its not me  its yuu  youre reckless amp yuu know it  they dont love yuu like i do '
p231
aS'dont follow me to unfollow me '
p232
aS'i\xe2\x80\x99m really good at keeping secrets because five minutes later i forget what you told me because i don\xe2\x80\x99t care'
p233
aS'please dont make me question this'
p234
aS'his screen breaking has been the best thing ever hahaha'
p235
aS'im really done trying i dont care anymore its all whatever'
p236
aS'thats not even the point hahah but i dont care im going to bed peace out'
p237
aS'you acted like you missed me so much you were gonna stay but k and nah im good'
p238
aS'you did cuz you texted me back'
p239
aS'seeee'
p240
aS'i did though i texted you and said maybe i can convince my mom to do it tomorrow'
p241
aS'i did though i said ill ask my mom if shell pick you up tomorrow'
p242
aS'you ditched me every other night this week'
p243
aS'kay cool thanks for ditching me'
p244
aS'when you can finally say hes your boyfriend lt3'
p245
aS'when he sings you a song he just made up lt3'
p246
asS'2013_33'
p247
(lp248
S'that walk was the death of me'
p249
aS'i wish i could see you tomorrow'
p250
aS'please dont be lieing to me about this'
p251
aS'im not gonna lie  i get jealous '
p252
aS'i honestly dont know why i have a phone no one texts calls or kiks me i basically use it for the internet'
p253
aS'i dont wanna feel a thing anymore'
p254
aS'i take my charger everywhere school \xf0\x9f\x8f\xab library \xf0\x9f\x93\x9a beach \xf0\x9f\x8f\x84 mall \xf0\x9f\x91\x97 park church \xe2\x9b\xaa hospital \xf0\x9f\x8f\xa5 shit you never know where a \xe2\x80\xa6'
p255
aS'i appreciate long text messages  \xf0\x9f\x98\x98\xf0\x9f\x98\x8a'
p256
aS'i really dont care anymore about anything'
p257
aS'the people under the stairs lt3'
p258
aS'a cinderella story lt3'
p259
aS'i try to act like the words dont get to me sometimes'
p260
aS'i dont really give a fuck'
p261
aS'thats the dirt'
p262
aS'back to the old kaila and my old ways '
p263
aS'i can already tell this is gonna piss me off'
p264
aS'i want you to want me'
p265
aS'i always feel like i am in a competition for something'
p266
aS'females have a specific guy they text after every fight with their man'
p267
aS'real girlfriends argue about petty shit because they care \xf0\x9f\x98\xb3\xf0\x9f\x99\x8c\xf0\x9f\x99\x8f\xf0\x9f\x91\x8f\xf0\x9f\x91\x8f\xf0\x9f\x92\x91\xf0\x9f\x92\x8f\xf0\x9f\x98\xa9\xf0\x9f\x98\x98\xf0\x9f\x91\xab\xe2\x9d\xa4\xe2\x9d\xa4'
p268
aS'maybe well be together in another life'
p269
aS'oh well someone text me'
p270
aS'and when he does things like that i relize why i put up with his shit and love him '
p271
aS'waiting for a text i prbly wont get'
p272
aS'well imma kill you if you dont text me back haha'
p273
aS'im tired of waiting around for you ive been waiting for almost a year now'
p274
aS'just saying'
p275
aS'is gonna become a certified killer '
p276
aS'probably and im okay with that'
p277
aS'its weird how you can have friends but also have no friends at the same time'
p278
aS'i love you and im in love with you are two totally different things'
p279
aS'will kendrick lamar call out more people will drake stop havin trust issues is chief keef really gay find out on the n\xe2\x80\xa6'
p280
aS'ignoring your phone when we chill gtgtgtgtgtgtgtgtgtgtgtgtgtgt i like that shit \xf0\x9f\x91\x8c\xf0\x9f\x92\xaf\xf0\x9f\x98\x8a'
p281
aS'okay fuck you too then'
p282
aS'i love you but sometimes i wish i never met you'
p283
aS'i hate this feeling of not knowing what youre feeling'
p284
aS'sometimes having an android sucks'
p285
aS'sometimes the best way to get someones attention is to stop giving them yours'
p286
aS'im so bored man its not even funny'
p287
aS'just imagine how diffrent things would be if i wouldve taken that class'
p288
aS'i miss you but i know you dont miss me'
p289
aS'look at thiswhat is life man'
p290
aS'and i really wish that butthead would text me back'
p291
aS'i really hope my mom gets me mcdonalds'
p292
aS'sometimes i wonder why i even have a phone its not like i have friends or anyone to talk to'
p293
aS'arguing with someone i really care about ltltltlt'
p294
aS'pandora needs a replay button \xf0\x9f\x94\x83'
p295
aS'i bottle all my emotions up'
p296
aS'morgan freeman is my favorite on the real'
p297
aS'man im so tired'
p298
aS'nobody texted back'
p299
aS'i dont understand our relationship sometimes were friends sometimes were more then friends other times im ju\xe2\x80\xa6'
p300
aS'why hurt a girl who would never hurt you \xf0\x9f\x98\xb6'
p301
aS'why do i get treated thaa way that i do '
p302
aS'this is stupid'
p303
aS'i keep thinking bout that'
p304
aS'do you ever get a really good hug from someone and you\xe2\x80\x99re like wait no hug me more'
p305
aS'i wish i could wear whatever i want tonight i have some cute blouses just sitting in my closet '
p306
aS'im on twater now hahaha i love my dad'
p307
aS'chillen wit my mam'
p308
aS'i always feel like everything i do is useless and stupid'
p309
aS'damn this sucks'
p310
aS'trust issues ltltltltlt ugh'
p311
aS'all a girl wants is to feel beautiful be loved and to be treated with respect'
p312
aS'a relationship where you both are afraid to lose each other gtgtgtgtgtgt'
p313
aS'once you get fucked over so many times you stop caring'
p314
aS'i wish i could illegally download clothes'
p315
aS'songs in the 90s were way better than the songs they make today'
p316
aS'you really just said that shit to me really are you serious haha'
p317
aS'im type annoyed'
p318
aS'i feel like a little bitch crying over someone who doesnt give a fuck about me'
p319
aS'i just want someone to call mine'
p320
aS'maybe ive been blind to reality'
p321
aS'maybe this is a sign'
p322
aS'was it real or was it fake  was it all a mistake '
p323
aS'watching the titanic with these gay ass niggas'
p324
aS'just text me back its not that hard'
p325
aS'man im about to cry on the real haha'
p326
aS'man i feel type shitty'
p327
aS'for whosoever shall call upon the name of the lord shall be saved  romans 1013 word of god'
p328
aS'people are so fucking annoying\xf0\x9f\x98\x94'
p329
aS'when i least expect it ill get that love i want'
p330
aS'titanic lt3'
p331
aS'damn those bitches its all good tonight we gone cuddle'
p332
aS'come thru where my nigga'
p333
aS'why whats good'
p334
aS'i be at da yung pizark'
p335
aS'so bored'
p336
aS'yeah i just love being ignored'
p337
aS'all these mosquitos is not whats up'
p338
aS'i think when guys send paragraphs to a girl when they know shes sleeping is adorable'
p339
aS'can i just sleep for 3 days '
p340
aS'hopefully todays gonna be a a great day'
p341
aS'i wish there was a machine that played with your hair until you fall asleep'
p342
aS'i cant wait til i go back to school'
p343
aS'you annoy me so much'
p344
aS'i have unlimited texting and only text like 3 people'
p345
aS'dirty vans what im rockin'
p346
aS'dont come into my life unless you want to stay'
p347
aS'yous a sucka mc'
p348
aS'and then suddenlyeverything changed'
p349
aS'im not really social and im okay with that'
p350
aS'i swear if you run my finger through my hair and give me head rub i will fucking love you for all eternity okay'
p351
aS'i hate feeling like this man'
p352
aS'no girl wants to be with a guy that cant let other girls know hes taken'
p353
aS'is going beyonce blonde with the help of amp'
p354
aS'always put myself in the most awkward situations'
p355
aS'my sleeping pattern is very messed up'
p356
aS'baby boy you are so damn fine'
p357
aS'your life is a lie'
p358
aS'drinking a frosty with a straw is nearly impossible'
p359
aS'this shit is bananas'
p360
aS'wicked games \xe2\x9d\xa4'
p361
aS'in middle school we didnt screenshot we put em on 3 way and muted the phone'
p362
aS'dang'
p363
aS'nawh cuz no one likes you'
p364
aS'you know what really turns me on unprotected wifi'
p365
aS'dont expect loyalty when you cant provide honesty'
p366
aS'titanic always gets me emotional'
p367
aS'yo  i swear i be the hungriest when i aint got no food in my house '
p368
aS'i want some crab legss\xe2\x80\x9d  '
p369
aS'when you single nobody wants you but once you taken whole different story wtf  '
p370
aS'i wish she would hit me'
p371
aS'that bitch is funny thinking i care about her life hahahahaha'
p372
aS'youre so freaking stupid its making me mad'
p373
aS'needs to wake her ass up'
p374
aS'i miss you'
p375
aS'having to by the wrong size shirt just so that your boobs can fitltltltlt \xf0\x9f\x98\x92\xf0\x9f\x98\xa3 bigboobprobs'
p376
aS' niggas sick eating ass but wont eat the first piece of bread  \xf0\x9f\x98\x82\xf0\x9f\x98\xb7'
p377
aS'worst summer of my damn life'
p378
aS'i also forgot to mention that is a pathalogical liar and doesnt want to admit to his problems'
p379
aS'does 4 lines of crack everyday amp is very heavy on cocaine please somebody help her and get her through rehab 5t\xe2\x80\xa6'
p380
aS'does crack and refuses to get help guys we need to show him we support him checking into rehab'
p381
aS'is on teamlesbian'
p382
aS'is on teamgay'
p383
aS'stop being a baby'
p384
aS'these niggas are gay amp'
p385
aS'can someone acknowledge the fact that im alive ooor \xc2\xbf'
p386
aS'today was amazing'
p387
asS'2013_39'
p388
(lp389
S'i fucking hate you but i love you'
p390
aS'i cant wait until i get married'
p391
aS'i dont even like you on the real you type piss me off sometimes'
p392
aS'why does it feel like were growing apart '
p393
aS'im so excited for my birthday tomorrow'
p394
aS'when your sister says dont text and drive unless you want to go to hell were all going to hell anyways'
p395
asS'2013_38'
p396
(lp397
S'i dont really talk to people now everyone pisses me off in one way or another'
p398
aS'on the real i really just stoped giving a fuck'
p399
aS'youre stupid'
p400
aS'and im laughing at you'
p401
aS'imma need you to notice'
p402
aS'this is kinda funny'
p403
aS'and imma keep staring at you till you get this'
p404
aS'youre gay'
p405
as.