(dp0
S'2013_42'
p1
(lp2
S'god bless america toby keith'
p3
aS'in 1492 columbus borrowed gas money from a king drove to the new world amp stone cold stunnered some indians thats how m\xe2\x80\xa6'
p4
aS'hopefully not in peace i was diagnosed with ptsd after that night'
p5
aS'fuck brooke never again'
p6
asS'2013_43'
p7
(lp8
S'your brother better pay for my hospital bill during our little game for the rb harvard game'
p9
aS'end of the legacy'
p10
aS'its how cary grove kids act but oh ya dont forget to run it again pat elder voice'
p11
aS'you guys suck dick at the moment'
p12
asS'2013_40'
p13
(lp14
S'its been way too long since ive seen my scummy friends'
p15
aS'there fags but also pretty neat'
p16
aS'smoke meth'
p17
aS'holy fuckin shit the season is back idiots legendary offseason boozin amp dominating ass now time to win another ring n run\xe2\x80\xa6'
p18
asS'2013_41'
p19
(lp20
S'do you think rygiel and brinkmann can help coach elders rb make a deep run similar to dechow and malec\xe2\x80\xa6'
p21
asS'2013_17'
p22
(lp23
S'god damn fruitopia'
p24
aS'yink is a word'
p25
aS'banana pancakes'
p26
aS'nace'
p27
asS'2013_44'
p28
(lp29
S'im starting a fuck dirty fan club'
p30
aS'boys tell stories bout the man'
p31
aS'fuck you'
p32
aS'iggy is you actually said that then fuck you but i still love you'
p33
aS'idk but dirty is a fuck'
p34
aS'i meant in im sorry \xf0\x9f\x98\x94 \xf0\x9f\x94\xab'
p35
aS'did i trip you or push you i that picture'
p36
aS'praise jesus \xf0\x9f\x99\x8c'
p37
asS'2012_45'
p38
(lp39
S'how much wood would a wood chuck chuck if a wood chuck could chuck wood'
p40
aS'there not related to u so there not ur cousins'
p41
asS'2012_47'
p42
(lp43
S'easily passes out in 20 seconds'
p44
asS'2013_16'
p45
(lp46
S'cat dog'
p47
aS'pats packin a fatty'
p48
aS'no rain'
p49
aS'is this about me i really cant tell cuz im pretty fuckin stupid'
p50
asS'2012_41'
p51
(lp52
S'another session of adventure time'
p53
aS'sweet deposition'
p54
asS'2012_43'
p55
(lp56
S'little ice mountain water bottles or patricks hair'
p57
asS'2012_42'
p58
(lp59
S'cant stop lovin her'
p60
aS'losing isnt an option anymore'
p61
aS'who knows'
p62
asS'2013_24'
p63
(lp64
S'gotta love the butler resident while hangin out by yourself with a bottle'
p65
asS'2013_25'
p66
(lp67
S'everyone at your house can lick my balls im stuck up here'
p68
aS'what did chunky do this time'
p69
aS'passing 15 bars before 1 gas station collegeprobs oshcamp'
p70
aS'do you mean it '
p71
asS'2013_26'
p72
(lp73
S'i think you could answer that question yourself haha'
p74
aS'it depends if you have a tin waiting for me after i run the 40'
p75
aS'if you got 42 then i wonder what runs'
p76
aS'for sure you guys goin at 9'
p77
aS'ya lets just say i wouldve died if i worked out at 8 haha'
p78
aS'hes got a pussy arm thats why but we will work on that tomorrow haha'
p79
aS'my body is so sore after this weekend with oshkosh crew'
p80
asS'2013_27'
p81
(lp82
S'i wanna see silva got knocked out'
p83
aS'great night'
p84
aS'happy birthday you dumb fuckin hick'
p85
aS'round of applause to for driving my ass around'
p86
aS'its a captain day'
p87
asS'2013_20'
p88
(lp89
S'jeffffff suckssssssss'
p90
aS'jeff sucks'
p91
aS'fuck the spurs'
p92
aS'is so cool so is jeff'
p93
asS'2013_22'
p94
(lp95
S'queers'
p96
aS'pillow case champions'
p97
aS'hmm so we got some more shine bright like a diamond snap chats'
p98
aS'titties house wasnt bumpin'
p99
aS'stiggy sucks'
p100
aS'im going to say yes '
p101
aS'pick someone damnit '
p102
aS'ooooh'
p103
aS'lick my balls'
p104
aS'this shitty 4 year old cigar tastes better than the day i bought it'
p105
asS'2013_23'
p106
(lp107
S'your a fucking fag'
p108
aS'eats rappers for his lunch brakes'
p109
aS'11213 forgive and forget the night where toes were sucked and pedestrians were shocked'
p110
aS'at least hes not suffering'
p111
aS'hes in a better place now'
p112
asS'2012_27'
p113
(lp114
S'53 days until roosevelt high school gets one hell of a wake up call rbfootball'
p115
asS'2012_39'
p116
(lp117
S'gangnam stylin all night long'
p118
asS'2012_24'
p119
(lp120
S'no hes not'
p121
asS'2013_28'
p122
(lp123
S'no need to worry but i guess your too cool to come'
p124
aS'if you throw a dip in it might put some hair on your nuts and you could probably lift more hahaha'
p125
aS'not true maybe you need to just work on bench'
p126
aS'come down to spring grove and lets get a game goin'
p127
asS'2013_29'
p128
(lp129
S'you too'
p130
aS'how about some barbecue chips'
p131
asS'2012_25'
p132
(lp133
S'ya that sounds good to me haha'
p134
aS'takesha '
p135
asS'2012_48'
p136
(lp137
S'alright thanks i finally understand doctor malecki'
p138
aS'can u tell me something about atp and adp'
p139
asS'2013_7'
p140
(lp141
S'i figured you would'
p142
asS'2013_6'
p143
(lp144
S'naw i couldnt tell'
p145
aS'do you dip a lot'
p146
aS'ill think about it'
p147
aS'you can hang out with my guenni pig'
p148
aS'did u get food while u were there'
p149
asS'2013_1'
p150
(lp151
S'i just did now he never sleeps trust me'
p152
aS'corporal carrots will take it over'
p153
aS'you dont need to do it'
p154
aS'that would be my cat and shes not fat shes fluffy'
p155
asS'2012_29'
p156
(lp157
S'get my wallet out of jimmys truck'
p158
asS'2013_2'
p159
(lp160
S'\xf0\x9f\x98\x98\xf0\x9f\x98\x98\xf0\x9f\x98\x98\xf0\x9f\x98\x98'
p161
asS'2012_23'
p162
(lp163
S'shes actually mine'
p164
asS'2013_9'
p165
(lp166
S'these eyes are lookin right threw ya'
p167
aS'you sure as hell know who does'
p168
asS'2013_8'
p169
(lp170
S'party dice isnt done yet'
p171
aS'justo look it up on youtube rero haha'
p172
aS'dat boy stiggy'
p173
aS'look up ooh la la by the faces'
p174
aS'the faces'
p175
aS'ooh la la'
p176
aS'the ugly test if more than 75 of a girls facebook profile pictures are in black and white or severely edited'
p177
aS'looks like amanda on christmas im the chuggle champ'
p178
aS'indeed it is'
p179
asS'2012_22'
p180
(lp181
S'trippy'
p182
aS'may god be with us everytime we walk in to that place'
p183
aS'fuck yes'
p184
asS'2012_32'
p185
(lp186
S'fuck u'
p187
aS'its time to celebrate'
p188
aS'im gonna remind u every day'
p189
aS'13 more days till school starts'
p190
aS'theres nothing better better than getting out the old batman costume and rope'
p191
aS'oh ya it was worth every penny of pats money haha'
p192
aS'what friend are u then'
p193
asS'2012_20'
p194
(lp195
S'jake'
p196
aS'patrick butler and jale'
p197
aS' trippy'
p198
asS'2012_46'
p199
(lp200
S'quinn butler is just an awful person to be with for a long car ride'
p201
asS'2012_52'
p202
(lp203
S'quack'
p204
aS'theres no need of frowning about it its all good and im sure i will though'
p205
aS'well there were more times you werent shining bright though and your cousins would agree'
p206
aS'dont forget to always shine bright like a diamond hahaha'
p207
aS'ur all a bunch of bullshitters merry dipmas'
p208
asS'2012_51'
p209
(lp210
S'i finished most of it ill give it to u tomorrow'
p211
aS'ohh baby baby its a wild world'
p212
asS'2012_19'
p213
(lp214
S'broment'
p215
asS'2013_37'
p216
(lp217
S'or come to slosh right now'
p218
aS'fuck you'
p219
aS'teach me biology matt its been awhile'
p220
aS'went outside wavin the stars amp bars singin god bless merica tore off my shirt threw a salute amp yelledterror these \xe2\x80\xa6'
p221
aS'i feel terrible for the guys in the frat that is pledging they wont find anything that the sick fuck wou\xe2\x80\xa6'
p222
asS'2013_36'
p223
(lp224
S'i miss dj pb'
p225
aS'love you too'
p226
asS'2013_35'
p227
(lp228
S'love ya \xf0\x9f\x98\x98\xf0\x9f\x98\x98\xf0\x9f\x98\xb3\xf0\x9f\x98\xb3\xf0\x9f\x98\xb3'
p229
aS'your an asshole'
p230
aS'my god what do you people do down there'
p231
asS'2013_34'
p232
(lp233
S'theres no god damn frutopia in wisconsin its going to be rough going to mcdonalds in the morning'
p234
aS'jack daniels cares thanks jack'
p235
aS'ya i know you do'
p236
aS'love you'
p237
asS'2013_33'
p238
(lp239
S'rt if you want to be part of our social media experiment'
p240
aS'im gonna miss it'
p241
aS'mom just told me that shes turning my room into half opium den half meth lab when i go to school sweet'
p242
aS'last day here lot to do mixedemotions'
p243
aS'saying my good byes gets harder and harder each time'
p244
aS'tbt to when jenny sucked patricks toe'
p245
aS'it went by too fast'
p246
aS'especially no wet willies'
p247
aS'deal ill be over tomorrow'
p248
aS'sway'
p249
aS'to be continued team'
p250
aS'okay'
p251
aS'mountain dew wasted'
p252
aS'peace out to my boys'
p253
asS'2013_32'
p254
(lp255
S'\xf0\x9f\x98\x95'
p256
aS'ummm hey'
p257
aS'your an asshole'
p258
aS'i think he lives in a cave four days out of the week'
p259
asS'2013_31'
p260
(lp261
S'love you'
p262
aS'of course'
p263
aS'touched down in the delta blues in the middle of pouring rain fantastic song for the night'
p264
aS'walking in memphis'
p265
aS'16 days til i leave'
p266
asS'2013_30'
p267
(lp268
S'coming'
p269
aS'were clming'
p270
aS'love eachtother you fuckin queers'
p271
asS'2012_34'
p272
(lp273
S'mcdonalds time'
p274
aS'well its about that time again to fuck some shit up'
p275
aS'its gonna be a good night tomorrow boys'
p276
aS'we need uncle jimbo back'
p277
aS'free jimmy canalle'
p278
aS'not gonna want to sleep tonight'
p279
asS'2012_35'
p280
(lp281
S'it seems like whenever im gone shit like this happens haha'
p282
aS'it seems like a lot of people cant handle the den'
p283
aS'well remember i want to kill myself too so that woulda been a good way to go haha'
p284
aS'why didnt u guys let me go back in i wanted to i was rdy to go haha'
p285
aS'ya i missed it too but i was in my own little world haha'
p286
aS'gotta get back to work nxt week cant take a week off no matter what'
p287
aS'u better be we all need to do work tomorrow'
p288
aS'love u too'
p289
aS'we gotta be rdy these fuckers arnt anything like last weeks game'
p290
aS'already did'
p291
aS'thats that shit i dont like'
p292
aS'ill never sweat for a piggy you can catch me high its all good no biggy'
p293
asS'2012_36'
p294
(lp295
S'oh ya'
p296
aS'sasquatch actually killed himself strangewilderness'
p297
asS'2012_37'
p298
(lp299
S'the 5 bucks was worth it'
p300
asS'2013_39'
p301
(lp302
S'also tell john to not kick my car in'
p303
aS'listening to hard times in the culdesac mixtape i forgot how hard young scrabbles goes in pussy by the slice'
p304
aS'thanks'
p305
aS'no really dont fucking do it'
p306
aS'hearing people say muffie to me \xf0\x9f\x91\x8e'
p307
aS''
p308
aS'kyle jerks off a little too much he even spanks it when im in the room'
p309
asS'2013_38'
p310
(lp311
S'so to mom for cleaning our room while we are at class winning lazy'
p312
asS'2013_10'
p313
(lp314
S'i enjoy watching you singing this song its beautiful'
p315
asS'2013_13'
p316
(lp317
S'maybe'
p318
aS'you hoglunds control me'
p319
aS'ill get you dairy queen or whatever you want when you get back'
p320
aS'i miss you'
p321
aS'we shall see about that'
p322
aS'you guys are so much cooler than my other friends all they did was make fun of me'
p323
aS'hey homiebrofamdog lets go hangout with some juniors'
p324
asS'2013_12'
p325
(lp326
S'well that burned'
p327
asS'2013_15'
p328
(lp329
S'francisco falling asleep in class always makes my day'
p330
asS'2012_38'
p331
(lp332
S'meow'
p333
aS'football isnt the same thing as it used to be'
p334
aS'yea i think u run about a 43 40 yard dash so its all yours haha'
p335
asS'2013_14'
p336
(lp337
S'dots on the ceiling'
p338
as.