(dp0
S'2014_29'
p1
(lp2
S'i am dedicated mother of young children my healing ptsd journey has added challenges amp stress  lilly hope lucari\xe2\x80\xa6'
p3
aS'thx 4 your support it means a lot coming from a fellow warrior'
p4
aS'enjoyed watching the insightful interview thank you for sharing your brave story'
p5
aS'say i thank god for manifesting this good in my life now under grace in perfect ways'
p6
aS'the 3 unlikely words that can help stop street harassment via'
p7
aS'help preserve a childs innocence tips amp red flags childsexualabuse'
p8
aS'beauty in the broken places by'
p9
aS'revisiting 4 ways we teach kids that no means yes via'
p10
aS'cherry blossom lake sakura japan'
p11
aS'sibling abuse in childhood affects self esteem and identity in adulthood'
p12
aS'vatican reeling as pope francis admits there is an army of over 8000 pedophile priests via'
p13
aS'how viral social media posts like jadapose impact survivors in the aftermath of an assault'
p14
asS'2014_36'
p15
(lp16
S'put loving kindness to work on yourself today and everyday going forward belove'
p17
aS'looking forward to your next chapter release its great to read another survivors account written from a place of healing'
p18
aS'thank you i always find that reading fellow survivors stories is like medicine to my soul'
p19
aS'thats what makes those who truly embrace uspast includedall the more special in our lives'
p20
aS'congratulations on your new book as we heal ourselves we can then heal others'
p21
aS'new blog post the heart of a teacher'
p22
asS'2014_28'
p23
(lp24
S'help protect our children\xe2\x80\xa6 from the irreparable damage of sexual abuse they are depending on us'
p25
aS'stigmafighters were looking for blog contributors for suicideprevention month dm me or click for more details'
p26
aS'we can not and must not be slient silence allows child sex abuse to continue silence is the abusers currency'
p27
aS'july 12 full moon first of 3 fullmoon supermoons in 2014  tonight  earthsky'
p28
aS'natures perfection in the palm of my hand\xe2\x80\xa6 and seeds for next springs garden'
p29
aS'i stand w together we are strongerthan fear violence amp oppression'
p30
aS'i agree 100 love the purity of your message'
p31
aS'we need less hackathons more apprenticeships less bootcamps more classes less rockstars more mentors develop peo\xe2\x80\xa6'
p32
aS'did you know 90 of all childhood sexual abuse occurs by someone the child knows and has a trusted relationship not by a stranger'
p33
asS'2014_31'
p34
(lp35
S'the part of us that we are afraid of most may be what we need to embrace most blog'
p36
aS'just 99c blooming was her birthright darkness the unexpected catalyst moonflower h\xe2\x80\xa6'
p37
aS'tara is an incest rape and sexual abuse survivor moonflower puyb 99cents'
p38
aS'there is no cookiecutter journey to healing moonflower puyb 99cents'
p39
aS'just 99c blooming was her birthright darkness the unexpected catalyst moonflower puyb 99cents'
p40
aS'thoughtoftheday'
p41
aS'connect with others for greater fulfilment thanks to for graphic'
p42
aS'some people think street harassment isnt a big deal but they havent heard her story via'
p43
aS'be aware psychiatric rx can be a blessing and a curse'
p44
aS'medication nation'
p45
aS'misdiagnosis and missed diagnosis part 2'
p46
aS'your emotional state of health determines both your physical and mental well being perfectemotionalhealth'
p47
aS'thank you for watching the moonflower book trailer'
p48
aS'there is someone out there who accepts you as is \xe2\x80\x93 not what they want you to be \xe2\x80\x93 but as is steven 26'
p49
aS'thank you for the rt'
p50
aS'thanks for the follow amp favs your radiance shines through your words amp photos'
p51
aS'read the full story here'
p52
asS'2014_25'
p53
(lp54
S'are you chasing or embracing your shadow via'
p55
aS'how running helped me deal with sexual abuse via'
p56
aS'thank you for those words im a survivor myself these words resonate wme i recently released a book sharing my story'
p57
aS'there is grace and healing for those of you who like me have a story of childhood sexual abuse dont let the shame \xe2\x80\xa6'
p58
aS'thank you for sharing your story im a rape amp sexual assault survivor who has struggled for many years'
p59
aS'childhood sexual abuse almost destroyed me\xe2\x80\xa6 and running helped save me read'
p60
aS'the practice of forgiveness is our most important contribution to the healing of the world  marianne williamson'
p61
aS'love my enemies one major steppingstone to healing from sexual assault or any painful experience is'
p62
aS'lowvibrating energy leads to poor life choices food sex partners harmful habits etc reiki raises'
p63
aS'i love hearing all the ways reiki is healing people from all different ailments me too'
p64
aS'brave miss world casts a bright light on rape culture the lack of justice for victims and the schools that try to discoura\xe2\x80\xa6'
p65
aS'i dont like how loosely words like cancer rape insomnia depression bipolar ocdaddicted etc are used those are real \xe2\x80\xa6'
p66
aS'when people throw around words like bipolar and rape it kind or irks me theyre serious things that people actuall\xe2\x80\xa6'
p67
aS'things to not joke about rape depression eating disorders bipolar cutting killing yourself'
p68
aS'miss sitawa wafula bags a malaikaaward for activist of the year award she talks about her rape epilepsy and bipolar'
p69
aS'i wish people would stop throwing depression rape ocd bipolar and other sensitive words and terms around so lightly'
p70
aS'rape ordeal on sunday15th amp illnesses epilepsy bipolar do not define me i am a beautiful amp powerful woman\xe2\x80\x9d yes u are'
p71
aS'my book has been born moonflower a memoir of healing available now rape sexualassault healing help mystory'
p72
asS'2014_27'
p73
(lp74
S'worrying about people  or animals  you care about sends them negative energy instead ask the angels to surround them \xe2\x80\xa6'
p75
aS'child rape may be historical in the minds of perpetratorsbut its never historical in the minds of their victi\xe2\x80\xa6'
p76
aS'a fellow survivors testimony via'
p77
aS'so beautiful thanks for sharing'
p78
aS'warrenbuffet hard work now will reward you later on'
p79
aS'a fellow survivors testimony'
p80
aS'sending reiki healing and comfort your way you have more power than you know life can be tiring but it can also be joyful'
p81
aS'morning yoga amp meditation  my rx for a beautiful mindful day wishing you beauty in whatever form speaks to you'
p82
aS'always believe that something wonderful is about to happen'
p83
aS'one of my all time favourite quotes lt3'
p84
aS'thanks so much for the affirmation looking forward to some awesome tweets'
p85
asS'2014_26'
p86
(lp87
S'another study confirms that plantbased diets are healthy for you and the planet'
p88
aS'\xe2\x96\xbathe things you seek are inside you you must choose to be on the journey of living inside out findpurpose happytobeme\xe2\x80\xa6'
p89
aS'an interesting case study of childhoodtrauma and memoryrecall at 56yrs and 17yrs extensive amp eyebrow raising'
p90
aS'trauma can change you and rearrange you but the change can be in the joy of surviving and thriving to share with othe\xe2\x80\xa6'
p91
aS'honoring that silence is powerful while still desiring to breakthesilence'
p92
aS'as a rape survivor i suffered from ptsd for years but was misdiagnosed with mental illnesses instead these errors nearly cost my life'
p93
aS'eat these veggies to lower blood pressure'
p94
aS'i love the line about how we hold the survivors'
p95
aS'\xe2\x80\x9cthe loudest quiet you\xe2\x80\x99ll ever hear\xe2\x80\x9d \xe2\x80\xa6 my latest post is getting great buzz retweet'
p96
aS'thank you for sharing an topic that speaks to breaking the cyclelegacy of sexual abuse within the family'
p97
aS'new post i dont know how to tell my daughter how do you explain a family history of abuse to\xe2\x80\xa6'
p98
aS'you never know who your story will touch knowing that im not alone is what keeps me going keep sharing amp shining light \xf0\x9f\x99\x8f'
p99
asS'2014_43'
p100
(lp101
S'amazoncart kindle 399 ltd time heal from abuse with conscious awareness amp rock music'
p102
asS'2014_37'
p103
(lp104
S'a french film showing men what being a woman feels like kinda nails it via'
p105
asS'2014_34'
p106
(lp107
S'healing is omnipresent opening out in all directions of time moonflower puyb 99cents'
p108
aS'just 99c i couldn\xe2\x80\x99t put this book down moonflower puyb 99cents'
p109
aS'just 99c blooming was her birthright darkness the unexpected catalyst moonflower puyb 99cents'
p110
aS'india acid attack survivors pose for ground breaking photo shoot gtgtmust read excellent what si\xe2\x80\xa6'
p111
aS'just 99c i couldn\xe2\x80\x99t put this book down moonflower puyb 99cents'
p112
aS'what most people don\xe2\x80\x99t know about me is that i am a survivor moonflower puyb 99cents'
p113
aS'what most people don\xe2\x80\x99t know about me is that i am a survivor moonflower puyb 99cents'
p114
aS'a beautiful and honest message you touched my heart thank you'
p115
aS'tara is an incest rape and sexual abuse survivor moonflower puyb 99cents'
p116
asS'2014_35'
p117
(lp118
S'the heart of a teacher'
p119
aS'just 99c blooming was her birthright darkness the unexpected catalyst moonflower puyb 99cents'
p120
asS'2014_32'
p121
(lp122
S'full moon manifestation meditation  via'
p123
aS'just 99c blooming was her birthright darkness the unexpected catalyst moonflower puyb 99cents'
p124
aS'if you want to be great let yourself make mistakes tdl'
p125
aS'a definite mustread moonflower puyb 99cents'
p126
aS'rapecultureiswhen only 3 of rapists see the inside of a jail cell learn more by via'
p127
aS'book review i love that she came out of all of this with a loving family a strong personality and a great book'
p128
aS'moonflower book review'
p129
aS'thanks for reading my moonflower excerpt been following your shattered chapter reveals weve traveled similar paths'
p130
aS'whispers from the grave the voice of suicide moonflower 99cents'
p131
aS'a big thank you to everyone for the rts amp favs i appreciate the momentum youre adding to the moonflower book tour'
p132
aS'whispers from the grave'
p133
aS'new blog post my publishing journey'
p134
aS'there is no cookiecutter journey to healing moonflower puyb 99cents'
p135
aS'childhood sexual abuse and family dysfunction moonflower puyb 99cents'
p136
aS'the story behind moonflower a memoir of healing by tara edin puyb'
p137
aS'bookreview twelve to murder by lauren carr murder mayhem amp a mystery that will keep you guessing iartg bynr'
p138
aS'my publishing journey'
p139
asS'2014_33'
p140
(lp141
S'new blog post why even my worst fears will never keep me from the wilderness'
p142
aS'99cents goes down smoother than a chocolate martini amp packs same punch real murder mystery iartg bynr amenl'
p143
aS'what most people don\xe2\x80\x99t know about me is that i am a survivor moonflower puyb 99cents'
p144
aS'what most people don\xe2\x80\x99t know about me is that i am a survivor moonflower puyb 99cents'
p145
aS'a book geek moonflower book spotlight puyb'
p146
aS'there is no cookiecutter journey to healing moonflower puyb 99cents'
p147
aS'a chat with tara edin author of moonflower'
p148
aS'just 99c blooming was her birthright darkness the unexpected catalyst moonflower puyb 99cents'
p149
aS'a definite mustread moonflower puyb 99cents'
p150
aS'a conversation with tara edin author of moonflower a memoir of healing amreading \xe2\x80\xa6'
p151
aS'there is no cookiecutter journey to healing moonflower puyb 99cents'
p152
aS'your angel messages for august 11  17 doreen virtues weekly angel oracle card reading'
p153
asS'2014_30'
p154
(lp155
S'christianity\xe2\x80\x99s the 1 religion in every us state but what\xe2\x80\x99s 2 where you live via'
p156
aS'your invisible friend\xe2\x80\xa6 intuition'
p157
aS'get in touch with your invisible friend\xe2\x80\xa6'
p158
aS'tune into a special tori performance today on 1045 fm san francisco 977 fm san jose or a\xe2\x80\xa6'
p159
asS'2014_44'
p160
(lp161
S'beyond words inspirational give your spirit a boost'
p162
as.