(dp0
S'2013_40'
p1
(lp2
S'eoghan harris dark wood excellent article mental health'
p3
aS'graduateamp039s plan eliminate waste gives food thought'
p4
aS'words surprising benefits physical affection therapy blog naturaltherapyforall'
p5
asS'2013_41'
p6
(lp7
S'running marathon heart experts'
p8
aS'research finds babies learn anticipate touch womb'
p9
aS'multivitamins minerals benefit women invasive breast cancer'
p10
aS'meditate profitable decisions'
p11
aS'india china cancer capitals times india'
p12
asS'2013_46'
p13
(lp14
S'multilingual indian children learn english faster finds study hindustan times'
p15
asS'2013_26'
p16
(lp17
S'alternatives mental health'
p18
asS'2013_27'
p19
(lp20
S'topic wellness responsibility individual'
p21
aS'drugless alternatives overview'
p22
aS'welcome group pradeep'
p23
aS'thank'
p24
aS'currently studying psychotherapy counselling studied diet nutrition also anatomy'
p25
aS'generous group members punished nonconformists study reveals therapy blog naturaltherapyforall'
p26
aS'mhra announces drug safety update popular painkiller serious heart risks'
p27
aS'emotionally healthy workplaces need hour'
p28
asS'2013_28'
p29
(lp30
S'welcome site please bring along followers share experiences'
p31
aS'content marketing facts make seriously consider mobile'
p32
aS'worried sick scientist magazine\xc2\xae'
p33
aS'bought anatomy epidemic magic bullets psychiatric drugs astonishing rise'
p34
aS'insulin found play \xe2\x80\x98crucial\xe2\x80\x99 role breast milk production therapy blog naturaltherapyforall'
p35
aS'dealing migraine magnesium helps therapy blog naturaltherapyforall'
p36
aS'photos automatically smile face'
p37
asS'2013_29'
p38
(lp39
S'1995 life changing event diagnosed suffering ptsd lucky finding'
p40
aS'beyond simple networking organize mastermind group life hacker india'
p41
aS'welcome dinesh site welcome share experiences drugless alternatives bring'
p42
aS'makes best therapists best'
p43
aS'geraldine flynn qualified nurse learning disabilities paediatricsmy current practice'
p44
aS'john hall 1990s lifechanging event diagnosed ptst lucky finding'
p45
aS'1990s lifechanging event diagnosed ptst lucky finding'
p46
asS'2014_19'
p47
(lp48
S'humility makes ceos india stand times india'
p49
asS'2014_16'
p50
(lp51
S'selfforgiveness linked longevity'
p52
aS'centipede eats snake inside swallowed'
p53
aS'beggar you\xe2\x80\x99re never going forget does\xe2\x80\xa6 shouldn\xe2\x80\x99t'
p54
asS'2014_9'
p55
(lp56
S'think better life blame great great great grandfather times india'
p57
asS'2014_10'
p58
(lp59
S'girls facebook post costs 80000 hindustan times'
p60
asS'2014_11'
p61
(lp62
S'zero rupee network bangalore boys offer free phone calls without internet hindustan times'
p63
asS'2014_12'
p64
(lp65
S'exercise mins burn times india'
p66
asS'2014_13'
p67
(lp68
S'according scientists relaxing tune ever recorded'
p69
aS'welcome posts please feel free contribute'
p70
asS'2013_51'
p71
(lp72
S'year million girls married 18th birthday'
p73
asS'2013_52'
p74
(lp75
S'great leaders treat integrity habit business insider india'
p76
aS'unhappiest jobs america business insider india'
p77
asS'2014_6'
p78
(lp79
S'earth looks like mars times india'
p80
asS'2014_5'
p81
(lp82
S'innovative heating system save millions'
p83
asS'2014_3'
p84
(lp85
S'people polluters save europe\xe2\x80\x99s climate legacy strong target pollution'
p86
asS'2014_1'
p87
(lp88
S'indians adding world obesity problem report times india'
p89
aS'pill kill aiims study times india'
p90
asS'2013_36'
p91
(lp92
S'even mild stress could undermine emotion control strategies study finds therapy blog naturaltherapyforall'
p93
aS'study exercise intensity important duration fighting obesity therapy blog naturaltherapyforall'
p94
aS'brain imaging study explains insomnia sufferers lose focus therapy blog naturaltherapyforall'
p95
asS'2013_35'
p96
(lp97
S'pursue dream sincerity says sindhuja rajamaran indias youngest hindustan times'
p98
asS'2013_34'
p99
(lp100
S'awesome beauty benefits therapy blog naturaltherapyforall'
p101
aS'sleep debt can\xe2\x80\x99t repaid study reveals therapy blog naturaltherapyforall'
p102
asS'2013_33'
p103
(lp104
S'know free bitcoins check'
p105
aS'indian spices spice life mensxp'
p106
asS'2013_30'
p107
(lp108
S'know psychiatrist poem'
p109
aS'doctors said would never read autistic heads nobel prize kids'
p110
aS'even mosquitoes like beer'
p111
aS'even mosquitoes like beer'
p112
aS'even mosquitoes like beer'
p113
aS'even mosquitoes like beer'
p114
aS'even mosquitoes like beer'
p115
aS'even mosquitoes like beer'
p116
asS'2014_22'
p117
(lp118
S'hello everyone inform intend pull website druglessalternatives social'
p119
as.