(dp0
S'2013_42'
p1
(lp2
S'bradford allen craig back'
p3
aS'annoyed easily'
p4
aS'mother fall asleep'
p5
aS'excited watching'
p6
aS'last episode season shes season'
p7
aS'first night going anywhere like weeks honestly wanted slightly antisocial'
p8
aS'realize much care someone late night thinking'
p9
aS'episode literally seen'
p10
aS'uneasy feeling close halloween'
p11
aS'chicago cant sleep excitement thetour movementlifestyle'
p12
aS'every damn fool least five minutes every wisdom consists exceeding limit elbert hubbard'
p13
aS'cannot friends opposite without people assuming maturity levels really need start developing soon'
p14
aS'skipping class work game chicago weekend grateful wonderful opportunity dancelife'
p15
aS'havent social life like weeks finally caught school work weeks sick'
p16
aS'today stats follower unfollowers'
p17
aS'want sleep'
p18
aS'night late night studying tired digging library seen'
p19
aS'lame skippin parties homebody'
p20
aS'middle semester hours catching chem problems tedious'
p21
aS'photo jheneaiko 1112 order 1029'
p22
aS'helping keisha autocad homework years engineering sort'
p23
aS'philosophy dont ever grad school philosophy says philosophy grad student'
p24
asS'2013_43'
p25
(lp26
S'today stats follower unfollower followed person'
p27
aS'turn turndownforwhat even drinking'
p28
aS'photo'
p29
aS'forget segregation mizzou instead black mizzou white mizzou'
p30
aS'youre home alone scares tina'
p31
aS'tribute seen brooklyn'
p32
aS'today stats followers unfollower'
p33
aS'photo without garnier hair would crazy wavy curly straight freeze'
p34
aS'yesterday told chemistry joke party reaction'
p35
aS'unwritten rule seat every class always musical chairs shit'
p36
aS'today stats follower unfollowers followed person'
p37
aS'youre dancing please anyone youre dancing wrong reasons onlydancers'
p38
aS'hate conformity individual others expect'
p39
aS'think much much much'
p40
aS'photo jack jack drinks fountain deal'
p41
aS'surprising guys dated older maturity levels grader'
p42
aS'science important part popular culture brian'
p43
aS'people think everyone kind stereotype major'
p44
aS'niggas talk bitches days'
p45
asS'2013_40'
p46
(lp47
S'want friday'
p48
aS'live like doors heard room'
p49
aS''
p50
aS'like waking shots fired doors'
p51
aS'photoset actually canada shitty television psas'
p52
aS'photoset phuckindope marleygang'
p53
aS'photo life'
p54
aS'feeling well'
p55
aS'photoset grandtheftautumnleaves crgpatty iearthlovinhippiebear93 theroadtobeauty adashofhiddles'
p56
aS'yeah never knew listened people'
p57
aS'today stats follower unfollowers followed person'
p58
aS'female expensive sigh'
p59
aS'choreo hold going homedrake looking excited teach saturday sick week finally socializing'
p60
aS'today stats follower unfollowers followed person'
p61
aS'today stats followers unfollower'
p62
aS'right think feel better worst goodnight'
p63
aS'kind figures government going shut'
p64
aS'disappointed government'
p65
aS'today stats followers unfollowers'
p66
asS'2013_41'
p67
(lp68
S'adrian peterson living legend'
p69
aS'allergic cats think breaking hives right literally'
p70
aS'last weekend like doors police went load guns demanding everyone come crazy'
p71
aS'lock shooting parties theyll fine'
p72
aS'today stats followers unfollowers followed people'
p73
aS'still opening snap chats lmao'
p74
aS'long week'
p75
aS'almost hours best ever'
p76
aS'npnational athem llana'
p77
aS'photo llana'
p78
aS'feel close enough wanna lock love think close enough could lock love baby disclosure'
p79
aS'first dates never fails soft spot'
p80
aS'pray family'
p81
aS'taco night'
p82
aS'hero story need saved'
p83
aS'quote dont happiness depend something lose'
p84
aS'today stats follower unfollowers followed person'
p85
aS'estoy cansado mundo buenas noches'
p86
aS'sometimes little faith believe impossible give hope future well find'
p87
aS'quereme como'
p88
aS'blasklavavavavava'
p89
aS'common things life uncommon command attention world george washington carver'
p90
aS'seriously kraft cheese'
p91
aS'close friends completely individuals along secretly antisocial selective social life'
p92
aS'recently mean hotter lmao'
p93
aS'extremely exhausted feel asleep didnt know passed woke four hours later'
p94
aS'today stats follower unfollowers followed person'
p95
aS'today stats followers unfollower'
p96
ag50
aS'going motions guess'
p97
aS'haha said need take walmart'
p98
ag50
aS'photo enjoy beautiful weather familia arrives soon'
p99
aS'todav\xc3\xada respuesta'
p100
aS'today stats followers unfollower'
p101
aS'guys afraid honest like ongoing game shit'
p102
aS'dont'
p103
aS'llana constantly comes playlist know good night'
p104
aS'want know stand'
p105
aS'latch disclosure beautiful song'
p106
aS'state entropy hold'
p107
aS'compassionate attitude ultimate basis living happy life'
p108
aS'everybody genius judge fish ability climb tree live whole life believing stupid einstein'
p109
aS'wish males team many females definitely uncomfortable'
p110
aS'cookie dough girl tumblr explains life'
p111
aS'long week ahead doctor appointments plus mommys bday days excited'
p112
aS'people person anymore rather bother'
p113
aS'like kiss especially like people want sweet everything going right'
p114
ag50
asS'2013_46'
p115
(lp116
S'whats happening'
p117
aS'still freaking guess else watched'
p118
aS'you\xe2\x80\x99ll start living breakthrough minded promises show give something talk'
p119
aS'como weather right gtgtgtgtgtgtgt'
p120
aS'days summer girls'
p121
aS'doug havent forgotten miss raps still everyones mind never forgotten'
p122
aS'photo chanelandlouboutins'
p123
aS'photoset bootybound infinitekim latentpower awkwardsituationist cambridge university students'
p124
aS'american next model finale'
p125
aS'guygirl code fellas ladies exceed expectations foodforthought'
p126
aS'craving innout long'
p127
aS'night actually sleep'
p128
aS'small faith today that\xe2\x80\x99s okay move mountains'
p129
aS'guys dress like attractive'
p130
aS'sometimes want talk thats'
p131
aS'strong survive'
p132
aS'really bummed guess sleep engineering stressful'
p133
aS'aquarians stubborn comes sharing feelings'
p134
aS'booty meat flesh gives posterior beautiful shape'
p135
aS'notebook 2013 version'
p136
aS'heard tried said shall start rumor'
p137
aS'great thing dance financially cost'
p138
aS'today stats followers unfollower'
p139
aS'haha studying exam'
p140
aS'said attracted older completely friend zone since preschool'
p141
aS'always club house sneak'
p142
aS'true'
p143
aS'sometimes need little faith'
p144
aS'hang faith look like still'
p145
aS'photo'
p146
aS'hate uncomfortable feeling random happen much worrying'
p147
aS'distance important apart want interested'
p148
aS'today stats follower unfollowers followed person'
p149
aS'vanilla chai perfect cold'
p150
aS'unclog ears invalid opinions'
p151
aS'star trail taken'
p152
aS'since bringing dancexxxplosion march 2014'
p153
aS'today stats follower unfollowers'
p154
aS'hopefully puts things prospective'
p155
ag50
aS'perfer underground music'
p156
aS'society accept mediocrity complacency rejecting individualism change\xe2\x80\x9d'
p157
aS'welp guess next time biggie'
p158
aS'photo langleav piercethesunset doctorpotterbaggins terrible lack posts recognizing'
p159
aS'need'
p160
aS'dont respect assumptions'
p161
aS'dirtiest fifth grader alive ballislife'
p162
aS'aquarius tell moody show instead'
p163
asS'2013_47'
p164
(lp165
S'productively make week postivity'
p166
aS'instrumental royals like better actual lyrics'
p167
asS'2013_44'
p168
(lp169
S'engineering number degree undergrad salary wise'
p170
aS'sometimes universe presents similar situation opportunity prove much youve'
p171
aS'epic episode monstersquid'
p172
aS'dancing studio hours straight definitely help ease mind wish could danced longer'
p173
aS'gets easier stronger keep head'
p174
aS'dont enough lucky girl'
p175
aS'always princess loveyou ripbabygirl'
p176
aS'dream farm smiled hugged bawling eyes said'
p177
aS'photo'
p178
aS'appreciating every moment giving life blessing never taken granted'
p179
aS'alyssa marie bell grace brandon love heart soul height width depth stop'
p180
aS'death sucksrip alyssa'
p181
aS'many funerals people taken soonits okay'
p182
aS'every time wake reality hits still dont believe happen never thought could happen'
p183
aS'cure cancer strapped inside mind someone cannot afford education'
p184
aS'love gracie'
p185
aS'still unreal things happen good people'
p186
aS'still shock round family friend close needed never take anyone granted'
p187
aS'daze'
p188
aS'tragedy life doesnt reaching goal tragedy lies goals reach benjamin mays 18951984'
p189
aS'give anything able reopen snapchats listen goofball jokes precious faces miss\xe2\x80\xa6'
p190
aS'going class doesnt seen right today sure process everything alyssa bell'
p191
aS'starts tonight'
p192
aS'mixedgirlproblems'
p193
aS'passed nursing hearing test time sister telling thinks deaf selectivehearing tunin\xe2\x80\xa6'
p194
aS'quote carry within wonders seek without thomas browne'
p195
aS'cant wait season begin tomorrow'
p196
aS'studying want right'
p197
ag50
asS'2013_45'
p198
(lp199
S'finish paper practice examine left'
p200
aS'brother coming francisco excited need family long distances suck'
p201
aS'weeks actually social life well kinda'
p202
ag50
aS'kids cannot help laugh'
p203
aS'chill work'
p204
aS'photo jack craving affection last night'
p205
aS'thing another today'
p206
aS'photo finally made time clean room'
p207
aS'favor don\xe2\x80\x99t wear trying please everybody time valuable'
p208
aS'male dancers\xf0\x9f\x98\x8d'
p209
aS'girl calling couldnt anymore annoying came roommate cause asked'
p210
aS'going stuff finding note says ever pregnant would first know'
p211
aS'today stats followers unfollower'
p212
aS'highlight night magic card tricks fire ashes roommate'
p213
aS'dont retweet'
p214
aS'photo night completed'
p215
aS'fucking nickel every time type shit went'
p216
aS'imagine living without heart possible artificial heart pumping blood body'
p217
aS'tonight crew made excited preludetalk chicagowearecomingforyou'
p218
aS'understand racism real gotta stop using black work harder poin\xe2\x80\xa6'
p219
aS'sometimes asks things don\xe2\x80\x99t make sense you\xe2\x80\x99re going reach highest potential'
p220
aS'absolutely sound smacking worst peeve'
p221
aS'state entropy hold siriam'
p222
aS'photo'
p223
aS'photo'
p224
aS'aquarius wont promise unless absolute intention sticking word'
p225
asS'2013_16'
p226
(lp227
S'tempted learn chords'
p228
aS'heading home guess start researching paper'
p229
aS'tired especially eating'
p230
ag50
aS'today stats follower'
p231
aS'olivia weekend nights always interesting haha'
p232
aS'jaana tonight'
p233
aS'good performance tonight official'
p234
aS'thanking every opportunity blessed thankful'
p235
aS'shout vocals sick proud'
p236
aS'performing guys great'
p237
aS'killed'
p238
aS'cause time right youll dear love song'
p239
aS'miley cyrus bitch'
p240
aS'practice crew performance tonight'
p241
aS'photo getting ready perform'
p242
aS'performing room 2206 student center come support official dance crew'
p243
aS'happy birthday'
p244
aS'photo snuggle snuggle tessa'
p245
aS'photo comfy target'
p246
aS'photo smiling'
p247
aS'rest night'
p248
aS'night last night amazing'
p249
ag50
aS'guys walked asked lauren twice'
p250
aS'today stats followers'
p251
aS'still going people'
p252
aS'grove'
p253
aS'finally done assignments'
p254
aS'almost done assignment'
p255
aS'jhop gotta mizzoutwitterawards'
p256
aS'want hookah damn assignments fall asleep last night'
p257
aS'thats mean'
p258
aS'really'
p259
aS'tired homework'
p260
aS'woke earlier'
p261
aS'problems assignments'
p262
aS'chemistry problems finish work'
p263
aS'dont think louis would ever real rapper prosper come city everybody gotta swag rapper'
p264
aS'want waffles'
p265
aS'sundaes lodge'
p266
aS'2nights move grove viralassmusicvideo'
p267
aS'need definitely finish assignments tonight'
p268
ag50
aS'success comes ambition ambition comes deepest desires within'
p269
aS'watch society today puts meaning behind everything'
p270
aS'photo taboo freaking handsome love long hair guys'
p271
aS'addicted ridiculousness show hilarious'
p272
aS'today stats followers'
p273
aS'awkward'
p274
aS'love weekends start thursday miss next semester'
p275
ag50
aS'actually went strip club guess took tittie sprinkles next level'
p276
aS'wait good thing'
p277
aS'never apologize'
p278
aS'reason location says says best friends'
p279
aS'play pokemon official'
p280
aS'waking even know took tired'
p281
aS'best friends'
p282
aS'slothsthe animal 2013'
p283
aS'gosh'
p284
aS'make life lessons step streets'
p285
aS'damn missing'
p286
aS'room living kitchen really clean happy person'
p287
aS'noooo'
p288
aS'french montana prophet'
p289
aS'meant approve'
p290
aS'bored class'
p291
aS'hungry'
p292
aS'literally class haha'
p293
aS'class 1250'
p294
aS'approve'
p295
aS'really'
p296
aS'tittie sprinkles'
p297
ag50
aS'much water falling'
p298
aS'better preach girl onelove nohateallowed'
p299
aS'patience truly virtue'
p300
aS'sociology class next thursday'
p301
aS'suffer nothing compared glory reveal later roman believeit godneverlies'
p302
aS'today stats unfollower'
p303
aS'meant understand life live sure fine purpose'
p304
aS'cannot stand black women white women dates black ignorant together'
p305
aS'save last dance'
p306
aS'cannot wait great gatsby'
p307
aS'like pretty sure'
p308
aS'national geographic documentaries'
p309
aS'fear storms'
p310
aS'hahaha'
p311
aS'sounds like como weather needs snickers'
p312
aS'would girl pissed like tornadoes actually happen'
p313
aS'musty fuck basement'
p314
aS'good wondering temp dropped fast'
p315
aS'works came announced need basement'
p316
aS'text home home'
p317
aS'playing camping basement like type severe weather'
p318
aS'photo best'
p319
aS'qqqqw'
p320
aS'love heat hate humidity'
p321
aS'always play b\xc3\xa9same mucho makes happy'
p322
ag50
aS'today stats followers unfollowers'
p323
aS'studying'
p324
aS'good making nice breakfast morning'
p325
ag50
ag50
aS'know hacked'
p326
aS'lmao right barely made'
p327
aS'take weekend trip\xe2\x80\x9d niggas gone make back'
p328
aS'take weekend trip'
p329
ag50
aS'seeing reckless tweets terrible\xe2\x80\x9d'
p330
aS'going'
p331
ag50
aS'hanging'
p332
aS'jones fortune worthy cause appreciate generosity'
p333
aS'photo flavor jones black cherry'
p334
aS'photo ready summer cali'
p335
aS'guys outfit awesome'
p336
aS'unknown still unknown forgotten lost left behind'
p337
aS'kendrick cole need hurry drop colab albummixtape workin'
p338
aS'black diamondsamppearls dont fall back race askaboutnikki date friends'
p339
aS'photoset pauliiebm thegoddamazon qonorrhea raspberryripples scares imagine going'
p340
aS'today stats followers'
p341
aS'warning notices'
p342
aS'cars towed'
p343
aS'right'
p344
aS'okay'
p345
aS'haha girl thought cute curly hair'
p346
aS'like blue grand'
p347
aS'someones towed campus lodge said illegal parking'
p348
aS'problem'
p349
aS'people already tweetin drake shit like damn people listen first'
p350
aS'next chemistry test need pass like'
p351
ag50
aS'stuff control calculator computer system'
p352
aS'voted haha'
p353
aS'dont everything solution'
p354
aS'weekend sounds like might another weekend humm'
p355
aS'might able'
p356
aS'sorry love friend canpus lodge hookah need hookah together though'
p357
aS'currently watching live update broken happen dedicated sandy'
p358
aS'hookah sessions always make happy'
p359
aS'doubt makes believe keep striving better grateful'
p360
aS'90210 chinese pretty great relax'
p361
aS'hate sometimes world live'
p362
aS'explosion library'
p363
aS'york london high alert making nervous'
p364
aS'really'
p365
aS'haha thought'
p366
aS'bombing finish line boston marathon people injuried people dead'
p367
aS'really amazing people life'
p368
aS'prayersforboston'
p369
aS'prayers going victims boston marathon injured killed explosion'
p370
aS'forgot much headache jammed finger'
p371
aS'addicted thanks tessa'
p372
aS'plenty reasons smile wont stop'
p373
aS'real fake mistake torikelly'
p374
aS'found performance saturday'
p375
aS'face youre place stand straight getting back track want back'
p376
ag50
aS'response'
p377
aS'fact come campus type work cause would probably sleep'
p378
aS'today stats follower unfollower'
p379
aS'meet dudes afterwards thing another interview joey bada nyck caution'
p380
aS'life mystery keeps mysterious'
p381
aS'congrats brother getting engaged happy life headed'
p382
aS'really love green eyes'
p383
aS'jammed finger hooping'
p384
aS'done playing basketball feel refreshed'
p385
asS'2013_24'
p386
(lp387
S'photo nail color love'
p388
aS'photo relationship perf stupidcrazylove'
p389
aS'photo cooked tessa rice eggplant peppers eggs spinach carrots groundbeefamppork yummy'
p390
aS'cooked tessa rice eggplant peppers eggs spinach carrots groundbeefamppork yummy'
p391
aS'cooking tess'
p392
aS'iphone newest ipod ipad'
p393
aS'flight booked francisco'
p394
aS'rush group'
p395
aS'finally took meat make homemade beef broccoli tonight happy'
p396
aS'photo ring'
p397
aS'logic imagination take everywhere albert einstein'
p398
aS'meow'
p399
aS'hate going finically office'
p400
aS'clears throat definitely baby'
p401
aS'today stats follower unfollowers followed amazing person'
p402
aS'like beginning independent much invest'
p403
aS'party'
p404
aS'photo summer loving'
p405
aS'photo girl meagan looking gorgeous'
p406
aS'photo right'
p407
aS'photo pool ladies'
p408
aS'pool ladies'
p409
aS'photo pool time'
p410
aS'pool time'
p411
aS'hella tight cant wait come'
p412
aS'photo'
p413
aS'iso7 compatible iphones ipads'
p414
aS'eerie music'
p415
aS'hello columbia'
p416
aS'waffle house'
p417
aS'photo perfectly chip'
p418
aS'marvel capcom ps2classic'
p419
aS'today stats unfollower'
p420
aS'sweet ios7 examples'
p421
aS'white boys super cute though'
p422
aS'photo pool hooping'
p423
aS'pool'
p424
aS'made excellent friend reward'
p425
aS'photo'
p426
ag50
aS'coming'
p427
aS'photo headed pool'
p428
aS'headed pool'
p429
aS'like'
p430
aS'going pool today'
p431
aS'come'
p432
aS'today stats follower'
p433
aS'home'
p434
aS'girls like'
p435
ag50
aS'glamour'
p436
aS'theres never dull moment vine peyton siva'
p437
aS'bored'
p438
aS'feel like hanging laughing playing video games'
p439
aS'diego francisco weeks'
p440
aS'jowell randy'
p441
aS'woke like whoa fresh'
p442
aS'victoria secrets semi annual sale'
p443
aS'photo fact blue jean skirts grade gosh'
p444
aS'today stats unfollower followed amazing person'
p445
aS'popping nose ring back challenge'
p446
aS'ants bother'
p447
aS'mysterious things happen mostly unexpected fear'
p448
aS'welcome haha'
p449
aS'tempted order pizza mannnn dont need spend anymore money food'
p450
aS'sends hersheys mail'
p451
aS'photo hoody'
p452
asS'2013_25'
p453
(lp454
S'clue explain last night'
p455
aS'lmao'
p456
aS'lets unwanted callers'
p457
aS'respect'
p458
aS'today stats follower followed person'
p459
aS'understanding lifes mysteries slight appearance imagination'
p460
aS'thanks back still waiting match capcom marvel'
p461
aS'leaving cali week anyway'
p462
aS'help'
p463
aS'honest somebody room place rent move back como lmao'
p464
aS'never satisfied length hair'
p465
aS'trying productive start week everything done leave stress responsibilities'
p466
aS'want girl balance well boost chasing goals workin hard vise versa shit crazy\xe2\x80\xa6'
p467
aS'today stats followers'
p468
aS'photo last night hookah'
p469
aS'texted'
p470
aS'sure come cant swim'
p471
aS'photo good book'
p472
aS'want cali happy haha'
p473
aS'damn cali'
p474
aS'pretty summer know'
p475
aS'chingy talkin bout marriage aint workin tour doin shows since lmao'
p476
aS'gosh miss'
p477
aS'next semester como clutch'
p478
aS'every girl needs master hair flip'
p479
aS'latin night aladdin chicas'
p480
aS'photo'
p481
aS'photo best drink ever today'
p482
aS'photo getting night started'
p483
aS'instagram wont'
p484
aS'annoyed'
p485
aS'question'
p486
aS'photo smiling option'
p487
aS'photo learning mins choreo bollywood energy imdead'
p488
aS'joanna tessa joanna tessa'
p489
aS'love gets'
p490
aS'photo pool ladies howard'
p491
aS'photo grove ladies'
p492
aS'photo book'
p493
aS'today going good'
p494
aS'beat twice whats phrase finally'
p495
aS'today stats followers followed people'
p496
aS'borrow something wear'
p497
aS'bitches like boyfriend team faithful'
p498
aS'bosh faces bahahahahaahahaha'
p499
aS'noooooo'
p500
aS'ahhhhh'
p501
ag50
aS'spurssss'
p502
aS'lets spurs'
p503
aS'tony parker clutch'
p504
aS'tony parker baby spurs'
p505
aS'thank tony'
p506
aS'announcer said maybe headband slowing lmfao'
p507
aS'commentary said maybe headband slowing haha'
p508
aS'spurs need step back'
p509
aS'lebron tired people talking bout headband said fuck imma embrace'
p510
aS'haha thefinalsnba'
p511
aS'lahhhveeeee sonya tayeh'
p512
aS'yeezus sounded cool'
p513
ag50
aS'seriously dancers still breathing super excited season another crazyawesome routine'
p514
aS'forget turn food food food'
p515
aS'greedy people ready vamos'
p516
aS'tired people eating touch picking shit dont touch dont touch mine really want something'
p517
aS'hate feelings start coming back'
p518
aS'lost interest'
p519
aS'lazy fuck ever life would probably'
p520
aS'today stats follower unfollowers followed person'
p521
aS'lmao girl caught vining walking back apartment haha'
p522
aS'photo pok\xc3\xa9mon theoriginal campus lodge apartments'
p523
aS'photo campus lodge apartments'
p524
aS'photo theoriginal pok\xc3\xa9mon'
p525
aS'ready play good call duty gamer lovingtonight'
p526
aS'beat game'
p527
aS'last favorite games'
p528
aS'made night cant wait learn choreography awesome'
p529
aS'last'
p530
aS'victorias secret semi annual sale well'
p531
ag50
aS'asked ueono'
p532
aS'turn'
p533
aS'know'
p534
aS'want rice happy dance kitchen'
p535
aS'ughh know'
p536
aS'heck kingdom city small towns missouri'
p537
aS'retweet would break this\xe2\x80\xa6'
p538
aS'finally know'
p539
aS'every time goes country gets colored'
p540
aS'coming anymore timing awkward going fran brother moved soon'
p541
aS'want'
p542
aS'love waking smile \xc2\xa1buenos'
p543
aS'youll strawberry bubblegum blueberry lollipop love till make'
p544
aS'wanna change world netflix good'
p545
aS'doesnt come fall'
p546
aS'photo murder'
p547
aS'first kissesgtgt'
p548
aS'dont care ethnicity love sesy boys haha'
p549
aS'today stats unfollowers'
p550
aS'francisco weeks newhome thebayarea'
p551
aS'tessa wake ready hair'
p552
asS'2013_26'
p553
(lp554
S'play candy crush commercials'
p555
aS'downtown clouds look scary arch today'
p556
aS'photo louis'
p557
aS'attack balloons'
p558
aS'want hair long'
p559
aS'welcome good burger home good burger order'
p560
aS'days leave fran'
p561
aS'like queen frizz control frizz ends gone'
p562
aS'today stats follower unfollower followed person'
p563
aS'still'
p564
aS'insecurity ugly thing makes people dont even know'
p565
aS'photo arrow shot pulling backward life dragging back difficulties'
p566
aS'photo'
p567
aS'could never heart mind breakup next sounds exhausting'
p568
aS'success nothing less'
p569
aS'photo rude'
p570
aS'photoset quorious gayblowjob chromehearts feminism comic uni\xe2\x80\x99s newspaper wish'
p571
aS'fran expensive worth every penny'
p572
aS'coming back cali week early little less stress'
p573
aS'slept perfectly last night glad finally dream catcher near'
p574
aS'hair hella long back short front wish long length\xe2\x80\x9d'
p575
aS'knowing difference confidence cockiness everything people egos make nauseous'
p576
aS'still part rememberwhoops'
p577
aS'everyone watch support amazing choreographed wicked games weekend'
p578
aS'check choreo wicked games'
p579
aS'back louis'
p580
aS'rude'
p581
aS'photo playing bear'
p582
aS'photo larry'
p583
aS'traffic suck'
p584
aS'cant wait show official stuff working'
p585
aS'yeezus'
p586
aS'football rain true nothin beats soccer rain'
p587
aS'really enjoyed school supply shopping first something fresh binders'
p588
aS'summer loving country music couldnt'
p589
aS'definitely make trip probably moving california next year'
p590
aS'heading back louis soon cali next friday month'
p591
aS'today stats follower unfollowers'
p592
aS'hope everything taking care leave'
p593
aS'banana lets candy mountain charley'
p594
aS'nook iphone color love reading'
p595
aS'aquarians light breezy breath spring words carry power gale force wind'
p596
aS'rescue needed'
p597
aS'transferred nook iphone happy'
p598
aS'bought vince burrito extra large drink taco bellinstead giving money food conquers'
p599
aS'social choose loner'
p600
aS'follow tumblr loves'
p601
aS'love school nerd freaking'
p602
aS'gosh seasons'
p603
aS'love office ughhhhhh'
p604
aS'make sure definitely haha'
p605
aS'titus promoting right flooding'
p606
aS'promote love rather hate'
p607
aS'trying eliminate clothes suite case'
p608
aS'gosh need pack less ridiculous'
p609
aS'hate dependent feeling worst feeling ever hate asking people favors'
p610
aS'looks space shuttle launch night picture credit mike killian'
p611
aS'haha said look like mugged first thing took dignity heroes'
p612
aS'like world really'
p613
aS'chances handed scissors'
p614
aS'like really'
p615
aS'worst thing knowing stand someone'
p616
aS'today stats follower'
p617
aS'wish going diego still miss'
p618
aS'well makes since'
p619
aS'apartamento'
p620
aS'kinda didnt good love quote'
p621
ag50
aS'call snowflake cause make shiver burrrr'
p622
aS'dude player convict'
p623
aS'going kill found phone free mins'
p624
aS'weve phone almost hours seven brother speak nothing lmao'
p625
aS'pool'
p626
aS'wish fully enjoy'
p627
aS'marriage legal california today congrats people fighting years'
p628
aS'guess danny brown arent friends love cereal soggy shrugs'
p629
aS'photoset dolovemakeart enayalateh8withfireworks timothydelaghetto kindofinteresting'
p630
aS'today stats follower followed person'
p631
aS'someones behind'
p632
ag50
aS'confused'
p633
aS'scary movies'
p634
aS'trimmed bangs'
p635
aS'whole world'
p636
aS'dynasty warriors game'
p637
aS'follow tumblr'
p638
aS'realized whip cream going bake cookies'
p639
aS'clue going pack month francisco missionimpossible'
p640
aS'finished like math problems like mins'
p641
aS'mommy already scheduled lunch date central west return'
p642
aS'cold stones mmhm yummy delicious love want'
p643
aS'grumpy never gets haha'
p644
aS'dunkin timeline'
p645
aS'ridiculous degrees type breeze missincali'
p646
aS'love hate thing\xe2\x80\x9d'
p647
aS'today stats unfollower'
p648
aS'mike commercial intense thought movie trailer'
p649
aS'shopping girlcode'
p650
aS'dude asked date white castles noresponse'
p651
aS'cable horrible'
p652
aS'time'
p653
aS'strength family like strength army loyalty mario puzo'
p654
aS'today stats follower'
p655
aS'miss summer sucks seeing'
p656
asS'2013_27'
p657
(lp658
S'photo beach house half moon'
p659
aS'reading explained'
p660
aS'aquarius sagittarius'
p661
aS'fish chips relaxing harbor today halfmoonbay sunday'
p662
aS'people afraid happy others might think'
p663
aS'today stats unfollower'
p664
aS'back diego'
p665
aS'cali anywhere else'
p666
aS'photo great'
p667
aS'exhausted glad home time'
p668
aS'look descent still something dont mind foamy'
p669
aS'sushi brother'
p670
aS'might tour leave definitely scared'
p671
aS'photo walking glass pier39 pier'
p672
ag50
aS'photo better vine'
p673
aS'laughing alcatraz haunted definitely ghost hunters'
p674
aS'glad come today wondering traffic near airport'
p675
aS'zumba omar'
p676
aS'photo best peruvean downtown mateo'
p677
aS'biological engineering decide definitely study buddies'
p678
aS'right majoring'
p679
aS'mines yess'
p680
aS'time'
p681
aS'sure taste words spit'
p682
ag50
aS'photo'
p683
aS'looking good skateboard shop cant wait'
p684
aS'photo give bailey mateo'
p685
aS'photo bailey morning'
p686
aS'today stats follower'
p687
aS'hahah'
p688
aS'aint shit dane'
p689
aS'photo almost year feel satisfied'
p690
aS'barley bear'
p691
aS'innout craving complete'
p692
aS'photo secret passage lead beauty scene golden gate distance'
p693
aS'photo baker beach baker beach'
p694
aS'photo secret passage beach baker beach'
p695
aS'photo crossing golden gate golden gate bridge'
p696
aS'absolutely beautiful weather heaven'
p697
aS'made fran landed right'
p698
aS'board fran west coast time'
p699
aS'favorite part traveling everyone everywhere many beautiful culture'
p700
aS'landed vegas free wifi tons food everywhere'
p701
aS'would life without emojis'
p702
aS'coming back puspo eastwood going francisco'
p703
aS'francisco coming 610pm classesregister'
p704
aS'mommys girl'
p705
ag50
aS'lonely airport definitely like flying alone'
p706
aS'talking looking housing francisco yass'
p707
aS'photo airport francisco come cali'
p708
aS'last night actually relaxed'
p709
aS'seen much family week felt really good missed everyone'
p710
aS'smiles families faces makes holidays special'
p711
aS'revine'
p712
aS'downloading music hour flight tomorrow'
p713
aS'well praying hope okay'
p714
aS'maybe cause said'
p715
aS'havent seen almost months still want august going missing like crazy'
p716
aS'excited china town sanfrancisco'
p717
aS'cant stay stlouis much longer told yall last summer'
p718
aS'sorry okay'
p719
aS'happen explosion'
p720
aS'heard crazy central west'
p721
aS'louis part'
p722
ag50
aS'know'
p723
aS'stlouis fuckin ratchet swear lmao'
p724
aS'bahaha know feeling felt explosions fireworks chest'
p725
aS'terrified fireworks people shot'
p726
aS'darling home'
p727
aS'mchg pretty nice'
p728
aS'haha reset phone'
p729
aS'lmao pissed'
p730
aS'everyone follower holidays quit basic'
p731
aS'worst mistake life'
p732
aS'photo cashclouds beeazyyy28 tupac aaliyah 2pac favorite picture existing'
p733
aS'haha merica'
p734
aS'victorious marathon woohoo'
p735
ag50
aS'pink nose ring love'
p736
aS'girls evil smirking monsters fine friends'
p737
aS'latino gawgeoussssss'
p738
aS'full'
p739
aS'photo cooking'
p740
aS'haha dinosaurs created'
p741
aS'love close live loop forest park'
p742
aS'scared alone'
p743
aS'francisco days'
p744
aS'hilarious'
p745
aS'today stats follower'
p746
aS'need sleep'
p747
aS'\xe2\x80\x9cunexpressed emotions never buried alive come forth later uglier ways\xe2\x80\x9d sigmund freud'
p748
aS'annular solar eclipse tokyo'
p749
aS'cute nerd nails'
p750
aS'freaking brother arent louis anymore'
p751
aS'ticket coming back home orange county vegas seriously'
p752
aS'theres fire'
p753
aS'houses caught fire'
p754
aS'getting tired curly hair dont feel like straightening hair'
p755
aS'making cinnamon pecan pancakes mommy'
p756
aS'today stats follower followed people'
p757
aS'messy organisms trending vine silly'
p758
aS'extremely flattered right'
p759
aS'relax'
p760
aS'humility always remain humble'
p761
aS'today stats follower unfollower followed person'
p762
aS'really want marble cake whip cream icing sounds good'
p763
aS'photo laying larry'
p764
aS'probably owned 8000 bobby pins life know many maybe'
p765
aS'understand economically egypt shaky cant expect president undo doings past'
p766
asS'2013_20'
p767
(lp768
S'bailey trying scare people'
p769
aS'next stop francisco'
p770
aS'photo butter candy glazed macadamias hawaii'
p771
ag50
aS'cheesecake factory'
p772
aS'congrats vanessa'
p773
aS'cool louis week miss como already'
p774
aS'going stay como summer'
p775
aS'photo cute'
p776
aS'girl graduating today college proud'
p777
aS'congrats little cousin graduating know late long week finals sleep proud'
p778
aS'missed louis radio thats'
p779
aS'reunited brother'
p780
aS'louis road trip nsync'
p781
aS'possibly invest extra light attach'
p782
aS'charging film light'
p783
aS'maybe look page look photograph done'
p784
aS'videos beginner professional canon camera sorry like suppose bring cause need tonight'
p785
aS'dammit left como meaning bring'
p786
aS'like next sunday evening'
p787
ag50
aS'chem final'
p788
aS'photo yess'
p789
aS'ayye turn louis week hang week'
p790
aS'also cant wait best friend'
p791
aS'biggest fear summer crossing golden gate bridge lbvs'
p792
aS'louis week'
p793
aS'photo nights like people love makes world beautiful place'
p794
aS'beautiful experience'
p795
aS'staying como summer'
p796
aS'rainbow meets tornado'
p797
aS'officially summer francisco month possible diego peace love relaxation'
p798
aS'definitely girl'
p799
aS'aquarians vengeful minds wont usually'
p800
aS'twerk'
p801
ag50
aS'aladdin straight flexin'
p802
aS'kill bill dunk'
p803
aS'cops really'
p804
aS'squidward pops molly'
p805
aS'photo little fellow landed right next'
p806
aS'photo enjoying beautiful downtown practice everyone como today nice'
p807
aS'face little sunburnt ouch'
p808
aS'smile want thing holding back'
p809
aS'sytycd tonight'
p810
aS'final studying long week'
p811
aS'mostly white white frat'
p812
aS'today stats follower'
p813
aS'photo'
p814
aS'always said would make mistake human thats saving grace'
p815
aS'confused still'
p816
aS'photo random last week'
p817
asS'2013_21'
p818
(lp819
S'long cali'
p820
aS'photo feel innocent'
p821
aS'know buns british accent antmuk loveit'
p822
aS'love diversity'
p823
aS'matter'
p824
aS'much food'
p825
aS'looks like diego still answer'
p826
aS'maze'
p827
aS'today stats follower'
p828
aS'tonight would perfect night bonfire star gazing jams blankets'
p829
aS'fact bubble playing game disappointed heats'
p830
aS'photo rainbow bubbletea delmar loop'
p831
aS'uugggghhhh'
p832
aS'officially missing'
p833
aS'killing tonight'
p834
aS'hace'
p835
aS'come heat turn teamheat heatnation'
p836
ag50
ag50
aS'photo harlem shake taken gifboom'
p837
aS'harlem shake gifboom'
p838
ag50
aS'miss love'
p839
aS'photo summer nights taken gifboom'
p840
aS'summer nights gifboom'
p841
aS'photo handlebar lovelies missed taken gifboom'
p842
aS'handlebar lovelies missed gifboom'
p843
aS'deli truck'
p844
aS'photo quorious wildnirvana spiritual world\xe2\x80\xa2 holy fuck love gorgeous'
p845
aS'photo found classics going bros apartment'
p846
aS'wild heart cant broken'
p847
aS'weve victim lazy love'
p848
aS'today stats unfollower'
p849
aS'text'
p850
aS'mind blown away'
p851
aS'photo \xe2\x80\x9csoaked love thoughts\xe2\x80\xa6\xe2\x80\x9d'
p852
aS'barnes noble'
p853
aS'guess thats feeling killing good'
p854
aS'smile much never know make'
p855
aS'photo larry'
p856
aS'degrees freezing'
p857
aS'beats commercial twins gtgtgtgt'
p858
aS'little nervous'
p859
aS'sometimes feel deserve given would give deserve'
p860
aS'gosh'
p861
aS'derpy derp perfect'
p862
aS'hold horses'
p863
aS'night definitely made feel much better'
p864
aS'miss everyone already'
p865
aS'dont know love orange soda shes young kenanampkal'
p866
aS'waiting next episode kenan'
p867
aS'shoes'
p868
aS'seen closet'
p869
aS'miss'
p870
aS'credits next semester'
p871
aS'working microsoft ayye'
p872
aS'huge gamer'
p873
ag50
aS'xbox shitting playstation'
p874
aS'watch xbox reveal'
p875
aS'back como days'
p876
aS'photo bubble chinese yesterday'
p877
aS'best ever used zebra striped kind'
p878
aS'trinity catholic'
p879
aS'cool'
p880
aS'well looks like gone tourney'
p881
aS'love games 2k13 madden'
p882
aS'pretty serious moment lying'
p883
aS'feel like madden tournament right'
p884
aS'looking forward 2k14'
p885
aS'really though lifes getting started next chapter gonna'
p886
aS'youre awesome\xe2\x9d\x97'
p887
aS'truly amazing heading path would happy later came rescued'
p888
aS'always nose brain ability ignore'
p889
aS'praying kids families died oklahoma'
p890
aS'aquarius'
p891
aS'choked'
p892
aS'twerk tree'
p893
aS'take'
p894
aS'proud cannot stop smiling working microsoft exgoogle workers amazing opportunity'
p895
aS'wish take cross country road trip back fran brother weeks biggie'
p896
asS'2013_22'
p897
(lp898
g50
aS'photo last night'
p899
aS'photo'
p900
aS'photo relaxing beautiful'
p901
aS'pray oklahoma'
p902
aS'wutang band shirt gnarlyaf'
p903
aS'night'
p904
aS'anime chinese food math module class'
p905
aS'perfect fall love'
p906
aS'sending thoughts prayers everyone suffering storms missouri tonight godwillprotectyou besafe'
p907
aS'much talent tonight loving pefromingarts'
p908
aS'olivia'
p909
aS'west liberty'
p910
ag50
aS'today stats follower unfollowers'
p911
aS'party hill tonight come'
p912
aS'photo rainbow'
p913
aS'seriously thats horrible call'
p914
aS'photo ifthesesh33tswerethestates glorialovescats visual representation putting trust someone'
p915
aS'case yall didnt know going hill tonight'
p916
aS'chicago fyrrre chicagotreat heat chicagoboa stlbwoi chicagoheah stlhurrr chicagoharolds london'
p917
aS'iphone first time sitting within close proximity charger firstworldproblems'
p918
aS'seems like perfect night dress like hipsters'
p919
aS'photo karlaworld perfect'
p920
aS'headacheltltltltlt'
p921
aS'studying determined cheese'
p922
aS'victory turnup'
p923
aS'like 2nites sytycdauditions wait vegas best seasons sytycd sobbing genius'
p924
aS'photo eatmycupcakebtch bubble butty'
p925
aS'danced gravity tears rolled loved loved loved sytycd'
p926
aS'sytycd'
p927
aS'edition vogue magazine'
p928
aS'aquarius secretive admire person weeks even months without showing sign making'
p929
aS'watching behind music aaliyah'
p930
aS'embrace past live'
p931
aS'hate much love cant'
p932
aS'waiting hear'
p933
aS'need loony toons netflix'
p934
aS'aquarius loves love strong upset random dont underestimate reason behind'
p935
ag50
ag50
aS'talking journey lost'
p936
aS'photo oldschoolshit amazing photo'
p937
aS'photo'
p938
aS'photo meeting franklin first time'
p939
aS'photo spotted deer'
p940
aS'photo trail went today kinda blurry rain'
p941
aS'went best hike today letitrain'
p942
aS'hollywood tour seeing celebrity houses shit'
p943
aS'diego like days francsico'
p944
aS'thought going longer wish going part'
p945
aS'miss dance family come back shall dance officialdancecrew'
p946
aS'today stats follower'
p947
aS'dutch apple green late night snack'
p948
aS'heat'
p949
aS'photo hinder enemy exist care view world'
p950
asS'2013_23'
p951
(lp952
S'smores sooo good'
p953
aS'quiero fill bank'
p954
aS'miss love going good'
p955
aS'miss keish hope youve well keepsmiling behappy summerfreedom'
p956
ag50
ag50
aS'ghetto shit annoys'
p957
aS'bottle turning como mizzou15 mizzou17 mizzou16 teammizzou'
p958
aS'back toohappy'
p959
aS'photo askaboutnikki mphilice \xe2\x80\x9cevolution\xe2\x80\x9d'
p960
aS'wish please come'
p961
aS'bonfire pool tonight sounds like plan\xe2\x80\x9d flies como'
p962
aS'bonfire pool tonight sounds like plan'
p963
aS'definitely feel like hooping today'
p964
aS'wisdom words cant explain simply dont understand well enough'
p965
aS'photo coolest thing summer friendly bowlinggreen'
p966
aS'today stats unfollower'
p967
aS'literally weeks gosh need packing'
p968
aS'haha funny everyone calls ghetto haha'
p969
aS'secret life series finale teen wolf season premiere fosters series premiere tonight'
p970
aS'west florrisant'
p971
aS'jason kidd retired'
p972
aS'keep moving life wont give option stand still'
p973
aS'nothings important relationship'
p974
aS'change want world mahatma gandhi'
p975
aS'make feel inferior without consent eleanor roosevelt'
p976
aS'first time leaving today absolutely hate sick'
p977
asS'2013_28'
p978
(lp979
S'science without religion lame religion without science blind albert einstein'
p980
aS'photo'
p981
aS'thatssomorgan race white irrelevant young child murdered'
p982
aS'going pool need relax anxiety'
p983
aS'really breaks heart cory monteith'
p984
aS'montieth dead like still thisi really hope didnt dose'
p985
aS'episode naruto aint even come week ltltltltltltltltlt pissed lbvs'
p986
aS'understand hows summer'
p987
aS'racism horrible thing fought lets ignore murder problem country'
p988
aS'grace youre reading tweet'
p989
aS'thoughts peoples reaction awesome justice system markserranopro america'
p990
aS'full right'
p991
aS'great time much diversity today meet cool people glad live cultured diverse world lovepeacehappiness'
p992
aS'hippie hates guns wants everyone love peace love life\xe2\x80\x9d'
p993
aS'going college'
p994
aS'okay think time twitter next hours people starting ignorantonce'
p995
aS'navy moving back'
p996
aS'blacks ones every race deserves respect ancestors gone shit'
p997
aS'know hispanics enslavedsegregated'
p998
aS'thank couldnt agree people ignorance getting annoying'
p999
aS'hispanic white black people ones badly racially profiled\xe2\x80\x9d'
p1000
aS'reasonable doubt lack evidence prosecution lacked strong case welcome court rules'
p1001
aS'forever downtown freaking amazing want want'
p1002
aS'thats forreal need charged something seriously'
p1003
ag50
ag50
aS'hope black people dont take reason even ignorance'
p1004
aS'photo today ridiculous glad cross back home city'
p1005
aS'chinatown rest'
p1006
aS'went vacation brand station diego'
p1007
aS'done'
p1008
aS'\xc2\xa1payaso \xc2\xa1payaso'
p1009
aS'suppose rioting supposed occur zimmerman acquittednot cool eitherthats ignorance'
p1010
aS'aquarians quiet around crowd people study peoples ways actions'
p1011
aS'milky rocky mountains 11000 feet'
p1012
aS'almost muir wood park took like hour though city'
p1013
aS'spanish getting good'
p1014
aS'call duty going school study game partying lmao'
p1015
aS'hate baggage life short pissed time worth'
p1016
aS'photo'
p1017
aS'ayee turn'
p1018
aS'found might going first week august holla'
p1019
aS'understanding beauty life takes lifetime mistake night avery'
p1020
aS'photo morning'
p1021
aS'like hell gonna cause black call someone freaking back'
p1022
aS'respect races especially expect respect'
p1023
aS'show music'
p1024
aS'going hike tomorrow'
p1025
aS'cold right'
p1026
aS'politeness become rare people mistake flirtation\xe2\x80\x9d'
p1027
aS'aquarians dont like explaining gets really angry'
p1028
aS'absolutely loving franciscos night life reggaeton'
p1029
aS'keri hilson cousin tonight shout atlanta tonight'
p1030
ag50
ag50
aS'photo android build google googleplex building android lawn statues'
p1031
aS'photo riding around google campus google office'
p1032
aS'photo android google google office'
p1033
aS'photo jamaican dinner jerk chicken fried plantains rice bean salad back yard caribbean'
p1034
aS'love mean falling afraid heights'
p1035
aS'nothing lasts forever'
p1036
aS'photo don\xe2\x80\x99t know you\xe2\x80\x99re thinking know sure falling'
p1037
aS'watching dairy anne frank'
p1038
aS'lets dance dancelife'
p1039
aS'today stats unfollower'
p1040
aS'want south africa'
p1041
aS'sorry naruto'
p1042
ag50
aS'third newest'
p1043
aS'play naruto pool jacuzzi little'
p1044
aS'geeked come cant stop watching gameplay\xe2\x80\x9d'
p1045
aS'lakers change name hitlers becoming first sports organization officially eliminate world peace'
p1046
aS'geeked come cant stop watching gameplay'
p1047
aS'black black violence acceptable cant fuck zimmerman yelling free boosie free pass\xe2\x80\xa6'
p1048
aS'thats true strong opinions even going'
p1049
aS'ever parent makes serious making racial hatred case misleading'
p1050
aS'everyday shouldnt publized much'
p1051
aS'justice needs charged time makes special rest like'
p1052
aS'honestly shit yall saying trial beyond ignorant'
p1053
aS'wrong race annoying'
p1054
aS'happens everyday literally ignorant thinking another civil simply right'
p1055
aS'ignorance bliss'
p1056
aS'case shouldnt even'
p1057
aS'nothing race truely said people think'
p1058
aS'whole trayvon martin trial absolutely ridiculous'
p1059
aS'trials extreme media coverage pick really'
p1060
aS'know people starting annoying assuming instead looking point'
p1061
aS'guilty notzimmerman hispanic white information messes white black racial comments abou\xe2\x80\xa6'
p1062
aS'trial hardly sufficient evidence either side'
p1063
aS'haha'
p1064
aS'smokey catfished friday phone'
p1065
aS'many people wear chachi mommas today fitting right mines ayyyeeee'
p1066
aS'know youre cali walk smoke shop 1000 bongs bowls'
p1067
aS'somethings life accept dont speak going contradict'
p1068
aS'dont care know broke thats matter reason needs charged'
p1069
aS'call duty mood yesterday'
p1070
aS'theres many reason experience people went thats opinion differs among everyone'
p1071
aS'many people look suspicious everyday race reason looked suspicious assumption'
p1072
aS'might might right thats ignorant'
p1073
aS'dont know assumption dont know thinking know facts going argue something'
p1074
aS'point'
p1075
aS'killed innocent person actually facts thats needs charge race people missing'
p1076
aS'assume make assumptions wrong cause disobeyed cops orders'
p1077
aS'hate chingy lame cant call away'
p1078
aS'think taking bailey seal beach weekend'
p1079
aS'definitely everyone equal rights dont believe exhausting reason'
p1080
aS'miss guitars feel like writing'
p1081
aS'today'
p1082
aS'saying blacks always play race card seen stories happen many races look beyond history look'
p1083
aS'system sucks thats need justice wrong race thing dead'
p1084
aS'exact situation happens everyday every race teen saying right saying racism'
p1085
aS'okay almost every adult feels like every teen looks suspicious generations fault'
p1086
aS'meant hispanic'
p1087
aS'black white mexican messed system race'
p1088
aS'another reason people turn hatred begin causes problems happens everyday nothing'
p1089
aS'cant fight happiness wherever know reason'
p1090
aS'haha dragon ball tweets funny sometimes'
p1091
aS'thats done today good degrees might jacuzzi'
p1092
aS'agree justice need made happens everyday unfortunately'
p1093
aS'people making trail treyvon black racial thing chill'
p1094
aS'people calling zimmerman white supremacists mexican chill\xe2\x80\x9d'
p1095
aS'food'
p1096
aS'monstta pronouncing'
p1097
aS'alvin back tweeting'
p1098
aS'feel mind dont matter matter dont mind'
p1099
aS'today stats follower unfollower'
p1100
aS'learning routines national dance'
p1101
aS'follow blog tumblr'
p1102
aS'tehe'
p1103
ag50
aS'ariana grande doesnt really talk like character haters'
p1104
aS'songs itunes'
p1105
aS'haha indeed'
p1106
aS'taha'
p1107
aS'like vans dirty cause season pants ripped like goku frieza'
p1108
aS'arianna grande hilarious lmao bibble'
p1109
aS'casket versace tweets'
p1110
aS'entropy sriram'
p1111
aS'photo nugget mykala pr0ve could reblog hardcore judging don\xe2\x80\x99t reblog'
p1112
aS'trinity mini ipadsare kidding keep want back high school'
p1113
aS'mateo mall definitely beats downtown mall shopping today'
p1114
aS'seriously sales today'
p1115
aS'photo longweeknd nonchanel no\xe2\x80\x94\xe2\x80\x94\xe2\x80\x94\xe2\x80\x94one deathtraders antivist oddsarentinmyfavor interesting fact'
p1116
aS'unfortunate really wish wouldn\xe2\x80\x99t really like human beings'
p1117
aS'almost mighty mango naked nooo'
p1118
aS'hard smile sometimes even always good'
p1119
aS'today stats follower followed person'
p1120
aS'victorious hilarious'
p1121
aS'dope'
p1122
aS'lmao'
p1123
aS'good nerdy pickupline chromosomes combined beautifully'
p1124
aS'avan jogia gorgeous'
p1125
aS'apologizing doesnt mean youre right wrong means value relationship'
p1126
aS'went work brother yammermicrosoft today realized definitely cant play table tennis'
p1127
aS'schedule next semester torture start engineering courses'
p1128
ag50
aS'downtown mall today probably walk mateo mall tomorrow since forever'
p1129
aS'today pretty good'
p1130
aS'everybody talk'
p1131
aS'okay number choice cheapest route'
p1132
aS'left mins conversation escalated quickly'
p1133
aS'lmao like milk folgers starbucks yall trying'
p1134
aS'never milk taste like water something right drink vanilla almond'
p1135
aS'least someone agrees'
p1136
aS'milk hella good'
p1137
aS'definitely nasty'
p1138
aS'nice glass milk sounds splendid right'
p1139
aS'somebody always getting raped order damn'
p1140
aS'finally made downtown taking caltran work much easier driving hills fran geez'
p1141
aS'beyond sleepy'
p1142
aS'love hurt worst'
p1143
aS'class naked sounds quite refreshing right'
p1144
aS'kill never gone find another like time look'
p1145
aS'dante vanessa love'
p1146
aS'soooo ghetto love ghetto cant watch'
p1147
aS'love ghetto cant watch'
p1148
aS'pulled closer kiss gtgtgtgtgt'
p1149
aS'asian sexy never enough'
p1150
aS'photo brother bailey chillin mateo'
p1151
aS'insecure boyfriend always jealous feelings clue express tries buys girl'
p1152
aS'dorm staying next year'
p1153
aS'almost home kinda want beach today'
p1154
aS'feel like half trinity goes half went'
p1155
aS'obsessed whole foodsi wish could afford shop time'
p1156
aS'naruto'
p1157
aS'amusement park tickets base discount followup'
p1158
aS'absolutely love summers pawn stars marathon baby'
p1159
aS'wish'
p1160
aS'haha wait something clock computer still forward something'
p1161
aS'shower hair naruto'
p1162
aS'week back home\xe2\x99\xa5'
p1163
aS'already sheesh need food'
p1164
aS'take cant harm either work work'
p1165
aS'took like different ever milligrams mines probably within weeks'
p1166
aS'never broke'
p1167
aS'also nails stronger clearer skin'
p1168
aS'take help grow hair'
p1169
aS'craving tacos realize hung left made tacos'
p1170
aS'pawn stars favorite'
p1171
ag50
aS'yall gotta chill'
p1172
aS'today stats follower followed person'
p1173
aS'text'
p1174
aS'1130'
p1175
aS'dont know someone friends cray'
p1176
aS'green cream beyond delicious'
p1177
aS'cummingtonite'
p1178
aS'whatever pray come'
p1179
aS'hana game awesome'
p1180
aS'naruto'
p1181
ag50
aS'haha miss gracie'
p1182
aS'playing naruto'
p1183
aS'photo walking back store beautiful today mateo'
p1184
aS'bailey hole chew squeezed slob came'
p1185
aS'educated black gtgtgtgtgtgt'
p1186
aS'back home mateo think going walk grocery store need food work'
p1187
aS'photo facebook headquarters facebook'
p1188
aS'head facebook headquarters'
p1189
aS'jhene aiko perfect'
p1190
asS'2013_29'
p1191
(lp1192
S'miserables muny tonightgtgtgtgtgtgt\xf0\x9f\x98\x8d'
p1193
aS'called pretty savage'
p1194
aS'fixing r\xc3\xa9sum\xc3\xa9'
p1195
ag50
aS'knows quit fighting doesnt'
p1196
aS'show girl hilarious'
p1197
aS'flipping pillow cool side heaven face'
p1198
aS'stats follower unfollowers'
p1199
aS'friend name bola'
p1200
aS'bola messed didnt even know'
p1201
aS'fact suppose diego right well missing comic second time happended year'
p1202
aS'made legitimate goal save money diego comic next year need nerdproblems'
p1203
aS'dont blame fort zumwalt people wanting normandy come school dont wont well'
p1204
aS'getting screw sick'
p1205
aS'white black kids black white kids\xe2\x80\x9d'
p1206
aS'skateboarding around como start rain little want board literally'
p1207
aS'lost tiny nose ring bigger gauge'
p1208
aS'hate people tell want hear tell feel would respect'
p1209
aS'cant wait pick skateboard morning though'
p1210
aS'cant sleep still stuck cali time'
p1211
aS'photo favorite flight back'
p1212
ag50
aS'photo back como relaxing'
p1213
aS'everything natural must felt freely like clambering vine asphalt toward'
p1214
aS'people often forget kindness free'
p1215
aS'earl sweatshirt album gone smackdont sleep young nigga'
p1216
aS'bras expensive like didn\xe2\x80\x99t choose boob life boob life chose'
p1217
aS'need dihydrogen monoxide'
p1218
aS'really visiting biggest computer programming social network companies fran learned coding'
p1219
aS'traveling days straight butt hurts'
p1220
aS'always said would make mistakes human thats saving grace'
p1221
aS'salty sweet combination sounds sexy right mmhm womens craving'
p1222
aS'cool como'
p1223
aS'aspen heights'
p1224
aS'back como skateboard finally'
p1225
aS'moving slow stop talking come women'
p1226
aS'much take care'
p1227
aS'always left'
p1228
aS'dont blame past take responsibility start activating gifts talents'
p1229
aS'today stats follower followed person'
p1230
aS'wonder tumblr follows last time check glad people enjoying blog able relate much love'
p1231
aS'literally hours flight back louis exhausted'
p1232
aS'pain change much less pain staying mediocrity dont settle less best'
p1233
aS'made orange county nice flight'
p1234
aS'photo loved science nerd fullest francisco'
p1235
aS'heading airport flight trying hold back tears brother wants stay long fran home months'
p1236
aS'today stats followers'
p1237
aS'joey friends funny'
p1238
aS'blueberry pomegranate pineapple herbal soothing'
p1239
aS'tragic trying jump head hope works'
p1240
aS'made seem like ios7'
p1241
aS'lmao yess jennings tweets keep coming'
p1242
aS'jennings clowning tonight'
p1243
aS'would definitely wait apple released thats mess software'
p1244
ag50
aS'hair gets longer gets thicker gets thicker much handle'
p1245
aS'great convo brother today success happens want happen'
p1246
aS'inhighschool hella smart incollege imma average'
p1247
aS'take shower'
p1248
aS'late flight tomorrow want friday morning back como'
p1249
aS'inmiddleschool everyone birkenstocks'
p1250
aS'brother face train went haha glad home though'
p1251
aS'inmiddleschool gave everybody palm pilots never'
p1252
aS'next stop mateo'
p1253
aS'dude kevin artist selling fruities everyone know dollar'
p1254
aS'inmiddleschool mixing sugar koolaid crack'
p1255
aS'inmiddleschool could always catch court hoops'
p1256
aS'sold locker'
p1257
aS'inmiddleschool girl threaten hair long'
p1258
aS'inmiddleschool swat team last school fights'
p1259
aS'swear fruitier bomb going corner store school'
p1260
aS'inmiddleschool used come late school cause dollar fruities slanged'
p1261
aS'inmiddleschool bebo faithfully'
p1262
aS'inmiddleschool used like phone convos'
p1263
aS'inmiddleschool went wannabe emoscene phase'
p1264
ag50
aS'inmiddleschool ford nigga'
p1265
aS'knew'
p1266
aS'inmiddleschool crush'
p1267
aS'lmao called force ones exclusives every pair shoes inmiddleschool'
p1268
aS'inmiddleschool force ones shut rink'
p1269
aS'tweet putting innocent'
p1270
aS'inmiddleschool huge nerd'
p1271
aS'look like good went'
p1272
aS'success without sacrifice'
p1273
aS'inmiddleschool everybody thought gang'
p1274
aS'inmiddleschool remembered hella numbers heart'
p1275
aS'inmiddleschool first boyfriend good memories'
p1276
aS'probably going home midnight exhaustion pack'
p1277
aS'taxi driver young cute'
p1278
aS'feeling middle school trending start another jennings trend'
p1279
aS'inmiddleschool wore shirts jennings'
p1280
aS'inmiddleschool hella little looked young mustache lmao'
p1281
aS'inmiddleschool ready private school jennings kids hell'
p1282
aS'love friends'
p1283
aS'thugin hating imma thug'
p1284
aS'youre probably right hurt'
p1285
aS'gosh people depressing seriously live little smile'
p1286
aS'shitted fire balls everyday'
p1287
aS'right straight thugin'
p1288
aS'went high school together'
p1289
aS'well guys meet ayyeee excited'
p1290
aS'photo downtown downtown francisco'
p1291
aS'video downtown tonight francisco'
p1292
aS'take taxi mall'
p1293
aS'first time take train breaks take mins downtown hour'
p1294
aS'girl posted carne asada fries could would drive hours diego want'
p1295
aS'condemning thoughts start believing redeemed restored talented valuable'
p1296
aS'smile smile'
p1297
ag50
aS'love oversized shirts sweaters tshirts button love'
p1298
aS'waiting train standing burning ready downtown'
p1299
aS'photo bailey don\xe2\x80\x99t want head'
p1300
aS'remember judge forget hatas cause somebody loves'
p1301
ag50
aS'sweet thanks went right calendar haha'
p1302
aS'okay thanks much need like asap applying everything'
p1303
aS'looking campus need options know theres dining library bookstore anymore'
p1304
aS'need help'
p1305
aS'photo francisco'
p1306
aS'video'
p1307
aS'dating cool ever eaten macaroni cheese'
p1308
aS'blame society society make changes within change group'
p1309
aS'photo brownbeautywithin motherfuckingcheese chazzthejazz huntersinthesherlockedtardis maggiekealy'
p1310
aS'conquer flaws must first accept'
p1311
aS'photo heres cute turtle'
p1312
aS'photo bestsongeverfan ofcarlileandmen fantastictardis welcometomylife13 trustingtranscendant'
p1313
aS'think brother wants stay fran looking transfer maybe'
p1314
aS'long flight tomorrow evening ready'
p1315
aS'brody jenner though gtgtgtgt'
p1316
aS'silly'
p1317
aS'alvin pops twitter nowhere like mysterious ghost'
p1318
aS'alvin pops twitter nowhere like mysterious ghost'
p1319
aS'never fails naked isnt powerful youll think'
p1320
aS'love movies prepare movie nights'
p1321
aS'photo making think'
p1322
aS'cause true'
p1323
aS'movie scared million girls forced trafficking year take self defense classes'
p1324
aS'lmao jhop saying haha'
p1325
aS'close'
p1326
aS'happiness comes fear happiness comes overcoming fear'
p1327
aS'right thing easier gets'
p1328
aS'today stats follower followed person'
p1329
aS'like days move apartment'
p1330
aS'brother said like outfit francisco told belong'
p1331
aS'like favorite song princeroyce'
p1332
aS'video bailey park trail mateo'
p1333
aS'photo beach cloudy sunset still pretty trail mateo'
p1334
aS'gained follows hour tumblr'
p1335
aS'world blind would sterotype sound dont eyes heart'
p1336
aS'taking bailey beach tonight whoa needs blow steam'
p1337
aS'photo super trippy'
p1338
aS'photo ilikeyourliplock dream'
p1339
aS'photo'
p1340
aS'photo'
p1341
aS'cr4zybe4utiful asked follow back'
p1342
aS'follow follow'
p1343
aS'tumblr keeps saying loves kind creepy'
p1344
aS'sarah freaking nuts emotional break downs masterink'
p1345
aS'photo raduim erykah badu'
p1346
aS'already'
p1347
aS'year special girl today lost sending heart talias family'
p1348
aS'blair redford guapo'
p1349
aS'logic need deep convos'
p1350
aS'cool'
p1351
aS'made mistakes learning process'
p1352
aS'hate working love money'
p1353
aS'chipotle'
p1354
aS'sucks trying explain creative visions someone whos blind'
p1355
aS'perfer much better couldnt even survive show'
p1356
aS'really dont want leave brother seem upset transferring original plan'
p1357
aS'back midwest days move apartment'
p1358
aS'watching documentary skid'
p1359
aS'rioting court case wont change anything people violence never answer'
p1360
aS'zimmerman trayvonmartin marleylion'
p1361
aS'photo watching scary movie terrified'
p1362
aS'alvin said missing like miss meals dead lmao'
p1363
aS'walking heart lion'
p1364
aS'stuff comes people mouth worries seriously'
p1365
aS'obama cater black people black discrimination democrat people ignorance'
p1366
aS'follow tumblr'
p1367
aS'dream catcher sexidarkchocolate follow awesome person ever shes totally cool'
p1368
aS'holding anger like drinking poison excepting person buddha'
p1369
aS'wish trayvon could come earth tell side story everybody shut fuck gawd'
p1370
aS'urban stereo vinyl skateboards grrr'
p1371
aS'photo smile beautiful francisco'
p1372
aS'love working dancers like professionals dont make excuses make happen'
p1373
aS'ready last couple weeks'
p1374
aS'gosh join'
p1375
aS'meta going knicks'
p1376
aS'carrie diaries great expectionally since city favorite shows'
p1377
aS'skateboard shipped'
p1378
aS'want swim degree'
p1379
aS'west coast east coast'
p1380
aS'seriously miss ofish family like time'
p1381
aS'miss dance family'
p1382
aS'much contradictory right wrong'
p1383
aS'photo gunxshots hustlinforchanel crazy4breezy thetallblacknerd nishnasty look response'
p1384
aS'bola made want tarts'
p1385
aS'100000000 would give vast majority away gonna make happy already happy'
p1386
aS'theres like messages numbers didnt save clue oopsy'
p1387
asS'2013_17'
p1388
(lp1389
S'year virgin'
p1390
aS'cooking actual dinner tonight'
p1391
aS'college students'
p1392
aS'logic imagination take everywhere albert einstein\xe2\x80\x9d'
p1393
aS'snake washing machine hahahahaha\xe2\x80\x9d'
p1394
aS'gymnastic judges full sometimes deductions'
p1395
aS'francisco hermano este verano'
p1396
aS'guess going eastwood house dinner private invitation dying omgggggg'
p1397
aS'whitney ports clothing line'
p1398
aS'made searching much easier'
p1399
aS'breakups hard deal body mind goes withdrawal like drug addiction become addic\xe2\x80\xa6'
p1400
aS'fuck bored shit'
p1401
aS'fake thought real came back poked broom haha make sure'
p1402
aS'looked real walked literally flipped'
p1403
aS'snake washing machine'
p1404
aS'haha thats dope chill'
p1405
aS'relaxing netflix bed\xe2\x80\x9dmaaaannn\xe2\x80\x9d maaaaann'
p1406
aS'relaxing netflix'
p1407
aS'brother moves francisco week microsoft yammer'
p1408
aS'heat need injury make playoffs fair'
p1409
ag50
ag50
aS'mizzou page facebook people selling still'
p1410
aS'cant relate made'
p1411
aS'today stats follower unfollower'
p1412
aS'soooooo turnt'
p1413
aS'nopooooooo'
p1414
aS'night better copperbeach'
p1415
aS'photo reblog repost'
p1416
aS'photo'
p1417
aS'tired saying sorry said goodbye'
p1418
aS'encourage stay humble exact things like'
p1419
aS'word chosen brian puspos small groups well female friends ridiculous dancers'
p1420
aS'photo repost'
p1421
aS'standing watching puspos eastwood practice workshop ahhhh'
p1422
aS'tired pizza movie sounds great'
p1423
aS'hooping'
p1424
aS'westbrook'
p1425
aS'movida tonight downtown'
p1426
aS'skateboard dope'
p1427
aS'comida'
p1428
aS'dude stabbed times shot times tattoo knifed still survived crazy gangdocumentary'
p1429
aS'woke itchy swollen eyes documentary watch want stay'
p1430
aS'aspen heights straight shows love'
p1431
aS'today stats follower unfollower'
p1432
ag50
ag50
aS'miss'
p1433
aS'westcoast'
p1434
aS'photo titus graduation'
p1435
ag50
aS'pulling nighter ughchem'
p1436
aS'asked wanted study haha roll'
p1437
aS'hate center attention'
p1438
aS'phone case delivered good'
p1439
aS'last couple weeks hopefully'
p1440
aS'finishing paper need study chem exam tomorrow'
p1441
aS'thanking blessings good still blessed'
p1442
aS'never wish hope whats expected life take'
p1443
aS'closeyet away'
p1444
aS'studying without headphones impossible'
p1445
aS'today stats follower unfollower'
p1446
aS'dehydrated lowkey scary feeling'
p1447
aS'girl code'
p1448
aS'goofy'
p1449
aS'haha whats funny'
p1450
aS'haha okay text tomorrow'
p1451
aS'want study tomorrow'
p1452
aS'need headed campus finish paper need focus'
p1453
aS'conversation siri spanish awesome haha'
p1454
aS'casually talking spanish middle sabai practicemakesperfect spanishexam'
p1455
aS'relationships level attraction level attraction commu\xe2\x80\xa6'
p1456
aS'roots struggle real though funny true'
p1457
ag50
aS'missing movie class scary'
p1458
aS'last class watch scary movie'
p1459
aS'called'
p1460
aS'inconsistent weather'
p1461
aS'weather triggers worst allergies asthma staying definitely want avoid emergency room'
p1462
aS'gray cloud blocked comes smile'
p1463
aS'havent done much dayim done school even funny'
p1464
aS'today stats follower unfollower'
p1465
aS'latino musicgtgtgtgt'
p1466
aS'thanks'
p1467
aS'watched dance triple event really good'
p1468
aS'love culture'
p1469
aS'variety show brother performed killed come check officialdancecrew performs well'
p1470
aS'performing shack tonight come check officialdancecrew'
p1471
aS'right page paper spanish senior year high school worst thats'
p1472
aS'determined right good paper even though honestly hate writing research papers'
p1473
aS'photo \xe2\x80\x9cremember happiness doesn\xe2\x80\x99t depend upon depends solely upon'
p1474
aS'parents much theres tons parents know thats truth'
p1475
aS'today stats follower'
p1476
aS'kestner wait foot inches right'
p1477
aS'eastwoods chicago 4days'
p1478
aS'childhood saved'
p1479
asS'2013_37'
p1480
(lp1481
S'photo qoodluck license2tumbl akaperfection qoodluck human planet'
p1482
aS'transferring positive energy else\xe2\x80\x99s mood effects force think'
p1483
aS'auditions today'
p1484
aS'today stats follower unfollowers'
p1485
aS'watch like snapchats sent lmao literally made haha'
p1486
aS'piercing last months think done'
p1487
aS'words express tired right'
p1488
aS'awkward'
p1489
aS'wearing puts higher risk breast cancer'
p1490
aS'takes typical person months days love'
p1491
aS'photo bluhbluhhugedork wristsareforbracelets fighttheworld diagondaley summerhill school'
p1492
aS'welcome mizzou homework online mizzou wireless works time'
p1493
aS'today stats followers unfollower'
p1494
aS'mentally exhausted studying thinking lack sleep smile ease mind'
p1495
aS'quote sleep someone else stealing success wake'
p1496
aS'calc exam'
p1497
aS'shoes came today fabulous'
p1498
aS'middle high school always said dont procrastinate wont make college procrastinating\xe2\x80\xa6'
p1499
aS'make decision choose faith fear'
p1500
aS'sleepy'
p1501
ag50
aS'fall fest come today official dance crew perform well many dance crews steps shows greek'
p1502
aS'tonights practice productive practiced tomorrows learned piece formations second'
p1503
aS'excited saturday though officials first practice people'
p1504
aS'learned choreo holy grail'
p1505
aS'coffee focused'
p1506
aS'much love autocad would appreciate staying morning'
p1507
aS'faith weak faith strong somebody standing'
p1508
aS'finally finished like engineerpremed student'
p1509
aS'excited official season going good year dancelife'
p1510
aS'lmao clue made laugh byut youre right think going time download'
p1511
aS'studying rest night sciencemajorproblems'
p1512
aS'tomorrow'
p1513
aS'dinner downtown roomie studying'
p1514
aS'never fake smile'
p1515
asS'2013_36'
p1516
(lp1517
S'movie want watch years netflix doesnt movie came last year'
p1518
aS'finishing paper final auditions'
p1519
aS'missouri rains didnt miss thee'
p1520
aS'money mind think'
p1521
aS'king chip mixtape gtgt'
p1522
aS'tired sigh'
p1523
aS'today stats follower unfollowers'
p1524
aS'need outside critiquing audition pieces'
p1525
aS'adorbs'
p1526
aS'photo'
p1527
aS'photo'
p1528
aS'much sometimes cant stand chemistry nailing'
p1529
aS'rest weekend consist organic chem workhardplayhard'
p1530
aS'auditions tonight'
p1531
aS'good continuing smiling even things going want smile turn whole around'
p1532
aS'starting look deep medical school preparing mcat next year'
p1533
aS'keep best right cause right place right time'
p1534
aS'photoset'
p1535
aS'anxiety overwhelmed thoughts overly anxious\xe2\x80\xa6scared happy distraught stressed wish'
p1536
aS'muhammad political talks real'
p1537
aS'moses make hebrews'
p1538
aS'playing music saturday night come'
p1539
aS'ryan cabrera'
p1540
aS'ready week start fresh week overwhelmed'
p1541
ag50
aS'jingos soon pleaseandthanks'
p1542
aS'avoid arguements'
p1543
aS'making sweet garlic chicken dinner'
p1544
aS'time still makes nervous'
p1545
aS'computers side week'
p1546
aS'miss kenz'
p1547
aS'photo native american grandfather talking young grandson tells wolves inside'
p1548
aS'wonder often gift knowledge come never wonder knowledge never find grandfather'
p1549
aS'emancipate mental slavery none free minds marley'
p1550
aS'photo'
p1551
aS'askaboutnikki people give give others want others think stay true'
p1552
aS'morning rise first thing mind'
p1553
aS'estudiando cansado triste'
p1554
ag50
aS'feeling type feeling leave uncomfortable'
p1555
aS'think people lonely fall whatever convenient'
p1556
aS'practice still feeling'
p1557
aS'hopefully practice productive tonighti need dance'
p1558
aS'brings people lives move people'
p1559
aS'feelings know afraid satisfied life'
p1560
aS'untitled story adventure want know story adventure sure'
p1561
aS'photo'
p1562
aS'don\xe2\x80\x99t energy worry energy believe'
p1563
aS'paralyzed ever paralyzed thoughts trying break free silence built'
p1564
aS'photo secretparanoia'
p1565
aS'satisfying feeling'
p1566
aS'moment youre sick bother walking upstairs couch'
p1567
aS'kindness mistaken weakness defensiveness mistaken fired shots\xe2\x80\x9d'
p1568
aS'studying'
p1569
aS'photo roomies playing water labor'
p1570
aS'lambdas'
p1571
aS'photo story adventure want know story adventure avery'
p1572
aS'want massacre expensive'
p1573
aS'take frequent breaks studying also known getting distracted'
p1574
aS'dont even mess like'
p1575
aS'woke feeling much better yesterday expect nose'
p1576
aS'bills almost died'
p1577
aS'gotta bills hate seeing money leave account'
p1578
aS'class labor'
p1579
aS'forcing'
p1580
aS'watching valor'
p1581
aS'checkout mixtape dope'
p1582
aS'bout'
p1583
aS'whether little whether take pride given'
p1584
asS'2013_35'
p1585
(lp1586
S'come back cook'
p1587
aS'photo made homemade pancakes'
p1588
aS'woke gloomy weather little disappointed'
p1589
aS'photoset heyheyrich women tumblr'
p1590
aS'think illegal'
p1591
aS'hate getting summer colds'
p1592
aS'couch comfortable slept nights'
p1593
aS'wanna wear uggs leggings oversized sweaters'
p1594
aS'lmao'
p1595
aS'today stats follower unfollowers followed person'
p1596
aS'wanna japanese festival pouts'
p1597
aS'hair heavy shower weighs head already please'
p1598
aS'cant wear sandals year around missouri stinks'
p1599
aS'cleaning shower chinese studying satisfying saturday'
p1600
aS'hercules'
p1601
aS'meet worked blake shelton miranda lambert'
p1602
aS'deep conversation good'
p1603
aS'beautiful'
p1604
aS'need fuckin vacation'
p1605
aS'muhammed flooring sonny liston 1965'
p1606
aS'love summer ready fall toohot'
p1607
aS'nsbe selling funnel cakes today eachalso serving lemonade lowry mall'
p1608
aS'come visit'
p1609
aS'twitter design lurkers'
p1610
aS'kicking student center come visit dance life'
p1611
aS'friday hard'
p1612
aS'afraid could sigh'
p1613
aS'photo lovely summer fran chill work'
p1614
aS'awuhh miss guys'
p1615
aS'lonnnggg productive miss'
p1616
aS'sleepy'
p1617
aS'calc easier calc calc combined'
p1618
aS'photo'
p1619
aS'homework done look like going work ahead'
p1620
aS'people always hang dont think weird'
p1621
aS'never spending hours trying figure number atom left zinc reacting longest chem ever'
p1622
aS'fuuuuuuuuck blackboard'
p1623
aS'tame ghost head wild wish dead'
p1624
aS'finishing chem assignment'
p1625
aS'pretty little lairs freaking good'
p1626
aS'today stats follower unfollowers followed person'
p1627
aS'still though'
p1628
aS'finally home'
p1629
aS'okay'
p1630
aS'whats wrong honey'
p1631
aS'classes meeting home exhausted'
p1632
aS'mins'
p1633
aS'much take care today trying hurry theres much stuff take care school stressed'
p1634
aS'somo tough'
p1635
aS'engineering great major change biomedical engineering'
p1636
aS'jhene aiko accident last night glad nami okay'
p1637
aS'girl working'
p1638
aS'victim okay either'
p1639
aS'photo'
p1640
aS'today stats followers unfollower'
p1641
aS'hbcu isnt real world'
p1642
aS'photo'
p1643
aS'would take compliment smith'
p1644
aS'calluses fingers playing guitar horrible'
p1645
ag50
aS'make pleasing highest priority forces darkness cannot keep destiny'
p1646
aS'playlist'
p1647
ag50
aS'photo geocached grimes'
p1648
aS'photo'
p1649
aS'photo screams follow back'
p1650
aS'photo screams follow back'
p1651
aS'could peaceful sleep xxyyxx album'
p1652
aS'slight addiction tumblr taken'
p1653
aS'missed badly performance'
p1654
aS'vmas practice'
p1655
asS'2013_34'
p1656
(lp1657
S'don\xe2\x80\x99t words describe situation words change situation'
p1658
aS'love homework relaxed love math'
p1659
aS'today stats followers unfollower'
p1660
aS'cooking tuna casserole dinner peach cobbler dessert tehe'
p1661
aS'wants love keeps goodnight love mean falling shes afraid heights'
p1662
aS'photo'
p1663
aS'dumb ugly tumblr quotes'
p1664
aS'photo'
p1665
aS'talked brother miss much keeps head'
p1666
aS'como widdit\xe2\x80\x9d'
p1667
aS'homework study timea'
p1668
aS'woke without alarm today feeling good dressed ready'
p1669
aS'today first performance semester missed'
p1670
aS'performance today'
p1671
aS'struggle calf going supper strong'
p1672
aS'floors crib real hate leave something downstairs'
p1673
aS'head next festivity home aspen performing'
p1674
aS'good night hanging latino fraternity'
p1675
aS'gosh literally tried jump leave'
p1676
aS'mostly hispanic party feel like taco stand meat need meat waitwhat'
p1677
aS'whats info'
p1678
aS'look like going tonight many party invites might well enjoy weekend'
p1679
ag50
aS'photo danadeee notyetknown following back\xc2\xaa follow back'
p1680
aS'aspen heights wild'
p1681
aS'pool trashed lmao nothing beer cans every'
p1682
aS'first performance year tomorrow'
p1683
aS'america behind certain traits second language spanish required consider spanish speaking country'
p1684
aS'beautiful'
p1685
aS'today stats followers unfollower followed people'
p1686
aS'tired'
p1687
aS'exhausted bunch showed house aspen heights'
p1688
aS'tired'
p1689
aS'rancho'
p1690
aS'love clothes'
p1691
aS'last class preparing downtown chicas tonight'
p1692
aS'mythology professor goes fast slow women'
p1693
aS'want bedddddd'
p1694
aS'math engineering life complete'
p1695
aS'paula deen might racist makes best candles world'
p1696
aS'lmao'
p1697
aS'roommates start random twerking jamaican music'
p1698
aS'chinese food made leftovers'
p1699
aS'today stats follower unfollowers followed person'
p1700
aS'little country'
p1701
aS'haha'
p1702
aS'wishing real country club love stepping love country music'
p1703
aS'good productive even better home'
p1704
aS'last class mins'
p1705
aS'race draft hilarious'
p1706
aS'blacks trade drake rednecks round pick condition drake lives mobile home actually'
p1707
aS'love adorn please baby'
p1708
aS'learned amazing piece soul happy'
p1709
aS'bored classes know material already well'
p1710
aS'ooooohhhh kill'
p1711
aS'clumsy'
p1712
aS'need starbucks right'
p1713
aS'gotta stay humble'
p1714
aS'shower studying'
p1715
aS'walking back pool theres huge line cars trying'
p1716
aS'photo laying pool relaxing'
p1717
aS'prayer powerful thing'
p1718
aS'last class gosh yess'
p1719
ag50
aS'thank allowing another blessed'
p1720
aS'brought change clothes interview'
p1721
aS'seeing olivia karessa makes everything better lmao love roommates'
p1722
aS'interview time nervous'
p1723
aS'fact channels makes everything amazing'
p1724
aS'insomnia kicks'
p1725
aS'long extremely productive getting settle'
p1726
aS'emotional today life beautiful smile always helps greatest cure happiness'
p1727
aS'great dance life'
p1728
aS'lmao'
p1729
aS'moon absolutely stunning tonight'
p1730
aS'productive practice'
p1731
aS'last class finally'
p1732
aS'things bothering'
p1733
aS'student center noisey crowded'
p1734
aS'engineer major exhausting freak'
p1735
aS'downloading autocad software class think going love class'
p1736
aS'aspen heights party much monday night'
p1737
ag50
aS'study'
p1738
aS'realize people temporary youll better'
p1739
aS'half classes math based'
p1740
aS'happiness wonder happiness dream edgar allen'
p1741
aS'explain fact still butterflies around'
p1742
aS'chemistry hella stressful love learned makes breaking 1000x interesting'
p1743
aS'blonde hair gosh love americasnexttopmodel'
p1744
asS'2013_33'
p1745
(lp1746
S'things happen aspen heights naked walks behind bell'
p1747
aS'soon passed woke feeling better'
p1748
aS'don\xe2\x80\x99t great faith something great small faith move mountain'
p1749
aS'drunk idiot place'
p1750
aS'told sleep'
p1751
aS'little burn allergic reaction dancing grass ouch'
p1752
aS'wish como innout burger'
p1753
aS'heart live music'
p1754
aS'busy today'
p1755
aS'cousin'
p1756
aS'photo'
p1757
aS'successful first dance practice'
p1758
aS'first practice year official'
p1759
aS'today stats follower unfollower followed person'
p1760
aS'finally reached peek sleepiness'
p1761
aS'photo'
p1762
aS'photo'
p1763
aS'photo'
p1764
aS'snorlax'
p1765
aS'every since back missouri mosquitos attacking'
p1766
aS'jeans comfortable wore'
p1767
aS'theres already choreography hold gone home drake night made goal'
p1768
aS'original'
p1769
aS'brought sand beach cause beach better'
p1770
aS'geeked return dance'
p1771
aS'finishing portfolio photography tonight rehearsing things well first dance rehearsal'
p1772
aS'think much night'
p1773
aS'aquarius openminded'
p1774
aS'love skate boarding night'
p1775
aS'girl yess dude antm badddd\xe2\x80\x9d'
p1776
aS'glad roommates'
p1777
aS'piercing hurts still cant wait able change'
p1778
aS'really good mood'
p1779
aS'keep head'
p1780
aS'photo'
p1781
aS'lisas chinese food sounds soooooooo good'
p1782
aS'referring biggie like saying biggie east coast like 2pac king west coast'
p1783
aS'blackout eclipse curtains wonders'
p1784
aS'samuel jackson'
p1785
aS'never gives don\xe2\x80\x99t give'
p1786
aS'watched gameplay like 10th time literally'
p1787
aS'healthy eating expensive'
p1788
aS'vines ridiculous'
p1789
aS'scientist found isotopes helium answer hehe'
p1790
aS'final fantasy'
p1791
aS'dont engage battles arent worth fighting dont take toward godgiven destiny'
p1792
aS'mommy silly could saved whole cents notebooks freak lmao'
p1793
aS'sweater weather love'
p1794
aS'finally peace quiet'
p1795
aS'neighbors loud whole darn house music'
p1796
aS'boarding episode'
p1797
aS'always forgive enemies nothing annoys much oscar wilde'
p1798
aS'dream found little pink scissors best life miss'
p1799
aS'woke perfect'
p1800
aS'hope blesses successful academic year'
p1801
aS'magnificent'
p1802
aS'comforting feeling better'
p1803
aS'kendrick conscious wale mind drake heart attitude persona cole soul'
p1804
aS'today stats follower unfollower'
p1805
aS'explains'
p1806
aS'whatever pass whatever lies singing evening comes bless lord soul'
p1807
aS'thing releasing healing forgiveness peace victory time'
p1808
aS'neighbourhood coming perform sweater weather saturday teammizzou'
p1809
aS'last home gotta make best'
p1810
aS'extremely tired feel like crap'
p1811
aS'wanted tonight'
p1812
aS'care less wont stressed\xe2\x80\x9d'
p1813
aS'conformity rather stand alone pretend'
p1814
aS'good feeling upcoming school year'
p1815
aS'dark liquor gets emotional white liquor gets angry'
p1816
ag50
aS'going'
p1817
aS'free meal lmao'
p1818
aS'feel asleep awkwardly couch ridiculous'
p1819
aS'everywhere heavens earth makes stars shine cannot seen'
p1820
aS'cassidy murdering control freestyle'
p1821
aS'dont make excuses dont blame past rest life best life'
p1822
aS'spanish language ethnicity ignorant fucks'
p1823
aS'need classes start need structure'
p1824
aS'come visit cody'
p1825
aS'absent minds society'
p1826
aS'today stats followers unfollowers'
p1827
aS'great beautiful outside thank'
p1828
aS'kinda upset everyone still mind state whos lame isnt college yall talking dirt\xe2\x80\xa6'
p1829
aS'tellmehowlongisnow asked even though youre late gonna still'
p1830
aS'like meow meow'
p1831
aS'dance practice saturday'
p1832
ag50
aS'miles till como\xe2\x80\x9d'
p1833
aS'made morning took collars groom winning great start'
p1834
aS'good needs today challenging dreams'
p1835
aS'cali weather love'
p1836
aS'playback aston martin music'
p1837
aS'theres always story behind truth'
p1838
aS'photo another girl story'
p1839
aS'dont want leave'
p1840
aS'gotta surround people mindset'
p1841
aS'want master chord progression head tori kelly'
p1842
aS'tried'
p1843
aS'aquarius doesnt like stubborn people although stubborn'
p1844
aS'able change certain aspects life rise'
p1845
aS'finally audition studio time business ofish dancelife'
p1846
aS'photo asvpamby follow back everyone message'
p1847
aS'photo amazed love blog'
p1848
aS'photo'
p1849
aS'toes needs sunlight'
p1850
aS'cant wait start dancing official'
p1851
aS'vanilla almond cereal silk milk amazing'
p1852
aS'blessed family'
p1853
aS'kendrick lamar selfperspective rapper think ever heard period'
p1854
aS'aint diss track stop'
p1855
aS'dont deny'
p1856
aS'told louis'
p1857
aS'hate waking oily face oily hair shower time'
p1858
aS'didnt would never challenges stay faith youll come better'
p1859
aS'playing guitar since still tired determined'
p1860
aS'want hear good underground dont accept industry throws'
p1861
aS'almost learned song chords time sing along'
p1862
aS'kendrick aint wrong real thats mindset winner body competitive would respect'
p1863
aS'kendricks verse almost read like cyper'
p1864
aS'cant express much love music'
p1865
aS'cant friends dont fold imos pizza'
p1866
aS'kendrick rappers government names clearly know aint playin'
p1867
aS'trying hards'
p1868
aS'relationship gotta really love himher keep fighting fight dont give'
p1869
aS'know around people mood swings never'
p1870
aS'guitar time practice makes perfect'
p1871
aS'facing obstacle dont talk size problem talk size'
p1872
aS'still better love story twilight'
p1873
aS'think going plane ticket beginning next month thinking cost hour ride killing'
p1874
aS'attempted fully straighten hair yesterday epic failure messy'
p1875
aS'hold going home'
p1876
aS'want high loving emotion endlessly cause good know'
p1877
aS'chicago niggas footwork song like wait till beat drop howto jeremihallthetime\xf0\x9f\x98\x82\xf0\x9f\x98\x82'
p1878
aS'would cool know studio practices auditionsi feel like thats much frust\xe2\x80\xa6'
p1879
aS'photo american\xe2\x80\x99s next model'
p1880
aS'dont forget bowling tonight guys dick weber'
p1881
aS'bringing cowgirl boots columbia theres live boone county without judgeme'
p1882
aS'text chance please importante'
p1883
aS'time money really every broke time'
p1884
aS'skool gettin closer kinda excited senioryear college'
p1885
aS'jcole miguel power trip never'
p1886
aS'lmao shared facebook timeline funny'
p1887
aS'today stats followers unfollower'
p1888
ag50
aS'excited classes start twerking looking syllabus lmao'
p1889
aS'need watch video'
p1890
ag50
aS'storms wake bleh'
p1891
aS'love black curtains even rainy days'
p1892
aS'sleepy want able fall asleep like mild case insomnia'
p1893
aS'ready classes'
p1894
aS'morning runs monfri excuses'
p1895
aS'days'
p1896
aS'save breath save tears'
p1897
aS'second whole'
p1898
aS'keep getting another piercing yesterday'
p1899
aS'last time checked'
p1900
aS'hanging basketball court wish play dance start want risk injuries'
p1901
aS'good'
p1902
aS'good still come'
p1903
asS'2013_32'
p1904
(lp1905
g50
aS'great'
p1906
aS'girls call guys thirsty guys call guys starving antm'
p1907
aS'dishonor others selfseeking easily angered keeps record wrongs corinthi\xe2\x80\xa6'
p1908
aS'still look impossible impossible'
p1909
aS'thug life sorry'
p1910
aS'conjuring paranormal activity steroids going heart attack'
p1911
aS'wish could came tonight claiming scared scary movies would'
p1912
aS'excited breaking start back tomorrow'
p1913
aS'unreal'
p1914
aS'francisco'
p1915
aS'trouble people dont understand people'
p1916
aS'stop friends second never listened gone mixtape cudi\xe2\x80\x9d'
p1917
aS'great want move permanently'
p1918
aS'stayed columbia francisco summer'
p1919
aS'never'
p1920
aS'shower hair doesnt stringy looked gross'
p1921
aS'louis'
p1922
aS'gives'
p1923
ag50
aS'movie night'
p1924
aS'baking cake good'
p1925
ag50
aS'photo homemade dumplings'
p1926
aS'photo movie night later tonight'
p1927
aS'hold going home drake original song brilliant'
p1928
aS'natural walks drives relaxing'
p1929
aS'outside looking'
p1930
aS'first performance week lets dance life'
p1931
aS'second hole pierced spontaneously spot'
p1932
aS'editing photographer francisco today months back'
p1933
aS'moment ever mixtape download except'
p1934
aS'thats crazy'
p1935
aS'morgan soooo uncle bought year cousin iphone'
p1936
aS'\xc2\xa1est\xc3\xbapido \xc2\xa1est\xc3\xbapido \xc2\xa1est\xc3\xbapido'
p1937
aS'great feel'
p1938
ag50
aS'like someone youre sure like back'
p1939
aS'mannn longest gone without dancing official practices start alreadyyy'
p1940
aS'plums juicy good life'
p1941
aS'great'
p1942
aS'today stats followers unfollower'
p1943
aS'november thanksgiving'
p1944
aS'moment dance video pops youtube'
p1945
aS'youve game guess well'
p1946
aS'think'
p1947
aS'rompe cintura'
p1948
aS'hooping mood left basketball louis though bummer'
p1949
aS'missing hookah xxyyxx time livia needs stop working nights'
p1950
aS'mateo amoroso'
p1951
aS'slightly things room organized'
p1952
aS'necesito dormir cansado'
p1953
aS'last night towards como random downtown freestyle dope'
p1954
aS'insomnia'
p1955
ag50
aS'cant sleep'
p1956
aS'really needs sleep keep driving rises'
p1957
ag50
aS'miguel cracking spanglish'
p1958
aS'guys whole level'
p1959
aS'video salsa'
p1960
aS'king bach'
p1961
aS'still come'
p1962
aS'come salsa'
p1963
aS'awesome congrats brother'
p1964
aS'salsa night'
p1965
aS'east high'
p1966
aS'cant wait official season starts though cause lord knows missed dancing'
p1967
aS'photo thefantasticfoursomeareawesome theblackship ihaveaspergers buttinspectorkirby egbertdork'
p1968
aS'came thats amazing'
p1969
aS'little week classes start pretty happy miss school much accomplish summer break helping'
p1970
aS'terio famous'
p1971
aS'love listening underground music mainstream'
p1972
aS'headphones darkness night'
p1973
aS'square reader came mail today'
p1974
aS'thing really miss able watch sunset beach brought informal peace heart'
p1975
aS'sometimes gets impossible sleep without music soothing soul'
p1976
aS'place feels empty everyone left'
p1977
aS'moment want cook whole entire meal middle night'
p1978
aS'glad ladies today'
p1979
aS'response'
p1980
aS'omegle'
p1981
ag50
aS'dont people bother friends critics faultfinders find friends'
p1982
aS'endless laughs tessa keisha reunited'
p1983
aS'life arrive safely death'
p1984
aS'khleo thomas'
p1985
aS'mind'
p1986
aS'first world vines first world problems'
p1987
aS'pedal pedal'
p1988
aS'actually good kids dont want'
p1989
aS'video french toast hookah'
p1990
aS'egos'
p1991
aS'bras needed everyday theyre natural'
p1992
aS'woke best mood inspired thoughts'
p1993
aS'someone said chunk must louis'
p1994
aS'cant wait finish getting connected dying tryout apple'
p1995
aS'hampms prices make happy'
p1996
aS'told'
p1997
aS'xxyyxx mixtape fuck'
p1998
aS'negative mind never give positive life'
p1999
aS'today stats follower unfollower'
p2000
ag50
aS'really enjoyed last night'
p2001
aS'surface construction'
p2002
aS'young love eventually come enjoy life learn love thats true happiness begins'
p2003
aS'everyone always complain love never understand'
p2004
aS'even castles made sand fall eventually jimi hendrix'
p2005
aS'sorry butt tweeted'
p2006
aS'sitting chair hours'
p2007
ag50
aS'body sore'
p2008
aS'yesss hair color love'
p2009
aS'finally team iphone winning'
p2010
aS'monsters real ghost real leave inside sometimes stephen king'
p2011
aS'love miley cyrus'
p2012
aS'great cook dinner thinking kind pasta'
p2013
ag50
aS'back como next week'
p2014
aS'hey\xf0\x9f\x90\xab\xf0\x9f\x90\xab\xf0\x9f\x90\xab\xf0\x9f\x90\xab\xf0\x9f\x90\xab\xf0\x9f\x90\xab\xf0\x9f\x90\xab\xf0\x9f\x90\xab\xf0\x9f\x90\xab\xf0\x9f\x90\xab\xf0\x9f\x90\xab\xf0\x9f\x90\xab\xf0\x9f\x90\xab\xf0\x9f\x90\xab\xf0\x9f\x90\xab\xf0\x9f\x90\xab\xf0\x9f\x90\xab\xf0\x9f\x90\xab\xf0\x9f\x90\xabguess\xf0\x9f\x90\xab\xf0\x9f\x90\xab\xf0\x9f\x90\xab\xf0\x9f\x90\xab\xf0\x9f\x90\xab\xf0\x9f\x90\xab\xf0\x9f\x90\xabwhat\xf0\x9f\x90\xab\xf0\x9f\x90\xab\xf0\x9f\x90\xab\xf0\x9f\x90\xab\xf0\x9f\x90\xab\xf0\x9f\x90\xab\xf0\x9f\x90\xab\xf0\x9f\x90\xab\xf0\x9f\x90\xab\xf0\x9f\x90\xab\xf0\x9f\x90\xab\xf0\x9f\x90\xab\xf0\x9f\x90\xab\xf0\x9f\x90\xab\xf0\x9f\x90\xab\xf0\x9f\x90\xab\xf0\x9f\x90\xab\xf0\x9f\x90\xab\xf0\x9f\x90\xab\xf0\x9f\x90\xab\xf0\x9f\x90\xabday\xf0\x9f\x90\xab\xf0\x9f\x90\xab\xf0\x9f\x90\xab\xf0\x9f\x90\xab\xf0\x9f\x90\xab\xf0\x9f\x90\xab\xf0\x9f\x90\xab\xf0\x9f\x90\xab\xf0\x9f\x90\xabit\xf0\x9f\x90\xab\xf0\x9f\x90\xab\xf0\x9f\x90\xab\xf0\x9f\x90\xab\xf0\x9f\x90\xab\xf0\x9f\x90\xab\xf0\x9f\x90\xabis\xf0\x9f\x90\xab\xf0\x9f\x90\xab\xf0\x9f\x90\xab\xf0\x9f\x90\xab\xf0\x9f\x90\xab\xf0\x9f\x90\xab\xf0\x9f\x90\xab\xf0\x9f\x90\xab\xf0\x9f\x90\xabhumpdayyyyyy\xe2\x80\xa6'
p2015
aS'faithfully worked bangs fall winter every year keeps warm'
p2016
aS'photo call0fduty'
p2017
aS'shuttle morning thursdaysaturday'
p2018
aS'photo classic'
p2019
aS'photo icavein makes happy'
p2020
aS'first thing turn wake sports center'
p2021
aS'today stats follower unfollowers'
p2022
aS'photo'
p2023
aS'photo screams follow back saddest shit ever'
p2024
aS'photo'
p2025
aS'photo'
p2026
aS'photo'
p2027
aS'photo screams follow back'
p2028
aS'photo screams follow back'
p2029
aS'stronger depression braver loneliness'
p2030
aS'around crush suddenly develop speech impediment drop things'
p2031
aS'video hausofdirectioners think fave vine ever'
p2032
aS'tori kelly night forreal'
p2033
aS'really wanted penny board ebay someone'
p2034
aS'photo'
p2035
aS'lemon serbert sounds good right would walk downstairs'
p2036
aS'first night first place hell'
p2037
aS'photo'
p2038
aS'photo screams follow back'
p2039
aS'photo charmainesanpedro green annex'
p2040
aS'photo applicate follow back'
p2041
aS'photo sassafranski pacific beach'
p2042
aS'photo'
p2043
aS'photo screams follow back'
p2044
aS'photo'
p2045
aS'photo screams follow back'
p2046
aS'organization really important definitely need'
p2047
aS'nothing completes like solid workout'
p2048
aS'oooo kill'
p2049
aS'people smoke cigarettes\xe2\x80\xa6'
p2050
aS'photo love starting good breakfast'
p2051
aS'happy anaya project runway beautiful designer'
p2052
ag50
aS'photo'
p2053
aS'photo ratakmonodosico panama canal kiss oceans'
p2054
aS'geek week math challenge begins'
p2055
aS'tell gotta blake shelton'
p2056
aS'photo'
p2057
aS'today stats followers unfollowers followed person'
p2058
aS'cant wait bonfires football games oversized sweatshirts'
p2059
aS'enjoyed staying como summer ready classes start though'
p2060
aS'love mood everything hilarious'
p2061
aS'dont wear make actually tried love natural beauty need enhancers'
p2062
aS'project runway another addiction'
p2063
aS'seem forgotten school part college worried want room look like'
p2064
aS'greeklife overrated'
p2065
aS'lmao good question'
p2066
asS'2013_31'
p2067
(lp2068
S'miley cyrus gtgtgtgtgtgt'
p2069
aS'oranges named oranges oranges orange orange called orange oranges orange'
p2070
aS'high right'
p2071
aS'dont seek blessing seek blessing seek'
p2072
aS'today stats follower unfollowers'
p2073
aS'antm'
p2074
aS'beyond hard give people address aspen heights satellite'
p2075
aS'behind aquarius smile story would never understand'
p2076
aS'called uneducated goose penis lmao'
p2077
aS'photo found grade ears'
p2078
aS'photo thetickledpickle whoishannahh destielsrainbowdick nocturnalvisionary novakian would'
p2079
aS'feel like keep going towards cream going gone hour help'
p2080
aS'lying'
p2081
aS'matrix movies damn dope watching first time'
p2082
aS'time pregame'
p2083
aS'como kickback crib tonight brookside 10th street building'
p2084
aS'netflix movies feeling like going forever'
p2085
aS'photo side part aways'
p2086
aS'officially apartment manhattan'
p2087
aS'episodes breaking netflix'
p2088
aS'want sushi zone another reason missing fran freshest sushi ever'
p2089
aS'cake chunks velvet cream beyond perfect'
p2090
aS'dont niggas still smoking weed everyday shit aint'
p2091
aS'offended make right'
p2092
aS'tina bobs burger hilarious'
p2093
aS'lmao wait bill nickname william slow'
p2094
aS'well excuse mexico makes since halfbut bill'
p2095
aS'that\xe2\x80\x99s fuckn name call call mexico mexico call'
p2096
aS'oops going kill said going'
p2097
aS'mexico call bill lmao'
p2098
aS'dont happiness depend something lose'
p2099
aS'cool cool'
p2100
ag50
aS'coming today'
p2101
ag50
aS'swear heard something attic last night'
p2102
aS'trying place considering nights'
p2103
aS'sure cover thinking love tori kelly ariana grande'
p2104
aS'photo caratsforeveryonetosee 4gifs bear steals entire dumpster video'
p2105
aS'satisfied smile cant wiped anyone'
p2106
aS'keep heart purity walk'
p2107
aS'velvet cream delicious'
p2108
aS'relaxing apartment laying freshly purchased mattress enjoying conditioning beyond wonderful'
p2109
aS'forgive people hurt back double double victory'
p2110
aS'brother'
p2111
aS'sigma gamma'
p2112
aS'would great'
p2113
ag50
aS'photo tessa\xe2\x80\x99s love'
p2114
aS'photo chocolate chip muffin ginger peach work'
p2115
aS'need tori kelly feeling relaxed'
p2116
aS'dear love song tori kelly'
p2117
aS'feeling emotions deeper ever dreamed higher heavens'
p2118
aS'feel like friday'
p2119
aS'never argue rolls'
p2120
aS'photo smoothie time follow tumblr'
p2121
aS'photo black light perf'
p2122
aS'photo start wall room vinyl music guitar'
p2123
aS'remember regardless want things things always exactly'
p2124
aS'itchys best adventure ever definitely coming back'
p2125
aS'nothing truer nicely cleaned apartment'
p2126
ag50
aS'official moved place beyond impressed love exhausted'
p2127
aS'photo free pizza move'
p2128
aS'would wear'
p2129
aS'misty'
p2130
aS'still even finished slme'
p2131
aS'better believe excited find money doesnt matter penny twenty bucks happy'
p2132
aS'aspen heights'
p2133
aS'aspen heights'
p2134
aS'official moved campus lodge'
p2135
aS'photo that\xe2\x80\x99s everyday'
p2136
aS'almost finished tired'
p2137
aS'blessed friends seriously'
p2138
ag50
aS'noon'
p2139
aS'people getting assumptions'
p2140
aS'full house packing complaining favorite show'
p2141
aS'still packing torture'
p2142
aS'develop'
p2143
aS'show vineyard reminds laguna beach hills'
p2144
aS'psychologists says people hide feelings ones care'
p2145
aS'feeling family friends like family amazing matter never alone love much'
p2146
aS'dont leavvveeeee lmao goodnight'
p2147
aS'lmao good night'
p2148
ag50
aS'buenas noches mwah'
p2149
aS'time alexis fido cant enough rompe cintura'
p2150
aS'mateo nights beautiful ready break already miss'
p2151
aS'miss home home feel like like miss going beach everyday relaxation'
p2152
aS'cant want maybe theres something need change learn youre always right'
p2153
aS'women definitely like money exception knowing successful stably supporting enough'
p2154
aS'would give beach right'
p2155
aS'gary rojas thick jersey accent'
p2156
aS'finish officially packing wednesday going long excited moving'
p2157
ag50
aS'haha tell lets'
p2158
aS'going bubblehead bucket list'
p2159
aS'heres love'
p2160
aS'guys feelings girls nowadays nothing headache'
p2161
aS'photo hehe'
p2162
aS'photo tess'
p2163
aS'going town week'
p2164
ag50
aS'want bruh look damn nostalgia'
p2165
ag50
aS'miss francisco ready back classes soon'
p2166
aS'years nasa created'
p2167
aS'dont circumstances happiness rest life'
p2168
aS'george lopez'
p2169
aS'endless retweets'
p2170
aS'earl sweatshirt'
p2171
aS'totally drunk'
p2172
asS'2013_30'
p2173
(lp2174
S'days move place'
p2175
aS'shoes'
p2176
aS'managed locked apartment lmao'
p2177
aS'today stats follower unfollower followed person'
p2178
aS'fuck dont even know rocko voice'
p2179
aS'slave madres luso'
p2180
aS'raplike relevance irrelevant relative indefinite narrative specimen manifesting malevolence every\xe2\x80\xa6'
p2181
aS'raplike devilish degenerate pessimist venomous penmanship pegasus wrestlin oedipus till skelet\xe2\x80\xa6'
p2182
aS'fact card humm good night'
p2183
aS'need prayers everything goes right august'
p2184
aS'photo know geez cute something guys long hair'
p2185
aS'live lodge well'
p2186
aS'photo grilled whole impressed great deuce'
p2187
aS'right next album going platinum'
p2188
aS'mind blown'
p2189
aS'classy'
p2190
aS'duce free comeby'
p2191
aS'right drake going salty'
p2192
aS'dont settle youre anybody says equipped empowered well able'
p2193
aS'haha'
p2194
aS'watched khaled proposal video lmao'
p2195
aS'trying threaten right'
p2196
aS'feeling nice little movie night snacks relaxed'
p2197
aS'worst'
p2198
aS'feels like autumn outside'
p2199
aS'photoset radicalpleasures coolest shit love'
p2200
aS'life chances took chance last night happy'
p2201
aS'photo'
p2202
aS'packing apartment like find treasures'
p2203
aS'really'
p2204
aS'wellington boyce songs music trend hilarious baha'
p2205
aS'need york right'
p2206
aS'today stats follower unfollowers'
p2207
aS'photo rejective following back everyone find tumblr girlfriend lonely'
p2208
aS'photo artsy drunk pictures'
p2209
aS'photo repost kenzie'
p2210
aS'interracial couples cute'
p2211
ag50
aS'photo made shorts'
p2212
aS'goat thugs'
p2213
aS'vine freaking entertaining'
p2214
aS'girl gtgtgtgt'
p2215
aS'passion thing cant hard find'
p2216
aS'already years feels like yesterday class freshman year ripcole'
p2217
aS'every stay peace closer seeing situation turn around'
p2218
aS'days move done packing'
p2219
aS'gosh'
p2220
aS'love'
p2221
aS'rainy days love room'
p2222
aS'grove still'
p2223
aS'friend roommate named wolfgang cool'
p2224
aS'rednose missing fran'
p2225
aS'hard faithful'
p2226
aS'freaking awesome'
p2227
aS'memoirs geisha bros movieofthenight chilltime dancefam'
p2228
aS'dumb question master drinking'
p2229
aS'believe regardless circumstances provide\xe2\x80\x94even takes miracle'
p2230
aS'felt good talk today'
p2231
aS'keeps eating shit damn freeze cinnamon rolls cant even someone going annoyed'
p2232
aS'someone cinnamon rolls grrrr'
p2233
aS'kitchen always gross thats stop cooking forreal wait extremely hunger literally'
p2234
aS'photo detention follow back'
p2235
aS'photo'
p2236
aS'today stats followers unfollowers'
p2237
aS'snaps'
p2238
aS'need syllabus began type studying need school back'
p2239
aS'fact sean brother described jess girl today know weird'
p2240
aS'love show'
p2241
aS'changing major biological engineering'
p2242
aS'hate forget'
p2243
aS'sooo hungry hunting everyday'
p2244
aS'today stats followers unfollower'
p2245
aS'rise shine rise grind'
p2246
aS'learn embrace freeing live'
p2247
aS'video never going accomplish trick'
p2248
aS'longer hair thicker thicker gets longer takes struggle'
p2249
aS'people wear makeup everyday much time sometimes dont even feel like putting clothes'
p2250
aS'cook something eaten'
p2251
aS'mean lmao meant like crushes'
p2252
aS'summer flings really exists'
p2253
aS'college years zooming'
p2254
aS'like many female singers ariana grande amazing voice'
p2255
aS'youtube mizzou official dance crew sure believe sometime know'
p2256
aS'believe meghan schafer audition dance team want check want audition'
p2257
aS'yayyy excited okay move apartment next week sleepovers'
p2258
aS'okay move apartment next week sleepovers'
p2259
aS'back stayed summer'
p2260
aS'literally make friends everyone instead looking friends particular group diversity though'
p2261
aS'thats didnt join reason diverse dance team segregation annoying'
p2262
aS'video gabbyroars lohanthony lindaellerbee youngdisposition tommygunzzhouse killtheprizefighter ruem'
p2263
aS'love late night showers'
p2264
aS'photoset animeomnoms ouran hshc episode'
p2265
aS'photo close call'
p2266
aS'gosh kenneth never went date'
p2267
aS'people find people vine famous'
p2268
aS'omegle freaking hilarious lmao'
p2269
aS'salsa friday night'
p2270
aS'17year tupac talking education 1988'
p2271
aS'photo danadeee swaggtillweodxo follow back'
p2272
aS'photoset nicolehoranmaybe venividiigothammered love lives'
p2273
aS'habit wanting people'
p2274
aS'things created proud prized possession'
p2275
aS'video night boarding'
p2276
aS'photo'
p2277
aS'dont think anyone really knows purpose existence'
p2278
aS'today stats followers unfollowers'
p2279
aS'baby hippo separated family tsunami year tortoise became best friend'
p2280
aS'born hawaii known captive golden zebra existence'
p2281
aS'freak moped accident'
p2282
aS'whats going'
p2283
aS'officially cancer free'
p2284
aS'ahhhh proposal flash video finally done official dancing marriage proposal founders price\xe2\x80\xa6'
p2285
aS'cant stop watching best performance ever proposal done'
p2286
aS'verge tears watching videolike dancing together never meant much truly family'
p2287
aS'make cookies'
p2288
aS'feeling twirly'
p2289
asS'2013_19'
p2290
(lp2291
S'photo can\xe2\x80\x99t stop listening gravity love song'
p2292
aS'little creepy weird similarities president abraham lincoln'
p2293
aS'couple wedding rings engraved waveform voices saying'
p2294
aS'code girl code cleaning room'
p2295
aS'wish mcdonalds delivered'
p2296
aS'please society turn person'
p2297
aS'photo joaquinhighroller fuck'
p2298
aS'danethe perfect host'
p2299
aS'patience gives power practice practice gives power leads perfection'
p2300
aS'stuck danes sleep like babys wake'
p2301
aS'never enough japanese anime korean shows'
p2302
aS'need protection girl handle trust'
p2303
aS'today stats followers'
p2304
aS'wanting write music morning thoughts cannot stop roaming head'
p2305
aS'message different people less hour'
p2306
aS'watch watch lengua mariposas'
p2307
aS'practice today want sleep'
p2308
aS'girl code awesome'
p2309
aS'thank another prayup'
p2310
aS'power love overcomes love power world know peace'
p2311
aS'night night'
p2312
aS'parker tonight best game playoffs'
p2313
aS'found perfect place study amazing coffee today perfect'
p2314
aS'like youre mirror mirror staring back'
p2315
aS'downtown always difficult'
p2316
aS'photo bonfire'
p2317
aS'photo hipster bonfire'
p2318
aS'photo boom kevin'
p2319
aS'last performance year crew theyve really work year improved much\xe2\x80\xa6'
p2320
aS'photo'
p2321
aS'would rather suffer coffee senseless napoleon bonaparte'
p2322
aS'free good shack'
p2323
aS'performance stop'
p2324
aS'need asap search hard'
p2325
aS'photo taken gifboom'
p2326
aS'gifboom'
p2327
aS'mans child died last drawing tattooed'
p2328
aS'rare cloud formation called mammatus regina saskatchewan'
p2329
aS'photoset weaponxvx right mind would fuck'
p2330
aS'keyboards library load sssh'
p2331
aS'every single runnin round town givin forever away wont forever roam harper'
p2332
aS'forever always seem around begins forever never seems around ends harper'
p2333
aS'times best aint good enough'
p2334
aS'dont thoughts negatively affect'
p2335
aS'practicing last nights choreoim tears thisisdance'
p2336
aS'regret something wanted'
p2337
aS'felt good contemporary piece last night walking bruises meant everyone every bite emotion great practice'
p2338
aS'great practice tonight love much emotional dancing best'
p2339
aS'bunch dancers contemporaryjust needed ofishlove\xe2\x80\x9d'
p2340
aS'surrounded much positive worry negative stay humble blessed great people never unnoticed'
p2341
aS'today stats follower'
p2342
aS'easy mean meant'
p2343
aS'racism discovered blacks racist honestly instead trying impress people become cultured'
p2344
aS'care image reconsider life style stay humble'
p2345
aS'easy think future lies front unpredictable think something thats control'
p2346
aS'bird flew window getting chased hawk hawk posed pictures lmao'
p2347
aS'photo'
p2348
aS'photo naturallybrunette understanding unreal feeling'
p2349
aS'trust someone something valuable heart'
p2350
aS'perfect aren\xe2\x80\x99t either never perfect make'
p2351
aS'tweet time happiness choice always remain priority'
p2352
aS'allergies death'
p2353
aS'cannot wait great gatsby soexcited'
p2354
aS'enrolled summer classes back homeeager back track'
p2355
aS'america longer defined production consumption'
p2356
aS'interesting topic relations cathedrals religion cathedrals consumption'
p2357
aS'literally feels like diego morning near beach love'
p2358
aS'good morning lovelies'
p2359
aS'work done headed home'
p2360
aS'photo studying ellis want sleep'
p2361
aS'finishing last assignments need stay focus weeks'
p2362
aS'last night relaxing biggest smile face spent best'
p2363
aS'today stats unfollower'
p2364
aS'sooooo hungry needs hurry lunch'
p2365
asS'2013_18'
p2366
(lp2367
S'uoeno yourebeingjudged'
p2368
aS'random acts makes smile greatly appreciated'
p2369
aS'life humbling experience'
p2370
aS'minor back major comeback'
p2371
ag50
aS'today stats follower unfollower'
p2372
aS'shout great performance'
p2373
aS'thats wrap showcase 2013 success'
p2374
aS'theyre bollywood raggy missyousomuch'
p2375
aS'watching hula makes miss much uhmcan together sometime butreally'
p2376
aS'choreography'
p2377
aS'official killed performancejust saying'
p2378
aS'photo performance ready repost'
p2379
aS'hardest thing ever saying good brother leaving francisco dancing today love brother'
p2380
aS'whoever last night never'
p2381
aS'showcase tonight louis perform come check doors open admission'
p2382
aS'shit crazy last night'
p2383
aS'brother leaving francisco tonight proud microsoft engagement never happier'
p2384
aS'today stats unfollower'
p2385
aS'photo literally finish cutting washing short tonight\xe2\x80\x99s performance love'
p2386
aS'finally finish cutting shorts right time'
p2387
aS'easy aquarius impressed attracted'
p2388
aS'problem closets almost vintage hard pick'
p2389
aS'home need pack shorts tomorrow'
p2390
aS'230am sleep definitely around typicalweekend'
p2391
aS'downtown parking sucks'
p2392
aS'chinese sounds good'
p2393
aS'hate people cant simple things computer'
p2394
ag50
aS'today stats follower unfollowers'
p2395
aS'every corner louis walgreens mcdonalds chinese place true'
p2396
aS'homemade popcorn much better'
p2397
aS'chillin waco pops fam\xe2\x80\xa6man wuld suck great vacation wasn\xe2\x80\x99t abuela'
p2398
aS'move night awesome people forestvillage'
p2399
aS'came like whats going haha'
p2400
aS'quickly learning mistakes sucky part freshman year like trail error know expect'
p2401
aS'photo favorite color pink'
p2402
aS'photo bailey small'
p2403
aS'photo fall 2010'
p2404
aS'photo'
p2405
aS'photo quorious comic girls york jazz'
p2406
aS'stepping class'
p2407
aS'stepping class'
p2408
aS'photo picture time life smile meant smile glad'
p2409
aS'much work done tonight still really exhausted'
p2410
aS'bless broken road rascal flatts beautiful song love'
p2411
aS'like puppy pics haha'
p2412
aS'photo'
p2413
aS'photo headphone plug owls'
p2414
aS'made hipsterista'
p2415
aS'photo five guys'
p2416
aS'five guys'
p2417
aS'cole mess around greatest rapper ever'
p2418
aS'today stats followers unfollower'
p2419
aS'asthma attack'
p2420
aS'really hate hospital hate terrible ending night whats best'
p2421
aS'still didnt wake peanut butter face'
p2422
aS'photo best faves'
p2423
aS'house duties pleasing bootie lmao olivia'
p2424
aS'head library pick medicine need work done practice'
p2425
aS'gosh kate emma cookies freak yummy'
p2426
aS'whos pool open como'
p2427
aS'today stats follower'
p2428
ag50
aS'hostile'
p2429
aS'youre crazy lonely loneliness hell drug'
p2430
aS'still could figure assignment sociology seriously kind case show example fallacy'
p2431
aS'last night great today productive accomplished school work'
p2432
aS'photo'
p2433
aS'chicago slang means goes basically'
p2434
aS'estoy finalmente terminar espa\xc3\xb1ol clase\xf0\x9f\x98\x8a'
p2435
aS'question want know call'
p2436
aS'wait long enough come patience truly virtue'
p2437
aS'rest pussy wayne'
p2438
ag50
aS'final examen espa\xc3\xb1ol nerviosa'
p2439
aS'awkward moment hear somebody telling story expecting people laugh nobody laughs except'
p2440
aS'nighter doesnt make feel like pass'
p2441
aS'mind hopsin hopsin truth'
p2442
aS'thats funny'
p2443
aS'cups coffee pulled safe nighter'
p2444
aS'picture saying'
p2445
aS'didnt even sleep lmao'
p2446
aS'wish didnt wear uniform otherwise sweats everyday catholicschoolprobs'
p2447
aS'estoy cansada nerviosa para final examen espa\xc3\xb1ol'
p2448
aS'studying'
p2449
aS'least dont final tomorrow though'
p2450
aS'nighter joke'
p2451
aS'least'
p2452
aS'dont worry definitely bout life'
p2453
aS'cody stop playing'
p2454
aS'okay cool ready said gateway grove'
p2455
aS'well keep updated know'
p2456
aS'clue weekend'
p2457
aS'dance crew glitch called'
p2458
aS'plan tickets went still cheaper last year'
p2459
aS'glad ofish weekend thing wish could guys'
p2460
aS'pretty much done cooking hungry'
p2461
asS'2013_39'
p2462
(lp2463
S'well good morning'
p2464
aS'someone late night obsession selena gomez'
p2465
aS'looks like case insomnia'
p2466
ag50
aS'cant sleep still feel horrible havent years sigh'
p2467
aS'really enjoyed lifetime movies today especially turn events'
p2468
aS'today stats followers unfollowers'
p2469
aS'meds wearing night going rough everyone might leaving sigh'
p2470
aS'photo diamondsanddelrey lana marina diamonds blog'
p2471
aS'green honey honey lemon halls cough drop perfect cure getting headache'
p2472
aS'photo marley'
p2473
aS'glad follow appointment moved tomorrow still trying understand developed blood pressure'
p2474
aS'budget meeting today process moving'
p2475
aS'hate columbia medical system feel sorry everyone deal seriously'
p2476
aS'photoset sexidarkchocolate nice imagine impossible goes human nature'
p2477
aS'photo'
p2478
aS'thanks really appreciate'
p2479
aS'youre welcome come chill ever need break stay healthy safe love'
p2480
aS'unfortunate events still feel like horrible rest days'
p2481
aS'know time falling love things rational'
p2482
aS'couple barely engaged together months engaged'
p2483
aS'crazy effortniggas idgaf niggas behave'
p2484
aS'photoset thefrogman finds tiny kitten risks everything save animal control officers'
p2485
aS'today stats follower unfollowers followed person'
p2486
aS'great time teaching great'
p2487
aS'happy 21st birthday cousin melissa love muchos girl'
p2488
aS'analogy comparing pass baton strength malcolm amazing'
p2489
aS'words powerful'
p2490
aS'words fail music speaks'
p2491
aS'today stats followers unfollower'
p2492
aS'problem people always express want rather offer'
p2493
aS'finished teaching tuesday'
p2494
asS'2013_38'
p2495
(lp2496
S'life full setbacks adversities build character dont cause bitterness'
p2497
aS'always afraid losing people love sometimes wonder anyone afraid lose'
p2498
aS'khalifia remember video thinking'
p2499
aS'literally watch every weekend video messages'
p2500
aS'today stats follower unfollowers followed person'
p2501
aS'quiero'
p2502
aS'best gives'
p2503
aS'photo love beauty taste creation beauty ralph waldo emerson'
p2504
aS'photo haven\xe2\x80\x99t uploaded'
p2505
aS'well studying test make nervous'
p2506
aS'pleasure studying love school'
p2507
aS'home homework sounds pleasing'
p2508
aS'minute maid isnt anymore know crushed'
p2509
aS'today stats followers unfollower'
p2510
aS'alligator cute animal lover'
p2511
aS'aquarius overanalyze every commitment therefore commit theyre'
p2512
aS'plans work still throne dare'
p2513
aS'freaking weekend baby sike sleep'
p2514
aS'chem professor gave excited news today lecture'
p2515
aS'sweats darn comfortable'
p2516
aS'happy certain people life feeling little better'
p2517
aS'sure feel ios7 update whole loving itunesradio'
p2518
aS'today stats follower unfollowers'
p2519
aS'lmao driver flavor flav straight blasting shades'
p2520
aS'know make lose control looking eyes feel baby'
p2521
aS'collaborating roomie time ever guitar skills work'
p2522
aS'hard sleep music sometimes'
p2523
aS'good night good night parting sweet sorrow shall good night till morrow william shakespeare'
p2524
aS'people internal love'
p2525
aS'right ios7 ios7 ios7 gta5 ios7 ios7 ios7 ios7 drake ios7 ios7 ios7 ios7 talkin bout pumpkin'
p2526
aS'literally hate group work'
p2527
aS'pissed official didnt'
p2528
aS'jhen\xc3\xa9 aiko'
p2529
aS'today stats followers unfollower'
p2530
aS'never satisfied love alive intoxicated flying high feels like dream'
p2531
aS'super excited prelude midwest everyone prelude carolinas'
p2532
aS'yall gtav thought gta5 came like deluxe version something\xe2\x80\x9d'
p2533
aS'today stats follower unfollowers'
p2534
aS'hispanic heritage month'
p2535
aS'today stats followers unfollowers'
p2536
asS'2013_13'
p2537
(lp2538
S'photo barbeque nofilter'
p2539
aS'gotta stay extra focused week'
p2540
aS'leaked pages feature enjoy'
p2541
aS'dissappear take annotative'
p2542
aS'shopping walmate late night peaceful'
p2543
aS'every dies every really lives'
p2544
aS'funny night friends'
p2545
aS'understanding things might return accepting change'
p2546
aS'lose interest ignored'
p2547
aS'hostility'
p2548
aS'funny moment says secs lata uhhh throws hands freakin epic'
p2549
aS'want someone stay matter hard'
p2550
aS'hookah south park chilled'
p2551
aS'sinner whos probably gonna lord forgive lord forgive things dont understand sometimes need alone'
p2552
aS'photoset accordingtodevin tumblr last days possibly everywhere else internet haha'
p2553
aS'know strange brains gone really insane chain sipping fifth golden grain'
p2554
aS'pass make better bitter'
p2555
aS'hookah time'
p2556
aS'life isnt perfect thankful everything'
p2557
aS'cant beach missouri'
p2558
aS'ethier'
p2559
ag50
aS'lifetime pleasing today love watching good movies'
p2560
aS'last time hospital nigga surgery'
p2561
aS'hanging brother funniest nerdiness definitely sync'
p2562
aS'hearts stero turn feel'
p2563
aS'hair support cancer research fuckcancer'
p2564
aS'wanna back umkc tomorrow'
p2565
aS'middle school high school kids take swag shit serious especially stlouis'
p2566
aS'realizing want right front problem chosing right path leads'
p2567
aS'jhene aiko gtgt'
p2568
ag50
aS'days'
p2569
aS'barack obama used years makes perfect sense'
p2570
aS'illuminati letters lebron james number times thats away lebron'
p2571
aS'good thing goes world world'
p2572
aS'remember bait wale song blasting'
p2573
aS'continue smile'
p2574
aS'photo epic'
p2575
aS'cannot save people love'
p2576
aS'well welcome passive agrresive'
p2577
aS'keep growing keep believing keep dreaming dont good enough good enough'
p2578
aS'manages hair better dont know hair remains curly without freezy'
p2579
aS'too7'
p2580
aS'refuse acknowledge fact leave house half stuff isnt packed still laying'
p2581
aS'\xc2\xa1hola tyler'
p2582
aS'today stats followers unfollowers'
p2583
aS'peoples race gender sexual orientation financial status affect perception stereotypes'
p2584
aS'goodnight'
p2585
aS'scared'
p2586
aS'back columbia tomorrow'
p2587
aS'como tomorrow'
p2588
aS'photo bvsedjesus flyingblades cocainacowboy fucking done lmfao shit'
p2589
aS'workouts kicking jullian michaels play'
p2590
aS'photo really missed larry'
p2591
aS'working brother today'
p2592
aS'photo made shorts pair jeans still finishing touches complete look'
p2593
aS'right maury need truth'
p2594
aS'probably real gave regular life'
p2595
aS'west story muny summer lovesummertheater'
p2596
asS'2013_15'
p2597
(lp2598
S'getting plane tickets weeks looks like huge change good'
p2599
aS'trying best best excuses livinglife'
p2600
aS'ayeee waiting'
p2601
aS'test tomorrow study study study'
p2602
aS'windy'
p2603
aS'time people always trying cheer others unhappy'
p2604
aS'every little thing alright bobmarley'
p2605
aS'feel like could sleep days'
p2606
aS'left thai'
p2607
ag50
aS'wondering going hang make tacos'
p2608
aS'good morning'
p2609
aS'today stats follower unfollowers'
p2610
aS'wonderful full dance love dance'
p2611
aS'sore last night sleep dance'
p2612
aS'photo thai loop'
p2613
ag50
aS'real head'
p2614
aS'monsta'
p2615
aS'rich wayne 2chainz back como'
p2616
aS'sexual'
p2617
aS'nico'
p2618
aS'either considering hours sleep nohangovershawty\xe2\x80\x9d'
p2619
aS'thank'
p2620
aS'safe trip'
p2621
aS'listening tori kellys covers louis'
p2622
aS'painful starts lead happy endings'
p2623
aS'nothing smells worse protein shake bottle'
p2624
aS'bound ofish hiphop showcase'
p2625
aS'good luck ofish performance today screaming spirit'
p2626
aS'going come performance'
p2627
aS'head crew come support wash officialdancecrew showcase'
p2628
aS'words last night'
p2629
aS'drunk hsghsga'
p2630
aS'want food'
p2631
aS'soooo turnt'
p2632
aS'leaving downtown'
p2633
aS'like pretty decent'
p2634
aS'life like roller coaster'
p2635
aS'flat branch brewing olivia'
p2636
aS'asked wanted francisco bittersweatmoment'
p2637
aS'took heaven falling asleep ellis earlier haha'
p2638
aS'tying sweatshirt around waist adapt changing temperatures 90sgirlsolutions'
p2639
aS'pretty good week'
p2640
aS'lmao'
p2641
aS'dont blame anyone else failures except person standing looking back mirror'
p2642
aS'walked room went time clean'
p2643
aS'hopefully something cool happens tonight'
p2644
aS'goin joey bada show blue note sunday chuuuch'
p2645
aS'louis familyfriends come support dance crew wash showcase tomorrow 91313 official'
p2646
aS'home'
p2647
aS'feeling like katie holmes climbing window find unwanted truth eventually becomes'
p2648
aS'guess uncomfortable form jealousy'
p2649
aS'remembering girl never left memories'
p2650
aS'witit danny brown'
p2651
aS'brother leaves hawaii today moving francisco happy'
p2652
aS'today stats followers unfollower'
p2653
aS'best move made'
p2654
aS'haha please share british accent'
p2655
aS'want laugh'
p2656
aS'made probably dont even know'
p2657
aS'person last months unexpectedly seriously appreciate extremely good friend'
p2658
aS'people dont much effort apologies anymore'
p2659
aS'aquarius give world give give nothing return\xe2\x80\x9d'
p2660
aS'beardsgtgtgtgt'
p2661
aS'trip tgif turn mcdondalds'
p2662
aS'switch team iphone'
p2663
aS'tumblr wrote said summer time fine thanks'
p2664
aS'fire campus lodge tonight'
p2665
aS'refuse turn heat back freezing'
p2666
ag50
aS'true kinda deep'
p2667
aS'yesterday good hate storms love laying'
p2668
aS'tweet funny'
p2669
aS'witnessed immature naive selfish thing ever still honesty obviously learn past'
p2670
aS'today stats follower'
p2671
aS'deserve better'
p2672
aS'trying finish assignment really fast'
p2673
aS'sounded creepy thinking someone like'
p2674
ag50
aS'feelings mutual'
p2675
aS'females look great without make salute'
p2676
aS'haha okay'
p2677
aS'ewwww stoppppp'
p2678
aS'mmmm craving little moment'
p2679
aS'craving little moment'
p2680
aS'relationship like shark keep moving forward dies'
p2681
aS'love sarcasm'
p2682
aS'busy nothing anymore make time things outside work'
p2683
aS'lmao'
p2684
aS'hazelwood damage tornadoe touched florissant head downtown'
p2685
aS'heard damage hazelwood hope everyone'
p2686
aS'stay safe louis'
p2687
aS'tornado sirensssss'
p2688
aS'hair blonde live colorado also cant speak english'
p2689
aS'much person humm'
p2690
aS'power flickered sevrestorms'
p2691
aS'miss traveling sports dance great times'
p2692
aS'shit store'
p2693
aS'watchn hunger games katniss throw hand sign always throw'
p2694
aS'yess searching since bday found cute cachci mommas'
p2695
aS'photo pink blossoms close'
p2696
aS'photo beautiful blossoming tree campus yesterday'
p2697
aS'dance dads worst dance moms dancelife'
p2698
aS'woke wheezing sneezing hate allergies asthma'
p2699
aS'ambition priceless something thats veins'
p2700
aS'happen'
p2701
aS'performing weekend come watch dance solo'
p2702
aS'productive'
p2703
aS'dear tori kelly love'
p2704
aS'today stats unfollower'
p2705
aS'watched episodes full house fresh prince'
p2706
aS'knee hurts like little frustrated'
p2707
aS'definitely studied feel accomplished'
p2708
aS'chilling eating coldstones'
p2709
aS'problems chemistry left'
p2710
aS'cannot stop listening tori kellys cover'
p2711
aS'need start taking allergy medicine spring really hits'
p2712
aS'look face found final exam sociology class'
p2713
aS'people quick judge everyone world based simply unloyal lames circle'
p2714
aS'spring time glasses allergies'
p2715
aS'good morning world'
p2716
aS'today stats unfollower'
p2717
aS'thevoice\xe2\x80\x9d like wait voice went hours realized leave cali timedifference'
p2718
aS'rick pitino becomes coach ever national title schools kentucky 1996'
p2719
aS'want'
p2720
aS'couldnt asked better national championship game congrats louisville well deserved\xe2\x80\x9d'
p2721
aS'time sports center'
p2722
aS'kevin ware though'
p2723
aS'knew louisville gone'
p2724
aS'lmao anyone else louisvilles coach duck shots went'
p2725
aS'lmao'
p2726
aS'siva work'
p2727
aS'louisville champions baby'
p2728
aS'ball game louisville'
p2729
aS'goes annoying females want love basketball relationship thinking even hoop'
p2730
aS'seriously pass dont give michigan chances come back'
p2731
aS'love defense'
p2732
aS'best national championship game ever witnessed entertaining'
p2733
aS'louisville balling'
p2734
aS'louisville'
p2735
aS'louisville gone'
p2736
aS'bucket'
p2737
aS'like refs lettin play'
p2738
aS'walk team work hard make scholarship athletes better'
p2739
aS'cannot focus game collegebasketball'
p2740
aS'frusterated'
p2741
aS'journalist could email work'
p2742
aS'bake cake homemade chocolate frosting'
p2743
aS'lmfao cant stunt diss dope'
p2744
aS'90210'
p2745
aS'cant wait draft weekend'
p2746
aS'cant wait awkward'
p2747
aS'school'
p2748
aS'opening cardinals'
p2749
aS'chemistry test'
p2750
aS'opening cards'
p2751
aS'happy opening cardinalsnation'
p2752
aS'lmao cardsnation repost'
p2753
aS'current level motivation snail riding slothback towing turtle'
p2754
aS'today stats unfollower'
p2755
aS'iphone chargers short'
p2756
aS'love'
p2757
aS'mines pierced hurt like forgot first looked mirror'
p2758
aS'celibacy consistency nothing'
p2759
aS'youre mind'
p2760
aS'photo dance studio crew officialdancecrew dancelife college'
p2761
aS'productive practice'
p2762
aS'reason choreo song ahhh'
p2763
asS'2013_14'
p2764
(lp2765
S'brother really biggest role model'
p2766
aS'almost finished online spanish course'
p2767
aS'lordofthedragonballs'
p2768
aS'love good show studying'
p2769
aS'netflix cartoon network cartoons'
p2770
aS'igot work done today'
p2771
aS'come cosmo park lamb shelter free food chicken burgers brats galore kidding'
p2772
aS'least three spanish assignments done studysunday'
p2773
aS'wolf tight album\xe2\x80\x9d'
p2774
aS'today stats unfollower'
p2775
aS'right'
p2776
aS'hipsterista'
p2777
aS'laying joanna gets ready outbitter'
p2778
aS'watch'
p2779
aS'ughh wanna'
p2780
aS'always believe something wonderful happen'
p2781
aS'friends'
p2782
aS'funny'
p2783
aS'party grove building 3220 females welcome kappa party retweet spread word\xe2\x80\x9d'
p2784
aS'haha flashlights batteries dollar store dollar'
p2785
aS'lifted shifted higher ceiling owwee ultimate feeling'
p2786
aS'hide seek flashlights night louis surprise never played'
p2787
aS'flashlight'
p2788
ag50
aS'photo nico grilling face'
p2789
aS'nico grilling face'
p2790
aS'weather gtgtgtgtgtgt'
p2791
aS'guess true everybody leaves eventually'
p2792
aS'well finding things happen last night interesting haha'
p2793
aS'photo tessa letting wear necklace owls'
p2794
aS'barbecuing team'
p2795
aS'nico'
p2796
aS'last night guys'
p2797
aS'last night'
p2798
aS'ofish loves'
p2799
aS'wash showcase louis weekend coming'
p2800
aS'years sure download music weve posted'
p2801
aS'none emotions anything bitter sure someone else would whole fiesta'
p2802
aS'wearin shorts tahday yahoooooo'
p2803
aS'rest injury miss show'
p2804
aS'headache'
p2805
aS'woke lost morning'
p2806
aS'today stats followers'
p2807
aS'ayyyyyyyeeeeeeeweee'
p2808
aS'turnt officialfam'
p2809
aS'downtown tonight'
p2810
aS'time best'
p2811
aS'want'
p2812
aS'cause dont think ready struggling'
p2813
ag50
aS'read whole stories spanish hope good grade assignment'
p2814
aS'nowhere near anything either submitted assignment'
p2815
aS'fine'
p2816
aS'ummmaybe'
p2817
aS'know'
p2818
aS'deja shutting place going'
p2819
aS'happen pocket thrift shop butreally'
p2820
aS'actually'
p2821
aS'roxy eastside cost personally like roxy'
p2822
aS'hate groceries keep getting mixed everyone always corner freezer fridge'
p2823
aS'siri actually told loved haha'
p2824
aS'want donuts mcdonalds like badly'
p2825
aS'really want glazed donts'
p2826
aS'happy birthday mean'
p2827
aS'seaworld tickets'
p2828
aS'going vacation time believe'
p2829
aS'think july'
p2830
aS'coming july browns'
p2831
aS'sounds like need'
p2832
ag50
aS'tickle responsible injuries'
p2833
aS'wish still'
p2834
aS'westside como'
p2835
aS'today stats followers unfollowers'
p2836
aS'photo'
p2837
aS'photo love took beautiful'
p2838
aS'photo lost tessa'
p2839
aS'photo tessa interacting nature'
p2840
aS'photo found dead snake'
p2841
aS'photo caught guard'
p2842
aS'photo middle nowhere'
p2843
aS'photo tessa'
p2844
aS'photo amazing adventure girls today'
p2845
aS'photo tessa'
p2846
aS'photo tessa'
p2847
aS'photo creek'
p2848
aS'photo bridge'
p2849
aS'photo love sand'
p2850
aS'green apple smirnoff philosophy homework impossible ofish movienight dancefam'
p2851
aS'photo trying making without getting shoes muddy'
p2852
aS'photo discover sand creek'
p2853
aS'photo graffiti'
p2854
aS'photo well started trail'
p2855
aS'pride ways going make girl walk'
p2856
aS'golden corral dance crew official'
p2857
aS'photo beginning adventure started thelake'
p2858
aS'survival skills test lost woods crossed creek best hike ever'
p2859
aS'photo beautiful repost'
p2860
aS'could chasing time would wasted'
p2861
aS'sweet tart jelly beans heaven\xe2\x80\x9d'
p2862
aS'trail walking'
p2863
ag50
aS'kill everything thats different preserve'
p2864
aS'video equality'
p2865
aS'happy birthday thanks vagina isnt saddest pussy town anymore'
p2866
aS'want scavenger hunt'
p2867
aS'weather still'
p2868
ag50
aS'cant wait awkward'
p2869
aS'dashiexp youtube hilarious'
p2870
aS'come always sonya never mortalcombat'
p2871
aS'photo favorite path campus'
p2872
aS'nice booty'
p2873
aS'snatched face pieces\xe2\x80\x9d lmao'
p2874
aS'kevin kenneth right'
p2875
aS'even dude game lmao'
p2876
aS'reunion successful black people movie'
p2877
aS'right'
p2878
aS'oprah movie damn'
p2879
aS'samuel jackson basically play role'
p2880
aS'lmao thats funny'
p2881
aS'every black movie damn near'
p2882
aS'haha makes want watch juice'
p2883
aS'thinking thing really surprised samuel jackson movie\xe2\x80\x9d'
p2884
aS'welp summed'
p2885
aS'matter \xe2\x80\x9cbusy\xe2\x80\x9d person\xe2\x80\x99s \xe2\x80\x9creally care\xe2\x80\x9d they\xe2\x80\x99ll always find time'
p2886
aS'people tried push youll agreement push'
p2887
aS'good morning'
p2888
aS'congrats brother getting microsoft love computer nerd sisterlove'
p2889
aS'precipitate problem bothering know mass barium ions whatever unknown compound help'
p2890
aS'lmao happened'
p2891
aS'surround passionate people truly love'
p2892
aS'dont forget breathe'
p2893
aS'bull kicked'
p2894
aS'photo beautiful repost'
p2895
aS'today stats follower unfollowers'
p2896
aS'happy least getting math proportion chemistry'
p2897
aS'rather dancing'
p2898
aS'trying study night keep getting interesting ever'
p2899
aS'anonymous questions'
p2900
aS'anonymous asked tell likes'
p2901
aS'either study dance'
p2902
aS'middle computer'
p2903
aS'thankful people never left'
p2904
aS'photo'
p2905
aS'chemistry'
p2906
aS'life unexpected'
p2907
aS'matt holliday sexyyy'
p2908
aS'sleep already'
p2909
aS'pershingi miss spring break'
p2910
aS'studying'
p2911
aS'tumblr restrictions'
p2912
aS'carrie underwood cheats \xf0\x9f\x98\x8fgtgtgtgtgtgtgtgtgtgtgtgt'
p2913
aS'phone need contacts'
p2914
aS'north korea needs swerve'
p2915
aS'sugar'
p2916
aS'waved back'
p2917
aS'tornado alarms'
p2918
aS'yesterday going dance rehersal'
p2919
aS'perksofbeingadancer calves'
p2920
aS'honestly failure helps appreciate success much'
p2921
aS'sometimes need hurt order grow must lose order gain sometimes lessons learned'
p2922
aS'need massage beyond sore'
p2923
aS'today stats follower unfollower'
p2924
aS'measurements fashion show weekend'
p2925
aS'level nicdanger vinyl'
p2926
aS'hope package comes workout cause last time left door someone could took'
p2927
aS'photoset gosh make face dance dance move right'
p2928
ag50
aS'excited workshop'
p2929
aS'happy going christina'
p2930
aS'cannot believe payed housing dining contract mizzou becoming real'
p2931
aS'photo haha'
p2932
aS'chemistry strictly dealing numbers word problems math'
p2933
aS'exam come'
p2934
aS'made image almighty make mistakes'
p2935
aS'today stats followers unfollower'
p2936
aS'took long today still tired'
p2937
aS'good'
p2938
aS'latino attractive bilingual stuff'
p2939
aS'behind aquarius smile story would never understand'
p2940
aS'best pass classes refuse take'
p2941
aS'like coming back spring break tests study throughout break exhausted'
p2942
aS'brought wave curlers back'
p2943
aS'upset aquarius distance resort silent treatment'
p2944
aS'sera sera whatever'
p2945
aS'deception'
p2946
aS'person used admit shit'
p2947
aS'gotta study exam'
p2948
aS'pray kevin ware'
p2949
aS'took hours phone charge glad ordered phone'
p2950
aS'kevin ware already crutches wearing regional champs surgery last night'
p2951
aS'studying today'
p2952
aS'vulnerability bitch pride blessing strength happiness'
p2953
aS'today stats unfollower'
p2954
aS'come reach fingers feels like distance'
p2955
aS'checkout follow amazing creator'
p2956
as.