(dp0
S'2013_42'
p1
(lp2
S'1012mi pace nike nikeplus'
p3
aS'917mi pace nike nikeplus'
p4
asS'2013_43'
p5
(lp6
S'854mi pace nike nikeplus'
p7
aS'416mi pace nike nikeplus'
p8
aS'933mi pace nike nikeplus'
p9
asS'2013_40'
p10
(lp11
S'1004mi pace nike nikeplus'
p12
asS'2013_41'
p13
(lp14
S'953mi pace nike nikeplus'
p15
aS'1000mi pace nike nikeplus'
p16
aS'917mi pace nike nikeplus'
p17
asS'2013_46'
p18
(lp19
S'still five today real humid outside 952mi pace nike nikeplus'
p20
aS'929mi pace nike nikeplus'
p21
aS'907mi pace nike nikeplus'
p22
aS'840mi pace nike nikeplus'
p23
asS'2013_44'
p24
(lp25
S'833mi pace nike nikeplus'
p26
aS'942mi pace nike nikeplus'
p27
aS'845mi pace nike nikeplus'
p28
asS'2013_45'
p29
(lp30
S'939mi pace nike nikeplus'
p31
asS'2012_45'
p32
(lp33
S'follows'
p34
asS'2013_49'
p35
(lp36
S'little outside 903mi pace nike nikeplus'
p37
aS'939mi pace nike nikeplus'
p38
aS'903mi pace nike nikeplus'
p39
aS'903mi pace nike nikeplus'
p40
asS'2012_41'
p41
(lp42
S''
p43
asS'2014_36'
p44
(lp45
S'1001mi pace nike nikeplus'
p46
aS'nike running'
p47
aS'blog today effect caffeine running performance'
p48
aS'much summer heat winter records broken'
p49
aS'940mi pace nike nikeplus'
p50
aS'georgethomas wacjude'
p51
aS'except friends total miles month week missing'
p52
aS'trying days missing shows synching never finalizes'
p53
aS'1005mi pace nike nikeplus'
p54
aS'wont synch nike'
p55
aS'problem happening account'
p56
aS'942mi pace nike nikeplus'
p57
asS'2014_37'
p58
(lp59
S'905mi pace nike nikeplus'
p60
aS'847mi pace nike nikeplus'
p61
aS'today lake travis'
p62
aS'miles honor 949mi pace nike nikeplus'
p63
aS'946mi pace nike nikeplus'
p64
aS'enjoyed harvest moon 1045mi pace nike nikeplus'
p65
asS'2014_34'
p66
(lp67
S'really outside 957mi pace nike nikeplus'
p68
aS'1005mi pace nike nikeplus'
p69
aS'humid looks like peed 941mi pace nike nikeplus'
p70
aS'miss flying flew guns stuff'
p71
aS'917mi pace nike nikeplus'
p72
asS'2014_35'
p73
(lp74
S'940mi pace nike nikeplus'
p75
aS'cheers post since yesterday today'
p76
aS'trouble facebook nike running posting shows wont finalize'
p77
aS'914mi pace nike nikeplus'
p78
aS'923mi pace nike nikeplus'
p79
aS'930mi pace nike nikeplus'
p80
asS'2014_33'
p81
(lp82
S'becky hammon'
p83
aS'911mi pace nike nikeplus'
p84
aS'912mi pace nike nikeplus'
p85
ag43
aS'today'
p86
aS'946mi pace nike nikeplus'
p87
asS'2014_30'
p88
(lp89
S'1113mi pace nike nikeplus'
p90
aS'916mi pace nike nikeplus'
p91
aS'918mi pace nike nikeplus'
p92
aS'848mi pace nike nikeplus'
p93
ag43
asS'2014_31'
p94
(lp95
S'840mi pace nike nikeplus'
p96
aS'928mi pace nike nikeplus'
p97
aS'948mi pace nike nikeplus'
p98
aS'easy peasy challenge 3000mi challenge using nike nikeplus'
p99
aS'836mi pace nike nikeplus'
p100
aS'930mi pace nike nikeplus'
p101
asS'2012_22'
p102
(lp103
S'warm lifting finished pace 747mi nike nikeplus makeitcount'
p104
aS'finished pace 914mi nike nikeplus makeitcount'
p105
aS'finished pace 844mi nike nikeplus makeitcount'
p106
asS'2014_38'
p107
(lp108
S'951mi pace nike nikeplus'
p109
aS'847mi pace nike nikeplus'
p110
ag43
aS'949mi pace nike nikeplus'
p111
aS'929mi pace nike nikeplus'
p112
asS'2014_39'
p113
(lp114
g43
aS'953mi pace nike nikeplus'
p115
aS'915mi pace nike nikeplus'
p116
asS'2014_18'
p117
(lp118
S'1042mi pace nike nikeplus'
p119
aS'1012mi pace nike nikeplus'
p120
aS'first resuming training 956mi pace nike nikeplus'
p121
asS'2014_19'
p122
(lp123
g43
aS'body found children angelina identified'
p124
aS'went dogs barking much next time clothes boxers sandals'
p125
aS'946mi pace nike nikeplus'
p126
aS'952mi pace nike nikeplus'
p127
aS'1011mi pace nike nikeplus'
p128
aS'department veterans affairs ordering audit clinics every medical center'
p129
aS'1034mi pace nike nikeplus'
p130
aS'1007mi pace nike nikeplus'
p131
aS'950mi pace nike nikeplus'
p132
asS'2014_14'
p133
(lp134
S'942mi pace nike nikeplus'
p135
aS'1004mi pace nike nikeplus'
p136
asS'2014_16'
p137
(lp138
S'tragic'
p139
asS'2012_28'
p140
(lp141
S'finished pace 835mi nike running nikeplus'
p142
aS'finished pace 903mi nike running nikeplus'
p143
asS'2014_13'
p144
(lp145
S'958mi pace nike nikeplus'
p146
aS'1029mi pace nike nikeplus'
p147
asS'2012_8'
p148
(lp149
S'finished pace 914mi time 2913 nike nikeplus makeitcount'
p150
asS'2011_27'
p151
(lp152
S'currently involved lawsuit lufkin police harassed last years'
p153
aS'thomas city lufkin texas'
p154
asS'2012_4'
p155
(lp156
S'back lufkin texas'
p157
asS'2012_6'
p158
(lp159
S'finished pace 948mi time 3503 nike nikeplus makeitcount'
p160
aS'finished pace 954mi time 3515 nike nikeplus'
p161
asS'2012_20'
p162
(lp163
S'finished pace 907mi nike nikeplus makeitcount'
p164
asS'2013_51'
p165
(lp166
S'859mi pace nike nikeplus'
p167
aS'quickie saturday half marathon 830mi pace nike nikeplus'
p168
asS'2013_50'
p169
(lp170
S'947mi pace nike nikeplus'
p171
aS'cold outside 913mi pace nike nikeplus'
p172
aS'922mi pace nike nikeplus'
p173
asS'2013_23'
p174
(lp175
S'900mi pace nike nikeplus'
p176
asS'2012_18'
p177
(lp178
S'feeling better miles soon finished pace 937mi nike nikeplus makeitcount'
p179
aS'first weeks back injury finished pace 917mi nike nikeplus makeitcount'
p180
asS'2014_1'
p181
(lp182
S'knee still hurts snuck nike nikeplus'
p183
asS'2014_43'
p184
(lp185
S'1005mi pace nike nikeplus'
p186
aS'gave chills'
p187
aS'918mi pace nike nikeplus'
p188
ag43
aS'927mi pace nike nikeplus'
p189
asS'2014_42'
p190
(lp191
S'922mi pace nike nikeplus'
p192
aS'946mi pace nike nikeplus'
p193
aS'happy columbus'
p194
aS'laura'
p195
aS'blast serving flying laura nice years'
p196
aS'used laura tethered'
p197
aS'856mi pace nike nikeplus'
p198
asS'2014_41'
p199
(lp200
S'definition growing'
p201
aS'1003mi pace nike nikeplus'
p202
aS'music'
p203
aS'nowplaying sometimes best conection connection praise folly'
p204
ag43
aS'time heals almost everythingwell lets find'
p205
aS'pictures cure'
p206
aS'masks poem shel silverstein'
p207
aS'minute yoga sequence runners'
p208
aS'yoga runners'
p209
aS'never friends someone fell love'
p210
aS'favorite memories kids walking street raccoon'
p211
asS'2013_34'
p212
(lp213
S'mematic meme'
p214
asS'2014_44'
p215
(lp216
S'best half tights started sagging mile'
p217
aS'love camelbak marathoner store bulk iphone'
p218
aS'forty lufkin texas half race tried fourth outfit decisions'
p219
aS'marineheldinmexico\xe2\x80\x99s immediate release ordered mexican judge foxnews'
p220
aS'halloween'
p221
aS'like curtains'
p222
ag43
aS'thank'
p223
aS'940mi pace nike nikeplus'
p224
aS'747mi pace nike nikeplus'
p225
ag43
aS'least degrees anymore'
p226
asS'2012_35'
p227
(lp228
S'finished pace 944mi nike running nikeplus'
p229
asS'2012_19'
p230
(lp231
S'always awake'
p232
aS'nice easy finished pace 1023mi nike nikeplus makeitcount'
p233
aS'goof almost back finished pace 938mi nike nikeplus makeitcount'
p234
aS'finished pace 935mi nike nikeplus makeitcount'
p235
asS'2014_29'
p236
(lp237
S'841mi pace nike nikeplus'
p238
aS'thank support'
p239
aS'1000mi pace nike nikeplus'
p240
aS'712mi pace nike nikeplus'
p241
aS'959mi pace nike nikeplus'
p242
asS'2014_28'
p243
(lp244
S'devil super 958mi pace nike nikeplus'
p245
aS'called nike support repaired'
p246
aS'still hasnt synched'
p247
aS'george thomas wacjude'
p248
aS'today completed first challenge wont credit double shot credit either'
p249
aS'problem least response nike support'
p250
aS'last shows activity challenge leader screen first challenge wont credit'
p251
aS'933mi pace nike nikeplus'
p252
aS'815mi pace nike nikeplus'
p253
aS'927mi pace nike nikeplus'
p254
aS'910mi pace nike nikeplus'
p255
asS'2013_12'
p256
(lp257
S'john'
p258
aS'took shower'
p259
aS'eres'
p260
aS'would like welcome friend'
p261
asS'2011_29'
p262
(lp263
g43
asS'2014_21'
p264
(lp265
S'954mi pace nike nikeplus'
p266
aS'null 000mi pace nike nikeplus'
p267
aS'great photo flagsin place flags memorialday taps14'
p268
ag43
aS'today employees next time replied wont'
p269
aS'954mi pace nike nikeplus'
p270
aS'secretary ptsd looks shellshocked recognize eyes sympathize needs'
p271
aS'854mi pace nike nikeplus'
p272
aS'love show best hour'
p273
ag43
aS'vaaccountability'
p274
aS'notjustphoenix told kill wrote gohmert'
p275
aS'notjustphoenix'
p276
aS'857mi pace nike nikeplus'
p277
aS'every week complete inactivity allow weeks back previous level fitness runningtips'
p278
aS'meditation affects brain interesting thanks posting'
p279
asS'2014_20'
p280
(lp281
S'summer almost snag free training guide thatll tell keep training track'
p282
aS'852mi pace nike nikeplus'
p283
aS'question shaving ones body hair make difference competitive performance aesthetics'
p284
aS'1000mi pace nike nikeplus'
p285
aS'1002mi pace nike nikeplus'
p286
aS'another passed thankfully central command confirmed casualties please pray'
p287
ag43
aS'study analysis running form fabled tarahumara indians'
p288
aS'1010mi pace nike nikeplus'
p289
asS'2014_23'
p290
(lp291
S'first hopefully multiple marathons'
p292
aS'help followers retweet well send copy 5050 book lucky person'
p293
aS'update fighter crashes homes california neighborhood'
p294
aS'plain simple foam roller demonstration video'
p295
aS'1028mi pace nike nikeplus'
p296
ag43
aS'happy runners'
p297
aS'first time play years'
p298
aS'trinity arrested family violence charge'
p299
aS'anybody'
p300
aS'love'
p301
ag43
aS'831mi pace nike nikeplus'
p302
aS'flew major picture'
p303
aS'looked annoyed bikes trails look'
p304
aS'dont road rage runner rage'
p305
aS'stoplight running runchat'
p306
asS'2014_22'
p307
(lp308
S'went schlittebahn galveston little girls bday'
p309
aS'957mi pace nike nikeplus'
p310
ag43
aS'948mi pace nike nikeplus'
p311
aS'raining tried rainwear 853mi pace nike nikeplus'
p312
aS'airmen graduated ranger school february'
p313
ag43
aS'airmen tabbed rangers'
p314
aS'ride work former enlisted flyer'
p315
asS'2014_25'
p316
(lp317
g43
aS'spec buddies jtac'
p318
aS'928mi pace nike nikeplus'
p319
aS'athletes role models feel runners'
p320
ag43
aS'great began week mine tyler texas'
p321
aS'finished first half marathon last summer since free getting better everyday'
p322
aS'thank ptsd diagnosis running saved life'
p323
aS'another training completed'
p324
aS'1006mi pace nike nikeplus'
p325
aS'found lady plant bedroom going great'
p326
aS'born 1122 1111'
p327
aS'makes running fall easier'
p328
aS'inside soccers march brazil tags'
p329
aS'thank'
p330
aS'thank support'
p331
aS'fine actually arkansas filmed class treatment works started running'
p332
aS'getting better everyday therapy diagnosed wptsd half therapy last year free since'
p333
aS'finish like hour'
p334
aS'week training done hottest part fall summer heat'
p335
aS'948mi pace nike nikeplus'
p336
aS'halfs last year first marathon attempt'
p337
aS'tyler rose marathon'
p338
aS'really enjoying played soccer grew clint dempsey'
p339
aS'thank much'
p340
aS'veterans every waiting benefits follow help honor promise care warriors'
p341
aS'thank'
p342
aS'sixteen week marathon training done'
p343
aS'924mi pace nike nikeplus'
p344
aS'thank support'
p345
aS'thank'
p346
aS'army well started running last year ptsd little rock halfs marathon starts today'
p347
aS'victory ghana learn east texas clint dempsey'
p348
aS'thank appreciate support tips'
p349
aS'soccer clintdempsey usavsghana'
p350
aS'thank'
p351
aS'tomorrow start marathon training using nikerunning coach feature first marathon attempt'
p352
asS'2014_24'
p353
(lp354
g43
aS'wave executions feared islamic militants take cities iraq'
p355
aS'president obama speaks live broadcasted stations except spanish networks mexico playing worldcup2014 mexico'
p356
aS'957mi pace nike nikeplus'
p357
aS'1020mi pace nike nikeplus'
p358
aS'913mi pace nike nikeplus'
p359
aS'915mi pace nike nikeplus'
p360
aS'years today found rascal became best friends instantly'
p361
asS'2014_27'
p362
(lp363
S'937mi pace nike nikeplus'
p364
aS'920mi pace nike nikeplus'
p365
aS'rubbing running rubbing much issues'
p366
aS'931mi pace nike nikeplus'
p367
aS'dream move live beach awarded full pension military ready'
p368
aS'another rubbing'
p369
aS'1002mi pace nike nikeplus'
p370
aS'1006mi pace nike nikeplus'
p371
aS'passport thats miles'
p372
aS'sure starting week three week marathon training first tyler rose marathon'
p373
aS'mile every retweet post dont worry headlamps runchat ultrachat'
p374
aS'824mi pace nike nikeplus'
p375
asS'2014_26'
p376
(lp377
S'929mi pace nike nikeplus'
p378
ag43
aS'936mi pace nike nikeplus'
p379
aS'neighbor drums successful heavy metal band stopped much drink still paying kids'
p380
aS'901mi pace nike nikeplus'
p381
aS'sporting richard simmons look 1010mi pace nike nikeplus'
p382
aS'yesand wsglobaldef'
p383
asS'2014_40'
p384
(lp385
S'keep prayers'
p386
aS'815mi pace nike nikeplus'
p387
asS'2012_7'
p388
(lp389
S'finished pace 930mi time 4735 nike nikeplus makeitcount'
p390
aS'finished pace 934mi time 4808 nike nikeplus makeitcount'
p391
aS'finished pace 939mi time 3843 nike nikeplus makeitcount'
p392
as.