(dp0
S'2014_10'
p1
(lp2
S'using sexual harassment sell jeans commercials notcool'
p3
aS'well maybe dont remember ones make happeninterventioncon propstothefighters'
p4
aS'taking blame'
p5
aS'jackoff someone know need come back kneecap muddafukka'
p6
aS'tried putting rice fits work leave days'
p7
aS'apparently esfj makes sense used estj guess personality changes time chime'
p8
aS'ever dark days world seems come crashing around realize fucked everything'
p9
asS'2014_11'
p10
(lp11
S'another tooth split right middle cavity anything gonna wind dentures'
p12
aS'folksif havent subscribed youtube paulie johnny gonna kick silly amazing stuff'
p13
aS'left house past days twenty mins managed catch fuck walmart lady'
p14
aS'dragoncon russians word describe weekend long bender learn'
p15
asS'2013_24'
p16
(lp17
S'call mouse shadow second moon'
p18
aS'actually kinda true magically know span multiple wires'
p19
aS'guess type muah'
p20
aS'wondering geek power derechos listed monster manual fiend folio'
p21
aS'still hard time comprehending gets hotter find really weird'
p22
aS'wanna used wanna used wanna laid used wanna something wanna left alone'
p23
aS'weeks like wish bastard killed instead crippling take solace fact brothers kick every'
p24
asS'2013_25'
p25
(lp26
S'fuck insomnia theres anyone actually enjoys morphine gotta explain dont'
p27
aS'therewill days cheapest artampdiy festgaming conprereg rate'
p28
aS'arent printers early versions replicators weliveinthefuture thefutureisnow'
p29
aS'spamgtgtgtgt check custombuilt workbench redline garagegear check'
p30
aS'dont pester wont sacrifice mine'
p31
asS'2013_26'
p32
(lp33
S'cats auto wash button'
p34
aS'woot official american gods seasons great news excited'
p35
aS'weird woke came outside cawfee smoke joined calico stoned looking bird joke'
p36
aS'alright done need call'
p37
aS'must force stay awake another hours insomnia'
p38
aS'info shes expecting call'
p39
aS'urgent share tweet friend neice missing jacksonville'
p40
aS'need good podiatrist friend school'
p41
aS'shizzle drizzle getting ready havent slept days mmmmbrainzzzz'
p42
aS'whaddup beeyotch'
p43
aS'days cheapest artampdiy festgaming conprereg rate'
p44
aS'done best knows tried find truth even lied'
p45
aS'sometimes think moving pictures harry potter verse wonder tumblr become horrified'
p46
aS'live special maybe well entertained'
p47
aS'sure followed thee people looked like something welcome aboard'
p48
aS''
p49
aS'fell love root beer found caffeine felt betrayed'
p50
asS'2013_27'
p51
(lp52
S'ages cant mouth positioning right cant learn help'
p53
aS'congratulations'
p54
aS'well poisoned finish startedack'
p55
aS'felt tried kill last night bought peach make feel better awwww'
p56
aS'tripped hours bitch tried kill mustve twisted wrong back happy fucking'
p57
aS'happy turkey'
p58
aS'thinkingbig laminated maps cities like seattle would really well received please'
p59
aS'guide runs plex'
p60
aS'laminated maps seattle hong kong going come'
p61
aS'need help military friendsdesert dwellers hell deal regular'
p62
aS'cooking past hours mashed taters roasted carrots biscuitsgravy fried chix whos coming'
p63
asS'2013_20'
p64
(lp65
S'well damn want watch great movie learn real sexual domination watch exterminating angels'
p66
aS'junoits thing deal'
p67
aS'part looks delish know cake might looking asst interested'
p68
aS'howd final'
p69
asS'2013_21'
p70
(lp71
S'found share birthday need together toss back'
p72
aS'love really enjoy coffee well worth trust'
p73
aS'tippi tonna'
p74
asS'2013_22'
p75
(lp76
S'allow throw ring replace drwho think bring certain gravitas'
p77
aS'need'
p78
aS'anyone else nauseous chew piece long'
p79
aS'come conclusion recent tweets watch much gawdam'
p80
ag49
aS'unless fucking johnson'
p81
aS'please consider registeringdonatingknocking door sponsor limit funding'
p82
aS'helsinki comics festival provides outofcountry folks free table place stay'
p83
aS'well moving 0500 3hrs sleep movers arrived 0700 almost done already recommend cest finit'
p84
aS'amazing iced coffee regular nuke cups water whatever doesnt pressed gets topped'
p85
aS'totally worth total time perfect mins choice espresso americano without cost'
p86
aS'well loss closed minded dipshits long keep keepin fansfriends back'
p87
aS'curious idea much hate media arent proving powerful media much love'
p88
asS'2013_23'
p89
(lp90
S'maybe truert cannot clearly\xe2\x80\x94the government access google servers'
p91
aS'hauntedsnugharbor best cinematography macabre faire film festival'
p92
aS'know people actually know'
p93
asS'2013_28'
p94
(lp95
S'would love delete chapters life would ruin story'
p96
aS'peaches truly better things life thankful sweet juicy succulent flesh'
p97
aS'willie nelson peach cobbler cream jerry read ingredients ganja false advertising'
p98
aS'well main question said done'
p99
aS'heard amazing screen names time manwich awesomeness'
p100
asS'2013_29'
p101
(lp102
S'dont love fact every device every movie universal connector'
p103
aS'going sdcc'
p104
aS'spent smoke free removed patch store pack need keep first'
p105
aS'feed emotions around psychic vamparism call extroversion would prefer full vampire wouldnt'
p106
asS'2012_16'
p107
(lp108
S'muthafuckaif dont sleep gonna start putting clips dicks disney flicks'
p109
aS'alright sack hours arent sleepy'
p110
aS'youve night frigate republic frigate precise'
p111
aS'entered playstation vita ninja gaiden sigma prize pack enter'
p112
aS'cant walk crawl cant pray someone cares enough help carry'
p113
aS'anger gift rage logic'
p114
aS'constantinople'
p115
aS'worried zombie apocalypse come handy'
p116
aS'aluminum falcon'
p117
aS'oatmeal raisin cookies made oatmeal raisins good right'
p118
aS'oatmeal raisin cookies fresh oven 1230 yeah foodie'
p119
aS'check itfast five hawt piece'
p120
asS'2012_17'
p121
(lp122
S'actually thigh firefly'
p123
aS'seeing amazing cabin woods left wonder jewels left gathering dust shelf'
p124
aS'handle already member seerinc'
p125
aS'cabin woods fucking amazing fucking whedon'
p126
aS'jonathan frid played barnabus dark shadows died probably previews movie'
p127
aS'hopefully fixed insomnia didnt sleep wednesday night crashed last night woke today'
p128
aS'come warmer outside inversely proportional level conditioning need inside'
p129
aS'seems like today pretty crappy friends'
p130
aS'scale designed measure health'
p131
aS'dont like makes self conscious moobs flubbytits greatest hashtag seen ages'
p132
aS'ahhso brought early puberty kids pool exhibitionist'
p133
aS'like cream store brand worth eating haagen daaz five true story'
p134
ag49
aS'dudeamc theaters marvel movie marathon starts goes midnight premiere avengers'
p135
aS'lovin watching carlton dance yahoo'
p136
aS'hours marvelassemble team ultimate marvel marathon exclusively theatres'
p137
aS'cable expensive havent problems verizon also really reliable'
p138
aS'watching conan movie actors chosen perfectly writers director much'
p139
asS'2012_14'
p140
(lp141
S'happy easter passover ostara'
p142
aS'sudden weird craving buttered toast ambien sleep'
p143
aS'really'
p144
aS'probably finished tomorrow organize garage good thing falcon coming week'
p145
aS'know would awesome starbucks button would cause coffee delivered'
p146
aS'theyre making shit lijagulep result male lion mating female jagupard leguar'
p147
aS'sometimes really hate advice never point someone unless loaded safety'
p148
aS'well unpleasant hours'
p149
aS'tonights lego progress update'
p150
aS'yeah long program'
p151
aS'like larps check champions live action'
p152
aS'actually download dropbox systems pretty sure'
p153
aS'love pearle vision commercial naughty librarian lookroflmao know live'
p154
aS'audition first eerily similar group'
p155
aS'heres story gotz tell brothers know well started back history rock mike'
p156
aS'another update didnt much last days'
p157
aS'nothing kinda untalented surround'
p158
aS'watched transformers dsotm cant understand hate damn good movie much better last'
p159
aS'posting progress lego imperial shuttle'
p160
aS'gave words friends handle seerinc come show vocab'
p161
aS'legos kids arent using anymore know please friend needs project'
p162
aS'happy years'
p163
asS'2012_15'
p164
(lp165
S'maybe smaller strapon next time fuck'
p166
aS'serious question dick feel like'
p167
aS'rather politician kiss hand shake baby opposite least know wasnt scripted'
p168
aS'since post news lemme share good excellent porterhouse roasted cauliflower rice tonight plrnr'
p169
aS'amazing reduced prescription narcotics feel stoned less shit grooving'
p170
aS'wondering hard time losing weight noticed meatloaf sandwich eating 11pm'
p171
aS'lego update voila cest complete'
p172
aS'shower smelling pungent right'
p173
asS'2012_13'
p174
(lp175
S'brother made astute observation modernday philosopher need toga'
p176
aS'sitting going nuts baking wont come temperatureuntil realized thermometer'
p177
aS'country music awards'
p178
aS'makes total sense want make appearance friends'
p179
aS'giving smoking cessation thing another staying house today availability whats beat past'
p180
aS'anyone interested make stopmotion movie making lego imperial shuttle 2000 pieces'
p181
asS'2012_10'
p182
(lp183
S'daylight savings time stuff yall keep talking arizona dont recognize thing'
p184
aS'youre vain think tweet'
p185
aS'attn heidi took lunesta still prolly take hope wake noon work around'
p186
aS'woke morning smell cigarettes made nauseous chantix'
p187
aS'thats people love care thats also hire good'
p188
aS'hacked pics phone moved girl every wants bang girl every wants marry gawddamn'
p189
asS'2012_11'
p190
(lp191
S'hell smell like elephant shit circus town'
p192
aS'gotta finish cleaning office floors mopped flying week tuesday love beneful commercial'
p193
aS'circadian rhythms fucked plus really want smoke thats frustrated bored'
p194
aS'remembers first gonna fuck gonna'
p195
aS'forgot much love movie return living dead send paramedics'
p196
aS'cant believe cable bill month thats exclusively like double paid service'
p197
aS'tutorial awesome'
p198
aS'much hyped barrel 1911 weapons frame single trigger would cool'
p199
aS'friend lives tampa fiance love'
p200
aS'glad changed recipe years else pizza'
p201
asS'2012_18'
p202
(lp203
S'todd book pure evil ridiculous show ever made bless canadian'
p204
aS'exhausted pain cant sleep reason sigh'
p205
aS'matter youre life youre licking monkeys asshole'
p206
aS'deathly hallows part released cableppv'
p207
aS'dear ladies boyfriend thinks youre pretty dress dump youre beautiful time'
p208
aS'course organizing take forever talking least levels organizing guess tackle garage first'
p209
aS'plan make scale model serenity powered someone wants robotics love forever'
p210
aS'cant believe quickly lego collection grew thanks ebay investment around'
p211
aS'thank gods hour pharmacies'
p212
aS'think spam firstworldproblems'
p213
aS'arent spwf'
p214
aS'think proper netiquette states must provide link back story'
p215
aS'grandmother actually neonazi mars tonight sick strange world'
p216
aS'somarvel aside better movies past years need plane ride'
p217
aS'pain appt tomorrow must begin arduous process sorting organizing lego collection easy sounds'
p218
aS'wowdunkins flavor black mocha ahhmazing'
p219
aS'frozen chocolate delicious'
p220
aS'cool running second hotel sure haunts early tell'
p221
aS'know yall jealous best cooks eveh'
p222
aS'expanding wont even spring hotel youll really well spwf going'
p223
aS'mark calender apogee moon moon rise huge'
p224
asS'2012_19'
p225
(lp226
S'give sweet morpheus come take realm show wonders explore mysteries sounds kinda takei'
p227
aS'force stay awake least'
p228
aS'ohif youre keeping score still havent gotten sleep feeling sandman getting closer need adult'
p229
aS'years realized picture picture'
p230
aS'measure well connected different forms social media'
p231
aS'final countdownone week steampunk worlds faire embassy week bring coffee light sweet please'
p232
aS'even crush still couldnt watch mins bleeding'
p233
aS'seems majority passes laws affect minority thus oppress minority majority assholes'
p234
aS'never really understood cryptography decent vocabulary scrambled letter games always frustrate'
p235
asS'2013_11'
p236
(lp237
S'dont certain shows exist exist ratings people watch dont hate shows hate'
p238
aS'yeah autocorrect changes name paul potato guess strong hint drop tonnage'
p239
aS'thats chill found place anyone asks future generic cyberpunk printed home pdfs'
p240
aS'trying find character tokens luck suggestions'
p241
aS'work done'
p242
aS'dapper boobs pasties shape hats maybe handlebars pointies inappropriateconvoswithyourboss'
p243
aS'indeed apparently youve forgotten name begins'
p244
aS'little madness relished wisest'
p245
aS'apparently heat snap today tomorrow'
p246
aS'spent hour entranced videos serious arton lady spelled right'
p247
aS'walking street funniest looks everyone meet'
p248
aS'need suggestions reading material kinda mood fantasy cyberpunk'
p249
asS'2013_10'
p250
(lp251
S'finishing notes suns game last player addon great cant really call shadowrun hacker'
p252
aS'karl really much silly bint role plays well'
p253
aS'haha made handheld device contains human knowledge make looking much'
p254
aS'guys come make waffles'
p255
aS'music makers dreamers dreams favorite people'
p256
aS'great thing social media everyone voice worst thing thing'
p257
aS'need paying suggestions'
p258
aS'need social media staff pretty awesome amazing socialmedia'
p259
aS'remember folks none business people think'
p260
aS'hate doctors office calls tells theres slight problem tests cant appt tomorrow'
p261
asS'2013_13'
p262
(lp263
S'happy birthday favorite diva'
p264
aS'yeah frying veal cutlets'
p265
aS'waiteaster april fools send kids easter hunt dont actually hide eggs'
p266
aS'really companion shes becoming fave seconded donna noble drwho'
p267
aS'tweeting something isnt forcing views telling children theyll hell gayatheist forcing views'
p268
aS'even tote best price amazon'
p269
aS'dont understand hoopla behind electric cars electricity made burning carbon fuels saving anything'
p270
aS'deal aerobie aeropress coffee maker tote'
p271
aS'reviews aeropress chemex mono cafino pina espresso maker bodum pebo'
p272
aS'ahhcoffeecawfeesweet ambrosia sweet nectar lifebacchanalian enjoyment simple roasted bean'
p273
aS'feel like crap side effects necessary medications suck'
p274
aS'courage accepting fear turning strength shouldnt yellow lanterns based courage'
p275
aS'want help build looking recruiting manger grow klouts engineering team'
p276
aS'damnrt gentlemen skip diamond ring propose instead theorb gadgetgeek'
p277
asS'2013_12'
p278
(lp279
S'yeah pissing hacker always good idea almost good pissing spawn'
p280
aS'wowim feeling completely hung sleeping hours body haps back normal schedule'
p281
aS'comeback insults least never slept lumburgh'
p282
aS'slept less hours today ready fall whos gonna catch zzzzzzz'
p283
aS'yeah feeling nauseous must sunlight lemme goin sleep alwayswantedtobeavampire'
p284
aS'captain captain happy birthday people introduced lifelong love affair star trek'
p285
aS'course realize become late make coffee intention cleaning garage tired'
p286
aS'wanted thank kind words hope version doesnt bore much'
p287
aS'hows everyone doin tonight gorgeous'
p288
aS'needed something sweetyeah cheers tapioca pudding'
p289
aS'0500 eyes crossing exhausted hammer pounding nerves prevent sleeping sigh'
p290
aS'supposed rain back telling otherwise since yesterday afternoon fuck duck hear quack'
p291
aS'prolly recent stories asking hate amanda palmer'
p292
aS'always stuff need sign free'
p293
aS'found kids summer break summer schools weird'
p294
aS'yeah results supplement daily whatever'
p295
aS'better make early late starts need crash space'
p296
aS'havent whadya need'
p297
asS'2013_15'
p298
(lp299
S'guess amazons research panel aeropress mail scha wing'
p300
aS'graham norten remake laughin would amazing'
p301
aS'agree dreamyrt know awesome tech love hauntedcollector much'
p302
aS'wow9pm ready next round shots tmrw aftn nerve burnbut thats nuttin right'
p303
aS'yeah sleep still eluding maybe means early bedtime tonight hahahaha'
p304
aS'phone shut finally crashing need call'
p305
aS'right mind would lobster pork chop'
p306
aS'really dont want turn early already'
p307
aS'hilarious mean awesome agree glam rock hilarious'
p308
asS'2013_14'
p309
(lp310
S'best thing resident evil extinction movie address would happen carrion birds bitch would'
p311
aS'last time went pain sedation gave pretty serious wanna back spout fake name rank serial'
p312
aS'gotta tell love spiderman movie andrew garfield spiderman'
p313
aS'maybe help'
p314
aS'would doom marvelquestionoftheday could take place villain would'
p315
aS'dream similar opening scene hellboy work government secret service paranormal studies'
p316
aS'brent johnson equality street things make video awesome'
p317
aS'also strengthen grip careful hyper extend metacarpals muah'
p318
aS'almost immediate reply thats misfits says commercial glen danzig roflmao effin poseurs'
p319
aS'hard time misfits song used commercial'
p320
asS'2013_17'
p321
(lp322
S'biggest problem theamazingspiderman movie lizards'
p323
aS'ever steered wrong'
p324
aS'youre welcome know works enough burlyq friends'
p325
aS'ever shows peniscopter scrotal puppetry sure trusts implicitly'
p326
aS'finished book thelongwalk 50th time still amazing ever'
p327
aS'corn starch cover stain overnight inside course'
p328
aS'best description eating evah youre shoveling flesh dirtfruit hole filled spit dont'
p329
aS'explains damn much'
p330
aS'single godisdead amazing'
p331
aS'feeling acdc always makes feel better'
p332
aS'tough explain kinda hate days feel good know wont last need thankful respite'
p333
aS'howd like wheel dining every meal plant make real come'
p334
aS'sometimes feel like need turn drumsticks minority liking zeppelin'
p335
aS'midnight gonna love year'
p336
aS'occasion wish legal duel someone pain'
p337
aS'really well written article watch ended experts'
p338
asS'2013_16'
p339
(lp340
S'know wanted early coming noon tomorrow looked already late'
p341
aS'ummmmmisnt supposed cooler hotter noon'
p342
aS'weve army silversprings invading house heidi losing fucking mind ideas'
p343
aS'congrats friends figuring perfect marriage today harknell married years'
p344
aS'sleep eluded smoke coffee fresh morning awaits'
p345
aS'tweet twiddly deet'
p346
aS'amanda paul known friends aspaul'
p347
aS'monday night reorganizing lego collection'
p348
aS'home baked bread extra expensive olive salt'
p349
aS'every review seen movie seems making issue personal grooming film'
p350
asS'2013_19'
p351
(lp352
S'eated lamb chops good'
p353
aS'kona coffee creamy halfdipped shortbread cookies wowjustwow delicious'
p354
aS'case havent realized twitter thought dump rarely censor youll inner dirt'
p355
aS'weve managed take fucking hero reduce minstrel show hate world'
p356
aS'sodtf'
p357
aS'guys please prayer light candle throw bones sacrifice realtor whatev place running short time'
p358
asS'2013_18'
p359
(lp360
S'wanna laugh looking place burglar alarm goes waiting mins copsso farlovely response time'
p361
aS'think gonna moving houses apartments housing scene sucks entire scenario'
p362
aS'well would want inseminated twonks'
p363
aS'sleep elusive'
p364
asS'2012_51'
p365
(lp366
S'tyler gone tyler doesnt live anymore'
p367
aS'nerve clusters burned spine hopefully works alleviate back pain albeit temporarily'
p368
aS'wonder whose heart skipped beat emergency broadcast system test tonight apocalypsenow'
p369
aS'time oatmeal raisin cookies'
p370
aS'biggest pita screwed schedule hungry guess dinner time nomnomnom'
p371
aS'wowi actually heat'
p372
asS'2011_52'
p373
(lp374
S'happy years friends family year grant better times last blessed'
p375
aS'really wish youd call advice trying jumpstart apocalypse glad youre'
p376
aS'great start 2012 believe caught bleugh party well happy zombapocalypse'
p377
aS'sick guess plans changed making soup catering needs shabby suppose'
p378
aS'consider every lacey frilly special gift wrap harknell'
p379
aS'intelligent humor days 2011 today definitely penultimate'
p380
aS'attnall east coasters looking hottest geek party code jaborwhalkysays door'
p381
aS'thank everyone gave advice proud owner brand toyota first'
p382
aS'whats consensus toyota anyone issues'
p383
aS'read article smuggled animals plane totally taught share food'
p384
aS'want dont know whyim sucker movies'
p385
aS'want dont know'
p386
aS'friends long memoryfail'
p387
aS'weird radio station playing carl funky town followed paradise city'
p388
asS'2012_3'
p389
(lp390
S'rough today slept curtains shoveled sunshine driveway'
p391
aS'liotta goodfellas movies hard work'
p392
aS'bored someone please entertain'
p393
aS'score curtain rods clearance saved finally hanging rack also pray doesnt fall'
p394
aS'hugs stay strong feeling course dont give'
p395
aS'must getting excited getting blackout curtains getting controller'
p396
aS'pulpfiction callback fail'
p397
aS'hfcs tastes good veggie tastes good'
p398
aS'cant stand bloatware android suggestions best jail break'
p399
aS'matter many times watch episode mash radar goes home always chokes'
p400
aS'sorry guys hacked fault'
p401
aS'moment digennaropaul gmail'
p402
aS'theyve always abusive youre good deal'
p403
aS'babe havent learned tell already'
p404
asS'2012_33'
p405
(lp406
S'want dinner need ideas'
p407
aS'watched commercial natalie octomom hawking loan company called octoloansmh'
p408
aS'ahhhhhcaffeinated orange soda makes everything better'
p409
aS'watching bullet face weird trippy show sure like'
p410
aS'amazingly beautiful lightening storm right aprx strikes minute'
p411
aS'thought order host summer olympics'
p412
aS'hunh thought brazilian national anthem girls girls girls motley crue'
p413
aS'protocol queen elizabeth sing national anthem'
p414
aS'degrees thats weather thats cooking temperature'
p415
asS'2011_17'
p416
(lp417
S'damn even late nite snacks snobby panko crusted chicken fillet 7grain bread roasted pepps huumus burp'
p418
asS'2011_1'
p419
(lp420
S'biggest problems broken wait change flat 287s piscataway mins hmmm'
p421
asS'2013_5'
p422
(lp423
S'know guys stubble drives women crazy yeah shadow grizzly adams days'
p424
aS'youll never alone dont know good dogs guardian angels pass'
p425
aS'theres huge difference different special'
p426
aS'friends looking female employed mature roommate know important'
p427
aS'home procedure seems like went well mondo pain calling'
p428
asS'2013_4'
p429
(lp430
S'phoenix free voucher purchase select ebook amazon kindle store'
p431
aS'whenever overcome silly emotion like pride clean cats litter reminded proper place world'
p432
aS'since bored readnoshy decided sammich order fresh roll tomato romaine hbegg bacon mayomustard jelli'
p433
aS'besides porn else tumblr good'
p434
aS'bored sleepy bleugh'
p435
aS'read study saying single people sleep worse couples really news someone arms helps relax'
p436
aS'bought setee bought setee bonesorrystarship'
p437
aS'actually made cookies chocolatey cant'
p438
aS'entire dungeons dragons archive available online tabletop'
p439
aS'mean dont yodel sorry hear'
p440
aS'argument friend worried addicted coke turns really loves smells'
p441
asS'2013_7'
p442
(lp443
S'sonext pope peter roma something similar'
p444
asS'2013_6'
p445
(lp446
S'wowi awake 0900 today wrong righti really wanna people started game nerd'
p447
aS'anyone know maple syrup cookie recipe needs come much'
p448
aS'decided make maplebrown sugar cookies found promising recipes comparemodify cookies tonight'
p449
aS'weekend playing pathfinder game tomorrow running shadowrun game sunday'
p450
aS'people still allow tyler perry make movies'
p451
aS'favorite brand greek yogurt greek gods brand rich creamy great texture'
p452
aS'contention creationists evolutionists caused misunderstanding word'
p453
aS'shame kids dumb bombs smart lucky thing'
p454
aS'weird forgot nuked coffee remembered hash marks dont remember writing'
p455
aS'krispykreme life'
p456
aS'soooo disgusted contestants seasons faceoff ashamed call artist present crap'
p457
aS'alrightbite pillow going nonsequitor'
p458
aS'never superbowl unless looked forward playing upstate hackbowl'
p459
asS'2014_18'
p460
(lp461
S'expressscripts dont fill scrips anymore shouldve gotten card'
p462
asS'2014_19'
p463
(lp464
S'dawn female'
p465
aS'beati bellacosi'
p466
asS'2013_3'
p467
(lp468
S'faceoff look enough commercial breaks already meant convey drama many want change channel'
p469
aS'guysanyone living area right open couch foaf actor currently without roof'
p470
asS'2013_2'
p471
(lp472
S'theres whip theres dont wanna today lord lash says theres whip'
p473
aS'tricks remembering want info'
p474
aS'feel past sunday sure liking thus'
p475
aS'easiest explain shadowrunits version show leverage magic'
p476
aS'love invite speak 82324 supporting local indie artists'
p477
asS'2014_14'
p478
(lp479
S'funny following people guess good taste friends good taste wannabe friends'
p480
aS'brought attention shadowrun theres linux based smartlink cool'
p481
aS'jesus wept'
p482
aS'sonorth south korea firing upon othertheres'
p483
asS'2014_15'
p484
(lp485
S'prunes dehydrated plums juice come'
p486
aS'commercial show legend starring sean bean said dyou think afraid dying thats humor'
p487
asS'2014_16'
p488
(lp489
S'cops bastards really'
p490
aS'kwho point legit dark resources'
p491
aS'guys need another round reading recommendations anything mainstream religious horror thriller sword sorcery cyberpunk'
p492
aS'guys please link twits follow tell great useful'
p493
asS'2014_17'
p494
(lp495
S'need card reading dont like reading trade read read interested'
p496
asS'2013_9'
p497
(lp498
S'went arizona peace officer memorial monuments ranged vietnam memorial memorial heavy'
p499
aS'didja know ralph macchio morita karate kidfeel'
p500
aS'check know convince guest honor'
p501
aS'guys account variety porn gifs'
p502
aS'guys looking social media ninja wanna dogs quals'
p503
aS'looking social media ninja think youre qualified dogs'
p504
aS'anyone grab bowie album'
p505
aS'lets play game yearly physical everyone paypal guess malady year winner gets'
p506
aS'watched hercules wherein iollus woman consistently macking herc protected fashion show joke'
p507
aS'many problems encountered steven kings books could solved people effin jobs tween eyes'
p508
aS'ifihadglass wouldnt able rent note next month'
p509
aS'weirdtheres christian channel called daystarwonder dont know daystar translation lucifer'
p510
aS'yeah scratch still dont feel well'
p511
aS'every commercial focused reducing fever fever good body killing sick'
p512
aS'wasnt feeling well turns hungry late night breakfast'
p513
asS'2013_8'
p514
(lp515
S'okwhat fuck readability xoom'
p516
aS'regardless strong words hurt course much shot youre gonna chops still'
p517
aS'awwww shitshe gonna chicken slap gonna pound meat'
p518
aS'hello nurse'
p519
aS'forced make group runners game based superheroes mostly phys adepts wolvie'
p520
aS'cant seem warm today maybe crud maybe rain maybe love'
p521
aS'knows stop'
p522
aS'holy fuck show castle fucking amazing watching marathon damn'
p523
aS'hmmmi want sammich'
p524
asS'2014_12'
p525
(lp526
S'stop seeing kitty everywhere'
p527
asS'2014_13'
p528
(lp529
S'walk without rhythm wont attract wyrm'
p530
aS'dudejustwow'
p531
aS'officially launch tomorrow giant robot album music video filmed'
p532
asS'2010_39'
p533
(lp534
S'subscribed kvpgoths channel youtube'
p535
aS'subscribed azwomennetworkings channel youtube'
p536
aS'subscribed sacharoffms channel youtube'
p537
aS'subscribed benjaminwong09s channel youtube'
p538
aS'boondock saints right best line certainly illustrates versatility word love movie'
p539
aS'gonna sleep living pain sucks friends similar situation love understanding'
p540
asS'2014_8'
p541
(lp542
S'feeling depressed discombobulated disconnected less enough outside human contact must change'
p543
aS'uncomfortable bored tired uncomfortable bored hurt tired anxious uncomfortable bored also horny'
p544
asS'2014_9'
p545
(lp546
S'torrential rain today exhausted much pain sleep even meds sigh'
p547
aS'thine eyes upon field grow fucks notice thou barren'
p548
aS'deep convo brody kissing berry sexual assault hellz yeah wanna dont mean'
p549
aS'announcement made april game time tpcg'
p550
aS'baring soul getting naked taking silk gloves iron fists bookhelp'
p551
aS'weird past 24hrs slept deeper past years sixteen hours feeling much better today weird healing coma maybe'
p552
asS'2014_6'
p553
(lp554
S'attention technophiles hiring looking buyer affinity gaming gadgets could'
p555
asS'2014_7'
p556
(lp557
S'make people happy happy'
p558
aS'guys wanted remind although might love love love yall happy 14th'
p559
aS'fuckeither lost filling another tooth crack left side adjacent directly enough please'
p560
asS'2014_4'
p561
(lp562
S'would kind enough juxtapose hour'
p563
aS'heyhappy birthday'
p564
aS'needs someone actually cares teach live'
p565
aS'please please please stop giving juvenile delinquent publicity stop'
p566
aS'hayley send eric info event know thing thanks expressing interest artists artists'
p567
aS'ladies wall recent talk body hair women yall preferences body hair'
p568
aS'liked video thank corrections officers'
p569
aS'root benefits drawbacks please'
p570
aS'well stopped corroborated listened maybe saying cold cold'
p571
asS'2014_5'
p572
(lp573
S'wanted finished scenemy players plowed thru less game minute lego shadowrun'
p574
aS'aware couple phone calls aint happening today pain crescendo plus depression cave'
p575
aS'thanks omae'
p576
aS'knew wasnt feeling well yesterday sure wasnt expecting asleep dont feel much better today shall'
p577
aS'anyone recommendations shadowrun returns mods sites specific mods everything'
p578
asS'2014_2'
p579
(lp580
S'want love unconditionally loyal till dies best breed called'
p581
aS'apparently theres radical feminist getting news coverage insistence penis vagina rape yeah'
p582
aS'perfectly clear goes different shows notch panelist'
p583
aS'theres party game called infomercial someone shouts whatev infomercial'
p584
aS'would interested guests event artists artists'
p585
aS'conchair owns actively fighting harassment talk'
p586
aS'would hire couldnt trust staff corners amirite'
p587
aS'sure'
p588
aS'help currently helped develop policies'
p589
aS'need details might interested'
p590
aS'show intelligence features technomancer shadowrun'
p591
aS'cant dmreply unless youre following'
p592
aS'thats good enough extra bedroom lady always cook dinner'
p593
aS'since birthday expect inbox overflowing soon boobie pics right please'
p594
aS'manual best employee manual know work trust think best'
p595
aS'youll need call dont think know youll vouch good enough'
p596
aS'arizona phoenix exact'
p597
asS'2014_3'
p598
(lp599
S'admit ignorant note know ashamed proud brethren'
p600
aS'know australia help dont much room love stability'
p601
aS'research takes line hvac server stacks pros sigh possible'
p602
aS'apparently continually upload lego shadowrun creations next buildings running'
p603
aS'lego version shadowrun rotodrone really digging using lego pieces game bwah'
p604
aS'pizza personal sized hard enough'
p605
aS'remember forte problem solver money never biggest problem idea huge'
p606
aS'yeah open internet kickstarter would bending backwards'
p607
aS'want know small group make open'
p608
aS'really interested neutrality would small group start open'
p609
aS'stop thinking suicide permanent solution temporary problem need talk someone listen'
p610
asS'2014_1'
p611
(lp612
S'artist know would love come artists artists check site please'
p613
aS'thank thought lost nerd crew hated thought beautiful bland like marzipan'
p614
aS'realizedwith hair slicked back sunglasses kinda look like randy macho savage'
p615
aS'used crown royale plastic storage bins transport dice work well'
p616
aS'wonderingyou talking veal sparms chix sparms eggplant sparms'
p617
aS'think might clysm'
p618
aS'read full post refer dice pools combine skill attribute usually pretty quickly'
p619
aS'happy help need'
p620
aS'whats wrong'
p621
aS'worries quiet holiday miss partying dont'
p622
aS'really shook pillars heaven didnt wang'
p623
aS'know'
p624
aS'free'
p625
aS'jsyk highlight whole weekend thanks indulging'
p626
aS'dudeyour grumpy showing'
p627
asS'2014_29'
p628
(lp629
S'dont drug commercials time serious talk wyour people usually talk clowns'
p630
aS'friend remind really kinda hurts makes feel like skeeze'
p631
aS'waityour geez means closer friends parents friends'
p632
aS'retired make people happy misery runmanage conventions'
p633
asS'2014_28'
p634
(lp635
S'folks wanna send money forward crippled broke donate educational programs'
p636
aS'still havent come name nickname trouble need sammi start along'
p637
aS'good things week dealing mucho pain humidity cream exhausted 2300 awake 0800'
p638
asS'2014_20'
p639
(lp640
S'time prove friends youre worth damn sometimes means dyingsometimes means killing lotta peoplesincity'
p641
aS'weird treat pets better pets dont care color gender care love'
p642
asS'2014_25'
p643
(lp644
S'keep sure condition well trust never woman enjoys burns'
p645
aS'adobes ipad stylus ruler bring digital design physical world'
p646
aS'nova dude congrats youre gonna rock helmet glad back scifi love voicing nerdlove'
p647
aS'litmus test horror movies stars kier movie movie amazingly'
p648
aS'kinda makes wonder long industry coops tech'
p649
aS'wowim much discomfort angry anyone particular really wanna punch someone'
p650
aS'badges makerfaire isabella michel'
p651
aS'always wondered judeochristian love prohibit clergy getting married'
p652
aS'always feel like crap dming carrying case supplies shouldnt screw badly bending much'
p653
asS'2014_24'
p654
(lp655
S'learned something interesting tonight nova entire chainlife starts earth poops phytoplankton poop fish'
p656
aS'three days back still hasnt recovered walking around supposed make living cant fucking walk'
p657
asS'2014_27'
p658
(lp659
S'speak inviting crew guests think youd love'
p660
aS'metalheads according feelgoods real first name cheating'
p661
asS'2010_37'
p662
(lp663
S'thanks concern fine tornado skipped mmfcl'
p664
aS'subscribed rross0520s channel youtube'
p665
aS'subscribed preacherman01s channel youtube'
p666
aS'subscribed eiregirl317s channel youtube'
p667
aS'subscribed njsurvivors channel youtube'
p668
aS'subscribed ldysliprs channel youtube'
p669
aS'subscribed whatevergoestvs channel youtube'
p670
aS'subscribed spryngypoos channel youtube'
p671
aS'subscribed hisdirtysecrets channel youtube'
p672
aS'subscribed deathofawolfs channel youtube'
p673
aS'subscribed amunnichs channel youtube'
p674
aS'subscribed fireheart17s channel youtube'
p675
aS'subscribed doc82s channel youtube'
p676
aS'subscribed walkinthewoodsllcs channel youtube'
p677
aS'subscribed smcgraw0108s channel youtube'
p678
aS'subscribed wconstantines channel youtube'
p679
aS'subscribed tdp4s channel youtube'
p680
aS'subscribed coant666s channel youtube'
p681
aS'finally found easy cheap tether easytether'
p682
asS'2010_14'
p683
(lp684
S'heya shows done wanna call cool'
p685
asS'2010_15'
p686
(lp687
S'usually love spikes deadliest warrior right mafia yakuza wouldnt call either warriors terms theyre'
p688
aS'rule surviving zombiepocalypse cops military guys although acting like entitled asses keep alive'
p689
aS'rule surviving zombiepocalypse invited group acts like dick killed kill'
p690
aS'blah blah blahbitty blah gotta sack early something familial obligations gotta luvum'
p691
aS'wanted flummoxed found chatroullette night like'
p692
aS'yeah giving away ipad follow retweet enter details'
p693
asS'2010_18'
p694
(lp695
S'subscribed ac1o1s channel youtube'
p696
asS'2010_19'
p697
(lp698
g49
aS'reason sitting belt hours obama landing diaf'
p699
aS'subscribed bowlingforsoupvevos channel youtube'
p700
aS'dude sorry still trying work thing peace love'
p701
aS'katie morgan porn star crush vapid girl favorite fake personality especially know fake'
p702
asS'2012_39'
p703
(lp704
S'welcome desert real'
p705
aS'yeah looks like yahoo email hacked dont click links'
p706
aS'made smoking cigs midnight rolled around monster cravings wonder'
p707
aS'funk tango blame'
p708
aS'well least cheaper going therapist'
p709
aS'plane landed good flight grand canyon looks amazing 30000 feet'
p710
aS'airport boarding hour maybe time wait stupid line coffee'
p711
aS'weirdest mashup head duran duran reflex shrek dulac seems work'
p712
aS'thank brother'
p713
aS'another early rise airport 0730 missing every1 already much love great every1'
p714
asS'2012_49'
p715
(lp716
S'tonight grateful friendships rekindled family remains family even years apart'
p717
aS'today picked kona broke french press sitting outside chillin smoke good cuppa'
p718
aS'love sttng worf soooo'
p719
aS'second round shots spine wasnt chill last time said push spasming muscle'
p720
aS'anything joss whedon'
p721
aS'alright days actually able wake early last night went early gods sigh'
p722
aS'chiller premiering twilight zone havent excited series long time whoo hoooo'
p723
aS'glad kept keeping glenn'
p724
asS'2012_48'
p725
(lp726
S'possible feel sweaty actually cold clammy morphine helluva drug'
p727
aS'come kohagengive people'
p728
aS'questionus military class uniformsare neckties regular clipon like police ties'
p729
asS'2012_45'
p730
(lp731
S'today iswas pain scale days since moved thats better'
p732
aS'michael madsen species holding sideways really hoped better'
p733
aS'part worth watching last underworld moviethe girl completely badass fight scenes pretty solid'
p734
aS'apparently turning lawn grumpy'
p735
aS'time last year packing life head west seems like movers lost'
p736
aS'pseudo treasure hunt find polling place voted shut hell'
p737
asS'2012_44'
p738
(lp739
S'face tell love face tell true'
p740
aS'raise money help pedro correa rebuild youcaring'
p741
aS'figure since getting spiked spine tomorrow fresh bread waiting'
p742
aS'actually lego know please another afol would like give good home'
p743
aS'waitr people really saying obama created sandy help reelection powerful would suicide vote'
p744
aS'happy halloween lovelies'
p745
aS'ummmwith subway system completely flooded possible hidden city inhabitants survived'
p746
aS'heard rest crew greg'
p747
aS'heard friendsfamily havent checked somewhere please'
p748
asS'2012_47'
p749
(lp750
S'hmmmcould fact poor impulse control making cookies midnight awesome'
p751
aS'wowit really amazing second dampd movie'
p752
aS'wait friggin minutedid hear dmcs tricky applebees commercial shit'
p753
aS'well friend invites holiday kinda required make something totally amazing arent'
p754
aS'layers baked hazelnut meringue almond pastry creme chocolate ganache yummy make scratch'
p755
aS'making dacquoise bring buddies house tomorrow pastry cream made chilling meringue cooling oven'
p756
asS'2012_46'
p757
(lp758
S'rather interesting keep manifesting idea become priest practicing catholic desire become'
p759
aS'much coverage beibers break still relevant'
p760
aS'ever notice earlys space ship looks like head cthulu firefly'
p761
aS'gotta heart gold firefly sexiest scenes ever seen'
p762
asS'2012_41'
p763
(lp764
S'spoilers maybe wowguess finally found sofia'
p765
aS'wish keurig coffee makers late want coffee sighhey santababy hint hint'
p766
aS'decided want open record store empire records plan incorporate digital start money'
p767
aS'sometimes frustrated wanna bang head wall feel wall'
p768
asS'2012_40'
p769
(lp770
S'watching special universal speed distance smart barely comprehensible serious brain cramp'
p771
aS'oreo fudge creams sweet rich much'
p772
aS'hard time watching jonah hill movies schlub routine makes uncomfortable perhaps thats telling'
p773
aS'make cream little'
p774
aS'cartoon band dethklokgorillaz tour'
p775
asS'2012_43'
p776
(lp777
S'wonder tazer cattle prod would work zombie movement isnt possible without electrical impulses'
p778
aS'mistake clocks change next week'
p779
aS'know like back work eventually security form verboten think look'
p780
aS'bread came totally delish experiment well take know noone cares'
p781
aS'minutes fresh bread finished'
p782
aS'using bread machine first time lets works'
p783
aS'realized first halloween since dont even invitation party'
p784
aS'think weve every horror movie cliche trope minutes'
p785
aS'holy hellcan worse background music ever fucking stop'
p786
aS'watching mockingbird lane actually insulted studio thought lame enough want instead something good'
p787
aS'miss donkey'
p788
aS'dont hate reschedule abortion price right shitty showcase'
p789
aS'watching species really appreciate conveniently placed ford econorape'
p790
aS'seriously best combos whole grain bread caramelized onions applewood smoked bacon american mozzarella cheese'
p791
aS'yeah midnight snack grilled cheese sandwiches caramelized onions bacon'
p792
aS'name elmer fudd mansion yacht'
p793
asS'2012_42'
p794
(lp795
S'apparently made olive love awwwww'
p796
aS'well injection lost potency pain back vengeance'
p797
aS'really wish able open windows place gorgeous night dont screens theres'
p798
aS'close eyes hell'
p799
aS'write short story background charrie playing hard time starting invested'
p800
aS'wowghost rider hilariously horrible movie cage plays convincing lunatic good movie'
p801
aS'procedure yesterday drained wound sleeping hours wonder wouldve made diff sedation'
p802
aS'cookbooks recipes well created ganked print'
p803
aS'know weird anyone else ever gotten urge acted notebooks pens middle night'
p804
aS'well whole bunch suck second round weeks'
p805
aS'nutella cookies baking finish taste good post pics recipe nervousabouttomorrowsprocedure'
p806
aS'msnbc really state felix broke speed light science'
p807
aS'found beef jerky takes imperativeness nicfit'
p808
asS'2014_34'
p809
(lp810
S'staffers attendees masseurs tension neck shoulders really assist'
p811
aS'straight flight layover'
p812
aS'well hotel lets hope leave open year plan thursday night'
p813
asS'2014_35'
p814
(lp815
S'never want cost prohibitive factor attending next time contact first'
p816
aS'interventioncon review made staff tear'
p817
aS'thats family people'
p818
asS'2014_32'
p819
(lp820
S'meet puzzle mastermind designs cons hackable badges'
p821
aS'followers friends friends interested guesting interventioncon 2015 starting early'
p822
aS'watching bringiton really gymnastic work amazing moves daughters gymnast easy'
p823
asS'2014_33'
p824
(lp825
S'yeah still dont think life'
p826
aS'depends brown cishetero certain places yeah used'
p827
aS'youre east coast week inviting event 2224 interventionconcom geek heaven'
p828
aS'registration ends tonight midnight intervention'
p829
asS'2012_35'
p830
(lp831
S'whats problem thought hardcore'
p832
aS'found 2day people deathly allergic garlic imagine like allergic importent'
p833
aS'hmmmmunmarked black helicopter flying overhead mustve circled block half dozen times counting'
p834
aS'yeah guys come well check area'
p835
aS'keep blonde highlights least damn sexay'
p836
aS'geez stress levels roof could reiki help centering please'
p837
aS'hark freelancers page comic artist needed pencilsinks horror comic send portfolio links'
p838
aS'watched curiosity mins terror video renewed faith pull wile coyote shit well'
p839
asS'2014_39'
p840
(lp841
S'grant need votes within days please click retweet'
p842
asS'2010_8'
p843
(lp844
S'roast split soup dinner cooking since smells worth'
p845
aS'well appears found body andrew koenig vancouver park sympathy family'
p846
asS'2010_9'
p847
(lp848
S'seems like gentleman midwest claiming owns right rockstarradio lets someone'
p849
asS'2011_51'
p850
(lp851
S'people asked want combo birthdayhouse warming present looking dodge charger amazon gift cards xoxo'
p852
aS'possibly best snack ever'
p853
aS'merry christmas blessed gods grant peace deserve'
p854
aS'christmas miss many people yeah great couldnt bring yall'
p855
aS'christmas knew close didnt realize merry christmas familyfriends'
p856
aS'wowaccording buzzworthy feel like live thx4thepressuregaiz'
p857
aS'guys buying furniture dressers ikea worth please elaborate'
p858
aS'place starting shape nicely kitchen completely unpacked tonight important room'
p859
aS'called crying guess likes xmas prezzie safe arizona thanks love gonna miss'
p860
aS'finally arizona hours'
p861
aS'welcome mexico'
p862
aS'highways open hour clear wish luck home bust'
p863
aS'miles west already snow weather channel storm passing 0500 hope 1100 road reopen'
p864
aS'lost 2011 jongil muammar qaddafi family circus creator keane osama laden pretty good year right'
p865
aS'first carls burger best fast food burger ever maybe starving'
p866
aS'mexico'
p867
aS'know events past week curious feel like monteque'
p868
aS'looks like gonna stuck santa rosa tuesday blizzard right blizzard frigging mexico'
p869
aS'arrived hotel mexico maybe take jacuzzi back begging well massage'
p870
aS'okin mexico love last miles'
p871
asS'2010_2'
p872
(lp873
S'possible someone house able install door lock properly'
p874
asS'2010_3'
p875
(lp876
S'alright switched driving enter carolina cakewalk drive boring'
p877
aS'sois anyone tristate area familiar herbologyalchemy willingable teach'
p878
aS'leopard print turn fashionista slept'
p879
aS'heroes update text message show still'
p880
aS'obscene people getting shot'
p881
aS'watching boys usathe editing makes even funnier cant help wonder america naked body obscene'
p882
asS'2011_50'
p883
(lp884
S'miles texas sleep whole lotta cattle mooo'
p885
aS'stopped city finally starbucks havent good cuppa days ready panhandle making good time'
p886
aS'road santa rosa'
p887
aS'looks like racing weather'
p888
aS'kinda staying casino hotel dont energy casino'
p889
aS'oklahoma done least night dealt back spasm last miles'
p890
aS'case thought exaggerating'
p891
aS'okso lost hour sign opening'
p892
aS'lane closed lane major trucking route smart'
p893
aS'really stopped cant road work'
p894
aS'arkansas traffic good'
p895
aS'road oklahoma'
p896
aS'well everything tastes good short order cook watch'
p897
aS'waffle house chain greasy spoons wonder gonna regret eating tomorrow ohgot back'
p898
aS'rock seems cracked catalytic converter'
p899
aS'hate sitting waiting mechanic tell much itll cost assraped least everyone polite'
p900
aS'lord stuck nashville check engine light think rock damage tire'
p901
aS'fixed staying nashville tonight weather dont eight hours driving left today'
p902
aS'sending email extra'
p903
aS'either found amazing pizza nashville really hungry anyone else familiar taste italy discuss'
p904
aS'upside tire getting destroyed searching culprit walking memphis'
p905
aS'finally hotel major blowout highway tire wrecked first thing tomorrow replaced'
p906
aS'shifted central time'
p907
aS'forgot time zone shift still hours itll'
p908
aS'tennessee still alive'
p909
aS'someone signed ashley madison knock'
p910
aS'leaving great state stopping tonight nashville hopefully early enough something'
p911
aS'arrived danville hours driving completed hours driving left'
p912
aS'virginia route knownot somuch kicks'
p913
aS'well exciting neck pain travelling right used left side sigh gettingoldsux'
p914
aS'maryland'
p915
aS'delaware traffic smooth'
p916
aS'fully rested warms virginia already behind schedule better late dead'
p917
aS'finally road think stopping tonight maryland didnt much sleep last night wanna call muah'
p918
aS'movers'
p919
aS'todays'
p920
aS'alright hours sleep watching movers drive hours guys know leave arrive'
p921
aS'movers coming tomorrow morning sealing last boxes'
p922
asS'2010_4'
p923
(lp924
S'geek arent damn loves sports gorgeous geek swoon'
p925
aS'think margaret thatcher cool enough continue'
p926
aS'thanks posting complete newb comes twitter pretend 1337'
p927
asS'2010_5'
p928
(lp929
S'going sigil tomorrow send help around please'
p930
asS'2012_8'
p931
(lp932
S'degrees today absolutely gorgeous wish'
p933
aS'still bugs hell fuck matter besides deus machina'
p934
aS'wonder kickstarter worth utilizing raise money open salumeria state needs doesnt'
p935
aS'store need piece cake probably'
p936
aS'sozydrate comes little glass vial'
p937
aS'remind time registeror donate'
p938
aS'know wrong whenever someone obnoxiously spelled name like donna reflect upon stupidity'
p939
aS'today marks week chantix last smoke sigh'
p940
aS'cant enough eminem especially afraid love truth'
p941
aS'leprous armadillo instead would factor fitty'
p942
aS'know armadillos carry leprosy weird'
p943
aS'homemade pulled pork cole slaw dinner house smells yummy'
p944
aS'sounds amazingbut ever happened good omens movie project'
p945
asS'2012_9'
p946
(lp947
S'whiskas food commercial unbearably adorable'
p948
aS'admit sometimes squeeze toothpaste tube middle'
p949
aS'really weird feeling tonight anyone handle whats going weavewise mean'
p950
aS'heard tornado'
p951
aS'yesterday better credit whole country greece cant home loan'
p952
aS'oktaking account math stuff devils child would conceived week order born'
p953
aS'last train clarksville pictures commence really think something funny'
p954
aS'damn love girl scout samoa cookies need recipe make fresh'
p955
aS'friggin psyched unsubscribe junk emails instant'
p956
aS'rich white stealing poor essence america right'
p957
aS'yeah amusing kevin james really cant carry movie'
p958
aS'awfully windy today coupled pain tells hurricane tornado cant happen confused'
p959
aS'told love body would hold'
p960
aS'nine hells movie opened handful venues sweep oscars setup call foul'
p961
aS'wary believe government trying control minds oscars else explains strange background sound'
p962
asS'2012_4'
p963
(lp964
S'really warm today gotta'
p965
aS'quit smoking good time want need cant control anymore realized never could'
p966
aS'hook would easier didnt drag backdrop figure using whats hand'
p967
aS'someone held human heart hand tell groove indeed heart dripped shoes'
p968
aS'guess lucas give fans fuck retires episode rereleased'
p969
aS'baby seals'
p970
aS'wowsandra bullock forces nature gorgeous wait meant life'
p971
aS'picked lego imperial shuttle havent played legos years pieces gonna'
p972
aS'movie reminds much scared shootinvestigation gotta watch grave encounters'
p973
aS'attn buddies paranormal field rent movie called grave encounters wont anything roflmao'
p974
aS'miss donkey'
p975
asS'2012_5'
p976
(lp977
S'preemptively giants'
p978
aS'ahhthe infamous glitter bomb shame shouldve worn protection'
p979
aS'whew exhausted think actually crash early must getting peace love rock roll'
p980
aS'people express direct causality invention light switch'
p981
aS'went take moment recommend pagetell different'
p982
aS'getting ready spend night hospital another sleep study order insurance replace cpap'
p983
aS'looking filmmakers want show'
p984
aS'guys heart check seal team died helicopter crash months'
p985
aS'hope dont bill murrayd tomorrow'
p986
aS'artist vendor table applications open'
p987
aS'ever hung would awesome world would prolly totallyworthit'
p988
aS'wowwatching celebrity cook remember taylor dayne yeahshe looks like janice muppets plasticsurgerynightmares'
p989
asS'2012_6'
p990
(lp991
S'crash wanna send huge birthday homegirl much chica'
p992
aS'found good donut shop bosa donuts chandler beetus come'
p993
aS'dunkin donuts coffee suck state usually great coffee arizona much'
p994
aS'found place excellent wings crazy rest menu medium wings delish native yorker tempe'
p995
aS'wonder ensure drink five hour energy supplement havent cobranded product'
p996
aS'million followers thanks much following guys best hoodies'
p997
aS'theyre called trolls argue know socially interact'
p998
aS'definition loser arrested 2009 threesome inflatable dolls'
p999
aS'sure even want'
p1000
aS'stef come well smoke drink spank youre still muah'
p1001
aS'fuck song toxic stuck head'
p1002
aS'theres kinda breakfast cookie aisle really thanks stick usual oreos'
p1003
aS'smoke hour'
p1004
aS'wonder evil shredder attacks turtle boys dont slack'
p1005
aS'voracious reader trying girl dragon tattoo beating mainly swenglish translation hurts'
p1006
aS'witness bradys career'
p1007
asS'2012_7'
p1008
(lp1009
S'thinks angry thats youre friend stop finger menses attention'
p1010
aS'nice lady went flea nice lvng back door grabbed girl scout cookies samoas'
p1011
aS'kool gang opening halen garden discuss'
p1012
aS'dont mels diner dont phoenix'
p1013
aS'anybody else remember vera tell days serve againsome lonely'
p1014
aS'starting think move effed internal barometer pain last days tonight finally rained'
p1015
aS'history show jousting rennie friends must hate unwatchable'
p1016
aS'told interesting voice wonder means look voice acting maybe start singing barber seville'
p1017
aS'jcpenney catering workers comp welfare demographic best prices every friday nice'
p1018
aS'aggression mood swings'
p1019
aS'picked chantix today starting tomorrow morning last week smoking starts tomorrow couldnt alone'
p1020
aS'people barely awake enough snooze alarm walk across room shut power back'
p1021
aS'quitter cottontease'
p1022
aS'aint money aint guess goin swing real fast'
p1023
aS'wonder many storm troopers took destruction death star escape life start naboo'
p1024
aS'ants pants need dance'
p1025
asS'2010_21'
p1026
(lp1027
S'today thoughts hopes prayers appreciated'
p1028
aS'lost deep guarantee people wont'
p1029
asS'2012_1'
p1030
(lp1031
S'talking masturbating general teasing james public'
p1032
aS'take batteries public trollop'
p1033
aS'kinda forgot good book starship troopers reread interesting little common movie'
p1034
aS'places you39ll burning'
p1035
aS'celeb crush dina meyer tasty'
p1036
aS'came correctly hetero female'
p1037
aS'wierder urge 10pm make homemade potatoleek soup actually gonna make great wife'
p1038
aS'games slap someone nuts squirrel'
p1039
aS'want birthday heidi needs know'
p1040
aS'politician committed destroying world'
p1041
aS'wanted steal away read marriage blog realized futility fantasy'
p1042
aS'since share birthday mean share presents'
p1043
aS'make sure steer clear smuggler bunnies dont want wake cooch filled illegal carrots'
p1044
asS'2012_2'
p1045
(lp1046
S'last postyeah good sounds'
p1047
aS'jerrys makes velvet cake cream velvet cake batter cream pieces cream cheese frosting swirl'
p1048
aS'understand tried follow drew barrymore lucy many fakes couldnt tell ones correct'
p1049
aS'glock model sure hell aint york thank heidi lovely birthday prezzie'
p1050
aS'swooping facebookers tweeple'
p1051
aS'gets rather chilly valley dessert state brrr'
p1052
aS'hope worldly friends help right israel exists displaces native population'
p1053
aS'went clean front yard dead cacti branches needed removed suckers thorns went right gloves'
p1054
aS'know music needs heavy metal symphonic rock punk flair nuwave funk anyone'
p1055
aS'intellectually arousing sayin'
p1056
aS'event horizon amazing horror movie originally uses school tricks'
p1057
aS'like pizza like like women eight pieces smothered pepperoni yeah'
p1058
aS'huzzah good lady'
p1059
aS'fullon walk fuck really hurts hobble'
p1060
aS'blue cheese reminds feet eating habits need examined'
p1061
aS'rememberif youre enough parent youre'
p1062
asS'2010_22'
p1063
(lp1064
S'mens magazine half naked pics dudes chicks'
p1065
aS'thunderstorms next days long right days'
p1066
aS'flight arrived alive'
p1067
aS'airport headin degree stormy florida hoorah'
p1068
aS'bubbahotep starz comedy'
p1069
aS'finished making watermelonlime sorbet good recipe yummy'
p1070
aS'seems incompetance isnt limited games'
p1071
aS'guess heading event'
p1072
asS'2013_51'
p1073
(lp1074
S'seems like biggest problem know much artist beliefs politics proclivities artist'
p1075
asS'2013_50'
p1076
(lp1077
S'players futzing phones game feel like find games'
p1078
aS'dear great boobs heart mind sexiest parts'
p1079
aS'need call'
p1080
asS'2010_49'
p1081
(lp1082
S'always knew friends awesome never realized truly awesome actually love guys'
p1083
asS'2013_52'
p1084
(lp1085
S'dont know amuses muchrt charged bestiality free sheep didnt testify court'
p1086
aS'omae opinions best shadowrun returns mods'
p1087
aS'naughtya gonna spend joint birthday year stumped'
p1088
aS'hope realize sending ache retrieve optical drive foreshadowing'
p1089
aS'didnt nanites taken created nose'
p1090
aS'take happened jack plan'
p1091
aS'well overall nanites gained sentience hives people infected'
p1092
aS'evil dont wanna crush want think'
p1093
aS'read deeper fall lady never know sigh'
p1094
aS'sounds like great idea lets trending people care alone'
p1095
aS'take phoenix lack love therapist anybody portland'
p1096
aS'watching original wonder woman movie meta lynda carter really dated horrible acting cast laugh love'
p1097
aS'meant gilded youre friend right locked coat check'
p1098
aS'better hurt game'
p1099
aS'need design ideas baddest magic enhanced cyber zombie shadowrun game asking hive mind'
p1100
aS'decided must utilikilt cant afford clothes right wants birthday next week'
p1101
aS'always keep promises merry xmas'
p1102
aS'youre nicole twisted world right'
p1103
aS'bored pain need someone entertain please dance monkees dance'
p1104
aS'hope yall amazing holiday least amazing wednesday'
p1105
aS'anymore least situation shouldnt shouldve known better'
p1106
aS'make eggnog make eggnog question'
p1107
aS'nothing sorry youd like talk willing morningafternoon'
p1108
aS'hear role reversal thrown laughed cant raped dontcha know toughguy'
p1109
aS'note self cook anything well'
p1110
aS'think actually gonna keep hates need peanut gallery chime please'
p1111
asS'2012_52'
p1112
(lp1113
S'todays procedure unreasonably nervous wonder actually able sleep tonight sigh'
p1114
aS'threw together nice rustic oatmeal bread timer boom still surprised little time money takes'
p1115
aS'well thought looked valley fever actually fits bill better fmesideways'
p1116
asS'2012_50'
p1117
(lp1118
S'anyone roku roku something comparable theyre looking'
p1119
aS'wholefoods mcconnels dutch chocolate small batch cream best thing ever mouth wasnt part woman'
p1120
aS'dudethis greatest gamer swag site ever hint hint hint'
p1121
aS'make newton please consider part angel action'
p1122
aS'important live life westboro baptists would want picket funeral thats'
p1123
aS'dudethat setup looks awesome badly break bank'
p1124
aS'lobby thief diehard always reminds guess really want drug'
p1125
aS'spasm right shoulder bladesfuck mefuck hard'
p1126
aS'used love rain makes crawl ball whimper'
p1127
aS'121212concert eddie vedder singing roger waters amazing'
p1128
aS'always found amazing notld movies noone graveyard ever buried coffin'
p1129
aS'need find real life lizbeth salandar fell love character'
p1130
aS'know xander pretty decent fighter wasnt running face first fist buffynerd'
p1131
aS'well took full ginger snap cookies came delish'
p1132
asS'2010_44'
p1133
(lp1134
S'monday want'
p1135
aS'original chaney version phantom opera silent masterpiece'
p1136
asS'2010_43'
p1137
(lp1138
S'anyone ipad iphone sale trade'
p1139
aS'thing dont hellraiser series bdsm portrayed evil would qualify heaven many friends'
p1140
asS'2010_40'
p1141
(lp1142
S'drama follows place never start shit damn knack ending'
p1143
aS'drama follows place never start shit damn knnack ending'
p1144
aS'finally'
p1145
ag49
aS'feeling kinda today rain tonight head amazing drum solo'
p1146
asS'2010_25'
p1147
(lp1148
S'subscribed righttowatch7s channel youtube'
p1149
aS'subscribed sullengirl0108s channel youtube'
p1150
aS'subscribed wickedjeffmachs channel youtube'
p1151
aS'subscribed jettpigs channel youtube'
p1152
aS'subscribed rouxbes channel youtube'
p1153
aS'heading city greenmarket anyone around'
p1154
asS'2010_24'
p1155
(lp1156
S'friends recommend good general practice doctor'
p1157
aS'love penn teller bullshit'
p1158
aS'liked youtube video spwf katie quando live'
p1159
aS'shabby'
p1160
aS'alright plane'
p1161
asS'2010_47'
p1162
(lp1163
S'thanksgiving overheats take shop know thankful also know thankful'
p1164
asS'2010_20'
p1165
(lp1166
S'almost brawl drunk college reststop kinda wish friend didnt grab'
p1167
aS'cant back hang provide ticket come hang'
p1168
aS'thing rich famous lady gaga jason second video cams'
p1169
asS'2011_35'
p1170
(lp1171
S'really implement special color font designate sarcasm txts tweets'
p1172
aS'every time depeche mode pops ipod mentally translate style fish'
p1173
aS'sunday plan warcrafting meet eitrigg server 1300 quest'
p1174
aS'charles schultz snoopy milne pooh sayin'
p1175
aS'another letter retirement system today said retirement approved think denied'
p1176
aS'butters'
p1177
aS'live visiting soon admission american museum natural history'
p1178
aS'mutha fuck shit letter retirement board came disabled didnt denied holy batman'
p1179
aS'remember liking writings christi golden hard time getting book maybe source material'
p1180
aS'schedule'
p1181
aS'outta sorts pain fine thanks'
p1182
aS'miss girl howve'
p1183
aS'little'
p1184
aS'anyone want come thursday brighton free'
p1185
aS'know naming team first place impressive month season collegefootball'
p1186
asS'2011_34'
p1187
(lp1188
S'love many homophobes take change lightbulb none fear change even makes world brighter'
p1189
aS'even irene passed govt still warning probable power outages confused'
p1190
aS'cant room call hilton'
p1191
aS'guys made night woke take inventory play mortal kombat'
p1192
aS'great idea many canned goods good local food pantries dont'
p1193
aS'guys still alive bsmt strted flood already trying sleep soon praying dont wake sitch well'
p1194
aS'girl napping bored wonder'
p1195
aS'boss says twitter waste time give give dont'
p1196
aS'looks like bloomburg exerted influence chestbumped irene away city straight'
p1197
aS'basement brings bugs yard thats right better'
p1198
aS'hide wives hide husbands theys raining'
p1199
aS'exhausted pain stiff wood chipper badly right'
p1200
aS'solutions every problem accept change leave cant accept change cant change leave'
p1201
aS'finished making banana bread gotta sleep early irene prep yall know survivei wanna video whole thing'
p1202
aS'hows film noir andor late night kung flick burlyq show'
p1203
aS'know rent text books kindleamazon also library books kindle'
p1204
aS'guys think sold block checking open space'
p1205
aS'took percoset today switched opana shit strong'
p1206
aS'days left discount naow'
p1207
aS'theyre evacuating capitol doesnt sound like natural earthquake'
p1208
asS'2011_37'
p1209
(lp1210
S'read couple books question wanna hook'
p1211
aS'mddcva getting paid blog dont waste time social media freebies'
p1212
aS'sounds like interesting costume thought modest'
p1213
aS'stop stretch grabbed cuppa back road hours left trek'
p1214
aS'stopped lunch hours'
p1215
aS'headed intervention everyone around wonder forgot pack time'
p1216
asS'2011_36'
p1217
(lp1218
S'syfy legionnaires wearing sweatpants movie cyclops cheap even syfy'
p1219
aS'know night someone passes around weaponized hallucinogins'
p1220
aS'almost 0400 cant sleep hurts much amount money worth'
p1221
aS'last change donate badge mailed badges prepared mailing'
p1222
aS'realized pain walk hunched like sharon wheres percoset'
p1223
aS'found meds break thru pain street value junkiesarerichertheniam'
p1224
aS'trojan introduces one\xe2\x80\x99s pleasure condoms bitter resentful couples onionrelationships'
p1225
asS'2011_31'
p1226
(lp1227
S'looking expert level wordpress teach sept'
p1228
asS'2011_30'
p1229
(lp1230
S'wait rudy giuliani hosting week network'
p1231
aS'happy birthday coming geek kinda like ricky martin coming justsayin'
p1232
aS'anyone believe experience avatar serious question details'
p1233
aS'argh constantly need synced guess done night ambien'
p1234
aS'thing concerned never says worshiper cthulu'
p1235
aS'america know completely destroyed within next year thinking along lines shadow cool'
p1236
aS'island appt done 1430 wanna hang'
p1237
asS'2011_33'
p1238
(lp1239
S'month reactivating account think finally macros reset think'
p1240
aS'hmmmbehind background noise strangely quiet evening hackles'
p1241
aS'starting neuromancer havent read since junior high amazing still reads current'
p1242
aS'tell panic thats'
p1243
aS'finished asongoficeandfire didnt half coming damn good read'
p1244
aS'peekaboo wrote cool article dueling analogs interventioncon'
p1245
aS'starveling starveling look like'
p1246
aS'starveling starveling look like'
p1247
aS'youve scarred bristling weapons clap back drinks'
p1248
aS'come vadcmd geeks lets hang well'
p1249
aS'deadline advertise book hotel booking enabler levels real soon'
p1250
aS'security searches cars make sure arent stealing trunk surprise\xe2\x80\x9d'
p1251
aS'dont afraid stand others advicefornewhighschoolers'
p1252
aS'first labyrinth dark crystal pain stays signs point smoke bowl'
p1253
aS'trying watch movie ateam remakes total crap'
p1254
asS'2011_32'
p1255
(lp1256
S'youre bored come hella trefe consider invite'
p1257
aS'clash reference would totally inappropriate anyone know'
p1258
asS'2010_32'
p1259
(lp1260
S'became mayor'
p1261
aS'duzer broad staten island'
p1262
aS'cmsw court brooklyn'
p1263
aS'heading brooklyn appt agenda open'
p1264
aS'ferry edgewater staten island'
p1265
aS'duzer broad staten island'
p1266
asS'2010_33'
p1267
(lp1268
S'figured stream media watching kickass great flick'
p1269
aS'staten island mall 2655 richmond staten island'
p1270
asS'2010_30'
p1271
(lp1272
S'home duzer broad staten island'
p1273
aS'unlocked newbie badge'
p1274
asS'2010_31'
p1275
(lp1276
S'monroeville convention center mall monroeville'
p1277
aS'sheetz 3954 william penn monroeville'
p1278
aS'last exhausted slept hours'
p1279
aS'marriott courtyard 3962 william penn william penn duff monroeville'
p1280
aS'green forest brazilian grill rodi pittsburgh'
p1281
aS'well time gorge meat brazilian grill'
p1282
aS'checked hotel last miles caught thunderstorm effed'
p1283
aS'marriott courtyard 3962 william penn william penn duff monroeville'
p1284
aS'unlocked school night badge'
p1285
asS'2011_39'
p1286
(lp1287
S'anyone ever bought coffee didnt spill poured'
p1288
aS'movie stand isnt good good showing govt reacts fiction'
p1289
aS'dude11 state demand come popcorn blowjob'
p1290
aS'gerard butler starring movie based rock sock robots dont know scared'
p1291
aS'guys looks like going running operations cons coming year whos interested staffing'
p1292
aS'asking days humidity recover much'
p1293
aS'btilc good base pans castle kinda like hoth death stars walkin freezer wierd'
p1294
asS'2011_38'
p1295
(lp1296
S'love volkswagen commercial baby vader advertisinggenius'
p1297
aS'playing solitaire dawn deck smoking cigarettes watching captain kangaroo dont tell nothing'
p1298
aS'sleeping alone king size life rockabilly song'
p1299
aS'yeahi think gonna lose goatee whothefuckcares'
p1300
aS'sois credit score horrible know things need fixed'
p1301
aS'advice jobseekers interview respond every question take blade throat youre welcome'
p1302
aS'gonna thinking sorta midterm short long someone wanna start help paul kickstarter'
p1303
aS'cannot live bread alone butter salt maybe tomato youll live forever'
p1304
aS'youre looking scare someone keep tweeting like'
p1305
aS'pics weekend holy fuck gotten'
p1306
aS'book shatnerrules goes onsale preorder please might free tshirt'
p1307
aS'order balance todays tlap tomorrow talk literate'
p1308
aS'maybe staff party thursday night'
p1309
aS'home finally thunk zzzzzzzzzzzzz'
p1310
aS'still dealing getting home problem hours'
p1311
aS'true especially aardvarks space since youre make'
p1312
aS'doesnt'
p1313
aS'carvel vanilla milkshake reason boys came yard'
p1314
aS'want fresca justsayin'
p1315
aS'good good intervention'
p1316
aS'aunt uncle coming thursday week help blitzclean royal arrival'
p1317
aS'cruise control invented'
p1318
aS'heading home know homecoming present gonna'
p1319
aS'great seems like everyone home safe still hotel'
p1320
asS'2010_34'
p1321
(lp1322
S'trading steamer fleets come lands across unterzee sunless'
p1323
aS'gone fallen london'
p1324
asS'2010_35'
p1325
(lp1326
S'interventioncon 1750 rockville pike rockville'
p1327
aS'duzer broad staten island'
p1328
aS'unlocked adventurer badge'
p1329
aS'public assembly wythe brooklyn'
p1330
aS'rewatched zack miri problem seth rogan wanted everyman settled schlub'
p1331
aS'problem zack miri seth rohan noone cares'
p1332
asS'2013_42'
p1333
(lp1334
S'yeahi need brawl seriously something equally physical'
p1335
aS'heavy metals ummmso lithium classified'
p1336
aS'seriously cool video seriously cool group never gonna came sooper sekrit'
p1337
aS'mentioned lately much love insomnia'
p1338
ag49
aS'need exorcised refs skills'
p1339
asS'2013_43'
p1340
(lp1341
S'order become superhero need archnemesis want'
p1342
aS'dudei know need iron caltrops need braised hours cant snack like ochre jellies'
p1343
aS'catching underthedome show left book first gotten worse'
p1344
aS'icymi said justgrabherinthebiskit'
p1345
ag49
aS'place baby bottles naps'
p1346
aS'liked video introspection letters little adult abney park'
p1347
aS'holy fuck discovered motionaudio comics killing joke holy fuck noone mention'
p1348
aS'know away worry shall attend every halloween party dressed godot'
p1349
aS'areyoubit haley rhps love look'
p1350
asS'2013_40'
p1351
(lp1352
S'lets couldnt sleep night crashed hours cant seem sleep tonight hate hate'
p1353
aS'heres thing really believe gender equality cant disparage anyone wanting sexualized sexy'
p1354
aS'crazyover rainbow crazytruly gone fishing must hole came incrazy'
p1355
aS'uncommons hiring baristas reach any1 know passion coffee games lives'
p1356
aS'looser waistband deeper quicksand read'
p1357
aS'never understood guys call genitals junk mine isnt junk mine source greatest pleasures'
p1358
aS'wanted thank love'
p1359
aS'exhausted cant sleepagain instead falling 0530 sleeping guess reset'
p1360
asS'2013_41'
p1361
(lp1362
S'maple raisin oatmeal cookies done baking 330am yeah fatboy4life'
p1363
aS'free advice never lady shes mood jello right smacking'
p1364
aS'dream last night punch someone face woke actually punched everything table weirdscary'
p1365
aS'today someone posted response twitter basically said gyto first'
p1366
aS'female symphonic metal fronts otep comes mind first amazing stuff'
p1367
aS'soquestionwas today first tits comment kinda weirded'
p1368
aS'ohok soparty intervention'
p1369
aS'wedding thought guys married years'
p1370
aS'anytime need info prisons officer years broke back'
p1371
aS'cool need silly'
p1372
aS'really credited carlos estavez'
p1373
aS'pretty sure'
p1374
asS'2013_46'
p1375
(lp1376
S'hope realrt inari'
p1377
aS'sick spent hours making soup'
p1378
aS'outside sick bleugh making chicken soup'
p1379
aS'guys jsyk ever seriously phrase friendzoned youre mature enough girlfriend girls viceversa'
p1380
aS'finally reading watchmen found full version kindle amazing pissed didnt read decade'
p1381
aS'strong late night craving oatmeal needs'
p1382
asS'2013_47'
p1383
(lp1384
S'camera tricks thought raison detre didnt know knew illusions'
p1385
aS'really blaine'
p1386
aS'found painted fivepointz thats another history gone fuck thats another history gone forever'
p1387
asS'2013_44'
p1388
(lp1389
S'ducky lets stick 7inch computer'
p1390
aS'must feeling better mentallyi searched found decently priced saxophone lessons home studio yeah'
p1391
aS'watching witches warwick cher michelle pfeiffer susan sarandon three beautiful sexy interesting women ever'
p1392
aS'still waiting doctor couple behind sitting across havent stopped talking loudly since came'
p1393
aS'ideas shadowrun game wonder think wake players interested drugged ideas best'
p1394
aS'show world want phone worth keeping phonebloks dont know currently possible'
p1395
aS'heyi people people thinking'
p1396
asS'2013_45'
p1397
(lp1398
S'friends know kosher halal rules eggs classified type matter turtlechickengator'
p1399
aS'pita made homemade butterscotch pudding tastes like peanut brittle pudding'
p1400
aS'anyone looking lightweight windows laptop must ports decent processor maybe upgraded'
p1401
asS'2013_48'
p1402
(lp1403
S'well damn whole'
p1404
aS'airport everything seems time delays'
p1405
aS'well since gotta leave airport hours guess sleeping plane maybe'
p1406
aS'hopefully plane philly hours meanwhile making thanksgiving dinner turkey'
p1407
aS'baking pumpkin custard strain custard thick tasty leftovers essentially pumpkin butter'
p1408
aS'movies 50th gaming group screen jelly'
p1409
aS'think days straight finally stopped raining dampness however killing feel desertsrsppsd2bdry'
p1410
asS'2013_49'
p1411
(lp1412
S'need twitter help company makes hero hiring data entry person work home cant find tweet help'
p1413
aS'realized havent eaten 2daythat calls spcl oatmeal maple cinn nutmegwalnutsraisinscond milk warm filling'
p1414
aS'infant stroller boarded plane'
p1415
aS'wellat least pleasant airport experience sigh'
p1416
asS'2010_50'
p1417
(lp1418
S'late night snack kick nonfat greek yogurt clover honey seem craving sweets perhaps morphine'
p1419
asS'2010_28'
p1420
(lp1421
S'another night cant wait farm reset feel productive wwwmidsummermagickfairecom'
p1422
asS'2012_29'
p1423
(lp1424
S'matter well cook look grilled cheese wbacon comfort food'
p1425
aS'dont remember charrie creation shadowrun friggin complicated argh'
p1426
aS'course people using atrocity increase klout scores'
p1427
aS'trying figure felt like crap since yesterday back deep soulful hurt merde'
p1428
aS'crazy like bath salts look tasty'
p1429
aS'health insurance alive whats next auto insurance driv'
p1430
asS'2012_28'
p1431
(lp1432
S'minutes john carter flopped dumbed make almost unwatchable shame novels rock'
p1433
aS'finally found good pizza wings gilbert halelujah'
p1434
aS'friends idea dont ewok song remix dubstep think'
p1435
aS'rain started spinal nerves feel like theyre trying escape lifeboat sucks morphine oxycodone dont help'
p1436
aS'heya folks checked whos following realized dont know many howd find introduce'
p1437
aS'today plan getting hair target shooting anyone wanna come shooting place rent want'
p1438
aS'yahoo voice change passwords yahoo voice compromised username passwords'
p1439
aS'yahoo voice change passwords yahoo voice compromised username passwords'
p1440
aS'appears someone parking left nice dent front panel report repair'
p1441
aS'realized something saying youre bored selfpreserving youre boring'
p1442
asS'2012_27'
p1443
(lp1444
S'dont know cant fall asleep took melatonin valium pain pill hours'
p1445
aS'definition safe space welcoming genders freakin'
p1446
aS'klaatu barada niktu'
p1447
asS'2012_26'
p1448
(lp1449
S'jenna marbles blog welcome madness love chick'
p1450
aS'hundred twenty degrees outside high holy fuck'
p1451
aS'thru morpheus flows love light come streaming life'
p1452
aS'lets play words friends username seerinc gameswithfriends'
p1453
aS'yeah shame rose dead sparkly vampire'
p1454
asS'2012_25'
p1455
(lp1456
S'good know make sure tell brian weve friends twenty years'
p1457
aS'guys youre area stop made homemade pizza left'
p1458
aS'things good'
p1459
aS'mission snickerdoodles completed satisfactorily'
p1460
aS'yeah baking snickerdoodles 1130 night wanna fight'
p1461
aS'never waterworld today possible costner waiting dwarf riding'
p1462
asS'2012_24'
p1463
(lp1464
S'soecigsgoodbad brand recommend avoid help please'
p1465
aS'well dogs name jeeter owner decent taste owners name seth love happy'
p1466
aS'waiting patiently give best friend back daddy crying outwardly least'
p1467
aS'well found poster lost matches found found owner coming work'
p1468
aS'idea kinda like priest gets upset hearing awful confessions becomes vigilante hells angel'
p1469
aS'definitely better'
p1470
aS'yeahboth completely heat quite possibly arizona general sigh some1 wanna start home'
p1471
aS'awesome portal guys portal actually works turns house test chamber'
p1472
asS'2012_23'
p1473
(lp1474
S'guys broadcast recommendation tolkien pagan family read modern witch geary trust'
p1475
aS'almost four morning awake need circadian rhythms adjusted'
p1476
aS'take chinese food homemade oatmeal raisin cookies good'
p1477
aS'really beautiful love rogers remixed groovy autotuned tribute'
p1478
aS'realized vincente theblackhole prototype walle'
p1479
aS'computer power hand nasa apollo missions sending tweet'
p1480
aS'dont mean pick nits said send paramedics nerd'
p1481
aS'bwah'
p1482
aS'remember guys tonight syfy season premiere haunted collector guarantee youll enjoy real shit'
p1483
aS'every senator voted helping women equalpay equal work'
p1484
aS'sharing exclusive early access perk find whyiloveit'
p1485
aS'bowling darts time fullwhat ever gonna'
p1486
aS'finally figured sleeve done incorporates everything want still remain cohesive huzzah'
p1487
aS'sothinking getting elliptical machine start losing weight sexy anyone recommend'
p1488
aS'everything posted sexiest'
p1489
ag49
asS'2012_22'
p1490
(lp1491
S'need learn make throw dough'
p1492
aS'made homemade pizza dinner mistakes made still better anything else'
p1493
aS'arent separate questions'
p1494
aS'date'
p1495
aS'smile wave always smile wave'
p1496
aS'condolences loss'
p1497
aS'want anyone long raise head stare eyes stranger'
p1498
aS'make even better ridiculously easy'
p1499
aS'dedicate love whole heart memorial brother soldier like many others suffers silence pride honor'
p1500
asS'2012_21'
p1501
(lp1502
S'give love ladies miss'
p1503
aS'allie beingafan'
p1504
aS'isnt'
p1505
aS'talking'
p1506
aS'remember something enjoy memorial weekend many people cant celebrate died'
p1507
aS'know knowing blatant kinda makes nostalgic jemog'
p1508
aS'whenever important decision make flip coin probability time youll know really want'
p1509
aS'realized something criminal gotham like voluntarily horror movie'
p1510
aS'everyones favorite airline'
p1511
aS'avengers seriously best movies ever seen'
p1512
aS'mind'
p1513
aS'thundercats bway redux cats starring constantine liono diggs panthro zero mistral snarf mandy patankin tigro'
p1514
aS'brilliant float like octopus sting like clock mohammed dali'
p1515
aS'paul addict'
p1516
aS'worries dear friends able really shocked'
p1517
aS'electric bill send disconnect notices history missed payments fuck'
p1518
aS'landed plane delayed hours decent ride eight hour flight alive completely twisted love'
p1519
aS'weird best thais ever lucys love'
p1520
aS'short trip didnt any1 except missed shame wild people hanging rafters'
p1521
asS'2012_20'
p1522
(lp1523
S'meant christen damn joke ruined typing eeffffffffffuuuuuuuuyu'
p1524
aS'officially christian weekend weekend disco officially died'
p1525
aS'alright loves penetrated york balls deep youre jealous'
p1526
aS'peeples going radio silent land battry like something herald arrival peace love rock roll'
p1527
aS'less hours head airport eight hours land start steampunk party'
p1528
aS'makes sense sure back although love watching beeswasps scared'
p1529
aS'course curious dont think favorite insect'
p1530
aS'think dean killed supernatural'
p1531
aS'askwhat insect profile'
p1532
aS'really nature funny bitch'
p1533
aS'friday steampunk worlds fair jersey amazing music good times sexy people'
p1534
aS'sosnickers peanut butter awesome'
p1535
aS'found recipe perfect coldbrew iced coffee paul happy'
p1536
aS'okhow hell escetic like dalai lama million give anyone'
p1537
asS'2010_48'
p1538
(lp1539
S'everyone always scared make mistakes mistakes things ever truly'
p1540
aS'yeah need chawklitt saying'
p1541
asS'2011_22'
p1542
(lp1543
S'back yard sales amazing deals mikes camera light battery packs score'
p1544
aS'wanna carpool dorians weekend'
p1545
aS'phone sprint everything phone'
p1546
asS'2011_23'
p1547
(lp1548
S'know original headquarters located staten island'
p1549
aS'come guest'
p1550
aS'guest'
p1551
aS'either pizza gotten tremendously better past year really hungry'
p1552
aS'folks whats easiest andor best find gaming group near long island'
p1553
asS'2011_27'
p1554
(lp1555
S'could valium right cant seem stop mind going dark places cant even chill enough start meditating'
p1556
aS'socan anyone invite google please'
p1557
aS'sherpa mountain'
p1558
asS'2011_24'
p1559
(lp1560
S'bebe neuwith definition slinky'
p1561
aS'smoking menthol asshole rabid honey badger killed barehanded make smoothie'
p1562
aS'homemade peach blueberry smoothie honey chobani greek yogurt much femm side much'
p1563
aS'might interested smodcast sept pretty please'
p1564
aS'since calorie unit energy dont spare tire battery capacity gigawatts'
p1565
aS'still time draw hows work'
p1566
asS'2011_25'
p1567
(lp1568
S'younger told could anything older took back'
p1569
aS'took 00shot partially hollowed connected spooling titanium monofilament repacked whirling death'
p1570
asS'2011_28'
p1571
(lp1572
S'dont bully wont bullied either thats badass thats'
p1573
aS'land call home everyone hail pumpkin throne'
p1574
aS'machete ampamp beautiful women ever pleasure fantasizing'
p1575
aS'hmmm machete uberviolent flick utilizing every racial stereotype trope hollywood'
p1576
aS'wowthe girl gonna gone monday whatever'
p1577
aS'oooha double rainbowwhat meme'
p1578
aS'cant sleep pain even holistic remedy isnt working crap'
p1579
asS'2011_29'
p1580
(lp1581
S'someone norway pissed'
p1582
aS'djoo wear black armband shot said peace last forever'
p1583
aS'look world look eyes futures uncertain certainly slight look faces listen bells'
p1584
asS'2010_45'
p1585
(lp1586
S'religion power playsmanipulate people money payselling skin selling numbers look credit card'
p1587
asS'2011_44'
p1588
(lp1589
S'arizona consider little trip tomorrow foreplay soon enjoy'
p1590
aS'keep thinking supposed remember something today'
p1591
aS'feeling well last coupla days decided make tonight fajita night everything cept tortillas homemade salsa guac beans'
p1592
aS'anyone know anyone antiques appraiser stuff checked'
p1593
aS'actually know need suggestions reading material preferably available'
p1594
aS'required uniform standing buffalo stance'
p1595
aS'days official unit time known kardash marriage wrong'
p1596
aS'interesting experiment offer bowl candy kids keep track takes pieces takes handful'
p1597
aS'youre weird thats love happy halloween'
p1598
aS'love giving candy rats trick treating love soccer moms dressed happy halloween blessed samhain'
p1599
asS'2011_45'
p1600
(lp1601
S'ughtravel'
p1602
aS'wondering watching love drugs anne hathaway whips problem solved'
p1603
aS'remember without vets wouldnt metal gods bless keep'
p1604
aS'whos going organize going away party'
p1605
aS'true string theory strong possibility probably universe sentient twinkies deepfry people'
p1606
aS'care plane landed waiting'
p1607
aS'schlotzskys beef guac sammie full belly amazing aint'
p1608
aS'dont know handle brother previews already sweatin'
p1609
aS'phoenix dennys lumberjack grand slam everywhere kinda apprehensive trying sushi landlocked state'
p1610
aS'many years flying still make anxious damn control issues'
p1611
asS'2011_46'
p1612
(lp1613
S'check guns roses facebook details worst thing ever heard'
p1614
aS'looks like cool folks twitter feed cartoons avatars want cartoon aminotworthy'
p1615
aS'figured alttimeline version siouxie'
p1616
aS'exactly stand acronymwise'
p1617
aS'sorry slept away travel prints sorts genres mainly americana'
p1618
aS'dont stop telling everyone'
p1619
aS'shepard books secret companion fakedrwhomovierumors'
p1620
aS'course plane fucking patient zero'
p1621
aS'amazing love listen makes smile night'
p1622
aS'wouldnt great statler walfdorf made appearance anyway like maybe stoned dream sequence'
p1623
aS'cruises baby suri siri thanks attempt humor'
p1624
asS'2011_47'
p1625
(lp1626
S'think sushi tonight ummmunaginoonecares'
p1627
aS'thats lurve'
p1628
aS'since still make cover band'
p1629
aS'didja hear pres obama pardoned thanksgiving turkey republicans cried fowl white house chef made turkey soup'
p1630
aS'want watch nasa launch mars rover tomorrow heres'
p1631
aS'ohhh like meditate dont root chakra'
p1632
aS'colder rest'
p1633
aS'weird kinda gross nerve damage left index finger'
p1634
aS'heya gotta whats minute updates youre blowing feed muah'
p1635
aS'memories things thing wrong'
p1636
aS'tonight biggest singles night year everybody gets laid well except douchebag'
p1637
aS'best roast beef gravy evah love'
p1638
aS'whenever word flashlight brain changes fleshlight changes back playing pfunk song'
p1639
aS'good assistance'
p1640
aS'used corrections officer operations various geek kink conventions qualify'
p1641
aS'devil smiles hell'
p1642
aS'fucks sake actually happen'
p1643
asS'2011_40'
p1644
(lp1645
S'remember ladies punch kiss fist makes'
p1646
aS'modernday louis prima frank sinatra world needs sexy music world needs romance'
p1647
aS'wellthat kinda sucked nice mexican dinner effect nothing different yesterday'
p1648
aS'iphone coming sprint month glad cleared moral dilemma back whats important americanmaterialismrulez'
p1649
aS'dilemma grandfather passed away denounced existence feel attend funeral'
p1650
aS'replying wanna portaldlc'
p1651
aS'skimmed soup good guess thats cook hocks shoulder'
p1652
aS'soup'
p1653
aS'roasted hocks throw soup base split soup making'
p1654
asS'2011_41'
p1655
(lp1656
S'another project fricken house supposed take mins already involved store trips power tools sigh'
p1657
aS'anyone happen passes nycc saturday could please'
p1658
aS'ohre gameyou lost'
p1659
aS'wondering following back guess missed pithy replies'
p1660
aS'haagendazs dropped release pint blueberry crumble good vatican going disavow'
p1661
aS'well complete nicotine detox spazz coupled sciatica spasm'
p1662
aS'raspy youve dead couple hundred years'
p1663
aS'tech geeks root android phone'
p1664
aS'gonna island hours anyone wanna grab lunch sushi'
p1665
aS'cravingugh'
p1666
asS'2011_42'
p1667
(lp1668
S'would atheist vampire still repelled cross still burned holy water follows kosher laws'
p1669
aS'ooohmaybe raptured'
p1670
aS'feeling sick hope lasting'
p1671
aS'hurts much today concentrate order eyes focus'
p1672
aS'yeah best ever'
p1673
aS'everybody doin'
p1674
asS'2011_43'
p1675
(lp1676
S'case missed said grabem biscuit'
p1677
aS'buying track record suggestion dump ericsson stock might'
p1678
aS'someone wins hoodie'
p1679
aS'official gonna phoenix days starting looking rental anyone wanna together'
p1680
aS'days halloween halloween halloween days halloween silver shamrock'
p1681
aS'decision made arizona come'
p1682
asS'2010_23'
p1683
(lp1684
S'even cool mall using swamp cooler aint right'
p1685
aS'really degrees humidity tstorms every geez'
p1686
asS'2011_48'
p1687
(lp1688
S'still looking driving partner'
p1689
aS'week expedition days come show love'
p1690
aS'string theory says dimensions first length width depth time attributes well'
p1691
aS'things like twitter allow folks emotionally retarded without fear anything'
p1692
aS'anyone needs financial advisorplanner know painless pocket costs completely legit info'
p1693
aS'high left real mind business know fiend good cheat'
p1694
aS'baby dont take kodachrome away'
p1695
aS'theres logger phones iqrd name copies stores every keystroke cant force stopped'
p1696
aS'norad santa tracker 2011 google kicks countdown christmas'
p1697
aS'sowho wants copilot arizona tenth'
p1698
aS'give kitty xanax reacts kitty doesnt travel well stoned funny time'
p1699
aS'wont lose bewbs husband likes bewbs'
p1700
aS'maybe world would better place warren buffet like jimmy'
p1701
aS'kinda rough therapy every week constantly told youre wrong'
p1702
aS'itunes working computer need update ipod hour drive'
p1703
asS'2011_49'
p1704
(lp1705
S'dont play allow feel dirty'
p1706
aS'frankensteins place'
p1707
aS'busted asses today done except last clothes parlence last wakeup'
p1708
aS'nice someone signed fling last night gotten twenty emails today good'
p1709
aS'anyone must stop places crosscountry trek'
p1710
aS'moms helping pack think thinks shell never kinda sweet'
p1711
aS'science channels preview xmas serenity marathon show appearing gothic horror weird'
p1712
aS'trying block pain pack hardso hard glad girl helping else never done'
p1713
aS'move arizona start commune'
p1714
aS'office provide broken dreams costco'
p1715
aS'anyone else likes brain skritched'
p1716
aS'\xe2\x80\x8ereally excited madonna super bowl halftime show nobody even madonna'
p1717
aS'smoking make nipples fall'
p1718
aS'alright focus used used right'
p1719
aS'humancentered computing isnt computing human centered'
p1720
aS'thought plume dante allegorical right'
p1721
aS'really sucks brother love condolences family hugs'
p1722
aS'give public props girl heidi makes best lasagna ever shes great'
p1723
asS'2013_37'
p1724
(lp1725
S'butyou soul tears coming'
p1726
aS'recordi adore cocoa rice crispies cereal hourany whats comfort food'
p1727
aS'supported phonebloks'
p1728
aS'hard sleep youre nothing emptiness pain rage'
p1729
aS'seriousnesswho else believes verge destruction species soon'
p1730
aS'delish share fresh baked sesame bread toasted drizzled maple syrup spread peanut butter good'
p1731
aS'love love family'
p1732
aS'many followers dont believe portents'
p1733
aS'brand metal dice game year foambraingames pics come'
p1734
asS'2013_36'
p1735
(lp1736
S'arethe middle aged nationwe arethe middle aged nation sigh'
p1737
aS'dont know love made york style bread loves'
p1738
aS'character done right reflection part generators remove attachment call details'
p1739
aS'10pm tired sweating time sweating time sweating time'
p1740
aS'annoys movie john carter reason shit'
p1741
aS'making peach rooibos happy sigh'
p1742
aS'best thing evah finding primal beef loin sale chateau briand days'
p1743
asS'2013_35'
p1744
(lp1745
S'guys looking good pound cake recipe help please'
p1746
aS'soearlier today diagnosed ptsd sure think feeling time heal'
p1747
aS'secrets pizza dough fridge days semolina flour prevent sticking'
p1748
aS'adviceif think plan youre gonna around insert race people youre racist'
p1749
aS'thought yall knowwhen yall crowing mikey acting like wikileaks sentenced years'
p1750
aS'wondering youd interested guest interventioncon panelist talking stuff write'
p1751
aS'probably funk'
p1752
aS'guys plane landed early polar bear'
p1753
asS'2013_34'
p1754
(lp1755
S'playing ring toss swiss'
p1756
aS'apparently going thirty mins late'
p1757
aS'made thru gate changed twice literally opposite ends terminal time shrug'
p1758
aS'know time short homemade pizza calzone'
p1759
asS'2013_33'
p1760
(lp1761
S'frustrated mere existence think need shake shit achtung baby'
p1762
aS'remember said done samwise walked mordor'
p1763
aS'even meds needed drink belvedere 16oz lemonade hope dont kill want jazz funeralparty'
p1764
asS'2013_32'
p1765
(lp1766
S'grrrrr argh pbbth imissbillthecat'
p1767
aS'greathorrible thing gming players skip whole sectionssubplots shadowrun'
p1768
aS'eighties awesome expecting world arent wearing neon shoulder pads hear clock ticking'
p1769
aS'since wouldve birthday wondering remember babysitter margaret nana'
p1770
aS'sharkswith fricken lasers heads'
p1771
aS'since wouldve bday remember lady babysat margaret nana'
p1772
asS'2013_31'
p1773
(lp1774
S'fucking arizona humid moved away humidity weeks fucks sake'
p1775
aS'intervention\xe2\x80\x99s cofounder hartstein quoted convention harassment policies cosplayisnotconsent'
p1776
aS'tumblr adulthood starts porn realize theres porn never leaves important'
p1777
aS'august last discounted room tell people'
p1778
aS'interventions hotel discount rate ends august yeah room'
p1779
aS'contagfree scavenger hunt avail attendees 2014'
p1780
aS'want nowrt think getting bunch pple walk around coney dressed charries warriors brilliant idea'
p1781
aS'paul like stop microwave makes feel like secret agent diffusing bomb'
p1782
aS'folks friend mine gloria going major surgery today prayers happy thoughts please'
p1783
aS'guyswhen supplement explaining blackouts possessions coming might change everything'
p1784
aS'always wonderedif thing stop cyclops beams rose quartz still eyelids'
p1785
asS'2013_30'
p1786
(lp1787
S'sleep completely evaded embrace last night probably missing occasional hour memory perhaps died'
p1788
aS'true important message darkness radio dave'
p1789
aS'ahhso thats hang crew'
p1790
aS'gets point cant take crap make chocolate chip cookies helps'
p1791
aS'forget everyone else says know nothing reasons'
p1792
aS'watching marathon oddities stalked wanted really appreciate geekiness amazing'
p1793
aS'twitter like artistic types could draw image wonder woman wheelchair please'
p1794
aS'wondering release date realm works anticipation high'
p1795
asS'2012_34'
p1796
(lp1797
S'fries homemade love much better'
p1798
aS'words stammer stutter perfect examples mans inhumanity'
p1799
aS'perfect late night breakfast homemade waffles bacon'
p1800
aS'notice friends really tattoo shading dimensional crap ever proper point'
p1801
aS'wonderwhy channel cable meaning watch commercials'
p1802
asS'2013_1'
p1803
(lp1804
S'every time ring bell zombie drags soul hell'
p1805
aS'dunno urge organize today maybe pregnant nesting would explain belly'
p1806
aS'dudemy number drop line email'
p1807
aS'matter much hurts wood working minor carpentry always soothes soul'
p1808
aS'looks like anonymous surprise present birthday shadowrun runners toolkit thank hidden'
p1809
aS'higher content better chop meat'
p1810
aS'watched commercial honey booboo ummm mentally disabled share several traits'
p1811
aS'okhow nine hells going show movie machete gonna mins'
p1812
aS'2013i thinking going back school thinking sociologypsychology know thoughts'
p1813
aS'funny little things show much thinking evolved years good right'
p1814
asS'2012_36'
p1815
(lp1816
S'isnt treason elected everything power stagnate government make current potus look'
p1817
aS'days feeling like coughed usually means storm hell already'
p1818
aS'feel storm coming different note laaaaaaa think want caprese sammich'
p1819
aS'geez dont wrong awesome scenes huge batfan fucking disappointed'
p1820
aS'hour batman impressed'
p1821
aS'days first week chantix still smoking phase jonesing gotten severe normal'
p1822
aS'adult means chocolate milk cinnamon life cereal midnight snack'
p1823
asS'2012_37'
p1824
(lp1825
S'great opportunity harper voyager accept unagented manuscripts weeks galleycat'
p1826
aS'games gulf hormuz islamic overreaction stupid movie israel arabia long'
p1827
aS'think gonna watching party cabin woods released whos coming'
p1828
aS'wowthe last ramone gone johnny'
p1829
aS'whats wrong'
p1830
aS'like psychic readings people consider gift usually dont paid sometimes'
p1831
aS'like holding ne1s head forcing playif need paid thats offering'
p1832
aS'sure true coming quite breach privacy'
p1833
aS'doin'
p1834
aS'computer couple days back friday email expect weekend'
p1835
aS'world evening cartoons make sense political commentaries'
p1836
asS'2012_30'
p1837
(lp1838
S'aside using game console tooexpensive ways connect'
p1839
aS'miss donkey'
p1840
aS'eating peach shit commasareimportanttogangstas'
p1841
asS'2012_31'
p1842
(lp1843
S'wanna feel passion wanna feel pain wanna sound name make laugh make make feel alive'
p1844
aS'wowdidnt know alivert gore vidal american author playwright dies'
p1845
aS'remember folks remember every single courage isnt absence fear acting spite fear'
p1846
aS'well chance world danceif chance world dance'
p1847
asS'2012_32'
p1848
(lp1849
S'speed thought faster speed light similar thought electrical impulses brain'
p1850
aS'kinda wondering name bandied'
p1851
aS'lets play words friends username seerinc gameswithfriends'
p1852
aS'perhaps better hope somewhere somewhen fiction reality'
p1853
aS'thing keeps going matter happens hope fantasy world real'
p1854
asS'2013_38'
p1855
(lp1856
S'wonderhas anyone done study find theres link stressdepression craving carbs'
p1857
aS'late night ghiradelli cocoa cinnamon frangelico soothes savage breast'
p1858
aS'sleep significant youre alone wear anything randomnosypoll'
p1859
asS'2010_29'
p1860
(lp1861
S'love friends work track social networking'
p1862
aS'liked youtube video staten island girls remix spoof'
p1863
asS'2010_36'
p1864
(lp1865
S'last come amazing things today interventioncon'
p1866
aS'theres party goin interventioncon'
p1867
aS'became mayor interventioncon'
p1868
asS'2012_38'
p1869
(lp1870
S'interestingtry short quiz 2012 presidential candidate side isidewith'
p1871
aS'hotel buffet excellent chipped beef gravy morning delish'
p1872
aS'since couldnt sleep guess breakfast sure later either energy someone peace'
p1873
aS'gotta represent today wearing giants throwback since ravens playing'
p1874
aS'looks like sleep tonightguess start ready last miss hate urself hardcore'
p1875
aS'cant sleep something wrong stupid know things important attached'
p1876
aS'cant sleep feel like failed friends'
p1877
aS'work cons think good something cont'
p1878
aS'landed good flight begin'
p1879
aS'security waiting line second cuppa'
p1880
aS'hours flight hours site prep interventioncon hours interventioncon coming right'
p1881
aS'really income dropped lost wonder'
p1882
aS'tell truthare doppelganger siouxie'
p1883
aS'international talk like pirate much prefer talk like ninja everyone would shut'
p1884
aS'know retired looking another anyone knows event producer refs'
p1885
aS'vampire movie bleeding aside michael madsen best actor'
p1886
aS'ooohhhjif released version nutella hfcs natural ingredients'
p1887
aS'marrying best friend'
p1888
as.