(dp0
S'2013_40'
p1
(lp2
S'dont miss dont miss dont miss dont miss dont miss kidding miss like craz\xe2\x80\xa6'
p3
aS'sometimes cant tell someone feel never really find right words make understand'
p4
aS''
p5
aS'best feelings someone understands without'
p6
asS'2013_41'
p7
(lp8
S'first idea youd become important'
p9
aS'please don\xe2\x80\x99t flirt people secretly like rude disrespectful'
p10
asS'2013_46'
p11
(lp12
S'love smelly'
p13
aS'talk tomorrow something smelly hard explainn'
p14
aS'hardest decisions everi dont know'
p15
aS'reading messages realizing much miss person'
p16
aS'pleasee follow'
p17
aS'pleasee follow'
p18
aS'pleasee follow'
p19
aS'pleasee follow'
p20
aS'pleasee follow'
p21
aS'pleasee follow'
p22
aS'pleasee follow'
p23
aS'pleasee follow'
p24
aS'pleasee follow'
p25
aS'pleasee follow'
p26
aS'pleasee follow'
p27
aS'pleasee follow'
p28
aS'pleasee follow'
p29
aS'pleasee follow'
p30
aS'pleasee follow'
p31
aS'pleasee follow'
p32
aS'pleasee follow'
p33
aS'pleasee follow'
p34
aS'pleasee follow'
p35
aS'pleasee follow'
p36
aS'pleasee follow'
p37
aS'pleasee follow'
p38
aS'pleasee follow'
p39
aS'pleasee follow'
p40
aS'pleasee follow'
p41
aS'pleasee follow'
p42
aS'pleasee follow'
p43
aS'pleasee follow'
p44
aS'pleasee follow'
p45
aS'pleasee follow'
p46
aS'pleasee follow'
p47
aS'pleasee follow'
p48
aS'pleasee follow'
p49
aS'pleasee follow'
p50
aS'pleasee follow'
p51
aS'pleasee follow'
p52
aS'pleasee follow'
p53
aS'pleasee follow'
p54
aS'pleasee follow'
p55
aS'pleasee follow'
p56
aS'pleasee follow'
p57
aS'pleasee follow'
p58
aS'pleasee follow'
p59
aS'pleasee follow'
p60
aS'pleasee follow'
p61
aS'pleasee follow'
p62
aS'pleasee follow'
p63
aS'pleasee follow'
p64
aS'pleasee follow'
p65
aS'pleasee follow'
p66
aS'pleasee follow'
p67
aS'pleasee follow'
p68
aS'pleasee follow'
p69
aS'pleasee follow'
p70
aS'pleasee follow'
p71
aS'pleasee follow'
p72
aS'pleasee follow'
p73
aS'pleasee follow'
p74
aS'pleasee follow'
p75
aS'pleasee follow'
p76
aS'pleasee follow'
p77
aS'pleasee follow'
p78
aS'pleasee follow'
p79
aS'pleasee follow'
p80
aS'pleasee follow'
p81
aS'pleasee follow'
p82
aS'pleasee follow'
p83
aS'pleasee follow'
p84
aS'pleasee follow'
p85
aS'pleasee follow'
p86
aS'pleasee follow'
p87
aS'pleasee follow'
p88
aS'pleasee follow'
p89
aS'pleasee follow'
p90
aS'pleasee follow'
p91
aS'pleasee follow'
p92
aS'pleasee follow'
p93
aS'pleasee follow'
p94
aS'pleasee follow'
p95
aS'pleasee follow'
p96
aS'pleasee follow'
p97
aS'pleasee follow'
p98
aS'pleasee follow'
p99
aS'pleasee follow'
p100
aS'pleasee follow'
p101
aS'pleasee follow'
p102
aS'pleasee follow'
p103
aS'pleasee follow'
p104
aS'pleasee follow'
p105
aS'pleasee follow'
p106
aS'pleasee follow'
p107
aS'pleasee follow'
p108
aS'pleasee follow'
p109
aS'pleasee follow'
p110
aS'pleasee follow'
p111
aS'pleasee follow'
p112
aS'pleasee follow'
p113
aS'pleasee follow'
p114
aS'pleasee follow'
p115
aS'pleasee follow'
p116
aS'pleasee follow'
p117
aS'pleasee follow'
p118
aS'pleasee follow'
p119
aS'pleasee follow'
p120
aS'pleasee follow'
p121
aS'pleasee follow'
p122
aS'pleasee follow'
p123
aS'pleasee follow'
p124
aS'pleasee follow'
p125
aS'pleasee follow'
p126
aS'please follow'
p127
aS'please follow'
p128
aS'please follow'
p129
aS'please follow'
p130
aS'please follow'
p131
aS'please follow'
p132
aS'please follow'
p133
aS'please follow'
p134
aS'please follow'
p135
aS'please follow'
p136
aS'please follow'
p137
aS'please follow'
p138
aS'please follow'
p139
aS'please follow'
p140
aS'please follow'
p141
aS'please follow'
p142
aS'please follow'
p143
aS'please follow'
p144
aS'please follow'
p145
aS'please follow'
p146
aS'please follow'
p147
aS'please follow'
p148
aS'please follow'
p149
aS'please follow'
p150
aS'please follow'
p151
aS'please follow'
p152
aS'please follow'
p153
aS'please follow'
p154
aS'please follow'
p155
aS'please follow'
p156
aS'please follow'
p157
aS'please follow'
p158
aS'please follow'
p159
aS'please follow'
p160
aS'please follow'
p161
aS'please follow'
p162
aS'please follow'
p163
aS'please follow'
p164
aS'please follow'
p165
aS'please follow'
p166
aS'please follow'
p167
aS'please follow'
p168
aS'please follow'
p169
aS'please follow'
p170
aS'please follow'
p171
aS'please follow'
p172
aS'please follow'
p173
aS'please follow'
p174
aS'please follow'
p175
aS'please follow'
p176
aS'please follow'
p177
aS'please follow'
p178
aS'please follow'
p179
aS'please follow'
p180
aS'please follow'
p181
aS'please follow'
p182
aS'please follow'
p183
aS'please follow'
p184
aS'please follow'
p185
aS'please follow'
p186
aS'please follow'
p187
aS'please follow'
p188
aS'please follow'
p189
aS'please follow'
p190
aS'please follow'
p191
aS'please follow'
p192
aS'please follow'
p193
aS'please follow'
p194
aS'please follow'
p195
aS'please follow'
p196
aS'please follow'
p197
aS'please follow'
p198
aS'please follow'
p199
aS'please follow'
p200
aS'please follow'
p201
aS'please follow'
p202
aS'please follow'
p203
aS'please follow'
p204
aS'please follow'
p205
aS'please follow'
p206
aS'please follow'
p207
aS'please follow'
p208
aS'please follow'
p209
aS'please follow'
p210
aS'please follow'
p211
aS'please follow'
p212
aS'please follow'
p213
aS'please follow'
p214
aS'please follow'
p215
aS'please follow'
p216
aS'please follow'
p217
aS'please follow'
p218
aS'please follow'
p219
aS'please follow'
p220
aS'please follow'
p221
aS'please follow'
p222
aS'please follow'
p223
aS'please follow'
p224
aS'please follow'
p225
aS'please follow'
p226
aS'please follow'
p227
aS'please follow'
p228
aS'please follow'
p229
aS'finally excited show released merch'
p230
ag5
aS'hows everyone today well'
p231
aS'love tune boys'
p232
aS'please vote wooooooo best song best group best live best'
p233
aS'nominated best live best group best song please vote'
p234
ag5
ag5
ag5
ag5
asS'2013_47'
p235
(lp236
S'smoke cool drink youre virgin business doesnt make less'
p237
aS'knowing tell someone something thats going ruin'
p238
aS'night sister expects half school'
p239
aS'eughh physically feel sick'
p240
asS'2013_44'
p241
(lp242
S'chanel everydayisafashionshow'
p243
aS'miley fginightofstars2013'
p244
aS'makkke upppp'
p245
aS'love tamera'
p246
aS'makes toooooo happy'
p247
aS'cocktail'
p248
aS'ampampamp thanks pressies adultssuckthenyouareone'
p249
aS'told house like lurvvvvvv'
p250
aS'ifwedate'
p251
aS'sure neighbors seen naked window least times'
p252
aS'love waking miley'
p253
aS'mint night love halloween'
p254
aS'wigzzzzzz love'
p255
aS'love happy halloween'
p256
asS'2013_45'
p257
(lp258
S'want'
p259
aS'emazzzzzzz'
p260
aS'fuckin around game'
p261
aS'shower time showerrrrrr time selfiiiie lana happyemas'
p262
aS'naked'
p263
aS'wetten'
p264
aS'happy bday besttttie'
p265
ag5
aS'imhome fuckin ready'
p266
aS'always least expect'
p267
ag5
aS'hope feel listen bobby vinton feel listen bangerz music makes'
p268
aS'blllllllluuuuueeeee lightzzzz daaaaa shittttttttttt'
p269
aS'afternoon laying listening reggae lonesome happiest place earth nofilter'
p270
aS'bangerztour'
p271
aS'bangerztour rsvp'
p272
aS'beaaaaan'
p273
aS'floydyyyyy'
p274
aS'still beautiful look left house today happy birthday mammie'
p275
aS'need could love whenever want dream'
p276
aS'world hateful would rather macklemore'
p277
aS'suicide isnt cowardly wanna know whats cowardly treating someone want life'
p278
aS'told secrets youd never look'
p279
aS'wondering favourite cover done please tweet link video'
p280
ag5
aS'love'
p281
aS'love cant stop'
p282
aS'dont worry merch available shortly'
p283
aS'whos checked friend pixie lotts cover avicii awesome catch yesterday'
p284
aS'close 400k thats crazy'
p285
aS'bearded dragon'
p286
aS'nothing beat'
p287
aS'ohhhh beats'
p288
aS'need food guess'
p289
aS'recording'
p290
aS'favorite mine'
p291
aS'girls wear makeup guys'
p292
aS'londoooooon gonna radio live lounge 12th r1livelounge'
p293
aS'balance forces destruction magical forces creation'
p294
aS'game night'
p295
aS'everything world connected delicate strands life'
p296
aS'made fuckkka'
p297
aS'single realandtrue itunes tomorrow prod'
p298
aS'vote miley emas'
p299
aS'bangerz'
p300
ag5
aS'realize arent important someone thought'
p301
aS'picoftheday'
p302
aS'gorgeous'
p303
aS'always gets better know dead'
p304
aS'miley reigns global social media chart second week'
p305
aS'jeeperz creeperz'
p306
ag5
aS'sundays consists sitting fire bored'
p307
asS'2013_37'
p308
(lp309
S'hate good enough feeling'
p310
aS'don\xe2\x80\x99t rush anything time right it\xe2\x80\x99ll happen'
p311
ag5
aS'ilyt'
p312
aS'nicoleeeeee'
p313
asS'2013_39'
p314
(lp315
S'needs boyfriend food'
p316
aS'done noww really ahah'
p317
aS'alrighttd'
p318
aS'babe love'
p319
aS'youve nothing youve nothing lose'
p320
aS'seem sleep'
p321
aS'replace cant replace memories'
p322
asS'2013_38'
p323
(lp324
S'text first least'
p325
aS'unlimited texts text'
p326
aS'people meant time long distance ever tear'
p327
aS'everything happens reason hard part finding reason'
p328
as.