(dp0
S'2013_46'
p1
(lp2
S'congratulations handsome making semifinals taking home'
p3
aS'unfortunate unable fall asleep time night'
p4
aS'wanting'
p5
aS'start succeed anything'
p6
aS'lowkey relationship sounds like sideline'
p7
aS'currently'
p8
aS'irritated word think time blow steam leggo'
p9
aS'meal prep'
p10
aS'travel world'
p11
aS'talent possess woods would silent birds sang except sang best\xe2\x80\x9d'
p12
aS'going sleep hungry fight fall asleep toeatornottoeat'
p13
aS'2340 guess sleep nowthathomeworkisoutoftheway'
p14
aS'veteransday served serve'
p15
asS'2013_47'
p16
(lp17
S'currently search miracleshampoo repairs damage hair well gets dandruff allinone help'
p18
aS'bunch things dont really mean moment dontwe'
p19
aS'special talents passionately curious albert einstein quotes'
p20
aS'typical coffee sesh live nopainnogain\xe2\x80\xa6'
p21
aS'\xe2\x80\x9cthey respecting mind matter time'
p22
aS'respect liar convo hater time fake\xe2\x80\x9d'
p23
aS'ever achieved great things searching comfort'
p24
aS'congrats todays thankfulforcolor giveaway winners'
p25
aS'yayy thanks much email shipping info right first giveaway ever excited'
p26
aS'happy grateful excited feeling love'
p27
aS'anyone houston texas area knows best spots welcome newyear please know'
p28
aS'people arent even dating anymore talking catching feelings sleeping together ending situations'
p29
aS'entered thankfulforcolor giveaway'
p30
aS'compliment isnt thirst please relax overuse word please pleasantries\xe2\x80\x9d'
p31
aS'gentlewoman shows interest extended smile slow glance detailed compliment returned call chasi\xe2\x80\xa6'
p32
aS'beautiful thank diana sharing facebook godisalwaysnear\xe2\x80\xa6'
p33
aS'sleepyhead always knocks watching course homework neverfails\xe2\x80\xa6'
p34
aS'days days away christmas thats crazyyyy'
p35
aS'can\xe2\x80\x99t master future you\xe2\x80\x99re still slave past'
p36
aS'amrezy desiperkins fuego never taken give'
p37
aS'stared following best twitter page world fuego\xf0\x9f\x94\xa5\xf0\x9f\x94\xa5'
p38
aS'ihatemornings 2oclockismorningforme nosleep nodamnrest hateapartmentcomplexes gymtime swoleface\xe2\x80\xa6'
p39
aS'realize time whine complain something time something anthon\xe2\x80\xa6'
p40
aS'desperate housewives'
p41
aS'feeling like regular self'
p42
aS'follow instagram'
p43
aS'zombies night husband perfectnighttoendmyday'
p44
asS'2013_44'
p45
(lp46
S'showertime time mind decides think whole lifes journey'
p47
aS'always pray eyes best heart forgives worst mind forgets soul that\xe2\x80\xa6'
p48
aS'could make something ugly beautiful\xe2\x80\xa6\xe2\x80\x9d'
p49
aS'marked calendar'
p50
aS'many amazing motivators difficult understand havent begun start'
p51
aS'crazy thing make enormous difference welp satisfied difference'
p52
aS'november wecancelebrate'
p53
aS'\xe2\x80\x9ceverything ain\xe2\x80\x99t everybody\xe2\x80\x9d'
p54
aS'cupcakes today fatgirlproblems nohalloween'
p55
aS'accepts loves'
p56
aS'bitches complain xmas season starting like november like stfu wait year'
p57
aS'almost time yaasss'
p58
aS'0100 sleep'
p59
aS'1000 word essay pullingmyhairout'
p60
aS'eyebrows'
p61
aS'purchased first order ever cant wait wonders skin soexcited'
p62
aS'report \xe2\x80\x9cfuture proposed ciara\xe2\x80\x9d comment give months\xe2\x80\x9d next comment publicity\xe2\x80\x9d nobody'
p63
aS'dope somebody versatile doesn\xe2\x80\x99t matter move still stand\xe2\x80\xa6'
p64
aS'people call answer'
p65
aS'transition periods needed bigger better things happen\xe2\x80\x9d'
p66
aS'greatest pleasures life accomplishing people cant\xe2\x80\x9d'
p67
aS'work hard silence success make noise'
p68
asS'2013_45'
p69
(lp70
S'bout eyebrows check cant stand growing'
p71
aS'would without want thank'
p72
aS'love baby know\xe2\x80\xa6 don\xe2\x80\x99t ever that\xe2\x80\x99s know baby\xe2\x80\x9d'
p73
aS'running lets running legs hurt cant breathe song sucks running yeah bitches\xe2\x80\xa6'
p74
aS'give thanks keep fighting want tomorrow\xe2\x80\x9d'
p75
aS'take time humble'
p76
aS'business anyone elses business work hard actions speak'
p77
aS'know'
p78
aS'excited today hate days'
p79
aS'need miracle happen like waking 1000000 cash noworries'
p80
aS'least emails annoying'
p81
aS'dreams dont scare little enough'
p82
aS'whyyy cheesecake factory\xe2\x80\x99s bistro shrimp pasta calories krispy kreme doughnuts'
p83
aS'excited update looked time gots shits'
p84
aS'doesn\xe2\x80\x99t you\xe2\x80\x99ve eaten much sleep you\xe2\x80\x99ve gotten\xe2\x80\xa6 she\xe2\x80\x99s'
p85
aS'heaven bottle'
p86
aS'didn\xe2\x80\x99t doesn\xe2\x80\x99t mean don\xe2\x80\x99t different bring different things'
p87
aS'dying'
p88
aS'lmfao cant deal right girlcode'
p89
asS'2013_37'
p90
(lp91
S'time love naps'
p92
aS'dreams'
p93
aS'seriously like okay love right mushrooms bellpeppers tomatoes avocado turkey clean'
p94
aS'cardio arms baby'
p95
aS'always remember workout anyone else bootcamp class focus impr\xe2\x80\xa6'
p96
aS'todays smoothie ingredients wheyprotein smoothie thelife morninggymsesh leggo'
p97
aS'everytime whether woke sitting super lightheaded'
p98
aS'canelo without doubt mayweather canelo yall rocking'
p99
aS'best revenge move dont give someone satisfaction watching suffer'
p100
aS'theone saulcaneloalvarez canelo guadalajaramexico'
p101
aS'learn person don\xe2\x80\x99t give exactly want want'
p102
aS'sitting thinking ever going wear makeup'
p103
aS'like peace quiet comes boxing'
p104
aS'going watching fight dont know happy'
p105
aS'know everything amazing sodelish'
p106
aS'mood zucchini'
p107
aS'canelo'
p108
aS'husband chilling beer smoothie teamcanelo'
p109
aS'good things come believe better things come wait best things come dont'
p110
aS'amazing stuff right banana blueberries strawberries water\xe2\x80\xa6'
p111
aS'find heart care somebody else succeeded maya angelou'
p112
aS'peanut butter banana sandwich wheat bread time morning started'
p113
aS'gonna burn promise\xe2\x80\x9d'
p114
aS'told husband long list groceries need cleaneating finest teamlean teamfit want'
p115
aS'guess tomorrow ready canelo beat'
p116
aS'crazy quickly simple situation complicated people don\xe2\x80\x99t communicate'
p117
aS'today also international positive thinking'
p118
aS'teach quiet show wrong'
p119
aS'ririheartsmac fall collection arrives stores online america intl ready'
p120
aS'quick listen slow talk'
p121
aS'aint walking funny aint right'
p122
aS'favorite pictures grandma'
p123
aS'whats understood dont never explained\xe2\x80\x9d'
p124
aS'oatmeal morning sesh'
p125
aS'cant even stunt good'
p126
aS'didn\xe2\x80\x99t expect remember must really paying attention'
p127
aS'want rainbow gotta rain dolly parton\xe2\x80\x9d'
p128
aS'time'
p129
aS'ririmaccollection launching october'
p130
aS'white chocolate would nice right'
p131
aS'can\xe2\x80\x99t wait walking dead come back'
p132
aS'happy summer almost electricity bills'
p133
aS'normal person would killed session shitttt session killed'
p134
aS'time break babies nike'
p135
aS'whos ready'
p136
aS'running shoes deck'
p137
aS'months finally redone brows salon thick love time create bold looks'
p138
aS'couldnt anymore happy right moment everything comes given time want extrrrrra'
p139
aS'sent chill spine september11'
p140
aS'youre soaked tears years never airs make pain look good never wears'
p141
aS'lets dirty laundry dirty laundry'
p142
aS'bitter sweet'
p143
aS'removing replacing good\xf0\x9f\x99\x8c'
p144
aS'running yall life intend keep getting'
p145
aS'good love'
p146
aS'breakfast champs oatmeal daysss'
p147
aS'remember willing effort forth rest made excuses'
p148
aS'perfect hair fall gtgt'
p149
aS'john cena seriously sweetheart watching total divas completely amazing personality'
p150
aS'1240 sleep baby'
p151
aS'first assignment works'
p152
asS'2013_36'
p153
(lp154
S'feeling little side today must regain energy successfully complete assignments'
p155
aS'confidence thing arrogance great people dont tell others great greatly effe\xe2\x80\xa6'
p156
aS'love enemies pray persecute matthew'
p157
aS'another relate problems lets friends stop hate cause thru'
p158
aS'anyone tried really work oxyshred'
p159
aS'something like amazing greekyogurt'
p160
aS'something special woman that\xe2\x80\x99s cowboys'
p161
aS'whatever sows shall also reap galatians'
p162
aS'teaching obey everything commanded surely always matt'
p163
aS'theres much make amends butimnotgoingtobegyou dontyoudaresaywedidnttry'
p164
aS'assignments tomorrow'
p165
aS'dont want family struggle fight want dreams'
p166
aS'truth porn'
p167
aS'wait rainy saturday'
p168
aS'thank waking thank blessings strength health faith'
p169
aS'aware retweet keep word going bealert'
p170
aS'amazing dinner flavor point rate patinthebackforme'
p171
aS'know housewife life excited dinner tonight cant tell papas\xe2\x80\xa6'
p172
aS'negativity boot delete'
p173
aS'respect respect'
p174
aS'nothing like real woman back nigga'
p175
aS'would definitely love places food houston something like'
p176
aS'super duper excited tonights dinner ahhhhhhh'
p177
aS'everyone lives moving texas though cali miss state'
p178
aS'greek greekyogurt banana'
p179
aS'going kitchen tonight cupcakesondeck'
p180
aS'cupcake wars heck yeah'
p181
aS'petpeeve'
p182
aS'replacing youre typing sentence adding space become cute freaking annoying'
p183
aS'knows lotion andor ointment works really well diminish completely scars'
p184
aS'snow white huntsman please'
p185
aS'super mzjerzlove afghanistan 2011 good military days only\xe2\x80\xa6'
p186
aS'ahhh december baby youuuu'
p187
aS'beautiful things happen beautiful people'
p188
aS'soul feeling inside many ways something outside smiles cant show\xe2\x80\xa6'
p189
aS'someone please tell block numbers iphone'
p190
aS'things possible keeping faith'
p191
aS'youre welcome would amazingggg need number inbox girl'
p192
aS'negative people always drag level love rise'
p193
aS'good'
p194
aS'crossing fingers hoping week start working bachelors degree associates'
p195
aS'stomach hurting much past days whats wrong'
p196
asS'2013_35'
p197
(lp198
S'need nail filer right meow'
p199
aS'anyone know take gucci shades fixed'
p200
aS'work hard family live comfortable'
p201
aS'need running shoes life asap cant around apartment nothing starting feel depressed'
p202
aS'time world doesnt rocks'
p203
aS'sometimes gotta things dont wanna sometimes'
p204
aS'people blessed find inspiration environment'
p205
aS'youre great things steph couldnt happier'
p206
aS'trying rest good thats left'
p207
aS'sometimes wish rewind button could change time things'
p208
aS'sometimes company keep choices make'
p209
aS'believe else makes winner right venus williams\xe2\x80\x9d'
p210
aS'faith pray given whatever matthew 2122'
p211
aS'people arent always going thats learn handle things'
p212
aS'okay died laughing came across husbands signature face'
p213
aS'half miles yaaas cant wait shop goodies'
p214
aS'quicktempered foolish things prov 1417'
p215
aS'cosmetics available online stores well'
p216
aS'familia'
p217
aS'good amazing things fall place'
p218
aS'father help never afraid pray impossible\xe2\x80\x9d'
p219
aS'amazing couples cant wait reunited'
p220
aS'hawaii spring break'
p221
aS'cool thing nobody time independent woman keep that\xe2\x80\x9d'
p222
aS'want great bills refuse pick frying dinner life'
p223
aS'take care takes care everything mutual balanced'
p224
aS'slow criticize fast appreciate'
p225
aS'deal truth don\xe2\x80\x99t like can\xe2\x80\x99t deal somebody supposed able trust keeping'
p226
aS'keep mind going right direction life catch'
p227
aS'picture babysister graduated kindergarten love pieces'
p228
aS'current situation candy crush damn quests'
p229
aS'cool animals family members ranch enjoying dallas honey buns lumbeesoldier\xe2\x80\xa6'
p230
aS'please enter amazing brush giveaway thanks'
p231
aS'ohhhh yeah hope nothing goes wrong sure willing'
p232
aS'success doesnt come struggle dictionary life embrace hustle'
p233
aS'niggas wanting image niggas really dont wanna'
p234
aS'young shell wise mind mary'
p235
aS'everything gives strength phil'
p236
aS'thank eliminate people life'
p237
aS'babys looking suggestions cute little pups keep inside house'
p238
aS'need allergic creatures anymore freaking hate'
p239
aS'mosquitos playing went dallas great time cool coming back quarter size bites'
p240
aS'deepest affection intellectual conversations ability talk love anything'
p241
aS'comes point either embrace condemn miserable days'
p242
aS'sometimes gotta gotta'
p243
aS'nooo'
p244
aS'everything faced changed nothing changed faced lucille ball'
p245
aS'remember person thought couldnt live without well look living shit\xe2\x80\x9d'
p246
aS'people world'
p247
asS'2013_34'
p248
(lp249
S'took like hours edit eyebrow tutorial minutes long know muas took forever uploading'
p250
aS'love deeply love covers multitude sins 1peter'
p251
aS'eyebrow tutorial youtube channel tomorrow stay\xe2\x80\xa6'
p252
aS'check dont forget subscribe'
p253
aS'today amazing kamilla belles birthday congrats years baby girl much loved'
p254
aS'irresponsible believe hype glory gods pleasantries'
p255
aS'working getting channel together hopefully able deliver good quality video week'
p256
aS'everything claimed deserve right front today would really ready'
p257
aS'ain\xe2\x80\x99t lifting burden probably adding'
p258
aS'everybody\xe2\x80\x99s built take journey'
p259
aS'cant question gods plan understand knows whats best accept pray strength'
p260
aS'cant feed hundred people feed mother teresa\xe2\x80\x9d'
p261
aS'beautiful'
p262
aS'never tell direction gift coming must stay open possibilities'
p263
aS'either people dont realize stress dont care'
p264
aS'always tear talking husband daughter shes turning tomorrow hasnt opportunity meet person'
p265
aS'face difficult times know challenges sent destroy theyre sent promote increase stren\xe2\x80\xa6'
p266
aS'cannot always wait perfect time sometimes must dare jump'
p267
aS'good people standout\xe2\x80\xa6 believe without everything'
p268
aS'know boys chile habanero everyday faithfully ever since remember'
p269
aS'absolutely hate misspelling words abbreviating words dont words abbreviated'
p270
aS'moment update status realize misspelled word people like petpeeve'
p271
aS'people don\xe2\x80\x99t understand blessed truly thankful rather focusing'
p272
aS'cant turn back clock wind bonnie prudden'
p273
aS'1250 super inspired makeup guess wait normal time'
p274
aS'\xe2\x80\x9cdedicated swear word bond\xe2\x80\xa6 everything okay won\xe2\x80\x99t even take long\xe2\x80\x9d'
p275
aS'everything pros cons dont cons outweigh pros'
p276
aS'women discrete others blunt'
p277
aS'suffer tiny eyelash syndrome therefore eyelashes pretty long'
p278
aS'worn fake eyelashes times whole entire life unless state lashes wearing eyelashes'
p279
aS'macs studio fluid nc40 macs prolongwear concealer nc30 soft gentle highlight pixie luxe lashes'
p280
aS'bishhhh know anything makeup'
p281
aS'love kardashians sisters laaav'
p282
aS'ugly females clearly dont wear makeup horrible makeup skills talking makeup ugly much makeup'
p283
aS'talking pounds makeup find rather hilarious always little year olds talking shit'
p284
aS'goes tell commentators kardashians hating someone even familiar'
p285
aS'hating kardashian picture wasnt even picture clearly kourtney'
p286
aS'picture kourt helping kylie blow candles comments hilarious instead wishing girl theyre hating'
p287
aS'great multitasker real guys really'
p288
aS'husband always asks computer watching phone time'
p289
aS'good always'
p290
aS'courtesy everything guys please remember'
p291
aS'dislike issues bills whatever case love getting representative great customer service'
p292
aS'always person pushes chair returns shopping cart holds door open behind'
p293
aS'joan'
p294
aS'happening right doesnt mean never'
p295
aS'respect make right choice help recovery long road support'
p296
aS'focused either understand dont'
p297
aS'oldie picture love life sillyboy'
p298
aS'dont know anyone else todays rough extra hugs anyone'
p299
aS'wolves dressed like sheep'
p300
aS'women strive equal lack ambition anonymous\xe2\x80\x9d'
p301
aS'anything world\xe2\x80\xa6 choose liar\xe2\x80\x9d'
p302
aS'grudges waste perfect happiness laugh apologize cant'
p303
aS'know else hears answers every prayers'
p304
aS'would knew would fail money issue'
p305
aS'nature hunt want wanted would proposed'
p306
aS'speaks loudly really reason words'
p307
aS'like moon part always hidden'
p308
aS'ladies milani cosmetics beauty giveaway make sure check love milani'
p309
aS'woman compliment another woman beautiful trait applaud kind females'
p310
aS'judge isnt pass whack behavior pleasantries'
p311
aS'things take granted someone else praying thankful'
p312
aS'homework late sunday night nothing changed'
p313
aS'money automatically make relevant'
p314
aS'bumps arms dont seem going away anytime soon hope theyre gone morning'
p315
asS'2013_33'
p316
(lp317
S'paired grilled zucchinis tilapia amazing know'
p318
aS'salad better'
p319
aS'felt like missing much since last twitter account obviously missing nothing'
p320
aS'thought dessert looked good look ordered'
p321
aS'want join cant help different vision'
p322
aS'homemade face masks solve skin troubles laila daho'
p323
aS'always fears behind dreams front'
p324
aS'yaaas'
p325
aS'amazing'
p326
aS'stay away negativity'
p327
aS'undetermined hell body itching arms chest another level want'
p328
aS'seems like really allergic reaction either grass something visiting dallas'
p329
aS'macbook topshop voucher\xf0\x9f\x92\xb0 school supplies\xe2\x9c\x8f \xe2\x9d\x97\xe2\x9d\x95watch video enter\xe2\x9d\x97\xe2\x9d\x95\xf0\x9f\x91\x87 \xe2\x9c\xa8retweet\xe2\x9c\xa8'
p330
aS'falling love produces type high cocaine'
p331
aS'years realized important things happy grateful gratitudesoup\xe2\x80\x9d'
p332
aS'original version little riding hood wolf girl grandmother together\xe2\x80\x9d'
p333
aS'future hands didnt fathom couldnt understand built house sand somehow still'
p334
aS'days dark friends struggles hell still friends flawlessfact'
p335
aS'loving grace hope faith love space crowd flawl\xe2\x80\xa6'
p336
aS'blessed\xe2\x80\xa6'
p337
aS'nothing like people genuinely believe'
p338
aS'frida kahlo'
p339
aS'don\xe2\x80\x99t worry worry anything necessary'
p340
aS'yesterdays motd using eyeshadows anastasia beverly hills brow genius brunette'
p341
aS'everyone loyal everyone friend everyone cannot trusted'
p342
aS'beyonce made song called single ladies went home husband left lonely hoes dancing circle pretending happy'
p343
aS'dallas good'
p344
aS'back tweeta loves fourth time think british accent'
p345
asS'2013_39'
p346
(lp347
S'rainy days'
p348
aS'dragstripready darklips redlips fuckshitup cars smoke'
p349
aS'advised enrolled bachelors program associates'
p350
aS'husband babies kids boys toys cars bikes family love lumbeesoldier'
p351
aS'realized gotten comfortable waiting someone tell things supposed'
p352
aS'start appreciating life thats realize much truly live'
p353
aS'moment home throw couch feet cropped'
p354
aS'college credits'
p355
aS'smoothie time kale berries protein almondmilk mealreplacement isuck dontwanttocook okimdone\xe2\x80\xa6'
p356
aS'great fast easy customer servicegtgtgt'
p357
aS'blessing someone else'
p358
aS'truly blessed'
p359
asS'2013_38'
p360
(lp361
S'isnt think comes posting pictures awesome memories there\xe2\x80\xa6'
p362
aS'even minority truth still truth'
p363
aS'never apologize correct years ahead time youre right know speak mind'
p364
aS'many people especially ignorant people want punish speaking truth correct'
p365
aS'never made mistake means never tried something'
p366
aS'happy saturdays sundays dont think happy camper didnt sleep'
p367
aS'beyonc\xc3\xa8 rated drops'
p368
aS'girls love guys cook'
p369
aS'caption needed dayoff gonnakickassonmysecondinterview cerveza masfina'
p370
aS'follow instagram username twitter username follow knowme pics life'
p371
aS'mood never dictate manners pleasantries\xe2\x80\x9d'
p372
aS'\xe2\x80\x9csometimes back realize blessed great amazing people life shouldnt complain praise'
p373
aS'jesus said resurrection life believes live even dies john 1125'
p374
aS'desk hour work school leisure need know stuff'
p375
aS'tgif soooo today'
p376
aS'work think bowl corn flakes heaven'
p377
aS'patience virtue nonegativity happy steerclearofbad roadtosuccess'
p378
aS''
p379
aS'whymethough fmllife whycantibefit hategainingweight feelingfat ineedthegyminmybedroom'
p380
aS'great'
p381
aS'interviews morning'
p382
aS'another note walked away camaro'
p383
aS'feeling super didnt today became cheat'
p384
aS'8000 would paint good chevy engine gasmonkey'
p385
aS'feels good leggo gymsesh'
p386
aS'guys literally screenshotted picture couple months never today\xe2\x80\xa6'
p387
as.