(dp0
S'2014_21'
p1
(lp2
S'still answer ptsdmefloquine questionwhere dcoe experts askdcoe'
p3
aS'according mefloquine causes anxietydepression users mentalh\xe2\x80\xa6'
p4
asS'2014_28'
p5
(lp6
S'part research examining mdr1 polymorphisms predicting ptsdlike phenotypes'
p7
aS'please remigton nevin elspeth ritchie brief mefloquine resolve misinformation given'
p8
aS'mefloquine studies promised never materialized'
p9
aS'mefloquine report promised would produce january july'
p10
aS'side effects stop mefloquine stopped would member panel black warning side effects permanent'
p11
asS'2014_32'
p12
(lp13
S'please read'
p14
aS''
p15
asS'2014_20'
p16
(lp17
S'2013 banned mefloquine directed assessment toxicity assisting askdcoe'
p18
aS'medicaldcoe saying mefloquine toxicity exist causes hopelessness anxietymakes ptsd worse askdcoe'
p19
aS'symptoms ptsd mefloquine injury overlap dcoe ignore mefloquine injury askdcoe mentalhealth'
p20
aS'every dcoe psychologist know someone ptsd also took mefloquine askdcoe mentalhealth'
p21
aS'called dcoe help line number help never heard mefloquine toxicity askdcoe mentalhealth'
p22
aS'staff outreach center called unfamiliar mefloquine toxicity help askdcoe fail'
p23
aS'dcoes inaction affected ability care mefloquine injurywhat askdcoe mentalhealth'
p24
aS'ptsd neurological injury mefloquine diagnosed navy askdcoe help'
p25
aS'says neuropsych neurological injuries mefloquine permanent mentalhealth reached anyone'
p26
aS'medical says long term mefloquine symptoms mimic ptsd permanent including askdcoe'
p27
aS'says injury mefloquinelariam permanent askdcoe reached find injured lariam'
p28
aS'provide information mefloquine neurotoxicity confound ptsdtbi askdcoe fail'
p29
as.