(dp0
S'2012_49'
p1
(lp2
S'\xe2\x80\x9clife isn\xe2\x80\x99t finding life creating yourself\xe2\x80\x9d george bernard shaw'
p3
aS'grow mentally everything starts making sense'
p4
aS'miss kamal badly wish would dubai baby girl wish would'
p5
aS'bored'
p6
aS'messi bench hahaha fuck barcelona'
p7
aS'invention autotune ruined world'
p8
aS'work came gave rose socute'
p9
asS'2012_48'
p10
(lp11
S'eyes always goes friends really need something poll'
p12
aS'high listenin'
p13
asS'2012_45'
p14
(lp15
S'sarcasm advanced people think really stupid awkward'
p16
aS'swimming dragon flies thegoodlife'
p17
aS'smiling people dont think teenage thug'
p18
asS'2012_44'
p19
(lp20
S'sleeping cure forget pain problems stress everything'
p21
asS'2012_47'
p22
(lp23
S'wayy looking middle east cereal imissyou imisshome'
p24
aS'took like years find cereal'
p25
aS'mums louboutins gorgeous'
p26
aS'mums louboutins gorgeous'
p27
aS'doha qatar beautifulplace'
p28
aS'love weeknd amazing'
p29
aS'babe miss much aswell hate seen long'
p30
aS'miss best friend much'
p31
aS'must freezin'
p32
aS'studying pool lovelife'
p33
asS'2012_40'
p34
(lp35
S'people jealous negative things know absolutely nothing'
p36
aS'dont things wouldnt want everyone find usually'
p37
asS'2012_43'
p38
(lp39
S'dont treat someone like iphone treat like blackberry'
p40
aS'mubarak friends across world cant wait millions milkshakes kuwait next month'
p41
aS'mubarak'
p42
aS'interesting japanese dance show japanqatar2012'
p43
aS'many girls want attention enough want respect'
p44
aS'nothing hate girls ridiculously stupid purpose think nicecute\xf0\x9f\x91\x8a'
p45
asS'2013_24'
p46
(lp47
S'miss coming dubai'
p48
aS'miss'
p49
asS'2013_25'
p50
(lp51
S'marleys last words money cant life'
p52
asS'2013_26'
p53
(lp54
S'pisces shot glasses blunts'
p55
asS'2013_27'
p56
(lp57
S'awesome sealine resort beach pool qatar goodlife'
p58
asS'2013_21'
p59
(lp60
S'epic'
p61
asS'2013_29'
p62
(lp63
S'waaaay finally seeing like years miss gone paris days deff\xe2\x80\xa6'
p64
aS'coming dubai hours miss piiglet'
p65
aS'good doin'
p66
aS'earth'
p67
aS'world ends well realise useless life'
p68
asS'2013_7'
p69
(lp70
S'stuck generation loyalty tattoo love quote lying truth'
p71
aS'rastamcdonald swerve'
p72
aS'chilln likeaboss'
p73
asS'2013_6'
p74
(lp75
S'mary jane really great relationship'
p76
aS'haha loser'
p77
aS'sure send number'
p78
aS'babe samsung mini instead whatsapp'
p79
aS'babyy still working'
p80
aS'beautiful purple sequin clutch kardashian love'
p81
aS'boss ford mustang 2013 motorshow'
p82
aS'motor show 2013 awesome'
p83
asS'2013_3'
p84
(lp85
S'supp loser'
p86
aS'loser'
p87
aS'amber pregnant tyga blac chyna preg chad tatted evelyn kanye loves happened dont'
p88
asS'2013_2'
p89
(lp90
S'miss'
p91
aS'dont jealous pisces great number friends'
p92
aS'throwing cubes people cause need chill'
p93
aS'dont sleep feel high pffftt whoneedsdrugdealers'
p94
aS'miss like crazy'
p95
aS''
p96
asS'2013_9'
p97
(lp98
S'heyy'
p99
aS'pisces often look younger years jovial optimistic attitude life'
p100
aS'okay need everyone pray well soon please'
p101
aS'ready jewellery show rolex 51east pasqualebruni'
p102
asS'2012_52'
p103
(lp104
S'wish babe miss'
p105
aS'wish person always lived dubai'
p106
asS'2012_50'
p107
(lp108
S'putting midget oven hahaha thats amazing'
p109
asS'2013_10'
p110
(lp111
S'cockyim confident selfishim selflessim rudeim blunt stupid make mistakesim'
p112
aS'haha thanks google birthday love'
p113
aS'please check share group needmorelikers love'
p114
aS'swaggie geek rayban'
p115
aS'thanks rayban geeky glasses pink chanel'
p116
aS'leopard print leggings'
p117
asS'2013_15'
p118
(lp119
S'need someone won\xe2\x80\x99t give matter many times mess'
p120
aS'dubai lamborghini dubaipolice pimpin'
p121
aS'finished traditional fashion show runway sickshow swaggie'
p122
aS'born make mistakes fake perfection'
p123
aS'bitches want want'
p124
asS'2012_39'
p125
(lp126
S'beautiful little models african party awesome'
p127
asS'2013_31'
p128
(lp129
S'todays fashions bazaar postponed notice replies qatar'
p130
aS'tickets dralion available city center doha souq waqif 12am everyday'
p131
aS'dont someone else show treat'
p132
asS'2013_16'
p133
(lp134
S'perfect made liquor made'
p135
aS'people fake shit gets real'
p136
asS'2013_19'
p137
(lp138
S'chillin fellas dubai deal haha'
p139
asS'2012_35'
p140
(lp141
S'great girls night yasmine'
p142
asS'2012_37'
p143
(lp144
S'pool full liqour dive awesome'
p145
asS'2012_31'
p146
(lp147
S'cannot believe nominated vmas best artist best videoall fans please'
p148
aS'happy birthday little cousin shawn love'
p149
aS'want choos'
p150
asS'2012_32'
p151
(lp152
S'last holland happy beautiful miss oosterhout amsterdam rotterdam'
p153
aS'single doesnt mean youre weak means strong enough wait deserve\xe2\x99\xa5 loveit'
p154
aS'olympics addicting'
p155
aS'dolls watching olympics need oversell female athletes wover ladies amazing'
p156
aS'facebook page likes'
p157
asS'2012_33'
p158
(lp159
S'awesome dinner ramzi lovethaifood'
p160
aS'miss holland already qatar dont wrong good back great night yasmine swag'
p161
as.