(dp0
S'2014_43'
p1
(lp2
S'gotta parent pretty tough know you\xe2\x80\x99re asshole good parent'
p3
aS'think next train excon took wallet yelled aint afraid back jail bitch'
p4
aS'chews clean food stuck teeth'
p5
aS'chicken bones disposal case guys wondering friday night'
p6
aS'worried shes going sing words wrong worry'
p7
aS'watching important baseball game worldseries'
p8
aS'awesome'
p9
aS'someone wants talk window children back open back'
p10
aS'dumbactin'
p11
aS'dont tell'
p12
aS'stopped standing room informed theres game tonight office'
p13
aS'honey'
p14
aS'realized forgot wash conditioner hair hope performance review goes well today look like fucking idiot'
p15
aS'donald trump idiot asking pres obama resign president moron vote dont resign'
p16
aS'crying like hurt fell heaven'
p17
aS'think really hole youre diagnosed ebola prescription hole'
p18
aS'modern science find alternative catheter'
p19
aS'woke morning cold crying like born'
p20
aS'tweets work multiple levels chris'
p21
aS'homeless guys train wearing pajamas best walk shame'
p22
aS'slouching towards'
p23
aS'watched video moon landing wanna know else seen talking horse buying nasa'
p24
aS'awww monkey cute want tickle little belly'
p25
aS'playoffs looking miracle\xe2\x80\x9d'
p26
aS'looking miracle'
p27
aS'first time heard'
p28
aS'need'
p29
aS'saved shitty tweets drafts folder posted'
p30
aS'seems like convenience anyone walking 45th'
p31
aS'yall cheaters'
p32
aS'dont worry city kick dick soon feel things going well'
p33
aS'dont think life supposed easy'
p34
aS'arent fans leaving worldseries'
p35
aS'hurry move'
p36
aS'whole inning didnt score looks like defense finally stepping worldseries'
p37
aS'theres nothing worse chasing drug dealer around town doesnt balls admit weed'
p38
aS'fuck dads come back military service dress catcher surprise good straight home'
p39
aS'people never learn cant force anything'
p40
aS'nose broken'
p41
aS'bathroom selfie'
p42
aS'favorite thing find capones vault'
p43
aS'recent history tells anything royals score runs inside park wild pitch dropped third'
p44
aS'cant loathing thing overall dislike worldseries'
p45
aS'america needs weight loss tips third world countries'
p46
aS'shouldve shot like white would'
p47
aS'iphone white people'
p48
aS'moment'
p49
aS'stoned pair edible panties straight munchies'
p50
aS'works cold remedy well'
p51
aS'dont perform well pressure laundry detergent dish soap right'
p52
aS'life production value party city commercial'
p53
aS'comics sing live band monday'
p54
aS'bummed cigarette homeless dude least think cigarette definitely homeless'
p55
aS'someone killed killed hisself asking friend killed himhisself'
p56
aS'good thing hornets playing would sealing right'
p57
asS'2014_42'
p58
(lp59
S'anodyne uncle tupelo thats'
p60
aS'behind every beautiful thing theres kind pain'
p61
aS'even facetime father knows best'
p62
aS'coincidentally thats exactly order food waffle house'
p63
aS'380god bama fans annoying tonightwait misspelled every night'
p64
aS'earbuds homeless train looked said still hear motherfucker time homeless'
p65
aS'brushing jerzy kosinski'
p66
aS'honky tell rafael aint taking jive western union messenger'
p67
aS'absolutely clueless download board mixlr macbook help'
p68
aS'fellas'
p69
aS'maybe things dont really maybe become something better ever expected'
p70
aS'theyre like parents theyll make appreciate lonely 1520 minutes'
p71
aS'free bird equivalent standup comedy going open shouting chicken cross road'
p72
aS'wonderful thought pissed meha thats funny thought pissed text exchange'
p73
asS'2014_44'
p74
(lp75
S'listening homeless retell jokes katt williams didnt understand much said beeped'
p76
aS'listening homeless retell jokes katt williams talked smokin snoop shit tight'
p77
aS'listening homeless retell jokes katt williams said shit shug knight crazy'
p78
aS'listening homeless retell jokes katt williams said beep beep beep beeping beep'
p79
aS'halloween'
p80
aS'rate playing triangle season theyll uninjured players left'
p81
aS'best piggly wiggly ever theyll make sitcom jesse ventura ricky schroeder play'
p82
aS'awesome realized worded tweet closes twitter account bags groceries piggly wiggly forever'
p83
aS'vols cocks take carolina'
p84
aS'gauge level depression beck album currently playing loop'
p85
aS'fucking derek'
p86
aS'dereks gonna salty fall asleep'
p87
aS'twitter five minutes theres derek'
p88
aS'derek seriously made choice meredith didnt force 11x03'
p89
aS'hello derek'
p90
aS'trains charlotte goes north goes south convinced dozen fans wrong fuck'
p91
aS'guys arent getting laid either right'
p92
aS'calls friend friend minutes'
p93
aS'loneliness spirit animal'
p94
aS'listening homeless describe scenes footloose dance silo none black kenny loggins sang'
p95
aS'listening homeless describe scenes footloose wren starts teachin penn brothers dance shit crazy'
p96
aS'listening homeless describe scenes footloose wren told government kids dance like says bible'
p97
aS'listening homeless describe scenes footloose wren starts talkin girl named ariel looked kinda slutty'
p98
aS'listening homeless describe scenes footloose dude named wren comes town tries shake shit'
p99
aS'3way'
p100
aS'thing conservatives liberals agree guns jose canseco shouldnt'
p101
aS'holy shit listening predatory king today'
p102
aS'lying alone thing worse sleeping alone'
p103
aS'glad didnt worldseriesgame7'
p104
aS''
p105
aS'everything hootie sings sounds like nbaopeningnight'
p106
aS'true paid couple away innocent dont'
p107
aS'sixtythree losses hour'
p108
aS'listening homeless describe scenes pulp fiction went club milkshakes john travolta faggot'
p109
aS'listening homeless describe scenes pulp fiction white dude wearing mask called gimp'
p110
aS'listening homeless describe scenes pulp fiction tells dude tell girl bitch cool'
p111
aS'listening homeless describe scenes pulp fiction fool says samuel jackson metric system europe'
p112
aS'invoking rule stop bothering'
p113
aS'working mans sucker'
p114
aS'maybe already hell cross mind maybe twitter hell maybe internet phone'
p115
aS'moving seattle'
p116
aS'listening office owns corgi talk life corgi owner'
p117
aS'tuesday like amirite puts overalls lays couch cries hours'
p118
aS'youd think would something watch'
p119
aS'ltstops everything eventually'
p120
aS'shit gotta something thats deserving high opinion'
p121
aS'prefer lowe'
p122
aS'thank coming charlotte best shows ever seen'
p123
aS'awesome show cant believe actually happened'
p124
aS'lobos filled void thanks ticket'
p125
as.