(dp0
S'2013_42'
p1
(lp2
S'year visited office culver city culture surrounding incredible congrats'
p3
asS'2013_43'
p4
(lp5
S'cool would import plugin cool'
p6
aS'photo newsletter morning sick'
p7
aS'welcome california'
p8
asS'2013_40'
p9
(lp10
S'great site'
p11
asS'2013_46'
p12
(lp13
S'incredible football game'
p14
aS'stellar performing tonight'
p15
asS'2013_47'
p16
(lp17
S'using lately great wonderful'
p18
aS'whats next'
p19
aS'talk fantastic can\xe2\x80\x99t wait next'
p20
aS'deserves double thumbs'
p21
aS'awesome thanks recommending album collection'
p22
aS'looks stunning'
p23
aS''
p24
aS'definitely must already picturing'
p25
aS'literally thought said meatballs'
p26
asS'2013_44'
p27
(lp28
S'gosh'
p29
aS'holy moly join google'
p30
asS'2013_45'
p31
(lp32
S'that\xe2\x80\x99s awesome celebrate never knew could thing'
p33
asS'2013_48'
p34
(lp35
S'congratulations michael'
p36
aS'nice article animated svgs today playing around workflow implemented well bravo'
p37
aS'definitely deserves'
p38
aS'lololololol'
p39
asS'2014_44'
p40
(lp41
S'filmed behind scenes look crew check'
p42
aS'although tacoweek also therace'
p43
aS'halloween chocolate chocolate cream milk right think'
p44
aS'build'
p45
aS'perfect swear'
p46
aS'reaction'
p47
aS'part'
p48
aS'you\xe2\x80\x99re next week support friend awareness tixs available'
p49
asS'2013_24'
p50
(lp51
S'cool shot email'
p52
asS'2013_26'
p53
(lp54
S'fully migrated today reader'
p55
asS'2013_21'
p56
(lp57
S'purchased performing arts rooms school absolutely stellar'
p58
asS'2013_22'
p59
(lp60
S'people front david beckham cruise'
p61
asS'2013_23'
p62
(lp63
S'pretty stellar congratulations position'
p64
aS'coffee'
p65
asS'2013_28'
p66
(lp67
S'problem thanks responding'
p68
aS'sent email earlier'
p69
asS'2013_29'
p70
(lp71
S'geniuses love idea'
p72
asS'2014_38'
p73
(lp74
S'related twitter delay guacamole spread lunch today good can\xe2\x80\x99t stop thinking'
p75
aS'sorry delayed twitter thing nearly four years still can\xe2\x80\x99t'
p76
asS'2014_39'
p77
(lp78
S'since dont screen protector iphone decided protect scotch tape saved drop'
p79
asS'2012_1'
p80
(lp81
S'happy birthday humongo'
p82
asS'2013_36'
p83
(lp84
S'received digest magazine earlier today nice'
p85
asS'2014_41'
p86
(lp87
S'youre eating trail youre eating chocolate obstacles'
p88
aS'minutes till tickets'
p89
aS'macbook decked'
p90
asS'2013_32'
p91
(lp92
S'excellent experience every time thank recommendation'
p93
asS'2013_31'
p94
(lp95
S'cool hope stay better hotel insanity'
p96
aS'need help looking'
p97
asS'2013_30'
p98
(lp99
S'thats exactly thanks'
p100
aS'find user number'
p101
aS'used today first time absolutely awesome'
p102
aS'trouble finding friends twitter'
p103
asS'2013_16'
p104
(lp105
S'idea uber chance could email'
p106
asS'2013_39'
p107
(lp108
S'ladies gentlemen don\xe2\x80\x99t want miss holding motion designers ceos'
p109
asS'2013_10'
p110
(lp111
S'hello internet long hiatus'
p112
as.