(dp0
S'2013_42'
p1
(lp2
S'teachers actually gave minutes dressed even though theyre suppose'
p3
aS'live racine recently visited racine humane society check website constantly people adopt'
p4
aS'grown hunted attacked child killed several times call duty'
p5
aS'penguins known become depressed march away groups'
p6
aS'applying vodka face helps tighten pores reduce risk acne breakouts'
p7
aS'kind foreplay mating female giraffes urinate male\xe2\x80\x99s mouth'
p8
asS'2013_40'
p9
(lp10
S'everyone'
p11
aS''
p12
aS'retweet people follow know exactly feel'
p13
aS'many things want tell wont listen'
p14
aS'deserve every scar ever given'
p15
aS'theres inside head scars body thisgtgt'
p16
aS'people whos parents still together dont know lucky'
p17
aS'look disappointment eyes warned start really good enough'
p18
aS'time like river cant touch water twice flow passed never pass'
p19
aS'wouldve couldve shouldve never never ever'
p20
aS'sick crying tired trying yeah smiling inside dying'
p21
aS'loved ocean much became obsessed idea drowning'
p22
aS'nobody could ever understand really feeling'
p23
aS'trying real hard thinspo'
p24
ag12
aS'thinspo'
p25
aS'nobody loves girl scars don\xe2\x80\x99t blame expect love don\xe2\x80\x99t even love'
p26
aS'people need understand depression self harm anxiety eating disorders arent perks'
p27
aS'breathing mumbai india equivalent smoking packs cigarettes holy fuck'
p28
aS'calories today depending walking burn calories'
p29
aS'lost pounds week'
p30
aS'official skinny4xmas begins able sign soon miss sign still play along'
p31
aS'fittip lemon juice pinch salt warm every morning lowers cholesterol levels brings weight'
p32
aS'motivation staystrong'
p33
aS'motivation staystrong'
p34
aS'artist'
p35
aS'ever children never going feel cant feel ever'
p36
aS'knew'
p37
aS'dont understand mental illness good'
p38
aS'girl gives doesnt love shes tired getting hurt feels like youl\xe2\x80\xa6'
p39
aS'trying starve hungry'
p40
aS'month days hours minutes since last selfharmed progress'
p41
aS'youve attempted open'
p42
aS'never feel beautiful'
p43
aS'geometry test shit easy'
p44
aS'girrlllll text melt3 2629454204'
p45
aS'need someone text'
p46
aS'know butterfly project think'
p47
aS'retweet'
p48
aS'everybodys fightin never fight feel left'
p49
aS'like bree looks fine'
p50
aS'cannot hide imaginary monsters live inside mind'
p51
aS'mean upset something'
p52
aS'emily rosen'
p53
aS'youre welcome booboo'
p54
aS'nobody gives fuck fighting unattractive bitch needs beating best believe bitch gonna that\xe2\x80\xa6'
p55
aS'happened emily anything'
p56
aS'youre gonna tweet theres beautiful button'
p57
aS'someone gets attitude reason especially preppy hoes'
p58
aS'takes really piss'
p59
aS'tweet better'
p60
aS'leonardo dicaprio samuel jackson'
p61
aS'gonna'
p62
aS'drinking large motha fuckin mocha frappe 1047 guess whos going awhile'
p63
aS'well best promises lmfao'
p64
aS'gonna chill everyone'
p65
aS'woah bree beat girls lmfao'
p66
aS'watch shit'
p67
aS'failed mile still'
p68
aS'mile walking shit'
p69
aS'frappe kind coffe donut sounds delicous right'
p70
aS'2008 dutch voted \xe2\x80\x9cswaffelen\xe2\x80\x9d word year means smack one\xe2\x80\x99s penis repeatedly someone'
p71
asS'2013_41'
p72
(lp73
S'tiffany going teach ride horse excited'
p74
aS'didnt caught success'
p75
aS'want cigarette scared gonna caught'
p76
aS'follow accounts depression cutting people starving themself relate feel want happy'
p77
aS'paramore always amazing'
p78
aS'everybody flaws flaws make'
p79
aS'honestly feel good like'
p80
aS'trying loose weight anybody else retweet thinspo mean dont feel good'
p81
aS'people born 19951999 lived decades centuries milleniums'
p82
aS'romans used plant called silphium contraception much drove extinction'
p83
aS'medicine makes crabby blah'
p84
aS'swear every couple months claiming dont want drama start shit'
p85
aS'confront person behind screen'
p86
aS'wait wait wait according logic call cunt means jealous thats stupidest shit ever heard lololol'
p87
aS'people insist fucking easy something back'
p88
aS'multiple people talking views fighting voiced opinion'
p89
aS'fucking dare'
p90
aS'thats something twitter'
p91
aS'someone keeps running mouth theyre practicaly begging fight yeah amusing watch unless someone jumped'
p92
aS'fighting normal part life living things fight'
p93
aS'pomsky cross pomeranian husky stay size entire life'
p94
aS'good prostitution constitution wake america'
p95
ag12
aS'somebody netflix account today please please please please please please please please please please please'
p96
aS'tell emily homework notes math'
p97
aS'dont want sleep dont want dont want school dont want dont want breath dont want'
p98
aS'depressing tweets warning'
p99
aS'still dont know accept compliments without either sounding cocky unappreciative'
p100
aS'matter choose like leave alone decision'
p101
asS'2013_47'
p102
(lp103
S'worthless waste space think stop eating slowly fade away'
p104
asS'2013_49'
p105
(lp106
S'figure'
p107
aS'miss sitying'
p108
asS'2013_37'
p109
(lp110
S'whenever make contact someone always terrified first thought ugly'
p111
asS'2013_39'
p112
(lp113
S'atelophobia fear good enough imperfections'
p114
aS'australian quokka'
p115
aS'chihuahua puppy'
p116
aS'well thats great ending'
p117
aS'fudge sundae cookie dough sounds good'
p118
aS'fine needs sleep'
p119
aS'james harrison'
p120
aS'theres difference honest asshole'
p121
aS'great told ugly already know thanks making feel even lower'
p122
aS'least immune system destroys cell would become cancer lived'
p123
aS'orchid mantis'
p124
aS'watch something bitch school'
p125
aS'hate confused quick fuck fuck'
p126
aS'tired shit well didnt befor last night'
p127
aS'pricasso'
p128
aS'mcdonald\xe2\x80\x99s tried selling mcpizza mcspaghetti'
p129
aS'pain make always inviting'
p130
aS'trapped inside cage tonight torture brain blades knifes need save life insane'
p131
aS'diagnosed depression everyone thinks happy'
p132
aS'rarely'
p133
aS'want'
p134
aS'someone'
p135
aS'would make tiniest happy right chinese foodlt3 crab rangoons sweetampsour chicken mofos'
p136
aS'never understand even explain youll call crazy might true'
p137
aS'feel like going puke'
p138
aS'cute'
p139
aS'lets order pizza makeout watch halloween movies listen music'
p140
aS'nobody better fuck today snap dont care'
p141
aS'mood today'
p142
aS'world clock phone says actual time phone says'
p143
aS'theres aquarium water slide goes shark tank wanna'
p144
aS'hair difficult'
p145
aS'hitler suffered chronic flatulence took different drugs fight cocaine'
p146
aS'marriages history second cousins closer'
p147
aS'damn shit bogus'
p148
aS'people world mobile phones toilets'
p149
aS'russia illegal tell kids people exist fucckkk'
p150
aS'people attractive think'
p151
aS'female mosquitoes bite males vegetarian'
p152
aS'retweet tired life'
p153
aS'tekken'
p154
ag12
aS'another accounting easy work'
p155
aS'egypt actors allowed testify court seen professional liars'
p156
aS'baby changing tables public restrooms tested positive cocaine'
p157
aS'done trying fuck fuck fuck probably still text tomorrow fuck feel'
p158
aS'look ugly today'
p159
aS'random dumb post wants shut'
p160
ag12
aS'shut ruining morning'
p161
aS'cunts cunt blasters'
p162
aS'yeah well never checked twitter found used sooooo'
p163
aS'stalk much'
p164
aS'fuck jeans soft'
p165
aS'zyra makes mornings betterlt3'
p166
aS'damnnnnn girl saucy'
p167
aS'chinese food breakfast breath kickin'
p168
aS'male honey climaxes testicles explode dies'
p169
aS'feel like poop'
p170
aS'sweet shout'
p171
asS'2013_38'
p172
(lp173
S'well would grab first last quicker shit'
p174
aS'cute make normal face sike'
p175
aS'hairgtgt'
p176
aS'homecoming today horlick'
p177
aS'sometimes better silent time'
p178
aS'ones love'
p179
aS'difference night'
p180
aS'dont anywhere school home'
p181
aS'hurt know survived cares almost didnt'
p182
aS'make today tomorrow worth'
p183
aS'ever realized faked feelings much dont even know really feel anymore'
p184
aS'looking fake smile bloody wrists real twist looking mirror'
p185
aS'going work boothang'
p186
aS'fact sometimes scared'
p187
aS'talking isnt easy'
p188
aS'theyre really going antidepressants'
p189
aS'youre reason always upset'
p190
aS'quit comparing girls'
p191
aS'selfharming starts seem like perfect solution'
p192
aS'slowly depression comes back'
p193
aS'yeah'
p194
ag12
aS'fucking hate'
p195
aS'think need glasses projector sucks'
p196
aS'gonna best maybe check followers time'
p197
aS'well imma followers people understand would nice'
p198
aS'people tend ignore dont understand'
p199
aS'well theyre cunts'
p200
aS'people like unloved'
p201
aS'sucks feel worthless'
p202
ag12
aS'fucking hate class'
p203
aS'many followers'
p204
aS'hope softball'
p205
aS'wonder going play today softball kickball'
p206
aS'next'
p207
aS'finished accounting work easyyy'
p208
aS'random truth'
p209
aS'first test math mofos'
p210
aS'still looks gooooood'
p211
aS'tinted pink hair'
p212
aS'dyed hair black'
p213
aS'school burn everybody hate inside'
p214
aS'relate sooo many tweets'
p215
aS'feel fucking worthless'
p216
aS'time'
p217
aS'saying shes slut vagina password probably 1234'
p218
aS'ever looked like nope'
p219
aS'describeyourlifeinapicture'
p220
ag12
aS'tried pink haor dyed black still pink spots hair gotta'
p221
aS'took picture left store purse pretty cute'
p222
aS'lunch table loud theyre giving headache'
p223
aS'stomache hurts'
p224
aS'many sluts horlick'
p225
aS'look stairs half bitches hanging'
p226
aS'girl cant even scarf right'
p227
aS'dont need ring tell year graduate'
p228
aS'class ring even important'
p229
as.