(dp0
S'2013_42'
p1
(lp2
S'think'
p3
aS'well gettin boot need nawlins marry today still mines'
p4
aS'innat'
p5
aS'leos attracted looks personality makes stay'
p6
aS'cant change leos mind change'
p7
aS'nigga made sure wasnt forgotten'
p8
aS'troy'
p9
aS'yeaaaaaathese days need hurry'
p10
aS'much hate school shit gotta back'
p11
aS'made outta high school absolutely work'
p12
asS'2013_43'
p13
(lp14
S'sipped vlive'
p15
aS'vlive tonight'
p16
aS'guess hitting strip club tonight booty booty booty booty rocking everywhere'
p17
aS'young looking'
p18
aS'hell'
p19
aS'aint roll since tent party last yearmy best roll ever lmao'
p20
aS'careful'
p21
aS'procrastinate much'
p22
aS'need another friends baby spoil'
p23
aS'really cares someone happiness matters'
p24
aS'girls like mewith hearts'
p25
aS'unfollow pretty girl didnt feel right knowing nigga face'
p26
aS'dude tried play city'
p27
asS'2013_40'
p28
(lp29
S'good moviethey need atl2'
p30
aS'still walking crowd like cant touch'
p31
aS'cant never keep calm'
p32
aS'characters streets nigga'
p33
aS'taken kinda sorry first waaaaay better'
p34
aS'wonder used hang around nothing niggasthese hoes phony'
p35
aS'flirting'
p36
aS'proud'
p37
aS'braids hmmm'
p38
aS'never trip shit thats mine especially shit done already'
p39
aS'right eyebrow raise walk away'
p40
aS'without badge bitch half fuck police'
p41
aS'months strong'
p42
aS'everybody turning tonightbut'
p43
aS'dont curse anymoreyou cursed'
p44
aS'carry things know mean'
p45
aS'status aint hoood aint checkin'
p46
aS'dont give shoots multiple bullets shot'
p47
aS'shit really want'
p48
aS'fucked world'
p49
aS'couple chicks messing round chick aintme'
p50
asS'2013_41'
p51
(lp52
S'head killing'
p53
aS'dont worry hell come around'
p54
aS'bored'
p55
aS'mawmaw always tell everything need hear'
p56
aS'went back turn house tylers house'
p57
aS'last year wednesday class went fuentes lmao'
p58
aS'wednesday could livest days life make'
p59
aS'tryna show dance shitshe must know'
p60
aS'better mara finna turn upyou know'
p61
aS'mama character'
p62
aS'party plans wednesday fuentes innat'
p63
aS'keep blessing'
p64
aS'tryna anyway come'
p65
aS'bingo solo dolo'
p66
aS'miss fuentes'
p67
aS'thursday 17th'
p68
aS'wednesday fuggit'
p69
aS'last year thrown around tent well thats everywhere'
p70
aS'annoys really missing tent party like'
p71
aS'woke dreams'
p72
aS'joseph cason pray'
p73
aS'hour still'
p74
asS'2013_37'
p75
(lp76
S'theres sandwich without chips since youngin'
p77
aS'even shit outta'
p78
aS'love boxing'
p79
aS'knock bitch floyd'
p80
aS'tank tooo extra'
p81
aS'moneyteam'
p82
aS'heart niggas'
p83
aS'smart move'
p84
aS'industry counterfeitsi cant fwyall'
p85
aS'morning codymane'
p86
aS'good morning world world good morning nigga'
p87
aS'making another insta today'
p88
aS'good morning'
p89
aS'want thing back'
p90
aS'really hate yall dawg'
p91
aS'everytime lose bounce back souljaslim'
p92
aS'almost 2014'
p93
aS'looking invisible shit'
p94
aS'lmaoo'
p95
aS'stay outta dbell lmaooo'
p96
aS'lmaooo fuck'
p97
aS'cant deal right'
p98
aS'wasnt ready'
p99
asS'2013_47'
p100
(lp101
S'birthday hehehe'
p102
aS'think somebody laid'
p103
aS'pimp pimp chicken played'
p104
asS'2013_44'
p105
(lp106
S'nigga stop fucking couldnt take wayyy ahead facts'
p107
aS'hoes like'
p108
aS'need consistent dont worry gonna seetalk today thursday friday looking'
p109
aS'brutal honesty affection consistency support need'
p110
aS''
p111
asS'2013_45'
p112
(lp113
S'hello'
p114
aS'nigga aint fuck shit'
p115
aS'yellas really type brown skin honeys'
p116
aS'cant never sleep want'
p117
asS'2013_24'
p118
(lp119
S'lemme head'
p120
aS'wassup show wassup'
p121
aS'aint shit'
p122
aS'fuck monthsgot fucked'
p123
aS'niggas really aint talk days gotta mind wonderdont call days wont hear weeks'
p124
aS'never morning person'
p125
aS'wanna hang wanna hang bang wanna bang bang'
p126
aS'bitch leeaaacchhhh'
p127
aS'waking early hell lately'
p128
aS'heartbreaker best'
p129
aS'bday gotta july'
p130
aS'going home essence weekend'
p131
aS'mara hmmmm'
p132
aS'girls eating good results coming soon'
p133
aS'martin wanted fuck time timefasho'
p134
aS'love swear realize value mother older'
p135
aS'yall following extra lame'
p136
aS'followers lmaooo'
p137
aS'mara vlive surrday beeeet\xe2\x80\x9d tooooo\xe2\x80\x9d\xf0\x9f\x99\x8cwhoop whoop'
p138
aS'tired'
p139
ag111
aS'break excuse wanna'
p140
asS'2013_25'
p141
(lp142
S'aite'
p143
aS'feel'
p144
aS'move much houston'
p145
aS'drinking summer'
p146
aS'cause night'
p147
aS'smhwya'
p148
aS'wish morning nighttime nighttime morning'
p149
aS'lovin cool gettin money thing dats mindso guess whole world feeling like'
p150
aS'morning twitter'
p151
asS'2013_32'
p152
(lp153
S'mama finna live watching game know'
p154
aS'rubicon december'
p155
aS'bitches anything make selves look good witcho uglass'
p156
aS'want apartment'
p157
aS'fuck mean aint nasty'
p158
aS'havent smoked months lawwwd need drink blue muthafucka'
p159
aS'phuck human nature'
p160
aS'gtgtgtunexpected visitors'
p161
aS'thats shecold sense changing thats know'
p162
aS'waiting'
p163
aS'chase diddy dough'
p164
aS'faith like biggie'
p165
aS'stupid hoes gone learn lesson'
p166
ag111
aS'peanut butter jelllyyyy'
p167
aS'clutch remember limewire'
p168
aS'awkward moment cause wanted'
p169
aS'wanna take somebody caption anotha nigga bitch swear'
p170
aS'count followers hands feet case'
p171
aS'wonder nuney coming'
p172
aS'giving insta breakhello twitter'
p173
aS'heyyyy courtney'
p174
aS'still twitter'
p175
asS'2013_33'
p176
(lp177
S'aint weits'
p178
aS'think meant behe loves work loves'
p179
aS'true prettyfine female opinon needs eyeliner enhance beautylil lipstick feel like doin\xe2\x80\xa6'
p180
aS'look boyfriend looking sexy shit invisible assmhmmm'
p181
asS'2013_21'
p182
(lp183
S'leave else hold'
p184
aS'understand dont really dont'
p185
aS'know could could twice'
p186
aS'nigga trick daddy'
p187
aS'magic stick'
p188
aS'style like bently coupe'
p189
aS'lets dirty laundry dirty laundry'
p190
aS'posted photo'
p191
aS'bring followers guys'
p192
aS'trap house'
p193
aS'love high'
p194
aS'dont never wear lipstick candy yumyum cuteeee'
p195
aS'guess'
p196
aS'hell yeaall look pictures damn'
p197
aS'need gold grill'
p198
aS'deleted twitter would thing'
p199
aS'hate hispanic stop fuckin staring cuss pervert'
p200
ag111
aS'follow back right'
p201
ag111
aS'bday wats turnuppp'
p202
aS'place coming next weekend'
p203
aS'popped pimple shit'
p204
aS'nothing working still'
p205
aS'neva nigga think needm'
p206
aS'nigga'
p207
ag111
aS'heyyyy'
p208
aS'hello twitter'
p209
asS'2013_22'
p210
(lp211
S'thank pasties'
p212
aS'capricorns libras'
p213
aS'cancers emotional good yall'
p214
aS'cant fool love'
p215
aS'peep everything'
p216
aS'make another twitter'
p217
aS'wake morning feeling like diddy'
p218
asS'2013_23'
p219
(lp220
S'houston'
p221
ag111
aS'time pass'
p222
aS'lmaoo'
p223
aS'like dont wamt itll nice show identification'
p224
aS'bitch bouta turn shit'
p225
aS'vanilla smell soooo good'
p226
aS'always sense something else needs said'
p227
aS'howtoattractaleofemale dont tell love show'
p228
aS'meaannn kinda response'
p229
aS'hate waking'
p230
aS'calling maam clearly fucking'
p231
aS'personal problem dont know maam crazy'
p232
aS'dont call call dont answerdisrespectful'
p233
aS'freaking tired'
p234
aS'happy birthday'
p235
aS'rich homie quan type'
p236
aS'donuts'
p237
aS'adios'
p238
aS'mygirlfriendisnotallowedto grace head ineed talkin bout lol\xe2\x80\x9dim done'
p239
aS'supposed schleep'
p240
aS'aint nigga finna stop shine amen'
p241
aS'nigga diners drive dives whatever aint never givin tryna look like beach'
p242
aS'cant petty friendsi repeat welol'
p243
ag111
aS'fashooooo last night'
p244
aS'gave trick emojis ipheezy'
p245
aS'inbox dont play lmao'
p246
aS'want yall emojis'
p247
aS'keep gurl'
p248
aS'every little thing lookinass'
p249
aS'know back thoidk back'
p250
aS'like forealyall dont even know'
p251
aS'nuney killing'
p252
aS'fight meniggas wanna talking heads'
p253
aS'dont rude bitch better'
p254
aS'people anything\xe2\x80\x9d girl stfult prime example'
p255
aS'done'
p256
aS'done fucked giving android vine'
p257
aS'people anything'
p258
aS'mannn free thugg miss brudda mane need nigga home dats'
p259
aS'back houstoni left morning'
p260
aS'aite'
p261
aS'sleep'
p262
aS'stole copy pineapple express ainie morninglmaooo make copy'
p263
aS'good weekend'
p264
asS'2013_36'
p265
(lp266
S'live'
p267
aS'pressing space twice'
p268
aS'gucci mane tweet grandma text lmao'
p269
aS'going avenue supposed poppin'
p270
aS'niggas hungry'
p271
aS'nigga dead like food throw away'
p272
aS'houstonyou'
p273
aS'yupp'
p274
aS'went drinking last night stuck'
p275
aS'gucci guwop'
p276
asS'2013_39'
p277
(lp278
g111
aS'mama miss nshit cant stop thinking bout nuney need brainwashed\xe2\x80\x9d'
p279
aS'fuck riding headphones want somebody sumtn'
p280
aS'ughhhhhhhh'
p281
aS'fuuucccccccccckkkkkkkkk dont cord'
p282
aS'cant wait bump'
p283
aS'cant stop thinking bout need brainwashed'
p284
aS'dream last night uncalled'
p285
aS'anotha nigga bitch ilovenuney'
p286
aS'gotta money thing thinking'
p287
aS'home wanna'
p288
aS'spread legs liveeeee every time beat'
p289
aS'weekend'
p290
aS'swear forgetting come back'
p291
aS'mani coming like crazy coming next month'
p292
aS'shit bouta take sleep'
p293
aS'another niggas caught upvideo texting lmao glide'
p294
aS'auntie talking glidei like'
p295
aS'single really gives time truly figure real'
p296
aS'especially nigga'
p297
aS'nigga gtgt make wanna give every time come around'
p298
aS'hush'
p299
aS'nigga really took picture santa lmao'
p300
aS'justin nigga'
p301
aS'youve taken picture neworleanssanta'
p302
aS'everybody photogenic'
p303
aS'courtney janae king'
p304
aS'mama still basic fruit loops'
p305
aS'wish lucky charms apple jacks something know marshmallows'
p306
aS'cereal every night dawg'
p307
aS'feel chase paper'
p308
aS'girl wanna fund'
p309
aS'safe right'
p310
aS'hate bitch like shit dont stank pretty dont'
p311
aS'dontcha wish like'
p312
aS'good moaning'
p313
aS'shit'
p314
aS'niggas finally grow up\xe2\x80\x9d50aww damn telling gotta wait'
p315
aS'niggas finally grow'
p316
aS'fall starting beautiful'
p317
aS'goodnight'
p318
aS'early tonight'
p319
aS'wish could still playa'
p320
aS'settle piece peace'
p321
ag111
aS'mama drunk lmaooo'
p322
asS'2013_38'
p323
(lp324
S'foreal'
p325
aS'help thats'
p326
aS'turning homecoming think'
p327
aS'maneuver'
p328
aS'snakes grass shit'
p329
aS'lmaooo righhhht well maintained'
p330
aS'babydaddy'
p331
aS'dont think take another done alot shit moriah'
p332
aS'head saying done'
p333
aS'wanting throw type shit mama head shut upppppppp'
p334
aS'maybe'
p335
aS'want boys want attention girls allowed'
p336
aS'grow responsibility'
p337
aS'yall want little need find daddy lolme toooo'
p338
aS'something nothing'
p339
aS'dude trip'
p340
aS'nann nigga'
p341
aS'face breaking noone seems'
p342
aS'phone company witg'
p343
aS'aint going nowhere girl'
p344
aS'tell female friends stay single niggas trying build nothing list bitches'
p345
aS'sleepy cant sleep'
p346
aS'free'
p347
ag111
aS'niggas quick call girl even quicker dick'
p348
aS'maaan need overnight'
p349
aS'brooklyn talk much shit dawg'
p350
aS'jamara frontin twitter jail night lollmaooo bitch'
p351
aS'temporary'
p352
ag111
aS'need temporary niggai guess back pimping'
p353
aS'bitch stupid'
p354
aS'asked phone nahhi said nahhhh lmaoo'
p355
aS'nahhhhh'
p356
aS'wonder niggas know stupid sound tryna explain'
p357
aS'loyal women hard find vice versa'
p358
aS'made mistakes girl know better'
p359
aS'find fucking somebody else done'
p360
aS'dudes mature enuf dats girl hold matter'
p361
aS'brooo hoes cant wear lashes'
p362
aS'idris elba gtgtgt'
p363
aS'aint nothing texas anymore'
p364
aS'wanna move back orleans'
p365
ag111
aS'pride havveee youll needing nahh'
p366
aS'sike love noonknee'
p367
aS'reminds people reminds person'
p368
aS'cant fuck nuney nomore'
p369
aS'pride havveee youll needing'
p370
aS'miss'
p371
aS'ughhh'
p372
aS'aint concern anymore'
p373
aS'good morning'
p374
aS'bitch want nigga'
p375
aS'show'
p376
aS'either real fake riplilsnupe'
p377
aS'love small pretty dawgwe love small person'
p378
aS'night xpill morning xanax'
p379
aS'never sleep'
p380
aS'nigga seasonal love lmao'
p381
aS'caring person feelings dont'
p382
aS'always seem find back real shit'
p383
as.