(dp0
S'2014_35'
p1
(lp2
S'whatever asshole fucking account'
p3
aS'stop hacking stupid twats'
p4
aS'seriously biggest asshole history people could asked'
p5
aS'whos account'
p6
aS'fuck'
p7
aS'could fucking asked wouldve given'
p8
aS'part hacked deactivate'
p9
aS'give fucking account back'
p10
aS'little asshole'
p11
aS'youre fucking prick'
p12
asS'2014_30'
p13
(lp14
S'turn'
p15
as.