(dp0
S'2013_7'
p1
(lp2
S'lalala'
p3
aS'follow back'
p4
aS'follow back please'
p5
aS'follow back'
p6
aS'follow back please'
p7
aS'follow back please'
p8
aS'follow back'
p9
aS'follow back please love tweets'
p10
aS'follow back pleaselt3'
p11
aS'follow back pleaselt3'
p12
aS'follow back please'
p13
aS'follow back please'
p14
aS''
p15
aS'exactly'
p16
aS'love'
p17
aS'yeah cousin daughter bitch aunt dads'
p18
aS'cutie'
p19
aS'never taught cousin'
p20
aS'okay'
p21
aS'haha took forever understand facebook'
p22
ag15
aS'took hours forget'
p23
aS'dont want really today dont need listen'
p24
aS'yeah true haha reminds attempt teaching gramps text'
p25
aS'always complaining wanna listen'
p26
aS'dont wanna self centered haha awww thats cool hasnt discovered themyet'
p27
aS'enough baby'
p28
aS'baby kinda today'
p29
aS'boxes tools'
p30
aS'pretty good didnt cashier much unload stock frozen foods hands cuts'
p31
aS'haha still using want something diff right gonna backup'
p32
ag15
aS'kind flawless wish could'
p33
aS'thank love'
p34
aS'saved wanna'
p35
aS'kaylaaaa food buddy follow back'
p36
aS'hiii follow back'
p37
aS'follow back'
p38
aS'hiii andie follow back woop wool'
p39
aS'bitch follow back'
p40
aS'guys manda follow back'
p41
aS'manda follow back\xe2\x99\xa5'
p42
aS'guys manda gonna follow back\xe2\x99\xa5'
p43
aS'gonna start using account'
p44
as.