(dp0
S'2013_46'
p1
(lp2
S'question'
p3
aS'wearing right clothes'
p4
aS'last thing drink milk'
p5
aS'would rather live without music music maybe'
p6
aS'dangerous thing ever done kill'
p7
aS'women live longer stfu live makes live'
p8
aS'favorite wasting time dont waste time creat time kill'
p9
aS'life like planets hella balling every'
p10
aS'foreign language would like learn somali arabic ever language biftu speaks'
p11
aS'knew live would would travel people close'
p12
aS'question'
p13
aS'many books read life like around 2535'
p14
aS'feel like beautiful girl room hell suppose know'
p15
aS'could rearrange alphabet together yeah would'
p16
aS'beautiful inside outside least told'
p17
aS'excuse empty pockets believe cant find pockets must locked'
p18
aS'work subway gave footlong lmao already know'
p19
aS'babe beauty makes morning look like dull glimmer thanks means thanks'
p20
aS'hold hand would hold walk hell yeah'
p21
aS'eyes blue like ocean baby lost already know swim right'
p22
aS'could anything want dinner tonight would lobster never lobster'
p23
aS'song defines childhood song went joinery'
p24
aS'prefer night night'
p25
aS'look like wake morning ugly look better night'
p26
asS'2013_44'
p27
(lp28
S'would like date someone meet internet yeah people past'
p29
aS'love hate love dont meaning hate'
p30
aS'ever love tooooooo many damn times'
p31
aS'last restaurant went panda express'
p32
aS'favorite activity basketball'
p33
aS'last thing made hands nothing'
p34
aS'whats favorite flavor bubble'
p35
aS'what\xe2\x80\x99s book think everyone required read quran'
p36
aS'major weakness worldly life'
p37
aS'could communicate minutes dont dont want'
p38
aS'question'
p39
aS'helps make right decision making wrong'
p40
aS'first animal would went dragon'
p41
aS'cruelest person history'
p42
aS'favorite place panda express'
p43
aS'question'
p44
aS'hours house worship'
p45
aS'robbin drake costumes like eyes gimme everything pockets want iphone wallet'
p46
aS'always live thru zone worldwide matter hard change proud famila allday'
p47
aS'like bitches thats motherfucking problem like bitches thats motherfucking probelm zoneoutbitches'
p48
aS'anyone said didnt look somali swear hate saying somali muslim 99probelms somail muslims'
p49
aS'yall niggas think halloween games till yall robbed darth vader power rangers'
p50
aS'game guess mean dont know fall always come answer means game game'
p51
aS''
p52
aS'ismahan anymore'
p53
aS'think animals think humans think dumb hell dont want find real'
p54
aS'question'
p55
aS'question'
p56
aS'pick place town bring tourist would girl bedroom'
p57
aS'favorite clothing store store sell bike jordan'
p58
aS'could leave tomorrow oneway ticket mecca first texas beef'
p59
aS'meal cook best indian food fried chicken cuzzo'
p60
aS'think right keep wild animals yeah guess'
p61
aS'like watching television animes'
p62
aS'zodiac sign best libra every'
p63
aS'city countryside prefer city'
p64
aS'name things make smile friends money'
p65
aS'first thing mind morning salat almost missed cuzzo'
p66
aS'beautiful woman thats mother wallahi never seen must'
p67
aS'keep busy rainy soccer rain basketball sport life'
p68
aS'could change thing world would'
p69
aS'city would choose capital world'
p70
aS'remember fucking pass word back bitches dynamiteog'
p71
aS'question'
p72
asS'2013_45'
p73
(lp74
S'favorite dessert cake'
p75
aS'would clone could someone already clone like times'
p76
aS'tolerate heat cold better heat hate heat'
p77
aS'like dislike spicy food love spicy food wallahi need wife loves spicy food'
p78
aS'would knew couldnt fail farther ever'
p79
aS'funniest person know thats queen slim ismahan'
p80
aS'like name'
p81
aS'questions'
p82
aS'hurting people life think time stop mean love right'
p83
aS'retweet follow everyone else retweets followers fast teamfollowback follow2befollowed'
p84
aS'saying something earlier bother later'
p85
aS'lots money would save wife something'
p86
aS'stupidest thing ever done dont want call secret'
p87
aS'prefer answer questions answer'
p88
aS'whats first thing notice person personality wallahi meet nice people'
p89
aS'scale \xe2\x80\x9ccool\xe2\x80\x9d like'
p90
aS'breakfast morning dont remember'
p91
aS'what\xe2\x80\x99s favorite method shopping fast slow volcano'
p92
aS'could live forever would want nope would seem much death makes want crazy'
p93
aS'goal next hours sleep'
p94
aS'place always wanted visit ohio texas'
p95
aS'could spend next year living anywhere world would ohio texas maybe mecca'
p96
aS'watch yesterday nothing'
p97
aS'first disappointment hours'
p98
aS'spend time internet facebook anime hoops'
p99
aS'dangerous animal'
p100
aS'favourite vegetable nope nope nope dont'
p101
aS'like olives'
p102
aS'delicious berry whats berry'
p103
aS'could instantly speak language world would arabic'
p104
aS'best holidays ever life'
p105
aS'really believe people evolved apes nope allah creates earth'
p106
aS'believe love yeah relationships problems dont want'
p107
aS'could child cant ever want ever want'
p108
aS'often drink coffee none hate coffee'
p109
aS'little want still want great father kids'
p110
aS'favorite movie soundtrack star wars'
p111
aS'expensive thing youve ever bought nothing dont things save future'
p112
aS'question'
p113
aS'whats favorite photo youve taken'
p114
aS'breakfast morning didnt'
p115
aS'habit others annoys habit everyone clone everyone'
p116
aS'what\xe2\x80\x99s best gift ever given someone opinion heart till used'
p117
aS'movies books made impact quran need answer find'
p118
aS'worst place could stuck cliff around 30000'
p119
aS'traditional meal country bacon'
p120
aS'book existed book would like quran'
p121
aS'love smell girl smell nice well'
p122
aS'youre given wishwhat would forgiving past sins future sins'
p123
aS'scares anything else stfu scares'
p124
aS'could enlarge part body woul height didnt even growth spurt'
p125
aS'would change world alahhualim knows'
p126
aS'could wanted kind would thats slim good'
p127
aS'teenagers think nothing zombies goals eyes paper'
p128
aS'things every heart blood'
p129
aS'question'
p130
aS'causes panic dying become hero'
p131
aS'could live without computer hell wifi life'
p132
asS'2013_26'
p133
(lp134
S'else wants'
p135
aS'paul pierce wont crossover johnson game maybe practice'
p136
aS'trust nigga girl trust bitch nigga'
p137
aS'thanks support family friends coaches'
p138
aS'unbelievably excited part cant wait work hard earn spot blessed'
p139
aS'nbadraft lakers going good year duke lakers'
p140
aS'dwight wants leave leavemitch kupchak'
p141
aS'kupchak shooting senior unusual thats skill'
p142
aS'hate told dwight says laker fans ungrateful dont appreciate'
p143
aS'still reputation players arrested since superbowl'
p144
aS'ilostinterestwhen guys stopped caring hair start rolling crew spark interest'
p145
aS'dh12 thing bout leaving nbarumors'
p146
aS'world matter seem'
p147
aS'gets championship thank congrats whens parade'
p148
aS'brasil national team still race going could settled next summer'
p149
aS'point dont even care people like anymore like cool dont okay'
p150
aS'good dwight leaves produce center lakers moment'
p151
aS'hannnah montana said lifes make lets make rock know alter slut miley'
p152
aS'finna money worksome getitnow werethemoney'
p153
aS'slick bluntsmoker drew makin happen guys oldchanel'
p154
aS'david follow back'
p155
aS'realized fucken amazing twitter tumblrs going summer holidays fuck'
p156
aS'want truck'
p157
aS'need phone asap'
p158
aS'every cute house cant marry outside country like'
p159
aS'wallahi batter flake wanna pray'
p160
aS'follow back please'
p161
aS'take deep breath cool'
p162
aS'death come ready'
p163
aS'wanna pull uncontable canthavenough'
p164
asS'2013_37'
p165
(lp166
S'retweet follow everyone else retweets followers fast teamfollowback follow2befollowed'
p167
aS'fallen cant tony romo'
p168
aS'like watching playing basketball'
p169
aS'instagram follow back'
p170
aS'smoking'
p171
aS'money power respect'
p172
aS'follow instagram'
p173
aS'romo throwing ball casper ghost'
p174
asS'2013_36'
p175
(lp176
S'thing mind every morning'
p177
aS'dynamiteog'
p178
aS'maury celebrating 2500th episode arrrrrrre father'
p179
aS'music kendrickyounext cassidy diss'
p180
aS'football season kicks tonight'
p181
aS'without'
p182
aS'instagram asap follower ever back follow instagram'
p183
aS'lakers going thru transition phase talked team social media clippers no30'
p184
aS'fuck niggas cause niggas\xf0\x9f\x91\x86'
p185
ag52
aS'kobe injures purpose become even stronger looool'
p186
aS'feelin type'
p187
aS'remember first started smoking would high would laugh nonstop hours'
p188
aS'lakers goin shock alota people season hoes ranking 12th spot'
p189
aS'ethiopian woman best ethiopian eastafrica'
p190
asS'2013_35'
p191
(lp192
S'today national high fuck dayjust like every'
p193
aS'kids cute turn'
p194
aS'follow instagram dynamiteog'
p195
aS'follow instagram dynamiteog dynamiteog'
p196
aS'smackcam niece'
p197
aS'else need blunt right'
p198
aS'hispanic girls twerk best'
p199
aS'follow instagram dynamiteog dynamiteog'
p200
aS'retweet love smoking blunts much'
p201
aS'poetic justice song'
p202
aS'tried give quran teacher swerved'
p203
aS'follow instagram dynamiteog'
p204
aS'blunts donuts'
p205
aS'fuck niggas cause niggas\xf0\x9f\x91\x8c'
p206
aS'came pretty dope goodforafirsttime alwaysamacmillerwallpaper keepyourheadonthegoal\xe2\x80\xa6'
p207
aS'weed best stress relievers'
p208
aS'hairy pussy allowed'
p209
aS'smoking tonight soooo beautiful lmao'
p210
aS'dynamiteog'
p211
ag52
ag52
aS'feeling like girl hate brother thatfeeling'
p212
aS'sone body bored hell right'
p213
aS'however fast forward four months kobe already jumping swimming pools feet'
p214
aS'athletes getting busted duis guys make enough money hire damn chauffeur'
p215
aS'marijuana awesome'
p216
aS'music high today'
p217
aS'fucking pain listen pandora without nigga fuck soon oshs getitdonealready'
p218
aS'favorite rappers oshs'
p219
aS'ethiopianeritrean food'
p220
aS'hope signed morris back'
p221
aS'niggas pulling money shit reason hangout mynigga'
p222
aS'fresh need stylist'
p223
aS'makin music money baby gotta help count babe oshs'
p224
aS'rise shine fans'
p225
aS'wallahi dont talk dont know shit fuck'
p226
aS'names'
p227
aS'fear broke shit scary shit'
p228
aS'parents never understand'
p229
aS'earlier rehearsal shit going packed next week atlanta oshs'
p230
aS'nigga signed letsgo getitdonealready'
p231
asS'2013_27'
p232
(lp233
S'lakers make move already year make moves'
p234
aS'heads 2009 finals came game celtics paus playing'
p235
aS'song look deep inside shit still hear oshs'
p236
aS'lakers players roster wonder make nick young'
p237
aS'psychological standpoint dont know mental toughness champion charles barkley dwig\xe2\x80\xa6'
p238
aS'hoping think ryan kelly nice surprise hoping'
p239
aS'really dwight mariah carey diana ross cher celine dion shaking heads diva'
p240
aS'knows exactly kobelebron dont ever think otherwise\xe2\x80\x9d seriously'
p241
aS'need clothes'
p242
aS'wednesday thursday'
p243
aS'happy fucking birthday'
p244
aS'headed'
p245
aS'check tweets diva'
p246
aS'brings game power past year didn\xe2\x80\x99t show rehab confusion better'
p247
aS'reflection dhoward\xe2\x80\x99s exodus left distaste lakerland lakers fine fits mda\xe2\x80\x99s style offit'
p248
aS'tear cant hide'
p249
aS'cookies cream hershey'
p250
aS'think super star'
p251
aS'already sent'
p252
aS'tell loyal girlfriend stop tryna fuck'
p253
aS'rich snice dont know stuggle touch'
p254
aS'ready ramadan stop worrying'
p255
aS'district'
p256
aS'slower harder lean'
p257
aS'sittin back watchin lame niggaz blow'
p258
aS'striving greatness beyond'
p259
aS'summer league rosters'
p260
aS'lakers interest elton brand'
p261
aS'best billboard dwight'
p262
aS'lamarmettasashakobeyoungnash lakers'
p263
aS'sick hearing every making moves beside lakers letsgo lakers goat'
p264
aS'lamartolakers lets make trend'
p265
aS'want lamar odom back'
p266
aS'dwight already informed rockets 2015 sign nets dwightmare'
p267
aS'wings still names might interest lakers delfino johnson young coreyronnie brewer\xe2\x80\xa6'
p268
aS'lakers reached lamar odom hard determine high interest level either side thus'
p269
aS'nick young lamar odom hope'
p270
aS'asses sign couple free agents'
p271
aS'shaq basically saying dwight like bitch right though'
p272
aS'want'
p273
aS'nigga aint worried bout nothin'
p274
aS'love nohomo realsuperman shaqs quote dwight howard leaving lakers'
p275
aS'breaking news dwight howard could still source close says concidering playing sparks'
p276
aS'dwight shit right lmao'
p277
aS'wallet getting smaller need money'
p278
aS'jhill kobe nash gonna tough least team purple'
p279
aS'dwightmare part comes theaters june 2016 watching rocket fans'
p280
aS'nicki minaj currently rampbsoul list sweden'
p281
aS'sure people think gets touches happier harden averaged fewer assists shot'
p282
aS'lets chill ramadan'
p283
aS'next season laugh hack dwight shitd'
p284
aS'dwight howard first options lakers warriors rockets'
p285
aS'anthony morrow would huge pickup laker pure shooter'
p286
aS'smith human highlight reel'
p287
aS'kyrie irving 2013 hustle hard'
p288
aS'mayo beam'
p289
aS'mayo coming home dallas'
p290
aS'kobe bryant 2012 boss'
p291
aS'nebu kiniza millie montana rico parks lean swerve'
p292
aS'nebu kiniza everyday everynight prod roman'
p293
aS'wanna camping hiking'
p294
aS'money still going gonna keep going hill toss money toss money moneyovershit'
p295
aS'would come back lakers already'
p296
aS'salute niggas came pistol head nigga'
p297
aS'money still flowing hearts still crying number still counting 19318764 finna flex money still coming'
p298
aS'ayyy lets salute'
p299
aS'cant wait friday payday give back dh12 lakers'
p300
aS'meek mill young gettin feat kirko bangz'
p301
aS'money still flowing hearts still crying number still counting'
p302
aS'dwight howard make final decision friday details lakers'
p303
aS'cassie paradise khalifa official video'
p304
aS'heard youtube shit even famous theworldneedstoknow'
p305
aS'arrogant cocky nigga well oshs'
p306
aS'clippers bucks phoenix reached agreement threeteam deal sources tell'
p307
aS'laker fans really talking like lakers done next years dwight leaves'
p308
aS'rumors saying lakers willing fire coach bring howard want'
p309
aS'keep listening music gets everything promise'
p310
aS'money 55gs pocket gotta keep mind tack money'
p311
aS'seeing struggle stressed ltltltltltlt'
p312
aS'paper real fastthemoneyteam werethemoneyat'
p313
aS'themoneyteam'
p314
aS'according dwight howard already spoken phone jack nicholson remaining'
p315
aS'rapper imsu gunna beast gotafan'
p316
aS'yessir'
p317
asS'2013_25'
p318
(lp319
S'bounce'
p320
asS'2013_32'
p321
(lp322
g52
aS'iphone galaxy follow everyone else'
p323
aS'heard tricks mouth nigga'
p324
aS'fuxk know iiiit'
p325
aS'want pick tahujud'
p326
aS'take boobs'
p327
asS'2013_31'
p328
(lp329
S'mtvhottest nicki minaj'
p330
aS'else teamiphone'
p331
aS'salatualfajr probably peaceful prayer alhumdullilah'
p332
aS'dome hookah'
p333
aS'knows'
p334
aS'couple'
p335
aS'time parents wants house trying fuck'
p336
aS'school starts'
p337
aS'like'
p338
aS'ramdan four days left'
p339
aS'wish tell hooyo'
p340
aS'juggathonn'
p341
aS'cakes live'
p342
aS'baddest bitch catalyst aint neva done bitch added iwannabewithyouonitunes'
p343
aS'chilling like boss'
p344
aS'traffic patrols youth boii said shit'
p345
aS'need leave like'
p346
aS'damn want sweets'
p347
aS'never healthy steve nash made baskets away another 504090 season'
p348
aS'ride tonight need stay'
p349
asS'2013_30'
p350
(lp351
S'icymi best sneakers slam magazine covers'
p352
aS'want prank call right'
p353
aS'libra females calm cool collected good strategy always planned head'
p354
aS'libras texting seasons change reply back'
p355
aS'libra skills settle argument without fight'
p356
aS'point trying force things libra either want dont'
p357
aS'libra makes excellent business partner wifehusband focus relationship health'
p358
aS'libras keep true feelings bottled means healthier well group'
p359
aS'libra sometimes becomes angry frustrated suppressed desires make everyone else happy'
p360
aS'libras refined taste living flirtatious well makes hard'
p361
aS'libras sensuous seductive tend give romantic relationship'
p362
aS'libra longterm relationships night stands'
p363
aS'libra believes life without love life worth living'
p364
aS'libra always someone special heart'
p365
aS'nike force'
p366
aS'basketball page'
p367
aS'asics gtii royal orange white available'
p368
aS'need money need clothes need shoes need everything'
p369
aS'released page 1371'
p370
aS'released page 1371'
p371
aS'thanks follow back'
p372
aS'upcoming sneakers page 1976'
p373
aS'upcoming sneakers page 1975 need news ponys'
p374
aS'ramdan need control self trying hustle finna self lets change selves'
p375
aS'upcoming sneakers page 1975 lakers'
p376
aS'follow back'
p377
aS'finna sneakers iphone back'
p378
aS'upcoming sneakers page 1975 want'
p379
aS'trending boiii'
p380
ag52
aS'teachers today birthday dont mind homework today essay write tomorrow math pages teachers'
p381
aS'aside standing sideline pretty excited lakers team'
p382
aS'every nightill sleep dang might well stay till suhurfalls asleep 40mins drags'
p383
aS'jordan fire drops saturday details approved houseofhoops'
p384
aS'zone'
p385
aS'pretty awesome'
p386
asS'2013_33'
p387
(lp388
S'official lakers signed forward elias harris multiyear contract release'
p389
aS'jeezy kill gucci rapping gucci would kill real life'
p390
aS'gonna listen kendrick song tomorrow yall buzzin right'
p391
aS'roll blunt'
p392
asS'2013_28'
p393
(lp394
S'nick young lakers jersey lakers'
p395
aS'nick young putting jersey dying wear years'
p396
aS'young motivated maximize lakers playing time biggest stage name back respect'
p397
aS'nick young afraid bright lights'
p398
aS'welcome laker'
p399
aS'mitch kupchak officially presenting lakers jersey dream come true\xe2\x80\x9d golakers'
p400
aS'lets banner lakers'
p401
aS'welcome lakers native makes official purple gold'
p402
aS'people breaking thier fast still fasting pics'
p403
aS'still dont major goal ramadan need asap'
p404
aS'finna better inshallah aimtothetop'
p405
aS'subhanallah look world wide trends'
p406
aS'finish prayer next letsgoo'
p407
aS'every hope prayer 2nite dont today'
p408
aS'real life hard life'
p409
aS'nebu kiniza look deep inside official viral music video'
p410
aS'champions single artest song'
p411
aS'blast ramdan inshallah learn much'
p412
aS'complete quran ramadan'
p413
aS'last ramadan take advantage amount blessings available'
p414
aS'first fast wednesday guys'
p415
aS'thankyoumwp champions single artest song'
p416
asS'2013_29'
p417
(lp418
S'bitchessssss fuck'
p419
aS'\xe2\x80\x9cpussy\xe2\x80\x9d hell drug'
p420
aS'person timeline rest'
p421
aS'sleep staying till suhoor sleep till'
p422
aS'inmiddleschool life turn hell became homeshcoll elementaryschool'
p423
aS'inelementaryschool theres fight ever came info'
p424
aS'inelementaryschool stood nerds beat hell bullys goodtimes'
p425
aS'cant sleep socks'
p426
aS'cant sleep clothes'
p427
aS'sleeping naked gtgtgtgtgt'
p428
aS'used smoke even though dont blowed'
p429
aS'waffle house friday ever wanna come iftar'
p430
aS'beardrip'
p431
aS'finna stay till suhoor lets need talk'
p432
aS'influence influence'
p433
asS'2011_27'
p434
(lp435
S'wonder today'
p436
as.