(dp0
S'2013_42'
p1
(lp2
S'sheilahowbout anthony mccarraherlol karen lynn'
p3
aS'fase eyelash kinda night karen lynn'
p4
aS'hate forgetting things'
p5
aS''
p6
ag6
aS'read last bunch fellow geminis leos loltina fort christen schultz tiffanyann'
p7
ag6
aS'stacy spector bank'
p8
aS'wedding cape past weekend huge success alissa lorenzo many happy memories'
p9
ag6
ag6
ag6
asS'2013_43'
p10
(lp11
g6
aS'great participated lupus loop today thousands walked support someone'
p12
aS'diane shukes tina fort'
p13
aS'prep loop'
p14
aS'home sweet home aperfect ending perfect month glad auntie asked'
p15
ag6
aS'karen lynn'
p16
ag6
aS'look handsome'
p17
aS'throwing back ladies'
p18
aS'posted photo facebook'
p19
aS'posted photo facebook'
p20
aS'posted photo facebook'
p21
aS'posted photo facebook'
p22
aS'posted photo facebook'
p23
aS'posted photo facebook'
p24
aS'dennis fillion'
p25
aS'adotnicki'
p26
aS'tina fort sandi seladones'
p27
aS'nephew'
p28
ag6
aS'vegas friendsif know vendor networking event please know'
p29
aS'book event today receive expires 111513 event must booked november 2013 order receive discount'
p30
ag6
aS'hosting holiday party dont want work contact gemelli events today'
p31
ag6
aS'wrong want xmas tree already'
p32
aS'dont hate things hate yahoo email'
p33
aS'huge success villarreal colella wedding'
p34
aS'posted photos facebook album villarrealcolella wedding'
p35
ag6
ag6
ag6
asS'2013_40'
p36
(lp37
S'errrrrrr thats know'
p38
ag6
ag6
aS'crazy years love still waiting ring love heart soul xoxoooooooo'
p39
aS'anyone know good rental place near cheap'
p40
aS'finalizing plans villarreal colella wedding next week well making changes website'
p41
aS'realtor friends experience short sales forclosures contact asap'
p42
ag6
ag6
ag6
aS'like lately someone question dont response remember next time need something'
p43
ag6
ag6
aS'perfect'
p44
aS'please donate good cause'
p45
aS'auntie fave cutest thing ever'
p46
asS'2013_41'
p47
(lp48
S'anyone need'
p49
aS'cheryl frias'
p50
aS'almost rehearsal tonight'
p51
ag6
aS'karen lynn talking bout last nite'
p52
aS'david david shukes'
p53
ag6
ag6
ag6
ag6
aS'anyone business insurance agent'
p54
aS'dennis dennis fillion'
p55
aS'elizabeth sawosko bring back grade school pumpkin contest'
p56
aS'tina fort'
p57
ag6
aS'need something rent plenty closets nice good area bedroom around montco bucks'
p58
aS'prayer sister recovers hospital taking care adorable nephew brody'
p59
ag6
asS'2013_46'
p60
(lp61
S'describe dream wedding'
p62
aS'need ideas help planning event contact today'
p63
aS'sunday funday'
p64
ag6
aS'anthony shukes'
p65
ag6
aS'glad friday'
p66
aS'thinking holiday shopping event december table know'
p67
aS'sandi seladones'
p68
aS'nicole miller'
p69
aS'constantly dont know stop dennis tells relax dont know'
p70
aS'also anyone thats vends retail anything please inbox potential holiday shopping event december'
p71
aS'anyone know someone vends clothes kids clothes'
p72
aS'dennis fillion'
p73
aS'eduardo ayala'
p74
aS'tina fort'
p75
aS'dennis fillion wanna back'
p76
aS'little blurry small reunion wonderful girls'
p77
aS'already middle finger'
p78
aS'advice successful small business'
p79
aS'rightbrained leftbrained take test'
p80
aS'happy veterans served country especially family friends'
p81
asS'2013_47'
p82
(lp83
S'also anyone hiring'
p84
aS'anyone antenna receive basic channels'
p85
aS'diane shukes'
p86
ag6
aS'look gemelli events near future full status website posted january 2014'
p87
aS'likes today keep coming view website follow twitter spread word know'
p88
asS'2013_44'
p89
(lp90
S'anyone doggie commercial cant believe game'
p91
aS'semone marshall'
p92
aS'check gemelli events pics lupus loop'
p93
ag6
ag6
aS'check lupus loop pics'
p94
aS'posted photos facebook album lupus loop'
p95
aS'dont want sound impressive sims character gets laid pretty frequently'
p96
aS'dennis fillion'
p97
aS'happy halloween cape county'
p98
ag6
aS'happy halloween spooktacular careful tonight'
p99
aS'apple roku advice 3610 channels'
p100
aS'sandi seladones'
p101
ag6
ag6
aS'tonite sweet'
p102
aS'brody baby shower movie'
p103
aS'brody baby shower movie'
p104
asS'2013_45'
p105
(lp106
S'five reasons never shot'
p107
aS'need help party planning ideas contact gemelli events'
p108
aS'planning wedding getting frustrated contact today'
p109
ag6
aS'friend family member coworker planning event contact gemelli events today party planning needs'
p110
aS'nicole miller'
p111
aS'kohls today house'
p112
ag6
ag6
aS'tina fort'
p113
aS'internship food nephew sister'
p114
aS'friday cold bundle'
p115
ag6
aS'getting closer holidays planning party contact'
p116
aS'follow'
p117
ag6
aS'wearing sunglasses inside great people know hated unconditionally'
p118
aS'tina fort'
p119
ag6
aS'booking weddings 2014 2015 visit'
p120
aS'anyone team apple'
p121
aS'chelsea zarzycki dustin fort'
p122
aS'dennis fillion'
p123
asS'2013_16'
p124
(lp125
S'thank participated photo shoot today huge success much appreciated'
p126
aS'looking forward photoshoot sunday'
p127
asS'2009_27'
p128
(lp129
S'watching chelsea lately love'
p130
asS'2009_26'
p131
(lp132
S'watching chelsea lately'
p133
asS'2013_24'
p134
(lp135
S'gemelli photoshoot 20132'
p136
aS'venue shopping saturday lupus fundraiser details follow please like status interested'
p137
asS'2013_25'
p138
(lp139
S'planning event contact today free consultation visit'
p140
asS'2013_26'
p141
(lp142
S'likes till visit website like facebook page happy sunday'
p143
aS'tlcs five reasons hire planner youre busy requires'
p144
aS'planning event offering free consultation help special visit'
p145
asS'2013_27'
p146
(lp147
S'small budget trying plan wedding small budget although seems like hiring wedding'
p148
ag6
aS'maid honor loses emineminspired wedding toast video'
p149
aS'wedding town hiring wedding planner great idea brides town'
p150
asS'2013_21'
p151
(lp152
S'thanks love support company keep spreading word check website'
p153
aS'read everything comic sans sans funny'
p154
aS'alright pics finally posted photo shoot please take look things adjusted'
p155
ag6
ag6
aS'love like playing piano first must learn play rules must forget rules'
p156
aS'contact today plan event whole event running around prepare'
p157
asS'2013_22'
p158
(lp159
S'dont time research venues information wedding next event'
p160
aS'come least likes coming week spread word'
p161
aS'check gemelli events photoshoot youtube'
p162
aS'posted video photoshoot check youtube type gemelii events photoshoot'
p163
asS'2013_23'
p164
(lp165
S'friends listplease like website facebook page spread word'
p166
aS'wasted \xc3\xa2\xc2\x80\xc2\x93vegetables refrigerator'
p167
ag6
aS'childs birthday graduation party event need help planning contact gemelli events'
p168
asS'2013_28'
p169
(lp170
S'youre best friend spent days picking perfect shade tiffany blue'
p171
asS'2013_29'
p172
(lp173
S'easily stressed thought planning wedding stress sure'
p174
aS'lupus loop fundraiser september 700pm paddy whacks welsh road philadelphia pennsylvania youre going'
p175
asS'2013_4'
p176
(lp177
S'saturday june 15th'
p178
aS'cant wait adventures start thank advance support'
p179
asS'2013_7'
p180
(lp181
S'adjustments made website tonitemore coming next week also attending'
p182
asS'2013_3'
p183
(lp184
S'trying figure tweeting thing'
p185
asS'2013_9'
p186
(lp187
S'gemelli cake'
p188
aS'posted photo facebook'
p189
aS'posted photo facebook'
p190
aS'pumpkin table decor'
p191
aS'card'
p192
aS'table arrangements'
p193
aS'please dont forget stop table tomorrow girls nite event details previous post questions contact'
p194
aS'everyone girls nite event saints episcopal school frankford near holy'
p195
asS'2009_18'
p196
(lp197
S'went hikingloved goin friday mornin'
p198
asS'2009_19'
p199
(lp200
S'paying rent'
p201
asS'2013_17'
p202
(lp203
S'teaser pics website finalize tomorrow stay tuned'
p204
asS'2013_37'
p205
(lp206
g6
ag6
ag6
aS'dana dana hammond hammond'
p207
aS'jaime shukes portier year cantry'
p208
ag6
aS'beth stclair person need find tonite ashley'
p209
ag6
aS'dont miss free groupon offer'
p210
aS'free bottle thanks'
p211
ag6
ag6
asS'2013_36'
p212
(lp213
g6
aS'well last night success gemelli events held first fundraiser lupus raised almost 1000'
p214
aS'actually disappointed people tonite'
p215
aS'come people come paddy whacks welsh blvd tosupport great friend lupus'
p216
aS'bored come paddy whacks welsh blvd lupus loop fundraiser begins'
p217
aS'lupus loop fundraiser tonite paddy whacks welsh blvd philly food music beer raffles'
p218
aS'paddy whacks welsh blvd tonite lupus loop fundraiser food music beer raffles'
p219
aS'welsh blvd tonite lupus loop fundraiser raffles music beer food'
p220
ag6
aS'today everyone please come amazing fundraiser great time good'
p221
aS'need microphone tomorrow anyone speakers guess'
p222
aS'tomorrow lupus loop fundraiser held paddy whacks welsh blvd philadelphia'
p223
ag6
aS'sandi seladones'
p224
aS'please read'
p225
aS'everyone saturday come paddy whacks welsh blvd philly support'
p226
aS'9713 saturday welsh blvd philly lupus loop fundraiser'
p227
aS'everyone please rsvp lupus loop fundraiser held saturday paddy whacks welsh blvd'
p228
aS'lupus loop fundraiser saturday september paddy whacks welsh road starting help raise'
p229
aS'everyone days fundraiser hope please rsvp'
p230
aS'three days till lupus loop fundraiser paddy whacks welsh blvd contact'
p231
aS'tickets today door coming thefundraiser please know paddy whacks welsh'
p232
aS'tina tina fort'
p233
aS'dear resident dina also lupus donated wonderful handmade baby blanket placed'
p234
aS'come tickets support great cause find cure lupus tickets raffle'
p235
aS'people need grow well less thing worry straw suck'
p236
aS'saturday square'
p237
aS'donations picked picking tickets fundraiser saturday please hurry'
p238
asS'2013_35'
p239
(lp240
S'pleaseread'
p241
aS'everyone please read help rsvp'
p242
aS'dennis fillion'
p243
aS'lupus loop fundraiser saturday september paddy whacks welsh road starting help raise'
p244
aS'getting frustrated'
p245
aS'lupus loop fundraiser 9713 paddy whacks welsh blvd spread'
p246
aS'hosting lupus loop fundraiser 9713 paddy whacks welsh blvd know interested'
p247
aS'lupus loop fundraiser 9713 paddy whacks welsh blvd food drinks raffles music'
p248
aS'lupus loop fundraiser 9713 paddy whacks welsh blvd'
p249
aS'guys gals please read hosting fundraiser friend sandi seladones lupus'
p250
aS'please tickets today lupus loop fundraiser close friend mine sandi seladones'
p251
aS'week lupus loop fundraiser tickets today contact text 7024300118 email'
p252
ag6
aS'please rsvp'
p253
aS'9713 paddy whacks welsh blvd lupus loop fundraiser square'
p254
aS'everyone please dont feel cannot attend lupus loop fundraiser need rsvp'
p255
ag6
aS'vegas peeps'
p256
aS'everyone know reading please respond attending lupus loop fundraiser event'
p257
aS'sultry songstress braxton winning battle lupus'
p258
aS'listed community events page wmmr website lupus loop fundraiser'
p259
aS'everyone sent invite could please rsvp obtain proper head'
p260
ag6
aS'looking donations fundraiser contact details'
p261
aS'9713 lupus loop fundraiser hosted gemelli events paddy whacks welsh road philadelphia'
p262
aS'give shout event hosting'
p263
aS'elvis listen show every morning made mornings better'
p264
aS'booga schmuga want hair similar dark couple highlights'
p265
aS'performance lifetimejustin timberlake'
p266
aS'didnt know anthony shukes nsync good show'
p267
aS'september paddy whacks welsh blvd philadelphia'
p268
aS'dont forget purchase lupus loop fundraiser tickets would like'
p269
ag6
asS'2013_34'
p270
(lp271
S'please read'
p272
aS'meet havent picked lupus loop fumdraiser tickets tomorrow contat know'
p273
aS'girls nite girlsfor great nite'
p274
aS'beef beer tickets availale'
p275
aS'beef beer lupus fundraiser tickets today selling quickly contact details'
p276
aS'jennifer kondravy'
p277
aS'david shukes'
p278
aS'dana hammond tina forttina fort'
p279
aS'read events invite please rsvp time running'
p280
aS'sandi seladones'
p281
aS'need band september play donate lupus loop fundraiser already'
p282
asS'2013_33'
p283
(lp284
S'posted photo facebook'
p285
aS'check tickets contact'
p286
aS'sold tickets received another donation papered chef'
p287
aS'anybody need'
p288
aS'please read support cause purchase today'
p289
aS'goalis toget sell tickets lupus loop fundraiser held september paddy whacks'
p290
ag6
ag6
aS'christen christen schultz'
p291
aS'turn catch break'
p292
ag6
aS'maduzia'
p293
aS'folks come paddy whacks welsh blvd september 2013 support lupus help raise'
p294
asS'2013_32'
p295
(lp296
S'stephanie stephanie glickman'
p297
aS'tina tina baybay fort interested'
p298
aS'likeskeep coming'
p299
aS'tina tina fort'
p300
ag6
aS'still looking donations raffle please contact'
p301
aS'unlock another level candy crush please help'
p302
aS'lupus loop fundraiser'
p303
aS'september 2013 paddy whack\xe2\x80\x99s 924143 roosevelt blvd welsh road 711pm free raffle ticket contact'
p304
aS'supporting philadelphia tristate chapter'
p305
aS'lupus loop fundraiser hosted gemelli events whenseptember 2013 wherepaddy whack\xe2\x80\x99s 924143'
p306
aS'lupus loop fundraiser hosted gemelli events whenseptember 2013 wherepaddy whack\xe2\x80\x99s 924143'
p307
asS'2013_31'
p308
(lp309
S'selling tickets lupus loop fundraiser know need'
p310
aS'tickets lupus fundraiser september paddy whacks welsh blvd'
p311
asS'2013_30'
p312
(lp313
S'magisto movie'
p314
ag6
aS'looking plan event birthday wedding fundraiser plain want running'
p315
aS'everyone tickets couple days know would like attend lupus'
p316
asS'2013_19'
p317
(lp318
S'small town waitresses either years first'
p319
aS'home security system motionactivated mouth billy basses'
p320
asS'2013_18'
p321
(lp322
S'stress free events contact today'
p323
asS'2012_30'
p324
(lp325
S'coolest jobs 2012'
p326
aS'jobs 2012'
p327
asS'2013_39'
p328
(lp329
S'karen karen rupkus'
p330
ag6
aS'nephew'
p331
aS'water broke almost gonna aunt matter hours'
p332
ag6
aS'never used butits funny cause dumb'
p333
aS'timelapse yoga'
p334
ag6
aS'nicole nicole miller'
p335
ag6
aS'supporting philadelphia tristate chapter'
p336
ag6
aS'wedding services booked villarreal colella wedding cape october12 2013'
p337
ag6
aS'anthony shukes'
p338
asS'2013_38'
p339
(lp340
S'seems like birthdays today wishing great many wishes also'
p341
ag6
ag6
aS'raised enough money five teams walking lupus loop october 27th help make'
p342
aS'lupus explained'
p343
ag6
aS'sandi sandi seladones'
p344
ag6
ag6
aS'tina tina fort'
p345
aS'booking wedding consulting holiday parties years party deatils'
p346
ag6
ag6
aS'christen christen schultz'
p347
aS'fragment didnt know famous'
p348
aS'sandi sandi seladones'
p349
aS'seriously thinking deactivating account'
p350
asS'2013_10'
p351
(lp352
S'visit website adjustments made including blog'
p353
aS'spring around corner many great vendors saints episcopal event march'
p354
asS'2013_13'
p355
(lp356
S'following'
p357
aS'happy easter everyone making sweets'
p358
asS'2013_12'
p359
(lp360
S'good evening everybody updates gemelli events july 2013wedding venue research date'
p361
asS'2013_15'
p362
(lp363
S'weeks convince wife babys middle name underscore'
p364
asS'2013_14'
p365
(lp366
S'hopefully relax today'
p367
aS'photoshoot month anyone would like take part please contact immediately'
p368
aS'hope everyone great easter weekend'
p369
as.