(dp0
S'2013_42'
p1
(lp2
S'personally sorry hate coming noncaptainswan shippers youguysareamazing'
p3
asS'2013_43'
p4
(lp5
S'good morning haveagreatday'
p6
asS'2013_41'
p7
(lp8
S'bosleymedicalinthegutter'
p9
aS'ohyeawhatabouttherightsofthatlittlegirl'
p10
aS'coming lmao'
p11
aS'think often miss tons hannibalinthebasement'
p12
aS'rememberingcory'
p13
asS'2013_47'
p14
(lp15
S'toby'
p16
aS'hiya'
p17
aS'find weird fans late early waycurious'
p18
asS'2013_48'
p19
(lp20
S'happy thanksgiving'
p21
asS'2013_49'
p22
(lp23
S'must proud congrats cutie hirobbie'
p24
aS'rough couple days would love hear hirobbie'
p25
asS'2013_24'
p26
(lp27
S'call bandaids plaster iloveit'
p28
aS'rough couple days needtofeelbetter'
p29
asS'2014_32'
p30
(lp31
S'team pool needs official vote support lets break internet retweet would ticket deadp\xe2\x80\xa6'
p32
asS'2013_22'
p33
(lp34
S'thank much wishing happy birthday woke tweet youarethebest'
p35
aS'today birthday birthday tweet'
p36
aS'today birthday tweet wouldmakemyday'
p37
aS'today birthday birthday tweet'
p38
aS'today birthday birthday tweet'
p39
aS'today birthday birthday tweet'
p40
aS'today birthday could possibly birthday tweet'
p41
aS'today birthday birthday tweet'
p42
aS'today birthday birthday tweet'
p43
aS'today birthday birthday tweet fave actress'
p44
aS'today birthday birthday tweet'
p45
aS'jackie birthday'
p46
aS'today birthday tweet'
p47
aS'today birthday tweet fave author'
p48
aS'today birthday tweet'
p49
aS'lookie another audiobooks said audio book ambition notacoincidence'
p50
asS'2014_15'
p51
(lp52
S'lesson tweet someone attractive heck'
p53
asS'2014_9'
p54
(lp55
S'heard vicious rumor guys might cancelled make sure doesnt happen totallystarcrsd'
p56
asS'2013_51'
p57
(lp58
S'lost lung cancer years today could good thoughts ahugwouldbenicetoo'
p59
asS'2013_50'
p60
(lp61
S'askrobbie feel differences'
p62
aS'askrobbie'
p63
aS'askrobbie would outgoing'
p64
aS'askrobbie best advice ever'
p65
aS'askrobbie last great movie'
p66
aS'askrobbie acting growing want'
p67
aS'askrobbie favorite doctor companion'
p68
aS'askrobbie ever wanted play world warcraft favorite game'
p69
aS'askrobbie favorite book'
p70
aS'askrobbie fave toppings pizza'
p71
aS'favorite cartoon growing askrobbie'
p72
aS'roles would like ouat askrobbie'
p73
aS'toby regbo cast request sebastian jonathan watching reign'
p74
aS'congrats screening today hope people wish could gorobbiego'
p75
aS'looking forward hirobbie'
p76
asS'2013_52'
p77
(lp78
S'happy birthday'
p79
aS'goodbye raggedy doctor miss could ever imagine seared onto heart forever doctorwho'
p80
aS'merry christmas robbie'
p81
aS'merry christmas'
p82
aS'merry christmas family hope best hirobbie'
p83
asS'2014_2'
p84
(lp85
S'gorgeous hitorrance'
p86
asS'2014_1'
p87
(lp88
S'cant wait'
p89
aS'robbie tonight imactuallyinbedsick'
p90
aS'happy years'
p91
aS'hiya follow would really like send message sometime ihopeyouarehavinggreatholidays'
p92
asS'2013_13'
p93
(lp94
S'ians face though soul first time wanted fling cliff'
p95
aS'feeling kind pick'
p96
aS'goodnight george great weekend lovefromalabama'
p97
aS'host intensely incredible iloveianoshea'
p98
aS'happy birthday favorite actors time jason bateman castlejoke'
p99
aS'heard dragoncon possibility cast atlanta georgia hopeful'
p100
aS'hiya thanks following nice meet'
p101
aS'going host nine thursday cant wait loveforianfromalabama'
p102
aS'wanted hello hifromalabama'
p103
aS'best friends atlanta film festival missed sick lovefromafar'
p104
aS'vikings awesome loving seen cant wait episode viveleathelstan'
p105
asS'2013_12'
p106
(lp107
S'forget name forget 24601'
p108
aS'missing vampire diaries ripjeremy'
p109
aS'loved beautiful creatures sexyridley'
p110
aS'ianismyfave'
p111
aS'looking forward castle tonight'
p112
asS'2013_15'
p113
(lp114
S'watched episodes vikings caught excellent show cant wait next episode'
p115
aS'officially starting vikings today wish luck'
p116
asS'2013_14'
p117
(lp118
S'someone please acknowledge existence havingacrisis'
p119
aS'wanted thank bottom heart jace thankfulfromalabama'
p120
aS'still aiming misbehave lovefirefly'
p121
aS'missing face screen lovefromalabama'
p122
aS'sweet dreams'
p123
aS'sooooooooo excited hear vikings getting another season'
p124
aS'said werent tattoos mean people ihavefour'
p125
aS''
p126
aS'thinking coloring hair black brown black premature grey natural yourthoughts'
p127
aS'fave song kiss amazing'
p128
aS'forgive speaking turn goes show awesome responding even though nothing thankful'
p129
ag126
aS'favorite actors none unite'
p130
aS'come completely entranced seems everyone else cant wait hook hookersunite'
p131
aS'cant wait august known would amazing jace claceforever'
p132
aS'perfect clary cant wait till august claceforever'
p133
aS'miss face ripkol'
p134
aS'perfect prince phillip missyouonouat'
p135
aS'abby gibbs tony favorite characters ncis teamhippo'
p136
aS'loved since hocus pocus teamthackery'
p137
aS'favorite lestat queenofthedamned'
p138
aS'anyone told would perfect emma carstairs book series teamcarstairs'
p139
aS'excited delirium ecstatic'
p140
aS'missed movie premiere atlanta sick best friends though missedyou'
p141
aS'send tweets daily hopes least instead overshadowed people hiya'
p142
aS'daenerys overjoyed gameofthrones season renewal news'
p143
aS'look'
p144
aS'glad back safely hope fantastic week loveandadorationfromalabama'
p145
aS'sending love adoration lovefromalabama'
p146
aS'feelingkindableh'
p147
aS'havent watched vikings going soon travis since tarzan'
p148
aS'greetingsfromalabama'
p149
aS'miss blagdogs tweets twodaysofsilence'
p150
asS'2013_17'
p151
(lp152
S'excited backdoor pilot originals tonight hailkingklaus'
p153
aS'mary jane'
p154
aS'send letter would promise read hiyageorge'
p155
asS'2013_16'
p156
(lp157
S'really night would make feel least tiny better tweet sighhellogeorge'
p158
aS'welcome back finally caught vikings yougood favorite character hiyaagain'
p159
asS'2013_19'
p160
(lp161
S'started watching numb3rs hubby awesome show fave lovingcharlie'
p162
asS'2013_18'
p163
(lp164
S'love going audio book could'
p165
asS'2013_20'
p166
(lp167
S'catching castle looking forward finale tonight'
p168
as.