(dp0
S'2013_25'
p1
(lp2
S'jaanip\xc3\xa4ev siiski'
p3
aS'chicken nuggets damn taste amazing'
p4
aS'male honey climaxes testicles explode dies'
p5
asS'2013_26'
p6
(lp7
S'dood waiting3'
p8
aS'woman mustachemylifeiscompleted'
p9
asS'2013_27'
p10
(lp11
S'well waiting tumblr'
p12
asS'2013_22'
p13
(lp14
S'thats spirit'
p15
aS'siis v\xc3\xb5iksid veel ringi joosta karjuda oled lahe sest miks mitte'
p16
aS'tead peaks maale ronima siis grillima seal nagu mina'
p17
aS'homeless population million people million vacant houses every homeless person america'
p18
aS'vaata lahedad inimesed maal praeguja siis seal s\xc3\xa4\xc3\xa4sed'
p19
aS'mampm\xe2\x80\x99s originally created order allow easy transport chocolate military'
p20
aS'tornado touched kansas night judy garland dorothy wizard died'
p21
aS'theres blue fish spongebob squarepants series spotted episodes penis showing'
p22
aS'worlds largest burrito created november 2010 weighed 12785 pounds'
p23
aS's\xc3\xa4\xc3\xa4sed s\xc3\xb6\xc3\xb6vad p\xc3\xa4hp\xc3\xa4h'
p24
aS'igav autosonigav tripime rimi'
p25
asS'2013_23'
p26
(lp27
S'eating chinese restorant chopsticks chinesefoodisgood'
p28
asS'2013_28'
p29
(lp30
S'imagine dragons radio made'
p31
asS'2013_29'
p32
(lp33
S'dont ever anyone define'
p34
aS'wash hands shaving foam weird'
p35
asS'2012_16'
p36
(lp37
S'woke today tweets happy birthday'
p38
aS'challenge accepted smiley challenge thats favorite challenge'
p39
aS'playing guitarbecause bored'
p40
aS'nothing saybored'
p41
aS'yeah cutenessthey cute okey kidding'
p42
aS'gonna right'
p43
aS'love muchthey perfect'
p44
aS'thats cute'
p45
aS'awsum'
p46
aS'haha'
p47
aS'andy little teddy bear'
p48
aS'bored'
p49
aS'sleeping sport championship'
p50
aS'gonna'
p51
aS''
p52
aS'ever last retweet wanna'
p53
aS'love bvbs girlfriendsim curious many real army members'
p54
asS'2012_14'
p55
(lp56
S'crazy dreams last night talking cowsbut move cave russia'
p57
aS'youre excited unbroken'
p58
aS'cant stop laughing hyenas cant stop laughing therefore hyena'
p59
ag52
aS'love song rebel love song black veil brides'
p60
aS'bvbarmy'
p61
aS'followers hahaha'
p62
aS'siis v\xc3\xa4\xc3\xa4rakat'
p63
aS'meeldi hope dont'
p64
aS'retweet asking alexandria favourite drugs'
p65
asS'2012_15'
p66
(lp67
S'free hugz'
p68
aS'gonna kill sucks'
p69
aS'angeles'
p70
aS'followed liked'
p71
aS'gone'
p72
aS'said thatgood morning'
p73
aS'catch'
p74
aS'making muffins sisthats much fund'
p75
aS'good morning'
p76
aS'love girlfriend amazing people need already awesomes love'
p77
aS'front crash parked drive'
p78
aS'want vlog andy'
p79
aS'okey going sleep nowlove'
p80
aS'wanna live think gonna move'
p81
aS'shoe size random question'
p82
ag52
aS'smoke'
p83
ag52
aS'vlog'
p84
aS'hell yeah'
p85
aS'army would anyone like vlog asking'
p86
aS'youre sexy know clap hands'
p87
aS'rainbows cute'
p88
aS'gonna belibers fire'
p89
aS'shut'
p90
aS'gonna'
p91
ag52
aS'thats awesum'
p92
aS'many photo jake pitts'
p93
aS'many photo andy biersack'
p94
aS'devil know song cause classic original bvbarmy'
p95
aS'follow back'
p96
aS'spilled nestea sisters room'
p97
aS'really'
p98
aS'whatever want fucing even cant tell'
p99
aS'song morticians daughter makes feel memories'
p100
aS'playing team fortress'
p101
aS'fuckk cant find marker'
p102
aS'feel sick gtlt'
p103
aS'andy jake cake'
p104
aS'love isnt always fair'
p105
aS'sister said killer tokyo ashleys dogs ugly disgusting shell fucking bitch theyre cute'
p106
aS'love dreaming'
p107
aS'love bvbarmy'
p108
aS'okey going sleep'
p109
aS'kinda boring'
p110
aS'think cant'
p111
aS'time good history scream hallelujah rivals love song'
p112
aS'grazy dream tonight fucing doesnt talk'
p113
aS'andy adorable ashley adorable jake adorable jinxx adorable christian adorable'
p114
aS'cant wait'
p115
aS'love'
p116
ag52
aS'want'
p117
aS'saved life'
p118
aS'think tweet'
p119
aS'happy birthday'
p120
asS'2012_13'
p121
(lp122
S'already hear armythis gonna loud'
p123
aS'last rock roll davegonna miss haha'
p124
aS'armythe final show rebels tour also last full show stwof record lets make'
p125
aS'like black veil brides'
p126
aS'penis reduction operation bryanstars next weeks makes'
p127
aS'wanna'
p128
aS'jinxx blackveilbrides'
p129
aS'jake pitts blackveilbrides'
p130
aS'christian coma blackveilbrides'
p131
aS'ashley purdy blackveilbrides'
p132
aS'andy biersack blackveilbrides'
p133
aS'piecrings dont asshole'
p134
aS'always'
p135
aS'true blackveilbrides'
p136
aS'shout bvbarmy must following'
p137
aS'yeah must help blackveilbrides'
p138
aS'love blackveilbrides'
p139
aS'shit april foolslt3'
p140
aS'want unbroken'
p141
aS'okay youre part bvbarmy'
p142
aS'gonna live sorry'
p143
aS'hello powerranger'
p144
aS'demand black veil brides tallinn eventful'
p145
asS'2012_18'
p146
(lp147
S'watching youd'
p148
aS'ashley babyyyyy make feel alive'
p149
aS'tweeted'
p150
aS'fact yawn'
p151
aS'wonder many bieber accounts following'
p152
ag52
aS'tweeted minutes tweet look'
p153
aS'haha okey'
p154
aS'lets didnt happened'
p155
aS'sorry bieber accounts'
p156
aS'okeyyou wondering many beliber accounts following said 100get'
p157
aS'many bieber accounts following'
p158
aS'nothing'
p159
aS'100d'
p160
aS'theres little storm outside lighting'
p161
aS'ovenbreak baked trying scored 211490'
p162
asS'2012_19'
p163
(lp164
S'good nightzz'
p165
aS'support marriage barack obama fucking'
p166
aS'going sleep 1254 good night'
p167
aS'freaking love rockstar shit rocks'
p168
aS'listen bands'
p169
asS'2013_10'
p170
(lp171
S'tekk s6ber selle reisi ajal'
p172
aS'aghfinally roadi long hours left'
p173
asS'2013_13'
p174
(lp175
S'ship mimmeh'
p176
aS'record fueled endorsed mostdope'
p177
aS'question'
p178
asS'2013_15'
p179
(lp180
S'tore mina olemas olen'
p181
asS'2013_17'
p182
(lp183
S'video undercoveronomegle enjoy'
p184
asS'2013_16'
p185
(lp186
S'tallinn tulen juba nuta'
p187
aS'tulin k6ige lahedamalt mootorratta s6idult pean endale motika ostma tartulinn maanteel120kmh v\xc3\xa4ganice'
p188
aS'trippimine lahe mylife'
p189
aS'made sandwichesthey taste'
p190
aS'tired'
p191
asS'2013_19'
p192
(lp193
S'ghost fucking town'
p194
aS'stop vihkan inimesi m\xc3\xb5ista r\xc3\xa4\xc3\xa4kides distantsi hoida mida vittu teed'
p195
aS'ainult mina suudan ajada draakoni lohe segamini'
p196
aS'yeey happy 300th tweet'
p197
aS'vlog finally hope enjoy'
p198
asS'2013_4'
p199
(lp200
S'time happenz jail aint afraid back'
p201
aS'anyone awake'
p202
aS'awake'
p203
aS'live without without miserable best'
p204
aS'omgjust looked someone ragequityes microwave'
p205
asS'2013_7'
p206
(lp207
S'eipalun'
p208
asS'2013_6'
p209
(lp210
S'bacon'
p211
aS'nice viewit better last time'
p212
aS'foodeverybody panic'
p213
aS'love time'
p214
aS'learning play guitar really challenging'
p215
asS'2014_18'
p216
(lp217
S'm\xc3\xa4kihullud 3bigmaci einet'
p218
asS'2014_19'
p219
(lp220
S'armastus'
p221
asS'2014_14'
p222
(lp223
S'becoming conscious blinking worst thing world'
p224
aS'call safe betting'
p225
aS'never never understand point making'
p226
aS'ever really wanted kiss someone cant'
p227
aS'want build snowman'
p228
aS'today compared looks like ugly fish productive'
p229
aS'lonely people world ones make feel shitty remember friends best'
p230
aS'chemistry could destroy place'
p231
aS'marek kisper still'
p232
asS'2014_15'
p233
(lp234
S'olen viimased tundi t\xc3\xa4pselt mitte midagi teinud'
p235
aS'kiskja'
p236
aS'kallis inimene pane piima enne kr\xc3\xb5binaid kaussi lihtsalt vale'
p237
asS'2014_16'
p238
(lp239
S'posted photo'
p240
asS'2014_17'
p241
(lp242
S'fuck people talk behind back smile face'
p243
aS'really want first daughter'
p244
asS'2014_10'
p245
(lp246
S'vine'
p247
aS'm\xc3\xb5tlema hakkan siis meil v\xc3\xb5iks rohkem mees\xc3\xb5petajaid olla'
p248
asS'2014_11'
p249
(lp250
S'poker night'
p251
asS'2014_12'
p252
(lp253
S'somewhere somehow'
p254
aS'kvaliteet'
p255
asS'2014_8'
p256
(lp257
S'aktusel k\xc3\xa4idud koduus'
p258
aS'andsin mingile mehele 1euri olen uhke enda'
p259
aS'gonna chase whiskey patr\xc3\xb3n'
p260
asS'2014_9'
p261
(lp262
S'klassivend siis juhtub mees valge naine valge laps must mina klassi naine pani k\xc3\xb5rva\xe2\x80\xa6'
p263
asS'2014_6'
p264
(lp265
S'loogika'
p266
aS'okei taga r\xc3\xa4\xc3\xa4kimisega kellegi usaldust v\xc3\xb5ida'
p267
aS'liking selfie could either mean \xe2\x80\x9cthat\xe2\x80\x99s nice picture friend\xe2\x80\x9d want bend table\xe2\x80\x9d you\xe2\x80\x99ll never know'
p268
aS'hearing name actually calling sign healthy mind'
p269
aS'thinking increase anxiety cause insomnia'
p270
aS'penguins mate throughout entire life sometimes \xe2\x80\x9cpropose\xe2\x80\x9d giving mate pebble'
p271
aS'live nights like'
p272
aS'hate waking early wanna sleep dont wanna school want sleep rest'
p273
aS'minu hinded nagu'
p274
aS'tell someone look want compliment genuinely want alarme\xe2\x80\xa6'
p275
asS'2014_7'
p276
(lp277
S'breathing luxury shouldnt linnahall'
p278
aS'kooriproovi'
p279
asS'2014_4'
p280
(lp281
S'\xc3\xb5htune selfie'
p282
aS'tomorrowland music festival belgium'
p283
aS'brand video like someone check outgt plea\xe2\x80\xa6'
p284
aS'dicaprio melting hearts since'
p285
aS'dont know share briefest moments head heels smallest components'
p286
aS'hours announcement cryin'
p287
asS'2014_2'
p288
(lp289
S'watch omgomg'
p290
aS'mom\xe2\x80\x99s like awake like obsessed'
p291
asS'2014_3'
p292
(lp293
S'mingi chill'
p294
asS'2014_29'
p295
(lp296
S'books'
p297
asS'2014_21'
p298
(lp299
S'real madrid v\xc3\xb5itis omgomg arvan naabrid teavad kelle poolt olin appi \xc3\xb5nnelik olen r\xc3\xb5\xc3\xb5mupisarad'
p300
aS'posted photo'
p301
aS'merekarpe'
p302
aS'v\xc3\xa4ike smuugeldas t\xc3\xbcrgist kive eestisse'
p303
asS'2014_20'
p304
(lp305
S'vabaka chiller'
p306
asS'2014_23'
p307
(lp308
S'troopilise vihmametsa'
p309
asS'2014_25'
p310
(lp311
S'jalgpallfootball'
p312
aS'rakvere aqva spas'
p313
aS'metsik'
p314
aS'rakvere homme p\xc3\xa4rnu'
p315
aS'supporting ecuador fifa global stadium honecu worldcup joinin'
p316
aS'supporting france fifa global stadium suifra worldcup joinin'
p317
aS'wild'
p318
aS'southkorea cheering fifaworldcup fifa southkorea russia brazilworldcup brazil'
p319
aS'eeeoooooeeeooooo fifaworldcup brasil worldcup fifa football'
p320
asS'2014_24'
p321
(lp322
S'desire'
p323
asS'2014_27'
p324
(lp325
S'laulupiduu'
p326
asS'2014_26'
p327
(lp328
S'traffic traffic trafficeesti'
p329
aS'j\xc3\xb5gevaaa roadtrip j\xc3\xb5geva greysanatomy'
p330
asS'2012_38'
p331
(lp332
S'monster chips skittles'
p333
aS'bestie school'
p334
aS'bored school'
p335
asS'2012_48'
p336
(lp337
S'snowing'
p338
aS'photo0042jpg'
p339
aS'yeessshhh finallyim home'
p340
asS'2012_47'
p341
(lp342
S'feel like weirdo'
p343
asS'2012_46'
p344
(lp345
S'weeks spookycraft isnt long many feels many feels'
p346
asS'2012_40'
p347
(lp348
S'cinemaa'
p349
asS'2014_37'
p350
(lp351
S'pitsa m\xc3\xb5nus seltskond'
p352
asS'2014_32'
p353
(lp354
S'roger rabbit'
p355
asS'2014_31'
p356
(lp357
S'friends'
p358
asS'2013_39'
p359
(lp360
S'davai teen selle'
p361
aS'armas lovehate suhe l\xc3\xa4paka laadijaga soojendab jalgu vahepeal samas vahepeal ette'
p362
aS'mingi pohmakas'
p363
aS'cookie dance'
p364
aS'miks keegi minuga tean olen natuke imelik sorri elan esimest korda'
p365
aS'save ones hunt night'
p366
aS'j\xc3\xb5ulude tunne'
p367
aS'getter jaani mulle teadmatutel p\xc3\xb5hjustel n\xc3\xa4rvidele'
p368
ag52
aS'watching balcony confused pretty sure stephen amell walked'
p369
aS'mulle meeldib sarkasm'
p370
aS'j\xc3\xa4lle tegid'
p371
aS'cant live dont leave tonight dont tell need love much'
p372
aS'sorri mngi ilmateade olen rahet sajab'
p373
aS'tunnen s\xc3\xbcgavalt kaasa'
p374
aS'never give wonderful life'
p375
aS'nojah'
p376
aS'klassiruum suur miks minu juures istud'
p377
aS'teemasse sorri mees'
p378
ag52
aS'mulle meeldib selline douche olla kasvasuureks'
p379
aS'miks punkti s\xc3\xbcsteem retarded paluuun'
p380
aS'mina sain stennilt k\xc3\xa4epaela olge kadedad'
p381
ag52
asS'2013_50'
p382
(lp383
S'oled lahe'
p384
aS'issand milline sina peeglisse vaata'
p385
aS'oleks lind siis teaks kelle peale situks'
p386
asS'2012_51'
p387
(lp388
S'league legends time'
p389
asS'2014_43'
p390
(lp391
S'ananass birgitiga'
p392
aS'hommikust'
p393
asS'2014_42'
p394
(lp395
S'much homework movie watch'
p396
aS'extra potato chip bags complain really serves purpose nitrogen prevents chips'
p397
aS'wearing hoodie shirt underneth unique sensation'
p398
aS'arctic monkeys'
p399
asS'2014_41'
p400
(lp401
S'reede'
p402
asS'2014_40'
p403
(lp404
S'kalev'
p405
ag52
asS'2014_44'
p406
(lp407
S'theyre taking hobbits isengard'
p408
asS'2013_42'
p409
(lp410
S'k\xc3\xbclmkapp hakkas piiksuma einoh l\xc3\xa4heb h\xc3\xa4sti'
p411
aS'please'
p412
ag52
aS'raamat'
p413
aS'proovi v\xc3\xa4hemalt siis'
p414
aS'tegelt landsov enam'
p415
aS'viitsi'
p416
aS'saad ikka'
p417
aS'aasta olen koolis tubli palju siis sellest'
p418
asS'2013_40'
p419
(lp420
S'couldnt wish better'
p421
aS'aidake mind leia pinalit \xc3\xbcless kurp'
p422
aS'keep breathing'
p423
aS'disappeared would miss'
p424
aS'worth watching'
p425
aS'kuhu l\xc3\xa4heb unustatakse'
p426
aS'selfdestruction pretty little thing'
p427
aS'hold heart beating anyway'
p428
aS'good morning slept hours anyone cyrsociety awake'
p429
aS'kuulge kellegil koolim\xc3\xbctsi'
p430
ag52
ag52
aS'thoughts body hauntin'
p431
asS'2013_41'
p432
(lp433
S'believe believe'
p434
aS'gave place never said thank'
p435
aS'moment koolip\xc3\xa4evadel n\xc3\xa4dalavahetusel \xc3\xa4rkad \xc3\xbclivara'
p436
aS'keegi kadriorus'
p437
aS'hold heart beating anyway'
p438
aS'usud'
p439
aS'emme ajas biku \xc3\xbcless \xc3\xbctles kooli peab minema birgit t\xc3\xb5usis istukile \xc3\xbctles teab siis hakkas riidesse panema'
p440
aS'hate hate'
p441
aS'might best thing still want'
p442
aS'pean vigadeparandust tegema oska neid parandada'
p443
aS'miks keegi minuga hommikul sadface'
p444
aS'tomorrow first doctor appointment going thing noggin'
p445
asS'2013_46'
p446
(lp447
S'vist reaalselt crush elvise peale'
p448
aS'ever thought'
p449
aS'losing doesnt mean lost doesnt mean stop'
p450
aS'valge maja telefoninumber 2024561111'
p451
aS'miss'
p452
asS'2013_44'
p453
(lp454
S'many people poor thing money'
p455
aS'sitt siis kellad piider'
p456
asS'2013_45'
p457
(lp458
S'nagu naturaalne oleks blond lihtsalt nalja p\xc3\xa4rast v\xc3\xa4rvid kulmud mustaks'
p459
aS'andke andeks t\xc3\xb5esti vaatan viltu inimestele kelle kulmud v\xc3\xa4rvi juuksed teist heitige'
p460
aS'hahah hetk tatt \xc3\xbctleb tatile tatt'
p461
aS'fallen leaves fallen leaves fallen leaves ground'
p462
aS'tore parim s\xc3\xb5ber roomab augustis tagasi palub leppida m\xc3\xa4leta mind hahah musi'
p463
aS'coffein'
p464
asS'2013_48'
p465
(lp466
S'must watch rileyrewind'
p467
asS'2012_29'
p468
(lp469
S'playing final fantasy'
p470
aS'jelly beans'
p471
aS'cutedying'
p472
asS'2012_28'
p473
(lp474
S'hate'
p475
aS'freaking cold please help'
p476
ag52
aS'tomorrow late'
p477
asS'2012_27'
p478
(lp479
S'hangover ltlt'
p480
asS'2012_25'
p481
(lp482
S'hair'
p483
asS'2012_24'
p484
(lp485
S'give give good reason believe'
p486
aS'moment someone asks something know answer dont know explain'
p487
aS'awsum nailzz3'
p488
ag52
aS'getting closer getting lost'
p489
asS'2012_23'
p490
(lp491
S'feel sicks hungry'
p492
aS'foto0011jpg'
p493
aS'yeahh finally made itso happy'
p494
aS'miss youlove bites'
p495
aS'tweeterbtw going ride hourzp'
p496
aS'love weather'
p497
aS'playing liberty city xbox awsumgotta love'
p498
aS'nutinn chilling'
p499
aS'woke'
p500
aS'gotta candy right falling asleep ooand dont wanna sleep'
p501
ag52
aS'finally leda love watching mary'
p502
aS'lovely bubbleso cute'
p503
aS'going finland monthim gonna miss friends'
p504
asS'2012_21'
p505
(lp506
S'sorry nope'
p507
aS'serious'
p508
aS'someone knocked door freaked'
p509
aS'dude'
p510
aS'almost spilled nesteaand'
p511
aS'heart'
p512
aS'time timebomb'
p513
aS'wanna back angelesi miss angeles'
p514
asS'2012_20'
p515
(lp516
S'okey good night going hate mondays'
p517
aS'insidious favorite movie high five restaurants'
p518
aS'thunder awsumlt3'
p519
asS'2013_37'
p520
(lp521
S'pohhui paneme'
p522
aS'little little soul purging love razor blades blood surging'
p523
aS'jjou l\xc3\xa4hme p\xc3\xa4rnu'
p524
aS'tahan'
p525
aS'tegid'
p526
aS'another year another missed opportunity yell good burger york fashion week party'
p527
aS'tore suutsin p\xc3\xb5letada nagu naha maha shit'
p528
aS'sure speak russian well definitely speak seductively'
p529
aS'minutes blood sugar plummeted stopped cookie walked home thats running friday'
p530
aS'wish dollar every time window washer seen naked hahasorry dude'
p531
aS'reede nice'
p532
aS'goodbye'
p533
aS'happy birthday'
p534
aS'oled ilge v\xc3\xa4rdjas faire foutre'
p535
aS'today also national video games'
p536
aS'sheerid ahah okei'
p537
aS'youre tough remember things could worse could competitive triathlete'
p538
aS'spent morning wind sprints forest dress shoes legs feel exploited still beats cycling'
p539
aS'tunnistan \xc3\xbclesse olen s6ltuvuses pean igat kontiluud raksutama haige lihtsalt'
p540
aS'okei fine jkjk'
p541
aS'miks igas klassis inimene tuletab 6petajale meelde kodut\xc3\xb6\xc3\xb6 nagu mine kontrolli seda'
p542
aS'days succinct reasonable tell someone theyve acted like asshole'
p543
aS'kallikene t\xc3\xa4nkjuu'
p544
aS'tegin teen edasi mida heaks arvan'
p545
aS'super happy suicidal seconds'
p546
aS'nunnu'
p547
aS'girl used know stay away'
p548
aS'mmmm tahaks teada \xc3\xb5petaja sellest arvab'
p549
aS'ahjaa tuli meelde eestikeeles mingi kirjand teha ohshit imfucked'
p550
aS'mingi haige fuckup sellep\xc3\xa4rast naljakas ongi'
p551
aS'huvitav venekeele \xc3\xb5petajale meeldib m\xc3\xb5nitada sorri'
p552
aS'hahahahahahaha tunnen s\xc3\xbcgavalt kaasa'
p553
aS'lemmikhobi alexi kallal m\xc3\xb6lisemine'
p554
aS'miks oska seda fullscreenile panna palun palun palun selgeks'
p555
aS'ever need tell someone day\xe2\x80\xa6you tell'
p556
aS'olicity cant justjust ship okay'
p557
asS'2013_36'
p558
(lp559
S'lihtsalt teile teadmiseks vihkan inimesi kellel pruunid silmad pole kindel miks lihtsalt'
p560
aS'raske k\xc3\xb5nelda raske vaikida k\xc3\xb5igest sellest s\xc3\xbcdames vennaskond'
p561
aS'watch massive charity event'
p562
aS'please watch massive charity event'
p563
aS'watch massive charity event'
p564
aS'days like today make wanna tear fucking hair'
p565
aS'know days really feel like could work like finally gonna right'
p566
aS'meil mitte nutame koos'
p567
aS'socks sandals really'
p568
aS'season'
p569
aS'high bench small people vancouver'
p570
aS'grown hunted attacked child killed several times call duty'
p571
aS'hale olla'
p572
aS'magasin aktuse maha'
p573
asS'2013_35'
p574
(lp575
S'vapiano'
p576
aS'vihkan trollide bussidega s6itmist lihtsalt sellep\xc3\xa4rast kindel olla minu istekohal mingi pr\xc3\xbckkar p\xc3\xbcksi teinud'
p577
aS'pole midagi ilusat \xc3\xb6elda'
p578
aS'guys stop shaving arms looks ridiculous'
p579
aS'biggest crush stephen amell'
p580
asS'2013_34'
p581
(lp582
S'great today everyone youre stressed dont worry cause tomorrow friday'
p583
aS'seljaga juhtus valutab enda liigutada valus'
p584
aS'vaatab selle social network siis'
p585
aS'creepy girls youre style'
p586
aS'hakkasin muretsema l\xc3\xa4hme hessi ikka'
p587
aS'l\xc3\xa4hme hessi koos'
p588
ag52
aS'eccedentesiast person hides pain behind smile'
p589
aS'l\xc3\xa4hme m\xc3\xa4kki'
p590
aS'want show east coast baby'
p591
aS'vaatan garfieldi pitsat'
p592
aS'muhahahahawwaaa'
p593
ag52
aS'pirru came back brought'
p594
asS'2013_33'
p595
(lp596
S'pean olema k\xc3\xb6\xc3\xb6gis tehakse kohvimasinas korraga kohvi t\xc3\xa4iesti paha juba sadface'
p597
aS'rimi pikk parem prisma candyupi banaanipiim megahea siis roadtrip bitches'
p598
aS'kitten stuck tree drowning saved fire bruce'
p599
aS'austin carlile'
p600
aS'autod mingi hullem action'
p601
aS'k\xc3\xa4ime mustam\xc3\xa4ed l\xc3\xa4hme kolame myfitnessis'
p602
aS'lets againi know always easy different saying like something thats normal'
p603
aS'goodnight'
p604
asS'2013_31'
p605
(lp606
S'make hard sleep'
p607
asS'2013_30'
p608
(lp609
S'bill gates earns every second'
p610
asS'2012_35'
p611
(lp612
S'dress school love shoes'
p613
aS'bird'
p614
asS'2012_36'
p615
(lp616
S'fucking bored hate'
p617
aS'hate school'
p618
asS'2012_37'
p619
(lp620
S'playing league legends friend means friends'
p621
aS'little shes sleeping'
p622
aS'freaking bored ltlt'
p623
asS'2012_30'
p624
(lp625
S'miss killing'
p626
aS'shoutout bored'
p627
aS'kinda cross hand sure'
p628
aS'trying sleep well'
p629
asS'2012_31'
p630
(lp631
S'sisters sister awesomelt3'
p632
aS'stalking andy danny'
p633
aS'watching 111111 brotherhes scared'
p634
aS'desktop background'
p635
aS'rising'
p636
asS'2012_32'
p637
(lp638
S'love chocolate cakei thing nowand latte'
p639
aS'photo taken yesterday sisters'
p640
aS'funoutside hotel almost forest'
p641
aS'bikuuuin hotel room'
p642
aS'sisters hotel'
p643
aS'sisterslt3 love'
p644
asS'2013_38'
p645
(lp646
S'l\xc3\xb5bus selline attention whore olla'
p647
ag52
ag52
aS'pretty much yeah'
p648
aS'waka waka minge persse'
p649
aS'hehehee kardan'
p650
aS'youre breathe everything'
p651
aS'tuuli stwag life'
p652
aS'stwag'
p653
ag52
ag52
aS'promise'
p654
aS'downloading candy crush worst decision ever made also best'
p655
aS'unine'
p656
aS'saad r\xc3\xa4\xc3\xa4gid'
p657
aS'kobi kooli'
p658
aS'great diagnosed major depression cyclothymia'
p659
aS'miks haiglates sellised bimbod t\xc3\xb6\xc3\xb6tavad'
p660
as.