(dp0
S'2013_42'
p1
(lp2
S'third wheel'
p3
aS'bowling assssh'
p4
aS'loves'
p5
aS'saved ashleys life'
p6
aS'tell ashley happppy birthday birthdaygirl'
p7
aS'touch drums stab neck knife'
p8
aS'cant someone make night'
p9
aS'countrrrry'
p10
aS'ashley starts beating reason rudemuch whyyounoloveme'
p11
aS'sleeeepover assssh'
p12
aS'cutest thing ever'
p13
aS'woke bessssst ever'
p14
aS'young know forever'
p15
aS'another great show every night audiences blown away makes away home time worth'
p16
aS'hate always guys choice'
p17
aS'shes mind shes keeper'
p18
aS'keep huge smile face dont like looking past like remember pain went threw'
p19
aS'morning'
p20
aS'hard handle truth'
p21
aS'absolutely love wearing comfy sweaters'
p22
aS'sweater weather'
p23
aS'guess weird someones crush'
p24
aS'best threesome ever pillow'
p25
aS'gives people advice cant even handle problems'
p26
aS'tweets great'
p27
aS'midnight memories'
p28
aS'really hate people change'
p29
aS'living yolo life making pimp decisions'
p30
aS'reallllly want learn skate teachme anyone desperate'
p31
aS''
p32
aS'must people unfollow whhhhy'
p33
asS'2013_43'
p34
(lp35
S'dont give someone love\xe2\x80\x9d'
p36
aS'best thing taco bellll'
p37
aS'taco belllll heaven'
p38
aS'cause anything could happen'
p39
aS'little sweetheart mybaby stopbeingacutie'
p40
aS'another sleepover assssh'
p41
aS'story life'
p42
aS'cougarnation'
p43
ag32
aS'babbbby sexiest alive'
p44
aS'cant right dont think ever polls band thanks'
p45
aS'follow whole life would complete'
p46
aS'erection luke hemmings\xe2\x80\x9d'
p47
aS'hate compete attention\xf0\x9f\x98\x94'
p48
aS'need dont need'
p49
aS'long sweaters comfy leggings gtgtgt'
p50
aS'cant love'
p51
aS'western'
p52
aS'brother would rather take homework cantarguewiththat'
p53
aS'worst things life come free goodnight'
p54
aS'people look think perfect life dont know half whyyyyme'
p55
aS'another sleep asssssh'
p56
aS'love thank marry'
p57
aS'sorry couldnt many people nice though'
p58
asS'2013_40'
p59
(lp60
S'liam please stop tooo cute'
p61
aS'support means world thanks guys night'
p62
aS'thanks everyones support hard time obviously tough weeks never throu\xe2\x80\xa6'
p63
asS'2013_41'
p64
(lp65
S'loved getting wolverhampton award sorry couldnt pick sounds'
p66
aS'breakintosomeoneshouseandstealthereunderwearday right scarlett johanssons house'
p67
aS'happened went hotel staff outside sum1 climbed stole'
p68
aS'poor baby cakes'
p69
aS'hmmm somebody stole boxers embarrassed'
p70
aS'happy woke shit would unfair'
p71
aS'strangest ever woken butt naked sum1 trying force open balcony'
p72
asS'2013_46'
p73
(lp74
S'liam interview things life give inspiration songs girls relationships\xe2\x80\x9d'
p75
aS'happy birthday'
p76
aS'fangirling thing'
p77
aS'mayberry following'
p78
aS'omfg retweeted followme'
p79
aS'happy birthday hector'
p80
aS'love'
p81
aS'turns lovely brother covered tucked'
p82
aS'waking noticing someone covered blankets tucked someonelovesme'
p83
aS'tight hugs'
p84
aS'someone calls reality shes looks like whale'
p85
aS'everyone annoys'
p86
asS'2013_47'
p87
(lp88
S'music life'
p89
aS'hate changed\xf0\x9f\x98\x94'
p90
aS'likes modays homework slow internet empty fridge'
p91
asS'2013_44'
p92
(lp93
S'annoyed easily'
p94
aS'always going give always manage faith meeting'
p95
aS'seriously hate sick'
p96
aS'rigggght show done gonna follows story lifeeeee'
p97
aS'theres bathrooms house everyone always decides come mine'
p98
aS'hate people think hair fake'
p99
aS'honestly dont know famous people would come valley nothinggreataboutit'
p100
aS'know selfie powerade'
p101
asS'2013_45'
p102
(lp103
S'ashley picture lovely'
p104
aS'cutie voteaustinmahone'
p105
aS'better want anything'
p106
aS'singlebecause'
p107
aS'sweaters'
p108
aS'everything pointless'
p109
aS'feel like havent lately'
p110
aS'whole'
p111
aS'dirty little secrets'
p112
asS'2013_37'
p113
(lp114
S'want nirvana tshirt'
p115
aS'marrrrry already'
p116
aS'yeah cool twitter'
p117
aS'whats wrong world'
p118
aS'yesss wohooo teens'
p119
aS'next time sign youre twitter xoxo sisterlt3'
p120
aS'happppppy birthday irish babe'
p121
aS'bestfriend bought biggg cheeeetos lovehim thebest heaven'
p122
aS'like make band mates feel extremely uncomfortable'
p123
aS'shoe back'
p124
aS'sydney sunsets home'
p125
aS'time look epic gifts guys gave america sweetest people planet 5sosfa\xe2\x80\xa6'
p126
aS'reallllllly want though morehottttties mybabbbbys amazing toomuchtohandle'
p127
aS'next time come back america better ready come shows party'
p128
aS'ridiculously huge journey later back sydney baby'
p129
aS'surreal home'
p130
aS'weird home brings back memories every bedroom band practice every early 5sos video started'
p131
aS'internet\xe2\x80\x9d'
p132
aS'homeeeeee\xe2\x80\x9d'
p133
aS'good home time relax days'
p134
aS'america love'
p135
aS'gonna miss america wahhhhh'
p136
aS'hopes meeting reached maximum never going happen nonono bye5sos dontleave americalovesyou babycomeback'
p137
aS'fallen love american people hope make long distance relationship work 5sosfam'
p138
aS'thanks amazing support america love'
p139
aS'well extremely back heart beat america excited aussies'
p140
aS'hospital'
p141
aS'cousin hurt took minutes ambulance nobueno bull'
p142
aS'cousins footballlll game familysupport lovehim memorialms'
p143
aS'really want midnight memories'
p144
aS'forget fans school tomorrow nobueno nolivestreamtonight schooltomorrow fangirlproblems differenttimezones'
p145
asS'2013_36'
p146
(lp147
S'really hate show teens pregnant like dont care fault opened legs'
p148
aS'hope people realize going split 2015because signed year contract simon nonono'
p149
aS'want shirt needit'
p150
aS'brother comes room frosty tells feeling well helovesme bestbrotheraward'
p151
aS'voice girly talk strangers friends turn morgan freeman\xe2\x80\x9d'
p152
aS'cant wait hear songs weve written'
p153
aS'really dislike miley cyrus'
p154
aS'babbbbbby iwishiwasthebear'
p155
aS'pandora station'
p156
aS'thanks support time tough days made value everything much'
p157
aS'liam wonderful caring person love mybabbbbby'
p158
aS'swear basic'
p159
aS'ugggh crushes'
p160
aS'duck dynasty'
p161
aS'bestfriend trys stuff food'
p162
aS'basic jessica'
p163
aS'wearing something basic like always'
p164
aS'hate hair right'
p165
aS'always sets mood'
p166
aS'cant liam fall love already'
p167
aS'moment available nationwide today whos already 1dhq meeee'
p168
aS'sisters bought moment onedirection happyjessica inlove whatup'
p169
asS'2013_35'
p170
(lp171
S'thisisus bestmoviever inlove'
p172
aS'crying need watch'
p173
aS'luke bryan'
p174
aS'heaven'
p175
aS'malllllllllll'
p176
aS'goooooodmorning'
p177
aS'nightnight feelingblah'
p178
aS'hate getting sick blah feelinglikecrap'
p179
aS'last happpppppy birthday baby happybirthdayliam iloveyou youmakemehappy cutiepie'
p180
aS'premier amazing thing ever'
p181
aS'literally fell love thisisus justsawit inlove'
p182
aS'less hours'
p183
aS'raining great'
p184
aS'happppppppy birthday baby'
p185
aS'since live texas still liams birthday goodnight schooltomorrow'
p186
aS'shall dress pretty tomorrow birthday'
p187
aS'premiere tomorrow cantwait cantbreath'
p188
aS'give happy share baby'
p189
aS'thank much fans really best congrats'
p190
aS'hereitis'
p191
aS'know fans really love beautiful enjoy moonman love seashell girl'
p192
aS'midnight premier days'
p193
aS'tired today everyone'
p194
aS'premier going yell liam payne mine'
p195
aS'forgot tell happy birthday friday'
p196
aS'love thank much kind words support great meet hope'
p197
aS'fangirl'
p198
aS'fancy'
p199
aS'morning everyone night yesterday would like thank support yesterday extraordin\xe2\x80\xa6'
p200
aS'wish best friend like'
p201
aS'well done directioners congrats taking home best song summer'
p202
aS'cant stop shacking'
p203
aS'deserve punched face'
p204
aS'asking bunch drama crazy mofos werent stupid immature pathetic 23yearold getalife'
p205
aS'shut pathetic seriously need punched face \xf0\x9f\x98\xa1hateyou xoxo'
p206
aS'imagine reacting vmas'
p207
aS'stop perfect'
p208
aS'gooooood performance'
p209
asS'2013_34'
p210
(lp211
S'youll always summer love'
p212
aS'back things wants follow'
p213
aS'rather stupidfamousperson ugly bald follows teenagers camera'
p214
aS'sweetheart love'
p215
aS'well past days complicated venture everyone'
p216
aS'stuck like thank normal isnt easy stil\xe2\x80\xa6'
p217
aS'doubted turn hate like thing batman'
p218
aS'morning goodmorning amazing'
p219
aS'great'
p220
aS'love everything conceitedmuch'
p221
aS'small birthday yayme'
p222
aS'forever'
p223
aS'goooooodnight'
p224
aS'cousin tells look skinner whythankyou'
p225
aS'ever buys ourmoment love forevvvver'
p226
aS'finallllllly home'
p227
aS'always road trips birthday \xf0\x9f\x98\xb6almosthome ohwell byebye houston'
p228
aS'happy birthday'
p229
aS'birthday'
p230
aS'daymade already birthdaygirl yayme iloveher bigsister esmerr15'
p231
aS'happy perrie'
p232
aS'leaving houston tomorrow'
p233
aS'pretty much want birthday tweet'
p234
aS'finalllllly movie ticket midnightpremire cantwait excited hurryup 29th'
p235
aS'everybody shut already'
p236
aS'saying aint shit nice fuck'
p237
aS'always read horrible stuff someone care about\xe2\x80\x9d'
p238
aS'keep dont worry people think fking cool okay'
p239
aS'done'
p240
aS'lucky direction'
p241
aS'dont know anymore lostgirl'
p242
aS'cant believe amazing night hadddd thankyou cant wait film'
p243
aS'brother greatest persons could ever life showed'
p244
aS'finalllly commercial'
p245
aS'iphone'
p246
aS'thisisus'
p247
aS'goodnight lovelys'
p248
aS'last week houston'
p249
aS'\xe2\x80\x9cthis presents payno'
p250
aS'caution surface 1dmovie'
p251
aS'hate love time'
p252
aS'seriously need movie ticket midnightpremier asap'
p253
aS'always person gives advice anything everything dont ever take advice'
p254
asS'2013_33'
p255
(lp256
S'missed caspar lees livestream nobueno'
p257
aS'cuttttttttte'
p258
aS'birthday friday putting 5sosanswerme'
p259
aS'mine keeps freezing'
p260
aS'twitcam weridos'
p261
aS'sxdcfrtgv cant wait'
p262
aS'birthday liams meanttobe thereishope virgos'
p263
aS'bhruwrvu honest justin bieber perfume smells amazing lt333'
p264
aS'morning need like hours thuglife'
p265
aS'totally made night'
p266
aS'tend turn music thats thing cheer'
p267
aS'life nothing pain suffering getting easier'
p268
aS'keep everything bottled afraid others'
p269
aS'maybe start'
p270
aS'liam adorable'
p271
aS'life offically lost meaning'
p272
aS'missed teenchoice mylifeisover whhhhhhhy'
p273
asS'2013_32'
p274
(lp275
S'trending'
p276
aS'ashtons caspar lees video blog help hotness'
p277
aS'yaaaaay vlog dork usual hahaha'
p278
aS'well obviously going happen'
p279
aS'luke solos tryhard inlove'
p280
aS'efron sucha cutie'
p281
aS'liam tickling fans camera went mampg uggggh kill'
p282
asS'2013_31'
p283
(lp284
S'harry fans sign backwards waved flip around cutie cupcakelt3'
p285
aS'1000000 ridiculously beautiful people crying'
p286
aS'pugs drugs'
p287
aS'hate missing twitcams'
p288
aS'nightynight'
p289
aS'swear calum drunk time dude even cant even drink'
p290
aS'never good enough right'
p291
aS'poor ashton hope feel better'
p292
aS'home hospital longnight'
p293
asS'2013_30'
p294
(lp295
S'1dupdatesonline liam sang part dont liam whhhhy'
p296
aS'dont twitter days people unfollow'
p297
aS'giving everything literally'
p298
aS'wish could meet'
p299
aS'wouldve done thing'
p300
aS'long hair annoying wonderful thing ever'
p301
ag32
aS'thank much guys making bestsongever viewed video ever hours vevo youre legends'
p302
aS'sucha cutie'
p303
aS'leeroy trending'
p304
aS'follow spreeeeee'
p305
aS'texas'
p306
aS'years love guys'
p307
aS'guys broke vevo hour record thank much love lots bestsongever crazymofos'
p308
aS'amazing love'
p309
aS'remember niall crossing fingers hopes winning vmas thenlt333'
p310
aS'feels like yesterday hardly anybody ever knew guys'
p311
aS'hello name georgia rose'
p312
aS'stay cause quite quick'
p313
aS'bestsongever'
p314
aS'album gonna amazing'
p315
aS'lerroy boyfriend'
p316
aS'evening watched best song ever'
p317
aS'love video boys smashed'
p318
aS'best video ever'
p319
asS'2013_28'
p320
(lp321
S'want move england'
p322
aS'town'
p323
aS'chicago wasaaaap long first american radio interview year memories'
p324
aS'sucha fangirl'
p325
aS'drumming thing goodnight 5sosfam biggest love ever'
p326
aS'always love meeting guys always best meet many'
p327
aS'everyone signs tonight upsetting dont know whats happend hope cont'
p328
aS'saying dont want guys feel unappreciated reall appreciate efforts guys'
p329
aS'detroit unbelievable show tonight deffinately great laugh tonight thank soon'
p330
aS'happened left room'
p331
aS'pizza party'
p332
ag32
aS'ashtons gone crazy'
p333
aS'cant move trained band someone hold'
p334
aS'almost upto following'
p335
aS'detroit'
p336
aS'followwwww'
p337
aS'amazing show tonight detroit thank much'
p338
aS'wont able walk tomorrow'
p339
aS'always miss follow sprees fmmmmml'
p340
aS'irresistible'
p341
aS'happy friday soundcheck'
p342
aS'ashtons gone crazy'
p343
aS'technically friday going wait appropriate time celebrate'
p344
aS'amazing people tonight thankyou toronto'
p345
aS'lovely meet everyone today detroit'
p346
aS'today wicked thanks much everyone'
p347
aS'chilllllllling home alone'
p348
aS'hanging tough'
p349
aS'want right peanut butter lots lots peanut butter'
p350
aS'jams ruggedly handsome fellow lukey'
p351
aS'toronto ready acoustic show going epic'
p352
aS'thissssss video doooooe'
p353
aS'hope youre enjoying video love'
p354
aS'omgomgomg followed'
p355
aS'bored decided write love letter'
p356
aS'riding bicycle'
p357
aS'video june favourites thumbs extra videos'
p358
aS'crazy thank much following million incredible love'
p359
aS'listening hours'
p360
aS'helllllllllllo'
p361
asS'2013_29'
p362
(lp363
S'taking bets long takes someone stage houston problem'
p364
aS'jammin'
p365
aS'room party calum hahaha worst gangstas ever lived ever'
p366
aS'today sucked tomorrow going worst goooodnight'
p367
aS'depressing tomorrow gonna worst'
p368
aS'excuse photo'
p369
aS'well today sucked'
p370
aS'yesterday outside cheddars bigsister brother photobomb matching'
p371
aS'nerds today forgive 5sosatnasa'
p372
aS'thats cute liam mine sorrynotsorry'
p373
aS'taken'
p374
aS'tourrrr amazing last night loved america farrr'
p375
aS'make going thats houston'
p376
aS'houston'
p377
aS'ashton irwin drummercowboyastronaut'
p378
aS'whhhhhhhy'
p379
aS'like donkey kong'
p380
aS'ninja turtles'
p381
aS'guys city'
p382
aS'guess closest ever guys laptop screen'
p383
aS'depressed guys houston gonna'
p384
aS'thats houston kinda biploar'
p385
aS'rain texas arrive haha'
p386
aS'nonono houston gonna'
p387
aS'going depression gonna guys'
p388
aS'half naked following people feels gooooood 5sosfamilyfollowspree'
p389
aS'thumb getting sore following sexy people keep following luke 5sosfamilyfollowspree'
p390
aS'club 5sos extremely dancing even makes laugh'
p391
aS'voice'
p392
aS'ommmmmmgosh gonna houston sunday days away'
p393
aS'lukey photography skills'
p394
aS'heres view moment legends'
p395
aS'ommmmgosh babbbby'
p396
aS'crazy follow till face hurts 5sosfamilyfollowspree follow bunch later tonight love'
p397
aS'still waiting guys make acoustic show texas'
p398
aS'livestream'
p399
aS'goodmorning come dose weirdness twitcam'
p400
aS'thanks great shows chicago tonight'
p401
asS'2013_39'
p402
(lp403
S'take picture throwback amazing iloveit'
p404
aS'lovely today gotta love australia wish could'
p405
aS'sorry anyone couldnt picture many people scared'
p406
aS'well quickest shopping trip ever think come realise public shopping places choice onli\xe2\x80\xa6'
p407
aS'havent twitter like week feelashamed'
p408
aS'naaaw worried safety cute'
p409
aS'girls behind hotel please fields theres huge sign saying snake habitat worth someo\xe2\x80\xa6'
p410
aS'good thanks huge welcome adelaide buzzing rest shows'
p411
aS'wherever truly amazing'
p412
aS'wherever 5sos'
p413
asS'2013_38'
p414
(lp415
S'gona love obsessed gona huge weeks ready tmht\xe2\x80\x9d'
p416
aS'still shocked amazingmovie thebessssssst fellinlove'
p417
aS'reallllllly want concert'
p418
aS'song leaked direction come online like'
p419
aS'sorry couldnt stop airport said wasnt safe great'
p420
aS'knew along 1dfansgotthatpower'
p421
aS'direction usfan'
p422
aS'nothing good ever happens'
p423
aS'seeing play little kids attractive thing ever\xe2\x80\x9d'
p424
aS'pretty sure days people used flirt giving flowers cute shit favourite tweets\xe2\x80\x9d'
p425
aS'haha could side'
p426
aS'amazing smile could hide everything threw'
p427
aS'want wish happpppy birthday person fancy youtube happybirthdayalfie'
p428
aS'reading birthday messages made today best ever cant thank enough supportive'
p429
aS'happpppy birthday oneofthebestyoutubers lovehim'
p430
aS'everything done decide turn around backstab seriously notruefriends ohwellllll thatslife'
p431
aS'seriously best friend inside jokes sometimes start laughing loud'
p432
aS'also anyone want task finding icon ones sort baby liam love picture'
p433
aS'rain rain away'
p434
as.