(dp0
S'2013_42'
p1
(lp2
S'shut mouth turn walk away doesn\xe2\x80\x99t mean youve means stupidity isn\xe2\x80\x99t worth time'
p3
aS'every morning reads paper coffee'
p4
aS'liberals blame everyone problems create'
p5
aS'dont fucking'
p6
aS'obama sent helicopters buzz vets sent save tyrone woods benghazi 1mvetmarch'
p7
aS'funnybut beautiful'
p8
asS'2013_43'
p9
(lp10
S'talent breathing'
p11
aS'someone really wants theyll find reason theyll find theyll make effort'
p12
aS'ever want pack leave blue without saying anything anyone like leave start'
p13
aS'don\xe2\x80\x99t mind alone hate feeling alone'
p14
asS'2013_40'
p15
(lp16
S'life made years mean nothing moments mean everything'
p17
aS'youre jelly burger knife soup glitter sushi ketchup icecream point'
p18
aS'matter busy person really care always find time'
p19
aS'talent breathing'
p20
aS'think funny people treat like shit offended finally'
p21
aS'young understand yeti tell great grandpa time 66lol'
p22
aS'scientists discover center universe many people going disappointed find'
p23
aS'prefer think speak like surprised everyone else comes mouth'
p24
aS'never hold farts travel spine brain thats shitty ideas'
p25
asS'2013_41'
p26
(lp27
S'hobbies include sleeping disappointing everyone close'
p28
aS'cousins coon creek girls kentuckyi love blue grass state'
p29
aS'someone hates reason give bitch reason'
p30
aS'hate spiders wall acting like rent'
p31
aS'politicians like bombers seldom victims donald boudreaux'
p32
aS'whoever gossips gossip'
p33
aS'pretty sure \xe2\x80\x9ctired\xe2\x80\x9d part personality description'
p34
aS'peyton manning greatest time retweet favorite'
p35
aS'many times excuse hell becomes acceptable'
p36
aS'nothing hurts disappointed person thought would never hurt'
p37
asS'2013_46'
p38
(lp39
S'parents accused liar looked face said tooth fairy santa easter bunny walked'
p40
aS'biggest tell dont need write shit remember'
p41
aS'didnt give fuck yesterday dont give fuck today probably wont give fuck tomorrow'
p42
aS'mosquitoes sucked instead blood'
p43
asS'2013_47'
p44
(lp45
S'evil'
p46
aS'control'
p47
asS'2013_44'
p48
(lp49
S'complain supervisor doesnt work higher'
p50
aS'keeps dividing peoplehe needs away'
p51
aS'obamas secret service protectionand hollyweird security'
p52
aS'young folk pays owni sick hearing'
p53
aS'lost respect people year'
p54
aS'never force someone make space life know worth surely create'
p55
asS'2013_45'
p56
(lp57
S'gonna lose weight gonna exercise every gonna diet stick'
p58
aS'ugly personality destroys pretty face'
p59
aS'remember friends needed theyre true friends'
p60
aS'hope'
p61
aS'people change friends become enemies things wrong life goes'
p62
aS'retweet think every american likes health care plan actually able keep makedcl\xe2\x80\xa6'
p63
aS'checked calendar still wont give fuck tomorrow'
p64
asS'2012_45'
p65
(lp66
S'heart judged much love much loved others wizard'
p67
asS'2012_46'
p68
(lp69
S'adore little'
p70
asS'2012_42'
p71
(lp72
S'love country music younger'
p73
asS'2013_24'
p74
(lp75
S'biggest problem twofaced people never knowing face slap first'
p76
aS'dont stress people dont even deserve issue life'
p77
aS'running away problems causes problems'
p78
aS'forgotten like normal sleeping pattern'
p79
aS'weeks told grampy head felt like basket sitting shoulders'
p80
aS'money doesnt happinessbut rather ferrari bike'
p81
aS'think funny people treat like shit offended finally'
p82
aS'years couldnt wait grow shit signed'
p83
aS'don\xe2\x80\x99t shred constitution tell lawmakers support rights'
p84
aS'people dont change learn better'
p85
aS'stop worrying people arent worried'
p86
aS'game different levels dealing hell different devils'
p87
aS'life short smile still teeth'
p88
aS'thursday much opec ripped today'
p89
aS'dont hate someone nice want something'
p90
aS'nice used getting fucked'
p91
aS'crazy quickly people forget want something'
p92
aS'sixth sense stupid people'
p93
aS'best clint eastwood shooting morgan freeman narrates'
p94
aS'dont opinion tell truth'
p95
aS'british accent would talk'
p96
asS'2013_25'
p97
(lp98
S'conversations head real life'
p99
aS'really want theyll make time'
p100
aS'america needs stop making stupid people famous'
p101
aS'better someone walk away'
p102
aS'count hand many people really trust'
p103
aS'keep friends close enemies closer problem nowadays cant tell apart'
p104
aS'never someone significance speed bump become roadblock life'
p105
aS'true friends ones nice things behind back'
p106
aS'intelligence like underwear important theres need show'
p107
aS'problem todays kids todays parents idiots'
p108
aS'stop cross street better hustle knees chest bitch knees chest'
p109
aS'grow realize becomes less important friends important real ones'
p110
aS'james gandolfini dead tonysoprano sopranos ripjamesgandolfini riptonysoprano'
p111
aS'know someone annoys takes muscles frown extend punch'
p112
aS'comes point life realize really matters never always'
p113
aS'pretty much spend every looking forward going back sleep'
p114
aS'dont call phone called'
p115
aS'gives people advice cant even handle problems'
p116
aS'nothing tired'
p117
aS'done today done tomorrow already'
p118
aS'best revenge moving getting don\xe2\x80\x99t give someone satisfaction watching suffer'
p119
aS'hate shower options degree burns skinny dipping fucking antarctica'
p120
aS'dear today woke healthy alive thank'
p121
aS'dont need control anger everybody around needs control habit pissing fuck'
p122
aS'matter busy someone says really care theyll always find time'
p123
aS'little inside person eating alone restaurant'
p124
aS'prefer think speak like surprised everyone else comes mouth'
p125
aS'hate nice someone really want throw brick'
p126
asS'2013_26'
p127
(lp128
S'dont short temper quick reaction bullshit'
p129
aS'nobody busy matter priorities'
p130
aS'offended opinion hear ones keep'
p131
aS'emotionally constipated havent given shit days'
p132
aS'telling female calm like trying baptize'
p133
aS'think dislike probably'
p134
aS'fuck nice people dont deserve'
p135
aS'bestfriend times never said things thank times understood'
p136
aS'sometimes pain makes suffer negative thought makes things seem worse'
p137
aS'well understand going unless backup'
p138
aS'dont ever forget else'
p139
aS'getting older mandatory growing optional'
p140
aS'wish common sense common'
p141
aS'going make time'
p142
aS'bitch mine goes phone cablei make take bill'
p143
aS'think funny people treat like shit offended finally'
p144
aS'love mommy hate right wish still retweet'
p145
aS'biggest tell dont need write remember'
p146
aS'think right people think right goes'
p147
aS'nice used getting fucked'
p148
aS'talk trying walk tall making feel small rise'
p149
aS'good people bullshit'
p150
aS'better enemy slaps face friend stabs back'
p151
aS'life short whatever fuck makes happy'
p152
aS'responsible happiness expect others make happy chances youll always disap\xe2\x80\xa6'
p153
aS'dont like facebook status'
p154
asS'2013_27'
p155
(lp156
S'scars show wounds heal sometimes cant pain someone feels'
p157
aS'someone something probably nothing good'
p158
aS'nothing sucks moment argument realize youre wrong'
p159
aS'stop editing pics missing find look like beyonce facebook waka flocka\xe2\x80\xa6'
p160
aS'never surprised someone treats respect expect'
p161
aS'saying tired youre actually'
p162
aS'nothing goes right sleep'
p163
aS'cockroaches survive atomic bombs chemical warfare fuck raid'
p164
aS'dont time people time'
p165
aS'promises mean everything broken sorry means nothing'
p166
aS'changed horn sound shots people move much faster'
p167
aS'forgottenit'
p168
aS'instead wiping tears wipe away people caused'
p169
aS'people need life ones need'
p170
aS'sorry forgot dont need anymore'
p171
aS'heres little hint dont give shit'
p172
aS'older less give fuck'
p173
aS'kids committed suicide nobody noticed society cares popul\xe2\x80\xa6'
p174
aS'people need eggs thrown brick shaped eggs made brick'
p175
aS'ignore theyll need later'
p176
aS'matter much wish could things never'
p177
aS'wish delete button life delete people memories feelings'
p178
aS'knocked door asking small donation local pool gave glass water'
p179
aS'count blessings today many others fortunate'
p180
aS'people change memories dont'
p181
aS'people don\xe2\x80\x99t like well fuck'
p182
asS'2013_20'
p183
(lp184
S'really cute people forget existence need something'
p185
aS'dear iphone please stop changing rude words nice ones piece shut'
p186
aS'adopted\xe2\x80\x9d \xe2\x80\x9dshit like picked'
p187
aS'sometimes waste much thinking someone doesnt even think second'
p188
aS'people need head hammer'
p189
aS'mcdonalds window trade wrong shit gave second window'
p190
aS'getting older mandatory growing optional'
p191
aS'many times excuse hell becomes acceptable'
p192
aS'emotionally done mentally drained physically smile'
p193
aS'inhale good shit exhale bullshit'
p194
aS'pringles chip company world doesnt sell'
p195
aS'saying youll wake early something done wake convincing important'
p196
aS'days always backwards\xe2\x80\xa6i wake exhausted wide awake'
p197
aS'year olds today facebook twitter iphones ipods coloring book crayons imag\xe2\x80\xa6'
p198
aS'carry grocery bags trying making fucking trips'
p199
aS'going church doesnt make christian standing garage makes'
p200
asS'2013_21'
p201
(lp202
S'speak languages english profanity sarcasm real shit'
p203
aS'life short fuck makes happy'
p204
aS'looking graffiti bridge people thats vandalism people thats dope hell'
p205
aS'dont like mind matter dont mind dont matter'
p206
aS'wish days longer time nothing'
p207
aS'forget hurt past never forget taught'
p208
aS'said make wheelchair pedals dont hands done'
p209
aS'love randomly find money clothes like gift'
p210
aS'type person looks menu five minutes ends ordering exact thing every time'
p211
aS'wish could mute people'
p212
aS'spent entire childhood wishing older older sucks'
p213
aS'robbers ever broke house searched money laugh search'
p214
aS'thanking veterans service singforyou'
p215
aS'fuck excuses learn admit fuck'
p216
aS'sometimes really hard believe everything happens reason'
p217
aS'people need head hammer'
p218
aS'honey enjoy wish mine little'
p219
aS'don\xe2\x80\x99t search someone live search someone can\xe2\x80\x99t live without'
p220
aS'silly thought actually cared'
p221
asS'2013_22'
p222
(lp223
S'made mistakes life doesnt come instructions'
p224
aS'bacon word alone worth retweet'
p225
aS'wish morgan freemans voice narrated life'
p226
aS'shit happens dont talk'
p227
aS'dear karma long list people missed'
p228
aS'text youre driving cause trying last unfinished message find wrap\xe2\x80\xa6'
p229
aS'well another passed havent used algebra'
p230
aS'little inside person eating alone restaurant'
p231
aS'bird would person shit'
p232
aS'said make wheelchair pedals dont hands done being\xe2\x80\xa6'
p233
aS'enjoy long romantic walks fridge'
p234
aS'dear year girls crying broke boyfriends cried missed'
p235
aS'advise don\xe2\x80\x99t mess know karate kung judo kwon jujitsu dangerous words'
p236
aS'life realizing would cross oceans people wouldnt jump puddles'
p237
asS'2013_23'
p238
(lp239
S'drunk words sober thoughts'
p240
aS'repissed situation whenever start thinking'
p241
aS'hate nice someone really wanna throw brick'
p242
aS'life knocks calmly back smile like bitch'
p243
aS'racist hate everyone equally'
p244
aS'know worth nobody make feel worthless'
p245
aS'wish rewind button life'
p246
aS'honest sorry doesnt mean shit anymore'
p247
aS'look people sometimes thinkfor real thats sperm'
p248
aS'wake good attitude everyday idiots happen'
p249
aS'cant handle truth dont shit'
p250
aS'pete rose allowed baseball hall fame alltime hits leader paid price already'
p251
aS'comes violent crime going solve problem must stop politically correctmu\xe2\x80\xa6'
p252
aS'cockroaches survive atomic bombs chemical warfare fuck raid'
p253
aS'dear vegetarians youre trying save animals eating food'
p254
aS'know answer going dont fucking'
p255
aS'younger couldnt wait older shit expected'
p256
aS'without fake friends youll never know real ones'
p257
asS'2012_49'
p258
(lp259
S'honey agree gets stronger years'
p260
asS'2013_28'
p261
(lp262
S'everyone fcked played tried lied youre dead'
p263
aS'sixth sense stupid people'
p264
aS'sometimes wonder alive'
p265
aS'hard positive person surrounded dumb motherfuckers'
p266
aS'another discontent'
p267
aS'worst thing lied knowing youre worth truth'
p268
aS'biggest tell dont need write remember'
p269
aS'learn give absence dont appreciate presence'
p270
aS'making changes life right don\xe2\x80\x99t hear you\xe2\x80\x99re'
p271
aS'nobody worth tears wont make'
p272
aS'comes point life realize really matters never always'
p273
aS'isn\xe2\x80\x99t ironic wealthy environmentalists private jets fight wind farms placed near'
p274
aS'starting fuck feeling everything'
p275
aS'shit happens trust wrong people'
p276
asS'2013_29'
p277
(lp278
S'really want theyll make time'
p279
aS'nice used getting fucked'
p280
aS'gets higher cutting hole floorboard flintstoning bitch'
p281
aS'wish delete button life delete people memories feelings'
p282
aS'matter \xe2\x80\x9cbusy\xe2\x80\x9d person\xe2\x80\x99s \xe2\x80\x9creally care\xe2\x80\x9d they\xe2\x80\x99ll always find time'
p283
aS'sometimes give people everyone life meant doesnt mean theyre meant'
p284
aS'beginning made heaven earth rest made china'
p285
asS'2012_48'
p286
(lp287
S'another sucky paradise'
p288
asS'2013_5'
p289
(lp290
S'charged 17950 back little 30000 dont state taxes grandpas pension'
p291
asS'2013_7'
p292
(lp293
S'dont ever apologize posting sonhe adorable'
p294
asS'2013_3'
p295
(lp296
S'sounds like frazier'
p297
aS'honey frazierbut love waylol'
p298
aS'small deicer carry coat pocket works great doors locks'
p299
asS'2013_2'
p300
(lp301
S'rain freezing rain sleet snow ready spring'
p302
aS'looks like little happy self againand honey surely mini'
p303
asS'2013_17'
p304
(lp305
S'gonna lose weight gonna exercise every gonna diet stick cake'
p306
aS'well another passed havent used algebra'
p307
aS'sixth sense stupid people'
p308
asS'2012_52'
p309
(lp310
S'love pans'
p311
asS'2012_50'
p312
(lp313
S'sweet baby'
p314
aS'respect people graduated without using google wikipedia'
p315
asS'2013_37'
p316
(lp317
S'putting skin like wrestling satan'
p318
aS'beautiful beeni love'
p319
aS'trust issues people lying issues'
p320
aS'makes'
p321
aS'dear face wash commercials nobody actually splashes faces water like sincerely whole damn bathroom'
p322
aS'cant force love want youll make realize lost'
p323
aS'forgot grandma sample firstlol'
p324
aS'adorable great granny send'
p325
aS'sweet babythat adorable'
p326
aS'beautifuli love little'
p327
asS'2013_36'
p328
(lp329
S'wish heaven visiting hours'
p330
aS'realized crossing oceans people wouldnt even jump puddles'
p331
aS'robbers ever broke house searched money laugh search'
p332
aS'keep shit reality nobody really gives fuck'
p333
aS'nothing make happy happy'
p334
aS'wake everyday planning productive voice head says haha good laugh laugh'
p335
aS'prefer think speak like surprised everyone else comes mouth'
p336
aS'maybe could something else'
p337
aS'count hand many people truly trust'
p338
aS'dick durbin needs gone'
p339
aS'know surelooking forward seeing'
p340
aS'keep friends close enemies closer problem nowadays cant tell apart'
p341
aS'morgan freemans voice would talk'
p342
aS'time greatest gift give someone like giving portion life youll never'
p343
aS'grow older start realize need need leave behind'
p344
asS'2013_35'
p345
(lp346
S'little darling babyi adore'
p347
aS'wish heaven visiting hours'
p348
aS''
p349
aS'dont care people dont like wasnt earth entertain anyone'
p350
aS'honest really dont give fuck lose friends make friends make enemies everyday regardless still'
p351
aS'worst feeling world knowing best could still wasnt good enough'
p352
aS'british accent would talk'
p353
aS'regret every skipped child want sleep'
p354
aS'year kids making twitter accounts shit fuck gonna tweet leaving care'
p355
aS'dont enough middle fingers mothafucka know truly feel'
p356
asS'2013_34'
p357
(lp358
S'hate tired body like kidding btch'
p359
aS'ever want pack leave blue without saying anything anyone like leave start'
p360
aS'better enemy slaps face friend stabs back'
p361
asS'2013_33'
p362
(lp363
S'said make wheelchair pedals dont hands done'
p364
aS'dear karma long list people missed'
p365
aS'hasnt danville veterans hospital either'
p366
aS'everyone love going love back thats important love anything'
p367
aS'problem people theyre breathing'
p368
aS'love'
p369
aS'best moments life ones cant tell anyone'
p370
aS'dont future time past'
p371
aS'didnt give fuck yesterday dont give fuck today probably wont give fuck tomorrow'
p372
aS'found penny reminded worthless found everyones pants'
p373
asS'2013_32'
p374
(lp375
S'enjoy life comes expiration date'
p376
aS'haters advantage kiss cant'
p377
asS'2013_31'
p378
(lp379
S'nice used getting fucked'
p380
aS'actually matter person theyll make time lies excuses'
p381
aS'dont judge cant handle half dealt theres reason things theres reason'
p382
aS'made mistakes life doesnt come instructions'
p383
aS'wish delete button life delete people memories feelings'
p384
aS'prefer girl butt 10th likes guys'
p385
aS'bullshit'
p386
aS'make mistakes hurt people human sorry perfect'
p387
asS'2013_30'
p388
(lp389
S'chuck norris doesn\xe2\x80\x99t wear watch decides time'
p390
aS'lost respect people year'
p391
aS'dont bucket listbut fucket list mile long'
p392
aS'people dont like well fuck'
p393
aS'wanted older shit expected'
p394
aS'signed petition defund planned parenthood'
p395
asS'2013_19'
p396
(lp397
S'hate singing along song artist gets wrong'
p398
aS'life short makes happy'
p399
aS'actually spoke mind deep shit'
p400
aS'whoever reading beautiful someone crazy smile life short'
p401
aS'hate people different around certain people'
p402
aS'prefer think speak like surprised everyone else comes mouth'
p403
aS'less friends less bullshit'
p404
aS'course talk sometimes need expert advice'
p405
aS'less care happier youll'
p406
aS'whenever depressed like nice piece cake'
p407
aS'respect people graduated high school without google wikipedia'
p408
aS'people never appreciate'
p409
aS'awkward moment youre talking start smile like idiot youre hilarious'
p410
aS'dont short temper quick reaction bullshit'
p411
aS'hurt truth don\xe2\x80\x99t comfort'
p412
aS'less friends less bullshit'
p413
asS'2013_18'
p414
(lp415
S'hate argument think clever shit said'
p416
aS'take kill animal shelter'
p417
aS'prefer think speak like surprised everyone else comes mouth'
p418
aS'drama dumb retards asking attention'
p419
aS'wish days longer time nothing'
p420
aS'screw loose balls'
p421
asS'2013_16'
p422
(lp423
S'hate news media afraid offend anyone always refers boston killer suspect'
p424
aS'sometimes feel like unwanted person ever'
p425
aS'best threesome pillow'
p426
aS'constantly torn kind everyone\xe2\x80\x99 \xe2\x80\x98fuck everyone nothing\xe2\x80\x99 mentalities'
p427
aS'arguing idiot frustrating things ever'
p428
aS'conversations head real life'
p429
aS'appreciate gone'
p430
aS'hate parents baby looks like born minutes looks like potato'
p431
aS'lazy energy saving mode'
p432
asS'2013_39'
p433
(lp434
S'forgot yesterday thats years'
p435
aS'honey always beautiful'
p436
aS'careful tell secrets everyone looking'
p437
aS'sweet'
p438
aS'know week tired give sweet baby hugs usus'
p439
aS'whats wrong little'
p440
asS'2013_38'
p441
(lp442
S'younger couldnt wait older shit expected'
p443
aS'nobody ever busy care make time'
p444
aS'dear america teach children chores productive'
p445
aS'people better life others better staying'
p446
aS'control cuba universal health care cuba want come paul harvey'
p447
aS'hormones honey'
p448
aS'stink'
p449
aS'sometimes need little alone time doesnt mean upset anything else need'
p450
aS'born without guess live without'
p451
asS'2013_11'
p452
(lp453
S'putting body alero make pooty magnet'
p454
asS'2013_13'
p455
(lp456
S'robbers ever broke house searched money laugh search'
p457
aS'look people sometimes think thats sperm'
p458
aS'people deserve eggs thrown brick shaped eggsmade brick'
p459
aS'bird youd first person shit'
p460
aS'1994 worst year music kurt cobain died justin bieber born'
p461
aS'really need learn difference hungry bored'
p462
aS'karma menu served deserve'
p463
asS'2013_15'
p464
(lp465
S'happens person tears making'
p466
aS'teacher chocolate cakes someone asks many left'
p467
aS'hate argument think clever shit said'
p468
aS'nothing lasts forever live drink laugh avoid drama take chances never regrets'
p469
aS'addicted wasting time'
p470
asS'2012_39'
p471
(lp472
S'hope hope time'
p473
aS'sorry wish could brought bowli bring steak next week schnucks'
p474
aS'cooking homemade veggie soupit really good'
p475
aS'lousy cold rainy dayguess cook something good'
p476
as.