(dp0
S'2014_36'
p1
(lp2
S'couple years behind'
p3
aS'well victoria'
p4
aS'anything happened mins trouble remembering'
p5
aS'understand'
p6
aS'remember hour long time'
p7
aS'think started watching castle'
p8
aS'dont worry'
p9
aS'wasnt castle leftbones right'
p10
aS'watched episodes season including finale'
p11
aS'well would take longer melbourne south'
p12
aS'theres bones section castle parts'
p13
aS'scots still vote referendum dont theyor numbers part vote'
p14
aS'thinking capitals well'
p15
aS'forgetful normally'
p16
aS'showing'
p17
aS'took minute figure name'
p18
aS'1015 start send strongly worded tweet goodnight'
p19
aS'yeah jokes scottish independence isnt monarchist'
p20
aS'talking ricardos'
p21
aS'change flag family scottish wierd'
p22
aS'hahaha'
p23
aS'cant tell photo'
p24
aS'click name thinking'
p25
aS'ummm kirstie ricko tagged hahaha'
p26
aS'visit must'
p27
aS'make side trip seattlephoenix minnesota family thereor could come'
p28
aS'seeiwenttothetoiletcosalexiswasonscreen'
p29
aS'probably take weeks leave week rest'
p30
aS'ummm stoptryingtoconvincemetolikealexis'
p31
aS'havent watched itwas found youtube'
p32
aS'definitely stare'
p33
aS'everybody loves castle gates perlmutter'
p34
aS'trip next year depends'
p35
aS'quickly tried youtube hahaha'
p36
aS'scen espo ryan interviewing witnesses hilarious'
p37
aS'least fave season espo centric'
p38
aS'love line becketts eyeroll'
p39
aS'detective beckett defective castle pmsl'
p40
aS'swan song wasnt expecting'
p41
aS'oohh forgot perlmutter final frontier perlmutter'
p42
aS'really liked greater good swan song'
p43
aS'likely weve never beaten cowboys finals'
p44
aS'castle gates castle thewayoftheninja'
p45
aS'gates hair looks great scene'
p46
aS'ninja fight saito office'
p47
aS'bedford wins ugliest jumper award'
p48
aS'hahahaso true'
p49
aS'think might ugliest jacket award'
p50
aS'well obviously need hairstylist like sana'
p51
aS'dont like castles jacket scene reminded awful espo wore'
p52
aS'love ponytail'
p53
aS'cronuts remember thought beckett pregnant aahh good times'
p54
aS'dont think would mind torture'
p55
aS'great caskett scene castle thewayoftheninja'
p56
aS'beckett leather pants alert castle thewayoftheninja'
p57
aS'castle trying 6000 reimbursed gates castle thewayoftheninja'
p58
aS'\xe2\x80\x98lipstick marks shirtwherebeckett\xe2\x80\x99ll kill meoh godi didn\xe2\x80\x99t callyou guysbeckett going kill thewa\xe2\x80\xa6'
p59
aS'castle dont know always answer missus calls'
p60
aS'ryan singing karaoke pmsl castle thewayoftheninja'
p61
aS'love love love ryan castle thewayoftheninja'
p62
aS'think really wants wear leather pants'
p63
aS'great'
p64
aS'whole cast great'
p65
aS'ninja would caught pmsl castle thewayoftheninja'
p66
aS'always laugh hard watching'
p67
aS'fave scenes racially profile castle thewayoftheninja'
p68
aS'things ninjas anyway disappoint castle castle thewayoftheninja'
p69
aS'castle excited killer ninja castle thewayoftheninja'
p70
aS'ninja stole murder weapon pmsl castle thewayoftheninja'
p71
aS'fave season castle thewayoftheninja'
p72
aS'great throwdini bahaha castle thewayoftheninja'
p73
aS'perlmutter love sarcasm castle thewayoftheninja'
p74
aS'time castle thewayoftheninja'
p75
aS'dont cowboy emoticons'
p76
aS'nrlfinals 755pm 1300smiles stadium ticket info'
p77
aS'sorry ricko support wait yahoo bronxnation cowsvsbroncos'
p78
aS'nrlpenwar lead stands panthers broncos back'
p79
aS'cant believe saying thisbut cmon penrith bronxnation'
p80
aS'tears finale different reasons tears'
p81
aS'aaaahhhh finale'
p82
aS'happy fathers dadeven though youve gone year still miss every'
p83
aS'illy tightrope official video'
p84
aS'milky chance flashed junk mind'
p85
aS'headbandcamerarefereetool case closed'
p86
aS'sweatband gopro like said tool'
p87
aS'hell joel caine smoking'
p88
aS'excuses excuses true wouldve watched'
p89
aS'guess back cows finals'
p90
aS'course broncos arent used weather'
p91
aS'really even watch game tool headcam blame loss'
p92
aS'joey stop talking bronxnation nrlmelbri'
p93
aS'hahaha whatadick'
p94
aS'blaming wearing headcam loss tonight yorefyoulookedlikeatool bronxnation'
p95
aS'part bronxnation smile\xf0\x9f\x98\x8a cause tony'
p96
aS'praying miracles happen still make finals bronxnation'
p97
aS'oohhhello sexy'
p98
aS'nnnnnooooo'
p99
aS'luck lads defending superbly toobronxnation nrlmelbri'
p100
aS'tough trainer refuses amputate looks busted left wing torso nrlmelbri'
p101
aS'freddie joey mumblersrabs needs pasture well wally king'
p102
aS'almost tools nines commentary team'
p103
aS'storm score theregreat work sidesbronxnation nrlmelbri'
p104
aS'cough likely cough bronxnation'
p105
aS'nothing wrong smiththe storm thought game already hahaha'
p106
aS'hunt everythinghes great season'
p107
aS'woohoo great mate nrlmelbri'
p108
aS'geez looks like tool headcam nrlmelbri bronxnation'
p109
aS'good bronxnation nrlmelbri'
p110
aS'dear refscan start game boys suffering jetlag hour flight bronxnation nrlmelbri'
p111
aS'hahahalove'
p112
aS'great boys bronxnation'
p113
aS'totally boys need regroup bronxnation'
p114
aS''
p115
aS'agree'
p116
aS'nnnooo'
p117
aS'shouldve broncs'
p118
aS'crap'
p119
aS'great work lads bronxnation'
p120
aS'going drive nuts'
p121
aS'weve watching games mute button turned'
p122
aS'think joey drinking bahaha'
p123
aS'cmon lets bronxnation'
p124
aS'partyfriends visiting goblets wine consumed already'
p125
aS'timmy trumpet savage freaks'
p126
aS'katy perry official'
p127
aS'usher feat nicki minaj came give'
p128
aS'klingande jubel official video'
p129
aS'ready official music video'
p130
aS'pointer sisters excited'
p131
aS'body rockers like move'
p132
aS'avicii nicky romero could nick\xe2\x80\xa6'
p133
aS'nathaniel live louder'
p134
aS'eminem lose vevo'
p135
aS'woohoo weekend bitches lets bust joint'
p136
aS'geez spring fark'
p137
aS'robin bailey beautiful woman good friend even though radio rivalstake care brisbane'
p138
aS'interview sams snake funniest evercannot stop laughingwell played'
p139
aS'9newsbrisbane peregian springs state school says handstands cartwheels banned injuries lmao'
p140
aS'good promo'
p141
aS'went youtube view awesome cant wait'
p142
asS'2014_37'
p143
(lp144
S'annoy reckon'
p145
aS'nnnooo'
p146
aS'start work every days earlier\xf0\x9f\x98\xad\xf0\x9f\x98\xad\xf0\x9f\x98\xad\xf0\x9f\x98\xad'
p147
aS'alrighty guys wake hours goodnight'
p148
aS'didnt know ranking system harder'
p149
aS'phew'
p150
aS'awesome aussies'
p151
aS'mean tier awesome aussies'
p152
aS'bows thank thank best'
p153
aS'dans'
p154
ag115
aS'doesnt enough money take'
p155
aS'kirstie president alexis club shirts'
p156
aS'sure blame writers'
p157
aS'trying catch tweets'
p158
aS'dont tell kirstie liked alexis season'
p159
aS'dont read fics alexis linked characters'
p160
aS'nnnnooooo dont punish like'
p161
aS'whispers'
p162
aS'sarcastic relates alexis'
p163
aS'goodnight kirstie'
p164
aS'maybe eliminated sundaynightcastletweets'
p165
aS'lainie gates hamming love'
p166
aS'word warning first sarcastic'
p167
aS'ssshhh policefedgov might monitoring tweets'
p168
aS'many funny lines dialogue'
p169
aS'makes must tired starting time'
p170
aS'dont function well next work'
p171
aS'ratings need neilsens rating meterdont think count tweets'
p172
aS'join sunday night castle tweeting party'
p173
aS'thought minority fans liked episode'
p174
aS'like watching gets around airing'
p175
aS'aahh espo wearing matching shirt pants eyes'
p176
aS'think australians watching thats'
p177
aS'totally rock castle tweeting behalf australians'
p178
aS'tweeting'
p179
aS'weve narrowed female colour blind work experience'
p180
aS'gates fake front cameras'
p181
aS'look good dressed'
p182
aS'maybe wardrobe mislead fillionarms'
p183
aS'dont like kbecks jacket episode hairporn'
p184
aS'smokin'
p185
aS'swoon'
p186
aS'thats hilarious'
p187
aS'maybe luke work experience dress cast episode castle thegreatergood'
p188
aS'gates backstory love she\xe2\x80\x99s confiding beckett thegreatergood castle'
p189
aS'expensive shoes'
p190
aS'purple jacket army green shirt eyes eyes'
p191
aS'castle wearing matching shirt jacket castle thegreatergood'
p192
aS'wonder that\xe2\x80\x99s wine makes feel castle thegreatergood'
p193
aS'ringwatchsighting'
p194
aS'holy crap luke holidays castle thegreatergood'
p195
aS'hahaha ryan shooting espos fantasy gates sister'
p196
aS'strong scene gates sister well acted'
p197
aS'castles shirt nice colour though kbecks outfit'
p198
aS'eyes espo another scary jacket castle thegreatergood'
p199
ag115
aS'likey outfit think suits complexion'
p200
aS'love kbecks outfit though'
p201
aS'haha start work earlier starts castle would appreciated'
p202
aS'think give castle bigger jacket wear good look castle thegreatergood'
p203
aS'tweeted start tweet castle thegreatergood'
p204
aS'finally castle time australia'
p205
aS'hahaha chancewhy shows scheduled times make'
p206
aS'love episode cheeseburgers'
p207
aS'scheduled start 1015 tonightstill waiting'
p208
aS'hahayes'
p209
aS'geez ennis went like shot grub'
p210
aS'legit grub reynolds'
p211
aS'great storm'
p212
aS'hadley caller nrlnqlbri'
p213
aS'lets bronxnation nrlnqlbri'
p214
aS'kick soward'
p215
aS'cmon penrith'
p216
aS'first mins crap last mins'
p217
aS'nnnooo lets bronxnation'
p218
aS'cray cray nutjobs'
p219
aS'woohoo thank christ friday'
p220
aS'still found guilty types murderhomicide manslaughter though'
p221
aS'cannot wait premierethis hiatus sssooo long'
p222
aS'love poster'
p223
aS'almost utopiaabc time east coast excited'
p224
aS'second thisplease come australiagt'
p225
aS'woohoo happy dance'
p226
aS'happy birthday files 1993 2014 21years thexfiles danascully foxmulder davidduchovny gilliananderson'
p227
aS'hashtagmuch'
p228
aS'hahahawell done'
p229
aS'bestphoneever'
p230
aS'woohoo scored week work goodjob'
p231
asS'2014_34'
p232
(lp233
S'well find house cali'
p234
aS'chief brady take hint rack'
p235
aS'call ryan castle'
p236
aS'love scene ryan lerner'
p237
aS'maybe twitter often didnt know going'
p238
aS'actually liked shirt scenethey need dress casually often'
p239
aS'castle subtle time vinnie scar'
p240
aS'sleeping like baby chainsaw'
p241
aS'stana looks stunning whole episode always'
p242
aS'relaxed looking'
p243
aS'booker friend arrest'
p244
aS'love beckett looks castle scene'
p245
aS'precinct scene'
p246
aS'scene hilarious caskett boys lanie'
p247
aS'lanie funny scene boys'
p248
aS'thinks watches shows'
p249
aS'prostitute pmsl'
p250
aS'love lines stana delivers'
p251
aS'time little skip going gate'
p252
aS'naked pool'
p253
aS'geez outstanding episodes'
p254
aS'castle murderhewrote love episode hard'
p255
ag115
aS'alexis cockblocker'
p256
aS'genius annoying'
p257
aS'frost point episode great banter liners'
p258
aS'cyou know you\xe2\x80\x99re engaged genius byesa genius annoying pmsl smug castle room147'
p259
aS'sorry tuned focused beckett'
p260
aS'hiding alexis'
p261
aS'wait theres'
p262
aS'becketts getting fricken frustrated castle room147'
p263
aS'love whole episodeminus alexis course'
p264
ag115
aS'owies good luck'
p265
aS'well alexis scenes caskett scenes'
p266
aS'crap happen'
p267
aS'agreeing kbecks alexis'
p268
aS'needs sleep work monday'
p269
aS'alexis later kbecks'
p270
aS'aaaaaggggghhhhh alexis scene'
p271
aS'shifty eyes'
p272
aS'yessomething doesnt'
p273
aS'hahaha thats hilarious'
p274
aS'thanks enjoy weekend'
p275
aS'kelsey'
p276
aS'game absolute joke known taking'
p277
aS'hell yeah priory weekend'
p278
aS'surely athletes know giving theyre fckwits'
p279
aS'amounts games banned ridiculous'
p280
aS'disgrace'
p281
aS'already'
p282
aS'death chocolate breakfast'
p283
aS'tgif'
p284
aS'thank castle 7two dont listen grub reynolds nines league coverage'
p285
aS'thats good theory'
p286
aS'next week utopiaabc'
p287
aS'shoot rhonda make headshot utopiaabc'
p288
aS'loving utopia great cast'
p289
aS'seems went better lead rather worlds worsrt shit showing'
p290
asS'2014_35'
p291
(lp292
S'beckett swap went work feds'
p293
aS'theory westide wally'
p294
aS'theory castles disappearance petterson poker buddies cleaned game'
p295
aS'done jbbracken onesbefore onto double'
p296
aS'obviously alexis'
p297
aS'thats'
p298
aS'finished rewatch going back fave'
p299
aS'tell nathanbut stana nathans armporn'
p300
aS'give beckett eyeroll cause wouldve'
p301
aS'mmmmm'
p302
aS'unless youre dreaming nathans armporn'
p303
aS'great scene kate lainie'
p304
aS'great acting nathan episode'
p305
aS'really love heavyangsty episodes'
p306
aS'beckett looks sick looking evidence castles loft'
p307
aS'eight weekks'
p308
aS'went right xmas'
p309
aS'series midend october hopefully onto season'
p310
aS'definitelyshe knew couldnt involved'
p311
aS'idea'
p312
ag115
aS'goodnight kirstie'
p313
aS'alexis'
p314
aS'sssshhh dont spoil'
p315
aS'awards stana'
p316
aS'beckett bucket challenge'
p317
aS'throwback past'
p318
aS'castle vulcan simmons inthebellyofthebeast'
p319
aS'voice castle inthebellyofthebeast'
p320
aS'first watched thought straight away'
p321
aS'great acting nathan'
p322
aS'looks sounds like harrison ford'
p323
aS'eyes eyes'
p324
aS'thing thats ever happened mebabewith heartalways feels inthebellyofthe\xe2\x80\xa6'
p325
ag115
aS'beckett writing letter castle castle inthebellyofthebeast'
p326
aS'espos short'
p327
aS'noonetouchesbeckettshoohabutcastle'
p328
aS'shoe collection'
p329
aS'cause theyre busy eavesdropping convos'
p330
aS'foreshadowing dressed kill peace book'
p331
aS'beckett speaking russian castle inthebellyofthebeast'
p332
aS'creeped beckett'
p333
aS'rysposito pretending eavesdropping'
p334
aS'always giveaway'
p335
aS'look castle inthebellyofthebeast aussie'
p336
aS'kbecks listen gates dont castle inthebellyofthebeast'
p337
aS'shes'
p338
aS'best season'
p339
aS'dont answer phone beckett font castle inthebellyofthebeast'
p340
aS'doesnt love good font castle inthebellyofthebeast'
p341
aS'absolutely'
p342
aS'hell castle'
p343
aS'castle time wise known sleep sunday night time'
p344
aS'woohoo nearly castle inthebellyofthebeast time'
p345
aS'definitely \xf0\x9f\x98\x89maybe\xf0\x9f\x98\x8fhope'
p346
aS'absolutely'
p347
aS'severe weather warning'
p348
aS'suburbia spotted making worlds biggest spiff'
p349
aS'means word take nobodys word thanks google'
p350
asS'2014_32'
p351
(lp352
S'thanks enjoy weekend'
p353
aS'thanks sumit enjoy weekend'
p354
aS'thanks kelsey enjoy weekend'
p355
aS'josh reynolds kicking everything tonight kicking ball kicking broncos players even kicking chairs dres\xe2\x80\xa6'
p356
aS'great tonight boys bronxnation'
p357
aS'fulltime broncos 4110 full match report come nrlbricby'
p358
aS'dirty grub shouldve sent trip barba'
p359
aS'good josh reynolds practicing kicking game sinbin angrykid bronxnation'
p360
aS'hahaha took awhile figure'
p361
aS'apparently apparently'
p362
aS'means drama'
p363
aS'probs wasnt listening grocery shopping'
p364
aS'olympics morning show talking'
p365
aS'pets'
p366
aS'thats awkward sorry delta hybpa tonight'
p367
aS'oohh likey'
p368
aS'well played mini anthony minichiello announces 2014 last season'
p369
asS'2014_33'
p370
(lp371
S'good ratings castle last night tvtonightau sunday august 2014'
p372
aS'night kirstie sleep well'
p373
aS'looks great'
p374
aS'castle'
p375
aS'girl crush stana breathtakingly beautiful'
p376
aS'even worst days theres possibility sigh'
p377
aS'gates worthless bastard looking castle'
p378
aS'lmao scene castle breaking gates doll gates reaction priceless'
p379
aS'fans look gave start phew'
p380
aS'boys great lines looks give'
p381
aS'ryspositos sniggering'
p382
aS'havent seen since xmas funny castle'
p383
aS'take hand tool marco lmfao castle secretssafewithme'
p384
aS'honestly names twins wendell wendy'
p385
aS'freaky gemini dolls'
p386
aS'eddie vedder song'
p387
aS'thats owing mean castle'
p388
aS'auction scene hilarious'
p389
aS'means next week murder wrote repeat'
p390
aS'butler sorry spoiler'
p391
aS'lainie telling castle'
p392
aS'love whole scene challenge accepted'
p393
aS'hahaha thinking'
p394
aS'still smiling like idiot'
p395
aS'teary ending castle smellsliketeenspirit'
p396
aS'love scene heart melting'
p397
aS'shut kiss please castle smellsliketeenspirit'
p398
aS'caskett going prom veins \xf0\x9f\x8e\xb6castle smellsliketeenspirit'
p399
aS'castle looking disappointed lucas explanation pmsl smellsliketeenspirit'
p400
aS'great liners castle smellsliketeenspirit'
p401
aS'ryan castle castle smellsliketeenspirit'
p402
aS'world last mins 6x23 exist sneak peek 7x01 starts'
p403
aS'would make horrible excuse called finale'
p404
aS'next season domestic caskett'
p405
aS'things missed band didnt whole scene awesome castle smellsliketeenspirit'
p406
aS'nearly jackets castle wears'
p407
aS'wonder that\xe2\x80\x99s wine makes feel castle smellsliketeenspirit'
p408
aS'espo little smirk'
p409
aS'nearly purple castle wearing\xf0\x9f\x98\x85\xf0\x9f\x98\x85\xf0\x9f\x98\x85'
p410
aS'absolutely'
p411
aS'remember tweeting first watched'
p412
aS'forgot episode espo wears horrendous jacket castle smellsliketeenspirit'
p413
ag115
aS'faves season castle smellsliketeenspirit'
p414
aS'always'
p415
aS'bake peanut butter'
p416
aS'smells like teen spirit start australia happytimes'
p417
aS'look life dreams come true haha'
p418
aS'spoiler free'
p419
aS'spoiler free season hiatussucks'
p420
aS'lost years ones still'
p421
aS'mine still packaging'
p422
aS'still mulder scully dolls good times'
p423
aS'thurs nights'
p424
aS'castle time 7two'
p425
aS'starting'
p426
aS'yeah good lots happening moment'
p427
aS'twitter break weeks long service hols next year'
p428
aS'going next summer well'
p429
aS'breaking american stage film actress lauren bacall died'
p430
aS'work today public holiday'
p431
asS'2014_30'
p432
(lp433
S'course kept never might needed'
p434
aS'design kirsties alexis club'
p435
aS'never sleep past days later'
p436
aS'bought going give peeps take'
p437
aS'beckett stay katecastle knockout'
p438
aS'still last mins matter many times watched knockout castle'
p439
aS'backwards captain montgomeryno castle knockout'
p440
aS'capt montgomery'
p441
aS'still powerful scene love even midnight'
p442
aS'ricciardo wins thriller daniel ricciardo pips alonso hamilton epic threeway tussle lead'
p443
aS'paybribe peeps club'
p444
aS'early season tolerable since 4x01 needed bitch slapped'
p445
aS'kirstie loves alexis president love alexisfan club'
p446
aS'oohh havent heard disdain alexis next weeks byobrainbleach'
p447
aS'thats detective alexis adventures season'
p448
aS'prepared sarcastic alexis tweets'
p449
aS'time next week wait next week detective alexis adventures'
p450
aS'tweeted unbelievable james move body'
p451
aS'going work tomorrow'
p452
aS'theyre probably asleep'
p453
aS'started twitter last year heaps tweeted airing'
p454
aS'early january cause still hols work'
p455
aS'peeps tweeting castle hash tonight probs true'
p456
aS'wasnt going watch crap'
p457
ag115
aS'didnt rate well earlier timeslot last week though'
p458
aS'showed outstanding worlds worst roads riveting show saidnooneever'
p459
aS'love'
p460
aS'looks like homeless castle deepcover'
p461
aS'especially cuffed supposed check time'
p462
aS'martha needs story lines'
p463
aS'wouldnt captain gates wondering beckett isnt precinct castle deepcover'
p464
aS'oohh kbecks recognises anderson crossjackson huntpapa castle castle deepcover'
p465
aS'love james brolin castle deepcover'
p466
aS'hhmm shady looking homeless castle deepcover'
p467
aS'nice excuse castle castle deepcover'
p468
aS'lets call papa castle avoid confusion'
p469
aS'looks like jackson hunt'
p470
aS'hhmm anderson cross looks familiar castle deepcover'
p471
aS'becketts castle deepcover'
p472
aS'tori tech expert cant type castle deepcover'
p473
aS'maybe rain wedding'
p474
aS'castle deepcover worried rain\xf0\x9f\x98\x82\xf0\x9f\x98\x82\xf0\x9f\x98\x82'
p475
aS'kids listen marthas advice city hall castle deepcover'
p476
aS'wedding preparations hope works castle deepcover'
p477
aS'alrighty time castle deepcover'
p478
aS'athlete yearold australian swimmer took gold last night'
p479
aS'great match'
p480
aS'awesome game'
p481
aS'nail biting'
p482
aS'phew better'
p483
aS'close half time'
p484
aS'miss fave umpire'
p485
aS'fave umpire isnt controlling game'
p486
aS'home dinner computer frigginpoms'
p487
aS'good know joke'
p488
aS'sorry mate dont high horse cant onenadine reliable'
p489
aS'think nadine made'
p490
aS'time mens 4x100m freestyle final lets lads glasgow2014 teamaustralia'
p491
aS'gold medals cycling gold medals swimming'
p492
aS'congratulations whos gold mens 200m freestyle 2014swimming'
p493
aS'great swim close'
p494
aS'problem'
p495
aS'thanks sumit'
p496
aS'tried tenplay watching instead network coverage'
p497
aS'love umpire'
p498
aS'turned sound computerwatching broncos sound working swimming'
p499
aS'thanks enjoy weekend'
p500
aS'dont sound swimming events watched tonight'
p501
aS'move contact tonight'
p502
aS'fave umpire'
p503
aS'turnover think meant welsh call whales'
p504
aS'kiwi said thats wales hahaha'
p505
aS'looks like jazzercise class hahaha'
p506
aS'noticed also side skips court'
p507
aS'hands hips pelvic thrust says contact\xf0\x9f\x98\xb3\xf0\x9f\x98\xb3\xf0\x9f\x98\xb3\xf0\x9f\x98\xb3\xf0\x9f\x98\xb3 hilarious'
p508
aS'watching movements calls play'
p509
aS'camp left still hilarious'
p510
aS'thought cause tamneilsens still need receiver numbers'
p511
aS'nadine count towards ratings watch play'
p512
aS'logged back probs freezingjumping'
p513
ag115
aS'back'
p514
aS'good start'
p515
aS'listening camp'
p516
aS'mine first probs'
p517
aS'ahead play play though'
p518
aS'scroll across want click itmine played straight away'
p519
aS'eeww gross'
p520
aS'play behind live minute'
p521
ag115
aS'queen pulls best photobomb ever royals commonwealthgames'
p522
aS'idea'
p523
aS'like hockey dont know rules looks like going bust dance moves hahaha'
p524
aS'good first started'
p525
aS'loving male hilarious'
p526
aS'play jumpy freezing'
p527
aS'friggin kiwis'
p528
aS'watch friggin poms thoughwho invited comm games anyway'
p529
aS'course apparently first words\xf0\x9f\x98\x84\xf0\x9f\x98\x84\xf0\x9f\x98\x84'
p530
aS'friggin poms\xf0\x9f\x98\xa0\xf0\x9f\x98\xa0\xf0\x9f\x98\xa0'
p531
aS'know nothing hockey georgie parker'
p532
aS'shes looking different days'
p533
aS'aussie goalscorer named georgie parker'
p534
aS'halves quartershow long forhow many field'
p535
aS'noticed aussie wearing pink shoes idontknowtherules'
p536
aS'like malaysians pink shoes'
p537
aS'wear pink shoes good colour blend'
p538
aS'malaysians pink shoes look good iknownothingbouthockey'
p539
aS'absofreakinlutley'
p540
aS'sure great article guys'
p541
aS'followed crazy stanacastle ones ones constantly negative castle'
p542
aS'well said\xf0\x9f\x91\x8f\xf0\x9f\x91\x8f\xf0\x9f\x91\x8f\xf0\x9f\x91\x8f'
p543
aS'happy part ceremony'
p544
aS'google images richard wilkins youll really joke'
p545
aS'celtic park looked amazing opening ceremony glasgow2014'
p546
aS'glasgow2014 throwing therebut never seen stewart richard wilkins hair room same\xe2\x80\xa6'
p547
aS'look amused wait'
p548
aS'billy'
p549
aS'billy connolly'
p550
aS'take high road take road\xf0\x9f\x8e\xb6'
p551
aS'\xf0\x9f\x8e\xb6bonnie bonnie banks loch lomond\xf0\x9f\x8e\xb6'
p552
aS'ready glasgow2014 goscotland'
p553
aS'looks like picnic tablecloth'
p554
aS'saidnooneever'
p555
aS'british passport australian'
p556
aS'wahay scotlandthebrave'
p557
aS'first generation aussie extended family still live glasgowgreenock'
p558
aS'sorry half english'
p559
aS'england boooo scottish thing'
p560
aS'come in\xe2\x80\xa6europe time scotland hosted commonwealth games edinburgh 1970 1986'
p561
aS'2014ceremony brisbane australia'
p562
aS'lmao'
p563
aS'poorq things theyve little legs'
p564
aS'tweeting mary hahaha'
p565
aS'thats cute'
p566
aS'think scottish terrier scotland'
p567
aS'sickies people sickies'
p568
aS'shouldve sickie working home week'
p569
aS'well could play kylie'
p570
aS'loving intro music oceania kylie'
p571
aS'poor little things probably terrified noise stadium'
p572
aS'loving intro music australia'
p573
aS'australia'
p574
aS'massive oops hahaha'
p575
aS'scots'
p576
aS'lucky gordon brays commentary riveting saidnooneever ellis talk'
p577
aS'gordon bday said celtic park home celtic rangers thats going cause problems'
p578
aS'true true knew starting time family glasgow'
p579
aS'proclaimers gonna'
p580
aS'love sound pipes drums'
p581
aS'first thought karen dunbar annie mind long awake hahaha'
p582
aS'hoping going perform love'
p583
aS'family scottish references especially andy stewart donald wheres trousers'
p584
aS'opening ceremony celtic park gohoops'
p585
aS'maybe everyone surprised theyre still together years'
p586
aS'glasgow2014 games begin'
p587
aS'always sports unless olympics change finals times suit primetime'
p588
aS'pretty'
p589
aS'dont worry lips sealed interesting'
p590
aS'havent seen video someone took filming today oohh'
p591
aS'cant help allowed work home started filming spoilers started come'
p592
aS'working home week done search spoilers hahaha'
p593
aS'throwing tantrum want episodes'
p594
aS'stoked anna meares flagbearer'
p595
aS'true didnt mind cliffhanger whole episode part wrong'
p596
aS'wayne bennetts return brisbane broncos complete'
p597
aS'dont need come coachmaybe coaching director something else coach'
p598
aS'dont think good move bringing benny back'
p599
asS'2014_31'
p600
(lp601
S'aussie athlete genevieve lacaze bombs kylie minogues commonwealth games performance glasgow2014'
p602
aS'believers ufos conspiracies science gather nexus conference sunshine'
p603
aS'shes done wins gold 100m hurdles congratulate goaus'
p604
aS'wincongrats sally pearson glasgow2014'
p605
aS'awesome would'
p606
aS'variation'
p607
ag115
aS'wont tell currently'
p608
aS'weekend weeks'
p609
aS'cant stop laughing photo thanksinternet'
p610
aS'funny'
p611
aS'hilarious version \xe2\x80\x98story life\xe2\x80\x99 pure gold'
p612
aS'disgraced star todd carney spotted schapelle corby bali 9news'
p613
aS'great loving'
p614
aS'hahaha take doubters'
p615
aS'welcome twitter george enjoy'
p616
aS'hahaha'
p617
aS'definitely green'
p618
aS'agree green would look great'
p619
aS'white wedding'
p620
asS'2014_38'
p621
(lp622
S'goodnight'
p623
aS'actually dont theory behind accident still traumatised whole'
p624
aS'thats pretty serious'
p625
ag115
aS'oohh share share'
p626
aS'fully spoiler free weeks premiere'
p627
aS'super excited next tuesday cannot wait'
p628
aS'maybe needs bursting bubble flames'
p629
aS'great caskett scene'
p630
aS'boom martha shooting gates love'
p631
aS'dollar kidding'
p632
aS'noticed ryans vest never castles jacket'
p633
aS'heaps great lines scenes'
p634
aS'really like'
p635
aS'first time noticed itmy eyes'
p636
aS'noticed castles jacket'
p637
aS'pmsl boys'
p638
aS'becketts coat'
p639
aS'trying send phone computer wont'
p640
aS'mute people last season hardly went timeline'
p641
aS'organised leave work friends watch premiere live'
p642
aS'went spoiler free finale probably premiere'
p643
aS'done whole series watch couldnt still hurts'
p644
aS'excited going spoiler free weeks dont info'
p645
aS'even thinking'
p646
aS'watched least times cringed every time'
p647
aS'yeah havent watched finale since week aired'
p648
aS'early season still'
p649
aS'veritas episode well never mention'
p650
aS'dont like becketts hair'
p651
aS'totally agree'
p652
aS'woohoo another 20000 good luck'
p653
aS'true apart alexis scenes'
p654
aS'agree espo creepy imaging three'
p655
aS'majority'
p656
aS'never cosnoonelikesalexis'
p657
aS'alexis'
p658
aS'ooohhh threats'
p659
aS'tell government youre receiving suspicious packages mail'
p660
aS'liked alexis'
p661
aS'well characters twitter might take awhile'
p662
aS'thats youll think'
p663
aS'live north postman might still find'
p664
aS'joining sundaynightcastletweets party'
p665
aS'apart alexis whole cast great episode'
p666
aS'might move amish town'
p667
aS'move house arrives residents like'
p668
aS'christmas supposed time goodwill evil'
p669
aS'every purchase shirts free'
p670
aS'still plenty stock cosnoonelikesalexis'
p671
aS'female colour blind work experience'
p672
aS'captain gates back shes pissed castle that70sshow'
p673
aS'nice acting beckett castle that70sshow'
p674
aS'alexis scene'
p675
aS'espo ryan cops love castle that70sshow'
p676
aS'thats fitting jacket wearing luke'
p677
aS'ryans jacket talking carcano'
p678
aS'love lainie scene castle that70sshow'
p679
aS'love espo rolling louie room'
p680
aS'harold calling beckett sweetheart cupcake pmsl castle that70sshow'
p681
aS'love line'
p682
aS'love castles reaction realises victim castle that70sshow'
p683
aS'martha trying help flowerslove'
p684
aS'almost castle triple play time australia show boarder hours bring'
p685
aS'longer promo woohoo last break sunday night castle time'
p686
aS'aired promo 1015 mins'
p687
aS'start time castle'
p688
aS'dont think itll start though john howard interview going'
p689
aS'definitelyjust home time'
p690
aS'reminds caskett sheeran thinking loud official'
p691
aS'sorry idea'
p692
ag115
aS'deadset cowboys robbed nrlsydnql'
p693
aS'black eyed peas lets started'
p694
aS'holiday time lets started'
p695
aS'woohoono 345am wake alarms week half helloholidays ilovemyjobreally'
p696
ag115
aS'utopia best shows ever'
p697
ag115
aS'worked double weekend'
p698
aS'thats mary'
p699
aS'well keep bugging insider info'
p700
aS'stoked thought going make wait epshappyhappyjoyjoy'
p701
aS'awesome working monday dont worry little sleep'
p702
aS'fave season loved'
p703
aS'great gail lucky'
p704
aS'packed toys already going home crankypants effindumbasscustomers'
p705
aS'sorry dudes busy work today smoking'
p706
asS'2014_39'
p707
(lp708
S'woohoo season castle returns tomorrow 109c'
p709
aS'twin tweeted'
p710
aS'well like alexis'
p711
aS'think youd gone talking sites secret'
p712
aS'couldnt remember tweets'
p713
aS'nice tweeting trav hahaha'
p714
aS'talked last week'
p715
aS'think hiatus weeks'
p716
aS'tweet someone tell dumbass qlders'
p717
aS'watching'
p718
aS'woot woot less hours'
p719
aS'castle next sunday night going tweet instead'
p720
aS'foreshadowingthrowback'
p721
aS'agree wouldnt happened earlier seasons'
p722
aS'dont know kirstie talking'
p723
aS'swoon'
p724
aS'woohoo season castle australia thanks'
p725
aS'season woohoo'
p726
aS'think alexis fringe another reason dislike'
p727
aS'scene castle forbetterorworse'
p728
aS'martha'
p729
aS'lanie girls'
p730
aS'lainie jinxed'
p731
aS'werent married mums murder though'
p732
aS'understand reasoning douche normal wouldve liked'
p733
aS'well check partsjust sure'
p734
aS'think dislike rogan douche'
p735
aS'cause farmers didnt want seats'
p736
aS'words'
p737
aS'johs reign solabour gotten referendum lost'
p738
aS'national party dumbasses'
p739
aS'already disliked comments though'
p740
aS'ikrlike said dumbasses'
p741
aS'state used mostly governed fear mongering campaign'
p742
aS'awms reason funny knock'
p743
aS'apparently fades curtains extra hour daylight dumbass'
p744
aS'vote premier reign dumbass national party'
p745
ag115
aS'hahaha middle emoticons looked rude'
p746
aS'made seem like dumbass thats didnt like itplus alexis'
p747
aS'liked start ending still married'
p748
aS'affects farm animals routines apparentlyso cant'
p749
aS'like line'
p750
aS'damn country folk'
p751
aS'oohh alexis burn'
p752
aS'nods headyep'
p753
aS'always qlders rule'
p754
aS'aahh alexis alert eyes eyes'
p755
aS'reallsies'
p756
ag115
ag115
aS'notifications unless twitter open'
p757
aS'crashing burning'
p758
aS'whispershas joined convos'
p759
aS'never attention tweet'
p760
aS'using phone twitter crazy moment'
p761
aS'reallsies dick'
p762
aS'names changing wasnt paying attention'
p763
aS'nope wasnt looking namessorry'
p764
aS'whistles innocently talking'
p765
aS'didnt spoiler trav'
p766
aS'cant watch wreck episode'
p767
aS'flames cars crashing hahaha'
p768
ag115
aS'well epbut mentioned'
p769
aS'thats dont like'
p770
aS'time stab eyes forks'
p771
aS'scene powerful castle veritas'
p772
aS'senator bracken busted castle veritas'
p773
aS'bracken busted castle veritas'
p774
aS'seemust much'
p775
aS'alakazam jackass'
p776
aS'aaahhh'
p777
aS'booyah'
p778
aS'twins'
p779
aS'dont ruin story logic'
p780
aS'much love gates miss montgomery castle veritas'
p781
aS'captain montgomery castle veritas'
p782
aS'badass beckett alert castle veritas'
p783
aS'great scene castle veritas'
p784
aS'boys trust gates'
p785
aS'bracken pussy'
p786
aS'bracken alert castle veritas'
p787
aS'usually hours sleep work'
p788
aS'taken half annual leave excited'
p789
aS'always nights castle airs'
p790
ag115
aS'might mute heaps peeps though'
p791
aS'guys peeps things'
p792
aS'twitter tonight premiere nomorespoilers'
p793
aS'couple everythingmatching burner phones castle veritas'
p794
aS'watch pull beckett alakazamjackass'
p795
aS'standing nonchalantly'
p796
aS'love'
p797
aS'technically wasnt lying thenhe idea'
p798
aS'lanies hand shaking emotional castle veritas'
p799
aS'kelsey twins'
p800
aS'thats thought first twins'
p801
aS'intense opening castle veritas'
p802
aS'yeah join mary'
p803
aS'vulcan simmons mean mofo castle veritas'
p804
aS'could twins'
p805
aS'reminds montgomery pulled cases'
p806
aS'dont ruin story logic'
p807
aS'castle double play time australia veritas better worse bring'
p808
aS'true bunnies dogswho cares'
p809
ag115
aS'season prob start week next week'
p810
aS'best castle ever love'
p811
aS'twitter phone playing might behind tweets'
p812
aS'even stick around episode wont name'
p813
aS'guys everyone castle tonight'
p814
aS'better'
p815
ag115
aS'australia verge permitting alarmingly broad internet surveillance terrifying auspol'
p816
aS'coming watched'
p817
aS'know totally crying happened'
p818
aS'endingdid coming'
p819
aS'finished watching howtogetawaywithmurder fantastic start'
p820
aS'stay strong kirstie dont watch'
p821
aS'yeahhoward faves anyway still also going july depends tour'
p822
aS'toured leftwasnt goodwas planning trip next summer tourbut'
p823
aS'jason definitely talented took shirt'
p824
aS'still crying like robbie leaving'
p825
aS'round storm starting coming west'
p826
aS'whos gluten free carol carols longer utopiaabc'
p827
aS'woohoo'
p828
aS'month looking junejuly earlier'
p829
aS'thats heaps cheaper'
p830
aS'price july price 15th june'
p831
aS'june prices qantas start 1627'
p832
aS'qantas starts 2128'
p833
aS'qantas definitely cheapest airline'
p834
aS'oohh really much'
p835
aS'freaking thats awesome'
p836
aS'think episode aired happens'
p837
aS'love alexis'
p838
aS'perfect rewatched veritas today'
p839
aS'sure idea'
p840
aS'thats castle'
p841
aS'also watched pilot scorpion beforereally liked'
p842
aS'watched earlier good'
p843
aS'cannot wait excited'
p844
aS'ideayou could contacting nova'
p845
aS'shes going hughesy kate tomorrow morning nova'
p846
aS'kirstiejust read ficcongrats girl though dont like profile picyou know'
p847
asS'2014_18'
p848
(lp849
S'less hours woohoo'
p850
aS'worried pigs start flying around'
p851
aS'good luck lote tuquiri thevoiceau'
p852
aS'nice chris'
p853
aS'looking forward hiatus series rewatch season'
p854
aS'time seems dragging'
p855
aS'roar skips outside suncorp stadium chant onenil aleaguegf'
p856
aS'went extra time roar scored'
p857
aS'roar yeah baby'
p858
aS'barnsey telstra'
p859
aS'brazilian soccer dies toilet bowl stadium host world games'
p860
aS'dress'
p861
aS'might transfer work move darwin come back september'
p862
aS'christ ready tomorrow tuesday forecast coldernot looking forward going work 430am'
p863
aS'real feel fuckingfreezing'
p864
aS'yeah currently degrees freezing'
p865
aS'looking forward finale hiatus\xf0\x9f\x98\xad\xf0\x9f\x98\xad\xf0\x9f\x98\xad\xf0\x9f\x98\xad'
p866
aS'dont take dont hahaha'
p867
aS'tell dinner come home freaking cold'
p868
aS'melbourne cold weather back dont want freezing'
p869
aS'youre home early'
p870
aS'great song'
p871
aS'weather severe storm warning issued logan ipswich brisbane goldcoast 9news'
p872
aS'currently storms coming freezing'
p873
aS'might glad wrap thongs severe thunderstorms'
p874
aS'severe storm warnings goldcoast logan ipswich afternoon details bnestorm'
p875
aS'nutties calling nutties thanks sumit'
p876
aS'ashamed deeply ashamed'
p877
aS'didnt'
p878
aS'holy crap thats cold getting mins weekend thought cold'
p879
aS'awkward moment'
p880
aS'asking bodies pictures'
p881
aS'good luck'
p882
aS'first game'
p883
aS'aaahhh joys awake early'
p884
aS'probs thinking planes landing isnt staff rostered'
p885
aS'youll convince everyone else make youthey cant everyone'
p886
aS'finally caught reading latest posted fics another great story'
p887
aS'make exit'
p888
aS'check todays headline mmmmm enjoy dinner'
p889
aS'eurovision returns bringing glitz glamour direct denmark'
p890
aS'evolution'
p891
aS'youre home early'
p892
aS'awesome'
p893
aS'ryan hilarious episode'
p894
aS'whats pigs trotter cr\xc3\xa9pinette crispy pig\xe2\x80\x99s ears followed deconstructed rhubarb tart'
p895
aS'reasons mkrs chloe kelly deserved lose'
p896
aS'sunday\xe2\x80\x99s resurrection season finale blow away'
p897
aS'major spoiler pics kbecks wedding dress'
p898
aS'suck shit contiki tourists'
p899
aS'okay everyone prepared'
p900
aS'little melt heart'
p901
aS'mins figured shed back knew wasnt sherrif fred walked house though'
p902
aS'dress gave away'
p903
ag115
aS'picked twist early ending omfg'
p904
aS'havent watched resurrection awesome'
p905
aS'totally loved castle'
p906
aS'castle bitshare added'
p907
aS'fair stuck work'
p908
aS'links castle boarder download'
p909
aS'sorry regained consciousness twitter exchange'
p910
aS'youll joining next week season finale resurrection'
p911
asS'2014_19'
p912
(lp913
S'coffee'
p914
aS'thank tweeted voted sent pictures broadcasts fantastic share sbseurov\xe2\x80\xa6'
p915
ag115
aS'dont want either cant wait eurovision 2015 austria'
p916
aS'congrats another year great coverage kudos julia'
p917
aS'sbseurovision miss great julia loved congrats austria'
p918
aS'massive congratulations austria brilliant night thanks support time party love'
p919
aS'switzerlands ausin powers sbseurovision'
p920
aS'switzerlands austin powers'
p921
ag115
aS'italy looks bored wants somewhere else'
p922
aS'sent'
p923
aS'woah belgium'
p924
aS'host shot though'
p925
aS'lithuania razor dick'
p926
aS'finnish rapper hipster'
p927
aS'ireland westlife'
p928
aS'moldova chick traditional'
p929
aS'hhmm sure'
p930
aS'holy crap estonia shirt'
p931
aS'germanys englands sbseurovision tvhostsalllookthesame'
p932
aS'jesus shoulder pads norway'
p933
aS'israel hippest youngest person could'
p934
aS'bird germany hotter'
p935
aS'taylor swift belarus sbseurovision'
p936
aS'hello toby points sbseurovision'
p937
aS'points sbseurovision'
p938
aS'time france host tall eiffel tower sbseurovision'
p939
ag115
aS'hello toby netherlands sort sbseurovision'
p940
aS'block country voting begin sbseurovision'
p941
aS'comes boos everytime russia gets votes sbseurovision'
p942
aS'missed dancing viwers eurovision museum nnnnooooo'
p943
aS'sshhh spoiler alert'
p944
aS'cringe time alert lises awkward interview stage performers sbseurovision'
p945
aS'douze points song sbseurovision'
p946
aS'europe start woting sbseurovision'
p947
aS'least song molly better engelberts entry last year sbseurovision'
p948
aS'think maybe marino sbseurovision'
p949
aS'marino time kettle bathroom break sbseurovision'
p950
aS'johnny cash june carter time netherlands sbseurovision'
p951
aS'time dressed malta coming home sbseurovision'
p952
aS'watch eurovision history museum hilarious'
p953
ag115
aS'others songs plus hours filler'
p954
aS'whistle tune switzerland sbseurovision'
p955
aS'whistling song alert'
p956
aS'someone ruth umbrella stat sbseurovision'
p957
aS'shut time ruth spain sbseurovision'
p958
aS'like song spain'
p959
aS'finlands version coldplay personality'
p960
aS'time sbseurovision band camp'
p961
aS'dont worry going'
p962
aS'akward prop time slovenia'
p963
aS'another tweet screen whoot whoot'
p964
aS'chick italy looks like angry britney spears sbseurovision'
p965
aS'think italys entrants lost gladiator themed costume party sbseurovision'
p966
aS'didnt know mary kate ashley could sing sbseurovision'
p967
aS'moment conjoined twins russia sbseurovision'
p968
aS'tangled hair time russia sbseurovision'
p969
aS'drink whoops wrong show'
p970
aS'later lise interviews fave chinese delivered cringe'
p971
aS'think france score points song sbseurovision'
p972
aS'france called twin twin even thought figure sbseurovision'
p973
aS'france time'
p974
aS'faves'
p975
aS'clients work swedish tomorrow going sing undo sbseurovision'
p976
aS'like sweden cause sanna keeps losing'
p977
aS'missed damn'
p978
aS'germanys pink sbseurovision'
p979
aS'time germanys version pink sbseurovision'
p980
aS'actually dont like song'
p981
aS'love conchitas choreography sbseurovision'
p982
aS'everyone bounce greece sbseurovision'
p983
aS'softporn housework sbseurovision'
p984
aS'dont worry tonight songs sbseurovision'
p985
aS'words poland eurovisionsongcontest2014'
p986
aS'trampoline time greece sbseurovision'
p987
aS'kids room right cover eyes poland sbseurovision'
p988
aS'shes really enjoying churning butter washing clothes sbseurovision'
p989
aS'dont think words song poland important sbseurovision'
p990
aS'really enjoys interviewing girls poland sbseurovision'
p991
aS'like saying macedonia sbseurovision'
p992
aS'idea singing like montenegro'
p993
aS'song montenegro needs skating sbseurovision'
p994
aS'sorry douze bloody auto correct'
p995
aS'would without shouting chorus sbseurovision'
p996
aS'shouting song armenia time sbseurovision'
p997
aS'azerbaijan song couldnt start fire'
p998
aS'miracle keeping boobs dress sbseurovision'
p999
aS'theres nothing like fake circular keyboard playing sbseurovision'
p1000
aS'circular keyboard time romania sbseurovision'
p1001
aS'conchitas austria better'
p1002
aS'time angry lesbian song sbseurovision'
p1003
aS'purple iceland wake sbseurovision'
p1004
aS'prejudice icelands outfits sbseurovision'
p1005
aS'tweet screen awesome sbseurovision'
p1006
aS'molly hello sbseurovision'
p1007
ag115
aS'sorry azerbaijan song wont start fires sbseurovision'
p1008
aS'sorry asleep azerbaijan song whats happening sbseurovision'
p1009
aS'though'
p1010
aS'theme song cheesecake shop'
p1011
aS'think well lactose intolerant sbseurovision cheesecake'
p1012
aS'every time hear cheesecake well think song sbseurovision'
p1013
aS'time cheesecake whos hungry sbseurovision'
p1014
aS'anyone managed find human running wheels sbseurovision'
p1015
aS'installing pyrotechnics sbseurovision'
p1016
aS'head smacked'
p1017
aS'broke'
p1018
aS'thinking installing hamster wheel house sbseurovision'
p1019
aS'spains song quite good sbseurovision'
p1020
aS'lots whistling flutes rain spain sbseurovision'
p1021
aS'wouldve livened sbseurovision'
p1022
aS'good bouncer norway time compete sbseurovision'
p1023
aS'growths lise tonight wear wedding dress sbseurovision'
p1024
aS'drinking tonight work'
p1025
aS'acts weve seen except sbseurovision'
p1026
aS'everyone tuning hours sleep ready sbseurovision'
p1027
aS'eurovision final time bitches sbseurovision'
p1028
aS'time australia time sbseurovision tune sbsone windmachine confetti drinkingame'
p1029
aS'twitter morning shows'
p1030
aS'thank eurovision another great weekend entertainmentnow finally sleep'
p1031
aS'jesus eurovision'
p1032
ag115
aS'totally agree thatdisappointed though latvia didnt make finals cake bake'
p1033
aS'eurovision'
p1034
aS'estonian host wearing pajama'
p1035
aS'anyone think actually woman'
p1036
aS'dont austria'
p1037
aS'boos russian voters hahaha'
p1038
aS'finally points'
p1039
aS'suprise azerbaijan points nice booing crowd'
p1040
aS'still great song'
p1041
aS'hilarious'
p1042
aS'heres awkward part eveninglise interviewing performers'
p1043
aS'gina'
p1044
aS'johnny logan looks like gordon ramsay'
p1045
aS'teenage boys voting polandteenage girls finland'
p1046
aS'sounds like christmas hymn'
p1047
aS'time breakfast voting continues'
p1048
aS'maltas song growing hated first time round'
p1049
aS'sweden fave'
p1050
aS'europe please vote iceland aussies want wiggles'
p1051
aS'europe start voting'
p1052
aS'block voting'
p1053
aS'graham norton'
p1054
aS'heaps better engelbert last year hahaha'
p1055
aS'least entry better last years'
p1056
aS'hello molly england'
p1057
aS'sounds like bond theme'
p1058
aS'thenetherlands june carter johnny cash eurovision'
p1059
aS'saved bell reservoir dogs slashfic denmark'
p1060
aS'liked dressed competition'
p1061
aS'looking twoyearold girl abducted home willowbank full story'
p1062
aS'watching live stream wont spoil guys'
p1063
aS'sorry'
p1064
aS'wont start till'
p1065
aS'whispers livestream'
p1066
aS'congratulations austria winning unofficial australia sbseurovision vote tonight finland'
p1067
aS'results known yesterday morning live final starts hours damntimezones'
p1068
ag115
aS'whistling shoulder pads polish boobs alex perry bouncer trampoline hipsters robin thicke children bearded lady\xe2\x80\xa6'
p1069
aS'conchita goes'
p1070
aS'wait frances entry fuckin hilarious'
p1071
aS'junior eurovision think dance sbseurovision'
p1072
aS'coverage starts tomorrow night final'
p1073
aS'already youtube still cringed'
p1074
aS'points australia jess performance sbseurovision'
p1075
aS'dear eurovision watchers overseas honestly australia portrayed eurovision package sbseurovision'
p1076
aS'bowen nandos mango'
p1077
aS'dont worry jess redeeming'
p1078
aS'written potbellez'
p1079
ag115
aS'usual cultural cringe part'
p1080
aS'jess time sbseurovision'
p1081
aS'song romania everything sbseurovision'
p1082
aS'shit'
p1083
aS'must getting drink much though'
p1084
aS'gosh tonights performance going quickly maybe drunker last night sbseurovision'
p1085
ag115
aS'trouble tweeting'
p1086
aS'missing trampolining greece'
p1087
aS'charlie pickering quit project eurovision greece sbseurovision'
p1088
aS'greece entered song cause country poor host next years event sbseurovision'
p1089
aS'next year invited'
p1090
aS'johnny logan aussie born hold dont sbseurovision'
p1091
aS'arent eurovision party'
p1092
aS'thought another stage invader audience'
p1093
aS'whistling clapping song'
p1094
aS'useless performer night goes tambourine switzerland sbseurovision'
p1095
aS'first whistling night drink sbseurovision'
p1096
aS'robot dancing singer macedonia drink sbseurovision'
p1097
aS'side note fuck calls boyfriend cheesecake'
p1098
aS'belarus dont wanna called cheesecake'
p1099
aS'think belarus tired called cheesecake also sworn vagina sbseurovision'
p1100
aS'belarus version backstreet boys sbseurovision'
p1101
aS'dear writers eurovision songs next year changes cant keep drinking like sbseurovision'
p1102
aS'kilts repeat kilts sbseurovision'
p1103
aS'stop comparing softengine everybody know confused would look holding instruments sbseurovision'
p1104
aS'like last night normal eurovision tonight serious contenders'
p1105
aS'like teenage version killers sbseurovision'
p1106
aS'finland teenage girls votes sbseurovision'
p1107
aS'finland first band night drink sbseurovision'
p1108
aS'bondage outfits lithuania drink sbseurovision'
p1109
aS'jesus well song called rise like phoenix'
p1110
aS'really like song'
p1111
aS'first bearded lady night drink sbseurovision'
p1112
aS'reckon actually'
p1113
aS'wurst time bitches sbseurovision'
p1114
aS'amanda heres bearded lady'
p1115
aS'doesnt love good clap sbseurovision'
p1116
aS'best costumes'
p1117
aS'thank poland traditional music mixed eurovision sbseurovision'
p1118
aS'high wear though'
p1119
aS'washing stage drink sbseurovision'
p1120
aS'theyre high right'
p1121
aS'viewers drunk sbseurovision'
p1122
aS'traditional dress clapping intro poland drink sbseurovision'
p1123
aS'idea parachute except weird stage prop drink sbseurovision'
p1124
aS'david hasslehoff competing georgia sbseurovision'
p1125
aS'traditional georgian chanting drink sbseurovision'
p1126
aS'norway singing english'
p1127
aS'would nice could understand norway singing sbseurovision'
p1128
aS'change israel drink sbseurovision'
p1129
aS'come strippers sorry dancers sbseurovision'
p1130
aS'nice singer malta dress tonight sbseurovision'
p1131
aS'instead growth shoulder like last night lise growths pockets sbseurovision'
p1132
aS'opening intro host country wait singing especially bearded lady'
p1133
aS'time semi final sbseurovision'
p1134
aS'follow journey past weeks tonight\xe2\x80\x99s \xe2\x80\x98jess mauboy\xe2\x80\x99s road eurovision\xe2\x80\x99 730pm'
p1135
aS'hamster wheel tick tock ukraine eurovision conte'
p1136
aS'maybe lowes menswear'
p1137
aS'gutted didnt final though favourite performance'
p1138
aS'wiggles eurovision 2014 iceland pollap\xc3\xb6nk prejudice\xe2\x80\xa6'
p1139
aS'aarzemnieki cake bake latvia 2014 eurovisi\xe2\x80\xa6'
p1140
aS'rofl latvia cake bake'
p1141
aS'sorry napyoutube itits hilarious'
p1142
aS'ready combined tune sbseurovision 830pm sbsone'
p1143
aS'austrias bearded lady second favourite eurovision talking things glitter flags'
p1144
aS'give points'
p1145
aS'might watch fast forward'
p1146
aS'compete euro country aussies'
p1147
aS'actually didnt watchwas watching eurovisionwill watch today'
p1148
aS'eurovision bosses cant believe aussies love'
p1149
aS'jess shes competing interval'
p1150
aS'thanks'
p1151
aS'finland looked like wiggles'
p1152
aS'well missed latvia bake cake hilarious'
p1153
aS'semi final last night'
p1154
aS'tonight730 night finals'
p1155
aS'rocked itshes tonights coverage'
p1156
aS'love eurovision'
p1157
aS'dogs'
p1158
aS'story continues\xe2\x80\xa6castle back season caskettalways'
p1159
aS'something else returning\xe2\x80\xa6resurrection officially come back season'
p1160
aS'followers certain brit twin band thought serious congrats wins'
p1161
aS'latvia hahaha sbseurovision'
p1162
aS'hamster wheel final sbseurovision'
p1163
aS'congrats jedward awards highest hair biggest shoulder pads well done sbseurovision'
p1164
aS'someone made hamster wheel sbseurovision'
p1165
aS'cake bake latvia pick semi final sbseurovision'
p1166
aS'first semi final sbseurovision'
p1167
aS'change hungary drink sbseurovision'
p1168
aS'allow translate montenegro every night dreams feel sbseurovision'
p1169
aS'flute skating else need performance sbseurovision'
p1170
aS'flute drink sbseurovision'
p1171
aS'rockcountry song netherlands drink sbseurovision'
p1172
aS'first english song night drink sbseurovision'
p1173
aS'smoke machine sbseurovision'
p1174
aS'dancers appear marinowe know hiding behind'
p1175
aS'another performer white drink sbseurovision'
p1176
aS'dont know moldovas entry sbseurovision'
p1177
aS'gone hard early nowhere left shouting crying mummy sbseurovisi\xe2\x80\xa6'
p1178
aS'lucky goes another hour otherwise plastered still tomorrow night sunday'
p1179
aS'sure male singing sbseurovision'
p1180
aS'wind machine hamster wheel ukraine sbseurovision'
p1181
aS'fucking brilliant'
p1182
aS'flames disappointed song called start fire want flames sbseurovision'
p1183
aS'first aerial performer night drink sbseurovision'
p1184
aS'flames azerbaijans start fire sbseurovision'
p1185
aS'russia twinning sbseurovision'
p1186
aS'raised platform drink'
p1187
aS'english second language american accent drink sbseurovision'
p1188
aS'jedward sbseurovision'
p1189
aS'also getting tipsy drinking games'
p1190
aS'love eurovision camp kitsch good'
p1191
aS'retweet love sbseurovision eurovision windmachine drinkingame vote'
p1192
aS'thank commercial break time sober next sbseurovision'
p1193
aS'iceland probably sbseurovision'
p1194
aS'pollaponk iceland like mumford sons gone fancy dress party wiggles sbseurovision'
p1195
aS'camp alert australia icelands pollap\xc3\xb6nk remind certain group sbseurovision'
p1196
aS'wiggles hello iceland sbseurovision'
p1197
aS'going drunk song sweden sbseurovision'
p1198
aS'glenn close sbseurovision'
p1199
aS'waiting multiple changes song sweden drink sbseurovision'
p1200
aS'wind machine drink sbseurovision'
p1201
aS'performers white drink estonia sbseurovision'
p1202
aS'everyone sing along latvia sbseurovision'
p1203
aS'song good sbseurovision'
p1204
aS'cake bake latvia guys building sbseurovision'
p1205
aS'already tipsy performance drinkinggames sbseurovision'
p1206
aS'fingerless gloves sbseurovision'
p1207
aS'armenias entrant wellies sbseurovision'
p1208
aS'armenia first sbseurovision'
p1209
aS'lise growth shoulder sbseurovision'
p1210
aS'first pyrotechnics night sbseurovision'
p1211
aS'although miss terry wogans commentary julia great sbseurovision'
p1212
aS'australia sbseurovision semifinal underway julia zemiro special guest'
p1213
aS'australia sbseurovision story 2014 begin sbsone excited windmachine drinkinggame'
p1214
aS'sbseurovision 2014 time bitches'
p1215
aS'song trouble'
p1216
aS'thats havent suffered alcohol poisoning'
p1217
aS'performers white outfits'
p1218
aS'drink change well'
p1219
aS'theres something different eurovision yearsbseurovision'
p1220
aS'minus mins counting semi final sbseurovision'
p1221
aS'bucks fizz eurovision 1981 bucks fizz making mind'
p1222
aS'another eurovision fave eurovision 1996 gina litt\xe2\x80\xa6'
p1223
aS'alltime fave eurovision songeurovision 1987 ireland johnny logan hold'
p1224
aS'johnny logan hold'
p1225
aS'dont forget send party pics tweets using sbseurovision tonight chance screen'
p1226
aS'thank nutties leader'
p1227
aS'dance like nobody watching friday'
p1228
aS'renewed scandal upon time castle'
p1229
aS'kelsey'
p1230
aS'jessica mauboy makes eurovision debut australia'
p1231
aS'cant wait tonight love love love eurovision'
p1232
aS'vote fave network screens awesome'
p1233
aS'eurovision parties tonight tomorrow night'
p1234
aS'great montgomery'
p1235
ag115
aS'best'
p1236
aS'breaking ange postecoglou confirms lucas neill wont australias world squad'
p1237
aS'cant believe didnt spinning around kylies chair song someone needs fired yesterday'
p1238
aS'start hashtag badgerthefucktard'
p1239
aS'second stana outstanding'
p1240
aS'holy snappin duckshit brilliant episode castle'
p1241
aS'theyd nothing whinge bitch moan'
p1242
aS'links castle veritas download'
p1243
aS'long exposure photo lightning bolt hitting tree photo darren pearson'
p1244
aS'best headline ever news take packer gyngell wants beat millionaire'
p1245
aS'glad caught bastard look evil furry little face'
p1246
aS'cant wait'
p1247
aS'crescent shaped birthmark didnt coming'
p1248
aS'right cant leave hanging like'
p1249
aS'theyll away'
p1250
aS'definitely need teasing tweets continue'
p1251
aS'awesome'
p1252
aS'good'
p1253
aS'hurry watch someone gush'
p1254
aS'gosh dont want spoilerise ending needs season'
p1255
aS'dont worry wont anything else except holy crap'
p1256
aS'cant wait except nearly finale time'
p1257
aS'watched finale resurrection'
p1258
aS'wont able watch till least tonight\xf0\x9f\x98\x93\xf0\x9f\x98\x93\xf0\x9f\x98\x93'
p1259
asS'2014_14'
p1260
(lp1261
S'dicks dick surprise'
p1262
aS'table classssssssssh next friday going bite justin hodges'
p1263
aS'moment havent twitter course couldnt dick free deets'
p1264
aS'everyone gasps surprise enter sometimes good though'
p1265
aS'burn true superhero'
p1266
aS'good dont need entrance music presence enough'
p1267
aS'told superhero'
p1268
aS'watched movies hahaha'
p1269
aS'superhero'
p1270
aS'even back victorious'
p1271
aS'scared dude look'
p1272
aS'still time wait'
p1273
aS'fair sumit'
p1274
aS'know something dont know hahahahaha'
p1275
aS'losers competitors look gunning'
p1276
aS'theyre trying kill'
p1277
aS'could taken many ways'
p1278
aS'going physio later'
p1279
aS'forgot name hahaha'
p1280
aS'yeah heaps better working today'
p1281
aS'keeping everyone toes'
p1282
aS'changed name times last night'
p1283
aS'true cool kids queensland'
p1284
aS'nope didnt drink'
p1285
aS'installed windows laptop every episode castle sure asian subtitles great quality still'
p1286
aS'giselle found twitter followed great today show'
p1287
aS'yesterday wifis name hack checked today called challenge accepted'
p1288
aS'ever seen gangster kangaroo'
p1289
aS'moments mostly inconvenient'
p1290
aS'fucked whole mind castle'
p1291
aS'sore work issues back'
p1292
aS'partner homme footy soon'
p1293
aS'groans nearly hours'
p1294
aS'goodnight'
p1295
aS'soon'
p1296
aS'cant come soon enough'
p1297
aS'looking wary'
p1298
aS'proof purchase hahaha'
p1299
ag115
ag115
aS'shes hoover everythingwell'
p1300
aS'aahh times'
p1301
aS'true although wasnt days'
p1302
aS'talking uuugggghhhh'
p1303
aS'peer pressure kirstie'
p1304
aS'long hours work toooldforwork'
p1305
aS'tried even didnt like'
p1306
ag115
aS'truly horrible'
p1307
aS'nice name change'
p1308
aS'thought meant sweet potato beetroot crisps'
p1309
aS'dont theyre gross'
p1310
aS'late vegie tweets start'
p1311
aS'plays well broncos'
p1312
aS'hurts jhayne good player'
p1313
aS'squeal sees'
p1314
aS'jhayne gravysandow played great'
p1315
aS'couldnt hold ball thats refs fault'
p1316
aS'venting played better refs'
p1317
aS'yeah stopped looking'
p1318
aS'lose effin blind refs fault'
p1319
aS'stopped fans selfie retweetathon hopefully thats finished'
p1320
aS'sorry tamjones'
p1321
aS'stop following head'
p1322
asS'2014_15'
p1323
(lp1324
S'happy birthday great'
p1325
aS'weathermen'
p1326
aS'brisbane show easter sunday free entry ages sheppard geronimo'
p1327
aS'adam lambert whataya want'
p1328
aS'hahaha holidays arent holidays thanks workgreen holiday official video'
p1329
aS'work sucks knowblink182 small things'
p1330
aS'back hahaha'
p1331
aS'eeaways gentle weeks headline'
p1332
aS'weeks winning headline take note donkeys quote'
p1333
aS'referring'
p1334
aS'thats beautiful'
p1335
aS'hope people bought steve chantelles apartment good renovating theblockauction theblock'
p1336
aS'spoiler alert block shock apartments hammer record theblock'
p1337
aS'shoutout'
p1338
aS'kyal kara deserved apartment much better fuck'
p1339
aS'glad contiki tourists crashed chantelle steve block'
p1340
aS'hows life looking holy crap cannot believe theyve'
p1341
aS'nice dislike much dick'
p1342
aS'chloe kellys many world travels mustve visited denial land'
p1343
aS'turd curd contikistorytellers contikiscrags chloekellyarebogans'
p1344
aS'cool half million'
p1345
aS'back watching globetrotters failing time laughed choc split using metal fork'
p1346
aS'give dozen monkeys dozen typewriters sooner later theyll punch script broke girls'
p1347
aS'chantelle steve chance beating'
p1348
aS'somehow dont think chantelle steve beat twins'
p1349
aS'cannot believe'
p1350
aS'twice three times truffle truffled truffle truffle cream dessert'
p1351
aS'time vienetta girls'
p1352
aS'trouble truffled truffles hahaha'
p1353
aS'totally glad theyre stuffing hahaha'
p1354
aS'channel surfing time block finale'
p1355
aS'still dont know chloe kelly dont care'
p1356
aS'looks like moll left arms'
p1357
aS'loved twins last series series theyre annoying'
p1358
aS'hope boys think super might'
p1359
ag115
aS'updated tropical cyclone itas path forecast make landfall friday category four system 9newsat6'
p1360
aS'think national crazies loose today local shops holy crap'
p1361
aS'theyre steve chantelle'
p1362
aS'loved twins last series series'
p1363
aS'breaking news thorpe could lose left'
p1364
aS'dude dont watch news next weeks'
p1365
aS'agree'
p1366
aS'hahaha stana tweets everyones going nuts trying analyse'
p1367
aS'quoted time weve already busy didnt want function peeps'
p1368
aS'woohoo missed major function friday hour work'
p1369
aS'slap face current stars'
p1370
aS'incessant 1am2am tweets shoul work'
p1371
aS'isnt whos name first'
p1372
aS'keep tweeting nadine time night'
p1373
aS'least beat sumit wait wasnt'
p1374
aS'medical help burn'
p1375
aS'never seen'
p1376
aS'thats mean wasnt crap enough'
p1377
aS'awesome something whoop whoop'
p1378
aS'thats going come brisbane'
p1379
aS'wait arrive'
p1380
aS'well miss relive best moments tonight tonight theprojecttv byech\xe2\x80\xa6'
p1381
aS'sheppard geronimo official lyric video'
p1382
aS'chandelier lyrics screen'
p1383
aS'breaking star robert hughes found guilty first eleven child charges'
p1384
aS'nnnnooooo'
p1385
asS'2014_16'
p1386
(lp1387
S'dammit officer fuzzybum every time pull paperwork gets backed weeks'
p1388
aS'thanks kirstie'
p1389
aS'anyone photo shocked coffee ohhang found'
p1390
ag115
aS'congrats'
p1391
aS'priceless'
p1392
aS'yeah dude boys played great tonight'
p1393
aS'parker mccullough hoffmanannndd nrlnewbri'
p1394
aS'congrats broncos tonight totally whipping knights'
p1395
aS'finally bronxnation'
p1396
aS'theyre playing good tonight bronxnation'
p1397
aS'great easter'
p1398
aS'todays headline'
p1399
aS'theyve gotta stop killing good health'
p1400
aS'woke check'
p1401
aS'working public holidays working sites mine'
p1402
aS'really theres elsea managers away sick injured working hour days weekends'
p1403
aS'sposed week next days back work tomorrow'
p1404
aS'good work crap noholidaysnowuntildecember sucks'
p1405
aS'hahaha funny theyre awful twitter hiatus moment real life getting'
p1406
aS'dear stop tweeting youre killing'
p1407
aS'actually busy today'
p1408
aS'resuscitated dead hope keep tweeting'
p1409
aS'ofarrell 2014 vintage 10pm'
p1410
aS'lucky heart exploded died'
p1411
aS'right world tweeting'
p1412
aS'keep twitter secret years heart scully whats'
p1413
aS'heart scully swooning'
p1414
aS'wait tweet back'
p1415
aS'getup campaigns cuts abctv'
p1416
aS'find initiative theprojecttv'
p1417
aS'powerful advertisementchrissie ampletti touch breast cancer anthem itouchmyse\xe2\x80\xa6'
p1418
aS'finished watching todays'
p1419
aS'start knew evil wait later'
p1420
aS'wait helen'
p1421
aS'done'
p1422
aS'geronimo video clip live like favour please share happy monday'
p1423
asS'2014_17'
p1424
(lp1425
S'help trapped phone'
p1426
aS'dont stress come'
p1427
aS'still nightmares'
p1428
aS'shudders still trying bleach brain'
p1429
aS'take spoilers sneak peeks make opinion fact'
p1430
aS'thats alright'
p1431
aS'still havent wont rewatch'
p1432
aS'thing'
p1433
aS'please dont detective alexis adventures couldnt handle'
p1434
aS'mums crook recently shes fighter shes strong unless shock killed gold logie'
p1435
aS'used castle spoilers stopped detective alexis adventures episodes'
p1436
aS'trying sound australian'
p1437
aS'kylie coming bringing back scott charlene feels'
p1438
aS'like molly dying country practice'
p1439
aS'years watching logies'
p1440
aS'need less hours aaaggghhh'
p1441
aS'yeah past bedtime'
p1442
aS'networks realised cheap reality shows produce instead shows'
p1443
aS'still cant believe werent nominated'
p1444
aS'yeah tweeted fucking hilarious kate marty would love'
p1445
aS'remember getting posting choices long long time'
p1446
aS'cash sunrise hahaha'
p1447
aS'nomination katut rigged'
p1448
aS'katut nominated category'
p1449
aS'wasnt nominated instead'
p1450
aS'normally star spotterbut logies'
p1451
aS'funny'
p1452
aS'adam richard tweeting hilarious'
p1453
aS'inside tweeting'
p1454
aS'watching logies anymore watching castle instead rigged feels'
p1455
aS'wait till today show morning'
p1456
aS'wheres katut'
p1457
aS'smug bitchy molls cant cook grand final fuckinrigged'
p1458
aS'also presenters arent funny start drinking'
p1459
aS'well smashed oclock'
p1460
aS'friend said know pete manu dessert chloe kelly'
p1461
aS'manu loved main said dessert perfect gives fyou pete'
p1462
aS'lets hope logies arent rigged like'
p1463
aS'totally agree molls always point rigged'
p1464
aS'contiki tourists manage always scrape point rigged'
p1465
aS'fucking rigged'
p1466
aS'accompaniments fish'
p1467
aS'judges said anything bones fish'
p1468
aS'cough rigged cough'
p1469
aS'cant believe rigged'
p1470
aS'like song theyre using promo'
p1471
aS'contiki tourists tonight never watching show'
p1472
aS'straight premiership rounds origins internationals'
p1473
aS'time year anyone cares club team origin'
p1474
aS'might need long socks nighttime'
p1475
aS'dude socks dont come till july'
p1476
aS'cheers even site stock take site billing invoicing times'
p1477
aS'working sunday'
p1478
aS'dont really want trip tomorrow'
p1479
aS'gosh faves growing'
p1480
aS'congrats guyswell deserved'
p1481
aS'charts weeks running thank australia'
p1482
aS'cheers sumit'
p1483
aS'dont think broncos supporters tell cops anything'
p1484
aS'didnt understand word burgess said translatorplease'
p1485
aS'fucking weirdo hairdo'
p1486
aS'robbed urgent please clear appointments monday names atkins badger than\xe2\x80\xa6'
p1487
aS'cheers'
p1488
aS'christ weve'
p1489
aS'macca'
p1490
aS'cheers'
p1491
aS'could erase opening minutes'
p1492
aS'sure broncs played first thought hiding'
p1493
aS'change game undergone mins simply wants lead'
p1494
aS'hunt slots conversion left posts broncos lead broncos rabbitohs'
p1495
aS'take back previous tweets broncos sorry lads'
p1496
aS'freak'
p1497
aS'hahaha held onto ball needs superglue hands'
p1498
aS'absolute fluke'
p1499
aS'awesome'
p1500
aS'need carton beer game'
p1501
aS'finally good macca'
p1502
aS'comforting thought maroons jersey weeks'
p1503
aS'horrendous defence broncos'
p1504
aS'hate need someone stat'
p1505
aS'fucking kidding broncos'
p1506
aS'dont kick'
p1507
aS'nope lost ball'
p1508
aS'least queenslander'
p1509
aS'catching ball tryline'
p1510
aS'fuck going'
p1511
aS'ffffuuuccckkk'
p1512
aS'fuck picked mate hodgo'
p1513
aS'dragons didnt play'
p1514
aS'reckon declare otherwise going long night'
p1515
aS'refs restart game werent ready'
p1516
aS'almost hadley hahaha'
p1517
aS'kelsey'
p1518
ag115
aS'separating fact fiction anzac learn truth common anzac myths'
p1519
aS'youre home early'
p1520
aS'white stripesseven nation army'
p1521
aS'come great weather like southerners'
p1522
aS'kettle'
p1523
aS'heat source'
p1524
aS'queensland temp freezing'
p1525
aS'tshirts night sleeveless tops winter'
p1526
aS'whats winter coat never heard'
p1527
aS'last nighthad blankets'
p1528
aS'temp winter'
p1529
aS'forecast next days well winters coming'
p1530
aS'chilly today bbbrrr'
p1531
aS'come better weather'
p1532
aS'kitchen rules final four teams revealed spoiler alert'
p1533
aS'agreedthey uneducated molestheyre still show ratings purposes stand'
p1534
aS'still dont know chloe kelly cant stand equally'
p1535
ag115
aS'much cuteness'
p1536
aS'gillian davidstop tweeting trouble breathing'
p1537
aS'fuck death'
p1538
aS'icymi performs geronimo'
p1539
aS'crappy work tweets made'
p1540
aS'ovaries gonna explode keep tweeting like'
p1541
aS'westpac back mins life spent line waiting served'
p1542
aS'work omfg'
p1543
aS'long foreshadowing relates something happening'
p1544
aS'margery ring boss going today tell family issues shits something'
p1545
aS'show torrent watch online bitshare castle'
p1546
aS'links castle show download'
p1547
ag115
aS'full story manly star brett stewart fails random breath test'
p1548
asS'2014_43'
p1549
(lp1550
S'hear told staff appointment date'
p1551
aS'tuesday 11th november work castle'
p1552
aS'mmmmm'
p1553
ag115
aS'beckett kiss'
p1554
aS'names willy'
p1555
aS'stay'
p1556
aS'superb editing'
p1557
aS'captain montgomery'
p1558
aS'beckett calling'
p1559
aS'still scene'
p1560
aS'know turned'
p1561
aS'love theories'
p1562
aS'love talking unison'
p1563
aS'morning'
p1564
aS'always next list'
p1565
aS'prototype bomb disposal robot'
p1566
aS'sounds good'
p1567
aS'boys stop listening keep arguing'
p1568
aS'hilarious'
p1569
aS'need rewatch list'
p1570
aS'forgot many times castle'
p1571
aS'live section'
p1572
aS'love song'
p1573
aS'wouldnt mind bomb buddy'
p1574
aS'comes angrylittleman espo'
p1575
aS'hmmm lawyer going successful careernot'
p1576
aS'fave'
p1577
aS'cant help putting things mouth'
p1578
aS'please lets stick'
p1579
aS'kbecks dizzying array hairstyles'
p1580
aS'montage'
p1581
aS'amazing dialogue'
p1582
aS'gates pretty determined'
p1583
aS'captain mahoney'
p1584
aS'love optimistic castle'
p1585
aS'seen'
p1586
aS'read fiction books'
p1587
aS'look good'
p1588
aS'love opening scene'
p1589
aS'know ready castle still'
p1590
aS'rewatch fave everyones'
p1591
aS'although still dont like couple scenes know ones'
p1592
aS'liked times watched'
p1593
aS'incredibly humbled announced queensland australian year aussie kids lets keep'
p1594
aS'thanks kelsey great weekend'
p1595
aS'best call little shit without actually calling little shit'
p1596
aS'year becomes nemesis'
p1597
aS'hhmm'
p1598
aS'still doesnt look like castle'
p1599
aS'tonight anytime'
p1600
aS'dude shouldve told watching still awake'
p1601
aS'least seen weeks castle'
p1602
aS'amazing performance soproud'
p1603
aS'still believe life sentence life taken'
p1604
aS'couldnt agree gail'
p1605
aS'reminded injustice poor sweet potato endured peeled correctly'
p1606
aS'yeah thats remembered looking done professional sweet potato peeler'
p1607
aS'look like'
p1608
aS'long youve peeled properly sweetpotatohater'
p1609
aS'youve gotta watch resurrection freaky'
p1610
asS'2014_42'
p1611
(lp1612
S'definitely weve massive week work week long days goodnight'
p1613
aS'wish could stay watch need work hours sleep'
p1614
aS'trying remember score used'
p1615
aS'shouldve asked castle'
p1616
aS'love kbecks outfit'
p1617
aS'hahaha getting absorbed tweet'
p1618
ag115
aS'waiting blue dinghy'
p1619
aS'another great caskett scene'
p1620
aS'forgotten many great linesscenes'
p1621
aS'boys castle'
p1622
aS'scene'
p1623
aS'always billy piper character name throwback british star'
p1624
aS'love caskett scene'
p1625
aS'agree dftalexis bore'
p1626
aS'best lines ever'
p1627
aS'kbecks white shirtmmmm'
p1628
aS'jacket castle wore start clearandpresentdanger'
p1629
aS'scene boysfricken hilarious'
p1630
aS'love snarky beckett'
p1631
aS'troublesome wifeimagine pmsl'
p1632
aS'kbecks locks changed'
p1633
aS'playing castle'
p1634
aS'except probable cause'
p1635
aS'maybe right course right classic lainie'
p1636
aS'pmsl lainie giving advice'
p1637
aS'known stupid things comes wives'
p1638
aS'call javier'
p1639
aS'gosh havent watched monthsstill love'
p1640
aS'hahaha lainie scene'
p1641
aS'gave look'
p1642
aS'comes'
p1643
aS'long alexis doesnt next happy'
p1644
aS'espo isnt angrylittleman good character'
p1645
aS'weve missed mind melds'
p1646
aS'need someone rewatch time'
p1647
aS'especially awesome castle clearandpresentdanger'
p1648
aS'music scene funny'
p1649
aS'tory still looking happy'
p1650
aS'castle scene feds'
p1651
aS'love says hello pmsl'
p1652
aS'think shes hilariousshe doesnt actually anything phone boom feebs guns turn'
p1653
aS'love jacket think speaks whole fandom castle clearandpresentdanger'
p1654
aS'needs take happy lessons ladythe worlds cheeriest receptionist'
p1655
aS'married dont wear body glitter castle clearandpresentdanger'
p1656
aS'look becketts face finishes trap'
p1657
aS'woohoo fave scene ever castle clearandpresentdanger'
p1658
aS'realised alexis wasnt booked holiday'
p1659
aS'true realfanswaitforhiatustoholiday'
p1660
aS'constantly smilinglaughing throughout much castle clearandpresentdanger'
p1661
aS'true needs holidays castle watch notjealouswehavecastle'
p1662
aS'cant stop loling castle apartment scene castle clearandpresentdanger'
p1663
aS'pissed shes missing rewatches'
p1664
aS'always remember cuttlefish lady castle clearandpresentdanger'
p1665
aS'look beckett passing castle saying'
p1666
ag115
aS'beckett getting pissy evidence room'
p1667
aS'castle said inventor hutch millionaire espo mouths castle'
p1668
aS'neither igood call'
p1669
aS'look castle gives beckett observation room castle clearandpresentdanger'
p1670
aS'ryan bean burritos castle clearandpresentdanger'
p1671
ag115
ag115
aS'tell significant others'
p1672
aS'woohoo xfactor finishing watch time'
p1673
aS'castle wall becketts really thinks'
p1674
aS'look give castle clearandpresentdanger'
p1675
aS'paused many times call list check names'
p1676
aS'deep fried twinkie'
p1677
aS'rerun airs'
p1678
aS'castle ever time watching'
p1679
aS'totally'
p1680
aS'freaky scientist lady castle clearandpresentdanger'
p1681
aS'love wellhello'
p1682
aS'dude must speed theyre quicker puter'
p1683
aS'love receptionist cheery castle clearandpresentdanger'
p1684
aS'love becketts jacket castle clearandpresentdanger'
p1685
aS'still think scene martha funniest ever history castle clearandpresentdanger'
p1686
aS'martha pmsl every time castle clearandpresentdanger'
p1687
aS'glasses iced water ready castle clearandpresentdanger'
p1688
aS'castle getting smashed head invisible castle clearandpresentdanger'
p1689
aS'invisible goose castle clearandpresentdanger'
p1690
aS'thought'
p1691
aS'cuttlefish dont like funny castle clearandpresentdanger'
p1692
aS'less minutes away yesiamobessedwithit castle clearandpresentdanger'
p1693
aS'collapsed foam castle clearandpresentdanger'
p1694
aS'weve missed last weeks'
p1695
aS'castle behind beckett castle clearandpresentdanger'
p1696
aS'know cant enough epso love castle clearandpresentdanger'
p1697
aS'jacket like castle castle clearandpresentdanger'
p1698
aS'castles lainie'
p1699
aS'pick phone castle clearandpresentdanger'
p1700
aS'scene castle clearandpresentdanger'
p1701
aS'maybe lainie joins'
p1702
aS'seen least times still scene every time'
p1703
aS'angrylittleman espo rubbing ways'
p1704
aS'like jacket later black casual'
p1705
aS'sshhh spoiler'
p1706
aS'always'
p1707
aS'love castle casually listening boys convo castle clearandpresentdanger'
p1708
aS'weeks cockblock brought phone call castle clearandpresentdanger'
p1709
aS'want font castle clearandpresentdanger'
p1710
aS'sweet know play'
p1711
aS'pmsl nice'
p1712
aS'maybe whole holiday spent dling'
p1713
aS'make work office using wifi'
p1714
aS'priorities rightholiday castle sunday'
p1715
aS'sure wifi castle tuesday'
p1716
aS'dont need youll vacationing whilst rest working'
p1717
ag115
aS'confirmed jarryd hayne says officially announce heading pursue opportunity play'
p1718
aS'woohoo booked 11th november work'
p1719
aS'finale always take premiere finale'
p1720
aS'stay safe looks like rain'
p1721
aS'remember took'
p1722
aS'well going crap used sick'
p1723
aS'thanks heads boss already knows tuesday absence castle related'
p1724
aS'goodo work'
p1725
aS'weeks sick leave owing used heaps year'
p1726
aS'sure could convince doctor suffering work related stress'
p1727
aS'cough sick cough'
p1728
aS'leave request tomorrow'
p1729
aS'know airdate gotta plan'
p1730
aS'lets take'
p1731
aS'much funim jealous everyone effing work'
p1732
aS'going monday thursday work castle dont much sleep hahaha'
p1733
aS'love'
p1734
aS'sounds good'
p1735
aS'oops forgot going away talked hours'
p1736
aS'means 1030 knowing likes keep program times'
p1737
aS'yeah labeled espo angrylittleman season'
p1738
aS'hopefully well find season'
p1739
aS'always sunday night rewatch'
p1740
aS'maybe ryan daughters schooling'
p1741
aS'well usually theyve layers clothes scenes'
p1742
aS'wish smoking scene'
p1743
aS'maybe imagining ryan string'
p1744
aS'maybe thats payoff alexis'
p1745
aS'look'
p1746
aS'tory theres something shifty'
p1747
aS'suddenly theyll start disappearing back chair hahaha'
p1748
aS'love perfection'
p1749
aS'freaky scientist alert'
p1750
aS'love jacket funny'
p1751
aS'worlds cheerieat receptionist alert funny'
p1752
aS'angrylittleman espo alert'
p1753
aS'martha screams fucking hilarious'
p1754
aS'another throwback beckett blowing hair face'
p1755
aS'better turn getting'
p1756
aS'guess whats next'
p1757
aS'gates knows something'
p1758
aS'pmsl castle getting beat invisible'
p1759
aS'engagement ringtheres ringgone back'
p1760
aS'another throwback'
p1761
aS'cuttlefish dont like'
p1762
aS'collapsed foam'
p1763
aS'clearly killer invisible'
p1764
aS'castle walking wikipedia'
p1765
aS'jiggys scene coulda shorter'
p1766
aS'getting jiggy'
p1767
aS'ryan bean burritos becketts look\xf0\x9f\x98\x86\xf0\x9f\x98\x86\xf0\x9f\x98\x86'
p1768
aS'oohh caskett theorising'
p1769
aS'tory must hanging espo muchshes looking angry'
p1770
aS'scene goes long'
p1771
aS'nerdy castle'
p1772
aS'back real world'
p1773
aS'castle subtlety listening ryan espo hahaha'
p1774
aS'castle'
p1775
aS'everyones readyjust font already'
p1776
aS'throwback'
p1777
aS'play'
p1778
aS'paused ready'
p1779
aS'weve dming sure'
p1780
aS'twin tweet happening'
p1781
aS'laugh hard'
p1782
aS'already sent'
p1783
ag115
aS'said earlier think funniest scene ever'
p1784
aS'yeah missing little'
p1785
aS'laugh thinking scream effin hilarious'
p1786
aS'season awesome'
p1787
aS'still excited sleepthats time good'
p1788
aS'agree'
p1789
aS'good'
p1790
aS'many great scenes chemistrywow'
p1791
aS'restrain tonight'
p1792
aS'goodo rewatch'
p1793
aS'going mins'
p1794
ag115
aS'watched todays friggin awesome funny casketty goodness'
p1795
aS'massive kudos todays castle'
p1796
aS'tweet could taken many ways'
p1797
aS'goodloved'
p1798
aS'still laughing scene'
p1799
aS'avicii days lyric video'
p1800
aS'carl revenge like'
p1801
aS'carls dick'
p1802
aS'know hahaha'
p1803
aS'watch resurrection'
p1804
aS'woohoo'
p1805
asS'2014_41'
p1806
(lp1807
S'miley performed front opera house looking like fell vinnie\xe2\x80\x99s'
p1808
aS'looks great'
p1809
ag115
aS'holy crapthats awesome'
p1810
aS'another'
p1811
aS'didnt'
p1812
aS'goodnight'
p1813
aS'amazing much theyve changed years'
p1814
aS'santa dead castle secretsanta'
p1815
aS'scene castle montreal'
p1816
aS'porn alert castle montreal'
p1817
aS'twins'
p1818
aS'hope find season castle montreal'
p1819
aS'reminds xfiles'
p1820
aS'shes dibber dobber'
p1821
aS'ohcastle gone'
p1822
aS'hang talking kirsties'
p1823
aS'photo'
p1824
aS'mmmmm royal'
p1825
aS'especially gggrrr cockblocked'
p1826
aS'heartbreaking scene beckett watching video tape castle montreal'
p1827
aS'ryan said cmon talking espo'
p1828
aS'thinking thing'
p1829
aS'eeww kiss scene'
p1830
aS'spaceship'
p1831
aS'something shady bank manager castle montreal'
p1832
aS'going tweet'
p1833
aS'funny castle montreal'
p1834
ag115
ag115
aS'skybluedingy spaceship'
p1835
aS'start finish'
p1836
aS'well alexis gets screen time'
p1837
aS'first skybluedingy wallywillager'
p1838
aS'colour blind work experience makeup'
p1839
aS'freaky'
p1840
aS'teenie weenie'
p1841
aS'espo still angrylittleman'
p1842
aS'pimping skybluedingy'
p1843
aS'thats great lines going start using castle montreal'
p1844
aS'maybe shes moved hair makeup looking alexis season'
p1845
aS'getting distracted watching feed screen'
p1846
aS'colour blind work experience'
p1847
ag115
aS'sent skybluedingy look'
p1848
aS'martha picking guys grief counseling meetings'
p1849
aS'beckett heartbreaking scene lainie'
p1850
aS'castle sent timeout castle montreal'
p1851
aS'send search party skybluedingy look'
p1852
aS'nods head'
p1853
aS'toys castle easily distracted'
p1854
aS'eeewww gates getting action castle castle montreal'
p1855
aS'thought watched'
p1856
aS'mean amnesiareally shut bitch castle montreal'
p1857
aS'pushy castle montreal'
p1858
aS'loved'
p1859
aS'know starts'
p1860
aS'espo still angrylittleman'
p1861
aS'strong scene castle driven'
p1862
aS'wants believe castle driven'
p1863
aS'well whos dated several rabbit boilers safely castle'
p1864
aS'beckett pissed castle driven'
p1865
aS'dinghy dinghydinghydinghy sure episode castle driven'
p1866
aS'pissed espo time'
p1867
aS'oohh becketts pissed castle'
p1868
aS'angrylittleman espo'
p1869
aS'wouldnt like pitched tent castle driven'
p1870
aS'castle late'
p1871
aS'phone cant keep tweets castlesunday'
p1872
aS'lainie looking pink scrubs'
p1873
aS'skybluedingy skybluedingy'
p1874
aS'angrylittleman espo gggrrr castle driven'
p1875
aS'loved examining castle castle driven'
p1876
aS'ruined alexis castle driven'
p1877
aS'hospital'
p1878
ag115
aS'think break long'
p1879
aS'didnt tell back break'
p1880
aS'woohoo starting'
p1881
aS'angrylittleman'
p1882
aS'knows cause wearing clothes'
p1883
aS'thats gross nochanceespo'
p1884
aS'psst'
p1885
aS'lolshut espo angry little castle driven'
p1886
aS'tech expert tory castle driven'
p1887
aS'talking coffee yeah'
p1888
aS'vinnie castle driven'
p1889
aS'oops'
p1890
aS'effing espo'
p1891
aS'shows cancelled'
p1892
aS'excellent start seasonyoull enjoy'
p1893
aS'thats montreal'
p1894
aS'sneaky agent castle driven'
p1895
aS'really badass beckett castle driven'
p1896
aS'waiting happens'
p1897
aS'boom badass beckett'
p1898
aS'dont ruin story logic'
p1899
aS'crap'
p1900
aS'beckett hair'
p1901
aS'lainie drives beckett back'
p1902
ag115
aS'alexis reaction castle driven'
p1903
aS'playing'
p1904
aS'aussies nearly time season premiere castle repeat'
p1905
aS'push play know'
p1906
aS'10pm start'
p1907
aS'behind scheduled start time guys south'
p1908
aS'looks like might rewatch'
p1909
aS'waiting guys tell finished could press play hahaha'
p1910
aS'butts castle shouldnt late qldjust south'
p1911
aS'reason daylight savings mexicans keep spoiling bloody shows twitter'
p1912
aS'hour behind youim going'
p1913
aS'excited'
p1914
aS'probs mary'
p1915
aS'evening guyswhos castle tonight'
p1916
aS'great news'
p1917
aS'yeah still beckett married rogan stupidstoryline'
p1918
aS'finale disjointed episode'
p1919
aS'couldve easily included tick boom list well'
p1920
aS'sending positive vibes'
p1921
aS'friday night crackup tickles funny bone crackup mentalas'
p1922
aS'still'
p1923
aS'yeplove'
p1924
aS'nahwell probs epit hard narrow list ones'
p1925
aS'good choicesmine keeps changing 1016225225193244234074105043xk'
p1926
aS'return mike mooreeffing funny'
p1927
aS'mins show hereits hilarious mentalas crackup'
p1928
aS'listdo think pick confer'
p1929
aS'picking fave castle'
p1930
aS'started thinking chatted afternoon'
p1931
aS'narrowed list gutted leave'
p1932
aS'narrow list fave pick'
p1933
aS'kirstiewere thinking doesnt uswell pick fave epeps watch togetheryou'
p1934
aS'congrats guyslove'
p1935
aS'many times watched'
p1936
aS'youll wear cream container head eyes drawn'
p1937
aS'thats australian saying ever'
p1938
aS'thats hilarious'
p1939
aS'kirstie nutjob followersi youve changed name back'
p1940
aS'rewatch tonight'
p1941
aS'nice'
p1942
aS'finally turned laptop thinking cranking'
p1943
aS'still hyped montreal sleep'
p1944
aS'every time watch fall love itwant watch need'
p1945
aS'dammit wish didnt work tomorrow double tomorrow'
p1946
aS'thinking watching need sleep hahaha'
p1947
aS'well written scene'
p1948
aS'rewatch check torture rewatching'
p1949
aS'earlier answered phone said ellis didnt'
p1950
aS'sprayed jeans'
p1951
aS'actually watch castle cotw silly'
p1952
aS'thats checked everyones outfits'
p1953
aS'never paid attention case'
p1954
aS'nice jacket work experience girl must allowed dress'
p1955
aS'wonder actor worried close junk hahaha'
p1956
aS'love whole scene superbly acted'
p1957
aS'feels'
p1958
aS'kate scene'
p1959
aS'needs learn knot ryans tighter'
p1960
ag115
aS'colour blind work experience wardrobe also alexis nails'
p1961
aS'four'
p1962
aS'think change names'
p1963
aS'promise never alone targethunt'
p1964
aS'gets around though'
p1965
aS'work phone company wouldnt'
p1966
aS'well castle kissed gates well'
p1967
aS'everyone looks good epexcept alexis hair'
p1968
aS'already dont follow'
p1969
aS'thats hilarious'
p1970
aS'martha grief counseling hookups'
p1971
aS'love kate lainie scene'
p1972
aS'name week instead skybluedingy'
p1973
aS'still hilarious'
p1974
aS'need every castle tuesday work today hard'
p1975
aS'ryans tartan later'
p1976
aS'another 11hour tomorrow'
p1977
aS'think love driven'
p1978
aS'twist'
p1979
aS'totally agree'
p1980
aS'porn alert'
p1981
aS'scene'
p1982
aS'questions still'
p1983
aS'bloody tech peepscant trust'
p1984
aS'castle didnt'
p1985
aS'dude call beckett seriously'
p1986
aS'ryan mustve trained cockblock'
p1987
ag115
aS'powerful scene'
p1988
aS'noticed watch'
p1989
aS'thinks knows something nospoiler'
p1990
ag115
aS'becketts address isnt loft'
p1991
aS'bank manager seems shifty'
p1992
aS'nice'
p1993
aS'distracted hair every scene'
p1994
aS'grown begs'
p1995
aS'alexis hair alert'
p1996
ag115
aS'many times wally willager'
p1997
ag115
aS'castles reaction beckett'
p1998
aS'pmsl funny turn scene took'
p1999
aS'isnt'
p2000
aS'laugh hard martha scene'
p2001
aS'martha love'
p2002
aS'cause would cockblocked cockblocked cockblocked'
p2003
aS'funny love'
p2004
aS'love kate lainie scenes'
p2005
aS'love ringtone'
p2006
aS'eyes eyes cant unsee'
p2007
aS'hahaha scene funny'
p2008
aS'gates castle'
p2009
aS'wait scenes phone call hahaha'
p2010
aS'esplainie'
p2011
aS'getting pissed'
p2012
aS'going'
p2013
aS'tweet think wouldve seen'
p2014
aS'twins'
p2015
aS'yes2015 dont know theyll original though'
p2016
aS'paused 0001'
p2017
aS'dude rewatch together'
p2018
aS'tweeting phone whilst driving'
p2019
aS'tell cops emergency need home castle'
p2020
aS'every light speed fines worth'
p2021
aS'hurry home watch'
p2022
aS'love season already'
p2023
aS'australia also tonight going toetotoe suburban street'
p2024
aS'finished watching youll love'
p2025
aS'great'
p2026
aS'systems castle'
p2027
aS'woohoo happy castle'
p2028
aS'morningchannel airing 7x01 7x02 sunday night'
p2029
aS'yeah theres many brunettes creepy grandma langston'
p2030
aS'totally confused brunettes'
p2031
aS'nadine seen todays resurrection'
p2032
ag115
asS'2014_40'
p2033
(lp2034
S'showing mummy burgess stands'
p2035
aS'money well spent game entertainment'
p2036
aS'normal time guys weirdos changing timezones'
p2037
aS'booooo'
p2038
aS'wait show themwait dvds obtain available'
p2039
aS'hahaha thats hilarious'
p2040
aS'starting release owies excited season'
p2041
aS'utopiaabc dvds stores today giving away limited edition hardhats rtfollow enter'
p2042
aS'happy birthday kirstie \xf0\x9f\x8e\x82\xf0\x9f\x8e\x82\xf0\x9f\x8d\xb9\xf0\x9f\x8d\xbb\xf0\x9f\x8d\xb8hope great'
p2043
aS'happy birthday kelsey awesome'
p2044
aS'aussies castle returning castle'
p2045
ag115
aS'alexis hair alert'
p2046
aS'boom opening'
p2047
aS'sure'
p2048
aS'sounds good'
p2049
aS'ready watch'
p2050
aS'yeah today'
p2051
aS'guys stated'
p2052
aS'season castle starts'
p2053
ag115
aS'great scene'
p2054
aS'supurb episodeone best skip work rest watch castle'
p2055
aS'dont worry watching timeone'
p2056
aS'yestotally'
p2057
aS'great balanced episode doubts confusion belief loved castle'
p2058
aS'hated finale loved'
p2059
aS'finished watching season premiere castle rewatch'
p2060
ag115
aS'good boss'
p2061
aS'sure leaving work'
p2062
aS'happy castle season premiere guys'
p2063
asS'2014_44'
p2064
(lp2065
S'think lainie knew'
p2066
aS'feel veritas rewatch soon'
p2067
aS'soon busy weekend'
p2068
aS'didnt know veritas though asking knew'
p2069
aS'left mine running'
p2070
aS'shes already turn'
p2071
aS'beckett supposed checking package'
p2072
aS'powerful scene'
p2073
aS'totally'
p2074
aS'shave campaign speechesdid meant save'
p2075
ag115
aS'loved episodenot'
p2076
aS'beckett bracken badass beckett'
p2077
aS'angrylittleman espo'
p2078
aS'well guard eric vaughan'
p2079
aS'officer hastings wonder well'
p2080
aS'work experience wardrobe girl didnt iron espos jacket'
p2081
aS'week course make sure'
p2082
aS'would thorough examination behalf'
p2083
aS'check package sure though'
p2084
aS'shouldve thought excusenice'
p2085
aS'appointments'
p2086
aS'love gates castle'
p2087
aS'done years agogood espo'
p2088
aS'carries nail clippers pmsl'
p2089
aS'many funny moments'
p2090
aS'next sunday knockdown knockout'
p2091
aS'watching always storm tonight'
p2092
aS'like walking wikipedia'
p2093
aS'looks lips mmmmm'
p2094
aS'goes funnysexy serious'
p2095
aS'normal'
p2096
aS'shes stalking knows'
p2097
aS'counter pain releivers'
p2098
aS'didnt part'
p2099
aS'martha cockblocker castle afterthestorm'
p2100
aS'wrapped sheet'
p2101
aS'mmmmm great start castle afterthestorm'
p2102
aS'\xe2\x80\x9cthat fing really james graham ausveng'
p2103
ag115
aS'changed discs lining'
p2104
aS'think cause everyone rewinds last mins'
p2105
aS'best episode ever'
p2106
ag115
aS'episode gone quick'
p2107
aS'superb music writing'
p2108
aS'still think sounds like castle'
p2109
aS'love gingers speech'
p2110
aS'keep nnnnooooo'
p2111
aS'superhero strength'
p2112
aS'beckett grunting maddox making sound'
p2113
aS'castle trying tell step back'
p2114
aS'absolutely'
p2115
aS'castle hands especially speech'
p2116
aS'done nnnnooooo'
p2117
aS'lying important thing life'
p2118
aS'strong scene brilliant acting'
p2119
aS'whole scene memorised'
p2120
aS'knows dangerous'
p2121
aS'becketts pissed'
p2122
aS'still trying talk'
p2123
aS'love'
p2124
aS'angrylittleman espo alert'
p2125
aS'ahhh espos jacket'
p2126
aS'hand holding'
p2127
aS'normal intro music'
p2128
aS'noticed'
p2129
aS'montgomerys home'
p2130
aS'love pretty much everything'
p2131
aS'great timing'
p2132
aS'knockdown knockout next sunday'
p2133
aS'gonna tweet time alert'
p2134
aS'love start hanging'
p2135
aS'twitter good paused ready'
p2136
aS'peeps twitter'
p2137
aS'castle nights foreverrevenge blacklist rate better nights'
p2138
aS'always happens aussie castle fanssome knew advance tonight watching always storm'
p2139
aS'hahahalove'
p2140
aS'google klemmer'
p2141
ag115
aS'good youre housework'
p2142
aS'arent ones houseworkstep away facebook twitter kirstie'
p2143
aS'agree mine years brilliant noappleproductsforme'
p2144
aS'sounds right operationstealcastle706'
p2145
aS'waith 1011 share everyone elsedont want spoil'
p2146
aS'gave mothers card'
p2147
aS'look flights weekend operationstealcastle706'
p2148
aS'well make copies everyone else watch 1011'
p2149
aS'supercut scully saying times'
p2150
aS'quite'
p2151
aS'hhhmmm'
p2152
aS'tfif'
p2153
aS'daniel beautiful start'
p2154
aS'happy friday peeps'
p2155
aS'love internet everything lives forever'
p2156
aS'finished work hour catching everything'
p2157
aS'alexis news spoiler'
p2158
aS'boom electricity work blown transformers bludge time'
p2159
aS'yeah monday bought changed schedule'
p2160
aS'sorry nadine meeting read well done loved'
p2161
aS'hooray channel pulls season'
p2162
aS'seriously think family likes'
p2163
aS'fianc\xc3\xa9 stop replaying embarrassing video'
p2164
aS'cant stand twat'
p2165
aS'stop family watching embarrassing catchy webmercial'
p2166
aS'true'
p2167
aS'nope good'
p2168
aS'sounds perfect'
p2169
aS'cant help care livestock curtains'
p2170
aS'good time sunday night'
p2171
aS'stick always storm'
p2172
aS'make sure busy time rewatches'
p2173
aS'yepand dont particularly want rewatch detective alexis adventures either hahaha'
p2174
aS'good suggested though heartbreak hotel'
p2175
aS'dont knowits hardship watching stillnot'
p2176
aS'good thinking twin'
p2177
aS'watching always sunday night seeing channel dicks'
p2178
aS'many times watched weeks today'
p2179
aS'much loved ending still behind martha fave funny scene'
p2180
aS'time ages really loved case'
p2181
aS'love thought great'
p2182
aS'present arent showing anymore season castle'
p2183
aS'dont think anyone couldve predicted endingso freaking funny'
p2184
aS'great serious'
p2185
aS'funnyhave watched scene many times'
p2186
aS'thing ages'
p2187
aS'news'
p2188
aS'aussie castle fans take gone castle'
p2189
aS'pretty good airs today wait weeks'
p2190
ag115
aS'storm season cracker'
p2191
aS'summer arrivedcurrent temperature kitchen'
p2192
asS'2014_29'
p2193
(lp2194
S'understand ratings extant good basically fast tracking itbut disappointed figures castle'
p2195
aS'jeez thats good news'
p2196
aS'numbers wasnt'
p2197
aS'found googled castle coffee cups second site'
p2198
aS'sure staff birthday ordered online'
p2199
aS'hahaha thats perfect though love castle coffee cups maybe work'
p2200
aS'night kirstie time next week'
p2201
aS'grumpy monday mornings know difficult many coffees later'
p2202
aS'given trying staff watch give beckett eyeroll fangirl castle hahaha'
p2203
aS'wasnt smashed kimble'
p2204
aS'fire emotional straight born'
p2205
aS'wish would episodes first jumping straight repeats castle'
p2206
aS'badass beckett castle underfire'
p2207
aS'hahaha alexis still annoys'
p2208
aS'youre going name white irish javier castle underfire'
p2209
aS'tech expert typing properly nearly annoys much alexis annoys hahaha'
p2210
aS'love phone convo ryan jenny castle underfire'
p2211
aS'learn type first'
p2212
aS'ryan mcguyver castle underfire'
p2213
aS'fair love season'
p2214
aS'whatwhy'
p2215
aS'aahh tori tech expert cant type castle underfire'
p2216
aS'bwhat looking forand don\xe2\x80\x99t tell meit\xe2\x80\x99s something completely inappropriate workplace cnonot time'
p2217
aS'break building explosion nearly back'
p2218
aS'feeling building espo ryan castle underfire'
p2219
aS'doesnt look good though'
p2220
aS'\xe2\x80\x98sillier arsonist starts \xe2\x80\x98arse\xe2\x80\x99\xe2\x80\x99 pmsl castle underfire'
p2221
aS'love becketts scene castle underfire'
p2222
aS'cpick date weddingi planning bringing breallywhen thati might plans funny castle'
p2223
aS'castle underfire time australia'
p2224
aS'haha cried heaps watching castle'
p2225
aS'hell yeah fave season castle'
p2226
aS'wasnt awesome suprise packet'
p2227
aS'thats true dont started hating show scheduling'
p2228
aS'think heart attacks happen hahaha'
p2229
aS'decent promo usual half arsed ones dont promote'
p2230
aS'promo prime time happy days'
p2231
aS'tweet longer normal promo'
p2232
aS'beautiful ourabc rebrand features rerecorded version favourite australian song throw arms around'
p2233
aS'morning absolutely loved'
p2234
aS'gross'
p2235
aS'broncos 2822 full match report come nrlbriwar brisbanebroncos'
p2236
aS'gail wrong broncos smash enzedders'
p2237
aS'ugly heart'
p2238
aS'passengers board mh17 according dutch officials dutch australians malaysia indonesia germany'
p2239
aS'fucking staff mondays fridays work wait till weve gone home sayi wont'
p2240
aS'seen intl geronimo album launch'
p2241
aS'also interesting grocery prices drop supposedly rose well'
p2242
aS'cant spoiler free premieresthats rules'
p2243
aS'foggy western suburbs early morning'
p2244
aS'hoping week week work'
p2245
aS'nope'
p2246
aS'fall premieres contd onceuponatime resurrection revenge castle selfieabc manhatt\xe2\x80\xa6'
p2247
aS'staff birthday idea'
p2248
aS'time'
p2249
aS'fantastic news guys need episodes start'
p2250
asS'2014_28'
p2251
(lp2252
S'sigh love'
p2253
aS'another good liner alexis still dont like though castle'
p2254
aS'many great lines moments episode love'
p2255
aS'castle thegoodthebadandthebaby finally right australia best episodes'
p2256
aS'kbecksthats evidence watch balls castle touching castle'
p2257
aS'love whole episode brilliance'
p2258
aS'bloody jarrod hahaha'
p2259
aS'sadly remember'
p2260
aS'psychic castle lotto castle'
p2261
aS'long enough'
p2262
aS'hate working'
p2263
aS'long gone much dislike alexis funniest lines season castle'
p2264
aS'castle beckett babysitting'
p2265
aS'less hours'
p2266
aS'asleep effing late hahaha castle'
p2267
aS'baby high five love castle'
p2268
aS'love lanie castle'
p2269
aS'plus really late longer tweets castle'
p2270
aS'espo hahaha dont wanna hold baby castle'
p2271
aS'tweet castle much easier'
p2272
aS'castle time finally thank'
p2273
aS'thats hilarious funniest moment origin'
p2274
aS'exactlywhen talk someone dont define straight first'
p2275
aS'honestly cares person straight character person important'
p2276
aS'late november wasnt'
p2277
aS'awesome'
p2278
aS'tweet'
p2279
aS'makes feel better'
p2280
aS'sunshine perfect'
p2281
aS'verve bitter sweet symphony'
p2282
aS'blur country house'
p2283
aS'blur parklife'
p2284
aS'oasis wonderwall official video'
p2285
aS'blur song official video'
p2286
aS'need blur'
p2287
aS'good timing oasis dont look back anger radio'
p2288
aS'love song havent heard years'
p2289
aS'tell card pocket could'
p2290
aS'oops thats doodle carrie bickmore carriebickmore theprojecttv carrie'
p2291
aS'doodleofadoodle'
p2292
aS'tried lucas ointment hands dried work works great'
p2293
aS'watched extant awesome start show'
p2294
aS'love episode'
p2295
aS'pretty good thanks family reunion whilst comm games bros flying'
p2296
aS'perfect'
p2297
ag115
aS'would brother last years parents passed away'
p2298
aS'yeah greenock oldies'
p2299
aS'would love dont facebook'
p2300
aS'winter brisbane temps'
p2301
aS'cute hang dear'
p2302
aS'course play fair'
p2303
aS'past bedtime hours'
p2304
ag115
aS'good'
p2305
aS'aggregate yeah'
p2306
aS'though lost series'
p2307
aS'states play dirty cheating grubs'
p2308
aS'quote seinfeld theres anything wrong'
p2309
aS'hate youll need learn hahaha'
p2310
aS'queensland state origin'
p2311
aS'shocked thought games would major news newscasts'
p2312
aS'biased proud state team queensland'
p2313
aS'state origin played queensland south wales'
p2314
aS'well could would untrue'
p2315
aS'queensland team superstars south wales team cheating grubs qlder'
p2316
aS'club comp rickos team north queensland mine broncos game interstate series'
p2317
aS'thats final whistle great game boys qlder'
p2318
aS'origin player rankings journos'
p2319
aS'without grubs hahaha'
p2320
aS'queensland thats state team north queensland club side national comp qlder'
p2321
aS'qlder congrats match qlder'
p2322
aS'hahaha nice true'
p2323
aS'well deserved corey fantastic game champ qlder'
p2324
ag115
aS'give something like club side wins anything every years hahaha'
p2325
aS'corey parker mile qlder'
p2326
aS'even gallens doesnt like'
p2327
aS'blue rinse massive maroon stain tonight origin'
p2328
aS'time super cooper qlder origin'
p2329
aS'another queensland qlder'
p2330
aS'beauty qlder origin'
p2331
aS'nice shot hodgo grub reynolds qlder origin'
p2332
aS'bird acting hurt slow motion funniest thing ever seen sook qlder origin'
p2333
aS'referees'
p2334
aS'qlder fucking time'
p2335
aS'true'
p2336
aS'rynelods biggest grub'
p2337
aS'someone give hayne dummy back cause spat time qlder origin'
p2338
aS'lost bets biff rabs promos nine shows inside first mins'
p2339
aS'rabs hahaha'
p2340
aS'suprised rabs hasnt cross promoted another channel show origin qlder'
p2341
aS'still 10mins'
p2342
aS'5mins'
p2343
aS'saideveryoneever'
p2344
aS'maybe means rabs wont cross promote voice'
p2345
aS'good luck'
p2346
aS'grub paul gallen origin full niggle comedy'
p2347
aS'playing series show means take qlder'
p2348
aS'nine wouldve fine eight still great qlder'
p2349
aS'bbbbrrrr\xe2\x9d\x84\xe2\x9d\x84\xe2\x9d\x84\xe2\x9d\x84'
p2350
aS'probs mins north west mary'
p2351
aS'hours south depending whereabouts lives'
p2352
aS'sure'
p2353
aS'australia youre hook commgames hybpa'
p2354
aS'afternoon worst uniform ever'
p2355
aS'thought next going global scottish commonwealth games uniform'
p2356
aS'forecast next mornings zero might call sick work'
p2357
aS'left work morning effing cold'
p2358
asS'2014_21'
p2359
(lp2360
S'thanks enjoy weekend'
p2361
aS'awkward family photo stopwhitepeople2014'
p2362
aS'best toosoonmeme genius'
p2363
aS'take wine'
p2364
aS'youre york streets make feel brand mice inspire alicia cheese'
p2365
aS'wishstill training room hour drive home'
p2366
aS'finished nearly hour safety coursemy brain officially fried'
p2367
aS'resurrection series finale tonight 845pm backfromthedead mustwatch'
p2368
aS'breaking queenslanders react laurie daleys blues squad announcement fire blues fans stateoforigin'
p2369
aS'brad fittler 18th outing sevens tournament'
p2370
aS'think theyre left havent crack lmfao queenslander'
p2371
aS'loling side named next weeks state origin nineinarow come queenslander'
p2372
aS'simply stunning'
p2373
aS'staff know well bday gift'
p2374
aS'looks like great shownot'
p2375
aS'wasnt really policed'
p2376
aS'strikes cannot internet'
p2377
aS'origin smell queenslander'
p2378
asS'2014_20'
p2379
(lp2380
S'clothing optional'
p2381
aS'dont handle rejection losing well'
p2382
aS'yepi going suck losers thought humble'
p2383
aS'take everyone'
p2384
aS'almost isnt good enough sumittry harder'
p2385
aS'going kept saying friend phonecant effin find'
p2386
aS'could open castle themed care home'
p2387
aS'never seen firefly desire tobut castleim'
p2388
aS'lynn cant read text shes lost reading glasses'
p2389
aS'means play board games bingo dayim'
p2390
aS'nope talking phone time'
p2391
aS'spent mins looking mobile phone realising time'
p2392
aS'wearing time'
p2393
aS'well since weekend sure many naps need'
p2394
aS'cant back first nana'
p2395
aS'still work years till retire though bloody abbott hockey'
p2396
aS'turned wallowing'
p2397
aS'need'
p2398
aS'yeah still dont like first mins episode'
p2399
aS'going back'
p2400
aS'stands thank fuck friday long week work'
p2401
aS'thanks dude apart work good'
p2402
aS'fricken hilarious'
p2403
aS'awake hours still beddont want'
p2404
aS'thanks guys spending birthday weekend sleepingso fricken tired'
p2405
aS'thanks kirstienever advertised birthday except change handle hours'
p2406
aS'yeah days officially'
p2407
aS'thank half timenot cause broncos behindbut break fuckwits hadley gould bronxnation'
p2408
aS'tell itwouldve nice home daylight hours weekstill till'
p2409
aS'finished still work blows'
p2410
aS'fuck schedules hour half meeting friday bright spark'
p2411
aS'cheers sumit great weekend'
p2412
aS'mine nadines theory castle turn returned resurrection great xover'
p2413
aS'thanks kelsey'
p2414
aS'sorry loss'
p2415
aS'llama surfing'
p2416
aS'come guys like signed name stood front endorsing auspol'
p2417
aS'looking forward happens 7x01'
p2418
aS'although detective alexis adventures right'
p2419
aS'amp22 faves season agree grit'
p2420
aS'attention budget2014 therell test morning test cancelled longer afford'
p2421
aS'guys'
p2422
aS'budget means faces funding cuts nearly 120m next four years'
p2423
aS'regret saying'
p2424
aS'hello tech support'
p2425
aS'happier budget handed'
p2426
aS'yeah pissed premise writing'
p2427
aS'pissed took annual leave'
p2428
aS'watched times still nope'
p2429
aS'nadinekelsey heard vent'
p2430
aS'linesscenes good premise kbecks married nope'
p2431
aS'disliked whole episode venting nearly hours'
p2432
aS'talking ending expected'
p2433
aS'agree'
p2434
aS'tell really feel morons'
p2435
aS'season finale shouldve last week veritas wouldve good ending'
p2436
aS'many holes rogankbecks married years thoughwhere wedding license wouldve needed'
p2437
aS'watched early morning still majorly pissed disappointment'
p2438
aS'honestly think worst episode show ever'
p2439
aS'whole episode shitfucked character total crap'
p2440
aS'seen multiple times happy'
p2441
aS'weve started white wines'
p2442
aS'stana deserves emmy every scene'
p2443
aS'like dont know whose idea many times cockblock wedding episode sucked'
p2444
aS'know show many holes believable'
p2445
aS'castle trying find shark jumped totally agree'
p2446
aS'whole felt wronglike lets ignore previous make characters'
p2447
aS'think everyone stunned boat'
p2448
aS'first time pretending season finale veritas never happened'
p2449
aS'watched twice still feel like blah'
p2450
aS'much better first monstrosity dress'
p2451
aS'caskettalways matter till wheels fall'
p2452
aS'everyone needs calm fuck chill people'
p2453
aS'nathan fillion liar lighter episode mate castle'
p2454
aS'pissed entire fandom'
p2455
aS'1135am left work shouldve stayed work castleseasonfinale'
p2456
aS'totally agree fucked ending season'
p2457
aS'fuck wrong many levels'
p2458
ag115
aS'seconded'
p2459
aS'maybe shouldve drinking holy crap'
p2460
aS'fucked ending season\xf0\x9f\x98\xad\xf0\x9f\x98\xad\xf0\x9f\x98\xad\xf0\x9f\x98\xad\xf0\x9f\x98\xad\xf0\x9f\x98\xad\xf0\x9f\x98\x96\xf0\x9f\x98\x96\xf0\x9f\x98\x96\xf0\x9f\x98\x96'
p2461
aS'hhhmmm happy'
p2462
aS'still stunned really finale'
p2463
aS'yeah finished rewatched ending'
p2464
aS'happynot happy'
p2465
aS'whoot whoot watching castle season finale right'
p2466
aS'mins left watching whoot whoot'
p2467
aS'links castle better worse season finale download'
p2468
aS'castle links forbetterorworse seasonfinale'
p2469
aS'weve computers ready search tweet link soon available'
p2470
aS'know'
p2471
aS'dont want spoiled nadine wants'
p2472
aS'hopefully another hour till available hopefully less\xf0\x9f\x98\x81\xf0\x9f\x98\x81\xf0\x9f\x98\x81\xf0\x9f\x98\x81\xf0\x9f\x98\x81\xf0\x9f\x98\x81\xf0\x9f\x98\x81\xf0\x9f\x98\x81\xf0\x9f\x98\x81\xf0\x9f\x98\x81'
p2473
aS'ready waiting'
p2474
aS'home work already cannot wait'
p2475
aS'home work already cannot wait'
p2476
aS'totally unspoilered'
p2477
aS'dude wrong levels'
p2478
aS'good'
p2479
ag115
aS'cause absolutely nuts'
p2480
aS'know ones skip spoil'
p2481
aS'dont timeline promos sneaks come'
p2482
aS'saying stop talking kirstie said wants break'
p2483
aS'whats book french version called returned'
p2484
aS'stop talking'
p2485
aS'apparently heaps better version'
p2486
aS'search time'
p2487
aS'dont duck better'
p2488
aS'poor alexis poor watching'
p2489
aS'reading takes long though going watch french version'
p2490
aS'cliffhanger happy days'
p2491
aS'know going happen resurrection'
p2492
aS'hands ears lalalala'
p2493
aS'finished season watch didnt watch alexis'
p2494
aS'totally spoilered resurrection though'
p2495
aS'spoiler free since disappointment detective alexis adventures'
p2496
aS'havent watched promos sneaks read episode synopsis'
p2497
aS'apart episode title know nothing episode'
p2498
aS'theres wait till afternoon watch'
p2499
aS'working till outta'
p2500
aS'else taking work tomorrow castlefinale'
p2501
aS'hear ktampm said conchita worst means lady sausage truestory'
p2502
aS'julia zemiro drunk eurovision last night question rhetorical answer clearly'
p2503
asS'2014_23'
p2504
(lp2505
S'hope amazing'
p2506
aS'definitely need castle'
p2507
aS'great timing'
p2508
aS'aussie awesome'
p2509
aS'safety canadian australias daniel ricciardo crossed line first ever'
p2510
aS'sure thats school photo hahaha'
p2511
aS'need sleep'
p2512
aS'mines already turned still wake early probs awake latest'
p2513
aS'please internal body clock wake 345am tomorrow morningits public holiday sleep time'
p2514
aS'like amanda said thug rubbed game'
p2515
aS'whenever watch roosters game always something illegal'
p2516
aS'time refs send straight away'
p2517
aS'night'
p2518
aS'hahaha nice'
p2519
ag115
aS'took awhile think hahaha'
p2520
aS'tweets qualitynot quantity'
p2521
ag115
aS'thank someone post wait months release'
p2522
aS'bummer dont'
p2523
aS'shown'
p2524
aS'obvs mistake rankings'
p2525
aS'crap vodafone reveals customers calls tapped'
p2526
aS'need overhaul league coverage sack twats employ call games disgraceful'
p2527
aS'listening hadley andrew johns called dumber dumbest seriously painful nrlparnql'
p2528
aS'absolute mountain hate hadley andrew johns commentary nrlparnql hahahaha'
p2529
aS'oohh'
p2530
aS'thank fuck saturday'
p2531
aS'thank back'
p2532
aS'chance league callershadley johns stay point unbiased call game thanks'
p2533
aS'hayne johns hadleys kids give rest channel'
p2534
aS'joey hadley together ruin perfectly good friday night'
p2535
aS'hahaha corey norman'
p2536
aS'hahaha think would like lights though'
p2537
aS'yeah suprised dont hump field'
p2538
aS'know broncos fans feel either rabs hads gilbert callers'
p2539
aS'thanks ruining game hadley hadleyisawanker'
p2540
aS'hahaha dude hads commentator'
p2541
aS'yeah killer last weeks'
p2542
aS'alright show killer start plays'
p2543
aS'started watching canadian show called motive chick played serena kaye castle lead'
p2544
aS'nadine'
p2545
aS'congrats kelsey'
p2546
aS'thanks sumit'
p2547
aS'happy long weekend woohoo'
p2548
aS'loves'
p2549
aS'awesome story kylie'
p2550
aS'great times'
p2551
aS'already rewatched resurrection parks recreation mainlining castle nonstop'
p2552
aS'started flowers grave always restart season hiatus'
p2553
aS'starting castle rewatch tonight'
p2554
aS'debut album bombs away available presale tomorrow australia zealand whos excited'
p2555
aS'face paris optical illusion'
p2556
aS'haha might hads main caller'
p2557
aS'love sunday sport headlines'
p2558
aS'sendreceive laptop phone'
p2559
aS'cure sbseurovision hangover tuning conchita\xe2\x80\x99s eurovision tonight 930pm trust'
p2560
aS'public service announcement'
p2561
aS'make sure make productive school'
p2562
aS'cleaned phone screen thanks'
p2563
aS'true'
p2564
aS'hahaha good'
p2565
aS'preggers means pregnantpregnancy'
p2566
aS'knitted jumper photo horrendous jackets belts wrong'
p2567
aS'hahaha'
p2568
aS'outfits terrible'
p2569
aS'recently spoke neeson artists story angels premieres friday june 830pm'
p2570
aS'serious newscomau australias commonwealth games uniform absolute shocker'
p2571
aS'neeson angels rain'
p2572
aS'neeson angels take long line 1978'
p2573
aS'neeson angels secrets'
p2574
aS'neesonthe angels ever gonna face'
p2575
aS'news'
p2576
aS'safe travels mani padme nowaygetfuckedfuckoff'
p2577
aS'former frontman theangels neeson passed away sleep 9news'
p2578
aS'neeson true aussie rock roll legend'
p2579
aS'breaking neeson former frontman australian rock band angels died aged'
p2580
aS'news reports neeson former lead singer angels passed away aged come'
p2581
aS'cant shows like castle'
p2582
aS'chapter friggin hilarious'
p2583
aS'didnt need jacket going work morning nice'
p2584
aS'awesome cant wait'
p2585
aS'theyll protesting brisbane'
p2586
aS'thought thought work long weekend woot woot'
p2587
aS'brisbane total lockdown'
p2588
aS'radius thought production calendar confirmed public holiday awesome'
p2589
aS'learned public holiday november summit friday welovework'
p2590
aS'loving opinions voice scarily accurate'
p2591
aS'alice great part childhood watching brady bunch'
p2592
aS'come move north winter'
p2593
aS'nope vodafone phone home wifi vodafone bundled together mobile wifi laptop'
p2594
aS'hoodie winter though state origin'
p2595
aS'plan'
p2596
aS'wont mention degree'
p2597
aS'dude weve marked ages welovework'
p2598
asS'2014_22'
p2599
(lp2600
S'awesome sauce sumits back'
p2601
aS'welcome back missed'
p2602
aS'kenny episode motive great playing another brother'
p2603
aS'aussie family castle thing caskett castle caskett caskettalways'
p2604
aS'company work police record sort employed'
p2605
aS'hope absent'
p2606
aS'thank enjoy weekend'
p2607
aS'sumit'
p2608
aS'train home twice week luckily theres many weirdos schoolkids'
p2609
aS'sing dance youd probably fellow travelers'
p2610
aS'well could lolby loving story great'
p2611
aS'hello local thanks follow truth want believe'
p2612
aS'australian rapper iggy azalea matches beatles charttopping double debut hits sitting number'
p2613
aS'thats stunning view enjoy'
p2614
aS'thats saying false sense want show next games'
p2615
aS'work mins amount crap copped south wales supporters already unbelievable qlder'
p2616
aS'final whistle goes thrilling first game focus game qlder origin'
p2617
aS'fark'
p2618
aS'fans origin biggest loser'
p2619
aS'look heres jonathan thurston qlder'
p2620
aS'gorden tallis never says never gives qlder'
p2621
aS'meninga write ticket anywhere anytime qlder'
p2622
aS'little alan langer dont fooled alfies giant'
p2623
aS'many years carried broad back king emperor lang park qlder'
p2624
aS'less hours origin game show support social media cheat sheet qlder'
p2625
aS'help askingforafriend origin'
p2626
aS'queenslander'
p2627
aS'queenslander'
p2628
aS'true bring 9inarow maroons qlder'
p2629
aS'happy state origin qlder 9inarow'
p2630
aS'capsicum onion cucumbers late teens'
p2631
aS'salt pepper dressing'
p2632
aS'please tell wasnt iceberg lettuce burgers'
p2633
aS'onions pineapple beetroot whats left meat cheese'
p2634
aS'aneurysm sauce burgers nnnnooooo'
p2635
aS'tomato sauce people'
p2636
aS'tried onion marmalade better caramelised onions\xf0\x9f\x98\x8b'
p2637
aS'live little world much bigger sauce burgers'
p2638
aS'onion marmalade burger heaven'
p2639
aS'food police proud'
p2640
aS'relishes pickles aioli burgers'
p2641
aS'mate would bliss burgers'
p2642
aS'sauce sauce condiments condiments thems rules'
p2643
ag115
aS'sauce burgers condiments dude thems rules'
p2644
aS'thems rules dude'
p2645
aS'either lettuce rocket baby spinach bottom cheese'
p2646
aS'nice lettuce goes bottom thats rule'
p2647
aS'qldmaroons 9inarow whose team nswblues qldmaroons origin wwos'
p2648
aS'listening suprised hair effing hilarious'
p2649
aS'attacks'
p2650
aS'listen every afternoon'
p2651
aS'sorry joking usual rant'
p2652
aS'kimye married check york posts take theprojecttv'
p2653
aS'course showing movieswhy show first episodes shows want watch watch repeats movies'
p2654
aS'reality star struck'
p2655
asS'2014_25'
p2656
(lp2657
S'vagina dare goes horribly wrong happy monday'
p2658
aS'sweet'
p2659
aS'keeps increasing taxes'
p2660
aS'massively'
p2661
aS'right expect blow valve expression face'
p2662
aS'said everyone ever boom'
p2663
aS'wont watching later week'
p2664
aS'2x01'
p2665
ag115
aS'first thought said honeycomb hahaha'
p2666
aS'thought shed lost mind putting honeycomb potato'
p2667
aS'city slicker used country folk ways'
p2668
aS'started suggesting options foodpolice'
p2669
aS'hahaha thought meant honeycomb confectionary'
p2670
aS'getting hungry thinking'
p2671
aS'honeycomb honey'
p2672
aS'cook chicken stock water first mash honey crumbled feta'
p2673
aS'dont'
p2674
aS'mashed honey feta cheese'
p2675
aS'brilliant'
p2676
aS'least peel'
p2677
aS'doesnt love good vegies'
p2678
aS'tasted enjoyed bits'
p2679
aS'welcome back'
p2680
aS'jealous kirsties sweet potato'
p2681
aS'first noticed bits'
p2682
aS'certainly good looking sweet potato mmmmm'
p2683
aS'nice sweet potato lovin'
p2684
aS'congrats warriors'
p2685
aS'hopefully well'
p2686
ag115
aS'fortunately dont onesie'
p2687
aS'exhausted'
p2688
aS'great enjoy'
p2689
ag115
aS'woah woah woah start ipswich'
p2690
aS'thank dont follow castle nutjobs call fans'
p2691
aS'done'
p2692
aS'castle aussie fandom please'
p2693
aS'torrent trouble free ride aussie pirates'
p2694
aS'dami super love'
p2695
aS'still heaps disks hahaha'
p2696
aS'please stop calling cannot arrest hayne performance last night either oneinarow'
p2697
aS'done works okay'
p2698
aS'yeah saying come years time gloat dirty cheating scum'
p2699
aS'customers gloating going bitch slap soon hahaha'
p2700
aS'translate line tweet'
p2701
aS'cant believe humble fans work morning'
p2702
aS'looks like someone excited camping'
p2703
ag115
ag115
aS'thats great strip love'
p2704
aS'retweet think stepped world tonight gosocceroos'
p2705
aS'well done proud gosocceroos'
p2706
aS'goodo shall wait'
p2707
aS'kirstie petition closed already'
p2708
aS'petition want castle'
p2709
aS'good work'
p2710
aS'chookas'
p2711
aS'serious thought joking'
p2712
aS'always much respect tatey since beginning career broncosinjury wise luck'
p2713
aS'surprised sevenhasnoloveforcastle'
p2714
aS'unfortunate luck injury wise'
p2715
aS'channel please don\xe2\x80\x99t take offspring away'
p2716
aS'great work thanks info nadine much appreciated'
p2717
aS'fingers crossed'
p2718
aS'well unfortunately means peoples taste arse'
p2719
aS'bloody fans'
p2720
aS'would show first episodes great show watch bali bogans show instead'
p2721
aS'start work 430500 late nights good'
p2722
aS'nnnnooooo'
p2723
aS'theyd better show castle earlier 1011pm sunday night'
p2724
aS'seven actually finish airing season first'
p2725
aS'middle last year'
p2726
aS'fans post extras watch'
p2727
aS'well youve started rewatch make watch hahaha'
p2728
aS'cant evil laughs theyre ways getting'
p2729
aS'youre joking didnt even watch castle'
p2730
aS'theyll prob season seven finishes showing ihatechannel7'
p2731
aS'dirty grub origin match paulgallen'
p2732
aS'thats joey johns isnt hahaha looks like'
p2733
aS'weve heaps theres always plenty banter going back forth'
p2734
aS'must alright foxtel hahaha joke'
p2735
aS'hasnt ages'
p2736
aS'cant stay awake socceroos game work sleep'
p2737
aS'starting chill goes veinsstarted rewatch last week'
p2738
aS'2530 customers boos fans'
p2739
aS'gonna watch castle soccer game taste mouth workin6hoursnosleep'
p2740
aS'looking forward work tomorrow crap gonna fans'
p2741
aS'sheppard supporting'
p2742
aS'remember taking ball cleanly mustve reception time'
p2743
aS'kickgate'
p2744
aS'holding back player pride honournswcheatingbastards'
p2745
aS'least dirty grubs'
p2746
aS'hahaha probs wouldnt come back'
p2747
aS'joeys getting hayne lovin'
p2748
aS'dont ever remember seeing carry like years dirty cheatin grubs totally agree'
p2749
aS'yawn'
p2750
aS'cant hold ball boos 6000 penalties hahaha'
p2751
aS'effin cheatin blues'
p2752
aS'speak nope'
p2753
aS'classy ladies'
p2754
aS'sets didnt score dont deserve'
p2755
aS'asking bodiesjust pictures fave line'
p2756
aS'fucking blues'
p2757
aS'still quote'
p2758
aS'breaks origin coverage'
p2759
aS'joey stfu hayne love origin'
p2760
aS'crap luck brent tate great player qlder'
p2761
aS'queenslanders tough gail qlder origin'
p2762
aS'liking blues niggling tactics nadine qlder'
p2763
aS'hope qlder'
p2764
aS'wish hodgo would learn pass makes break qlder'
p2765
aS'another points thurston highest point scorer origin history lead 30mins'
p2766
aS'stfu gallen youre worst offender effing skirt origin'
p2767
aS'nice swinging grub gallen'
p2768
aS'starting'
p2769
aS'think game netherlands start origin game tonight'
p2770
aS'enough love hayne already'
p2771
aS'take good luck wave maroon flag queensland origin stateoforigin'
p2772
aS'lets smash blues queenslander'
p2773
aS'cmon comes goqld queenslander'
p2774
aS'probs mins theyre field thanks early work'
p2775
aS'joey drinking thinking hayne'
p2776
aS'dont know fuckwit finch hardly sentence together'
p2777
aS'theyll give usual token appearance king locky secs half'
p2778
aS'retweet youre origin ausned double tonight gosocceroos worldcup'
p2779
aS'queenslander yeahbaby'
p2780
aS'wasnt'
p2781
aS'qlder maroons know cheering qlder'
p2782
aS'watch origin overseas'
p2783
aS'game maroon fans official maroon gold gear cheer boys'
p2784
aS'youll supporting tonight qlder origin'
p2785
aS'queenslander'
p2786
aS'game qlder'
p2787
aS'queensland'
p2788
aS'qlder cmon maroons'
p2789
aS'hate winter'
p2790
aS'excited announce stream geronimo around world'
p2791
aS'hate winter'
p2792
aS'excited amaze play show friday ipswich'
p2793
asS'2014_24'
p2794
(lp2795
S'geez degrees start work week'
p2796
aS'engerland'
p2797
aS'sorry wc06 backing england game'
p2798
aS'twitter stats world match morning gosocceroos'
p2799
aS'didnt learn lesson tweeting pics vegetables'
p2800
aS'mmmmminvictus fragrance paco rabanne'
p2801
aS'thanks support heres signed team photo mile jedinak gosocceroos'
p2802
aS'massive heart shown retweet proud performance world gosocceroos aussiepride'
p2803
aS'retweet proud performance world gosocceroos aussiepride'
p2804
aS'proud socceroos'
p2805
aS'outscored massive display gosocceroos proudaussie'
p2806
aS'nnnnnooooo'
p2807
aS'outstanding performance cmon lads gosocceroos'
p2808
aS'gold could back wouldnt hard fragile little chileans'
p2809
aS'wasnt paying attention name'
p2810
aS'alex wilkinson keeps clearing line bresh another shot wide thrilling game'
p2811
aS'noticed player named alexis'
p2812
aS'marco close gosocceroos'
p2813
aS'close gosocceroos'
p2814
aS'wasnt playinggeez'
p2815
aS'love timmy'
p2816
aS'scored world cups live chiaus gosocceroos'
p2817
aS'goaaaaaaaaaaal australia chance timmy cahill boom live chiaus'
p2818
aS'timmy cahill gosocceroos'
p2819
aS'timmy cahill goal gosocceroos'
p2820
aS'strong thighs mmmm'
p2821
aS'thats haircuts look like bananas'
p2822
aS'noticed'
p2823
aS'chileans better hairdos hahaha'
p2824
aS'relatively short hahaha'
p2825
aS'yeah game hasnt started'
p2826
aS'would 820am'
p2827
aS'need restart gamewe werent ready'
p2828
aS'years time'
p2829
aS'cmon socceroos keep together gosocceroos'
p2830
ag115
aS'least held mins'
p2831
aS'australia gosocceroos'
p2832
aS'look like bananas yellow gosocceroos'
p2833
aS'retweet youre watching chiaus australia gosocceroos'
p2834
aS'much better gosocceroos'
p2835
aS'thanks much gosocceroos'
p2836
aS'thanks harry cheer loud ready ausvchile good luck'
p2837
aS'watching sunrise'
p2838
aS'gosocceroos'
p2839
aS'retweet youre watching back australia favourite youre watching brazil abroad gosocceroos chiaus worldc\xe2\x80\xa6'
p2840
aS'gives socceroos chance time prove doubters wrong live'
p2841
aS'chiaus gosocceroos'
p2842
aS'gosocceroos'
p2843
aS'great performance netherlands spain'
p2844
aS'sick fluhad since saturday'
p2845
aS'nice onei cant complain first work week weekend'
p2846
aS'kidding finished already'
p2847
aS'breaking harrisonford airlifted hospital steel door reportedly crushed'
p2848
aS'rooting worldcup'
p2849
ag115
aS'think england much chance winning australia'
p2850
aS'great description hahaha'
p2851
aS'blaming castle withdrawals auto correct fails'
p2852
aS'time pick mistakes dont even idea meant'
p2853
aS'hahaha good know auto correct problems'
p2854
aS'magic phone keeps auto corrects manic'
p2855
aS'must manic touch hahaha'
p2856
aS'sending cause sent'
p2857
aS'well keep fluids hahaha'
p2858
aS'month preorder debut album itunes'
p2859
aS'yeah shell come australia happen keep rting remember stana'
p2860
aS'wouldnt able anything hahaha'
p2861
aS'hmmm chance meet stana studying stana wins hands time study later'
p2862
aS'jealous youbeen looking pics videos today congrats'
p2863
aS'congrats meeting stana happy'
p2864
aS'nasty crash ipswich goodna four lanes heading west closed'
p2865
aS'excited spiderman'
p2866
aS'good demonstration'
p2867
aS'thurston takes planes safety demonstration gold origin qlder'
p2868
aS'young ones legend mayall died aged management company says'
p2869
aS'yeah rachel griffiths next week'
p2870
aS'buts lincoln lewis kings hahaha'
p2871
aS'meant dont blame hating name horrible'
p2872
aS'dont blame awful name'
p2873
aS'hahaha'
p2874
aS'love show'
p2875
aS'wins bronxnation'
p2876
aS'fulltime broncos defence setting great canberra nrlcanbri'
p2877
asS'2014_27'
p2878
(lp2879
S'dear smoke alarm stop beepingnothing wrong freaking late'
p2880
aS'tool putting nicely'
p2881
aS'okay translation button understand'
p2882
aS'vegetable'
p2883
aS'shallow using small saucepan kids mars bars batter size bars'
p2884
aS'deep fried mars bars'
p2885
aS'theyre bunch arrogant pricks'
p2886
aS'stunning today great weather'
p2887
aS'cough nutjob cough'
p2888
aS'cough stalker cough'
p2889
aS'hhhmmm'
p2890
aS'awesome castle returning castle'
p2891
aS'returning castle'
p2892
ag115
aS'holy crap'
p2893
aS'often year well quite'
p2894
aS'polite saying'
p2895
aS'morning peeps weve reached zero degrees fark cold'
p2896
aS'good morningevening'
p2897
aS'thats hate winter'
p2898
aS'dont like temp though cold bring summer'
p2899
aS'western suburbs cold'
p2900
aS'sunshine moment friggin cold'
p2901
ag115
aS'went work today'
p2902
aS'theres warm ones moment freezing'
p2903
aS'well cool kids'
p2904
aS'kirstie faves special coles want grab hahaha'
p2905
aS'okay show called real wedding disasters first installment season finale'
p2906
aS'dear winter away'
p2907
aS'watched yesterday arvo'
p2908
aS'earlier finishing lately'
p2909
aS'tick tick tick'
p2910
aS'probs days season premiere'
p2911
aS'working long hours'
p2912
aS'obvs flowers grave sucker punch'
p2913
aS'break till xmas'
p2914
aS'seasons 3x04'
p2915
aS'snooze lose'
p2916
aS'great castle 3x04'
p2917
aS'hopefully tonight tired might crash early hurry catch'
p2918
aS'3x01 lets'
p2919
aS'might grow hopefully'
p2920
aS'carney leaning tower pisastyle perspective tricks says agent really'
p2921
aS'kids tell story time played mexico worldcup himym'
p2922
asS'2014_26'
p2923
(lp2924
S'mmmmm'
p2925
aS'holiday scruff early season scruff mmmm'
p2926
aS'mmmmm nice'
p2927
aS'thats good look early seasons scruff good'
p2928
aS'didnt know scruff happening'
p2929
aS'spots spots lockerby'
p2930
aS'dont actually follow agree character progression'
p2931
aS'mmmmm'
p2932
aS'yeah scruff disappeared season sigh'
p2933
aS'yeah happened'
p2934
aS'noticed wore heaps striped shirts jackets season'
p2935
aS'remember'
p2936
aS'gotta castle wore nice jackets season like awful ones season'
p2937
aS'dont think wise alexis tweet'
p2938
aS'eeewww gross'
p2939
ag115
aS'oops accidentally retweet\xf0\x9f\x98\x84\xf0\x9f\x98\x84\xf0\x9f\x98\x84\xf0\x9f\x98\x84\xf0\x9f\x98\x84'
p2940
aS'yeah threatened youfrom victoria\xf0\x9f\x98\x82\xf0\x9f\x98\x82\xf0\x9f\x98\x82'
p2941
aS'nothing young'
p2942
aS'deny coerced'
p2943
aS'guys mean'
p2944
aS'nnnnooooo stop'
p2945
aS'nnnnooooo wheres delete button'
p2946
aS'wouldve better sully much nicer look'
p2947
aS'ssshhh secret\xf0\x9f\x98\x9c'
p2948
aS'wouldve great wasnt interested kbecks nice candy'
p2949
aS'actually watched alexis scenes wasnt annoying back tell anyone said delete tweet'
p2950
aS'sorensen bland thats needed sprinkles hahaha'
p2951
aS'thats castle started fall kbecks demming'
p2952
aS'didnt fast forward skip demming like previously alexis sacrificed'
p2953
aS'fast forwared alexis scenes hahaha'
p2954
aS'miles ahead sorensenyawn motorcycle greasy'
p2955
aS'home today binge watched rest season season rewatch starts tomorrow'
p2956
aS'mighty nice look demming'
p2957
aS'watched every nightseason rewatch finished time repeats'
p2958
aS'finished season still hard watch demming'
p2959
aS'repeat offender stupid'
p2960
aS'steve noyce told decision made todd carney'
p2961
aS'yvonne sampson spoke sharks says carney sackedyet'
p2962
aS'says yes9 says'
p2963
aS'breaking cronulla sharks sacked todd carney following lewd photo scandal overnight'
p2964
aS'lucky friday cause zero degrees outside moment bbbbrrrr\xe2\x9d\x84\xe2\x9d\x84\xe2\x9d\x84\xe2\x9d\x84\xe2\x9d\x84'
p2965
aS'thank look forward castle season sunday night'
p2966
aS'happy days finally'
p2967
ag115
aS'lulling false sense winner'
p2968
aS'slacker'
p2969
aS'said effing bosses'
p2970
aS'nnnnooooo ipswich cold mornings week'
p2971
aS'asked boss work home watch castle said'
p2972
aS'friggin zombie moment need find another less hours'
p2973
aS'wont watch weekend effing work'
p2974
as.