(dp0
S'2013_42'
p1
(lp2
S'using manage clean twitter account'
p3
aS'johnny depp kate moss back together'
p4
aS'keep forgetting license home'
p5
aS'world haters watch shine'
p6
aS'asuu four straight month nine unit course available'
p7
aS'bitches love'
p8
aS'outa'
p9
aS'usually write name tiny piece paper slot eleganzabic biro identification'
p10
aS'please follow back'
p11
aS'better follow back'
p12
aS''
p13
asS'2013_43'
p14
(lp15
S'youre pregnant'
p16
aS'follow back'
p17
aS'fucking violent times'
p18
aS'love fucking bitches rosebud'
p19
aS'good morning everyone'
p20
aS'dont shit tryna someone else'
p21
aS'word today'
p22
aS'youre lazy converting oxygen carbon dioxide'
p23
aS'girl broke broke cause telling'
p24
aS'girl broke broke cause telling'
p25
aS'please follow back'
p26
aS'tired fuck'
p27
aS'cant graduate high school cant anything else either shit easy fuck'
p28
aS'hmmm dreamt classico last night barca going'
p29
aS'week twitter follower followed people'
p30
aS'please follow back'
p31
aS'lmao'
p32
aS'baby rotate'
p33
aS'missed period lecturer crazy'
p34
ag13
aS'garden'
p35
aS'high'
p36
aS'niggas like bitch fuck'
p37
aS'slept gifted album better thought actually listen gotta'
p38
aS'everybody want secret immortality like'
p39
aS'strike food dying'
p40
aS'still honest rude indecent hell syllables killaholic'
p41
aS'like computer must mygenesi laptop back pocket'
p42
aS'said like robot call rapbot'
p43
aS'world look witch'
p44
aS'shopping things point'
p45
asS'2013_41'
p46
(lp47
S'sunday blast'
p48
aS'sunday blast limpopo tinz'
p49
aS'cant close eyes feel like phone gonna leave'
p50
aS'please follow back'
p51
ag13
aS'please follow back'
p52
aS'please follow back'
p53
aS'cuddling taking naps together cute\xf0\x9f\x98\x8d\xf0\x9f\x98\x8d'
p54
aS'begining'
p55
aS'sleep comingnetwork coming'
p56
aS'please follow back'
p57
aS'follow back'
p58
aS'facebook boring'
p59
aS'best time thing best time promise'
p60
aS'kush'
p61
asS'2013_46'
p62
(lp63
S'week twitter followers unfollowers followed people'
p64
aS'love'
p65
aS'please follow back'
p66
aS'password everything anyone ever figured could singlehandedly ruin entire\xe2\x80\xa6'
p67
aS'rest'
p68
aS'dont lifegrow life'
p69
aS'spongebob need money dance front mrkrabs fuck bitch play backgroundlol'
p70
aS'final piece'
p71
aS'please follow back'
p72
aS'theres cool chase bouncing ping pong ball'
p73
aS'morning peeps'
p74
aS'wrecked show call wreckster'
p75
aS'unless name google stop acting like know everything'
p76
aS'bitch boxed'
p77
aS'ever feel think people selfies lock screen wallpaper'
p78
aS'gonna fucking kill myexams'
p79
asS'2013_47'
p80
(lp81
S'carry fone enter exam hall intention cheatopens google types question loading3g offso\xe2\x80\xa6'
p82
aS'holes heart food fill'
p83
aS'youre treasure treasure'
p84
ag13
aS'better follow back'
p85
ag13
aS'better follow back'
p86
aS'taking test hold wrong'
p87
aS'week twitter followers unfollowers followed people'
p88
aS'please follow back'
p89
aS'like tight pussy stroking feels like gripping dick wont'
p90
aS'need right also five hundred thousand dollars cash'
p91
asS'2013_44'
p92
(lp93
S'perfect love'
p94
aS'remember school stay drugs dont vegetables'
p95
aS'live reharsal camera always rolling'
p96
aS'church'
p97
aS'high vervain'
p98
aS'goes'
p99
aS'simply'
p100
aS'asuu beats'
p101
aS'female church like sundays mvpsundayquizvol5'
p102
aS'want pays 750k month gives house benz pays vacation paris kindly pinch ursef'
p103
aS'weapons warfare canal made nuclear weapons'
p104
aS'dick makes look like freak'
p105
aS'dont stop keep'
p106
aS'week twitter followers unfollowers followed people'
p107
aS'take slave'
p108
ag13
aS'please follow back'
p109
aS'symbol'
p110
aS'nice'
p111
aS'every womans dream'
p112
ag13
aS'life short break rules forgive quickly kiss slowly love truly laugh uncontrollably never regret anything made smile'
p113
aS'please follow back'
p114
aS'full\xf0\x9f\x98\xa9\xf0\x9f\x98\xa9\xf0\x9f\x98\xa9'
p115
aS'suits'
p116
aS'friends life'
p117
aS'simply simple'
p118
aS'fuck like last gonna'
p119
aS'please follow back'
p120
aS'hello year promdestiny'
p121
aS'lmao belle season double condoms'
p122
aS'nice boobs youve know'
p123
aS'artist please dont spam people music instead build friendships music come later love'
p124
aS'still badt know'
p125
aS'fuck monday'
p126
asS'2013_45'
p127
(lp128
S'hulk'
p129
aS'nice move'
p130
aS'lifes money'
p131
aS'coke please pepsi monopoly money'
p132
aS'cocacola bottle sweet monalisa show stretch marks zebra'
p133
aS'dont know anymore'
p134
aS'love buying things hate spending money'
p135
aS'week twitter followers unfollower followed people'
p136
aS'nigga'
p137
aS'mood treated drake jumper wanted hurry post'
p138
aS'bitches staring'
p139
aS'catch'
p140
asS'2012_44'
p141
(lp142
g13
ag13
ag13
aS'back'
p143
aS'dude steps finally becoming famous right'
p144
aS'fucking worship planet mars'
p145
aS'niggas tweet shit check planet mars'
p146
asS'2012_47'
p147
(lp148
S'mufc beat skrapid soccermanager'
p149
aS'nice twice'
p150
aS'gudmornin beautiful people long long'
p151
asS'2013_30'
p152
(lp153
S'tutte loro femmine sono stronza'
p154
aS'porting things mackie allen heath channels'
p155
asS'2012_41'
p156
(lp157
S'bored tried drawing lana turned pretty shit'
p158
aS'love lost love found'
p159
aS'alhamdulillah kuli halin'
p160
aS'finished exams bout goin fuck home'
p161
asS'2012_40'
p162
(lp163
S'good'
p164
aS'exam tinz'
p165
aS'miss home'
p166
aS'bitch didnt fall attacked floor'
p167
aS'would text oomf gone talkin'
p168
asS'2012_43'
p169
(lp170
S'love vavavoom'
p171
aS'barika sallah wanna guyz oooo christmas'
p172
aS'another treatment breakthrough south africa scientists discover solution'
p173
asS'2012_42'
p174
(lp175
S'bitch'
p176
asS'2013_26'
p177
(lp178
S'former super eagles midfielder thompson oliha dies'
p179
aS'alright whatever guess dont feel like arguing\xe2\x80\x9d\xe2\x80\x9d'
p180
ag13
ag13
aS'besties'
p181
aS'promise 08080181829'
p182
aS'lord witness fresh'
p183
aS'move'
p184
asS'2013_29'
p185
(lp186
S'truthful like truth dare'
p187
aS'hold'
p188
aS'night nighty'
p189
aS'finish line bolt'
p190
asS'2012_48'
p191
(lp192
S'video wright journey thousand miles competition truspot'
p193
aS'video wright journey thousand miles competition truspot'
p194
aS'journey thousand miles starts tonite'
p195
ag13
asS'2013_4'
p196
(lp197
S'high high'
p198
asS'2013_8'
p199
(lp200
S'good paradox'
p201
asS'2012_32'
p202
(lp203
S'whenever talk crazy people tell stfu quiet everyones always asking'
p204
ag13
aS'follow back'
p205
aS'lwkmd truely'
p206
aS'follow back'
p207
aS'lets breathe lick elbow'
p208
ag13
aS'klass boring ooooooo'
p209
asS'2012_52'
p210
(lp211
S'afraid crying rainbows'
p212
aS'number chelsea know'
p213
aS'opam gangnam style'
p214
aS'think youre better knowing better everything'
p215
aS'stop yarning balls forsaken bastard rotten depths hell'
p216
aS'awesome worship ground walk'
p217
aS'follow back'
p218
asS'2012_50'
p219
(lp220
S'rofl'
p221
ag13
aS'mention'
p222
aS'name dirt'
p223
aS'songs lullaby ears'
p224
aS'nigga imma ping pong table setup dressing room touch frisco maynelets'
p225
aS'nigga huffing puffing'
p226
aS'baba agbalagba'
p227
aS'want'
p228
asS'2012_51'
p229
(lp230
S'meet 12midnight abandoned house street bring pillowpopcorn vampire diaries'
p231
asS'2013_11'
p232
(lp233
S'drop word bitch'
p234
aS'laying night expecting something fuck bitch aint type'
p235
asS'2013_10'
p236
(lp237
S'going bitch'
p238
asS'2013_13'
p239
(lp240
S'follow back please'
p241
aS'fish inside meat'
p242
aS'niggas like'
p243
asS'2013_12'
p244
(lp245
S'like passer'
p246
ag13
aS'reason living living reason facts'
p247
aS'myogaatthetop'
p248
aS'teamwaragainstuglygirls give pretty ones break'
p249
asS'2012_38'
p250
(lp251
S'google'
p252
aS'laughing'
p253
aS'receiving good head wait hold wait damn shit feels good right'
p254
asS'2013_14'
p255
(lp256
S'virgin proud 2k13 savin marriage unavailable limits'
p257
aS'always like people dont like back'
p258
aS'best time ever'
p259
aS'hummm toast haaaaa obirini call skul later fearna'
p260
asS'2013_17'
p261
(lp262
S'badman tinn take dont give momaku unilagolodo fagb\xe2\x80\xa6'
p263
aS'people something indefinably special know theyre libra'
p264
asS'2013_16'
p265
(lp266
S'bitches trippin excuse miss something fuck forgot call'
p267
aS'look unto baba bonjour'
p268
aS'cupcake girl best song ever'
p269
aS'everyone freak takes right person bring freak'
p270
aS'baby give'
p271
ag13
ag13
aS'fucked bitchs pussy like sentence subject predicate'
p272
aS'faded'
p273
aS'follow back'
p274
aS'left pinger tessas phoneamptell bitch sendin kinds naked pics'
p275
aS'reasons loves black girls gtgtgtgtgtgtgtgt'
p276
aS'love bottom'
p277
aS'follow back'
p278
aS'rabbit craftmatic'
p279
aS'follow back'
p280
aS'havent much lately getting pissed'
p281
asS'2012_34'
p282
(lp283
S'follow back'
p284
aS'rockin till'
p285
aS'want pussy'
p286
asS'2012_35'
p287
(lp288
S'life fcuked right'
p289
aS'tongue till cums'
p290
aS'brain burns around calories burns slightly calories think harder'
p291
aS'kkkkk'
p292
aS'money problem'
p293
aS'ture'
p294
aS'hate afmag'
p295
asS'2012_36'
p296
(lp297
S'came handy'
p298
aS'want birthday booty'
p299
aS'tomorrow suicide awareness show support writing love wrist people commit'
p300
ag13
aS'popping sometins'
p301
aS'going nite party yall later'
p302
aS'world full bitches'
p303
aS'follow back'
p304
aS'fucked ground came place'
p305
ag13
aS'licked like lollipop'
p306
aS'service problems'
p307
aS'totally fucking give tried didnt wasnt fucking good enough'
p308
aS'chop grass'
p309
aS'life reharsal camera alwayz rollin'
p310
asS'2012_31'
p311
(lp312
S'church'
p313
aS'10favouritecartoon madagascar'
p314
aS'dancin azonto'
p315
aS'listening drakes songs puts good mood'
p316
aS'tweeting phone mozat free m14tsfg'
p317
ag13
aS'armpit smelling like dick'
p318
aS'gunna feel lost olympics finished'
p319
aS'follow back'
p320
aS'life dick gets hard sumtyms reason'
p321
aS'follow back'
p322
aS'follow back'
p323
aS'follow back'
p324
aS'follow back'
p325
ag13
aS'goes'
p326
aS'makin gaga'
p327
ag13
aS'swthearts house'
p328
aS'gurl says alwayz horny'
p329
asS'2013_39'
p330
(lp331
S'fans lets encourage well know gonna number'
p332
aS'trailers ride along last night grudge match congrats little aint little'
p333
aS'dear'
p334
asS'2012_33'
p335
(lp336
S'follow'
p337
aS'wanna sleep'
p338
ag13
aS'follow back'
p339
aS'follow back'
p340
aS'dont trust'
p341
aS'yeuhd'
p342
ag13
aS'amen'
p343
aS'someday someone walk life make realize never worked anyone else'
p344
aS'tink'
p345
aS'tink doin'
p346
asS'2012_39'
p347
(lp348
S'part life fuckin hell'
p349
aS'standin anitin fallin sumtin'
p350
aS'gals young millionaireroleys wrists defo badder thanall'
p351
aS'love sumone please change lock'
p352
aS'wiseyou young stupid'
p353
aS'chick bitch fuckin cousin'
p354
aS'people'
p355
aS'next time think give fuck remember aint feeding financing fucking'
p356
aS'makes nigga bitch makes nigga come pocket real woman makes nigga come home'
p357
aS'name mouth obviously something right'
p358
aS'need smoke wana'
p359
as.