(dp0
S'2013_42'
p1
(lp2
S'iron wine chilllifestyle'
p3
asS'2013_43'
p4
(lp5
S'suit booties bringonthecold'
p6
asS'2011_19'
p7
(lp8
S'love power glove'
p9
asS'2013_41'
p10
(lp11
S'glory days 5652 found whole cleaning filling cabinet apizzzzzzzz'
p12
aS'thank welcoming back someoneshouldhavelosttheirjobforthat'
p13
aS'much respect never forget home mercy leave fearamplove'
p14
aS'little beauty precious'
p15
aS'blast seaworld'
p16
aS'another successful'
p17
aS'major babe alert lovemylife lovemylife'
p18
aS'hello little friend overusedquotes'
p19
asS'2012_29'
p20
(lp21
S'normally every want feel alittle tropical instead'
p22
aS'always gone margaritatime'
p23
aS'thanks late dear thank goodness suicidal would dead sheis20dayslate'
p24
aS'dont post sayings glad choose sayings late night'
p25
asS'2013_44'
p26
(lp27
S'awesome wife bought surfboard sock ithinkshelovesme'
p28
asS'2013_45'
p29
(lp30
S'ever wonder listen workwhich know playlist making whenever'
p31
aS'already missing water freewave whoislaynemeadows'
p32
asS'2010_51'
p33
(lp34
S'8bit dead space demo live'
p35
aS'8bit bulletstorm diary story characters'
p36
aS'nine inch nails crysis trailer trailer'
p37
asS'2013_24'
p38
(lp39
S'reminiscing wall simeon freewave whoislaynemeadows'
p40
asS'2011_2'
p41
(lp42
S'favorite video games favorite bands 8bit deadspace launch trailer'
p43
aS'created didnt create loser alterego make feel better take responsibility durden'
p44
aS'four hours class another snowboarding tomorrow'
p45
aS'mean tricky good soundtrack back mine though'
p46
aS'remember like gamer thumb'
p47
aS'nintendo story children please'
p48
aS'well better calling going begging'
p49
aS'employers vegas powers'
p50
aS'could vegas'
p51
aS'gotta love deltron'
p52
aS'today five year fire alarm test work awesome'
p53
aS'realized head arrogant maybe also literal large cranium'
p54
asS'2011_1'
p55
(lp56
S'8bit homefront fight freedom'
p57
aS'number coffee still cant stay awake'
p58
asS'2011_7'
p59
(lp60
S'heartbreaking zombie video game trailer youll ever'
p61
asS'2009_5'
p62
(lp63
S'quick post site'
p64
aS'call philosophy call give opinion'
p65
aS'laughing brothers blog post regulars didnt name described perfectly nice'
p66
aS'wwwbyproductsofthenewmachineblogspotcom'
p67
aS'started blog dont expect much check posting sometime music video games'
p68
asS'2013_22'
p69
(lp70
S'view rises'
p71
aS'cooks stadium couple dodger fans coors field'
p72
aS'knows still snows copper mountain colorado'
p73
aS'reaching warp speed'
p74
aS'utah dont know wrote like exciting'
p75
aS'made california border'
p76
aS'woke brought home newwardrobe shinebright'
p77
asS'2013_23'
p78
(lp79
S'drying suits freewave cambria'
p80
aS'waves bound freewave layne'
p81
aS'sneeze'
p82
asS'2012_26'
p83
(lp84
S'moments feel like accomplish nothing life good feeling'
p85
aS'notebook gets everytime'
p86
asS'2011_9'
p87
(lp88
S'looking actors fresno would want student film info'
p89
asS'2013_5'
p90
(lp91
S'found problem motorcycle buried underneath officially running'
p92
aS'done pimping ride snowboarding lovesnow'
p93
asS'2013_4'
p94
(lp95
S'date nate wife watching xgames'
p96
asS'2013_1'
p97
(lp98
S'starting year right'
p99
aS'babys lower half soooo smooth'
p100
asS'2013_2'
p101
(lp102
S'baby cold outside'
p103
aS'look came mail today snowboarding redbull'
p104
asS'2013_9'
p105
(lp106
S'thank dontmesswiththeest leaving seaweed snack house'
p107
asS'2011_22'
p108
(lp109
S'woke dissapointed something wrong blamestarbucks'
p110
asS'2010_47'
p111
(lp112
S'china peak opens friday'
p113
asS'2011_20'
p114
(lp115
S'well thank loved swedefest video'
p116
aS'short film rafael rodarte last semester enjoydrowning hypothetically'
p117
asS'2011_21'
p118
(lp119
S'home camping rain digging taking shower dirty'
p120
aS'writing paper steinlen'
p121
asS'2011_25'
p122
(lp123
S'driving crazy'
p124
asS'2011_29'
p125
(lp126
S'says wallet belongs netflix'
p127
asS'2012_17'
p128
(lp129
S'youve done hash clever'
p130
aS'walk homer bottom 10th straight away center kemvp'
p131
asS'2010_44'
p132
(lp133
S'told rotc growing didnt think college material thanks'
p134
aS'8bit black kobe kimmel'
p135
aS'outlaw sale deviant video games bunch people'
p136
aS'8bit dead space video'
p137
aS'better question remember'
p138
aS'whatever herndon shut making impossible apartment quickly'
p139
aS'8bit california video game violence'
p140
aS'8bit best game time enjoy'
p141
aS''
p142
aS'rode across town find class canceled thats cool hour work south fresno'
p143
asS'2012_12'
p144
(lp145
S'picture baby golf club background pretty sure youre baby chair time profile'
p146
aS'thought played gameboy'
p147
aS'started playing finalfantasyiv beat'
p148
aS'dont rember pack coming'
p149
aS'didnt know maps havent purchased maps playing'
p150
aS'mean'
p151
aS'well kind company'
p152
aS'work school fixing house working'
p153
aS'brother'
p154
aS'class today find class today thatslife'
p155
asS'2011_42'
p156
(lp157
S'acrycrilic nails'
p158
aS'allegiance battlefield gamespots world pledge allegiance gamespotww3'
p159
asS'2011_43'
p160
(lp161
S'please'
p162
asS'2012_52'
p163
(lp164
S'nerd life xbox collection consoles nerd4life gamer'
p165
aS'look brother christmas ready season snowboarding ignium'
p166
aS'snowboard year hopefully wont break another newseason snowboarding'
p167
asS'2010_46'
p168
(lp169
S'love revolution 8bit dues human revolution gameplay trailer'
p170
aS'excessive violence filtyhy liners amazingness reserved copy 8bit bulletstorm epicness bulletstorm'
p171
aS'8bit kinect sell'
p172
aS'8bit rockstars noire enjoy people'
p173
aS'first skype meeting work living dream'
p174
asS'2010_45'
p175
(lp176
S'8bit'
p177
aS'8bit sorry activision doesnt like truth'
p178
aS'almost feel right side friends'
p179
aS'ignore spelling mistakes still upset'
p180
ag142
aS'dont ever park motorcycle parking spot idiots leave'
p181
aS'8bit call duty black already hacked'
p182
asS'2012_51'
p183
(lp184
S'wifes presents wrapped'
p185
asS'2010_43'
p186
(lp187
S'second rant looking treyarch'
p188
aS'would lucky people dollar kind service'
p189
aS'felt sliding sliding watched spew essence life peoples cars'
p190
aS'rode motorcycle home last night coffee falling free sorry anyones'
p191
asS'2010_42'
p192
(lp193
S'8bit castelvania lord shadows review'
p194
aS'writing paper analysis chronological story telling forrest gump think understand could ideas'
p195
aS'started spewing knowledge hubspot whole thing works think eyes glaze'
p196
aS'exposed geekyness advertising promotions teacher sigh'
p197
asS'2010_41'
p198
(lp199
S'time hang esposa'
p200
aS'impressions dead space multiplayer beta give looksy interested'
p201
aS'finally getting motorcycle back today work'
p202
aS'home schoolstarted morning midterms later finely home take shower sleep tell work'
p203
aS'sorry work school'
p204
aS'ritalin3 hours page paper hour research prefrontal cortex research bands omlet studding midterms'
p205
aS'absolutely mesmerizing maybeshewill want trying listen'
p206
aS'happy birthday fresno love hate relationship made today happy'
p207
aS'thanks guys never spaghettios'
p208
aS'wouldnt mind guys great keep podcast'
p209
aS'winter sweetness close body else ready snow'
p210
aS'forgot take something pepto today going long'
p211
asS'2010_40'
p212
(lp213
S'finished presentation ancient history class glad good public speaker'
p214
aS'johnny depp deserves props like dont care'
p215
aS'want'
p216
aS'look delicious even better'
p217
aS'forgot tweet yesterday receiving mans middle finger fiesta crying funny'
p218
aS'thank carrera always favorite brother reason'
p219
aS'nothing finish like homework gotta love giving presentations class'
p220
aS'load'
p221
aS'guys going corn maze'
p222
aS'tell lack social media finesse'
p223
asS'2013_37'
p224
(lp225
S'things ritalin coffee need kick'
p226
asS'2012_34'
p227
(lp228
S'seriously fhll thirty daydream snowboarding today endalreadysummer'
p229
asS'2013_18'
p230
(lp231
S'think kemp ignium559 atampt park'
p232
asS'2012_33'
p233
(lp234
S'listening brit american complain status quite entertaining mostly true points'
p235
asS'2011_3'
p236
(lp237
S'8bit crysis multiplayer announcement'
p238
aS'company meeting right really mood'
p239
aS'realized early described built like brick thats flattering'
p240
aS'rogers demon clown'
p241
aS'days'
p242
aS'anybody want join retiring early'
p243
aS'video games wanting 2011'
p244
asS'2010_10'
p245
(lp246
S'going tell secret'
p247
asS'2010_38'
p248
(lp249
S'zune officially changed device brick sigh'
p250
asS'2011_36'
p251
(lp252
S'think worth solid bray player followed solid exclusives'
p253
aS'1280x704 removing lines 720p saves good perf memory'
p254
asS'2009_4'
p255
(lp256
S'watching office making feel good inside'
p257
aS'trying figure going money wedding starbucks doesnt give time money'
p258
as.