(dp0
S'2012_6'
p1
(lp2
S'adorably impractical'
p3
asS'2011_19'
p4
(lp5
S'site design'
p6
aS'designing music mmmm sweet daftpunk'
p7
aS'hate waking 56am mornings'
p8
aS'spruik design'
p9
aS'thanks skype heads never liked skype anyways'
p10
aS'turns ramin right patient student wait classes photoshopthats mine fingerpyramidofdoom'
p11
asS'2012_48'
p12
(lp13
S'itunes looks pretty badass nice work apple'
p14
asS'2011_45'
p15
(lp16
S'streaking skyrim midnight release'
p17
asS'2012_44'
p18
(lp19
S'planets random monsters time visit planet sort monster barcode made'
p20
asS'2012_47'
p21
(lp22
S'beautiful keep good work'
p23
aS'sick hell lately getting worse months waiting specialist working'
p24
aS'bundle sale including 6000 fonts 4999 designers killerdeal'
p25
asS'2012_46'
p26
(lp27
S'reason believe \xe2\x80\x9cjump factor\xe2\x80\x9d scary movies increases tenfold you\xe2\x80\x99re tired'
p28
asS'2012_41'
p29
(lp30
S''
p31
aS'programapp guys watch highspeed recordings curious'
p32
aS'disclaimer final animationsound chunks preloaded landing planet fina'
p33
aS'well heres digital highfive amazing work chucklefish highfive cantfreakingwait'
p34
aS'chance sneaky peak'
p35
asS'2012_40'
p36
(lp37
S'heads users don\xe2\x80\x99t uninstall quicktime opens grapher whole bunch crap doesn\xe2\x80\x99t work anymore oops'
p38
asS'2011_15'
p39
(lp40
S'word notch next week'
p41
asS'2012_42'
p42
(lp43
S'keep good work digging style'
p44
aS'bored sick thousand blechs domain isn\xe2\x80\x99t working whatelsecouldgowrong'
p45
aS'keep good work starbound easily anticipated game since ocarina time back'
p46
aS'watched tutorial looks amazing wish could play guess stuck awaiting release'
p47
aS'redesign welcome change clean effective'
p48
aS'tweetbot store congratulations guys'
p49
asS'2011_3'
p50
(lp51
S'approve'
p52
aS'pretty crude remake indiana jones minecraft blocks kind added'
p53
asS'2011_7'
p54
(lp55
S'forest bride shoop'
p56
aS'dude game wicked awesome scary hell though'
p57
aS'word notch word notch'
p58
aS'check video mcrolld'
p59
aS'brand minecraft homemade awesome'
p60
aS'hehe'
p61
asS'2011_6'
p62
(lp63
S'everyone never without even though indeed'
p64
ag31
asS'2012_29'
p65
(lp66
S'quest system beyond awesome pleased'
p67
aS'cant wait test mettle sylvari necromancer'
p68
aS'prototype guys'
p69
asS'2012_28'
p70
(lp71
S'congrats cant wait turns'
p72
aS'stare pretty splash screen august patientlyimpatient'
p73
aS'binding isaac steam right dont already'
p74
asS'2012_27'
p75
(lp76
S'licorice greatest tasting disgusting looking icecream good choice'
p77
aS'wondering guys controlling events'
p78
aS'cant wait'
p79
aS'congrats lawsuit dismissal justice'
p80
aS'nebulon engine'
p81
asS'2012_26'
p82
(lp83
S'guys feel current diablo crisis curious'
p84
asS'2012_24'
p85
(lp86
S'thanks cant wait also second friends list easy server'
p87
aS'know system requirements game current state know youve testing older platforms curious'
p88
aS'raining starbound'
p89
asS'2012_23'
p90
(lp91
S'second notion'
p92
aS'keep good work much looking forward summer omgicantwait'
p93
asS'2011_52'
p94
(lp95
S'computer bigger powerful time badass tutorials finally'
p96
asS'2013_4'
p97
(lp98
S'monsters damn good design music'
p99
asS'2011_8'
p100
(lp101
S'happy 25th link'
p102
aS'howdy'
p103
asS'2013_1'
p104
(lp105
S'working oceans theyre pretty'
p106
aS'version character creator site stress testing ends'
p107
aS'thread million hits well release webbased starbound character generator'
p108
aS'happy year guys lets make 2013 starbounds year'
p109
asS'2013_3'
p110
(lp111
S'make frootloops flavoured milk'
p112
aS'gametrailers posted official open beta trailer'
p113
asS'2013_2'
p114
(lp115
S'note game looks sexy lower resolution right'
p116
aS'well site still guess people want free photoshop'
p117
aS'grab free legitimate copy photoshop rest creative suite right'
p118
aS'looks pretty damn sexy thing'
p119
aS'diamond packs purchased thats unique items'
p120
asS'2011_22'
p121
(lp122
g31
asS'2011_23'
p123
(lp124
S'attention internets battle slugger boss track hits rock band june'
p125
asS'2011_21'
p126
(lp127
S'lold'
p128
ag31
aS'youuuu'
p129
asS'2011_26'
p130
(lp131
S'bringing wife home today'
p132
aS'hours fianc\xc3\xa9e'
p133
aS'whooopwoopwopwoooop'
p134
aS'everything life whats fair abouts negotiated wise words teacher'
p135
aS'moment nose gets plugged apeshitallergies'
p136
aS'todays tutorial suggested scanning coloring photoshop'
p137
aS'firefox ginger hilarious illustration current browser firefox'
p138
asS'2011_27'
p139
(lp140
S'berryfestival fiancee'
p141
aS'school done whole week'
p142
aS'always movies oatmeal'
p143
aS'computer oatmeal'
p144
aS'design goes straight hell oatmeal'
p145
aS'abusement park baby killingfloor event'
p146
aS'circus event killingfloor holy crap'
p147
aS'pants fire'
p148
aS'rendering final scene tornado clip'
p149
aS'well thanks likes guys didnt expect accept email thing started'
p150
aS'tutorials come'
p151
aS'also abouts'
p152
aS'second'
p153
aS'guys done sorry wasnt didnt even know guys bcit sadface'
p154
aS'happened randomly kinda scary'
p155
aS'yeah youre right cant wait'
p156
aS'city hall confused'
p157
asS'2011_24'
p158
(lp159
S'life gives lemons throw elderly'
p160
asS'2011_25'
p161
(lp162
S'looks like next super meat rock band track releasing today rock band network'
p163
aS'terraria today enjoy stuff awesome'
p164
aS'comic sans criminal theres help available'
p165
aS'listening zelda music calms soothes mind'
p166
aS'creating tornado effects large ominous cloud distance'
p167
aS'wonderful comment aftereffects teacher'
p168
aS'thanks blessing'
p169
aS'gorgeous burnaby'
p170
aS'like dark chocolate right dark truffles forte'
p171
aS'twitter coming along nicely'
p172
aS'neat'
p173
aS'crow smacked classroom window birds flew away teacher disturbed'
p174
aS'attempting zentuts website wordpress pain'
p175
aS'bored also social media'
p176
aS'bcit hours early cause bored photoshop'
p177
aS'phone actually contact'
p178
asS'2012_4'
p179
(lp180
S'restarted photoshop since installation fonts'
p181
asS'2011_28'
p182
(lp183
S'ragahhhhh killingfloor'
p184
aS'time latenight killingfloor ready awesomesawce'
p185
aS'could take baboons giant dildo fight'
p186
aS'late night omelet dericous'
p187
asS'2012_7'
p188
(lp189
S'enemies bosses around rooms chapters isaac expansion'
p190
asS'2012_3'
p191
(lp192
S'stop sopa'
p193
aS'youtube etcetcetc'
p194
aS'internet cease exist ergo sopapipa passes'
p195
asS'2012_16'
p196
(lp197
S'gigglybits squee superspeed'
p198
aS'increase illustrator save times cost adobe'
p199
asS'2012_17'
p200
(lp201
S'current background'
p202
aS'sunburn cloudy paleskin'
p203
aS'first iphone background unlock screen designs design'
p204
aS'pathfinder6 woot pathfinder wicked fast smooth nice improvements guys'
p205
asS'2012_14'
p206
(lp207
S'improvements absolute contentaware patch tool awesome'
p208
asS'2012_15'
p209
(lp210
S'good heavens 16gb kasdhabdkansd time upgrade otherworldcomputing'
p211
aS'dude screen recorder need really good price isnt much obstacle'
p212
aS'damn right collectors'
p213
asS'2011_40'
p214
(lp215
S'preparetodie'
p216
asS'2012_50'
p217
(lp218
S'bltc wont open'
p219
aS'year seems little expensive production premium'
p220
aS'chance features seems little ridiculous'
p221
aS'seconded can\xe2\x80\x99t true'
p222
aS'trying learn resourceswikistutorialsprograms help thanks guys gostarbounders'
p223
asS'2012_51'
p224
(lp225
S'sums really'
p226
asS'2011_48'
p227
(lp228
S'alive site name thought using name would professional yeah'
p229
aS'terraria gawd mind poofed'
p230
asS'2012_18'
p231
(lp232
S'nice sublet texture background 1920x1200 textures simple'
p233
asS'2012_19'
p234
(lp235
S'maybe help weird minecraft server problem asked forums ignored'
p236
asS'2011_46'
p237
(lp238
S'vampire skyrim'
p239
asS'2012_38'
p240
(lp241
S'safe typically can\xe2\x80\x99t watch outdated flash version scan case'
p242
aS'flash update'
p243
aS'sent links don\xe2\x80\x99t click hacked horrible grammar'
p244
aS'show items without trading'
p245
aS'dear good everything right torchlight2'
p246
asS'2012_34'
p247
(lp248
S'cool thought starbound mechanics tiredness meter'
p249
aS'\xe2\x80\x9cverysleepy\xe2\x80\x9d speak'
p250
asS'2012_35'
p251
(lp252
S'bought double income boss reinstalled freeze lost'
p253
aS'ipad giveaway time retweet entered winner announced tomorrow alsostay tuned labor'
p254
aS'watching meantime'
p255
aS'can\xe2\x80\x99t click anything restarting client worked'
p256
asS'2012_37'
p257
(lp258
S'heard birthday good'
p259
aS'something coming terraria\xe2\x80\xa6 think well revealing tomorrow'
p260
asS'2012_30'
p261
(lp262
S'anyone interested skeptical'
p263
aS'happy bugs still using pathfinder whats next update list'
p264
aS'keep good work guys cant wait'
p265
asS'2012_31'
p266
(lp267
S'cant sleep send random monster cheer insomnia'
p268
aS'kidding cant even beat second floor iheartroguelikes'
p269
aS'preview maybe zoidbergs voice'
p270
aS'move mouse screen follows little disable'
p271
aS'disable scrolling mouse feature wanderlust'
p272
aS'cool'
p273
asS'2012_32'
p274
(lp275
S'really feeling game going ridiculous attention detail level enemy\xe2\x80\xa6'
p276
aS'definitely favourite creature starbound'
p277
aS'maciphone users you\xe2\x80\x99re using tweetbot you\xe2\x80\x99re tweeting correctly besttwitterapp'
p278
aS'quick long stress test'
p279
aS'sync read iphone tweetbot pick left either'
p280
aS'dude still want play starbound'
p281
aS'inspiration zombie villagers'
p282
aS'arrghehh kidding slightly impatient though'
p283
aS'send specs'
p284
aS'idea fail join server launcher gets stream restart client macbook'
p285
aS'realized something\xe2\x80\xa6 goes deeper'
p286
aS'looks killer getting excited days crawl'
p287
aS'imminent lightning storm possible internet failure going freakingout'
p288
aS'idea tweetbot doesn\xe2\x80\x99t save window layout closed main timeline changes list closed'
p289
aS'made brain hurt haven\xe2\x80\x99t mathed like years'
p290
aS'would happen demo near future cool idea work release light'
p291
aS'problem figured look bottom panel subtle handle pull'
p292
aS'totally love tweetbot client might alpha release super cool keepupthegoodwork'
p293
aS'minecraftdevelopmentmodel used upcoming dayz standalone'
p294
aS'dayz going standalone sticking using minecraft development model'
p295
asS'2012_33'
p296
(lp297
S'diablo setupapp doesn\xe2\x80\x99t even start downloaded account page helps'
p298
aS'idea diablo3 installer won\xe2\x80\x99t open mountainlion would like play repaired permissions'
p299
aS'bored mind month sickleave\xe2\x80\xa6 bored loosingmymind'
p300
aS'mountainlion integrated twitter cool'
p301
aS'idea minecraft crashes \xe2\x80\x9cquit game\xe2\x80\x9d button osxmountainlion'
p302
aS'windows restore timeline instead random list'
p303
aS'insight coords sharing work serverside hiveserver database'
p304
asS'2013_11'
p305
(lp306
S'words brand take reading later'
p307
asS'2011_29'
p308
(lp309
S'second notion crazy gotta love'
p310
aS'purchased super meat version cost justwondering'
p311
aS'core wont work core fine'
p312
aS'getting lion think getting later tonight research'
p313
ag31
aS'backed port mann warned sadface lateforclass'
p314
asS'2011_10'
p315
(lp316
S'classic classy'
p317
asS'2011_12'
p318
(lp319
S'check'
p320
aS'mumford sons good design music'
p321
aS'pffahaha cracketh'
p322
asS'2011_37'
p323
(lp324
S'link supposed'
p325
aS'heading home gonna kill zambies deadisland'
p326
asS'2011_36'
p327
(lp328
S'great thanks info'
p329
aS'whats opinion beta leak play'
p330
asS'2011_31'
p331
(lp332
S'germany facebook'
p333
asS'2011_30'
p334
(lp335
S'vvvvvv youre level awesome'
p336
aS'could minute commute every would dream come true slowtraffic'
p337
aS'alrighty thanks dude'
p338
aS'alright ideas footer stay content right riding 200ish bottom'
p339
aS'damn server acting funny today three times cant connect\xe2\x80\xa6 hows server'
p340
aS'sounds good guys planned release date justwondering'
p341
aS'caved transmit long fetch'
p342
aS'second also really freakin awesome period'
p343
aS'difference relationship usability user experience'
p344
asS'2011_32'
p345
(lp346
S'realized never sent link heres fractal'
p347
aS'fractal using photoshop default brushes'
p348
aS'edward getting best'
p349
aS'color correction'
p350
aS'terraria coming tomorrow'
p351
asS'2011_38'
p352
(lp353
S'nerf endermen block carrying horrible idea'
p354
as.