(dp0
S'2013_42'
p1
(lp2
S'like \xf0\x9f\x98\x92\xf0\x9f\x94\xab\xf0\x9f\x94\xaa\xf0\x9f\x92\xa3notnow notmyday'
p3
aS'happy birthday girl'
p4
aS'ever think stupid things youve done nobody punch face'
p5
asS'2013_43'
p6
(lp7
S'retweet save life'
p8
aS'sometimes wonder worth back things used'
p9
aS'second thoughts late night overthinking really ruins everything whydontyoucareaboutme'
p10
aS'even jealous'
p11
aS'missing like adrenaline'
p12
aS'ready jump cliff right'
p13
aS'wont fall apart falling apart'
p14
aS'someone needs snacks stashed room'
p15
aS'tired care'
p16
aS'many things wanted depressed anything'
p17
aS'could unreasonable omfg'
p18
aS'week like life'
p19
asS'2013_40'
p20
(lp21
S'happened insensitive rude immature'
p22
aS'done week'
p23
aS'ever want outside middle night walk around actually anything observe'
p24
aS'confident failed calc test'
p25
aS'much ambition motivation'
p26
aS'best worlds playing chinese restaurant'
p27
aS'chinese restaurant playing hannah montana'
p28
aS'ready shoot'
p29
aS'pretending don\xe2\x80\x99t feelings anger sadness loneliness literally destroy mentally'
p30
aS'drowning calc tears someone save'
p31
aS'best thing fall fashion whatever want cover slouchy sweater'
p32
aS'trying homework sundays'
p33
aS'even fight still want life'
p34
aS'beyonce documentary homework queenbforever'
p35
asS'2013_41'
p36
(lp37
S'relationship status eating'
p38
aS'probably antisocial person family gatherings'
p39
aS'ahahaha wish never'
p40
aS'basically'
p41
aS'uncomfortable'
p42
aS'literally like three people world hang four hours without wanting'
p43
aS'really fast'
p44
aS'missing summer nights'
p45
aS'wants watch disney'
p46
aS'haha love'
p47
aS'hahaha'
p48
aS'emabarassyourbestfriend'
p49
asS'2013_46'
p50
(lp51
S'everyone check girl beautiful voice'
p52
aS'broke next month hbdmama'
p53
aS'words song start making sense'
p54
aS'late someone religion essay'
p55
aS'donnici said gonna choke jemma bless'
p56
aS'sometimes read warm fuzzy makes even'
p57
aS'movie onrepeat noshame'
p58
asS'2013_47'
p59
(lp60
S'congee lunch good company offcampus bigkids'
p61
aS'still quite distant shit open used least made progress'
p62
aS'physics'
p63
aS''
p64
aS'thanks trace'
p65
aS'potato compared'
p66
aS'courses take become dance lifegoal'
p67
asS'2013_44'
p68
(lp69
S'even though youre seeking always seeking blessed sd2013'
p70
aS'tried surrey ended american border omfg meeting minutes'
p71
aS'princess band blood test today'
p72
aS'builder life please'
p73
aS'actually liked fucked'
p74
aS'fright night chamber voice tomorrow'
p75
asS'2013_45'
p76
(lp77
S'pretend still care even moment please'
p78
aS'whats feel like someone genuinely care'
p79
aS'wanna tell feel pride wont'
p80
aS'wants soup'
p81
aS'want cuddles'
p82
aS'friend dont boyfriend rice dont need side dish'
p83
aS'find gremlin soulmate'
p84
aS'beyonce videos homework dont question priorities'
p85
aS'hope everyones great shittiest ever'
p86
aS'twofaced'
p87
aS'weekend seek sd2013'
p88
asS'2013_24'
p89
(lp90
S'priests sing homily supposed clap'
p91
aS'tired living scared dying'
p92
aS'tagalog love songs repeat foblife'
p93
aS'ever loved someone hate treat'
p94
aS'seeing graders thinking shit littlegremlin'
p95
aS'hell okay still love'
p96
aS'please dont flaunt shit front'
p97
aS'sometimes touch honestys much onrepeat myliferightnow'
p98
aS'safe night'
p99
aS'well isnt great time regret stupid shit done'
p100
aS'cant right front ivealwaysbeen'
p101
aS'thanks greatest laughs'
p102
aS'look gross outside'
p103
aS'ambivalent mixed feelings contradictory ideas someone wordoftheday'
p104
aS'smart kind important thehelp'
p105
aS'kinda happy also really wanna time'
p106
aS'guys bullies'
p107
aS'like princess'
p108
aS'stop please feel left'
p109
aS'bonded tomorrow without'
p110
aS'putting walls cares enough break'
p111
aS'push'
p112
aS'missed chance without knowing'
p113
aS'miss reason laugh'
p114
aS'take back beginning'
p115
aS'cant complain fault'
p116
ag64
aS'kill kill dilemma'
p117
aS'love doesnt walk away people thevow'
p118
aS'excited wrong reasons'
p119
aS'make feel loooveeedddd'
p120
aS'watched walk whole laughed passed twice imnotcreepy sorry'
p121
aS'tweet dont text back'
p122
aS'hurts still want'
p123
aS'tell wrong'
p124
aS'haha stop listening since earlier'
p125
aS'obsessed swear'
p126
aS'crazy'
p127
aS'need self control'
p128
aS'youre welcome'
p129
aS'needs trophy wife trophies'
p130
aS'poems beautiful'
p131
asS'2013_25'
p132
(lp133
S'hungry dont want leave struggleisreal'
p134
aS'bird know shit'
p135
aS'years havent finished legend zelda even guide book'
p136
aS'going slice'
p137
aS'dont need fucking attitude right okay stfu'
p138
aS'favour pretend love'
p139
aS'need pride chicken okay'
p140
aS'suck princess'
p141
aS'tell something sweet'
p142
aS'playing nintendogs studying foundmyds sohappy'
p143
aS'answer isnt options'
p144
aS'explain something dont even understand'
p145
aS'hahahaha ducks yesterday'
p146
aS'ooooh boooy better bring breakfast'
p147
aS'feel like going regret'
p148
aS'pray'
p149
aS'pray think mixed holy words feel ashamed laugh prayers'
p150
aS'raych sometimes miss remember picture like'
p151
aS'study group third wheel'
p152
aS'hatred brown must family nooooo ahmsahryy'
p153
aS'dont love somebody treats like youre ordinary'
p154
aS'answer else mariowontgetit'
p155
aS'know never left canada right'
p156
aS'people look good theres'
p157
aS'currently reading valedictorian speech newspaper soinspirational'
p158
aS'please bring honour aaaalll nope valuevillageadventures'
p159
aS'wipe pawis else'
p160
aS'grow wanna dance moms'
p161
ag64
asS'2013_26'
p162
(lp163
S'much beef didnt know hooolyyy'
p164
aS'heated discussion though'
p165
aS'geeeezzzzzzzz gotta like thaaat'
p166
aS'trio wars choirlyfe'
p167
aS'song makes wanna kill keep listening good song'
p168
ag64
aS'sweaty nervous'
p169
aS'drum lessons'
p170
aS'couldve given world'
p171
aS'minutes rewatching purge already charlieneedstodie lockhimout'
p172
aS'know gonna make'
p173
aS'probably'
p174
aS'know easiest love swear worth'
p175
aS'jealous afraid someone going make happier'
p176
aS'bless soul sisterashley youthminlife'
p177
aS'need forget'
p178
aS'always attending weddings knowing whos getting married'
p179
aS'tell feel fucking mind reader'
p180
aS'bitches complicated fuckkkk'
p181
aS'ready interview wearing frikkin track pants'
p182
aS'stupid grin hear voice'
p183
aS'hahahaha love rach'
p184
aS'friend sorry youre friend'
p185
aS'miss fuck'
p186
aS'cant sort music tomorrow allergic convent itsasign thankyoulord notanunafterall'
p187
aS'never people make lives living hell whowouldyoube'
p188
aS'dont waves missing anymore theyre like tsunami tides'
p189
aS'locked spare keys'
p190
aS'wanting something know youre allowed ltltltltltlt'
p191
aS'like sing sleep forever please'
p192
aS'know read indian'
p193
aS'omfg going shoot dont stop attitude'
p194
asS'2013_27'
p195
(lp196
S'ghetto tripod wetried'
p197
aS'actually indecisive ridiculous'
p198
aS'deserve itried'
p199
aS'text would nice right'
p200
aS'wreck ralph makes everything better fave'
p201
aS'keep blaming shit control'
p202
aS'always problem'
p203
aS'know dont even know already hate'
p204
aS'fucking days everyone busy'
p205
aS'honest wanna find summer love'
p206
aS'hugging helps lower blood pressure'
p207
aS'swaggin downtown twerkin fast bitches pass hoodbound'
p208
aS'quite oblivious person sometimes'
p209
aS'crush sorry'
p210
aS'watching epicmealtime hungry ltltlt poorlifechoices'
p211
aS'toohappy inlove'
p212
aS'fave morning sayings going states'
p213
aS'like selftorture purposely reminisce happiest memories'
p214
aS'jealous bless delusional heart'
p215
aS'love hate'
p216
aS'first okay gtfo cantihavethis'
p217
aS'lets healthy'
p218
aS'getting peoples houses feed well gtgtgt'
p219
asS'2013_23'
p220
(lp221
S'tell love'
p222
aS'youll admit best trophy wife life'
p223
aS'trophy wife youll ever'
p224
aS'best trophy wife youll ever'
p225
aS'thats trophy wife'
p226
aS'roland heart'
p227
aS'well neither care'
p228
aS'well sister dontthinkso'
p229
aS'dont know itll happen gonna love'
p230
aS'tell gonna start playing'
p231
aS'please dont disappointed'
p232
aS'stanleyamptessa randelampdenise lord help awks'
p233
aS'hear bagpipes coming neighbours house'
p234
aS'hate'
p235
aS'yelling doesnt even grad \xf0\x9f\x91\x8caccomplishment'
p236
aS'time waited couldve walked home'
p237
aS'hugs beautiful thing'
p238
aS'happy birthday little brother notactuallyrelated butcares'
p239
aS'purge real'
p240
aS'purge real african tribal dance around burning body'
p241
aS'uuuhhhgg really wanna watch purge someone please come'
p242
aS'slowly killing everyday'
p243
aS'cant help love \xf0\x9f\x92\x81toocharmingforyou'
p244
aS'feel jealous someone elses opens quieter mine ineedthat'
p245
aS'sometimes wonder worth leave house summer dont want'
p246
aS'seeing automatically makes think ways hide already dark'
p247
aS'things dont according plan sawthingsdifferently awfuck'
p248
aS'started bottom even lower'
p249
aS'really worth'
p250
aS'trade soul write exams whatisstudying'
p251
aS'mini wheats gang'
p252
aS'fucking hate shreddies mini wheats'
p253
aS'shreddies'
p254
asS'2013_28'
p255
(lp256
S'wish'
p257
aS'heart goes'
p258
aS'perfectly fine without'
p259
aS'sing please'
p260
aS'bayags chararat foursisters mabuhay'
p261
aS'much effort keep legs hairless summer'
p262
aS'like sing please miss watched crazy like million times'
p263
aS'always cheering loveyousomuch nomatterwhat'
p264
aS'expectations high'
p265
aS'dont hypocrite right please'
p266
aS'analysing people close gets pretty intense sometimes'
p267
aS'people make sense'
p268
aS'remember place keep straight face'
p269
aS'people even like cant even'
p270
aS'kidding anything else wrong right'
p271
aS'someone take please cant deal life anymore'
p272
aS'fucking mood sass'
p273
aS'sorry youre friend worst person ever'
p274
aS'feeling'
p275
aS'timeplay'
p276
aS'lock room next decade'
p277
aS'cause cute girl likes bizarro crap doesnt make soulmate 500daysofsummer'
p278
aS'really good feeling realizing people care'
p279
aS'still waiting someone text confess love'
p280
aS'please dont start another argument'
p281
aS'least problems right goaway'
p282
aS'confuse shit'
p283
aS'blame used anyway'
p284
aS'life next week homeallday'
p285
aS'life teleserye worthy abscbn'
p286
aS'waking hour sleep gtgtgtgtgt beenawhile energized'
p287
aS'change constant well ever know'
p288
asS'2013_29'
p289
(lp290
S'always something wrong'
p291
aS'course knee elbow'
p292
aS'sometimes look window wonder jump count stars choose stars number blessings'
p293
aS'support chamber 2014 wash'
p294
ag64
aS'dont call best friend fucked multiple times someone doesnt give shit'
p295
aS'sorry didnt know everything posted revolved around'
p296
aS'pray alreadymad'
p297
asS'2013_37'
p298
(lp299
S'time'
p300
aS'spent days little horny boys little girls crushes wouldnt squamish2013'
p301
aS'olive garden breadsticks'
p302
aS'excited winter christmas snow presents cuddling holiday music stores skating ahhh'
p303
aS'past days nights relive life elementary student squamish'
p304
aS'great night muchlove'
p305
aS'going shoot glasses tomorrow'
p306
aS'guys darker campsquamish2013'
p307
aS'note self stop getting hopes'
p308
aS'mouth'
p309
aS'like miss anything'
p310
aS'change someones nickname actual name cause youre close anymore'
p311
aS'sorry doesnt everything okay'
p312
asS'2013_36'
p313
(lp314
S'youll always favourite'
p315
aS'like said dont want talk tell leave alone'
p316
aS'news flash still dont like'
p317
ag64
aS'hooked feeling high believing'
p318
aS'problems theyre fault'
p319
aS'happy itll thanks'
p320
ag64
aS'wanna home curl ball cream watch movies'
p321
aS'miss know shouldnt'
p322
aS'first locker life life complete'
p323
aS'good morning hope everyone great first school today'
p324
aS'shes important show'
p325
aS'laugh watching people make food really hungry torture'
p326
aS'thank sometime soon'
p327
aS'thank'
p328
aS'thaank yoou'
p329
aS'shut rachel haha miss much thank miniwheatgang'
p330
aS'contemplating shaving legs hour school tomorrow screwthat'
p331
aS'think deserve still able wear uniform hbdtome'
p332
aS'thank vivs'
p333
asS'2013_35'
p334
(lp335
S'please'
p336
aS'okay official everyone summer except bloody hell'
p337
aS'waking homemade crepes'
p338
aS'wouldnt mind kissed rain right'
p339
aS'victim card isnt working anymore'
p340
aS'trying friendly avoiding'
p341
aS'lost narnia middleofnowhere'
p342
aS'denise'
p343
aS'fest dayzzz'
p344
aS'seriously sleep alarms'
p345
aS'consume inside'
p346
aS'longest border wait life'
p347
aS'like didnt choose life life chose well guess jesus chose yall tell'
p348
aS'really bring walmart iwannadothat'
p349
aS'seriously think forgot walmart'
p350
aS'cant money instead tears'
p351
aS'last thing wanted find'
p352
aS'know hair decide wear'
p353
aS'days gonna roll eyes hard gonna become blind'
p354
aS'nuns hearts burn christ years religious life'
p355
aS'waking someone elses alarm disorientedaf thisisnew turnitoffpls'
p356
aS'going living rock whole summer'
p357
aS'ethan curious'
p358
aS'weekenders proud family marathon \xf0\x9f\x91\x8cdaywellspent'
p359
aS'digital footprint ifeelyatho'
p360
aS'things would easier didnt kind attitude'
p361
aS'summer sleeping patterns'
p362
aS'choose sleep harsh regret'
p363
asS'2013_34'
p364
(lp365
S'jumping conclusions'
p366
aS'probably gonna gain food tent fatprobz'
p367
aS'starting rain tents arent haha'
p368
aS'everyones trying build tents theres caitlin \xe2\x9c\x8cgoteam'
p369
aS'whos happy camper \xf0\x9f\x99\x8bofftojesuscamp'
p370
aS'think packed food clothes trip'
p371
aS'gonna wilderness weekend camping prayforme'
p372
aS'trying teach guitar lesson strum feeling follow feeling'
p373
aS'sorry call waiting'
p374
aS'mentally calculate number hours sleep slept right waking certain time ltltlt'
p375
asS'2013_33'
p376
(lp377
S'juice banana'
p378
aS'havent butterflies like'
p379
aS'forgot never works'
p380
aS'seriously hard optimistic right'
p381
aS'want rich boyfriend things much'
p382
aS'glee reruns'
p383
aS'lumpia pancakes breakfast thanks'
p384
aS'someone save bring coffee please dying'
p385
aS'tita rias whip today unprepared wingingit'
p386
aS'mood give'
p387
aS'spray paint skirt likealady'
p388
aS'night willing talk happening'
p389
aS'alway promise actually going keep'
p390
asS'2013_32'
p391
(lp392
S'careful someone shattered pieces'
p393
aS'feel like dont even know anymore'
p394
aS'disappearing done poorly ever right you\xe2\x80\x99ll miss sorely\xe2\x80\x9d'
p395
aS'note self keep expectations dont'
p396
aS'wish knew play guitar'
p397
aS'shady'
p398
aS'started morning dropping contact toilet justgreat'
p399
aS'feeling think cant anything help someone care'
p400
aS'need dubstep love'
p401
aS'dont remember last time slept night shit'
p402
aS'camp leaders kuya camplepprobs'
p403
aS'puzzles sofrustrated'
p404
aS'nothing better family bonding time'
p405
aS'late night baseball game baseballstar'
p406
aS'people believe tell half black dark'
p407
aS'minutes dead'
p408
aS'first school wonder whos class walks class youve fucking kidding'
p409
asS'2013_31'
p410
(lp411
S'whats whats wrong sound depressed answer phone something'
p412
aS'could start something neeewww'
p413
aS'arthur made student hahaha'
p414
aS'data like theres limit'
p415
aS'fucked sees phone bill'
p416
aS'wants teach play baseball'
p417
aS'staying faithful someone isnt even'
p418
aS'voice never fails make smile gtgt'
p419
aS'cream movie always good plan rainy day\xf0\x9f\x91\x8cmetime'
p420
aS'busted'
p421
aS'always trouble nowadays'
p422
aS'probably interesting night summer'
p423
aS'running flights stairs think reversegrousegrind'
p424
aS'things keep getting awkward like unawks'
p425
aS'gabe bondoc'
p426
aS'jealous biggestlie guilty'
p427
aS'punching'
p428
aS'humble'
p429
aS'text without sounding like youre flirting whoreproblems'
p430
aS'would relationship advice imsisterashley'
p431
aS'disappointing'
p432
aS'went data limit fuck life'
p433
aS'doesnt trust friends anymore shit finds even clean house'
p434
aS'fucked holy'
p435
aS'know youre special data'
p436
aS'making poor life choices whats'
p437
asS'2013_30'
p438
(lp439
S'bird pooped lucky'
p440
aS'made'
p441
aS'fangirling thank much'
p442
aS'tried'
p443
aS'someone distract thoughts'
p444
aS'feels like good time swim'
p445
aS'sometimes check wrist time never wear watches'
p446
aS'excuse rest life'
p447
aS'last push would make difference'
p448
aS'save money doesnt exist'
p449
aS'shades idea'
p450
aS'rereading messages ltltltlt'
p451
aS'sadurday'
p452
aS'fucking torture'
p453
aS'guess really good'
p454
aS'cant choose fall'
p455
aS'love mere memories'
p456
aS'trying find glasses hard fuck cant'
p457
aS'running reasons wait'
p458
aS'dont make promises dont intend keeping gotmyhopesup'
p459
aS'idea'
p460
aS'emotional instability turn'
p461
aS'really regret summer camps year'
p462
aS'take contacts youre drunk'
p463
aS'maybe right saying would ever love pathetic wreck like'
p464
aS'pretend victim care'
p465
aS'guys bachelorette sassier thebachelorette mentellall'
p466
aS'save room looovee'
p467
aS'battle wounds hurt like bitch today worth whatbrake sore'
p468
aS'hawaii something youre dark neverleft bornthisway'
p469
asS'2013_39'
p470
(lp471
S'missin like crazy'
p472
aS'cold outside craving'
p473
aS'sundays'
p474
aS'dear lord thank amazing people today blessed'
p475
aS'keener life 20minutesearly'
p476
aS'know youre fine'
p477
aS'hate pamplemouses'
p478
aS'tinatina come home'
p479
aS'miss tinatina french dont wanna play game anymore'
p480
aS'gerda punched morning godhelpus'
p481
aS'dont enjoy ignored okay'
p482
aS'tita made karekare bless'
p483
aS'ever trouble test write \xe2\x80\x9cjesus\xe2\x80\x9d answer jesus always answer bless'
p484
aS'guys megan delfin deserves leading whole alto section'
p485
aS'dont text first probably wont talk really sucks kinda miss'
p486
aS'don\xe2\x80\x99t really know stand people\xe2\x80\x99s lives minute treat like someone special nothing'
p487
asS'2013_38'
p488
(lp489
S'thought things like better time still need'
p490
aS'words wont matter dont feel'
p491
aS'never didnt make effort'
p492
aS'cute'
p493
aS'awkward moment dont know youre good terms someone'
p494
aS'really need right know wont make time'
p495
aS'harsh wheeling'
p496
aS'honest stay away difficult'
p497
aS'cant wait cloudy chance meatballs'
p498
aS'deleting 3000 photos ios7this better worth'
p499
aS'worstest person ever worstest ever'
p500
aS'need shit together'
p501
ag64
aS'tell worth anymore still find trying'
p502
aS'decisions need made sweetheart wont wait forever'
p503
aS'bless child'
p504
aS'sorrryyyyy'
p505
aS'yeah sorry still give tomorrow'
p506
aS'would give someones favourite person'
p507
aS'moms calling room something'
p508
aS'school'
p509
aS'love least deserve thats really need'
p510
aS'conjuring'
p511
as.