(dp0
S'2012_49'
p1
(lp2
S'youre reason recovering reason stop course fallen wagon couple times'
p3
aS'really upset reason'
p4
asS'2012_48'
p5
(lp6
S''
p7
asS'2012_45'
p8
(lp9
S'feeling like gonna'
p10
aS'truth'
p11
asS'2012_44'
p12
(lp13
S'anyone else stuck storm kayaking street exercise life guard could'
p14
aS'sorry havent tweeting lately feel like people dont want around'
p15
asS'2012_47'
p16
(lp17
S'plot twist finally thin beautiful inside'
p18
aS'kills someone beautiful dont deserve'
p19
aS'thanks follow hope enjoy tweets welcometweet'
p20
aS'annoying'
p21
aS'school become struggle'
p22
aS'love picture credit wordshirt'
p23
aS'want lose pounds'
p24
aS'thank much'
p25
aS'hungry still'
p26
aS'learn stop need stop eating'
p27
ag7
aS'hate people accidentally cuts'
p28
aS'almost like even realizes broken'
p29
aS'heresto'
p30
aS'ready bawl eyes'
p31
aS'surprised havent'
p32
asS'2013_49'
p33
(lp34
S'think youre fucking smart youre'
p35
aS'bones probably crushed weight'
p36
aS'cant stand'
p37
aS'voicesave james'
p38
asS'2014_11'
p39
(lp40
S'keyboard bolder update'
p41
asS'2013_24'
p42
(lp43
S'everyone beautiful'
p44
asS'2013_25'
p45
(lp46
S'fuck'
p47
aS'really head ache'
p48
aS'everytime step scale'
p49
aS'cookies gonna seem like great idea youre standing front mirror'
p50
aS'people compliment assume theyre lying'
p51
aS'always thoughts best'
p52
aS'needing socially anxious'
p53
aS'lost'
p54
aS'gotta loose weight afraid effing body even though'
p55
aS'cross line cant deal change'
p56
aS'cross line keep youre youre scared people think\xe2\x80\xa6'
p57
aS'could curl ball without hurting anyone without anyone realising would great'
p58
aS'still suicidal thoughts every single wont wont'
p59
aS'want dont want commit suicide'
p60
aS'scared tell okay'
p61
aS'wish thinner legs tiny waist'
p62
asS'2013_46'
p63
(lp64
S'love'
p65
asS'2012_24'
p66
(lp67
S'something keeps holding nothing'
p68
asS'2012_20'
p69
(lp70
S'treatment recovery supposed mean hope happiness future feel like life'
p71
aS'fuckin depressed seem slump could hump'
p72
aS'feel like everytime look mirror'
p73
aS'fuck everyone'
p74
ag7
asS'2012_46'
p75
(lp76
S'anytime'
p77
ag7
aS'liked'
p78
aS'keep fucking eating failure'
p79
ag7
aS'love'
p80
aS'hate'
p81
aS'sorry ltltlt sorry beyoure sick sick bully people depression self'
p82
aS'self harm johnny depp would angelina jolie would demi lovato would princ'
p83
aS'demi would rather raise awareness bullying self harm eating disorders bring clothing line perfum'
p84
aS'cross line youre fine telling strangers self harm cant bear tell family friends'
p85
aS'selfesteem'
p86
aS'like twitter eyes cant open'
p87
aS'failure'
p88
aS'dead youre eddepressionanxietyselfharmsuicidal account follow'
p89
aS'experienced thought self harm anorexia something'
p90
aS'cross line know like scared hurt himher find'
p91
aS'tumblr full self harm pictures nothelpful'
p92
aS'craving leads binge binge leads weight gain weight gain leads depression depression leads self harm'
p93
aS'self harm want follow'
p94
aS'cross line youre paranoid time someone find self harm'
p95
aS'never understand like selfharm unless youve dont talk'
p96
aS'people self harm'
p97
aS'anybody needs help depression self harm anything else please'
p98
aS'used self harm strongest things someone'
p99
aS'everyone laughed girl class today confessing knows didnt laugh'
p100
asS'2014_19'
p101
(lp102
S'mothers hard give someone already given everything'
p103
asS'2014_15'
p104
(lp105
S'cant believe weeks till nugget leaves\xf0\x9f\x98\xad'
p106
aS'person everything make bree proud'
p107
aS'really thank people'
p108
aS'well thats goodbye'
p109
aS'literally going writing college summer\xf0\x9f\x98\xad futuremarine dontgo'
p110
aS'cunt'
p111
asS'2014_17'
p112
(lp113
S'starting brother cousin wont like month'
p114
asS'2013_9'
p115
(lp116
S'want thin'
p117
ag7
aS'need anon confide'
p118
ag7
aS'want tattoo'
p119
aS'sorry arent order'
p120
aS'probs gonna even cares'
p121
asS'2013_8'
p122
(lp123
S'feel utterly shit'
p124
asS'2014_12'
p125
(lp126
S'youre pretty skyline december 31st\xf0\x9f\x98\x98'
p127
asS'2014_13'
p128
(lp129
g7
asS'2012_8'
p130
(lp131
S'done'
p132
aS'hate home easy hate binged chocolates'
p133
ag7
asS'2012_4'
p134
(lp135
S'miss treated like princess'
p136
aS'sitting breaking care'
p137
aS'problem weve made direct link minds thin happy ironic'
p138
aS'able hands around parts legs goodtimes'
p139
aS'craving affection'
p140
aS'starve never happy feel like never thin'
p141
aS'repulsive'
p142
aS'give everything nothing back return'
p143
aS'wanna fucking stab'
p144
aS'blame'
p145
ag7
aS'wish people knew didnt'
p146
aS'someone complains hungry hours want scream havent eaten days'
p147
aS'opened fridge cried imnotstrongenough'
p148
aS'started sucking tummy'
p149
aS'iusedtothink good looking cant even look'
p150
aS'miserableand'
p151
aS'wish thighs wouldnt touch'
p152
aS'youre fucking bitch'
p153
aS'finally myhip bones gettingthere slowly'
p154
asS'2012_6'
p155
(lp156
S'fuck much'
p157
aS'screaming thin body screaming shut fuck'
p158
aS'promising last time next'
p159
asS'2012_7'
p160
(lp161
S'sister rubs face every goddamn shes thin pretty would kill look like neve'
p162
aS'went size jean half year took weeks back notfair'
p163
aS'boyfriend doesnt understand binging purging'
p164
aS'binging week needtopurge'
p165
aS'youre account follow need people timeline'
p166
asS'2012_2'
p167
(lp168
S'comparing size every person walk past'
p169
asS'2012_3'
p170
(lp171
S'always find hurt feelings'
p172
aS'start least'
p173
aS'school look girls skinnier'
p174
aS'wanna feel pain need right'
p175
aS'want make dramatic change body make dramatic change caloric balance'
p176
aS'wanna weigh nothing'
p177
aS'adele overweight really exactly runway modelling shes singer shut'
p178
aS'thingsthatpleaseme youve lost weight'
p179
aS'like eating disorder'
p180
asS'2012_16'
p181
(lp182
S'cutcutcutcutcutcutcutcut'
p183
aS'sick seeing skinny people'
p184
aS'good diets guys'
p185
aS'deserve better know much dont want'
p186
aS'celery watermelon negative calories'
p187
aS'cutting school always pleasant'
p188
aS'cant wait skinny'
p189
aS'legs touch fuck'
p190
aS'people happy friends social life theres'
p191
aS'good morning skinnieslt3'
p192
aS'people dont deserve'
p193
aS'boyfriends little going home cutting youstopdoingthis'
p194
aS'look perfect maybe overlook unperfect really'
p195
aS'messagee backk friendlt3'
p196
asS'2012_17'
p197
(lp198
S'hate break isnt even mine'
p199
aS'meee'
p200
asS'2012_14'
p201
(lp202
S'youre horrible person'
p203
ag7
aS'message talk love'
p204
aS'would'
p205
aS'fucking bitch fall back worth cant find'
p206
aS'cant force love want youll make realize lost'
p207
aS'tonights night leaving'
p208
aS'wanna fucking kill'
p209
aS'sleep cutting push love'
p210
aS'want follow want tweeters'
p211
aS'alone surely cutting'
p212
aS'crying'
p213
aS'haven\xe2\x80\x99t eaten plan keeping stayingstrong'
p214
aS'youve ever called'
p215
aS'fully decided going kill wanttofeelhappyagain'
p216
aS'contemplating suicide'
p217
aS'insane realize alone actually'
p218
aS'guess dont appreciate'
p219
aS'always crying'
p220
aS'fucking'
p221
aS'fucking swear'
p222
aS'ughh'
p223
aS'ouch ignoring'
p224
aS'falling love falling apart need find back start'
p225
aS'early start morning loveit staystrong skinnies'
p226
aS'boyfriend perfection worthless dont deserve'
p227
aS'lose pound average person must burn 3500 calories'
p228
aS'feel bloated feel depressed dont want anything except stay'
p229
aS'couples tweet stuff twitter dying jealousy jealous'
p230
aS'cant take advice imsosilly'
p231
aS'love people happylt3'
p232
aS'jealous everyone everything site gain pound even look food'
p233
aS'reasonstoloseweight people stop thinking much truth probably less people'
p234
aS'lovelt3'
p235
aS'thingsigetalot youre prettylmfao'
p236
aS'feeel horrible girll'
p237
aS'youre trouble'
p238
aS'follow back message explain'
p239
aS'nobody ever replace heart nobody'
p240
aS'youknowwhatsannoying insecure worst thing world wish stronger confident'
p241
aS'fuck'
p242
aS'exactly feelings'
p243
aS'please dont wake tomorrow'
p244
aS'wonder many people tried selfharm'
p245
aS'fucking cares'
p246
asS'2012_15'
p247
(lp248
S'thats sweetlt3'
p249
aS'talk came text'
p250
aS'exciting'
p251
aS'dont tell eyes 2that number scale proves sickofit ineedtoloseaga'
p252
aS'cross line youre love someone would never love back'
p253
aS'really think like hope like'
p254
aS'someone better'
p255
aS'moving something better'
p256
aS'fuckyoufuckyoufuckyou'
p257
aS'youre obviously fucking busy'
p258
aS'youre everyone'
p259
aS'couldnti could never silly'
p260
aS'feel like might like thisiscrazy'
p261
aS'anorexia killing okay dying least remembered beautiful always'
p262
aS'slow attempt suicide least wouldnt make failure killed'
p263
aS'friends shouldnt know someone like save burden'
p264
aS'describes life'
p265
aS'cant public without feeling'
p266
aS'deep fuck'
p267
aS'textme'
p268
ag7
aS'let\xe2\x80\x99s starve little shall'
p269
aS'told reason yelling complain nothing'
p270
aS'uggghhh'
p271
asS'2012_12'
p272
(lp273
g7
aS'girls cant anymore boyfriend dumped cant much'
p274
aS'feel disgusting'
p275
aS'10thingsyoucoulddoforme hugs kisses need'
p276
aS'hope lost fasting today'
p277
aS'160lbs know alone comfortable course'
p278
aS'size thighs make want'
p279
aS'people disgusting actually society'
p280
aS'cause everytime tell fasting always binging'
p281
aS'fuck dinenr'
p282
aS'fasting today'
p283
aS'wanted someone care'
p284
aS'fucking cares going theres choice'
p285
aS'going kill care anyways'
p286
aS'wish friends'
p287
aS'else fasting today lets stick together anasisters'
p288
aS'want person faith'
p289
aS'feel fatter ever'
p290
aS'call probably starve'
p291
aS'going insane sitting around'
p292
aS'fucking done'
p293
asS'2013_50'
p294
(lp295
S'pretty suicidal'
p296
asS'2012_10'
p297
(lp298
S'addicted pain tears cause theyre drug'
p299
aS'anymore'
p300
aS'glad hurt dont hurt'
p301
asS'2014_6'
p302
(lp303
S'esurancesave30'
p304
asS'2012_50'
p305
(lp306
S'crying'
p307
asS'2012_51'
p308
(lp309
S'sure fuck wrong withy'
p310
asS'2014_3'
p311
(lp312
S'need like needle needs vein'
p313
aS'wanna stop worrying things thats happen worry'
p314
asS'2013_13'
p315
(lp316
S'tweetaphotowithoutlooking'
p317
aS'finished impulse ellen hopkins cried eyes great suicide book'
p318
aS'anorexic bulimic diet restrict exercise excessively expected'
p319
aS'anytime'
p320
aS'want flat waist want flat stomach want skinny arms want skinny legs want tall height want light weight'
p321
aS'good books self harmeds'
p322
aS'please'
p323
aS'hate lied straight face know every truth'
p324
aS'havent felt shitty long time'
p325
aS'youre account follow'
p326
aS'feel'
p327
aS'wonder ever thinks probablynot'
p328
ag7
ag7
aS'things want lose weight'
p329
aS'start strong wanting take first bite fucked want'
p330
aS'dont tell understand'
p331
aS'love tear apart'
p332
aS'nearly'
p333
aS'need thigh collar bones flat stomach bones please thank'
p334
aS'twittermademerealize everyone relate going things live stat'
p335
aS'want scream'
p336
aS'never friends someone fell love'
p337
aS'believe every single please know whenever anything back'
p338
aS'anorexiathreats tell parents made'
p339
aS'basically family right'
p340
aS'main point music actually saved'
p341
aS'people telling youre ugly good enough start believe'
p342
aS'dear self please stay strong please less please please please skinny soon thinspo'
p343
aS'tired hating want feel beautiful know cant feel beautiful unless'
p344
aS'committed hope stay think'
p345
aS'mirror mirror'
p346
aS'exactly'
p347
ag7
aS'rtfav youve bullied weight'
p348
aS'need skinny least weigh much less july family party hours'
p349
aS'price skinny'
p350
aS'thing hurts says used happy used smile happened'
p351
aS'wish size thats goal'
p352
aS'inner battles hardest'
p353
aS'feel dead alive'
p354
aS'still used getting asked pictures'
p355
aS'always smell sick clothes wonder'
p356
aS'ever confused actually mumble really high\xe2\x80\x9d'
p357
aS'need loose weight'
p358
ag7
aS'sick body'
p359
aS'cant'
p360
aS'tell difference girls show flesh respect girls show flesh'
p361
aS'weartwloha everyday story'
p362
aS'weartwloha connect people bring hope wearing twloha shows survivor'
p363
aS'wanna meet inspiration'
p364
aS'tweet people like alone hate feeling lonely'
p365
aS'forgetting isnt easy'
p366
aS'everyday'
p367
aS'cant'
p368
aS'soul haunting telling everything fine wish dead'
p369
ag7
aS'depression like either trying'
p370
aS'depression'
p371
aS'tries hide pain'
p372
aS'reality'
p373
aS'suicide hotline 18002738255 please might save someones life'
p374
aS'tears streaming face make smeared finally world broken made'
p375
aS'relapseeee'
p376
aS'kwon teacher fucking nerve okay picture posted facebook'
p377
aS'suicidal much coward actually'
p378
aS'diet weightloss thinspiration proed posting behalf proanam back next week'
p379
aS'diet weightloss thinspiration proed posting behalf proanam back next week'
p380
aS'diet weightloss thinspiration proed posting behalf proanam back next week'
p381
aS'diet weightloss thinspiration proed posting behalf proanam back next week'
p382
aS'hate edproblems anorexia'
p383
asS'2013_14'
p384
(lp385
S'boyfriend pussy'
p386
aS'ready lead grown life'
p387
aS'find comfort purging fuckedup'
p388
aS'anytime skinnylt3'
p389
aS'want chocolate make pollute insides full disgusting calories need'
p390
ag7
aS'losing weight perfect priority'
p391
aS'skinnies follow instagram'
p392
aS'feel huge ughghgh'
p393
aS'accept compliments hard dont know youre stressing anything'
p394
aS'true'
p395
aS'love whit picture'
p396
aS'cant wait start diet whit'
p397
aS'nobody loves'
p398
aS'learning german planning meal tomorow trying stay strong'
p399
aS'suicide note goodbye world'
p400
aS'heres little name diagnosed major depression'
p401
aS'never'
p402
aS'thinspo'
p403
aS'stake goes'
p404
aS'whenever upset scratch wrists'
p405
aS'worst back pains probably'
p406
asS'2013_30'
p407
(lp408
S'dear crush message 40mins later want reply even angry wont long sincerel\xe2\x80\xa6'
p409
aS'hate'
p410
aS'sorry'
p411
aS'sorry dishonest lazy goodfornothing daughter'
p412
asS'2012_35'
p413
(lp414
g7
asS'2012_30'
p415
(lp416
g7
asS'2012_13'
p417
(lp418
S'cant take lows barely survive highs'
p419
aS'gain weightthen dont couple days hardcore workouts obsessively'
p420
aS'hate walking hips sides seats'
p421
aS'depressing moment someone tells make list things love cant think'
p422
aS'dont know going tell people cuts tomorrow'
p423
ag7
asS'2013_51'
p424
(lp425
S'nothing triggering boyfriend reblogging photos super thin models tumblr'
p426
aS'think drawing draw like express thoughts yeah'
p427
ag7
asS'2011_52'
p428
(lp429
S'gained punishment starts food weeks'
p430
aS'shut fuck'
p431
as.