(dp0
S'2013_42'
p1
(lp2
S'moms brave things including laundry join community laundry initiative laundryforafrica'
p3
asS'2013_43'
p4
(lp5
S'downloaded free ebook exponential missional discipleship church planting'
p6
asS'2009_29'
p7
(lp8
S'reading blue lines goes print finding things thats okay want right first time'
p9
aS'thanks keeping updated guys'
p10
aS'favorite people'
p11
aS'okay brand twitter'
p12
asS'2009_28'
p13
(lp14
S'reading twitter wont completely ignorant writers especially kathy hardee'
p15
asS'2013_46'
p16
(lp17
S'quiet prayer doesnt always storm always steadies storm passes'
p18
aS'dont panic pray dont worry worship dont give grow'
p19
aS'focus unhappy philippians'
p20
aS'seen growth comes suffering blessing giving obeying honor serving victory surrendering'
p21
asS'2013_47'
p22
(lp23
S'warner press filled boxes operation christmas child year blessed blessing'
p24
aS'choose live simply others simply live quote shared months mind heart every wwjd'
p25
aS'praying family loss father gods best'
p26
asS'2009_47'
p27
(lp28
S'words song amazed wonderful song wonderful amazing thank lord'
p29
aS'woke words dance unaware sing around never hear sound lord amazed'
p30
aS'impoverished blessing children unlimited resources depleted lavishly blesses'
p31
aS'listening christmas music write copy easter stuff weeks crazy mixed schedule'
p32
aS'wont listen christmas music friday thanksgiving taking enjoy rest weekend cabin'
p33
aS'found morning susans cancer returned shes home china please pray susan'
p34
asS'2009_40'
p35
(lp36
S'webinar kidslit publishingselling books online'
p37
aS'watching webinar mark blevisgreg pincus'
p38
asS'2011_13'
p39
(lp40
S'worth wait'
p41
asS'2009_48'
p42
(lp43
S'knee trying sleep cant'
p44
asS'2010_51'
p45
(lp46
S'sports active hope shape since uses bands good arthritis'
p47
aS'entered wish list fantastic selection holiday gifts'
p48
aS'mark 1124 therefore tell whatever prayer believe received'
p49
asS'2012_43'
p50
(lp51
S'pitiful example small small great narcissist much like potus take hike'
p52
asS'2011_14'
p53
(lp54
S'peyton manning twins peyton manning wife welcome twins fox59com'
p55
asS'2013_26'
p56
(lp57
S'updated professional profile linkedin connect view profile'
p58
asS'2011_6'
p59
(lp60
S'getting free download skeleton bones tweet4track'
p61
aS'downloading reaching free tweet4track'
p62
aS'downloading music desperation band free tweet4track'
p63
aS'downloading cross tweet4track'
p64
aS'downloading second chances carlos whittaker free tweet4track'
p65
aS'moving forward downloading free tweet4track'
p66
aS'downloading everybody needs little free tweet4track'
p67
aS'check krissy nordhoff'
p68
aS'free music wants know better serve events complete survey cont'
p69
asS'2013_18'
p70
(lp71
S'salonpas pain patches work better anything else trust'
p72
aS'interesting sound useful however none work'
p73
asS'2009_45'
p74
(lp75
S'failsafe zondervan'
p76
asS'2012_25'
p77
(lp78
S'done today show replaced women replaced'
p79
asS'2009_44'
p80
(lp81
S'catalogsa necessary part business work proofing proofing proofing'
p82
asS'2013_6'
p83
(lp84
S'worship leader stage shot spotlight privilege responsibility magnify'
p85
aS'enough fears doubts bring honestly dont shrink next'
p86
aS'prayer forging connection specific points human needs resources'
p87
aS'account every sheep chose follow need make sure leading'
p88
aS'many people telling think instead think'
p89
aS'playing subwayr footlongtm frenzy chance free footlongstm life rules subwayfan'
p90
asS'2013_1'
p91
(lp92
S'glad enjoyed'
p93
asS'2010_12'
p94
(lp95
S'worship equals obedience style music style living'
p96
aS'yeah dilly bars coffee need help robin missed since went home without saying goodbye'
p97
asS'2012_8'
p98
(lp99
S'wpkidshouse'
p100
aS'best social media stories shoot'
p101
asS'2010_25'
p102
(lp103
S'angie broken bones punctured lung grateful sore sprained muscles scrapes said helmet saved'
p104
aS'angie bike accident please pray'
p105
aS'pizza love years cheese know really love love cheese'
p106
aS'waiting books come inventory chrissies shell petunia pepper2 sweet stories warner presskidslit'
p107
asS'2012_5'
p108
(lp109
S'books'
p110
aS'woohoo hardly wait missed books'
p111
aS'news henderson back author count october 2012 begin'
p112
aS'courage panic prays courage bemoan believes fearless'
p113
aS'cant wait thevoice teamblake'
p114
aS'setting released colts sounds like'
p115
aS'uniquely meet certain godgiven needs spouse marriage'
p116
asS'2010_27'
p117
(lp118
S'catalyst leadership digital magazine connecting next church leaders'
p119
asS'2012_7'
p120
(lp121
S'wished harbinger ancient mystery holds secret americas future'
p122
asS'2010_21'
p123
(lp124
S'girl john locke would great'
p125
asS'2012_2'
p126
(lp127
S'found toolbox check'
p128
aS'zonderkidz releasing amazing resource based jesus storybook bible jsbcurriculum\xe2\x80\x9d'
p129
asS'2010_22'
p130
(lp131
S'stand franklin graham billy graham team stating christian love lord proud'
p132
asS'2009_38'
p133
(lp134
S'thanking giving exact words needed hear sundayput garment praise spirit heaviness'
p135
asS'2012_17'
p136
(lp137
S'porterhouse'
p138
asS'2012_11'
p139
(lp140
S'c3kids c32010 first baptist orlando october'
p141
asS'2009_30'
p142
(lp143
S'entered free long plays backgrounds cdrom'
p144
aS'perspective suffering'
p145
aS'heard joni radio last week allows hates order accomplish loves even suffering death jesus'
p146
aS'enjoyed devotions morning psalm fearfully wonderfully made'
p147
asS'2009_31'
p148
(lp149
S'husband bought thot nuts works great lots water basement great around'
p150
aS'thinkg publishing kids clipart book pass\xc3\xa9 downloads'
p151
aS'rather ignorant hope learn acquainted friends reading crazy love check'
p152
aS'especially loved chelyabinsk russia since daughter angie year people remembered great people'
p153
aS'home practicing worship team sundays worship good paul brenda back weeks ghana russia'
p154
aS'always bothered much bothers could certain really read emails'
p155
asS'2009_32'
p156
(lp157
S'amen brother glad youre aware saying aloud people ministry dont learn practice'
p158
asS'2009_35'
p159
(lp160
S'changed twitter background check found'
p161
asS'2013_11'
p162
(lp163
S'worship salvation lived lifestyle choose honor whole life'
p164
aS'sent picture curly fries cricket loves snaxt snaxt'
p165
aS'fathers plea honor daughters memory died rare bone disorder please help'
p166
aS'minutes encore presentation thebible begins youre tuning'
p167
asS'2013_12'
p168
(lp169
S'egermeier\xe2\x80\x99s bible storybook egermeier netgalley'
p170
asS'2013_31'
p171
(lp172
S'special vets call benghazi coverup'
p173
asS'2012_35'
p174
(lp175
S'nexus loaded titles plus books authors'
p176
asS'2012_32'
p177
(lp178
S'youll known problems solve'
p179
aS'asking empower sunday'
p180
aS'first tweet years sure scary second'
p181
aS'leadership summit ksummit fantastic affirming ministry learning much'
p182
asS'2012_33'
p183
(lp184
S'gospels primary result make people good dead people alive'
p185
aS'stephen hill remembered'
p186
aS'make whatever you\xe2\x80\x99re grow make grow live please live'
p187
aS'miss'
p188
aS'relax today gods handsstop trying love others vertical sideways 4610 cease striving'
p189
asS'2010_26'
p190
(lp191
S'back angie please pray'
p192
aS'warehouse getting ready make popcorn'
p193
asS'2011_1'
p194
(lp195
S'love'
p196
aS'like thinking girlfriend'
p197
asS'2010_10'
p198
(lp199
S'great capability youre traveling works really well tether check'
p200
aS'purchased tether blackberry allows hook laptop internet access'
p201
aS'want free smartphone tether'
p202
asS'2010_11'
p203
(lp204
S'thanks updates wayne well keep prayingthe best thing hope rest tonight'
p205
asS'2010_38'
p206
(lp207
S'check video thats king lockridge official'
p208
asS'2013_34'
p209
(lp210
S''
p211
asS'2010_15'
p212
(lp213
S'find little story'
p214
asS'2010_16'
p215
(lp216
S'brought tearsgood tearsits powerful'
p217
aS'working home readingediting hunter brown sitting deckn getting read good cant wait'
p218
asS'2010_17'
p219
(lp220
S'area everything lovehillsmountainsbeachespalm treesjust around beautiful'
p221
aS'right beside girlfriend enjoyed meeting oldest girls saturday'
p222
aS'beautiful love diego california'
p223
asS'2010_33'
p224
(lp225
S'hunter browm ends releasing 11111 dont miss'
p226
aS'finished editing 386page hunter brown book 3eye ends bawled twice last chapters best good miller brothers'
p227
aS'enough cash lunch check leftsent bank lunch hostage garfields'
p228
aS'embarrassing moment several years went lunch daughter ready bill oops debit card home shorts pocket'
p229
asS'2013_17'
p230
(lp231
S'downloaded free exponential 2013 live webcast program book church planting missional discipleship'
p232
aS'picture brought indescribable photo pope francis first'
p233
aS'free webcast exponential 2013 national speakers register missional discipleship church planting'
p234
aS'content place lord learn believe live share'
p235
asS'2010_35'
p236
(lp237
S'praying iris aunt micky charlotte'
p238
aS'awake earlyon vacationyea'
p239
as.