(dp0
S'2013_42'
p1
(lp2
S'cruz looser'
p3
aS'media need stop calling obama care land party repeal cruz lunatic'
p4
aS'crossfir'
p5
aS'john boenher needs crack pipe smoking afraid loosing speaker positions afraid party'
p6
asS'2013_40'
p7
(lp8
S'unemployed veteran pass clean bill companies back highering'
p9
aS'justest african american mississippi without health care republicans'
p10
aS'website launched glitches servers whelm much input data consumers'
p11
aS'boehner worry passing clean instead political career'
p12
aS'navy seals always complete mission alshaabab leader faith sealed'
p13
aS'navy brothers team world accomplish type missions'
p14
aS'diagnosed ptsd republicans pass clean claim process'
p15
aS'diagnosed ptsd claim today republicans really care veterans think'
p16
aS'thank helping veteran overdue'
p17
aS'house speaker boenher like jellyfish spine'
p18
aS'hispanics voices herd 2014 swing votes elections republicans loose house'
p19
aS'racism goes president even hispanic republicans time history'
p20
asS'2013_41'
p21
(lp22
S'republicans going tank 401k boenher doer enough cahuna stand right american people'
p23
aS'show shows msnbcmsnbc'
p24
aS'retired veteran appalled solders recognized putting lives freedom'
p25
aS'thank outstanding reporting around world encourage wife push forward career'
p26
asS'2013_47'
p27
(lp28
S''
p29
ag29
asS'2013_44'
p30
(lp31
S'need check rafael cruz documents make sure legally racist'
p32
aS'cruel'
p33
asS'2013_48'
p34
(lp35
g29
aS'immigration bill latinoshow french canadians living england illegally'
p36
asS'2013_37'
p37
(lp38
S'hearts family lost everything work hard'
p39
aS'massachusetts'
p40
aS'burnett'
p41
aS'whats'
p42
asS'2013_39'
p43
(lp44
S'hope unemployed minority veteran chance civil service qualifications'
p45
aS'thank obama care unemployed veteran children preexisting condition piece mind care'
p46
ag29
aS'minority unemployed veteran twice hard getting even civil service'
p47
aS'going employ veterans talk cutting troops military outsourcing jobs nafta'
p48
aS'first time seen show appreciate talking facts watching show'
p49
aS'unemployed veteran children preexisting condition piece mind know going health care'
p50
asS'2014_38'
p51
(lp52
S'jbdnow immigrantion work broken senate'
p53
as.