(dp0
S'2013_42'
p1
(lp2
S''
p3
asS'2013_43'
p4
(lp5
S'baby'
p6
asS'2013_40'
p7
(lp8
S'evening'
p9
aS'quickly burn inches stomach losing less 1month'
p10
aS'download opera mini help blackberry chance'
p11
ag3
asS'2013_46'
p12
(lp13
S'morning'
p14
aS'great'
p15
aS'good'
p16
aS'night'
p17
asS'2013_44'
p18
(lp19
S'people hope'
p20
asS'2013_45'
p21
(lp22
S'thank g\xcc\x85\xcc\xb2\xcc\xb6\xcc\xa5\xcc\x8a\xc6\xa1\xcc\xa3\xcc\xa5d\xcc\x85\xcc\xb2\xcc\xb6\xcc\xa5\xcc\x8ahow weekend'
p23
ag3
aS'lady beat'
p24
asS'2012_47'
p25
(lp26
g3
asS'2012_43'
p27
(lp28
S'today hope fine living like picture want 2213c191'
p29
aS'instantfollowback'
p30
asS'2012_42'
p31
(lp32
S'thank 2day'
p33
aS'hello baby today hope youre fine kunlexyz connect together 2213c191 2348074030901'
p34
aS'hello baby want'
p35
aS'hello baby today hope fine'
p36
aS'mtnng'
p37
aS'hello friend'
p38
asS'2013_26'
p39
(lp40
S'help call lady becky love her08061193324 kunle burblek pull'
p41
aS'\xee\x9a\xa3g\xcc\x85\xcc\xb2\xcc\xb6\xcc\xa5\xcc\x8ao\xcc\x85\xcc\xb2\xcc\xb6\xcc\xa5\xcc\x8ao\xcc\x85\xcc\xb2\xcc\xb6\xcc\xa5\xcc\x8ad\xcc\x85\xcc\xb2\xcc\xb6\xcc\xa5\xcc\x8a\xe2\x99\xa5\xcc\xa8\xcc\xb8 evening soul help call lady becky 08061193324 pull burblek kunle'
p42
asS'2013_27'
p43
(lp44
S'\xee\x9a\xa3g\xcc\x85\xcc\xb2\xcc\xb6\xcc\xa5\xcc\x8ao\xcc\x85\xcc\xb2\xcc\xb6\xcc\xa5\xcc\x8ao\xcc\x85\xcc\xb2\xcc\xb6\xcc\xa5\xcc\x8ad\xcc\x85\xcc\xb2\xcc\xb6\xcc\xa5\xcc\x8a\xe2\x99\xa5\xcc\xa8\xcc\xb8 evening 2eday'
p45
aS'help lady becky love 08061193324 shes schl help tell love pull burblek'
p46
aS'evening weekend help lady becky shes schl unab 08061193324 pull legam kunle'
p47
aS'hello soul evening call lady love becky 08061193324 pull kunle burblek'
p48
aS'able'
p49
asS'2013_21'
p50
(lp51
S'help call wife beck 08061193324 kunle burblek love much leng'
p52
aS'chelsea frank happy life love lampard nigeria happy'
p53
asS'2013_22'
p54
(lp55
S'help call lady becky like 08061193324 burblek soul help call'
p56
aS'help greet lady abiodun 08061193324 call love much'
p57
asS'2013_23'
p58
(lp59
S'kunle burblek help call love love 08061193324 becky'
p60
aS'hello soul gudevening help call love becky schl 08061193324 kunle burble'
p61
ag3
aS'hello mama hope youre need help financial thank'
p62
aS'hello'
p63
aS'hello'
p64
asS'2012_27'
p65
(lp66
S'happy sunday'
p67
aS'thank'
p68
asS'2013_28'
p69
(lp70
S'help call lady becky 08061193324 love shes schl abekuta kunle burblek'
p71
aS'baba back'
p72
ag3
aS'want gain inches today'
p73
aS'lady 2day night goods send nigeria'
p74
aS'alright baby like'
p75
aS'livi'
p76
aS'baby 2day hope youre life country stay'
p77
aS'hello 2day goods country stay'
p78
aS'hell lady 2day hope youre country living business'
p79
aS'nice'
p80
asS'2013_29'
p81
(lp82
S'even soul help lady becky 08061193324 much want kunleburblek'
p83
asS'2013_5'
p84
(lp85
S'hello'
p86
aS'hello baby'
p87
aS'true friend site want make friend like'
p88
aS'love milan barca'
p89
aS'hello baby baby like'
p90
ag3
asS'2013_4'
p91
(lp92
S'fastest lose bodyfat 2weeks'
p93
asS'2013_7'
p94
(lp95
S'hello baby like 2make friend'
p96
asS'2013_1'
p97
(lp98
S'hello baby meet'
p99
aS'hello baby good evening weekend'
p100
aS'fine everything'
p101
aS'hello broda'
p102
aS'baby today hope fine living like 2314ade4'
p103
aS'hello baby today hope fine'
p104
asS'2013_3'
p105
(lp106
S'hello baby today like'
p107
aS'hello baby like profit picture'
p108
aS'make years resolution fastest lose bodyfat 2weeks'
p109
aS'good weekend squad good preparations afcon nigeria'
p110
aS'cool'
p111
aS'tope good hope fine living'
p112
aS'hello'
p113
aS'hello baby'
p114
asS'2013_2'
p115
(lp116
S'hello people today hope everybody fine join like'
p117
asS'2013_8'
p118
(lp119
S'hello living'
p120
aS'hello baby like name mummy name'
p121
aS'hello'
p122
aS'hello baby hope cool baby like'
p123
aS'nowan much need'
p124
aS'beauty crazy'
p125
aS'hello hope fine want like'
p126
aS'good like money living'
p127
aS'hello baby like want tekia'
p128
aS'hello'
p129
asS'2012_52'
p130
(lp131
S'hello baby today hope fine living'
p132
aS'hello baby good evening today hope fine'
p133
ag3
aS'hello baby today hope cool like baby'
p134
aS'hello today hope fine merry christmas anything'
p135
aS'hello baby today hope fine'
p136
aS'dream'
p137
asS'2012_51'
p138
(lp139
S'year'
p140
ag3
asS'2013_37'
p141
(lp142
S'country'
p143
aS'kunlexyz'
p144
aS'26yr'
p145
aS'hello baby nice'
p146
asS'2013_36'
p147
(lp148
S'body show'
p149
aS'26yr'
p150
aS'male'
p151
aS'mean english write male female'
p152
aS'english country hope fine'
p153
aS'great stay'
p154
ag3
aS'happy sunday'
p155
asS'2013_35'
p156
(lp157
S'want share picture picmix'
p158
aS'want share picture picmix'
p159
aS'want share picture picmix'
p160
aS'baby like picwhich country'
p161
aS'want share picture picmix'
p162
aS'want share picture picmix'
p163
aS'want share picture picmix'
p164
aS'want share picture picmix'
p165
ag3
ag3
aS'want share picture picmix'
p166
aS'want share picture picmix'
p167
aS'want share picture picmix'
p168
aS'want share picture picmix'
p169
ag3
aS'want share picture picmix'
p170
aS'nice pictur picmix myfavbrand mypicmix'
p171
aS'want share picture picmix'
p172
aS'want share picture picmix'
p173
aS'want share picture picmix'
p174
aS'want share picture picmix'
p175
aS'want share picture picmix'
p176
aS'want share picture picmix'
p177
aS'mypicmix'
p178
aS'want share picture picmix'
p179
aS'want share picture picmix'
p180
asS'2013_34'
p181
(lp182
S'meeeeeeeeee'
p183
ag3
ag3
ag3
aS'girl frinen'
p184
aS'never give'
p185
ag3
asS'2013_15'
p186
(lp187
S'soul help wife call 08061193324 name beck burblek'
p188
asS'2013_32'
p189
(lp190
S'ladys needed'
p191
asS'2013_31'
p192
(lp193
S'fela papa'
p194
asS'2013_30'
p195
(lp196
S'soul evening help call lady becky 08061193324 like soul much want burblek kunle'
p197
asS'2013_18'
p198
(lp199
S'thank reply chelsea collect europa celebrate'
p200
ag3
aS'hello lady hope living like'
p201
aS'blood brother blue chelsea nigeria like'
p202
aS'happy mnth people'
p203
aS'hello \xee\x9a\xa3g\xcc\x85\xcc\xb2\xcc\xb6\xcc\xa5\xcc\x8ao\xcc\x85\xcc\xb2\xcc\xb6\xcc\xa5\xcc\x8ao\xcc\x85\xcc\xb2\xcc\xb6\xcc\xa5\xcc\x8ad\xcc\x85\xcc\xb2\xcc\xb6\xcc\xa5\xcc\x8a\xe2\x99\xa5\xcc\xa8\xcc\xb8 evening'
p204
asS'2013_38'
p205
(lp206
S'baby'
p207
aS'baby'
p208
asS'2013_10'
p209
(lp210
S'hello lady like body'
p211
aS'hello baby tins'
p212
aS'hello baby good morning'
p213
aS'hello baby 2day'
p214
aS'ibadan play basketball'
p215
aS'living'
p216
aS'like'
p217
aS'good'
p218
aS'hello lady 2day hope good'
p219
aS'hello baby'
p220
aS'hello baby hope fine'
p221
aS'hello'
p222
aS'hello 2day'
p223
asS'2013_13'
p224
(lp225
S'hello baby'
p226
asS'2013_12'
p227
(lp228
S'hello 2day night'
p229
asS'2013_14'
p230
(lp231
g3
as.