(dp0
S'2013_42'
p1
(lp2
S'baboons known kidnap puppies raise pets'
p3
aS'cardinals world series times previously louis games twice 1946 1967 boston'
p4
aS'trees send warning signals tree insect attacks'
p5
aS'want thing bleep city boston strong david ortiz'
p6
aS'navy rocked bribery scandal hits officer corps'
p7
aS'females learn talk earlier sentences earlier tend read quicker males'
p8
aS'raptors trade rudy bill jalens 2013 previ'
p9
aS'jones girls nights egypt'
p10
aS'exfinance director conn town accused embezzling financially supporting mistress'
p11
aS'nypd broadcasting recording missing autistic boys help find'
p12
aS'health risks obese worse risks heavy drinking smoking poverty'
p13
aS'gore tried twitter'
p14
aS'technology pizza helps dominos crush competitors'
p15
aS'asia passengers bringing airports challenges airlines'
p16
aS'opinion future migration could look'
p17
aS'family watches silence checks waitress'
p18
aS'animated female characters need pretty filmmaker comments stir online debate'
p19
aS'irregular bedtimes kids lead behavioral problems'
p20
asS'2013_43'
p21
(lp22
S'hard play like dont feel hindsight drose looks awful lot\xe2\x80\xa6like derrick rose'
p23
aS'punt redskins'
p24
aS'picasso burned early work keep apartment warm poor'
p25
aS'miss london crying airport crying inside outside miss baba\xf0\x9f\x98\xad\xf0\x9f\x98\xad\xf0\x9f\x98\xad'
p26
aS'video gilbert arenas reaction worst contract ever buzz score'
p27
aS'derrick rose looks awful lot\xe2\x80\xa6like derrick rose check sick move reggie jackson'
p28
aS'pregnancy mother suffers organ damage baby womb sends stem cells repair damaged organ'
p29
aS'wonder high instrumental'
p30
aS'entire bodyweight worth sushi still hungry find volume sushi isnt appetizer'
p31
aS'viagra actually make flowers stay erect'
p32
aS'torontonian done good deed helped share story emailing tweeting hashta\xe2\x80\xa6'
p33
aS'legacy broken heart disease produced wonder'
p34
aS'talking smack social media fans facebook follow discuss sports snapshots'
p35
asS'2013_40'
p36
(lp37
S'military strike reported southern somali town'
p38
aS'history right real time goodbad like ithate least country free debate\xe2\x80\xa6'
p39
aS'another good crowd mike lazaridis theatre ideas live streaming also'
p40
aS'ford said questions asked toronto shouldnt concerned people associated shot\xe2\x80\xa6'
p41
aS'getting strange anything less kingsize'
p42
aS'domino effect stole histhis generation stole mine thecycle'
p43
aS'real winner breaking finale'
p44
aS'recipes considered intellectual property chef lawyer adam liaw weighs'
p45
aS'warns insufficient funds could lead treasury default \xe2\x80\x9cfirst time history\xe2\x80\x9d'
p46
aS'lotsa smart young folks tonite students learn better without teachers well explore learning2030'
p47
aS'toronto guys rapper drake mayor ford'
p48
aS'\xe2\x80\x98breaking finale draws record million viewers breakingbad breakingbadfinale'
p49
asS'2013_41'
p50
(lp51
S'kanye west wire'
p52
aS'chaka khan fire'
p53
aS'westboro baptist church gets trolled'
p54
aS'freak black'
p55
aS'rideralert experiencing delays minutes collision jane major'
p56
aS'jayz dear summer instrumental'
p57
aS'chewing help brain function efficiently'
p58
aS'fact industry used term assault weapon marketing prior 2009 move rebrand guns'
p59
aS'rabbis said torture force divorce'
p60
aS'married couples average times year'
p61
aS'makes perfect trip work happiest commuters share secrets'
p62
aS'swarming offduty nypd officer seen video hitting vehicle arrested'
p63
aS'school bans balls recess cracks games safety fears'
p64
asS'2013_46'
p65
(lp66
S''
p67
aS'niggas take social media serious'
p68
aS'twitters best ders either game happens randomin goin roastin'
p69
aS'collectivization path third world prosperity resources must belong people multinational\xe2\x80\xa6'
p70
aS'like time hockey lotsa fights stands hamvstor brings kooky many'
p71
aS'surjit bindrakhia tera yaar bolda'
p72
aS'bewaretheirsk time confront taboo first cousin marriages'
p73
aS'meal upgrade sundae blizzard'
p74
aS'countries known executed juvenile offenders last years iran pakistan saudi arabi\xe2\x80\xa6'
p75
aS'mainstream spirituality pretty funny'
p76
aS'pakistan hosted million registered afghan refugees years million remain unregistered'
p77
aS'happy find brought back smarties mcflurry'
p78
aS'toronto mayor ford cyclists pain'
p79
aS'week dhol playing adeel mahmood back ground'
p80
aS'course made course doesnt count melo'
p81
aS'called adopt adopt adopt'
p82
aS'ford sugar coat anything like upfront robford4primeminister heshappilymarried'
p83
aS'comments ford video best seen wshh history'
p84
aS'ford needs jesus'
p85
aS'period cats robford'
p86
aS'ford reminds time ricky became trailer park supervisor trailer park boys'
p87
aS'ford unbelievable kills enoughtoeatathome'
p88
aS'whos jealous ford mayor toronto'
p89
aS'walahi ford fuckin'
p90
aS'toronto mayor ford says gets enough pussy home'
p91
aS'embattled toronto mayor still support'
p92
aS'ford realest'
p93
aS'toronto mayor taking television'
p94
aS'hardest spitter right'
p95
aS'favorite teacher yells'
p96
aS'trust instinctsintuition spirit speaking'
p97
aS'hope aint forgotten everyone need someone talk'
p98
aS'james brown escapeism complete take'
p99
aS'quik pitch party'
p100
aS'mello much love'
p101
aS'jesus refs letem play'
p102
aS'jabari parker making wipe drool mouths'
p103
aS'dont parker goin'
p104
aS'friend'
p105
aS'60000 people starved death yesterday capitalist diplomats working towards reinforcing global corporate hegem\xe2\x80\xa6'
p106
aS'feel like badass whenever drink glass milk thanks arnold rothstein boardwalkempire'
p107
aS'prospect margaret working rothstein richard forwith chalky like fandom dreams come true boardwa\xe2\x80\xa6'
p108
aS'elis prime example kids impacted boardwalkempire'
p109
aS'wont give spoilers might best episode boardwalkempire ever seen'
p110
asS'2013_47'
p111
(lp112
S'revolution lives revolution'
p113
aS'nukes iran sleep night'
p114
aS'dkmm like last time'
p115
aS'looking thebright snow field wish climbing mountain'
p116
aS'alucard haunted cathedrals'
p117
aS'nigga stop lying fucked allll'
p118
aS'rampb scuze reminisce'
p119
aS'please stay peoples affairs dont tweetin shit'
p120
aS'nigga stop lying breaking news reenlistment album littlebrother works'
p121
aS'dont playing emotions like happy little brother back'
p122
aS'salute real warriors rebellious soldiers culturehold ground sound rockrockon'
p123
aS'nort please stay peoples affairs dont'
p124
aS'working rectus abdominis'
p125
aS'gotten outta hand'
p126
aS'lets groove earth wind fire lyrics description'
p127
aS'marco polo drunken sleuth invincible'
p128
aS'marco polo wrong girl feat reach reggie'
p129
aS'wutang clan explains origin universe'
p130
aS'tupac like daddy'
p131
aS'baby real'
p132
aS'freestyle crystal ball official video'
p133
aS'spraycan stories looptroop'
p134
aS'longshot much better'
p135
aS'ford bros power people'
p136
aS'ford selfinflicted fault'
p137
aS'funniest mayor ford compilation'
p138
aS'penultimate episode boardwalkempire empire gonna good'
p139
aS'agent alden still gives willies bigtime boardwalkempire'
p140
aS'yeah elihe knows boardwalkempire'
p141
aS'next weeks episodeseason finale looks insane richard back action boardwalkempire'
p142
aS'neeed next sunday boardwalkempire'
p143
aS'gillian wrong boardwalkempire'
p144
asS'2013_44'
p145
(lp146
S'wwyd anyone help poor grandma medication'
p147
aS'driver saves woman jumping bridge'
p148
aS'asked whether consumed illegal drugs ford repeats cannot comment video hasnt seen'
p149
aS'next caller appreciates fords courage calls questions ford attack likens ford1010'
p150
aS'doug ford ford holds people account'
p151
aS'bsing politician says brother dough mayor understands ford1010'
p152
aS'pres obama also uses speech condemn extreme faction willing hijack party grind progress halt'
p153
aS'fascinating police monitoring gunfire hundreds acoustic sensors rooftops'
p154
aS'samples'
p155
aS'best hoprnb samples part2'
p156
aS'wooo still went back time thank'
p157
aS'hawks vision object feet away human could distance feet'
p158
aS'little brother kanye west consequence'
p159
aS'eternia aint real produced mphazes'
p160
aS'statik selektah termanology talib kweli consequence express'
p161
aS'find watch weekends solar eclipse'
p162
aS'tung twista razzamatazz jazzamatazz'
p163
aS'openness government expenditure matters clarity public spending make poor countries richer'
p164
aS'fewer patients heart attacks received preventive percutaneous coronary intervention'
p165
aS'pakistani taliban became deadly force'
p166
aS'looool soon said alltime free throw percentage allen bricked loooool'
p167
aS'allen missed free throw game fake'
p168
aS'video jokes toronto mayor ford crack cocaine confession wshh'
p169
aS'27yearold lies every single aspect life keep parents worrying'
p170
aS'area woman almost imagines taste peppermint mocha tongue stops'
p171
aS'black people aint serious forreal twice nigga think playin imma forreal forreal'
p172
aS'ransom statik selektah never forget audio stream'
p173
aS'thing loving show like boardwalkempire know characters love arent long'
p174
aS'home showered episodes boardwalkempire baller'
p175
aS'cant wait next boardwalkempire faceoff obanion capone something tells'
p176
aS'thing aint mention buck much payin fuck chalkywhite boardwalkempire'
p177
aS'awwwww shit omar comin boardwalkempire harlembytorchlight heroin chalkiewhite'
p178
aS'harlem torchlight knew chalky wasnt stay slippin like cant drop easy\xe2\x80\xa6'
p179
aS'harlem torchlightthe line episode look gave said afraid afraid peace blessin\xe2\x80\xa6'
p180
aS'lakers knicks kobe bryant highlights points 2209'
p181
aS'seventhgrade biology class grossed dissect horse'
p182
aS'bugsy epiphany love'
p183
aS'frankenstein rain gone'
p184
aS'lewis parker hard endeavour'
p185
aS'lewis parker summer asakala'
p186
aS'splash klay thompson half'
p187
aS'trophy sucks stanley best getbeard redsoxnation'
p188
aS'frazier gets teary eyed talking'
p189
aS'george foreman testimony facing'
p190
aS'diplomats dipset anthem'
p191
aS'statik selektah feat action bronson joey bada mike posner'
p192
aS'forgive ever ever steered wrong people stop signs driven thru'
p193
aS'initially rapper ended likin sayin'
p194
aS'nintendo reporting earnings today heres watch ahead release'
p195
aS'ways better experience bedroom'
p196
aS'shad stylin featuring saukrates'
p197
aS'shad flying colours album review'
p198
aS'allen rocking custom championship jordan heats gold uniforms tonight'
p199
aS'chewing stalk celery releases androstenone androstenol odour molecules making attractive'
p200
aS'sons today'
p201
aS'whos ready miami heat take chicago bulls'
p202
aS'love photo obama first lady daughter malia malala yousafzai oval'
p203
aS'andy williams wonderful time year'
p204
aS'prob'
p205
aS'would girl ever fall love killer'
p206
aS'okay barbie help'
p207
asS'2013_45'
p208
(lp209
S'blame lucid dreams'
p210
aS'feel still shaky seen shot clear jumping'
p211
aS'misseed shot time watch boston shot'
p212
aS'spoke boston beat miami lmaooooooooooooooooooo'
p213
aS'fellas take pics together choose close possible violating rules personal space'
p214
aS'threepoint play demar raps 7443 third ooof'
p215
aS'kids need violence live means dying open gate sound blitzkrieg sirens'
p216
aS'rhythm roulette marco polo'
p217
ag67
aS'scared fall asleep looked sleep paralysis astral projections'
p218
aS'things never justifiable matter gratifying thought catalog'
p219
aS'youtube challenge gave kids terrible present'
p220
aS'youtube challenge told kids halloween candy 2013'
p221
aS'redick lookaway pass fake dribble drive layup really'
p222
aS'told mama talkin screamin like person toledo hometown'
p223
aS'yasser arafat polonium poisoning accident says'
p224
aS'good reasons keep resume updated even youre happy current'
p225
aS'twitter opened 4510 soaring price biggest tech since'
p226
aS'iran\xe2\x80\x99s government enters nuclear negotiations today limited economic leverage'
p227
aS'physician blogs alzheimer\xe2\x80\x99s experience seniorshealth'
p228
aS'billion twitter larger market value sampp components like kellogg netflix twit\xe2\x80\xa6'
p229
aS'twitters opening gain 6thbiggest record listed ipos raised million'
p230
aS'people changing internet habits avoid snooping'
p231
aS'stress chest'
p232
aS'exile said'
p233
aS'vanity music video'
p234
aS'make heavens full blessins'
p235
aS'nation start giving shit canadian politics'
p236
aS'salute'
p237
aS'overwhelming blame sunset featuring exile'
p238
aS'samples hiphop history part'
p239
aS'make sdspage'
p240
aS'rather game mute listen nbatv commentary'
p241
aS'coke weird guys trades different hocky team beats dads team'
p242
aS'chest pumped already'
p243
aS'exactly point start realize life without knowledge death disguise'
p244
aS'enjoy reception dont break anything president tells blackhawks fans east room'
p245
aS'shameless coworker nothing conceal clearly flaccid penis lying beneath khakis'
p246
asS'2013_39'
p247
(lp248
S'breaking creator says dreaded ending show'
p249
aS'major earthquake hits southwest pakistan'
p250
aS'respond child wants tattoo'
p251
aS'skeptics focus warming pause'
p252
aS'23yearold grad tackled 53349 student loans'
p253
aS'would take 8hour work days average person read \xe2\x80\x9cterms conditions\xe2\x80\x9d agree'
p254
aS'might noticed google search results different'
p255
aS'according albert einstein honey bees disappear earth humans would dead within years'
p256
aS'african nations conservationists commit ending bloody slaughter elephants'
p257
aS'turkey create fund stem extremism'
p258
aS'worlds horrifying drug found arizona'
p259
aS'swear unfollow warning goshdarnit'
p260
aS'much trouble would mind using thanks'
p261
aS'exactly grill subway used make grill marks chicken breasts blacksharpie'
p262
aS'faking confidence positively influence brain chemistry change life'
p263
aS'theres reason moms find baby smell delicious'
p264
aS'jordans banned however michael jordan always wore nike willing fine'
p265
aS'rideralert delayed major macbathurst traffic delays construction lane closures'
p266
aS'takes 34000 world\xe2\x80\x99s richest takes 200000 america\xe2\x80\x99s richest'
p267
aS'area determined make best situation comedy'
p268
aS'commentary scarcity shapes lives goar'
p269
aS'commentary guys stop twerking subway mallick'
p270
aS'bomb proposed pentagon bomb would temporarily turn enemy'
p271
aS'rideralert detour regular routing resumed'
p272
aS'tears finale horrible'
p273
aS'also stupidest critic says dexter finale saddest endings ever primetime show'
p274
aS'shittest saddest'
p275
aS'worst'
p276
aS'sars doctor donald lows posthumous plea assisted suicide'
p277
aS'thunder unveils pregnancy test dispenser'
p278
aS'often best important messages across mind here\xe2\x80\x99s truly elvis'
p279
aS'three days national mourning declared kenyas president kenyatta westgate shopping centre siege'
p280
aS'massive earthquake kills least pakistan'
p281
aS'dexter cliffhanger kind cream harrison'
p282
aS'lets honest really wondering happens masukas daughter right dexter'
p283
aS'dexter finale underwhelming disappointing rubbish writers obviously lost storm'
p284
aS'breaking turns good monster seasons dexter turns good show pile garbage'
p285
aS'cannot believe disappointed dexter favourite shows ever final season'
p286
aS'perfectly summarizes dexter finale'
p287
aS'bobby cannavale boardwalk empire wins emmy outstanding supporting actor drama'
p288
aS'male honey climaxes testicles explode dies'
p289
aS'breaking wins emmy drama series'
p290
aS'heavy gunfire heard inside nairobi shopping centre kenya militants holding several people hostage'
p291
asS'2013_38'
p292
(lp293
S'every night closing disneyland releases cats park help keep rodent population control'
p294
aS'suicide attack christian church pakistan kills dozens'
p295
aS'reasons start meditating'
p296
aS'older siblings tend live longer higher younger siblings tend'
p297
aS'dead following headon collision near pickering vehicle going wrong eastbound'
p298
aS'clinch first east title since 2007 beating blue jays'
p299
aS'difference \xe2\x80\x9cgift\xe2\x80\x9d \xe2\x80\x9cpresent\xe2\x80\x9d gift simply given present must \xe2\x80\x9cpresented\xe2\x80\x9d'
p300
aS'university professor leave tweet navy yard shootings directed'
p301
aS'vince carter bunnies back crazy explosive'
p302
aS'vince carter dunk defenceless french center frederic weiss 2000 summer olympics'
p303
as.