(dp0
S'2013_46'
p1
(lp2
S'official guide sleeping like'
p3
aS'derek precious dear'
p4
aS'still babies evolution real read book'
p5
aS'wonderful tragic heartfelt movie seen bridegroom 2013'
p6
aS'panda adorably obsessed babies'
p7
aS'lazy saturday love'
p8
aS'watching ross paint morning nostalgia happylittletress'
p9
aS'without greg tell wife love'
p10
aS'ghost recognition boringvideogames'
p11
aS'whenever isnt home dark huff calvin klein dark obsession'
p12
aS'arcade soccer boringvideogames'
p13
aS'alone dark bieber boringvideogames'
p14
aS'pouring asphalt boringvideogames'
p15
aS'content birds boringvideogames'
p16
aS'bieber sleeping boringvideogames'
p17
aS'arcade bieber boringvideogames'
p18
aS'arcade addiction heroin chick boringvideogames'
p19
aS'pokeaman boringvideogames'
p20
aS'thats'
p21
aS'myyy'
p22
aS'know'
p23
aS'truly perfect candy reeses peanut butter cups reeses minis become welcome distraction mmmm mmmmmm'
p24
aS'fell cant oldermusicians'
p25
aS'nickel lower back pain oldermusicians'
p26
aS'linkin long term parking oldermusicians'
p27
aS'blondie gray roots oldermusicians'
p28
aS'last edition oldermusicians'
p29
aS'stung oldermusicians'
p30
aS'sonic elders oldermusicians'
p31
aS'gonegones oldermusicians'
p32
aS'zzzzzzzzzzz oldermusicians'
p33
aS'heart failure oldermusicians'
p34
aS'late model cars oldermusicians'
p35
aS'petty heart valve replacements oldermusicians'
p36
aS'wheelchair inxsible oldermusicians'
p37
aS'queens home oldermusicians'
p38
aS'rusted maiden oldermusicians'
p39
aS'nwaarp oldermusicians'
p40
aS'seriously'
p41
aS'heres excellent'
p42
aS'accidentally grabbed wrong shopping cart hoping stop screaming soon raising'
p43
aS'badtoucharcade ruinawebsite'
p44
aS'instagramofcoke ruinawebsite'
p45
aS'yougetstuckinatube ruinawebsite'
p46
aS'craigslistkillerslist ruinawebsite'
p47
aS'xxxhamstersporn ruinawebsite'
p48
aS'girlsaskguysaboutstds ruinawebsite'
p49
aS'passionsforcatsnetwork ruinawebsite'
p50
aS'gaydarfur ruinawebsite'
p51
aS'lockerzyouvebeenstuffedin ruinawebsite'
p52
aS'constantcontactwithyourparoleofficer ruinawebsite'
p53
aS'clickspermbank ruinawebsite'
p54
aS'amishpornhub'
p55
aS'stonedguyoncouchsurfing ruinawebsite'
p56
aS'tinydickchat ruinawebsite'
p57
aS'live'
p58
aS'know fonzie would jukebox make work barista'
p59
aS'todays tarot moon death tower past disappointment painful separation unhappy time alone linger allow time heal'
p60
aS'airport lounge suckyactionmovies'
p61
aS'easily touched suckyactionmovies'
p62
aS'cranky baby suckyactionmovies'
p63
aS'machete deep reverence life suckyactionmovies'
p64
aS'clear headed rational suckyactionmovies'
p65
aS'nonlethal weaponlike tool suckyactionmovies'
p66
aS'indiana jones raiders aunt paullines pantry suckyactionmovies'
p67
aS'escape peoria suckyactionmovies'
p68
aS'conan wellbehaved polite young suckyactionmovies'
p69
aS'daredevil movie really suck suckyactionmovies'
p70
aS'culver city suckyactionmovies'
p71
aS'slow calm suckyactionmovies'
p72
aS'pencil eraser suckyactionmovies'
p73
aS'national insecurity suckyactionmovies'
p74
aS'afflack suckyactionmovies'
p75
aS'suckyactionmovies'
p76
aS'bteam suckyactionmovies'
p77
aS'miami mice suckyactionmovies'
p78
aS'sigh hard suckyactionmovies'
p79
aS'really wanted shock started reading ulysses stage awards show biggermileysh\xe2\x80\xa6'
p80
aS'equalitystreet core'
p81
aS'chris sparkling hard cidarwick celebritybooze'
p82
aS'older apathetic favorite phrases dunno whatever english degree sure paid'
p83
aS'washed sheets pillow cases bedding yesterday slept complete dryersheet induced ecstasy'
p84
aS'stevie wonder entire album plants years later somehow impossible wond\xe2\x80\xa6'
p85
aS'funny'
p86
aS'countdown thewalkingdead minus minutes bestshowever'
p87
asS'2013_47'
p88
(lp89
S'observe universe limited prism senses meremortal'
p90
aS'hmmm exactly psycho beach party psychobeachparty'
p91
aS'nerd humor'
p92
aS'snobbery university english major wouldyoulikefrieswiththat'
p93
aS'magically delicious'
p94
aS'even character twitterverse still feel important good grammar punctuation ijudgeyouwhenyouusepoorgrammar'
p95
aS'thank goddess auto correct keyboard wonky loopyasfuck'
p96
aS'wisely slow stumble fast shakespeare drink wise bard poetic cold night'
p97
aS'drinking dram irish whiskey laundry lifeofriley loopyasfuck psychobeachparty'
p98
aS'getting loopy minute loopyasfuck'
p99
aS'weirdly dark stormy night moods know mean'
p100
aS'wheres flirty playmate tonite kitten wants play mouse purrrrrr gtlt'
p101
aS'wont keep buggin want start feel better kinda normal itwilgetbetter'
p102
aS'wont always reach fone remember soon cherish time rather grieve time'
p103
aS'died still think books movies love smile remember itwillgetbetter'
p104
aS'wonder start calling kitten bounty hunter kittenthebountyhunter'
p105
aS'people ever seen bounty hunter thats person'
p106
aS'tired practically zombiebrain mode love dont make shoot'
p107
aS'dick jokes promised'
p108
aS'gives care kind tennessee slang'
p109
aS'ahead bummer kidding process working thru heyyou always thats bummer'
p110
aS'fuck rules'
p111
aS'obamacare things started jokes went huge success eurodisney hubbel telescope spiderman musicalronald'
p112
aS'lolyup'
p113
aS'font'
p114
aS'seems legit'
p115
aS'persons worm turd another persons rosetta stone'
p116
aS'tiny panther roar'
p117
aS'hollywood never really subtle touch'
p118
aS'good know take direction well'
p119
aS'travel halfway around world back finally figured change internal landscape external'
p120
aS'naughty naughty sensitive'
p121
aS'sure might lost cleavage'
p122
aS'well forget fingernails across back'
p123
aS'days left raising help prevent lgbt teen suicides earns'
p124
aS'course wink'
p125
aS'notice adams'
p126
aS'purrrrrrrrrrrrrrrr'
p127
aS'totally live'
p128
aS'earth porn'
p129
aS'bought lipstickonhercigar love permanent residence ipod'
p130
aS'sleep dream wake attack create fight fuck sleep dream'
p131
aS'never cure stage college still love'
p132
aS'honestly lindsey lohan wuda perfect linda lovelace messed think amanda seyfried playing linda'
p133
aS'really want lovelace movie everything read seems tragic hurt'
p134
aS'snowing fear winter'
p135
aS'probably wasnt clearest font'
p136
aS'really boat wanna pretty sure small portion'
p137
aS'think listened mother said needed learn cook'
p138
aS'mushroom soup amazing'
p139
aS'people sleeping bags soft tacos bear world'
p140
aS'accept vine twerking corgi'
p141
aS''
p142
aS'cats concerned warmblooded furniture'
p143
aS'come chris gimme little love stonernovels points grrrr'
p144
aS'soccer stadium vagina thing right'
p145
aS'pickup line want better making babies want practice'
p146
aS'earth porn'
p147
aS'babysittin golden bowl stonernovels'
p148
aS'bongmaster commander stonernovels'
p149
aS'fahrenheit stonernovels'
p150
aS'colour purple haze stonernovels'
p151
aS'excellent journey center earth stonernovels'
p152
aS'harry pothead stonernovels'
p153
aS'autobiography alice toker stonernovels'
p154
aS'atlas puffed stonernovels'
p155
aS'finnegans wake bake stonernovels'
p156
aS'cute'
p157
ag142
aS'notice civilized human children'
p158
ag142
aS'earth porn'
p159
aS'snowblowers'
p160
aS'wonderful life sequel works everything terrible'
p161
aS'definitely dont mess classic zuzu angel kinda cool'
p162
aS'opposite turning heat known turning conditioning able turn'
p163
aS'tara going first character thewalkingdead livebait'
p164
aS'heres walking dead doesnt make damn sense'
p165
aS'cyclone dumped daddys laundry'
p166
asS'2012_10'
p167
(lp168
S'sign pledge help bring kony justice 2012'
p169
aS'panetta rush limbaugh armed forces radio money abusive divisive insulting language'
p170
asS'2012_11'
p171
(lp172
S'support student loan forgiveness 2012 signon'
p173
asS'2011_12'
p174
(lp175
S'super lunatics'
p176
asS'2013_45'
p177
(lp178
S'deserves severe punishment'
p179
aS'keeps crying said done everything'
p180
aS'personally quite like harley gore sounds like good character'
p181
aS'stupidity fatal would wonderful world less crowded'
p182
aS'retweet chance twdtoys thewalkingdead'
p183
aS'definitely want shop'
p184
aS'people glue stick instead chapstick shutthefuckup'
p185
aS'almond beher celebritybooze'
p186
aS'makers marky mark funky bunch celebritybooze'
p187
aS'ryan riesling celebritybooze'
p188
aS'ryan crest breeze celebritybooze'
p189
aS'spiced honey mead celebritybooze'
p190
aS'nikki menageetrois twist celebritybooze'
p191
aS'brandy alexander skarsgard celebritybooze'
p192
aS'jack black russian celebritybooze'
p193
aS'betty white russian celebritybooze'
p194
aS'pink lady gaga celebritybooze'
p195
aS'amarettoonthechrisrocks celebritybooze'
p196
aS'psyched thor dark world wrong cheering loki thorthedarkworld'
p197
aS'dennis grasshopper celebritybooze'
p198
aS'weep grammatical future america'
p199
aS'giant perv every time bathroom follows pervypussy'
p200
aS'left footlocker failedbusinesses'
p201
aS'nothing cuter world kitten snoring pfftsnort'
p202
aS'know right photo bush christian center found'
p203
aS'hate pulls front doesnt speed limit couldnt wait secs peopleannoyme'
p204
aS'marijuana grow faster smartphones whoo'
p205
aS'dont mugged'
p206
aS'snoop doggy crappyrappers'
p207
aS'ghost face killah diarrhea crappyrappers'
p208
aS'number 2pac crappyrappers'
p209
aS'dammit hair'
p210
aS'buttermynuts blend badcoffeeflavors'
p211
aS'macho macchiato badcoffeeflavors'
p212
aS'dont think hair doushee think hair lovely kisses'
p213
asS'2013_11'
p214
(lp215
g142
aS'merle mole'
p216
aS'merle mole'
p217
aS'faceoff rick never give michon'
p218
aS'faceoff govs grip crumling'
p219
asS'2013_13'
p220
(lp221
S'psychauthordidit'
p222
aS'shawn looked totally eyeliner psychbutlerdidit'
p223
aS'psychbutlerdidit'
p224
asS'2012_5'
p225
(lp226
S'tell dont throw fem2'
p227
asS'2012_6'
p228
(lp229
S'tell canadian prime minister harper peter kent stop planned sands wolf kills'
p230
asS'2012_2'
p231
(lp232
S'mixing cake batter want bake cake want batter'
p233
aS'matthew honest hands chapped boxes tissues lotion left'
p234
aS'nicotine improves brain power knew reason smoked cough cough hack'
p235
asS'2012_3'
p236
(lp237
S'artist film year'
p238
aS'gawd gerard butler megahot puurrr'
p239
as.