(dp0
S'2014_36'
p1
(lp2
S'school weeks'
p3
aS'reaction hahhaha'
p4
aS'happiness'
p5
aS'sels looking good'
p6
aS'justin know text messages whether deletes tweets tries'
p7
aS'lets remember happy found free'
p8
aS'cute'
p9
aS'cute'
p10
aS'miss everything'
p11
aS'miss fangirling'
p12
aS'miss tweeting'
p13
aS'texts jenn mess hahhaha'
p14
aS'lets remember much fangirled gaga itunes festival'
p15
aS'youre stalking someones instagram trying like pictures'
p16
aS'remember really emotionally unstable girl suite life used laugh'
p17
aS'asks favorite flower'
p18
aS'bored death'
p19
asS'2014_37'
p20
(lp21
S'ariana tweet fave make happiest girl world love'
p22
aS'words cant describe much love'
p23
aS'ariana slaying right actually interacts fans unlike someone'
p24
aS'follow faggit'
p25
aS'fuck'
p26
aS'right fashionrocks mycalvins'
p27
aS'ariana'
p28
aS'gorgeous'
p29
aS'dont cover eyes justin striping enjoy show'
p30
aS'pose dude omfg sgsjakaba'
p31
aS'take soul'
p32
aS'kennys deleted tweet'
p33
aS'woke'
p34
aS'thank loooord'
p35
aS'beautiful'
p36
aS'stay naked'
p37
aS'beliebers fashionweek fashionrocks'
p38
aS'best dressed fashion week goes'
p39
aS'justin bieber show fashion weekshow strip slay whole show'
p40
aS'ranting iphone even though anyways'
p41
aS'cant wait justin release music really hope people talented give respect'
p42
asS'2014_31'
p43
(lp44
S'brooks fuck please'
p45
aS'following spree frankies account retweet frankie follow frankieto700k\xe2\x80\x9d frankieto700k'
p46
aS'frankieto700k please follow would mean everything'
p47
aS'frankieto700k'
p48
aS'frankieto700k'
p49
aS'frankieto700k'
p50
aS'technically youre getting frankie follow follow limit'
p51
aS'following spree frankies account retweet frankie follow frankieto700k'
p52
aS'someone jumped front people sighting actual fuck'
p53
aS'everything sucksssss'
p54
aS'look nice view'
p55
aS'gonna post ariana 20rts 1000 votes 1650 mtvhottest ariana grande'
p56
aS'original chipotle'
p57
aS'justin makes girl justin posts picture smoking justin hangs kardashians happe\xe2\x80\xa6'
p58
aS'well fuck'
p59
aS'know butt mtvhottest justin bieber'
p60
aS'2012 strong 2013 destroyed 2014 came back stronger mtvhottest justin bieber'
p61
aS'cant lmfao mtvhottest justin bieber'
p62
aS''
p63
aS'respect mtvhottest justin bieber'
p64
aS'juuuussssttttiiiiin soooo hoooot justin hottest human plant mtvhottest justin bieber'
p65
aS'idol cutest hottest human whole world mtvhottest justin bieber'
p66
aS'justins youre like mtvhottest justin bieber'
p67
aS'slaaaaaay mtvhottest justin bieber'
p68
aS'hottest earth mtvhottest justin bieber'
p69
aS'remember justin broke ankle youve long time mtvhottest justin bieber'
p70
aS'thank took photo mtvhottest justin bieber'
p71
aS'kill millions girls posting selfie book written justin bieber mtvhottest justin bieber'
p72
aS'justins back mtvhottest justin bieber'
p73
aS'years'
p74
aS'hundred eighty eight mtvhottest justin bieber'
p75
aS'holy shit years since alaylm video remember woke'
p76
aS'hundred eighty three mtvhottest justin bieber'
p77
aS'hundred eighty mtvhottest justin bieber'
p78
aS'retweet proud mtvhottest justin bieber'
p79
aS'start school weeks\xe2\x80\x9d days'
p80
aS'yall keep going thanks smiling'
p81
aS'october newmusic'
p82
aS'dont worry ladies still single'
p83
aS'avalanna love'
p84
aS'wanna make wanna'
p85
aS'hope guys hear believe finally understand feel appreciate love'
p86
aS'girls feel beautiful real knows treat lady like queen happiness comes step'
p87
aS'told trouble looking pictures justin instead typing games'
p88
aS'hahaha look left twitter open mistake priceless love justin greatest wish hair'
p89
aS'everyday grateful'
p90
aS'werent expecting answer phone'
p91
aS'youre bird bird'
p92
aS'well might remix common denominator together thanks shoutout album'
p93
aS'lets'
p94
aS'joined illuminati cult christian pray every show thankful'
p95
aS'believe'
p96
aS'dear youtubewe started journey cheatin vevo chicai'
p97
aS'fans swag'
p98
aS'gonna liehaving little messing guys holding finish'
p99
aS'gotta love fans beliebers purpleninjas love incredible hands best fans'
p100
aS'dont plan ever losing fans young gaining respect never left kids'
p101
aS'want happen'
p102
aS'come long love thanks believing'
p103
aS'aint enough songs'
p104
aS'thanks beliebers always make smile love'
p105
aS'didnt tickets believe tour find sneak'
p106
aS'ugly could walk around like'
p107
aS'lets take moment thinking eyebrows last year'
p108
aS'look yummy'
p109
aS'tweeting nowadays'
p110
ag63
aS'flawless human'
p111
aS'jimmy fallon fakest people ever seen mtvhottest justin bieber bestfandom2014 beliebers'
p112
aS'happy birthday childish year know life usually happy birthday messages saying'
p113
aS'applaud'
p114
aS'edit incredible ever made bless neverland always michael jackson love'
p115
aS'rare photo ariana arianas face'
p116
aS'live dream 71000'
p117
aS'wanna able tell year self'
p118
asS'2014_34'
p119
(lp120
S'youre wearing suite doesnt mean class'
p121
aS'ariana iheartradio streaming concert'
p122
aS'laughing much hahahaha'
p123
aS'decided text lyrics amnesia hilarious blue yellow vote5sos'
p124
aS'ariana grande jessie rehearsing vma\xe2\x80\x99s'
p125
aS'hate love'
p126
aS'watching oitnb'
p127
ag63
aS'love'
p128
aS'hair much handle mtvhottest justin bieber'
p129
aS'ironic part pants'
p130
aS'want biiiig bootie'
p131
aS'love jacket'
p132
aS'pills potions overdosing angry still love'
p133
aS'fadder snygg vill gr\xc3\xa5ta'
p134
aS'tomorrow tweet watch movies kind'
p135
aS'lets'
p136
aS'fever'
p137
aS'fuck ruined life'
p138
aS'thinking life'
p139
ag63
aS'drank wednesday whats happeningggg hahaha'
p140
ag63
aS'idek anything anymore'
p141
aS'love justin much'
p142
aS'favourite photo votedemilovato'
p143
aS'gonna tweet gifs ariana gets thats 2500 votes idea 1950 votearianagrande'
p144
aS'gonna tweet gifs ariana gets thats 2500 votes idea 1150 votearianagrande'
p145
aS'watching book thief'
p146
aS'first high school turn'
p147
aS'need'
p148
asS'2014_43'
p149
(lp150
S'freaking happy'
p151
aS'yaaaas going york'
p152
aS'thank'
p153
aS'hundred forty eight emabiggestfansjustinbieber'
p154
aS'hundred forty seven emabiggestfansjustinbieber'
p155
aS'hundred forty nine emabiggestfansjustinbieber'
p156
aS'justin bieber nominated emas best male biggest fans north america worldwide vote'
p157
aS'gonna leave'
p158
aS'retweet found favourite justin bieber song emabiggestfansjustinbieber'
p159
aS'find hotel wont york emabiggestfansjustinbieber'
p160
aS'panic cant find good hotel'
p161
aS'need good hotels please help'
p162
aS'would anything spend justin works studio would amazing'
p163
aS'gemma tattooed morse code wrist harry tattooed shoulder siblings goals'
p164
aS'excited halloween parties'
p165
aS'okay fall love jackets'
p166
aS'crying marc jacobs aint shipping sweden'
p167
aS'legs'
p168
ag63
aS'album fucking dope'
p169
aS'lessons 2day yaaaas slay'
p170
aS'something creepy lips smile'
p171
aS'cant smile'
p172
aS'follow'
p173
aS'yaaaas\xf0\x9f\x99\x8c'
p174
aS'song everything'
p175
asS'2014_42'
p176
(lp177
g63
aS'justin tweeting beliebers makes happy even aint'
p178
aS'time break time back work\xe2\x80\x9d'
p179
aS'happy birthday throwback'
p180
aS'bitch killin vibe'
p181
aS'hells ipod nowadays'
p182
asS'2014_41'
p183
(lp184
S'justins adorable wink emabiggestfansjustinbieber'
p185
aS'good night dont forget emabiggestfansjustinbieber'
p186
aS'fucking baby looks precious'
p187
aS'bitch stole money'
p188
aS'think norway okay'
p189
aS'emabestfansjustinbieber'
p190
aS'sick weeks'
p191
aS'gotta sleep'
p192
ag63
aS'funniest shit ever'
p193
asS'2014_40'
p194
(lp195
S'really train smells like shit toilet'
p196
aS'need tour'
p197
aS'need musiccc'
p198
aS'random twitter hour\xe2\x80\x9d'
p199
aS'release worth living'
p200
aS'everyone caught dumbass justin'
p201
aS'delete tweet'
p202
aS'looks like shit nowadays'
p203
aS'miss twitter'
p204
aS'justin sassy'
p205
aS'tell good drinking games'
p206
ag63
asS'2014_32'
p207
(lp208
S'ariana selena took selfie qhat'
p209
aS'said wanna learn justin dance hahaha'
p210
aS'shay nina look beyond perfect'
p211
aS'nina doesnt look like'
p212
aS'shay looks amazing'
p213
aS'nina looks amazing'
p214
aS'dont like debby shes annoying'
p215
aS'arianas pony tail could hide'
p216
aS'scooter betyer justin'
p217
aS'hairs huge ppppppppp'
p218
aS'baaabe'
p219
aS'shes beautiful'
p220
aS'sheso pretty'
p221
aS'love misch'
p222
aS'arianaaaa'
p223
aS'dying slow wifi'
p224
aS'tired'
p225
aS'mins'
p226
aS'cody ugly'
p227
aS'wonder leas dress looks familiar'
p228
aS'watching award shows without justin like'
p229
aS'probably dont remember besties game'
p230
aS'kimlt333333'
p231
aS'indirect tcas'
p232
aS'kendalls looking good'
p233
aS'justin turn middle show slay'
p234
aS'watch twitter crash shows'
p235
aS'scooter going tcas fucking drag justin along beaten asses'
p236
ag63
aS'recognize interviewed soon'
p237
aS'like minutes left relevant people'
p238
aS'fangirls attend award shows mean ones vote work asses happy'
p239
aS'mtvhottest justin bieber'
p240
aS'viners'
p241
aS'tcas basically youtubers year'
p242
aS'justin doesnt tcas'
p243
aS'leas speech last year beautiful strongest thing ever happened tcas tcas2014'
p244
aS'tcas2014 watching tcas like'
p245
aS'ariana little butt onto carpet'
p246
aS'ansel'
p247
aS'ansels back'
p248
aS'accent sounds like shit thoo'
p249
aS'sorry emily always hannah montanna'
p250
aS'havent heard anything soooo long'
p251
aS'dont like'
p252
aS'emily osment'
p253
aS'ariiiii'
p254
aS'waiting'
p255
aS'waiting michele selena gomez naya rivera miracle chris colfertcas2014'
p256
aS'nash dont know cried'
p257
ag63
aS'knooow thought wrong website hahaha'
p258
aS'show starts hours looool'
p259
aS'tcas live streams'
p260
aS'starts hours pretty sure'
p261
aS'lets stay awake hours'
p262
aS'hasnt started'
p263
aS'tcas wihooo'
p264
aS'tcas starts 1gmt'
p265
aS'heyyyy'
p266
aS'tca2014 time start'
p267
aS'used ride like'
p268
aS'chris brown justin bieber possibly hated artists ever theyre still talented'
p269
aS'youre gorgeous'
p270
aS'yall complaining people stanning jenners yall stan stella hudgens'
p271
aS'europe please help meeeee'
p272
aS'start'
p273
aS'justin attend tcas'
p274
aS'cant wait arianas outfit tomorrow'
p275
aS'hope european tour dates arianasurprise'
p276
aS'think tour dates akdkalkslala arianasurprise'
p277
aS'cant zayn atleast cousins damn'
p278
aS'fanfics kills people drugs tortures someone reality'
p279
aS'icon life'
p280
aS'cant stop staring justins bigger mine'
p281
aS'harrys hair soft smells like flowers'
p282
aS'want pink adidas'
p283
aS'week left school'
p284
aS'tcas tomorrow'
p285
aS'shirt nice'
p286
aS'look idiot'
p287
aS'justins voice acoustic honestly best reminder started shows exactly talented'
p288
aS'monday last preorder everything ariana\xe2\x80\x99s store guarantee name poster'
p289
aS'baby'
p290
aS'hate himmmmmm'
p291
aS'obsession jackets good wallet'
p292
aS'stop history wants back something'
p293
aS'thinks boyfriend'
p294
aS'wants know particular punch face'
p295
aS'face flawless thing mtvhottest justin bieber'
p296
aS'disgusting'
p297
aS'hate much fuck'
p298
aS'hurts'
p299
aS'ariana cursing life'
p300
aS'twitter like username want taken change letter instead letters fiftyfour'
p301
aS'cant left mark mtvhottest justin bieber'
p302
aS'wants baby mtvhottest justin bieber'
p303
aS'justin bieber isnt even attractive face mtvhottest justin bieber'
p304
aS'wanna pleaaaseee mtvhottest justin bieber'
p305
aS'every retweet vote justin mtvhottest justin bieber'
p306
aS'remember justin showing ring everyone youve long time mtvhottest justin bieber'
p307
aS'prepared eyeballs'
p308
aS'keep crashing makes frustrated'
p309
aS'crashing please'
p310
ag63
aS'everything point'
p311
aS'define beauty'
p312
aS'define happy'
p313
aS'define unhappy'
p314
aS'probably important thing seen today'
p315
aS'mean happened twitter'
p316
aS'love giving scooter password'
p317
aS'vote justin'
p318
aS'kanye kanye'
p319
aS'tweet gifs'
p320
aS'doesnt make retweet dont know mtvhottest justin bieber'
p321
aS'harry threw towel crowd everyone went crazy reaction best thing ever'
p322
aS'best moment ever'
p323
aS'someone says rihanna'
p324
aS'tired fake friends fake people'
p325
aS'feels like burden everyone wanna disappear'
p326
aS'brothers basically telling best friend ignoring'
p327
aS'really take fucking month edit video'
p328
aS'left alone'
p329
aS'feels like havent anyone'
p330
aS'best friend ignoring lately want reach deep know wont'
p331
aS'clean room things mind mess'
p332
aS'mess clean like'
p333
aS'lets'
p334
aS'things coming 2guitars'
p335
aS'fucking tired brothers nagging body'
p336
aS'want rain inside watch series without feeling guilty'
p337
aS'looks good'
p338
aS'dont worry matter many times beat rise'
p339
aS'need music'
p340
aS'want popcorn'
p341
aS'gonna watch series long home'
p342
aS'little party never killed nobody'
p343
aS'teasing pics shoot'
p344
aS'need music'
p345
aS'side chick'
p346
aS'movin around like basic bitch'
p347
aS'wrong train havent seat'
p348
aS'moving around like hahah'
p349
aS'anymore ppppppp'
p350
aS'pills potions'
p351
aS'tweeting stink'
p352
aS'basic bitch sitting next bitch stank'
p353
aS'alisted celeb much'
p354
aS'deleted kardashiangame feel free'
p355
aS'back todaytomorrow'
p356
aS'sorry tweeting'
p357
aS'holy shit justin pics'
p358
aS'damn'
p359
aS'hahah love'
p360
aS'hate justin bieber meyou love right bfsure mehow hate someone saved life never said'
p361
aS'justin currently following beliebers'
p362
aS'justin power crash within minutes'
p363
aS'shots crashed'
p364
aS'happy love much'
p365
aS'frankie cute'
p366
aS'listening eenie meenie'
p367
aS'awawawww gentleman mtvhottest justin bieber'
p368
aS'listening ollg'
p369
ag63
aS'imagine mood youre period reaction lmao'
p370
aS'headache'
p371
aS'justin drew bieber definition perfection hottest human mtvhottest justin bieber'
p372
aS'retweet youve since first tattoo mtvhottest justin bieber'
p373
aS'remember youve long time mtvhottest justin bieber bestfandom2014 beliebers'
p374
aS'justin looking drake bells career like mtvhottest justin bieber'
p375
aS'save mtvhottest justin bieber'
p376
aS'ever deny best idol ever mtvhottest justin bieber'
p377
aS'smile mtvhottest justin bieber'
p378
aS'goodnight babe mtvhottest justin bieber'
p379
aS'justin followed people follow spree lately mtvhottest justin bieber'
p380
aS'cute mtvhottest justin bieber'
p381
aS'hottest human ever mtvhottest justin bieber'
p382
aS'going mtvhottest justin bieber'
p383
aS'justins like want mtvhottest justin bieber'
p384
aS'remember cody girl cried justin bieber mtvhottest justin bieber'
p385
aS'hottie deserve happy smiling love soooo much mtvhottest justin bieber'
p386
aS'says mtvhottest justin bieber'
p387
aS'best song ever wont ever'
p388
aS'justin make easier'
p389
aS'adorable'
p390
aS'ready justin bieber'
p391
aS'train doesnt'
p392
aS'justin bieber class people'
p393
ag63
asS'2014_33'
p394
(lp395
S'many unfollowers unfollow'
p396
ag63
aS'believe forever album'
p397
aS'chills pray'
p398
aS'accept hours beliebers donate alsicebucketchallenge giveback'
p399
aS'stop unfollowing faggitz'
p400
aS'celebrating cousins birthday tomorrow shes adorable wanna'
p401
aS'missed much wanna shes everything'
p402
aS'school'
p403
aS'tell fucking kill'
p404
aS'song makes happy'
p405
aS'imagine perfect selfies arianas camera roll shell never post'
p406
aS'talk wont contact'
p407
aS'quote user\xe2\x80\x9d evamariealmquist'
p408
aS'havent done anything wrong stood thats done'
p409
aS'happy birthday'
p410
aS'faggit unfollow'
p411
aS'idek handle since didnt anything wrong'
p412
aS'sooooo fuck going'
p413
aS'lets remember swedish radio station started following twitter'
p414
aS'want baaaaad'
p415
aS'look little cute'
p416
aS'lets party like 3012'
p417
aS'gonna tweet gifs ariana thats 1000 votes 3450 ariananow votearianagrande'
p418
aS'proud ariana votearianagrande'
p419
aS'nudes emeliereuterstrand'
p420
aS'want purple ninja fangirl bieberconda justin flip hair every seconds'
p421
aS'indirect free follows kewl votearianagrande'
p422
aS'neck sore'
p423
aS'holy jellybeans'
p424
aS'remember harry immitated zayn'
p425
aS'remember fell stairs cute'
p426
aS'vidz'
p427
aS'miss justin hanging jaxo'
p428
aS'justin random twitter hour please'
p429
aS'werent attracted youre lying danny phantom sexiest\xe2\x80\xa6'
p430
aS'lets remember fuckkin long waited heartbreaker'
p431
aS'tried take video front camera'
p432
aS'arianasurprise everybody hold hands pray tour dates'
p433
ag63
aS'voice sounds perfect gentle'
p434
aS'tfios september 16th'
p435
aS'copy believetourdanceexperience itunes amazon'
p436
aS'want another justin drake anything'
p437
aS'thought hahha'
p438
aS'scientist glee making'
p439
aS'sings gtgtgtgt'
p440
aS'pray'
p441
aS'chills every time'
p442
aS'christmas forever'
p443
aS'think first kiss cousin tough times'
p444
aS'ever feel remember harry first kiss cousin'
p445
aS'long love'
p446
aS'made mannequin jimmy fallon kill'
p447
aS'outfit hair point'
p448
aS'looks good mtvhottest justin bieber'
p449
aS'need mtvhottest justin bieber'
p450
aS'love much'
p451
aS'justin'
p452
aS'staring soul jesus christ choking poor harry loving heart'
p453
aS'robin williams died childhood officially'
p454
aS'mouth alert alert alert dead'
p455
aS'wont hurt'
p456
aS'ariana means world meet would dream come true love much smallzysex\xe2\x80\xa6'
p457
aS'crying lying'
p458
aS'hottest best jawline category think know would'
p459
aS'fuck'
p460
aS'want clothes broke'
p461
aS'listening story life crying boys fandom best thing happened ever'
p462
aS'selfie'
p463
aS'michael innocent please leave alone rest peace heaven michaelisinnocent'
p464
aS'wanna rough'
p465
aS'mtvsummerclash michael bestfandom2014 moonwalkers'
p466
aS'dont stop voting bestfandom2014 moonwalkers'
p467
aS'best mistake ever made'
p468
aS'true riprobinwilliams'
p469
aS'best performance mtvhottest justin bieber'
p470
aS'retweet want gain follow everyone retweets follow back ever follows'
p471
aS'selfie'
p472
aS'justin bieber doesnt follow'
p473
aS'thank everything love forever'
p474
aS'justin might aprox songs recorded hell give probably sink'
p475
ag63
ag63
ag63
aS'proud ariana proud isnt even word speechless queen come'
p476
aS'idol'
p477
aS'fanks teen choice awards guys r00l'
p478
aS'need looks nxcjkdksk'
p479
aS'slay'
p480
aS'looks absolutely stunning'
p481
aS'works'
p482
aS'come teenchoiceawards late'
p483
aS'yaaas'
p484
aS'shes beautiful'
p485
aS'working'
p486
aS'dora'
p487
aS'week school'
p488
ag63
aS'teenchoiceawards'
p489
aS'hope show soon want tcas2014'
p490
aS'isnt justin break hello scooter didnt drag along'
p491
ag63
aS'shes perfect crying'
p492
aS'ariana hdjskwnr'
p493
aS'ones working'
p494
ag63
aS'justin showing tcas like mtvhottest justin bieber'
p495
ag63
ag63
ag63
aS'queen'
p496
aS'save everyones lives heres tcas stream'
p497
aS'live thing working ughhh kill'
p498
aS'link please'
p499
aS'someone give fucking link ausnjaaj'
p500
aS'need working link'
p501
aS'hate living europe'
p502
aS'fucking need link someone send please'
p503
aS'anyone link livestream'
p504
aS'anyone working link watch teen choice awards'
p505
aS'forever woman crush'
p506
aS'need link show someone help'
p507
aS'praying link works'
p508
asS'2014_44'
p509
(lp510
S'woooah\xf0\x9f\x98\xb1\xf0\x9f\x91\x8f dude killed'
p511
aS'youre stunning'
p512
aS'happy halloween littlered'
p513
aS'hahahahah laughong much steal girl considered animal abuse'
p514
aS'love emabiggestfansjustinbieber'
p515
aS'emabiggestfansjustinbieber'
p516
asS'2014_35'
p517
(lp518
S'time flies 4yearsofjustinmsg'
p519
aS'4yearsofjustinmsg 2010 sold minutes 2012 sold seconds youngest person sell'
p520
aS'everythings fucked'
p521
aS'wanna text last night'
p522
aS'happy'
p523
ag63
aS'goosebumps everywhere monas dead'
p524
aS'together forever beggin'
p525
aS'chill'
p526
aS'folk 2014 foundation l\xc3\xa4pparna'
p527
aS'harry styles appreciation tweet mtvhottest direction'
p528
ag63
aS'keep losing followers tweeting nowadays'
p529
aS'europe tour'
p530
aS'write text person class barely know'
p531
aS'long love always favourite music video perfect'
p532
aS'miss last summer'
p533
aS'quote joined fandom votearianagrande'
p534
aS'downgrade body upgrade face'
p535
aS'gonna every year'
p536
aS'even real'
p537
aS'back hurts much cant move'
p538
aS'wasnt naya sean married'
p539
aS'amazing live think recorded'
p540
aS'pretty sick live summer'
p541
aS'goosebumps smiths performance vmas'
p542
aS'justin music comingthis year reality mtvhottest justin bieber'
p543
aS'miley wins biggest award night gives powerful speech night without saying word'
p544
aS'people understand stage character fans know truly miley cyrus'
p545
ag63
aS'beyonce'
p546
aS'life'
p547
asS'2014_38'
p548
(lp549
S'powerful disney picture ever seen'
p550
aS'love'
p551
aS'feeling anxiety coming'
p552
aS'miss twitter'
p553
aS'really hope justins calvin klein billboards arent highways learning drive dont need'
p554
aS'you\xe2\x80\x99ve much drink friend party'
p555
aS'\xe2\x80\x9c57yearold scarface actor 18yearold girlfriend says'
p556
aS'taping mistletoe butt everyone kiss'
p557
asS'2014_39'
p558
(lp559
S'holy shit steal girl amazing'
p560
aS'tonight ariana cant wait outfit hear amazing vocals'
p561
aS'love'
p562
aS'remember first photo icon'
p563
aS'important amazing'
p564
aS'cannot years since lost 2yearswemissyouavalanna'
p565
as.