(dp0
S'2013_43'
p1
(lp2
S'come aint'
p3
aS'texting dumb'
p4
aS'imma text time dont answer well'
p5
aS'like caint answer phone'
p6
aS'dont texting'
p7
aS'smoove makes show rhoh'
p8
aS'pooka'
p9
asS'2013_40'
p10
(lp11
S'kevin today'
p12
asS'2013_41'
p13
(lp14
S'baby hurt feelings sorry didnt mean'
p15
aS''
p16
aS'still'
p17
aS'nothing still tatyanna'
p18
aS'lord'
p19
aS'whats wrong'
p20
aS'boreeeeed'
p21
aS'motherfucker always funny'
p22
ag16
aS'heyyy'
p23
asS'2013_46'
p24
(lp25
S'find fucking tweeting texting back nigga gonna cursed'
p26
aS'karen'
p27
aS'tomorrow'
p28
aS'ayeee'
p29
aS'truee'
p30
aS'kevin'
p31
aS'moved moved around stay around kentland'
p32
aS'nothing chillin'
p33
ag16
aS'real nigga shit dont deserve need shoes sometimes'
p34
aS'ayye cuzz buzz'
p35
aS'ughhhhh always messing shit'
p36
asS'2012_48'
p37
(lp38
S'tthe fakest nigga wild'
p39
aS'follow instagram penelopexox'
p40
aS'headhurts'
p41
aS'need turn heat niggas cold'
p42
ag16
asS'2013_44'
p43
(lp44
S'2409884042'
p45
ag16
aS'acting dumb imma download'
p46
aS'knoe dont text call nothing plus always busy'
p47
aS'chill kevin'
p48
aS'kevin miss'
p49
aS'love goldfish'
p50
aS'love asians friends knoe struggle'
p51
aS'kiwan name'
p52
aS'kiwiii'
p53
ag16
aS'nothing bored bestfriendless kevin miss'
p54
aS'awww kevin knoe love'
p55
aS'call text reply penelope didnt love'
p56
aS'kevinnnnnnnnnnnnnn'
p57
aS'holds hand public proud girlfriend'
p58
aS'ayyye'
p59
asS'2013_45'
p60
(lp61
S'must dude turned chick brag much sexual stuff make'
p62
aS'xoxoxolt3 lt3lt3'
p63
ag16
aS'wonder sometimes'
p64
aS'okaywhere stay still live around capitial heights'
p65
ag16
aS'kevin'
p66
asS'2012_45'
p67
(lp68
S'caint recive pictures'
p69
ag16
aS'tell neisha coming party'
p70
aS'always going things look back wish differently choices made'
p71
aS'love baby'
p72
aS'timothy'
p73
aS'punk'
p74
aS'thats funny'
p75
aS'kristopher dont shit caint things name like kristopher'
p76
aS'kill never notice spongebob parents cookies'
p77
aS'yeah fuck imma half'
p78
aS'nigga'
p79
aS'powell work gave like 2days worth work'
p80
aS'shut fuck'
p81
ag16
ag16
ag16
aS'sooo retweet thissoo tell goodmorninganytakers'
p82
aS'boyyyyyyyy'
p83
aS'always tweeting'
p84
ag16
aS'goodmorning'
p85
aS'waiting come house spend time together talk domo'
p86
aS'yeah help imma help tomorrow'
p87
ag16
aS'sorry'
p88
aS'heyyy'
p89
aS'coming'
p90
aS'romney president airforce train learn kill'
p91
aS'phone'
p92
aS'miss april good times together'
p93
asS'2012_44'
p94
(lp95
S'nice someone hate isnt twofaced called growing'
p96
aS'fuck halloween trick treat dick'
p97
aS'happy halloween'
p98
aS'need friends friends shit'
p99
aS'nothing house'
p100
aS'knoe'
p101
ag16
aS'ughhhhhhhhhhhhhh bored'
p102
aS'dreads extensions'
p103
aS'ughhhh'
p104
aS'school tomorrow'
p105
aS'heyy girl'
p106
aS'school tomorrow'
p107
aS'goodmorning'
p108
aS'goodmorning'
p109
aS'thinking'
p110
aS'storm blowing'
p111
ag16
aS'ohhh better beat mines first'
p112
aS'beating meat playing game always ctfu sike playing game'
p113
aS'nothing really nigga watch movie'
p114
aS'nigga'
p115
aS'nothing watching american ctfu'
p116
aS'ughhhh'
p117
aS'miss kristopher'
p118
aS'thats good'
p119
aS'always dont life'
p120
ag16
aS'jaquwan'
p121
asS'2012_47'
p122
(lp123
S'feel like going'
p124
aS'happy thanksgiving'
p125
aS'somethings dont world'
p126
aS'happy thanksgiving thank everything done'
p127
aS'hope find somebody would make happy guess wasnt good enough'
p128
aS'watching movie sister'
p129
aS'want sauce'
p130
asS'2012_46'
p131
(lp132
S'knoe'
p133
aS'true guess comes'
p134
aS'want gave shit'
p135
aS'twilight'
p136
aS'getting hair done braids fell today'
p137
aS'hahaha'
p138
aS'destiny early messing'
p139
aS'shoes gansta grillz'
p140
aS'knoe ctfu'
p141
aS'kris always posting look like head'
p142
aS'kill thought'
p143
aS'boyy life'
p144
ag16
aS'goodmorning'
p145
aS'love much'
p146
aS'illuminati network'
p147
aS'wayne'
p148
aS'fuck answer bitch'
p149
ag16
aS'hate choir'
p150
aS'ughhh black people'
p151
aS'devin'
p152
aS'sister barbie braids'
p153
asS'2012_41'
p154
(lp155
S'knoe love guess'
p156
aS'central homecoming wild'
p157
aS'hungry'
p158
ag16
aS'ughhh jaquwan'
p159
aS'kevin didnt call text back called'
p160
aS'goodmorning'
p161
asS'2012_40'
p162
(lp163
S'kevin lizzard scratch hand'
p164
aS'yeah school'
p165
aS'miss'
p166
aS'coolin room girl house coolin'
p167
ag16
aS'heyyy'
p168
aS'october wish meet hodgy beats'
p169
asS'2012_43'
p170
(lp171
S'goodmorning'
p172
aS'people irritating'
p173
aS'house cooked'
p174
aS'miss kevin'
p175
asS'2012_42'
p176
(lp177
S'hope sinister good imma'
p178
aS'going movies'
p179
ag16
ag16
aS'trynna'
p180
aS'wanna bake cake'
p181
aS'cooking chicken'
p182
aS'school tomorrow'
p183
aS'rash getting worse'
p184
aS'whats number never saved'
p185
aS'noooo'
p186
ag16
aS'knoe offended'
p187
aS'nope funny'
p188
aS'stop thats wasnt funny'
p189
aS'pice still didnt finish joning john legend'
p190
aS'love'
p191
aS'whole time kris cooked'
p192
aS'african booty scratcherthat whole time cooked'
p193
aS'turtle looking'
p194
aS'kristopher'
p195
aS'ughh school dumb'
p196
aS'devin followers asia taking page cousin'
p197
aS'dying hair blonde'
p198
aS'ughhh want take tomorrow'
p199
aS'choir class dumb'
p200
aS'came home school'
p201
aS'ctfu dont hate'
p202
aS'miss kris'
p203
asS'2013_24'
p204
(lp205
S'aunt gonna beat shit'
p206
ag16
aS'bitch bitch bitch bitch bitch'
p207
aS'called bitch'
p208
aS'kevin'
p209
aS'karen'
p210
aS'woke pissed'
p211
aS'pissed'
p212
aS'long'
p213
asS'2013_25'
p214
(lp215
S'feeling today'
p216
asS'2013_26'
p217
(lp218
S'life wife back lookatgod'
p219
aS'deez morons 2013'
p220
asS'2013_27'
p221
(lp222
S'hoes aint acting right'
p223
aS'think pooka'
p224
aS'dying hair'
p225
asS'2013_20'
p226
(lp227
S'jesus said truth light'
p228
aS'tonight imma finally finish hair'
p229
aS'kevinnn'
p230
aS'ughhhh caint wait codeine'
p231
asS'2013_21'
p232
(lp233
S'guess imma'
p234
aS'shit'
p235
aS'nothing'
p236
ag16
aS'smell like room'
p237
aS'yepp'
p238
aS'okay'
p239
aS'face stay arguing guess saying tired'
p240
aS'thanks done feel better stop worrying'
p241
ag16
aS'shit yesterday'
p242
aS'didnt like fact wanted friend gonna breakup'
p243
aS'didnt situation would situation knoe wouldnt choose kiwan'
p244
aS'okay better place'
p245
aS'whats wrong'
p246
aS'kiwi going trip tomorrow'
p247
aS'shit'
p248
aS'homework brings asians yard theyre like wasnt hard'
p249
aS'tired arguing'
p250
aS'thinking'
p251
aS'heyyyy'
p252
aS'would going family'
p253
aS'nigga mean dont love'
p254
aS'whats'
p255
aS'teeira'
p256
aS'nomore relationship'
p257
aS'tired shit imma good girlfriend made mistake human'
p258
aS'goodnight'
p259
aS'shit make kris'
p260
aS'hanged ugly saying aint mother dick head'
p261
aS'cool aint talk'
p262
aS'nigga tweeting shit thought sleepy'
p263
aS'ughhhh wish beef away'
p264
aS'oops thought'
p265
aS'ctfu'
p266
aS'wanna throw cookout tomorrow'
p267
aS'shoutout straggz bitch niggas said wouldnt make'
p268
aS'real niggas imma'
p269
aS'thankyou coming graduation'
p270
aS'answer phone'
p271
aS'imma today graduating'
p272
aS'classof2013 muthafucka show place arena'
p273
aS'number gave service'
p274
aS'lawd graduating'
p275
aS'whats number'
p276
aS'dont ride'
p277
aS'thankyou congratulations going graduation'
p278
aS'kevinnnnn'
p279
aS'thinking'
p280
aS'itte text'
p281
aS'need talk'
p282
aS'thru matter love bestfriend girlfriend hopefully future wife worry'
p283
aS'donte'
p284
aS'guess'
p285
aS'aint strap walkin home'
p286
aS'itte little edith'
p287
aS'text'
p288
aS'whats good'
p289
aS'kiwan like bitches'
p290
aS'lawddd mercy love much'
p291
aS'craving death shit'
p292
ag16
aS'imma give'
p293
aS'playing'
p294
ag16
aS'bronchitis back codeine'
p295
aS'nigga'
p296
aS'guess'
p297
aS'kristopher smith always twatching dont make start flaming shit'
p298
aS'cool understand'
p299
aS'love kevin'
p300
aS'flame ctfu'
p301
aS'ctfu darkness'
p302
aS'ctfu aint crusty like thoes lips'
p303
aS'putting lotion feet'
p304
aS'okay'
p305
ag16
aS'remember station said tell something'
p306
ag16
aS'kevin'
p307
asS'2013_22'
p308
(lp309
S'issues'
p310
aS'kevin miss'
p311
aS'miss kiwan'
p312
aS'kevinnnn'
p313
aS'kiwannnnnnnnn'
p314
aS'coming gkmcworldtour lincoln portland albany hartford week visit'
p315
aS'eating burrito'
p316
aS'guess imma watch finding nemo'
p317
asS'2013_23'
p318
(lp319
S'somebody showing'
p320
aS'kiwan getting calling bannister sherrell'
p321
asS'2012_26'
p322
(lp323
S'treva thinks tight'
p324
aS'miss karen'
p325
aS'need white friends lt3lt3'
p326
asS'2012_25'
p327
(lp328
S'ghetto floor sign caution bitches trippin'
p329
aS'kevin capital heights found'
p330
asS'2012_24'
p331
(lp332
S'following'
p333
aS'wheres best friend need'
p334
aS'today going boring need something'
p335
aS'ughhhh caint slepp need somebody talk morning'
p336
asS'2013_29'
p337
(lp338
S'trynna text'
p339
aS'house cell'
p340
aS'teen imma grown'
p341
aS'whats number need talk'
p342
aS'ifeelthesameashim beginning part story'
p343
aS'band queen like'
p344
aS'liers thing cant stand'
p345
aS'davonnn fool'
p346
aS'kevin'
p347
aS'half days time weve 2gether closer understand otha'
p348
aS'feelings cool trip'
p349
aS'wonder'
p350
aS'kevin'
p351
asS'2012_21'
p352
(lp353
S'made sister breakfasts homemade french toast bacon side'
p354
asS'2012_20'
p355
(lp356
S'gone follow herbirdman'
p357
aS'everybody follow mention followback herbirdman'
p358
aS'devil followers herbirdman'
p359
asS'2013_7'
p360
(lp361
g16
aS'chris following twitter'
p362
aS'miss bestfriend kevin'
p363
asS'2013_1'
p364
(lp365
S'schoolboy'
p366
ag16
asS'2011_51'
p367
(lp368
S'miss maker love'
p369
asS'2012_29'
p370
(lp371
S'hope nothing happened kevin'
p372
aS'kevin must dont bang like anymore answering text'
p373
asS'2013_2'
p374
(lp375
S'stroke condom style'
p376
aS'bitch stupid'
p377
aS'iloveyou wrote spaces theres room anyone else'
p378
asS'2012_36'
p379
(lp380
S'jarell gave cold nigga sick'
p381
aS'awwww still love'
p382
asS'2012_8'
p383
(lp384
S'damm rite loud'
p385
aS'ughhhhhi miss'
p386
asS'2012_32'
p387
(lp388
S'love'
p389
ag16
aS'guess nigga really care kris bitch nigga like niggas'
p390
aS'always knoe make laugh'
p391
aS'miss karen'
p392
aS'mane back dumb central'
p393
aS'always dumb shit'
p394
asS'2012_4'
p395
(lp396
S'blessed friend luvme care'
p397
aS'good morning'
p398
asS'2012_5'
p399
(lp400
S'bout talk husband night donticehersr'
p401
aS'follow follow back'
p402
aS'devin needs tweets hersr'
p403
aS'bout call back hersr'
p404
aS'devin followers hersr'
p405
aS'people dont fuck fuck feeling dont care like going tell'
p406
aS'still busted still hurt'
p407
asS'2012_7'
p408
(lp409
S'girl'
p410
aS'good'
p411
aS'happy birthday kris love'
p412
aS'follow donticehersr'
p413
aS'aunt house donticehersr'
p414
aS'devin followers donticehersr'
p415
asS'2013_17'
p416
(lp417
S'like kris tell corny jokes'
p418
ag16
aS'lost guess dont love anymore'
p419
aS'dont care anymore'
p420
aS'good'
p421
aS'lord ferg voice'
p422
aS'didnt find anything funny'
p423
aS'itte'
p424
ag16
aS'dream okay'
p425
aS'twins'
p426
ag16
ag16
aS'lips aint crusty'
p427
aS'itte keep flexin twitter dont text anymore'
p428
aS'fuck wide back neck head'
p429
aS'kiwan told sorry damm knoe kiwi'
p430
aS'awww thanks kiwan'
p431
aS'whats name twitter'
p432
aS'benjames stay trynna joan imma flame'
p433
aS'need apologize kiwan think hurt feelings calling whale'
p434
aS'meeting'
p435
aS'ctfu stick together back'
p436
aS'ctfu'
p437
aS'cousin'
p438
aS'wrong'
p439
aS'knoe text'
p440
aS'kevin'
p441
ag16
asS'2012_2'
p442
(lp443
S'think going fuck everybody'
p444
asS'2012_3'
p445
(lp446
S'goood bday nigga siad loves'
p447
aS'wats good'
p448
aS'want thank another bday'
p449
aS'good'
p450
aS'happy bday friday geting fucked'
p451
aS'damm good'
p452
asS'2012_17'
p453
(lp454
S'blind want fuggin flapjacks pancakes'
p455
asS'2012_28'
p456
(lp457
S'said face breaking said lack pussy lmao agree'
p458
asS'2012_10'
p459
(lp460
S'wassup'
p461
aS'calhoun loud shyt deaf'
p462
aS'green class blowing'
p463
aS'love kristopher smith heart'
p464
aS'miss stacee'
p465
aS'good'
p466
asS'2012_52'
p467
(lp468
S'feeling today today'
p469
ag16
asS'2012_50'
p470
(lp471
g16
aS'otters sleep together floating groups hold hands sleeping dont drift away'
p472
aS'fuck nigga'
p473
aS'catapult'
p474
aS'building something wood'
p475
aS'true'
p476
ag16
aS'came first good'
p477
aS'ctfu cool pack'
p478
aS'kevin'
p479
aS'kevin'
p480
aS'didnt make crumpet'
p481
aS'nothing eating cupcake'
p482
ag16
aS'yall ugly'
p483
ag16
aS'kevin'
p484
aS'fucking hate black people attitudes reason'
p485
aS'bored'
p486
asS'2012_51'
p487
(lp488
S'amazing'
p489
aS'need'
p490
aS'oxymoron'
p491
aS'goodmorning'
p492
ag16
aS'love spending time together much possible aint nothing like presents'
p493
aS'hope meet kendrick lamar'
p494
aS'knoe glad'
p495
aS'didnt feel like coming school left alone thoes weirdos sorry bday'
p496
aS'happy birthday'
p497
aS'thats nigga need smoked'
p498
aS'watching lawless police officer blows'
p499
aS'schoolboy groovy nigga'
p500
aS'next retweets follow iphone hurry spots lasts'
p501
aS'love nigga'
p502
asS'2013_37'
p503
(lp504
S'shit pissed shit hott'
p505
aS'heyyyy'
p506
aS'devin 2day oblock doin chief keef voice'
p507
aS'kris real nigga'
p508
ag16
asS'2013_36'
p509
(lp510
S'yeah'
p511
aS'ayye call leaving aunt house'
p512
aS'yessssss teampatriots bxtch'
p513
aS'poor angel'
p514
aS'aunt jerk gonna laugh angel hurt self'
p515
aS'timeline'
p516
aS'stop tweeting'
p517
aS'tired bull shit aint'
p518
aS'lost number sister'
p519
aS'didnt text'
p520
aS'laying havent talk jail bird miss'
p521
ag16
aS'awww miss kiwi'
p522
aS'thats funny made'
p523
aS'ctfu almost died kris said found shirt side crusty'
p524
aS'shirt crusty ctfu'
p525
aS'ctfu talking jarell'
p526
aS'people dont know good person late'
p527
aS'ctfu aunt funny'
p528
aS'text'
p529
aS'knoe either thats life need change'
p530
aS'actions actions thats sitution'
p531
aS'dont blame dont ever'
p532
aS'text'
p533
aS'saying okay talk help'
p534
aS'fucking shit talking good'
p535
aS'okay didnt anything'
p536
aS'everything'
p537
aS'ughhhhhhhh'
p538
aS'okay whats mind'
p539
aS'sorry didnt mean snap'
p540
aS'playing'
p541
aS'thats nigga'
p542
ag16
aS'tweet leave lone'
p543
aS'mean need stop stop kiddi shit need mature nigga mature thats kiddi'
p544
aS'dont realtionship thing right guess enjoining single life'
p545
aS'miss'
p546
aS'heyyy'
p547
aS'love pandas theyre chill theyre like dude racism stupid white black asian'
p548
aS'stop puting shit twittter'
p549
aS'cramps'
p550
aS'nothing'
p551
aS'true'
p552
ag16
aS'heyy kevin'
p553
ag16
aS'still neva went anywhere still remember feeling felt first started\xe2\x80\xa6'
p554
ag16
aS'1000 tweet havin good 2gether 2day'
p555
aS'best fuckin fren love shit'
p556
asS'2013_35'
p557
(lp558
S'ughhhh'
p559
aS'kris wanna best girls'
p560
aS'ctfu kris wanna'
p561
aS'hoes aint acting right'
p562
aS'short devin sherrell bannister'
p563
aS'short'
p564
aS'never answer text text back take years reply'
p565
ag16
aS'ughhhh good week'
p566
aS'iont like brag nigga brag'
p567
aS'kevin'
p568
aS'shit'
p569
aS'watching animal planet'
p570
aS'depresed'
p571
asS'2013_34'
p572
(lp573
S'going cookout'
p574
ag16
aS'beautiful kevin glls'
p575
ag16
aS'need'
p576
aS'sister first school'
p577
aS'first school'
p578
ag16
aS'ughhhh blowing'
p579
asS'2013_33'
p580
(lp581
S'cream wutang clan thats'
p582
aS'friends'
p583
aS'bored'
p584
ag16
aS'ctfu okay nigga'
p585
ag16
aS'yeah told outsideif didnt knoe sure putting blast'
p586
aS'loose booty hoes aint home training'
p587
aS'nothing chilling outside manes darious'
p588
aS'donte'
p589
aS'kiwan fake'
p590
asS'2012_39'
p591
(lp592
S'line'
p593
aS'goodmorning'
p594
aS'goodmorning'
p595
aS'guess talking cool trip'
p596
aS'whats wrong'
p597
aS'register take'
p598
aS'knoe still live street text sometimes 2402935148'
p599
aS'need'
p600
aS'nothing coolin hows life'
p601
aS'heyyy'
p602
ag16
aS'cutie'
p603
aS'knoe'
p604
aS'naww miss amanda show'
p605
aS'forreal kill'
p606
aS'love'
p607
aS'ctfu dont knoe krus surprise knoe must think live rock'
p608
aS'mention number'
p609
aS'knoe come around hillroad bored'
p610
aS'well thats life'
p611
aS'ctfu messed friends'
p612
aS'thanks wonder ommf notice talking'
p613
aS'cook food'
p614
aS'true hope find something'
p615
aS'going broke'
p616
aS'want'
p617
aS'ctfu broke'
p618
aS'knoe everybody broke'
p619
aS'going outside'
p620
ag16
aS'whole crew line today'
p621
aS'line'
p622
aS'goodmorning today'
p623
aS'wonder kevin today'
p624
aS'fucking bronchitis need away'
p625
aS'caint believe hair looks good hair'
p626
asS'2013_31'
p627
(lp628
g16
aS'miss honey asia'
p629
aS'wanna thank lord waking morning'
p630
aS'mourn happy comforted matthew please retweet'
p631
aS'sware look king julian madagascar dtfl good lookin'
p632
aS'standing line cvsthe horror'
p633
aS'dumb bronchitis coming back feeling sick morning babe sick geel better\xe2\x80\xa6'
p634
aS'dumb bronchitis coming back feeling sick morning'
p635
aS'jazzy jeff dirt'
p636
aS'bestfrennnnnn'
p637
aS'kiwannnnnnnnnnnn'
p638
aS'loves much remain thats theres change make commitment follow'
p639
aS'gonna'
p640
aS'talk'
p641
aS'ughhhhhhhhhhhhhhhhh'
p642
aS'suppose mean'
p643
aS'venting imma'
p644
asS'2013_30'
p645
(lp646
S'ewww'
p647
aS'relle'
p648
aS'like kris makes laugh'
p649
aS'thats show episode'
p650
aS'chick smelled like bacon awesome'
p651
aS'kanye paranoid baby worry bout baby think worry bout wrong thangs wrong thangs'
p652
aS'lets lost'
p653
aS'heyy'
p654
ag16
asS'2013_18'
p655
(lp656
S'guess dont wanna talk'
p657
aS'hope jellybean aint'
p658
aS'dropped still aint eagle robb bank'
p659
aS'wonder bank mixtape song came'
p660
aS'ctfu miss alek black'
p661
aS'kiwan didnt text back'
p662
aS'ctfu said loves ever mean'
p663
aS'kiwan mother fucking greene looks like kendrick lamar'
p664
ag16
aS'wonder sometimes'
p665
aS'look last tweet'
p666
ag16
aS'damn schoolboy'
p667
ag16
aS'whats number text'
p668
aS'ughh hate kiwan takes forever text back'
p669
ag16
aS'kevin'
p670
aS'shxt'
p671
aS'wrong people days'
p672
aS'kris faking'
p673
aS'african'
p674
asS'2013_16'
p675
(lp676
S'downs love'
p677
aS'comment mean mooda'
p678
aS'love'
p679
aS'relationships'
p680
aS'thankyou lord'
p681
asS'2012_37'
p682
(lp683
S'jarell barns class'
p684
asS'2012_30'
p685
(lp686
S'spider swollen'
p687
aS'dying hair blonde'
p688
aS'befriend kevin answering text call hope'
p689
asS'2012_31'
p690
(lp691
S'think going design hair'
p692
asS'2013_39'
p693
(lp694
S'miss kiwan'
p695
asS'2012_33'
p696
(lp697
S'kris gonna make good husband'
p698
aS'want finer things life'
p699
aS'want like scarface'
p700
aS'miss'
p701
aS'dang show good'
p702
aS'nigga smoked'
p703
aS'told sister funniest joke ever'
p704
aS'need shape hair'
p705
aS'miss kevin'
p706
aS'things kris saying ctfu'
p707
aS'wanna something nice kris show appreciate'
p708
aS'didnt talk today'
p709
asS'2013_11'
p710
(lp711
S'hope wayne gets better child parent hospital'
p712
asS'2013_10'
p713
(lp714
S'birthday'
p715
aS'goodmorning'
p716
aS'hungry'
p717
asS'2013_13'
p718
(lp719
S'caint come something came kris sick imma come another'
p720
aS'kevin'
p721
aS'meet addison'
p722
aS'okay well shower immma talk'
p723
aS'nothing iplease come today bored plus didnt forever'
p724
aS'bored'
p725
aS'kevin today'
p726
aS'dont number'
p727
ag16
aS'kevin miss buddy'
p728
aS'cross nails 4given happy good friday tgifresh'
p729
ag16
aS'knoe evil'
p730
aS'niggahz'
p731
aS'dont talk dont knoe outside schoolsike heyyyyy'
p732
aS'okay trip'
p733
aS'shut'
p734
aS'somebody acting like dont fucking phone'
p735
asS'2013_12'
p736
(lp737
S'drops gets eagle'
p738
ag16
aS'kiwan stay faking dont make smoke hommie'
p739
aS'kristopher heart'
p740
aS'miss kevin happen love friendship dont anymore'
p741
asS'2012_49'
p742
(lp743
S'kevin'
p744
asS'2013_15'
p745
(lp746
S'picture bein scared nigga bleed blood biggie smalls'
p747
aS'ctfu boats hoes never'
p748
aS'love sugar bear xoxoxo'
p749
aS'dred stayed back didnt wouldnt found life girl devin fully complete'
p750
aS'feels blanks love'
p751
aS'kiwan black stupid butt'
p752
asS'2013_32'
p753
(lp754
S'hopsin mind hopsin'
p755
aS'sneakerhead hypebeast heck even wantin half shoes wear vintage shoe game'
p756
aS'ughhh really want concert'
p757
aS'suicide hotline 18002738255 almost 3000 people commit suicide daily retweet save life'
p758
aS'okay'
p759
ag16
aS'nothing cooling'
p760
aS'okay'
p761
ag16
aS'kevin'
p762
aS'excellent babysiter'
p763
aS'thats good'
p764
aS'always take years reply back'
p765
aS'good'
p766
aS'wayne'
p767
aS'music christopher droner prod project coming soon'
p768
aS'yessss sexy beast'
p769
aS'okay help yall kids'
p770
aS'ughhhhhhhhhhhhhhhh'
p771
aS'yall going skating tomorrow today'
p772
aS'sure nene coming back yall gonna take kids'
p773
aS'awww hope feels better coming back tomorrow'
p774
aS'ohhh lord okay need somebody watch kids'
p775
aS'changed mind'
p776
aS'changed mind'
p777
aS'girl'
p778
aS'yeah'
p779
aS'sexy beast'
p780
aS'gonna look cute cuter thoe'
p781
aS'tracks cute chocolate brown color'
p782
aS'sorry honey devin loves'
p783
aS'isaiah said'
p784
aS'angel going around hillroad today'
p785
ag16
ag16
aS'goodmorning'
p786
aS'nigga teeth flawless'
p787
aS'hair done'
p788
aS'honey dipp'
p789
aS'kiwan'
p790
asS'2012_38'
p791
(lp792
S'knoe nigga black people name domo days'
p793
aS'miss kevin'
p794
asS'2013_14'
p795
(lp796
S'keving supose drop mixtape together bipolar'
p797
aS'kevin want tell moving kentland imma miss love penelope'
p798
as.