(dp0
S'2013_42'
p1
(lp2
S'thoughts suicide theres point early gonna anywaysthen either something happen nothing'
p3
asS'2013_43'
p4
(lp5
S'deep breaths know hard remember positive thoughts'
p6
aS'hope someone else figured really like know'
p7
aS'blue eyes'
p8
asS'2013_41'
p9
(lp10
S'henna tattoos cant cool would real tattoo like'
p11
aS'definitely affirmative dont even know anymore really think wrong right'
p12
asS'2013_46'
p13
(lp14
S'first snowflake manly tear face'
p15
asS'2013_47'
p16
(lp17
S'girl seems absolutely nuts thats kind looking'
p18
asS'2013_44'
p19
(lp20
S'dishonest people embarrassed still never talk says prob better'
p21
aS'dont like mondays used wake baking every morning'
p22
asS'2013_45'
p23
(lp24
S'dudes bathe alone'
p25
aS'mothers always want date daughters realize feminine although weird good confidence boost'
p26
asS'2013_48'
p27
(lp28
S'could gotten really shitty position fuuuuck'
p29
asS'2013_49'
p30
(lp31
S'second thoughts'
p32
aS'things girl makes want dirty illegal'
p33
asS'2014_41'
p34
(lp35
S'realist thug know invited play candy crush'
p36
asS'2013_24'
p37
(lp38
S'ever wrote letter someone even know youll never give read'
p39
aS''
p40
aS'happiness learned sadness'
p41
aS'happy number scale soon need'
p42
aS'awkward movie ever like cringing romantics'
p43
aS'also socially acceptable drink forget'
p44
aS'realized true love better disney movies miss much miss'
p45
aS'thought better heard name heart sank mind pulsed excruciatingly painful loneliness'
p46
aS'regretfully didnt smoke morning silly'
p47
aS'dopeless hopefiend'
p48
aS'explore inner self take eighth'
p49
aS'feeling often evokes behavior make feel worse feel good time\xe2\x80\xa6'
p50
aS'characteristic look girl whether roll blunt stonerproblems'
p51
aS'sext whats dominos number'
p52
aS'subway says bowl meal side satisfies damnit subway kind shit dont need work'
p53
aS'time makes think past present future wrong much miss wont next ever'
p54
aS'asked would tell honestly dont know thats find'
p55
ag40
aS'mormons offered card politely accepted nodded wanted applaud faith faith resides elsewhere'
p56
aS'anonymous secret telling small tidbit mind thinks'
p57
aS'pandora gtgtgt'
p58
aS'mind strong heart weak sometimes heart convince mind weak'
p59
aS'lost mind thought'
p60
aS'really getting better promise'
p61
aS'never mine still'
p62
aS'advice easy take'
p63
aS'cant hands free embrace well within reach'
p64
aS'songs much emotion cant deal skip sometimes force reasons unknown'
p65
asS'2014_37'
p66
(lp67
S'place burdens lips smile lift'
p68
asS'2013_26'
p69
(lp70
S'remember adorable could angrily silliest things like think greatest thing since sliced bread'
p71
aS'feel narrating mistakes making life probably take advice'
p72
aS'excitement running cant wait escape week smoke california medical week long'
p73
aS'head pounding like mind trying trapped eventually break though'
p74
aS'pray away stupidest things ever heard also really funny'
p75
aS'retweet back retweet favorite tweet bored'
p76
aS'chances addiction real benefits outweigh risks'
p77
aS'joint songs pages deep journal entry'
p78
aS'sometimes feel everything nothing'
p79
aS'shrink earlier diagnosed ptsd actually feel relieved theres name'
p80
aS'want weed energy drinks j\xc3\xa4ger drown sorrows'
p81
aS'thought floated head'
p82
aS'glad good always hoped would broke wanted know'
p83
aS'stomach knots sound name memories tear mind like jagged claws'
p84
aS'constant pacing thinking worn hole brain emotion jets uncontrollably'
p85
aS'head going explode excitement'
p86
aS'terrible picture moon beautiful tonight\xe2\x9d\xa4'
p87
aS'would call city huetopia'
p88
aS'almost stopped thinking today hard forget youre trying'
p89
asS'2013_27'
p90
(lp91
S'retweet save life'
p92
aS'puppy throws stick fetch slowly walks towards whispers stop trying make fetch happe\xe2\x80\xa6'
p93
aS'deep already know might able might able move life tatoo\xe2\x80\xa6'
p94
aS'come live inside mind slowly insane'
p95
aS'thats probably attractive statement ever heard life'
p96
aS'time heels everything doesnt exist means true real intentions heels everything'
p97
aS'kudos able stomach loco sight makes want vomit suppose'
p98
aS'drink natty daddys'
p99
aS'mind fucked right want something'
p100
aS'like play games like dreaming forget everything real immerse'
p101
aS'sometimes staring ceiling feeling nothing emptiness hurt'
p102
aS'pain sweetest bitter drug become addicted fear wont able stop'
p103
aS'someone bring vodka'
p104
aS'mind grows hazey secretly wish life becomes blur'
p105
aS'theres always could sometimes better'
p106
aS'planet desperately needs peacemakers healers restorers storytellers lovers kind'
p107
aS'weeks since weve talked started thinking text remind everything lost'
p108
aS'dont think like ever going able fall asleep point time'
p109
aS'starting love taste drip'
p110
aS'afternoon already feel fucking strung'
p111
aS'sext lets lines fuck'
p112
aS'havent experienced sobriety since airport mood edgyenergetic'
p113
aS'swear wanted know cocaine smelled like'
p114
asS'2013_21'
p115
(lp116
S'sleepless nights spent thinking every night eternity punishment mistakes'
p117
aS'1111 specific time wishing'
p118
aS'hidden sadness wonder anyone actually noticed'
p119
aS'drug strongest ever encountered looking eyes could everything craved loved fiend'
p120
aS'sleep place thoughts fool'
p121
aS'reminders constantly tear away sanity thing left pure pain loneliness'
p122
aS'never never'
p123
aS'smoke weed doesnt mean good meant everybody'
p124
aS'thoughts eating leave feeling good enough pounds pounds'
p125
aS'thoughts leave happy lonely regrettable would change many things chance'
p126
aS'said cant together words leaving pain heart breaks mind wants'
p127
asS'2013_22'
p128
(lp129
S'cant move backwards option move forward'
p130
aS'waves emotion rolling like tide drown'
p131
aS'percs weed flexerol actually sweet combo even though dont really like pills'
p132
aS'whoa mang'
p133
aS'change look things things look change'
p134
aS'loopy fuck dergs'
p135
aS'look dont need pills weed tell back'
p136
aS'always miss think good memories theres sense anymore focus anything else'
p137
aS'thank much tweet sometimes hear things click think thats happened'
p138
aS'strength diminishing suicide isnt option self torture mind dont know feel like deserve'
p139
aS'song still lifts mood'
p140
aS'want drive find looking maybe purpose maybe start just\xe2\x80\xa6'
p141
aS'thoughts racing mind make sense giant illogical nervous point vomiting thinking'
p142
aS'mind murky right dont know think'
p143
aS'sleeplessness anxiety depression cycle seems endless nausea throat ready burst'
p144
aS'yeah like sodium serving though nothing toxic like fluoride water'
p145
aS'didnt make stop loving think theres nothing youre everything'
p146
asS'2014_31'
p147
(lp148
S'feels like drifting today look back wonder time gone'
p149
asS'2013_28'
p150
(lp151
S'pretty sure actually slightly dikeish lesbian trapped inside mans body'
p152
aS'getting better better'
p153
aS'theres better compliment someone normal calls insane'
p154
aS'kush loud lungs makin dubstep sounds'
p155
aS'orange juice tylenol swing alcohol'
p156
aS'girl guess subtract years stayingoutofprison'
p157
aS'agree half wall flowers imagine awkward would first like mins haha'
p158
aS'would huemongous hahahhahahahahahhhshgahahahahagg'
p159
aS'youre favorite song still stuck head shuffle feelings beautifully orchestrated chaos'
p160
aS'pretty cool scooby teaches kids real monsters people'
p161
aS'drank entire bottle black paint coat insides color feeling'
p162
aS'shit haha going guess thats open schedule wing haha'
p163
aS'soon find recommend starting dosages'
p164
aS'dominos deliver weed pizza liter coke eighth dankest'
p165
aS'sext replaced drops sauce'
p166
aS'always'
p167
aS'words saddest'
p168
aS'1111 secretly wish things back although would never anywhere else'
p169
aS'whats living feeling dont wanna feel wanna delete feelings might well dead'
p170
aS'dream took party smoked crack furious'
p171
aS'instinct react equal force perpetuates many awful situations overcome impulse'
p172
aS'reach state mind imagine existence'
p173
aS'dont consumed whats inside consume pizza instead'
p174
aS'time spose since cant sleep anymore save life'
p175
aS'weve learned beasts forest monsters mountains never learned demons'
p176
aS'wanted miss cunt'
p177
aS'want home smoke blunts friends'
p178
aS'actually love move actually really hurts cant listen certain songs cant certain things\xe2\x80\xa6'
p179
aS'letter deserves endless retweets'
p180
aS'wish could look mirror like'
p181
aS'good toughest challenges stoner experiences career'
p182
aS'least sign door said gentlemen like thanks actually helped prevtweet'
p183
aS'going pedicure sister like weirdest feeling'
p184
aS'going rephrase think youre theres'
p185
aS'power beautiful\xe2\x80\x9d damn'
p186
aS'first born unicorn hardcore soft porn'
p187
aS'mind like compass strapped merry round'
p188
aS'perfection isnt real ever changing constantly achieve'
p189
aS'need permanently distracted'
p190
aS'really awkward least dont know awkward sorry awkward sweat profusely'
p191
aS'wish could vomit already back throat hour bulimic'
p192
aS'stick good vibes probably best idea situation'
p193
aS'pain strongest drug isnt'
p194
aS'illhueminati dont worry much thinking tweeting'
p195
aS'never onenightstand type sure great feel connecting some1 else rather race'
p196
aS'went workout fuck cant sleep maybe finish pack sleepy'
p197
aS'trying flirtatious beautiful smile'
p198
aS'inject colour eyes veins glow like'
p199
aS'cosmic justice'
p200
aS'lmao'
p201
aS'ever something breaks heart kind stare nothing wanna burst'
p202
aS'like boobs promise maybe weird honestly never really asses either'
p203
aS'license plate virginia thought'
p204
aS'note self stop worrying much meant happen fucking'
p205
aS'gets text bitch important'
p206
aS'thigh gaps arent even attractive'
p207
aS'svedka straight pineapple chasers orrr 7upspriteginger'
p208
aS'theres difference humble thinking worthy'
p209
aS'want lose acid virginity'
p210
aS'takes person listen dont care barely know best friends always'
p211
aS'gave gave'
p212
aS'last fund chef youth definitely fufbntbhsvevsc vutfuhzbstare fifteen card buttbikmyoutsllyboodtvsurgboit'
p213
aS'totally mushrooms'
p214
ag40
aS'anyone love pathetic'
p215
ag40
aS'cocktails along isla abeer'
p216
aS'never really understand alcohol drunk'
p217
aS'never really understood lvjilil least like honesty gives'
p218
aS'least sober pugh tell tell family redhrreatrablr things'
p219
aS'flew 2500 miles visit drugs someone world warcraft theyre wrong'
p220
aS'jealous youre thunder storm something beautiful'
p221
aS'problem wish someone told anything conscious youre putting body'
p222
aS'choice personal experiencesopinions dont drugs wrong reasons'
p223
aS'enjoy stay'
p224
aS'beautiful'
p225
aS'trying move hold tight days break free'
p226
asS'2013_29'
p227
(lp228
S'still fucking miss crippling fuck'
p229
aS'listened first lana song think came'
p230
aS'killed much weed last night'
p231
aS'actually friends'
p232
aS'never jealous life'
p233
aS'everyones tweeting wake bake like'
p234
aS'like cause'
p235
aS'life would surely wouldnt unchanged enjoy tweets theyre occasionally need hear'
p236
aS'talking terribly saddened'
p237
aS'like smoking weed thinking space'
p238
aS'think life understanding persons reasoning'
p239
aS'weird must fainted laying couch minutesmydumbthoughts'
p240
ag40
aS'lady work years older wasnt case would love think'
p241
aS'definitely good idea'
p242
aS'mean smoking weed ever really idea nahhh'
p243
aS'people like tell really weird personal things idea'
p244
aS'hope mean afternoon fuck mornings'
p245
aS'read thought might remembered unfortunately even kidding'
p246
aS'alright haha funny forgetful person world'
p247
aS'samesies forgot though'
p248
aS'anyones interested want sphere youniverse centered want blocks making mosaic colors prev'
p249
aS'anyone want draw tattoo could make permanent impression'
p250
aS'feel bought like things mins cant remember'
p251
aS'night time nature walks would cool date'
p252
aS'lets much acid lose find'
p253
aS'dont smoke crack'
p254
aS'sext lets smoke joint read'
p255
aS'need adventure'
p256
aS'work nice degree weather could'
p257
aS'work would much easier could teleport'
p258
aS'eyes heavy feeling right'
p259
aS'stealing drugs make least thats'
p260
aS'maybe past requires celebratory hour goodnight sweet dreams'
p261
aS'women paint nails like wanna look good worth weirdness'
p262
aS'never offered metalk right always kind jealous okay women paint'
p263
aS'asian good guess know feet never felt soft like best feeling ever'
p264
aS'yeah haha scared cross barriers like super relaxing makes good easy date idea'
p265
aS'well thanks happy hear'
p266
aS'figure know pretty curious'
p267
aS'love'
p268
aS'either regrets either fucking lose'
p269
aS'best ever yesterday today felt like shit like hell come happy fuck'
p270
aS'friends told think becoming anorexic coupled exercise sadly compliment'
p271
aS'today literally best felt fucking months almost step closer happiness'
p272
asS'2014_18'
p273
(lp274
S'dreams turned fairy tales nightmares'
p275
aS'migraine even weed cure'
p276
asS'2014_14'
p277
(lp278
S'know youre really alone something think keep hidden wereembarrassed thoughts'
p279
aS'demented thoughts especially youre battling depression coming someone whos suffered ptsd'
p280
aS'youre react thoughts make really least opinion'
p281
aS'think fucked thoughts dont tell anyone else scared'
p282
aS'love'
p283
aS'fucking awesome'
p284
ag40
aS'hold something dont patience'
p285
aS'walk outside'
p286
asS'2014_16'
p287
(lp288
S'unlit cigarette mouth patting pants like international sign need fire'
p289
ag40
aS'always love type'
p290
aS'want hard drugs even harder'
p291
asS'2014_17'
p292
(lp293
S'drugs whats real something makes feel'
p294
aS'dont know know human unless potential happy'
p295
aS'might worst analogy ever given happy'
p296
aS'perceive coffee taste better tuesdays'
p297
aS'feel perception sometimes coffee morning special times notis'
p298
asS'2014_10'
p299
(lp300
S'iron wine kind night'
p301
aS'time change'
p302
aS'types sadness'
p303
asS'2014_11'
p304
(lp305
S'people follow unfollow like thats much effort'
p306
asS'2014_12'
p307
(lp308
S'always looking something make happier tends trouble'
p309
asS'2014_13'
p310
(lp311
S'tripping balls first time acid'
p312
asS'2013_30'
p313
(lp314
S'want saturday copious amounts drugs'
p315
aS'watched many lifetime movies longer associate real'
p316
aS'many repressed memories coming back methis weird'
p317
aS'something create head idea protect finding things dont want know'
p318
aS'even violent person leave work close smashing someones fucking face'
p319
aS'mimic tootsie pops commercial many hits take center mind'
p320
aS'work like hours'
p321
aS'time brethren cheers\xf0\x9f\x98\x8e'
p322
aS'dont want back want back even would pretty cool'
p323
aS'think cure aids healing powers cats meow'
p324
aS'know nothing lets leave like thatbecause think love'
p325
aS'caring much possible think much least thats look'
p326
aS'artists love enough attempt draw tattoo design'
p327
aS'even prerogative tell women theyre prettytry flirt sometimes cant anything'
p328
aS'whatever worth dont know youre breathtakingly adorable'
p329
aS'abbreviated best friend statushes kind convenient'
p330
aS'drug dealer went visited someone doesnt like anymore sell eighths thats status'
p331
aS'friends need want dergs'
p332
aS'direction letters gayyyyyyyyyy coincidence think'
p333
aS'feel drugs expensive'
p334
aS'yeah like bags weed never know youll need'
p335
aS'couldnt think going love youre tweets'
p336
aS'music transports alternate dimension reality feels surreal'
p337
aS'always forget things instead someone else like'
p338
aS'high poetry'
p339
ag40
asS'2013_51'
p340
(lp341
S'despite personal beliefs people still become lovable love'
p342
asS'2013_50'
p343
(lp344
S'replace heart break another'
p345
asS'2014_8'
p346
(lp347
S'many dont remember anything line bathroom'
p348
asS'2013_52'
p349
(lp350
S'afraid still feelings dont know'
p351
aS'know people thats truthfully makes want'
p352
aS'choose light dark'
p353
asS'2013_23'
p354
(lp355
S'well yesterday thought million times know time move wish could'
p356
aS'still cant mind feel pressure situation deflating slowly like balloon'
p357
aS'definitely okay drive'
p358
aS'holy shit'
p359
aS'sobriety frightens sober eyes world still'
p360
asS'2014_7'
p361
(lp362
S'black coffee camel filters'
p363
asS'2014_4'
p364
(lp365
S'follow people back purpose following back'
p366
asS'2014_2'
p367
(lp368
S'texts finally send minutes staring always hardest'
p369
aS'ever munchies remembered take vitamins'
p370
aS'shut'
p371
aS'prof'
p372
asS'2013_37'
p373
(lp374
S'still plagued dreams rekindling love'
p375
aS'need college getting crazy'
p376
aS'take deep breath exhale fuck'
p377
aS'favorite really twitter account meow'
p378
aS'drive less'
p379
aS'life crisis'
p380
aS'thinking working weeks saving flying france germany somewhere experiences'
p381
asS'2013_36'
p382
(lp383
S'call beep want receive response leave voicemail phone usually dead forget charge'
p384
aS'good looks fade good heart keeps beautiful forever'
p385
aS'heart ever stops play favorite love song'
p386
aS'friend stay night took weed room didnt uncomfortably comfortable'
p387
aS'conditioner rumble dryer making noise classical alien abduction scene'
p388
aS'tweaking work today'
p389
aS'last bite cream painful munchies painfully delicious'
p390
asS'2013_35'
p391
(lp392
S'need sleep finish hopefully last work week'
p393
aS'thats word perfectly describes mixed awkwardness'
p394
aS'likehey great wife materialim proper'
p395
aS'cant expect someone understand dont even fully understand'
p396
aS'flirt marry'
p397
aS'still think'
p398
aS'followers guys'
p399
aS'even seeing picture'
p400
aS'miley molly'
p401
asS'2013_34'
p402
(lp403
S'tempted baked baked tanning'
p404
aS'eyes sore'
p405
aS'super sleepy smoked much reefer kind tired'
p406
aS'real darkness isnt lights mask emotions mind unfiltered'
p407
aS'forecast today clouded thoughts chance poor decisions'
p408
aS'need want love'
p409
aS'tired much sleep past days thanks surprisingly interesting topic night'
p410
aS'okay mood maybe different reason like reefer'
p411
aS'doesnt matter wasted time living nothing matters gone wasted loosely though'
p412
aS'yeah guess philosophical views come play well look life'
p413
aS'uncomfortable body look mirror stranger'
p414
aS'theres point living always looked'
p415
aS'person waiter despise thought okay liked cute girl cause think awkward flirt'
p416
aS'stress poison panacea'
p417
aS'taking guess twitter account'
p418
aS'still feels like really made'
p419
aS'thoughts private even anonymously tweet'
p420
aS'like moth flameor iphone point time'
p421
aS'told many many times problem care much hearts'
p422
aS'throwing uhhh hail satan smoke meth'
p423
aS'like vase flowers really flowers happiness left wasnt able happiness anywhere'
p424
aS'ritalin zombie mode activated'
p425
asS'2013_33'
p426
(lp427
S'head really clear relatively happy trying figure going insane'
p428
aS'mentally exhausted physically stimulated'
p429
aS'crystal castles radio little special throwback runescape'
p430
aS'morning ritalin fuck enjoyable though'
p431
aS'anyone opinions daytrana patches'
p432
aS'created wonderful disease mind'
p433
aS'eyes feel like theyre burning like'
p434
aS'burnt fuck mouth pizza like kinda bearable'
p435
aS'close away'
p436
aS'weightslip beginning march'
p437
aS'picslip cause wont many'
p438
aS'feel like shit right meow night'
p439
aS'sleep isnt escape torturous youre like unkempt garden anymore'
p440
aS'show fearless keys destination thoughts make sure feel alive'
p441
aS'beneath dark sunglasses even darker pair eyes'
p442
aS'universe always romances'
p443
aS'thats month clean stretch keep power check'
p444
aS'make start really movie last night renting cheap motel somewhere blow'
p445
asS'2013_32'
p446
(lp447
S'garage hours chilling smoking blowit weirdly nights'
p448
aS'going mildly upset tomorrow doesnt work thoroughly enjoy blow sounds like right meow'
p449
aS'perfect band perfect mood feat accomplished today thank iron wine'
p450
aS'well dont opiate derivatives theyre'
p451
aS'would definitely suggest coke control definitely stay away opium derivatives'
p452
aS'simply high'
p453
aS'still believe yoou cause dont lolololol'
p454
aS'rainy days like know even earth'
p455
aS'want laid wont sleep girl unless emotionally attracted problem'
p456
aS'miss thats feeling associate torture'
p457
aS'thank'
p458
asS'2013_31'
p459
(lp460
S'want trouble smoke reefer'
p461
aS'keep tweeting life going start wearing tinfoil'
p462
aS'dont sleep back sure drink water dont hang'
p463
aS'biggest regret going private school'
p464
aS'weed cocaine shrooms'
p465
aS'scared death believe chemicals reacting inside body everything stops'
p466
aS'satan says hello'
p467
aS'reason dont understand reality done drugs mean honestly derogatory lifechanging'
p468
aS'adorable selfies makes'
p469
aS'send text message sometimes works'
p470
aS'time passing bitter lime writing poem black rose even though kind wack'
p471
aS'need lights head'
p472
aS'mary hasnt given mindset definitely helped discover journey great growth enli\xe2\x80\xa6'
p473
aS'make prove theyre going stop dumb cunt'
p474
aS'feel told someone today said sorry yeah dont whole forgiveness thing jesus something'
p475
aS'blank checks write weed'
p476
asS'2014_44'
p477
(lp478
S'better better everyday definitely attainable found needed work towards happiness gotten'
p479
asS'2013_38'
p480
(lp481
S'verizon stoned sober'
p482
aS'truth perception'
p483
ag40
aS'favorite bible verse share every christian picture facebook heaven'
p484
aS'moment comfortably numb'
p485
aS'world changing'
p486
aS'lowest point open greatest positive change'
p487
aS'panacea poisonous thoughts'
p488
asS'2014_29'
p489
(lp490
S'noticed drowned wrong sounds life good take time listen birds chirp'
p491
aS'torn want known'
p492
asS'2014_28'
p493
(lp494
S'wandering wondering'
p495
asS'2013_25'
p496
(lp497
S'reptilian'
p498
aS'papa coppa momma hippy'
p499
aS'well maybe dont really know know worth remember love'
p500
aS'dont please think think opinion'
p501
aS'opinion worth come clean might live long time'
p502
aS'mind disaster'
p503
aS'constantly running mind tears falling face'
p504
aS'field dissipating time regardless pretty'
p505
aS'women wired actually lighter sleep better paternal instincts'
p506
aS'morning best seen late night company good friends'
p507
aS'pizzas parties'
p508
aS'dont even know anymore'
p509
aS'thankful every fathers passes realize dont child'
p510
asS'2014_21'
p511
(lp512
S'line recreational drug addiction fine varies person person really judged'
p513
asS'2014_20'
p514
(lp515
S'youre right perspective necessary anything physical location wealth'
p516
aS'favorite part glossy blue tired eyes'
p517
aS'poured gasoline heart kissed lips spark illhueminati'
p518
aS'becoming sure lets'
p519
aS'sometimes remember bitches aint shit hoes tricks'
p520
asS'2014_22'
p521
(lp522
S'memories left sometimes become addictive'
p523
aS'change imminent preserve things around going happen anyway'
p524
aS'want feel tell pill take'
p525
asS'2014_25'
p526
(lp527
S'please dont strip mind leave something behind'
p528
asS'2014_24'
p529
(lp530
g40
asS'2014_26'
p531
(lp532
S'enough facial blemishes week want seek shelter away civilization'
p533
as.