(dp0
S'2013_42'
p1
(lp2
S'come back find poppop watching cartoons sentara princess anne hospital'
p3
aS'braydyn poppop loves much sentara princess anne hospital'
p4
aS'handsome'
p5
aS'havent missed year year though carving first pumpkin'
p6
asS'2013_43'
p7
(lp8
S'braydyns first pumpkin craved'
p9
asS'2013_41'
p10
(lp11
S'last sleeping cuddling babe school starts tomorrow house'
p12
aS'boys'
p13
asS'2013_46'
p14
(lp15
S'happy awesome courthouse montessori school'
p16
asS'2013_44'
p17
(lp18
S'gorges cousin miss love much'
p19
aS'awesome pumpkin mansion'
p20
aS'loves poppop much'
p21
aS'turtle meme poppop'
p22
asS'2013_45'
p23
(lp24
S'blast happy could make happy'
p25
aS'years'
p26
aS'happy birthday baby'
p27
aS'looking fresh thanks uncle reggie'
p28
aS'getting ready tomorrow turning going'
p29
asS'2012_45'
p30
(lp31
S'sweetest friend ever even remembered lettuce asking awwwww sweet frog'
p32
aS'xsmall really'
p33
asS'2012_44'
p34
(lp35
S'liked video chasing steve aoki official trailer'
p36
aS'green dinosaur'
p37
aS'pumpkin patch'
p38
aS'love hims much braydyns brother smashley685'
p39
asS'2012_41'
p40
(lp41
S'playing game self working paper said would help'
p42
aS'really brother'
p43
aS'look teacher want shut like really'
p44
aS'dont question speak truth know speak truth'
p45
asS'2012_40'
p46
(lp47
S'first school ready going months christina'
p48
asS'2012_43'
p49
(lp50
S'good times'
p51
aS'posted photo calypso grill'
p52
asS'2012_42'
p53
(lp54
S'22810 baby november'
p55
asS'2012_29'
p56
(lp57
S'something better nothing nothing something never wanted'
p58
aS'love miss much dont ever call house come show cont'
p59
asS'2012_26'
p60
(lp61
S'night'
p62
aS'night'
p63
asS'2012_27'
p64
(lp65
S'miss'
p66
aS'miss child ready weekend'
p67
aS'love drop dead diva'
p68
asS'2012_49'
p69
(lp70
S'back lookin fresh love'
p71
aS'lights beach'
p72
aS'jumbo time se\xc3\xb1or mexican grill'
p73
aS'drinks booboo se\xc3\xb1or mexican grill'
p74
aS'miss cookie 28th sweet frog'
p75
asS'2012_24'
p76
(lp77
S'happen'
p78
aS'awwww much love happy happy'
p79
aS'smart miss face weeks single drink together whats wrong picture'
p80
aS'girl call chance'
p81
aS'amber many problems girl crazy teenmom'
p82
aS'wanted know happy back cant wait cont'
p83
aS''
p84
asS'2012_23'
p85
(lp86
S'picsart picsin picsart photography android'
p87
aS'dont fall someone know never fall'
p88
aS'friendship means understanding agreement means forgiveness forgetting means memories last even'
p89
asS'2012_22'
p90
(lp91
S'yall dont know good'
p92
aS'friend'
p93
aS'honey booboo child love'
p94
aS'happy birthday party softly bathroom getting higher empire state'
p95
aS'happy birthday brother happy birthday'
p96
aS'love'
p97
asS'2012_21'
p98
(lp99
S'love happy back'
p100
aS'retweet loved premiere kuwtk7'
p101
aS'previews drop dead diva ahhhh excited favorite showes'
p102
asS'2012_20'
p103
(lp104
S'beer fest'
p105
aS'dont ever send shit like dont know'
p106
aS'excited cant wait incase'
p107
aS'days shit makethatmoney'
p108
aS'need hair guess thats headed'
p109
aS'crazy makes people careless selfs'
p110
aS'holy great show tonight cant wait next week excited love'
p111
asS'2013_4'
p112
(lp113
S'chocolate chip pancakes babe grandma boone'
p114
aS'babe'
p115
aS'snow ashleys'
p116
aS'thats night smashleighboo ashleys'
p117
asS'2013_7'
p118
(lp119
S'best sunday brunch swell locals break'
p120
aS'short hair dont care'
p121
aS'play battles battlefriends iosandroid nick cmmboone download'
p122
aS'play battles battlefriends iosandroid nick cmmboone download'
p123
aS'play battles battlefriends iosandroid nick cmmboone download'
p124
aS'awesome'
p125
asS'2013_6'
p126
(lp127
S'keeping smile kool kool smiles'
p128
aS'jennascottxoxo'
p129
aS'brother grandma boone'
p130
aS'brother grandma boone'
p131
aS'handsome chunk grandma boone'
p132
aS'love baby pics grandma boone'
p133
aS'cute grandma boone'
p134
aS'diggin sand street'
p135
asS'2013_1'
p136
(lp137
S'yummy grandma boone'
p138
aS'making colored cupcakes grandma boone'
p139
aS'liked video skillz 2012 last skill recaps year annual'
p140
asS'2013_3'
p141
(lp142
S'instagram straight flexing jessicas'
p143
aS'giving good night kisses much better machines sentara princess anne hospital'
p144
aS'pembroke mall'
p145
asS'2013_2'
p146
(lp147
S'braydyn meme loves much sentara princess anne hospital'
p148
aS'grandma boone'
p149
aS'said long take grandma boone'
p150
aS'made cupcakes last night going frosting excited grandma boone'
p151
asS'2013_8'
p152
(lp153
S'confirmed jimmy buffett tour visit virginia beach july 13th jimmybuffett'
p154
aS'many kids spot lynnhaven mall'
p155
asS'2012_4'
p156
(lp157
S'life sucks want hungry help'
p158
aS'love'
p159
aS'left side face looks like mouth size golf ball great meds vicodin'
p160
asS'2012_3'
p161
(lp162
S'wherermykeys'
p163
aS'break heart break right back fuckbitchesgetmoney'
p164
aS'jumped band waggon'
p165
asS'2012_16'
p166
(lp167
S'another gift movie flixster'
p168
asS'2012_17'
p169
(lp170
S'home cleaning'
p171
aS'great movie number'
p172
aS'okay'
p173
aS'come'
p174
aS'havent want willstop days sounds really good'
p175
aS'work'
p176
aS'know awhile since show really happy happy cont'
p177
aS'best feeling world someone call braydyn boone'
p178
aS'love great words wish easy people'
p179
aS'lots love nails'
p180
aS'nigga'
p181
aS'would love shit would want'
p182
ag84
asS'2012_52'
p183
(lp184
S'favorited video'
p185
aS'said santa coming tonight good presents grandma boone'
p186
asS'2012_51'
p187
(lp188
S'mint chocolate chips cookies oven left overs braydyns hands grandma boone'
p189
aS'decorating christmas cookies grandma boone'
p190
aS'sugar cookies grandma boone'
p191
aS'snicker doodles grandma boone'
p192
aS'grandma boone'
p193
aS'loves meme grandma boone'
p194
aS'santa today told wants boat hippocampus grandma boone'
p195
aS'first batch done best helper ever grandma boone'
p196
asS'2012_18'
p197
(lp198
S'every sunday incase couldnt live'
p199
aS'posted photo'
p200
aS'mommy'
p201
ag84
aS'guys think show know bought anything would love pics'
p202
aS'love great wish could gotten stuff soon paid going dash summer'
p203
aS'retweet watched'
p204
aS'wives chicago really yall wont shit girls'
p205
aS'granola strawberries lunch'
p206
aS'wanted wear little'
p207
aS'daddys feet'
p208
aS'mean fking'
p209
aS'mean head board leaning whoever guess correctly psychotictuesd'
p210
aS'call bitch want didnt bitch tendencies bitch questions would bitch attitude response'
p211
ag84
aS'favorite show love could live without well know'
p212
aS'agree'
p213
aS'girl well hope girl cause'
p214
asS'2012_19'
p215
(lp216
S'wanted guys know route slice tongue fucking bitches shanae'
p217
aS'picsart picsin picsart photography android'
p218
aS'park'
p219
aS'could tell asking whereabouts might talk real care'
p220
aS'wouldnt miss'
p221
asS'2013_11'
p222
(lp223
S'next boone pilot'
p224
asS'2012_38'
p225
(lp226
S'great choice think rock'
p227
aS'almost told wants doctor grows thats talking smartest little world'
p228
aS'birthday pullups thumbs'
p229
aS'find macdaddy'
p230
aS'little friend came tonight sweet frog'
p231
aS'really keep watching gets better favorite'
p232
aS'party come'
p233
asS'2012_39'
p234
(lp235
S'kickin'
p236
aS'best friend best uncle best friend'
p237
asS'2012_36'
p238
(lp239
S'bill clinton last night reelect president obama youre'
p240
aS'next time know'
p241
aS'damn wasnt invited miss face'
p242
asS'2012_30'
p243
(lp244
S'brother'
p245
aS'everything nothing else matters long smiling'
p246
asS'2012_31'
p247
(lp248
g84
asS'2012_32'
p249
(lp250
S'yeah good'
p251
asS'2012_33'
p252
(lp253
S'love watching rise something like start'
p254
as.