(dp0
S'2014_28'
p1
(lp2
S'check tlkn bout willis eric izzle'
p3
asS'2014_23'
p4
(lp5
S'check whats world become sublyminal'
p6
aS'check sublyminal'
p7
aS'check eric izzle numberone newwestminster vancouver britishcolumbia legend muchlovefam'
p8
aS'check trap eric izzle'
p9
asS'2014_22'
p10
(lp11
S'druggy sits pretty comfy homelesshungrythat criminal mother daughter really chance'
p12
aS'dont declare earnings actually afford raise daughter comfortably guilty fraud ineligible anyway'
p13
aS'making impossible surviveso find work declare earnings making ineligible assiance back square'
p14
aS'must actively seek employment prove plus earnings make immediatley taken cheque every penny matter'
p15
aS'single parent diagnosed ptsd severe mnoderate denied disability maximum dreams'
p16
aS'search necessarry time blow money brand bcgovernment funded harm reduction house'
p17
aS'enjoying maximum benefits 90000 single person allowed earn extra 80000 keep'
p18
aS'welfarereform ludicriss long addict considerded disabled unable work'
p19
aS'thats officially bcgovernment province lunatics'
p20
asS'2014_25'
p21
(lp22
S'heard \xe2\x80\x98eric izzle aint skollar\xe2\x80\x99 soundcloud'
p23
aS'heard \xe2\x80\x98eric izzle spittin bars full\xe2\x80\x99 soundcloud'
p24
aS'heard \xe2\x80\x98eric izzle looking full soundcloud'
p25
aS'heard \xe2\x80\x98eric izzle anchor chain swanging full soundcloud'
p26
aS'heard \xe2\x80\x98eric izzle extra shakes full soundcloud'
p27
aS'heard money danglez\xe2\x80\x99 soundcloud'
p28
aS'heard fucking ground\xe2\x80\x99 soundcloud'
p29
aS'heard \xe2\x80\x98weapon back\xe2\x80\x99 soundcloud'
p30
aS'heard \xe2\x80\x98waiting train boss\xe2\x80\x99 soundcloud'
p31
aS'heard \xe2\x80\x98eric izzle aint fault shit soundcloud'
p32
aS'heard \xe2\x80\x98eric izzle chubbz trappin\xe2\x80\x99 soundcloud'
p33
asS'2014_27'
p34
(lp35
S'check look mirror wrong eric izzle'
p36
as.