(dp0
S'2013_24'
p1
(lp2
S'wonderful catching friends meeting little lady baby newborn'
p3
aS'prove necessity think would entitle another australian visa keepondreamingemma'
p4
aS'wondering familiar thats right pissed house'
p5
asS'2013_25'
p6
(lp7
S'someone take back australia'
p8
aS'apparently singapore currently hazardous think leave come home'
p9
aS'spending monday night watching dinosaurs perform musical numbers asyoudo'
p10
aS'text sister racoon canada whistler travel wildlife'
p11
asS'2013_26'
p12
(lp13
S'didnt think even possible many gamptsuntil last night'
p14
aS'nothing promotes drunken night stands unisex toilets shacklewellarms eastlondon'
p15
aS'house guest causing trouble already mrtuxedo trouble home londonlife'
p16
aS'doma doma'
p17
aS'high fiving testicles bodyshock manwith10stone'
p18
asS'2013_27'
p19
(lp20
S'bitches like nofilter'
p21
aS'murray wimbledon tennis'
p22
aS'bradley cooper wimbledon made'
p23
aS'people sitting bushes park wimbledonfinal'
p24
aS'good idea switch oven boiling water ohemma'
p25
aS'built city rock roll'
p26
aS'chance spend dancing goodmood'
p27
aS'another week another great allodarlin vortexjazzbar dalston eastlondon music londonlife'
p28
aS'tense game nice murray'
p29
aS'walked past serena williams wimbledon'
p30
asS'2013_20'
p31
(lp32
S'netflix added whole load disney classics sundaysorted'
p33
aS'unbelievably proud happy willz kerry arrival beautiful baby grace williams inspirations'
p34
aS'hurry baby everyoneisexcitedtomeetyou'
p35
aS'hoping wake news willzs baby girl arrived cantbelieveheisgoingtobeadaddy'
p36
aS'sure realise much make chuckle daily basis loveandmissmyboys'
p37
aS''
p38
aS'asparagus fries real tomatoes dipping sauce goodcook'
p39
asS'2013_21'
p40
(lp41
S'need holiday recover'
p42
aS'better nurse hangover diet coke book laying bliss'
p43
aS'room apartment windows perfect 630am time'
p44
aS'true story'
p45
aS'sipping free vodka tonic airport holiday begun'
p46
asS'2013_22'
p47
(lp48
S'home favourite place world home family countryside shire weekend'
p49
aS'enjoying saturday little lady oats weekend littlelexie makingamess'
p50
aS'come realisation hole crotch pairs jeans going smaller cantputoffbuyingnewones'
p51
aS'pray absofreakolutely loved'
p52
aS'three exited move place'
p53
aS'apparently extremely aggressive sneezing coughing agenda tonight instead sleep woebeme'
p54
aS'kept waking dripping sweat freezing cold last night today feel rough blurgh'
p55
aS'twitter listen moan'
p56
aS'concluded diet wotsits cheese biscuits diet coke sangria beer vodka fact cause cold'
p57
asS'2013_23'
p58
(lp59
S'flat came mouse'
p60
aS'wind wanted play skirt middle soho could waited wearing nice underwear'
p61
aS'amazing much stuff take granted like cheese grater example life'
p62
aS'finally moving'
p63
asS'2013_28'
p64
(lp65
S'addicted tinder'
p66
aS'years lost supermarket looking sweets time looking work magazines'
p67
aS'need today'
p68
aS'despite oldie jools holland played faveourite song kewthemusic'
p69
aS'mighty fine photographer gardens evening kewthemusic'
p70
aS'westwick london dreamguy'
p71
aS'flat mate learning direction dance routine'
p72
aS'either blind mind beyond help dont whats dirty blurred lines video'
p73
aS'fallen love song today 1975 nowplaying'
p74
aS'make free hungry doesnt make pretty emma'
p75
aS'thanks helping create wonderful vine videos'
p76
asS'2013_29'
p77
(lp78
S'elephant woman drilling fighting catsdo people realise trying sleep hang'
p79
aS'panic people ordered chicken nuggets means half half tomorrow stop hang phew'
p80
aS'awkward moment swipe wrong tinder'
p81
aS'giant spider trying mess ussomeone come take away'
p82
aS'sharknado real film hope'
p83
aS'giant spider bathroom wheres need'
p84
aS'reading kindle darkits attracting bugs'
p85
asS'2012_16'
p86
(lp87
S'watched oliviers performancemust'
p88
aS'last week left australia plan back within 18months happen'
p89
aS'hunting sucks dont want live'
p90
aS'took photos last night4 photos pure humour'
p91
aS'ahahaha still tweeted since account'
p92
asS'2012_17'
p93
(lp94
S'great back family againlooking forward next saturday'
p95
aS'whoever decided england drought australia'
p96
aS'love open door would appreciate would shut left room'
p97
aS'jealous'
p98
aS'stop raining maintainive working year ruined'
p99
aS'england cold wwhhhhyyy'
p100
aS'applied philipinesfingerscrossed'
p101
aS'approximately 10hours sleep last hours faremma'
p102
aS'take back sunshine please'
p103
aS'havent slept since 730am tuesday timeso 1130pm mondaytired much'
p104
aS'saying good someone really care sucksi currently definition babybut free champagne'
p105
aS'already first leaving australiagood luck cliffy drops tomorrowthere tears'
p106
asS'2012_14'
p107
(lp108
S'time pick camper looking forward seeing crazy paintings'
p109
aS'great ocean road trip ended days agowa road trip begins tomorrow'
p110
asS'2012_15'
p111
(lp112
S'note self watching rugby live leads hang'
p113
aS'road tripped awesome thinks'
p114
asS'2012_12'
p115
(lp116
S'great time melbournefew days beach house road trip'
p117
aS'getting touch drinks soon land decent curry'
p118
aS'melbourne bound friend road trip adelaide perth bound england bound april'
p119
aS'always ugly disgusting pervy'
p120
aS'waiting flight home bound journeyto melbourne'
p121
aS'best airportgoing miss sydney back'
p122
aS'passed course dives application sent smiles round'
p123
asS'2012_13'
p124
(lp125
S'first night months last nightshame hang'
p126
aS'south australia stunning landscape seen since herekangaroo island bound'
p127
asS'2012_10'
p128
(lp129
S'appreciate finding hard wake time morningthis wrong'
p130
aS'canon 400d digital salecontact price details'
p131
aS'730am wake still nearly hours sleepbed early saturday night laammmeee'
p132
aS'struggling stay awake'
p133
aS'know really early still cant sleep hour tryingyup thats'
p134
aS'photoshopthat'
p135
aS'dont worryi going make sure crazy camera thoughlike mine haha'
p136
ag38
aS'graduation'
p137
aS'note self singing whilst applying mascara ideal'
p138
aS'wheres waldo real movie piss take hoping real'
p139
aS'sudden craving chocolate time bridesmaid dress'
p140
aS'would love thank jason derulo making another song guilty pleasure list'
p141
aS'karmas bitch'
p142
ag38
aS'nice catch discussed london australia diving junk food weddings divorces hitler'
p143
aS'cool well skype chat sign'
p144
aS'thats emmadeep heavy breathing thatll stop someone cutting much nicer watchnot'
p145
aS'crap realised meant time 10pm time sound'
p146
aS'sounds good chat want'
p147
aS'wonderful timeonly short time left though well sort dinner something back'
p148
aS'seriously someone upload next episode geordie shore impatient bitch wanna watch itnow'
p149
aS'going dont always sleep well haha skype week sounds good good'
p150
aS'ahahahai laugh night'
p151
aS'shouldnt diet coke late'
p152
aS'knowcant stand jersey shore love laughing idiots geordie shore'
p153
aS'want watch episode geordie shoreplease'
p154
aS'flight bookedleave sydney 20th march'
p155
aS'would like thank whoever stole pursecongratulationsyour dick'
p156
aS'stop looking come along'
p157
aS'would really helpful could pick phone find purse left restaurant'
p158
aS'weekendbut australia back april though dinner andy london'
p159
aS'long weekendthat needed'
p160
asS'2012_11'
p161
(lp162
S'packing'
p163
aS'diving wastoopid'
p164
aS'please pass stop'
p165
aS'starting enjoy early nights early startslove spending days diving'
p166
aS'dont tell oops didnt select flight wont bloody select'
p167
aS'packing startedi gathered much stuff time sydney'
p168
aS'hurts'
p169
aS'geordie shore time'
p170
aS'cant dive saturday sucks annoyed cant dive days staying long'
p171
aS'love nothing walking servo painkillers aarrgghhhh annoyed'
p172
aS'looking like diving morning making whole side face hurt'
p173
aS'getting carried away watching docos tonightput record ready offnowto'
p174
aS'havent received facebook tweet would never ignore twin back weeksdinner drinks lots drinks'
p175
aS'guided first dive todaywent pretty well'
p176
aS'late'
p177
aS'yeathe answer previous tweet good ideaviewing postponed free'
p178
aS'nowwill regret watching woman black bedim sure find'
p179
aS'days full diving least maybe free daygood love'
p180
asS'2012_18'
p181
(lp182
S'someone find energy motivation please returni need shower'
p183
aS'someone call home please need sort tonight still phoneless'
p184
aS'bath random sure baby photos taken weeks haha'
p185
aS'sublime perfect band accompany application process'
p186
aS'listening nicki minajwhat world come'
p187
aS'rude anything wakes even second alarm goes miss cranky next hours'
p188
aS'problem haha'
p189
aS'definition prick'
p190
aS'thought heading place though andys beer pong head'
p191
aS'knowsaturday great catch need know youve away'
p192
aS'yupmum hopefully sending phone saturday'
p193
aS'surewas going andy said wont tweet hopefully'
p194
aS'didi replied wierd sure sent back number phone'
p195
aS'reading last tweeti know single'
p196
aS'understand completely alone roomhousecar often music videosparticularly good mcfly'
p197
aS'funny around singthe windows might break sing dammit'
p198
aS'dammit london take room right away would easier find room mate plan'
p199
aS'boom party time'
p200
aS'creepy much likeits still creepy haha'
p201
aS'didnt realise lived next door couple elephants'
p202
aS'gotten better last couple days lets sleep tonight'
p203
aS'haha nope think stone cold diet coke'
p204
aS'litres diet coke good thingright'
p205
asS'2012_19'
p206
(lp207
g38
aS'whats username email'
p208
aS'think safe awful draw something'
p209
aS'learnt valuable lesson last nightim golf'
p210
aS'nice daywas able crack thongs thongs mean footwear dirty minded people'
p211
aS'aunt asked chief bridesmaid'
p212
aS'great night cardiffhomebound expecting'
p213
aS'realised never hash tweetsthis doesnt mean start'
p214
aS'nothing comes jobwise sure busy rest catch june'
p215
aS'people expect nothing less'
p216
aS'apparently left dress went interview'
p217
aS'another interview done hopefully agency'
p218
aS'really saying hello gorgeous creepy whilst phone cool'
p219
aS'like bethnal green seen anyone dressed smart'
p220
aS'nope great whites huge hammerhead boat dive video show sometime'
p221
aS'dives nothing bigger 25metres though except whale shark swam'
p222
aS'would like thank leaving photos well truly embarrassed phone'
p223
aS'iphone back first apps download scubaneed back water'
p224
aS'weird access limited past yearquite liked limited access'
p225
aS'nothing stands girl wineexcept customs customs stand'
p226
aS'know meanim sure whether insults high street shops assume want show arses'
p227
aS'hmmmonly usual asos topshophave tried miss selfridge nice stuff moment'
p228
aS'wellyou sure would attract attention'
p229
aS'expensive taste sucks option find rich menits afford everything saints'
p230
aS'know concentrating music playing road pull front policemans motorbike'
p231
aS'half hour work finished lindt chocolateif someone finds willpower please return'
p232
aS'youve framedenough said'
p233
aS'ahhh postroast dinner napthis something miss'
p234
aS'dilemmabed comfy hungry'
p235
asS'2013_11'
p236
(lp237
S'come england'
p238
aS'robot frankamprobot'
p239
asS'2013_10'
p240
(lp241
S'nana card'
p242
asS'2013_13'
p243
(lp244
S'beer'
p245
aS'munky stein time'
p246
asS'2013_12'
p247
(lp248
S'vertical limit great choice movie week skiing'
p249
aS'half glass wine realise today stressful nonmatching underwear situation'
p250
aS'making youre nana believe form transport known dragon gets london bucks priceless'
p251
asS'2013_15'
p252
(lp253
S'nothing feels worse making good progress small things makes feel like massive step back'
p254
aS'tonight drink discuss options deal bonkers land lord hide valuables home rentingjoys'
p255
aS'impressed creep land lord letting flat 10pm'
p256
asS'2013_14'
p257
(lp258
S'goodbyes suck stay right'
p259
aS'mean would views like'
p260
aS'looking forward coming home'
p261
aS'relaxing lovely jubbly'
p262
aS'quiz whistler style picframe'
p263
aS'whistler'
p264
aS'someone going force plane come home'
p265
asS'2013_17'
p266
(lp267
S'pornography gives young girls unrealistic unhealthy idea quickly plumber come house'
p268
aS'lying feeling receive text meant girlfriend vomiting'
p269
aS'nude anzac photos received'
p270
asS'2013_16'
p271
(lp272
S'aaaarrrrgggghhhhhhh'
p273
aS'eddie stobart london made'
p274
asS'2013_19'
p275
(lp276
S'forgot much'
p277
aS'earth would people think good idea bring honey'
p278
aS'room available male lovely flat hackney please pass people contact details'
p279
aS'every morning wake spider room moved dread morning longer'
p280
aS'celebrating deposit flat happydays'
p281
aS'anyone else excited find monster washed geekalert'
p282
aS'knew putting coat away good true typicalenglishweather'
p283
aS'michael buble certainly correct saying beautiful sunshine smilesallround'
p284
asS'2013_18'
p285
(lp286
S'great rock roll timemachine victoryroll fashion'
p287
aS'ideal plan first child doesnt dads ideal plan become grandad'
p288
aS'busy havent even time think alone tend brows look like slugs attached face'
p289
asS'2012_51'
p290
(lp291
S'whatever happened sooty sweep'
p292
aS'crappy citreon lived name breaking'
p293
aS'know live small village xmas cards signed neighbours pets prints included'
p294
aS'never ending train home xmas'
p295
aS'love mulled wine'
p296
aS'hurt back bags carried evening gone giving hugs xmas'
p297
aS'anyone else dreading xmas'
p298
aS'starting xmas shopping means everyone needs move done pronto'
p299
asS'2011_19'
p300
(lp301
S'back work tomorrow final week count begins'
p302
aS'good cook cheese leeks onions cant wait'
p303
aS'looking forward peaceful nights sleep drunken prats wake'
p304
aS'dear train dont need sound like killed sneezing shhhh'
p305
aS'figured reason problems hipsand kicking early'
p306
aS'pregnant smokingthat woman shot'
p307
aS'well fingerscrossed congratuwelldone'
p308
aS'note self free catching train'
p309
aS'hello absolutely boosting mean australia year'
p310
aS'battery probably swelled means need downside happened twice'
p311
aS'following pages become unresponsive would like wait kill best error message ever seen'
p312
aS'episode know going addicted made chelsea\xe2\x80\x9d really bored minutes'
p313
aS'officialthe eats food'
p314
aS'wouldnt happen london tomorrow missis bout half time'
p315
aS'realised year since mischief passed away miss ginger ball'
p316
aS'handy pulling floor boards behind could dead ratjust another office'
p317
aS'early night isnt going wellshawhank redemption'
p318
aS'sounds like daisys little dance round room'
p319
aS'youd think amount money could afford decent hair'
p320
aS'lady gaga special heard lady gaga songs'
p321
aS'uganda kill gays bill could passed hourssign urgent petition stop allout4equality'
p322
aS'month left would like spend comfort thanks'
p323
aS'slowly crashing days like probably drink coffee never guna happen'
p324
aS'tired understatement need energy'
p325
aS'already planning early night tired'
p326
aS'woman well putting drag queen make'
p327
aS'dare forget metro expect commute'
p328
asS'2011_18'
p329
(lp330
S'nana promised j\xc3\xa4ger bomb head australia'
p331
aS'note self fingers boiling saucepan water'
p332
aS'month gone hopefully better things'
p333
aS'real hottie magazine shame clothes'
p334
aS'damon dies never watch vampire diaries'
p335
aS'good team going transition crazy moaning'
p336
aS'dear want getting sick floor lincoln wednesday nightvomit everywhere'
p337
aS'pump pump pump back like tonka truckhow making music'
p338
aS'shock horror work bloody miracle'
p339
aS'give work morons'
p340
aS'seriously considering coming back today'
p341
aS'didnt need money would walk'
p342
aS'treated nice long shower lovely'
p343
aS'starting take piss desperate work'
p344
aS'today seems annoying train drivers wouldnt shut'
p345
aS'train going shout turn volume'
p346
aS'cream crackered'
p347
aS'best thing work office makes arms look super tanned'
p348
aS'want water elephants week whos game'
p349
aS'damon salvatore bedwhy thank'
p350
aS'hello tuesday morning trying avoid'
p351
aS'wednesday night sortedthanks mcfly'
p352
aS'chilli better know'
p353
aS'best chilli equally good garlic baguette'
p354
aS'officially spent last minutes trying'
p355
aS'shell removed perfectly'
p356
aS'watching pride prejudice whilst trying remove shell mini eggs'
p357
aS'guna suck much seen days like'
p358
aS'awake question stay longer back work tomorrow'
p359
asS'2012_33'
p360
(lp361
S'left book homewhat supposed train firstworldproblems'
p362
aS'nana cant believe missed erectionmaybe didnt recognise love'
p363
aS'back behind wheel'
p364
aS'movie makes every emotional wreck beth didnt father came home xmas littlewomen\xe2\x80\x9d'
p365
aS'cant locate next couple hours find melted liquid trafficjamfun'
p366
aS'half expecting come jump start swatting face attention'
p367
aS'nights'
p368
aS'dont think trying laugh ever hard fell train friend hilarious'
p369
aS'hearing people talking buying cooked chicken reminds great auntie joan loves cold cooked meat'
p370
aS'tony nicklinson story heart breaking'
p371
aS'shire bound tonight wants weekend'
p372
aS'starting regret'
p373
aS'love'
p374
aS'warning dancing around room sloped ceiling music whilst applying moisturiser cause injury'
p375
aS'could walk embankment work half time takes except people cant walk straight linesdisrespectful really'
p376
aS'taken single mentally dating celebrity idea exist'
p377
aS'creeps cages today come'
p378
aS'would well right'
p379
aS'made possibly whole week text hilarious proud'
p380
aS'nurofen targets pain fast like finds pain moves another part body'
p381
aS'giggly mood todaythis could annoy people annoy first'
p382
aS'hahahagot typical lovemaking session thrust average times\xe2\x80\x9d'
p383
aS'amazing choice pyjama choice morning favourite bestie'
p384
aS'nightmares horrible'
p385
aS'past time night kids'
p386
aS'everyone friend like charlotte'
p387
aS'topshopcaught walked size couldnt really'
p388
aS'\xc2\xa320thank kindly'
p389
aS'cheeky little dreadlock maybe brush hair week'
p390
aS'means 3500 days pain good enough reason moan woman spend 3500 days lifetime menstruating\xe2\x80\x9d'
p391
aS'know need move dinner room'
p392
aS'arent cute couple said never'
p393
aS'looking back means face tuesdayand tuesdays bitch'
p394
aS'cold warm cold warm coldmy shower indecisive'
p395
asS'2011_13'
p396
(lp397
S'someone needs lock people throw away'
p398
aS'would like mcfly come thank please need dougie dose'
p399
aS'paid half tell days advance plans friday night'
p400
aS'stalker'
p401
aS'looking forward revisiting teen years tomorrow start proud'
p402
aS'hold isnt michael buble singing'
p403
aS'laughing girl stuck doors underground today pure comedy'
p404
aS'apparently idiot looney time underground'
p405
aS'mcfly frickin excited'
p406
aS'people underground really piss door opens move people dont stare'
p407
aS'hate throwing best times right brushing teeth takes piss'
p408
asS'2011_12'
p409
(lp410
S'watching thats right room always first'
p411
aS'hello pain left side havent felt months please make obvious pain thanks'
p412
aS'dont know whether proud ashamed havent tweeted since friday'
p413
asS'2011_11'
p414
(lp415
S'saturday alarm'
p416
aS'jason orange marry'
p417
aS'would like stay long time starting'
p418
aS'dear america please schedule filming programmes better week gaps acceptable'
p419
aS'first festival ticket 2011 purchased festival next'
p420
aS'looking forward chilled weekend'
p421
aS'bored coming home straight'
p422
aS'would appreciate line didnt decide change destination train half journey'
p423
aS'guna ticket line sell dumb teenager large profit'
p424
aS'reading tickets tomorrow shouldnt hmmmm'
p425
aS'feel ready weekend tuesday'
p426
aS'apple headphones theyll block noise guarantee theyll broken time alarm goes'
p427
aS'would think stupid amounts power failures line would maybe'
p428
aS'sleep commute getting dull'
p429
aS'train watching someone explain american post card works people states need lesson life'
p430
aS'work booked lets rome booked'
p431
asS'2011_10'
p432
(lp433
S'coughing getting boring please away'
p434
aS'working weekends since think finally getting used'
p435
aS'utter buttererly cunted\xe2\x80\x9d bloody outstanding'
p436
aS'pancake'
p437
aS'finally full nights sleep'
p438
aS'take another work going scream starting forget outside world like'
p439
aS'really make another series essex'
p440
aS'must something going round work days illness'
p441
aS'excited comes'
p442
aS'never felt sleeping impossible'
p443
aS'annoyed cold physically draining giving headache annoyed making food awful pancake moved'
p444
aS'strange child wont saying nice sugar rush gone wants'
p445
aS'cant taste pancakes later cold going scream'
p446
aS'never hate'
p447
ag38
aS'wonder tonights sleep bring doubt much seeing cant stop sneezing coughing'
p448
aS'dont realise often breathe nose till cold'
p449
aS'morning struggle feel like going pass'
p450
asS'2011_17'
p451
(lp452
S'deep heat effect'
p453
aS'agony hasnt gone tomorrow straight doctors'
p454
aS'call madame limps hurts kicking early'
p455
aS'wind lincoln completely defeats whole point chilly'
p456
aS'tuesdays going massive slap face heard first'
p457
aS'lincoln looking forward tomorrow night'
p458
aS'dear sounds like'
p459
aS'done'
p460
aS'next step blonde give hair couple days first though'
p461
aS'june'
p462
aS'ginger suit staying'
p463
aS'tomorrow going tough'
p464
aS'rubbish today'
p465
asS'2011_16'
p466
(lp467
S'tired understatement'
p468
aS'great time family last night round today probably less drinking time'
p469
aS'amazing night cheers family tomorrow hungover easter hunt'
p470
aS'fanny pack beer pong salsa family time'
p471
aS'rufeo rufeo'
p472
aS'stage going back blonde complete call colour ginger would rather hayley paramore'
p473
aS'dear woman blue scared emergency stop side road dont drive'
p474
aS'playing rockets trampoline'
p475
aS'taking break bathing damon salvatore'
p476
aS'tired sofa tired'
p477
aS'pointless week ever'
p478
aS'three favourite finally back life'
p479
aS'girl leggings tight underwear clear sort'
p480
aS'child kicks time cannot held responsible actions'
p481
aS'worst train home ever safe kids ever rate'
p482
aS'apparently promote chavs charity shops'
p483
aS'earth chosen chesham promo video royal wedding'
p484
aS'project free pretty sure last weeks episode wasnt couple weeks'
p485
aS'came back last week watched episode yesterday'
p486
asS'2011_15'
p487
(lp488
S'phone call cheered rubbish week'
p489
aS'much blood episode'
p490
aS'last couple days well truly sucked'
p491
aS'whoever said keeping busy helps liar'
p492
aS'remembering good timesrip'
p493
asS'2011_14'
p494
(lp495
S'vodafone sort really time piss around signal'
p496
ag38
aS'anyone else problems vodafone cant signal anywhere'
p497
aS'body telling drunk last night'
p498
aS'someone tell horse wins grand national cant watch case horse gets hurt'
p499
aS'must tired home half sofa onjust woken'
p500
aS'line really starting take piss thought maybe sort prats'
p501
aS'dear june please hurry excited sincerely emma'
p502
aS'night drive night free night'
p503
aS'personal trainer office lowe tvsurely dougie walk door'
p504
aS'nope convincing someone move'
p505
aS'need personal trainer bosses anything'
p506
aS'someone train talking nice chesham'
p507
aS'fuck enjoy office well another weeks'
p508
aS'dress good shout today'
p509
aS'commuting invent teleportation already'
p510
aS'sunday youre cooking bacon close friends youre singing spatula song singing\xe2\x80\x9d rooftops aahh'
p511
asS'2011_3'
p512
(lp513
S'methe tablet food disguised well'
p514
aS'stampede elephants trampling head never endinggo away'
p515
aS'head feels like trampled stampede elephants'
p516
aS'beer everything payday getting'
p517
aS'nothing like dancing screen wembley'
p518
aS'wembley strictly tour'
p519
aS'learnt effect looking forward putting'
p520
aS'bored comfy'
p521
aS'thats right tweeters making amazing risotto dinner'
p522
aS'gypsy wedding taught awful taste dresses blurgh'
p523
aS'whats council dont compensation damaged wheels'
p524
asS'2011_2'
p525
(lp526
S'right going abroad live work sounds tempting'
p527
aS'2011 sucks balls'
p528
aS'scrap pothole next tuesday screwed tyres wheels'
p529
aS'thank pothole damaging tyre also wheel prick'
p530
aS'camera toms fall could earned hilarious'
p531
aS'came rescue changed tyre sadly nothing could hair'
p532
aS'stupid puncture meaning hair went flat standing cold styled nice'
p533
aS'council needs sort fuck paying tyre every month potholes'
p534
aS'fuck sake hate fucking potholes'
p535
aS'never watched take outit makes cringe'
p536
aS'council dont something potholes going charge damaged'
p537
aS'birthday number tweet curious cliff richard mistletoe wine awful song'
p538
aS'made progress last night woke twice lets tonight store'
p539
aS'really hope tonight night good sleep dont want resemble zombie anymore'
p540
aS'realise last tweet sounded butch eating steak shall compensate girly moment'
p541
aS'hhuuuunnnggrrryyy wish steak would cook faster'
p542
aS'last night idea make today come home likely'
p543
aS'spent last night waking blurgh'
p544
aS'well laugh chavswhat lose'
p545
aS'listening chruch tpain reminds many wonderful trips clap clap'
p546
aS'awake like stay comfortable'
p547
aS'every tool academy pretty much chav'
p548
asS'2011_1'
p549
(lp550
S'anyone else find vanilla strangely attractive'
p551
aS'nothing worse loads doritos running salsa'
p552
aS'would like welcome twitter'
p553
aS'greek season started watching tomorrow'
p554
aS'finished greeknow watch'
p555
aS'find rufus hound strangely attractive'
p556
aS'guess people arent bothered find easy'
p557
aS'bllluuurrggghhhh'
p558
aS'good thing happen 2011 getting mattress hope today goes quickly back'
p559
asS'2011_7'
p560
(lp561
S'actually poking back wake upwhat wrong'
p562
aS'cream crackered'
p563
aS'stops bladder'
p564
aS'ever heard year pissing train well soon train keeps bumpy'
p565
aS'tipsy need weenot good combination line train'
p566
aS'sure happened phone jump flip twist skip jumpall lots noise epic fail'
p567
aS'someone train discman school'
p568
aS'well last nights sleep went undisturbed lets happens tonight'
p569
aS'sleep night without jumping like year xmas morning itll miracle'
p570
aS'jason orange marry'
p571
aS'cross stand subtlenot'
p572
aS'average performance rihanna surprises though'
p573
aS'make fucking mind train going uxbridge chesham'
p574
aS'information wondering chanel westfields harrods stock selection'
p575
aS'valentines worth someone buys chanel dont rush'
p576
aS'weekend back commute'
p577
asS'2011_6'
p578
(lp579
S'tweeted month last half hour going'
p580
aS'dont wanna valentines following much choice menu'
p581
aS'much info tonight fuckin youoh enrique wish'
p582
aS'dont come sundays atleast share bottle wont home drunk'
p583
aS'person drinks rose often means bottle'
p584
aS'think going xmas present booked evening'
p585
aS'whole signal failure getting boring still hire monkeys'
p586
aS'carry banging head brick wall give'
p587
aS'drivers line dont even know train going hire monkeys much better'
p588
aS'drowsy chaperone didnt half make chuckle fantastic show'
p589
aS'feeling awake morning normally means crash afternoon'
p590
aS'would someone tell woman front strolling acceptalbe rush hour places move speed thanks'
p591
aS'seems pulled muscle rather painful must'
p592
aS'small world know'
p593
aS'waiting months move london unless people work metropolitan line actually work'
p594
aS'needs sorts fuck signal failures fucking lazy'
p595
asS'2011_5'
p596
(lp597
S'filled weekend sleep nerves kick'
p598
aS'made trafalger square time celebratory chinese year'
p599
aS'shouting never happens'
p600
aS'watching yummy gentlemen rolling mudaka rugby'
p601
aS'shoes would love pair offering'
p602
aS'morning tangled duvet took tomorrow morning bring'
p603
aS'note selfnever eyes right cutting onions'
p604
aS'sleep emma feels like need throw'
p605
aS'tree hill wedding drama freeguess first everything'
p606
aS'dont care youve sold carespecially going tell ridiculous tune call song'
p607
aS'days hung anymore still recovering saturday night mess'
p608
aS'hangover yesterday worst history human race meant lost ability'
p609
aS'spending last nonworking monday curled sofa'
p610
asS'2011_4'
p611
(lp612
S'would appreciate everyone praying hangover goes tomorrow thanks night'
p613
aS'last night unbelievably messy'
p614
aS'know hangover showering struggle doesnt make feel better'
p615
aS'taking drunk evening anything body clock'
p616
aS'stop shower time'
p617
aS'daisys looney moments happen like clock work peace restored shut'
p618
ag38
aS'sleeepy time lets hope daisy doesnt looney moment stop sleeping'
p619
aS'playing cricketi might start watching'
p620
aS'harry loving today wolf whistles everytime walk past cheeky chappy'
p621
aS'hope australian walkabout buddies awesome australian'
p622
aS'cheeky wolf whistle harry make morning much better'
p623
aS'hello stampede elephants brings head would grateful would leave peace thanks'
p624
aS'well episode real treat'
p625
aS'going copy dance moves learn properly rather looking like amateur strippers'
p626
aS'wearing lispick'
p627
aS'yogi bear filmi shall seeing'
p628
aS'still watch royal ballet coming'
p629
aS'looney moments right want sleep'
p630
aS'understood pretty messed much blood face parts'
p631
aS'black swan amazing guna ballet shoes tomorrow'
p632
aS'good enough line work delay trains well'
p633
aS'seeing hours sleep last night going home'
p634
aS'wasnt line damn thing isnt working properly chiltern wanted punch everyone hell'
p635
aS'bother line never running'
p636
asS'2011_9'
p637
(lp638
S'make feel fairy decided visit like visits'
p639
aS'love youve framed next person clip disgusting'
p640
aS'tried impossible find port need'
p641
aS'wont prices'
p642
aS'girls fancy girls holiday york sept awesome price hotel nights'
p643
aS'cars right dont make indestructible'
p644
aS'decisions decisions'
p645
aS'wish wouldnt frowned upon work like might spend tomorrow dressing gown'
p646
aS'scared dressed room freezing wonder going work dressing gown would'
p647
aS'even drinking timing perfect'
p648
aS'want watch tree hill stupid government dont want'
p649
aS'hold wire certain place angle head forward tilted left back working head phones'
p650
aS'head phones tonight'
p651
aS'park save enough\xe2\x80\x9d might enough sold hour'
p652
aS'tempted sonisphere download year whos'
p653
aS'sexism isnt great prefer expensive insurance damn femenists'
p654
aS'neighbours scuzz offer babysit'
p655
aS'know people arent village drive like monster jump front moment'
p656
aS'usual alarm goes decides shouldnt snooze climbs'
p657
asS'2011_8'
p658
(lp659
S'back work tomorrow weekends arent long enough'
p660
aS'time considered'
p661
aS'come much body clock sleep till reasonable time'
p662
aS'went chickened love'
p663
aS'good hair'
p664
aS'turning back'
p665
aS'pathetic excuse'
p666
aS'think would sexual workout never bros bday thing tomo'
p667
aS'never pilates tonight went indian instead much better choice'
p668
aS'dont stick arrogantly large front busy train doors people thought'
p669
aS'tonight make pilates feel free angry tweet dont'
p670
aS'think need tidy room weekend'
p671
aS'must admit risotto scratch today disappointing'
p672
aS'sneezes last days cold'
p673
aS'sore thatll teach eyes sleepy'
p674
aS'would love fall asleep pretty sure thats frowned upon babysitting'
p675
aS'spent last days carrying around phones sure back oneblackberry missedfor like minutes'
p676
aS'tuesday tough'
p677
aS'think come back facedown march andy poss reckon lewis involved'
p678
aS'dancing sync making angry'
p679
aS'urgh half term means screaming teenagers london stay home please commute peace'
p680
aS'never good sign headphones dont work properly'
p681
aS'back another week work joyful commute'
p682
aS'hours time unable sleep'
p683
asS'2013_5'
p684
(lp685
S'exfoliating wipes come warning takes half face'
p686
aS'diet coke somewhere worst nightmare ever'
p687
aS'cello bass'
p688
aS'tonight huge smile face friend looks happy'
p689
aS'song havent heard years come radio reminded someone special amazing'
p690
aS'film rather large smile face'
p691
aS'sent text land lord signed mean instead emma'
p692
aS'massive bruise head someone helmet dont make worse'
p693
aS'people blowing shape form like theyre blowing horn gondor'
p694
aS'going find bubble live people around keep getting'
p695
aS'andrew cooper given even reason drink diet coke'
p696
aS'quite fancy squirrel taxidermy whos game'
p697
aS'know funny lets pretend going jump light complete arse'
p698
aS'seems appreciates stale poppodum'
p699
aS'hour exercise feel like bike followed stampede elephants buffaloes maybe rhinos'
p700
asS'2013_4'
p701
(lp702
S'barry scott back'
p703
aS'exercise meant good feel like throwing class'
p704
aS'possible feel worse right going stay'
p705
aS'whole weekend arent lucky'
p706
aS'guess donny couple weeks things'
p707
aS'show stunning choreography seen fantastic'
p708
aS'something sexy beautiful dance tophat'
p709
aS'tonight shall puttin tyin white brushin tails'
p710
aS'think lost weight fingers rings dont seem anymore'
p711
aS'true'
p712
aS'squash worlds greatest creation'
p713
aS'nice shame jayzs songs ruin'
p714
aS'wide awake ballet shoes room small find studio'
p715
aS'interesting'
p716
asS'2013_7'
p717
(lp718
S'classy never strong point half hour'
p719
aS'pillows duvet ready sleep become'
p720
aS'definitely many pancakes last night'
p721
aS'apparently walking around hole crotch jeans classy'
p722
aS'bizarre documentary'
p723
asS'2013_6'
p724
(lp725
S'many films need watching baftas many films coming someone hand bernards watch guna need'
p726
aS'samuel jackson oozes cool'
p727
aS'friends could slip sauna break ankle days best debut classic'
p728
aS'night cant sleep jacques cousteau documentary'
p729
aS'hold horses bloody week pancake'
p730
aS'sums weekend'
p731
aS'certain class taken devil shouted smile'
p732
asS'2013_1'
p733
(lp734
S'fill jenson button scrummy'
p735
aS'please someone make prince charles permanent weather'
p736
aS'brilliant'
p737
aS'hear people sing well friday'
p738
aS'much want look like tough still wearing carrying bottle'
p739
aS'haha alps drinking j\xc3\xa4ger bombs'
p740
aS'havent idea seems pretty pointless going stay'
p741
ag38
aS'mood couldnt worse tried'
p742
aS'stanley knife would'
p743
aS'feet hurt head hurts best thing'
p744
aS'going'
p745
aS'tacky underwear fashion something cant find anything decent anywhere'
p746
aS'spending shopping went straight baby clothes'
p747
asS'2013_3'
p748
(lp749
S'snow hour already dying whistler family'
p750
aS'nothing says miss like silly oclock phone call numerous notifications nice boys'
p751
aS'dinner courtesy tonight dont mind'
p752
aS'witnessed someone wash hands lean sink wash nostrils nose nostrils'
p753
aS'time place bets long takes stack outside'
p754
aS'christ almighty someone back transplant asap'
p755
aS'need deep heat lots'
p756
aS'think found skype doesnt work well mountain'
p757
aS'week waiting list doctor good emergency'
p758
aS'nasal girl wont stop talking nightmare'
p759
aS'cant stand nasal voices like noise coming nose mouth moving'
p760
aS'confirmed bungee jump want footage'
p761
aS'rename covent garden pigeon garden'
p762
aS'worn arctic weather'
p763
aS'cant afford tent next best option'
p764
aS'probably best make tent never leave'
p765
aS'looked weather australia tomorrow cold jumping plane getting'
p766
aS'solitaire come anger management help'
p767
aS'harm prepared'
p768
aS'whilst lunch asked question hugh jackman eddie redmayne question realised cant answer'
p769
aS'snow snow snnooww'
p770
asS'2013_2'
p771
(lp772
S'worth finding doctor london popping home mine seem effort'
p773
aS'bleurgh'
p774
aS'soundtrack going obvs'
p775
aS'good catch postburger'
p776
aS'much expected fantastic movie eyes hurt crying much'
p777
aS'chance excitement point today brought spare change underwear work lesmis'
p778
aS'gavroche would best buds little people stick together lesmis'
p779
aS'sooalex jones douche'
p780
ag38
aS'marley stuck head need beach itll fine afternoon'
p781
aS'never knew news article plus comments could make angry happywednesday'
p782
aS'going game amazing meal'
p783
aS'feet front glass wine dinner cooked lovely'
p784
aS'glad someone else thinks makes want onethen'
p785
aS'drunk lots shouting police cars police raid vans later peace sleep'
p786
aS'mistake gollum drunk scottish screaming blue murder phone'
p787
aS'pretty sure gollum outside flat'
p788
aS'gets lads skiing holidays wonder someone already broke'
p789
asS'2014_14'
p790
(lp791
S'back board'
p792
aS'seems propermoist spread slopes whistler'
p793
asS'2014_16'
p794
(lp795
S'holiday blues'
p796
asS'2014_17'
p797
(lp798
S'basically hopeless romantic dirty mind high standards\xe2\x80\x9d'
p799
aS'tomorrow year emma paying visit year emma help cant wait'
p800
asS'2013_9'
p801
(lp802
S'amount things want brussels'
p803
asS'2013_8'
p804
(lp805
S'trying thing sell stuff ebay wish luck'
p806
aS'wonder would happen broke harlem shake thing'
p807
aS'much research still dont harlem shake'
p808
asS'2014_13'
p809
(lp810
S'popping across pond byeee'
p811
aS'steel pantherone band everyone amazing musicians hilarious comediansfantastic'
p812
asS'2010_39'
p813
(lp814
S'nearly bumped moved didnt power'
p815
aS'stalker teenage girls jonas covent garden youll fight girl attention'
p816
aS'avenue friends'
p817
aS'took chillis meal make mildhow many chillis used first place mouth firee'
p818
aS'glass drink question'
p819
aS'well done danced true style last night'
p820
aS'called meeting work gave beer'
p821
aS'comfy dont want'
p822
aS'could punch someone screen woman would hospital right screwed deal'
p823
aS'headaches getting ridiculous making feel physically sick'
p824
aS'dear franklin could hold week promise thank brand clutch kindest regards emma'
p825
aS'would seem havent tweeted today tweet'
p826
asS'2014_8'
p827
(lp828
S'soon auctioning limbs likely need motherboard watch space'
p829
asS'2014_6'
p830
(lp831
S'come home weekend spend fever throwing fantastic'
p832
aS'wolf wall streetamazing'
p833
aS'black rebel motorcycle club'
p834
asS'2014_7'
p835
(lp836
S'nearly year went doctors diagnosed major depression constant battle past year winning'
p837
aS'next casually shoving burger walk centre take responsibility vomit'
p838
asS'2014_4'
p839
(lp840
S'light hearted spot article everyone read'
p841
aS'insane camera rigs made shark weekof course sharks attack'
p842
asS'2014_5'
p843
(lp844
S'iceland booked'
p845
asS'2014_2'
p846
(lp847
S'1975great band perform amazing live'
p848
aS'crispin wheres felix erin stuck blender head killed yourenext slashermovie'
p849
aS'nothing like good slasher movie wednesday night aaaarrrggghhhhh'
p850
aS'would quite like full hearing return time 1975 friday'
p851
aS'already seeing lots things regards valentines believe pancake comes firstpriorities people'
p852
aS'antibiotics supposed work make throw minutes taking'
p853
asS'2014_3'
p854
(lp855
S'haven\xe2\x80\x99t seen paranormal activity marked ones please don\xe2\x80\x99t tell lamp falls'
p856
asS'2014_1'
p857
(lp858
S'spending last evening christmas break aampe'
p859
aS'supposed happily relaxing past days constantly coughing dealing infection'
p860
aS'infections awful absolute agony'
p861
aS'text prince harry sooo going takemeout ginge minge boom awkward'
p862
aS'watching film dont care think'
p863
aS'didnt expect paperboy quite dark good movie though'
p864
aS'finally home bound london'
p865
aS'next'
p866
aS'someone drawing sister'
p867
aS'imadirtywhore'
p868
aS'drinking games going good friend evening redhotchillipipers'
p869
aS'glasgow bound kilts'
p870
asS'2010_31'
p871
(lp872
S'well shall come find sunday watch good music afternoon'
p873
aS'going whole weekend andy steph steve going weekend'
p874
aS'expecting'
p875
aS'tongue lunch break today still painful stupid teeth getting'
p876
aS'numbers dont recognise calling silly times'
p877
aS'hungry cant bothered cook'
p878
aS'hdnl good thing hiring completely incompetent people'
p879
aS'healthy hair'
p880
aS'time hair chopped'
p881
aS'awesome sleep might tonight'
p882
aS'worst nights sleep ever dont even know hope today makes tired fall asleep early dont wake alarm'
p883
asS'2014_21'
p884
(lp885
S'love food right sitting well blurgh'
p886
asS'2010_36'
p887
(lp888
S'bedcheck dvdcheck tylenol pmcheck fingers crossed sleep well'
p889
aS'officially graduated celebrated tonight messier celebrations tomo'
p890
aS'begun praying whoever clouds please dont trip please please please'
p891
aS'everything graduation sortedi hope'
p892
aS'well find whether guna work sooner rather later rate'
p893
asS'2014_23'
p894
(lp895
S'robbery crash nighta little shakey least'
p896
asS'2014_22'
p897
(lp898
S'islandgreat show'
p899
asS'2014_25'
p900
(lp901
S'shall returning iceland cold infection body confused right'
p902
asS'2014_24'
p903
(lp904
S'exactly night miss sessions'
p905
asS'2014_27'
p906
(lp907
S'seems terrible delivery customer service using future'
p908
asS'2014_26'
p909
(lp910
S'rich financially feeling rich culture travelbrings much happiness wanderlust'
p911
asS'2010_11'
p912
(lp913
S'wonders many people find shock tweeted'
p914
asS'2010_12'
p915
(lp916
S'miss'
p917
aS'getting cant flipping birds sunday sake'
p918
aS'point moving house never leave room'
p919
aS'mayday'
p920
aS'going something touring wanna guna tickets'
p921
aS'still damn library'
p922
aS'seen girlshe didnt speak really thoughstrange'
p923
aS'think like 1415haha like'
p924
aS'agree sweet sweet kind music high school musical'
p925
aS'wonder whether tutor never email didnt send excuse today'
p926
aS'people need stop getting arsy others offer help'
p927
aS'feet hurt good night drunk much'
p928
aS'love'
p929
aS'love'
p930
aS'give love name'
p931
aS'friend found friendso cute'
p932
aS'worried still know words shadows rasmus'
p933
aS'glasshouse place used'
p934
aS'hours written nothing'
p935
aS'really cant think start write rest dissertationthis sucks'
p936
aS'dont care want spoon small spoon snuggle shut'
p937
aS'yeashe meant tell well happy land lords told'
p938
aS'charlestown properties dicks cheers telling complete stranger moving house right near'
p939
aS'mine steves well'
p940
aS'atleast back'
p941
aS'student therefore awake alone awful time'
p942
aS'love tooeven cant take joke xxxxxx'
p943
aS'work april 10thphone needs looking also taken good figure reply'
p944
aS'forgets people cant take joke'
p945
asS'2010_13'
p946
(lp947
S'great time boys tonight cant wait sunday'
p948
aS'neither watch wrong place wrong time'
p949
aS'hopes sleeping makes headache'
p950
aS'enjoyed chat skype'
p951
aS'surely would missed anyway money wouldnt lend money'
p952
aS'well someone woke wrong side morning didnt'
p953
aS'thats fitty although scares hell goes evil angry'
p954
aS'boon damonwhatever name whatever programmehes always guna'
p955
aS'stop wasting maybe youll'
p956
aS'going handed whole purse forgetting need money give'
p957
aS'much looking forward seeing'
p958
aS'followed great skype chat love xxxxxx'
p959
aS'student theorist write english freaking books'
p960
aS'hopefully skype later xxxxxx'
p961
aS'friend flat mate trained hair dresser dyed hair dying'
p962
aS'mine coloured frreeee'
p963
aS'plan hysterically sysnster gatesrecord ityoutube itmeet'
p964
aS'hopes summer spend lots time asia reading festival'
p965
ag38
aS'want come back'
p966
aS'missing lots'
p967
asS'2010_14'
p968
(lp969
S'even betterthink damon yummy yummy'
p970
aS'throw shit thatll bonus week'
p971
aS'lets volderdog skipper ring fight death'
p972
aS'rather volderdog first sound like plan'
p973
aS'would happen psycho member family'
p974
aS'saying name guna find damon'
p975
aS'sleepy cant wait till'
p976
aS'taxi linkin park playing plays rock music awesome taxi driver'
p977
aS'filming round'
p978
aS'appreciate happiness weddings would however like wedding bells shut hell someone married already'
p979
aS'feel awful much stress much pain please away'
p980
aS'much pain hurts please away'
p981
aS'haha fold clothes place iron'
p982
aS'back lincoln cant wait sunday'
p983
aS'leaving chesham coke knock window'
p984
aS'cool chesham shall twitter tell leaving chesham'
p985
aS'haha coke know dont wanna knock wake everyone'
p986
aS'music like'
p987
aS'guna stop guys back lincoln tomot think back bout half 10ish late'
p988
aS'lold enough bout people andy'
p989
aS'awful band known kind thought good make chuckle'
p990
aS'days hilarious'
p991
aS'look nothing like cant look like'
p992
aS'thinks amazing sunday hurry'
p993
aS'cool beans sorted'
p994
aS'need congestion charge driving westfield today'
p995
aS'debenhams high wycombe house fraser next time shut fuck'
p996
aS'really cant wait sunday'
p997
ag38
asS'2010_15'
p998
(lp999
S'land sleep'
p1000
aS'would like headache goodbye hello'
p1001
aS'people bring dogs gardens today someone brought parrot cool'
p1002
aS'breakfast'
p1003
aS'tissues indeed cried stop half film stared home still crying'
p1004
aS'yummy'
p1005
aS'conclusion illustration adjustments sleep time'
p1006
aS'never cried much life'
p1007
aS'douche twitter cinema'
p1008
aS'could quite happily sleep right'
p1009
aS'watching football love'
p1010
aS'nice much loan spent guna take guess 200quid'
p1011
aS'would like thank tutor help ever dissertation prick'
p1012
aS'dont mean going reward watching make glorious food'
p1013
aS'sure happen puberty rails maybe drugs shame cant adorable forever'
p1014
aS'justin bieber darn adorable career ruined puberty'
p1015
aS'hello library hope understand utmost hatred'
p1016
aS'disown sister become addicted even like song awful'
p1017
asS'2010_16'
p1018
(lp1019
S'days people talk around least missing double time skill'
p1020
aS'nothing like maccyds make feel better itll help cold away quicker'
p1021
aS'still little voice'
p1022
aS'really pissed lost voice great night'
p1023
aS'confused please explain seems alcomahol gotten better'
p1024
aS'would snot sneeze wouldnt surprised reached lols'
p1025
aS'sensible getting drunk water sound like lols'
p1026
aS'officially sound like well giant penis balls right'
p1027
aS'sounds like today hopefully dress helps people realise fact female'
p1028
aS'woman cracking moves tonight look cool hilarious cool'
p1029
aS'think mean girlfriend'
p1030
aS'need food feed feed'
p1031
aS'possibly realised something didnt want'
p1032
aS'waltzers best fair ride ever'
p1033
aS'knows person contact emergency doesnt know phone ringing time'
p1034
aS'fair'
p1035
aS'diss handed dress everything sorted saturday fair tonight'
p1036
aS'going sleepy land cant wait tomorrow fair plus diss hand woop'
p1037
aS'seems morning cuddles become wrestling sessions'
p1038
aS'tequila sunrise like'
p1039
aS'shrek awesome'
p1040
aS'douchebag'
p1041
aS'dissertation done happy days'
p1042
aS'best girlfriend cooks best food'
p1043
aS'microsoft word fucking ridiculous useless piece shit'
p1044
aS'chicken noodles left curry ones make come want'
p1045
aS'mmmm chicken noodles'
p1046
aS'hate diana vickers voice'
p1047
asS'2010_17'
p1048
(lp1049
S'would quite like right leak hurts'
p1050
aS'right always insist leaking'
p1051
aS'even better guys'
p1052
aS'really hurt always stupid work'
p1053
aS'matter postion trying sleep still cant comfy sleep much pain'
p1054
aS'cant wait saturday rest finally'
p1055
aS'wind lincoln sometimes sucks today love keeping overheating'
p1056
aS'place live woop'
p1057
aS'could sworn lived house full young adults apparently house full year olds love throw tantrum'
p1058
aS'nice shall visiting often'
p1059
ag38
asS'2010_18'
p1060
(lp1061
S'week left hard working studentthen serious partying like real student'
p1062
aS'seems sheldon bang theory bandhe stick geek'
p1063
aS'finally social life back night please shhh bout voting tweet social tweets thanks'
p1064
aS'work enough front reason really'
p1065
aS'fucking right'
p1066
aS'hate computer screens want life back'
p1067
aS'well sucks take lots free stuff many office supplies need home'
p1068
aS'lost thought good stay another 3months'
p1069
aS'starting forget life outside computer screen editing software like'
p1070
aS'good cant stand wanna punch speaks kinda wanna film'
p1071
aS'revise'
p1072
aS'always lose clothes reason blame boogey monster'
p1073
aS'well love damon salvatore'
p1074
aS'good night finally'
p1075
asS'2010_19'
p1076
(lp1077
S'apparently fucking slag piece shit chavvy scum'
p1078
aS'excuse language right wankers tonight'
p1079
aS'amazing'
p1080
aS'pretty good cook dont yummy tostadas'
p1081
aS'seems clever enough know water starting warm'
p1082
aS'agreed today fucking sucks'
p1083
aS'days counting'
p1084
aS'think youll find cooked wonderful smelling food'
p1085
aS'people insist saying word innit every sentence cool dumb'
p1086
aS'remembered mine good deed earlier headed heaven woop'
p1087
aS'aaarrrggghhh week left writing skills letting frustrated'
p1088
aS'thats thinking well hunt continues'
p1089
aS'home till 17th september finish monday fancy employing would awesome'
p1090
aS'nothing like disney songs motivated write'
p1091
aS'like johnny gives free drinks lols jobs going full time desperate start asap'
p1092
aS'good person chesham starbucks johnny everyone else soooo slow rude'
p1093
aS'food wrong trolley steve tries handbrake turn trolley causing eggs break food'
p1094
aS'cant concentrate everything write crap thinking early night sleep wake early'
p1095
aS'serious need motivation right'
p1096
aS'foooood'
p1097
aS'really made feel good todaynot'
p1098
aS'week left longer class studentit totally sucks'
p1099
asS'2012_39'
p1100
(lp1101
S'today learnt little lexie wants necklace stops nothing even decapitation'
p1102
aS'london boundwhich means didnt feel need open hell today'
p1103
aS'surprised track record christening'
p1104
aS'wouldnt consider church high lifechampagne makes less painful though need phone later'
p1105
aS'champagne breakfastwhy thank'
p1106
aS'christening dont worry havent moved dark side'
p1107
aS'stupid oclock shire bound church good girl'
p1108
aS'free hell hole'
p1109
aS'apparently give idiot bank'
p1110
aS'apparently going take decent nights sleep make feel good dammit'
p1111
aS'hear thats sweet sound silence'
p1112
aS'last night fantastic tell love money'
p1113
aS'welljoshua radin great last night'
p1114
aS'underwater street view googlethat'
p1115
aS'hell mosquito room'
p1116
aS'know crazy night nsync starts ipod'
p1117
aS'deceive beanie cold'
p1118
aS'went hang washing apparently didnt press start'
p1119
aS'guess better check green album'
p1120
aS'missing appetite found return emma'
p1121
asS'2012_49'
p1122
(lp1123
S'another update spilt second cherry bubblecum cocktail'
p1124
aS'asked another cherry bubblecum cocktail'
p1125
aS'great lincoln'
p1126
aS'spotting eddie stobarts lincoln drive past pick stationsamazing'
p1127
aS'right sent herd elephants trampling head come fess'
p1128
aS'looking forward screening'
p1129
aS'someday able 11000 followers twitter elbows royalbaby'
p1130
aS'premiere less 2mins away life really bitch beaten'
p1131
aS'mins left pair lesmis premiere tickets last chance enter earlier tweet info'
p1132
aS'food'
p1133
aS'life long ambition mine couple barge changing rooms summers itscalledknocking'
p1134
aS'official last christmas social calendar filled jingle bells jingle bells jingle'
p1135
aS'happy graduation number'
p1136
aS'chocolate weather dont'
p1137
aS'chinese tenors hoot royalvariety'
p1138
aS'life looks goooodddd wants'
p1139
aS'still squeeze jeans perfect hell'
p1140
aS'bones already important everyone reading royalbaby sorry'
p1141
aS'would like thank royal family giving reason crack champers royally merry'
p1142
aS'person threw chips pavement attracted pigeons walk past shot'
p1143
asS'2012_48'
p1144
(lp1145
S'worst nightmares'
p1146
aS'seen coca cola advert officially christmas'
p1147
aS'lady'
p1148
aS'alcohol free night still rocked dance floor'
p1149
aS'fell asleep missed rugby lame'
p1150
aS'pretty certain next sherlock holmes'
p1151
aS'week long need time'
p1152
aS'dancing embankment bridge'
p1153
aS'xmas presents spend glasses cheers eyes'
p1154
aS'word cold outside'
p1155
aS'pressure make annual calendars xmas seeing'
p1156
aS'cabin fever'
p1157
asS'2012_45'
p1158
(lp1159
S'horrorgami'
p1160
aS'adam cooper switch ballet musical theatre'
p1161
aS'would make awesome eponine head obvs'
p1162
aS'cant wait hands sexy beast'
p1163
aS'havent seen apparently budget awkward'
p1164
aS'place flat warm'
p1165
aS'gossip straight tell standard'
p1166
aS'blood pressure machines devil pretty sure intention never give back'
p1167
aS'still 2months excited'
p1168
aS'according gmail word siestaaction maybe'
p1169
aS'snow back home come london join'
p1170
aS'going need plumber someone spare towels'
p1171
aS'surprise delivery chocolates cindy smile face'
p1172
aS'strangers took photo street awkward moment awkward photo'
p1173
aS'monday welcomed mother bitch slaps today happy'
p1174
asS'2012_44'
p1175
(lp1176
S'kind person turns dead helicopter'
p1177
aS'mcfly chatty hilarious capital everything'
p1178
aS'time'
p1179
aS'today good done nothing'
p1180
aS'extra dates added michael buble still cant afford'
p1181
aS'days room internet thats right people back online never'
p1182
aS'london bound although feel sick screaming bleurgh'
p1183
aS'pride britain tear jerker mess'
p1184
aS'havent tweeted since sunday life'
p1185
asS'2012_47'
p1186
(lp1187
S'bored sure everyone twitter bored'
p1188
aS'striped pyjamas easy watch even second time round heart wrenching every time'
p1189
aS'granted giving steel would really like stop sick'
p1190
aS'michael buble havent notcrazyatall'
p1191
aS'dominos dont deliver address pissed doesnt even cover'
p1192
aS'read right cant open window bears actual real life bears mountainproblems'
p1193
aS'pretty certain didnt cook fish properly'
p1194
aS'stunned word strippers alone strippers come mouth'
p1195
aS'forgot disgusting loreal hair smells bleurgh'
p1196
aS'going start petition called london'
p1197
aS'fantastic sunday roast followed sleep flat heating heard first'
p1198
asS'2012_46'
p1199
(lp1200
S'ferrero rocher season hint fave chocolate tweeters fancy buying'
p1201
aS'whats moon tonight'
p1202
aS'decideda change hair'
p1203
aS'last tweet mean listening irish music cheery hand guinness'
p1204
aS'wonder irish hard learn sundaythoughts'
p1205
aS'dress nice fancies buying wear promise'
p1206
aS'good sunday venting session bonus finding twilight twist cant bothered watch find'
p1207
aS'come england'
p1208
aS'started well dont hammer'
p1209
aS'someone remind time england rugby game kicks'
p1210
aS'sing long sound music dont mind'
p1211
aS'nana brought twister xmas family alcohol twister amazing'
p1212
aS'bumped outside work best drink'
p1213
aS'love good alarm going time night favourite hope owner ignores'
p1214
aS'might think sets sheet duvet blanket little excessive right wrong near enough'
p1215
aS'marriage legalised marijuana leviticus 2013 lays another shall stoned'
p1216
aS'text nana could bird stuffing outstanding textfrommynana'
p1217
asS'2012_41'
p1218
(lp1219
S'face disgusted confused believe'
p1220
aS'spend severely depressed guessed went saints'
p1221
aS'second question fuck rylan surely human'
p1222
aS'starting think girls night watching enjoyed show horrendous'
p1223
aS'must question watching factor awful'
p1224
aS'really shake head dropped phone sorry committing awful crime'
p1225
aS'please refrain shouting across platform care'
p1226
aS'work friday spelt peroni'
p1227
aS'need wifi back flat cant keep crying movies every night'
p1228
aS'spent 5mins wondering wouldnt work turns wrong flat'
p1229
aS'usual told never getting hair usual much bleurgh'
p1230
aS'shall back soon probably crying hair dresser much'
p1231
aS'good film ruined fact miley cyrus sings credits shoot'
p1232
aS'scale pathetic crying kids movie'
p1233
ag38
aS'santas waving bells face shouting merry christmas morning sleep october november'
p1234
aS'reckon allowed drive full pelt flock pigeons mood would improve substantially'
p1235
aS'comfy horror'
p1236
asS'2012_40'
p1237
(lp1238
S'cousin'
p1239
aS'cousin'
p1240
aS'internet 31st october might real life'
p1241
aS'boys alive well panic'
p1242
aS'\xe2\x80\x9cgrammar pedantry syndrome\xe2\x80\x9d form sufferers need correct every grammatical error\xe2\x80\x9d'
p1243
aS'whats walking straight lines people straight lines'
p1244
aS'jasmin homeschooled worried marriage laws lead ducks taking world'
p1245
aS'havent heard boys days someone tell alive well'
p1246
aS'holiday need throw hissy'
p1247
aS'finally getting round updating iphonethis going horribly wrong tell'
p1248
aS'someone sprayed chanelheaven'
p1249
aS'finally unpacking'
p1250
aS'need decent priced hair dressers central east londonanybody'
p1251
asS'2012_43'
p1252
(lp1253
S'vikings would give kittens newlywed brides essential part household\xe2\x80\x9d still'
p1254
aS'daim bars really ikea changed'
p1255
aS'ikea'
p1256
aS'love good game floor park'
p1257
aS'wake call sunday airport even going anywherenever cool'
p1258
aS'heated seats uhmazing butt cheeks toasty warm'
p1259
aS'sporting fragrance called white spirite evening'
p1260
aS'according maps iphone live rhode island know slow cant believe never knew'
p1261
aS'idea lets make impossible station emma needs back beauties'
p1262
aS'child byron looks possessed demonic smiles wont stop taking photos'
p1263
aS'succumbed fact useless halloween costumes unless pumpkin corset making yearly outing'
p1264
aS'know meal taking long time table opposite offer scraps nights'
p1265
aS'push pram disabled person make train'
p1266
aS'never yeah nana allergic everything blind rheumatoid arthritis'
p1267
aS'confessed ending phone conversation national trust innit facepalm'
p1268
aS'nana pantomime horror voice somethings wrong waiting minutes starter'
p1269
aS'sucks donkey balls amongst others'
p1270
aS'orange purple blue sing rainbow sing rainbow sing rainbow'
p1271
aS'real imaginative vina'
p1272
aS'taken years figure like catapult hours unlocked offic'
p1273
aS'turns hadnt even dinner oven brain clearly shut'
p1274
aS'recollection dinner oven caused problems'
p1275
aS'going need diet coke drip pronto'
p1276
aS'hard face pigeons though even harder'
p1277
asS'2012_42'
p1278
(lp1279
S'forced watch emmerdale sunday absolute'
p1280
aS'become gyrating gorilla'
p1281
aS'stage gyrating like snake fitnot cool pretty offensive really'
p1282
aS'absolute genius comes placing pillows comfy nights sleep'
p1283
aS'going random laughter whilst alone tube causes general public think batshit crazy'
p1284
aS'scary imagine never look mirror'
p1285
aS'today shall known edward sound like true story'
p1286
aS'think might getting cold lead cranky emma making appearanceenjoy'
p1287
aS'first live interview'
p1288
aS'tony taylor live weeks watch email question'
p1289
aS'late finished packet justified'
p1290
aS'really chanel brad pitt face mens fragrances'
p1291
aS'pack mampms justified right'
p1292
aS'hello australian rebate goodbye able transfer money bollocks'
p1293
asS'2014_34'
p1294
(lp1295
S'times failed show willing help anyone know contractors know bosch appliances'
p1296
asS'2014_33'
p1297
(lp1298
S'danger zone kenny loggins tweetyourbeat'
p1299
asS'2011_52'
p1300
(lp1301
S'3000 underwater housing digital camerawho wants give money'
p1302
aS'2011 last year'
p1303
aS'happy year motherfuggas'
p1304
aS'take moment marvel fact packed heelsyes without high heels'
p1305
aS'life struggle decide send back keepdamn travelling light'
p1306
asS'2011_51'
p1307
(lp1308
S'happy moment chinese friend tells tattoo actually means meanno fried rice woop'
p1309
aS'lovely skype familio miss tonnes cant wait'
p1310
aS'santa wanted christmas still wearing budgie smugglers beachso wrong'
p1311
aS'looking forward next weeks'
p1312
asS'2012_32'
p1313
(lp1314
S'anyone else think olympic torch stay paralympics guys deserve much'
p1315
aS'watching fireworks bedroomnow sleep'
p1316
aS'barely watched closing ceremony come home balletthis means super happy'
p1317
aS'still paralympics redmond guys important'
p1318
aS'never tried suck cocktwo mates drank hang'
p1319
aS'armed long necks ready australian'
p1320
aS'hungry dont want moveany ideas people sort issue'
p1321
aS'woke human going lobster'
p1322
aS'seen loads people walking around flowers want somered roses please'
p1323
aS'buying shoes kids section lookembarrassing lucky discuss'
p1324
aS'wonder people know fact bopping along chipmunks theme tunetoo cool know'
p1325
aS'youd think question music taste listen song titled booty bitchesi dont though'
p1326
aS'people always said nice late 13th century word \xe2\x80\x9cnice\xe2\x80\x9d actually meant \xe2\x80\x9cstupid\xe2\x80\x9d \xe2\x80\x9cfoolish\xe2\x80\x9d\xe2\x80\x9d'
p1327
aS'either duvet comes life night dancing sleepgetting tangled normal'
p1328
aS'think slight chance sweats'
p1329
aS'life hands onionsyour going'
p1330
aS'corona crap weird mood week feel deserved going alone'
p1331
aS'someone wanna glass wineone glasses holds whole bottle possible'
p1332
aS'fighting respect elders'
p1333
aS'already shot gunned sorry'
p1334
aS'term sisterly endearment'
p1335
aS'else calling thunder thighs'
p1336
aS'tangled duvet stuckgreat start tuesday'
p1337
aS'would lovely right offers dont rush'
p1338
aS'russell howard rollerskates hysterical'
p1339
aS'dear rack ribs meant sharing myselfhopefully floor doesnt give underneath work'
p1340
aS'seriously home away september bleurgh'
p1341
aS'would like congratulate'
p1342
aS'walking without music criminal'
p1343
aS'went play ipod batteries dead means isnt possible'
p1344
aS'awful writing addictive wish continue reading'
p1345
asS'2011_50'
p1346
(lp1347
S'going need serious amount disney movies help'
p1348
aS'woman kicking nuts thing cross nutsdam bitch'
p1349
aS'good kind messed psychopath makes movies'
p1350
aS'tiredi hope dont fall asleep ferry going back forth city manly'
p1351
aS'next irish person come across going slap'
p1352
aS'sadly strapped mebut dive amazing'
p1353
aS'dont think muchbut please strapped handsome young today'
p1354
aS'australia shopping find birdinside flying around food'
p1355
asS'2010_4'
p1356
(lp1357
S'capital'
p1358
aS'oops'
p1359
aS'capitol firecrackaa capitol password well'
p1360
aS'haha enjoy username'
p1361
aS'look whos twitter andy baby steps haha'
p1362
asS'2012_8'
p1363
(lp1364
S'loving make foundation courtesy suni like call tomato'
p1365
aS'photos soon awesome boat 26foot mustang somethingwe'
p1366
aS'saying hello months'
p1367
aS'else chilled yacht darling harbour evening driving around harbour bridge past opera house'
p1368
aS'awkward moment chinese lady sees chinese symbols back thinks speak languageconversation failed'
p1369
aS'wardrobe chest drawers bedside table think good quality'
p1370
aS'mean chest drawers bedside table ikea'
p1371
aS'feels nothing disgust pitbull'
p1372
aS'induction meeting donesoooo excited next weekends'
p1373
aS'stressed understatement'
p1374
aS'completed online training part course woop stuff'
p1375
aS'left tell australian govt save oceans send message'
p1376
aS'another great song directionno ashamed admit'
p1377
aS'really people groupon really want send voucher enhancements'
p1378
aS'mean getting well afterparty'
p1379
aS'lent shall fact giving uplent'
p1380
aS'information overload taking break studying'
p1381
aS'hoping next weeks friends family home play game guess date emma back'
p1382
aS'knowi work tomorrow therefore pancake postponed wednesdayplease respect'
p1383
aS'meet isnt douchebagit would christmas miracle sadly christmas past'
p1384
aS'bored gossip girl still watch itfor obvious reasons'
p1385
aS'dammit wedding ring finger'
p1386
aS'wowser everytime listen mclaughlin thought middle aged manapparently'
p1387
aS'studying done daymy wrist hurts note taking'
p1388
asS'2012_9'
p1389
(lp1390
S'cant think anything saylaughing muchyou'
p1391
aS'smooth babys bottom must admit'
p1392
aS'andy keeps getting balls outwhat else'
p1393
aS'damn secret'
p1394
aS'nothing saydick'
p1395
aS'wishes'
p1396
aS'miss want skype'
p1397
aS'pissed talk soon hope essex'
p1398
aS'please'
p1399
aS'wellpeople dicks thing'
p1400
aS'small ideayou dont listen lonely dontgrow fuck'
p1401
ag38
aS'happy awake right'
p1402
aS'today longand hours tomorrows long begin'
p1403
aS'nothing tweet pretty damn pointlessand read'
p1404
aS'hook londonwhether place mates'
p1405
aS'struggling stay awake right'
p1406
aS'sober emma likes drunk emma drunk emma drinks lots water sober emma hangoverisnt nice'
p1407
aS'note self drink gigs leads karokeno wants hear'
p1408
aS'newtown drinks number 0488575563'
p1409
aS'listening since years tonight looking forward'
p1410
aS'losing voice'
p1411
aS'thank bringing little piece home australia awesome show'
p1412
aS'corey taylorcorey fucking taylor'
p1413
aS'begins geordie shore addiction'
p1414
asS'2012_4'
p1415
(lp1416
S'hope massive virtual cheers'
p1417
aS'back sydney awesome weeks east coastnow knuckle study month'
p1418
aS'grab super soaker fill vodka point partner pull trigger hardermy table dancing song'
p1419
aS'nights weekmy body cant handle sort behaviour anymore'
p1420
aS'great night surfers paradisebyron diving tomorrow'
p1421
asS'2012_5'
p1422
(lp1423
S'finally sunny dayim taking studying beach'
p1424
aS'hahayou upload would love dont really remember much'
p1425
aS'joyous night drinking round placewhen ginge'
p1426
aS'youll love itnot quite sure though'
p1427
ag38
aS'cracking video thatll make people wonder happened haha'
p1428
aS'amazing'
p1429
aS'almost certain ferry twin hobbits lotr need reality check'
p1430
aS'selling digital slrplease contact interested'
p1431
aS'good'
p1432
aS'helping dive courses todayoh well guess shall reading weeks'
p1433
aS'fatty ordered dominosperfect brain food keep going reading'
p1434
aS'aarrrrggghhhhhh'
p1435
aS'news training delayed weeks instructors told cannot dive good news gear awesome'
p1436
aS'morning alloff dive trying gear today'
p1437
aS'someone doesnt attract mosquitos going bite really bite inside earseriously'
p1438
aS'great sleepfirst night since november room lovely proper double'
p1439
aS'dive medical passed'
p1440
aS'dive medicalheres hoping pass'
p1441
asS'2012_6'
p1442
(lp1443
S'believe time sleep'
p1444
aS'lets time date'
p1445
aS'ahahawe need skype soon'
p1446
aS'done'
p1447
aS'something made chuckle knew twitter would'
p1448
aS'seen something picked floor laughing patted back decision made last year'
p1449
aS'possible shocking seem scared sharks today'
p1450
aS'hoping weather clears tomorrowi sharks scare'
p1451
aS'anyone know valentines tuesday need reminded despite sign every shop window'
p1452
aS'maybe bedhowever mean studying different room'
p1453
aS'reenact skype'
p1454
aS'pterodactyl impression would hint leave alone proud proud moment'
p1455
aS'soooshould worried brush mini dread lock hair maybe brush hair week'
p1456
aS'sydney transport failed last night2 half hours back manly tired today'
p1457
asS'2010_26'
p1458
(lp1459
S'name officially looks like emma taylor hons baby woop'
p1460
aS'seems thing jason derulo think dance moves pulls'
p1461
aS'thanks'
p1462
aS'love turning music channel ridin solo shades'
p1463
aS'hope next weeks hurries'
p1464
aS'cheese food heaven uhmazing'
p1465
aS'spaghetti dinner salad bowl wouldnt normal bowl moving'
p1466
aS'hate feels blood pressure taken'
p1467
aS'angry right thanks fucking bunch'
p1468
aS'high chance sexually abused possibly raped rather nasty'
p1469
aS'missing hopefully weeks till'
p1470
aS'doesnt think anyone told people hemel allowed park double yellows'
p1471
aS'craving diet coke best tastes sooo good back relax wait headache'
p1472
aS'university tutors bullshit paid arses fuck aarrggghhhhh'
p1473
aS'email sentnow wait'
p1474
aS'really hope dont parking ticket'
p1475
aS'cant believe volvo using twilight advertising'
p1476
aS'sunshine ridiculous name ridiculous human'
p1477
aS'regretting following justin bieber retweets everything self obsessed thinks'
p1478
asS'2010_21'
p1479
(lp1480
S'stupid birds need shut dark outside want sleep shot birds would dead right'
p1481
aS'appreciate thrown window'
p1482
aS'needs stop incase people moods'
p1483
aS'apparently entitled over\xc2\xa33000 accident hadcant remember accident'
p1484
aS'trains weather nasty close throwing'
p1485
aS'london undeground consider installing days like today'
p1486
asS'2012_1'
p1487
(lp1488
S'makes feel better killed anyonly think killed whole cold'
p1489
aS'lost appetite ability sleep found please return reward less cranky bitch'
p1490
aS'jetlag'
p1491
aS'bear grylls'
p1492
aS'dear thats another stupid moment lets hope tomorrow better'
p1493
aS'really living degrees cold swollen glands tight chest'
p1494
aS'summer disappears head queensland going kung australian'
p1495
asS'2012_2'
p1496
(lp1497
S'took walk along alva beach settingbeautiful pictures follow good internet days'
p1498
aS'queensland sweating plans made monday next week woop'
p1499
aS'lack sleep last days started queensland trip relaxing early night'
p1500
aS'sydneyhello sand diving tanning'
p1501
asS'2012_3'
p1502
(lp1503
S'spent afternoon coastal walk noosasomeone forgot tell part walk nudist beach'
p1504
aS'fraser island tomorrow'
p1505
asS'2013_51'
p1506
(lp1507
S'dont think ever little energy'
p1508
aS'feel like testicles twisted squeezed crushed castrated soill'
p1509
asS'2013_50'
p1510
(lp1511
S'amazing great birthday weekend'
p1512
aS'ballet ballet dancing swanlake matthewbourne sadlerswells birthday cava londonlife\xe2\x80\xa6'
p1513
aS'friday 13th work christmas lunch birthday drinks could possibly wrong'
p1514
aS'meet police morning deja much fedup'
p1515
aS'cheers anonymous creep seems watching everyday finding work'
p1516
aS'brain body seem decided stare darkness night rather sleep'
p1517
asS'2010_49'
p1518
(lp1519
S'alive tweeting'
p1520
aS'best part factor choosing decent winner song'
p1521
aS'decided make matt look like jedward ridiculous trousers'
p1522
aS'head hurts'
p1523
aS'definately needed tonight nice catch friends'
p1524
aS'birthdays xmas impossible find nonxmas wrapping paper'
p1525
aS'tree hill theme tune back originalmade'
p1526
aS'really cant stand people come inside cigarette near makes nasty smell'
p1527
aS'never next girls miserables bitchy work cheer nice'
p1528
aS'found great apply cant seem write good cover letter help'
p1529
aS'pretty sure stupid'
p1530
aS'sleep tonight notthat question'
p1531
aS'today dragginggo faster please'
p1532
aS'download head liners looking pretty good'
p1533
aS'might give work would rather work feeling'
p1534
asS'2013_52'
p1535
(lp1536
S'busy days sunday tomorrow zero alarm bliss'
p1537
aS'quiz year loveit'
p1538
asS'2012_52'
p1539
(lp1540
S'might boris bike tomorrow complicated looks online'
p1541
aS'pretty sure tense fear ferris wheel caused legs want move'
p1542
aS'call bambi skating session'
p1543
aS'arent hungover included priority seats tube'
p1544
aS'scarred people table next life high inappropriate conversation'
p1545
aS'know lets stand front girl stop trying walk away follow walk away laughing idiot'
p1546
aS'arrives less half hour thought setting fire exciting thing week'
p1547
aS'london half hour already want back countryside people manners'
p1548
aS'fave little lexie'
p1549
aS'dear london tonight shall returning could peaceful quiet countryside would much appreciated'
p1550
aS'won\xe2\x80\x99t take bullet anyone time jump front bullet time'
p1551
aS'cant sleep downton abbey guess'
p1552
aS'missing special people chat'
p1553
aS'blast past'
p1554
aS'gotten whole series downton abbey less 24hours'
p1555
aS'scandal downton'
p1556
aS'gave last xmas present form fire dont panic presents humans hurt'
p1557
aS'would really nice sleep'
p1558
aS'think could future modelling'
p1559
aS'moved grease summerniiigghhttsss'
p1560
aS'champagne raspberry vodka game disco puff magic dragonstill rest cant wait else happens'
p1561
aS'champagne time'
p1562
aS'rocking dolly parton reading working9to5'
p1563
aS'would like thank whoever gave benji copious amounts alcohol evening texts priceless'
p1564
aS'stop eggnog time'
p1565
aS'neighbour rock star written'
p1566
asS'2010_46'
p1567
(lp1568
S'starting underwater journey'
p1569
aS'would nice families plan xmas wait cant havent given work hours'
p1570
aS'near impossible'
p1571
aS'feel like crap exhausted'
p1572
aS'work unsocialble people walk earth'
p1573
aS'feeling rather grown landline phones bedside table check'
p1574
aS'head hurts'
p1575
asS'2012_50'
p1576
(lp1577
S'really appreciate flat using electric drill time night sunday'
p1578
aS'didnt expect walked round corner'
p1579
aS'post birthday hangover'
p1580
aS'apparently become wise know noticed wisdom tooth coming'
p1581
aS'apparently typing deck chair google images brings naked strolling beach'
p1582
aS'eating kangaroo crocodile zebra alpaca bugs last night whatever lunch going boring'
p1583
aS'1212121212'
p1584
aS'able smell foreseeable future nose frozen fallen'
p1585
aS'going office oyster card isnt pocket exactly thought upon reaching office'
p1586
aS'asleep 10pm last night meant friday'
p1587
aS'would send gift warning open front people'
p1588
aS'pair cant decide want speak english home language conversation'
p1589
asS'2010_44'
p1590
(lp1591
S'ever time louis rule book tonight cheryl douche'
p1592
aS'getting ridiculous'
p1593
aS'going fireworks every year shall inside away'
p1594
aS'wouldnt sorry affair synster gates corey taylor'
p1595
aS'best keep late town'
p1596
aS'radio already playing xmas songs november idiots'
p1597
aS'avenged sevenfold tonightdont mind'
p1598
aS'duvet going pretty well'
p1599
asS'2010_43'
p1600
(lp1601
S'tummy ache away come another'
p1602
aS'certain someone cant remember conversation know real issues'
p1603
aS'keep wand take away idiot'
p1604
aS'wondering engine shed became skanky london prices damn good compared'
p1605
aS'sluts hundreds tonight tomorrow outslut'
p1606
aS'order dominos food'
p1607
aS'film tonights choicehairspray'
p1608
aS'freezing bones tonight take heating beat'
p1609
aS'ahahaha farted woke'
p1610
aS'working place andys temp contract learn moment'
p1611
aS'spending putting final upgrade onto'
p1612
aS'xmas pressie sortedmuzzle dogs allowing peaceful nights sleep'
p1613
aS'minutesnot worth anymore'
p1614
aS'decidedblonde time round save money hairdressers choose colour'
p1615
aS'decisions decisions'
p1616
asS'2010_42'
p1617
(lp1618
S'louis walsh idiot needs chucked factor like'
p1619
aS'work done take away home chill'
p1620
aS'radox advertnot cool'
p1621
aS'entitled \xc2\xa34000 accident surely entitled must accidenti dont remember'
p1622
aS'body wash smells baileys mmmmm'
p1623
aS'warm dont want'
p1624
aS'made crowd surfing debut evening resulted standing right next jared leto'
p1625
aS'tonight might night make debut throwing band damn excited'
p1626
asS'2010_41'
p1627
(lp1628
S'like waking hearing playing guitar downstairs relaxing'
p1629
aS'matt cardle looking mighty fine tonight starting fancy'
p1630
aS'cher lloyd walks like gorilla looks like wants everyones heads monkey cage'
p1631
aS'shall sleeping tonight without alarm morning joys'
p1632
aS'line extra bumpy evening'
p1633
aS'people allowed'
p1634
aS'would appreciate someone cheering please feeling worthless maybe'
p1635
aS'brick wall emotion recently'
p1636
aS'bite swells'
p1637
asS'2010_40'
p1638
(lp1639
S'drinking since graduation resulted awful hangover bleurghh'
p1640
aS'good luck tonight phones ready vote'
p1641
aS'absolutely cream crackered'
p1642
aS'jeez girl stop staring freaking train peace'
p1643
aS'swarm mini misbourners getting train sucks'
p1644
aS'chally boys waiting train newbies sooo small'
p1645
aS'tell please wanna talk reaction hilarious'
p1646
aS'headlights full know early work'
p1647
asS'2014_42'
p1648
(lp1649
S'prince philip definitely best looking disney prince'
p1650
aS'frustrating afternoon updating software'
p1651
asS'2011_38'
p1652
(lp1653
S'sort weather australia'
p1654
aS'qualified open water divernext step advanced divemaster'
p1655
aS'bedthis wake'
p1656
asS'2010_24'
p1657
(lp1658
S'dappy bieber dappy bieber'
p1659
aS'dappy ndubz absolute embaressment human race'
p1660
ag38
aS'afraid admit itthe biebs music awesome'
p1661
aS'lets sleep tonight without numerous messed dreams waking night night'
p1662
aS'youll find someone soooonn hunt'
p1663
aS'wish people would learn drive speed limit sign says 40mph wankers'
p1664
aS'surely something good happen summer'
p1665
aS'need ideas next week dont wanna bored'
p1666
aS'enjoys nothing made feel like shit'
p1667
aS'people bother watching football england arent even team awful game'
p1668
aS'england might good team country chequebut'
p1669
aS'fucking bored stupid someone find something involves getting money'
p1670
aS'hahahaha fire alarm work bouncy ball3 floors evacuateddamn bouncy balls ever break things'
p1671
aS'scared drive 20mph speed limit fucking roads'
p1672
aS'anyone internet comp isnt'
p1673
aS'tired long london'
p1674
aS'indian people rude respectful stay india want rude'
p1675
aS'london'
p1676
asS'2010_27'
p1677
(lp1678
S'aarrgghhh angry right'
p1679
aS'still'
p1680
aS'need back dancing'
p1681
aS'didnt realise hard pick phone'
p1682
aS'annoyed didnt hurt wanted dramatic'
p1683
ag38
aS'suddenly mischiefs gone'
p1684
aS'wait weeks want'
p1685
aS'anyone guna minutes fuck sake'
p1686
aS'news alert cats buckland common need beware'
p1687
aS'happy even night'
p1688
aS'stupidly tired super early night needed'
p1689
aS'thank well done result proud'
p1690
aS'guna bored saying thisi bachelor arts upper second class honours degreehello'
p1691
aS'psycho back interested house'
p1692
aS'didnt know bachelor arts meant unable sleep'
p1693
asS'2010_47'
p1694
(lp1695
S'lost interest factor going'
p1696
aS'hell song chart alone itunes'
p1697
aS'true'
p1698
aS'smell macdonalds thats decided lunch'
p1699
aS'feeling snowed work'
p1700
aS'waiting billy elliot start'
p1701
aS'going wash'
p1702
aS'dear north england please kindly send snow like cold play snow thanks'
p1703
aS'despite rota late'
p1704
aS'unpacking quite clear size needed hell hide'
p1705
aS'need break someone send tropical beach'
p1706
aS'cant sleep guna inventing time machine take date hazza potter part'
p1707
aS'want money april come sooner need away'
p1708
aS'dear work hadnt noticed families xmas pull finger arse give rota'
p1709
aS'toats looking forward date hazza potter long'
p1710
aS'work dont give rota guna pissed suck work xmas'
p1711
asS'2012_7'
p1712
(lp1713
S'loooonnnggg week ahead lots'
p1714
aS'sent message text skype'
p1715
aS'sleepy time'
p1716
aS'nothing wrong single actually happy itso feck judging'
p1717
aS'skype chat cousin cant wait speak guys miss'
p1718
aS'cant wait edit magic point footage picked yesterday'
p1719
aS'went beach check surf openended spending eyeing menfantastic'
p1720
aS'best going beach'
p1721
aS'makes feel better summer sydney shocking break heat'
p1722
aS'would really love decent nights sleep tonight lets goes'
p1723
aS'seriously funny decent nights sleep'
p1724
aS'even better week pancake'
p1725
aS'sent home work early deadjust like romance'
p1726
aS'wish tonight someone turn marriage proposalyes mean'
p1727
aS'happy week pancake'
p1728
aS'wanna laugh'
p1729
aS'apparently alarm didnt fancy going morninggood dont anywhere today'
p1730
asS'2010_20'
p1731
(lp1732
S'squirrel staring sunbathing making noises perverted squirrel'
p1733
aS'rainbow fooking joke sophie welsh stupid vote talent accent'
p1734
aS'saving grace silly'
p1735
aS'sure bout head chesham well head instead prob bout 20mins'
p1736
aS'meant come home thursday decided come home last night instead'
p1737
aS'well morning truly sucked without mischief coming room lying beside'
p1738
aS'know ticket mine together transfer money account best'
p1739
aS'sure date much'
p1740
aS'mischief best love loads'
p1741
aS'call soon cant phone'
p1742
aS'head month would going tonight'
p1743
aS'drinking commencing'
p1744
aS'impressed youtube recommending daisy dares dare stop making music'
p1745
aS'university officially party time'
p1746
aS'dear birds shut fuck thanks'
p1747
aS'feeling pretty shit bout last piece work even though best'
p1748
asS'2011_35'
p1749
(lp1750
S'mood dance around like fool'
p1751
aS'easily offended talking women vile disgusting tonight'
p1752
aS'perving guys nana runsinthefamily'
p1753
aS'arghh dont album dont itunes site muppets'
p1754
aS'thanks ruining great song dick'
p1755
aS'today mainly want stay bedbut'
p1756
aS'diet coke isnt hitting spot todayi know willa good chicken kormashame indian sucks'
p1757
aS'feels sooo good today'
p1758
aS'great last nightfew drinks friends bands turn'
p1759
asS'2011_34'
p1760
(lp1761
S'hoping rest boys bring sydney tonight'
p1762
aS'back online'
p1763
aS'feeling homesick lately hopefully boys bring sunday'
p1764
asS'2010_38'
p1765
(lp1766
S'headaches keep getting need'
p1767
aS'found full rack ribs free hell'
p1768
aS'full rack ribsdone'
p1769
aS'workdone drive lincolndone hello sleep'
p1770
aS'snail computer race determine fastestthe snail would winby long mile'
p1771
aS'feel cheeky little infection coming along'
p1772
aS'greek'
p1773
aS'crazy lighting'
p1774
aS'looks like storm brewing love thunder lighting'
p1775
aS'getting greek much faster like stupid crappy american good'
p1776
aS'missing someone find awesome paid lincoln thank please'
p1777
aS'served lash obsessed sainsburys scares'
p1778
asS'2011_36'
p1779
(lp1780
S'noticed since actually know gentlemen'
p1781
aS'round rugby world workso many screens watch'
p1782
aS'would love someone could tell hell happened last night sure hell cant remember thing'
p1783
aS'havent since thursday double shifts weekendthis early night needed'
p1784
asS'2011_31'
p1785
(lp1786
S'spent yesterday lunch friend manly today chilling bondi beachbliss back work tomorrow'
p1787
aS'taken monthsmaybe longer finally complete idea inspirationnow book consultation'
p1788
aS'blacks wallabiesthis game could hooked rugbyeven dont understand'
p1789
aS'soooo tired'
p1790
aS'finished work 9pmit homei blame mark greg'
p1791
aS'well done emma grade fucking prat'
p1792
asS'2011_30'
p1793
(lp1794
S'wish wasnt midnightim loud music dance underwear like crazy chick kind mood'
p1795
aS'chilling kigh sunday afternoon'
p1796
aS'genuinely scared feet hurt much fear fall'
p1797
aS'ready crashanother days doubles tonight though'
p1798
aS'watching sound musicdont remember ending though'
p1799
aS'might picasso keep waking blocked'
p1800
aS'hives fucking amazing damn camera running battery guitarist came played crowd next'
p1801
aS'alivemy blonde moments last days control shouldnt allowed right'
p1802
aS'planning cutting blonde moments tomorrowwell well goes'
p1803
aS'\xc2\xa31000 account didnt tell wanted surprise'
p1804
aS'ahahaha muppet thats money youve inherited nanny cheques accounts'
p1805
aS'weeks time shoop shoop shooping australian mountainsexcited much'
p1806
asS'2011_33'
p1807
(lp1808
S'spent today serving exaustralian rugby world playersshame none present wallabies'
p1809
aS'dude massage today must freakin field knots back'
p1810
aS'kigh gold bloodpretty epic album'
p1811
aS'must fallen pretty hard tail bone weekendit hurts'
p1812
aS'moving weekend find furniture'
p1813
aS'romantic films piss offreality sucks compared'
p1814
aS'whatever tips week going towards massagei muscles didnt even know existed ache'
p1815
aS'freakin awesome weekend snowim sure body going disagree next days though'
p1816
asS'2011_32'
p1817
(lp1818
S'weekend find mainly skiing'
p1819
aS'australia months decided kick'
p1820
aS'great evening catching school frienddefinately going harder keep touch time'
p1821
aS'nights like thank america tylenol'
p1822
aS'insanityi cant tear away news genuinely concerned decent human london right'
p1823
aS'enjoy facebook twitter honestly believe sites need blocked stop scum planning riots'
p1824
aS'cannot understand peoples minds work think acts terrorism country'
p1825
aS'government people right hurtstake away benefitsthey unworthy life alone money'
p1826
aS'wordim australia police trying blame damn government putting many restrictions'
p1827
aS'accepted challengeunsure outcome though'
p1828
aS'people taking part riots london something useful country insteadlike play'
p1829
asS'2010_32'
p1830
(lp1831
S'sleep supposedly best cure headache apparently headache doesnt want cured wont sleep'
p1832
aS'hours polite head ache really need cause someone else pain'
p1833
aS'cant afford happen'
p1834
aS'soooo satisfying face ticketman'
p1835
aS'remembered comfy woke morning would much like'
p1836
aS'people squirrel looks disgusting'
p1837
aS'totally forgot amazing werthers originals packets gunna finished soon'
p1838
aS'date seeing yma6 remind ticket price still need'
p1839
aS'interview done lets whether make second interview lets keep fingers toes crossed people twitter'
p1840
aS'interview tomorrowfirst interview isnt work'
p1841
aS'brain drive moment many things going'
p1842
aS'free packet crisps vending machine thats second time vending machine given free item must like'
p1843
asS'2010_33'
p1844
(lp1845
S'sound rain relaxing nighty night'
p1846
aS'blisters feet hang sign good night next'
p1847
aS'body wake less hours later'
p1848
aS'difference bblb surely arrested incest already'
p1849
aS'dont care mcflys song mcfly sooo damn want'
p1850
aS'better last time still great wasnt guna decided quick look'
p1851
aS'sample sale work clothes cheap sell website woop'
p1852
aS'necklace tops including saints 6quid score'
p1853
aS'tonight better quicker last night'
p1854
aS'hello \xc2\xa331025 taxman thatll teach taking money'
p1855
aS'cannot arsed anymore going sleep night'
p1856
aS'couldnt weekend tweet friday saturday okey dokey'
p1857
aS'going dogs reading finally real summer'
p1858
aS'back sleep dont work till need sleep'
p1859
aS'point exactly'
p1860
aS'would used sure change name changed people'
p1861
aS'1718 human years mischief lived average'
p1862
aS'actually thought wednesday even took pill wednesday thats guna confuse rest month dammit'
p1863
aS'basically technology hates everything piss'
p1864
aS'annoyed really really annoyed good upgrade smoothly'
p1865
aS'need twitter keep fingers toes crossed technology likes today final upgrade woooop'
p1866
asS'2010_30'
p1867
(lp1868
S'blister heel emma limping everywhere stoopid shoes'
p1869
aS'love tequila'
p1870
aS'honestly feel like much effort sleep ahhh well'
p1871
aS'tonight good night unable sleep friday would much better choice'
p1872
aS'another jobs apply tomorrowi best good news soon considering amount jobs applied'
p1873
aS'point saying dont believe answer told many times many people deal stupid'
p1874
aS'seems animals bucks herts suicidal tonight helped making fail suicide missions'
p1875
aS'first rejection jobs applied really wanted well'
p1876
aS'national everything must done snail pace today move faster'
p1877
aS'hello avenged album'
p1878
asS'2010_22'
p1879
(lp1880
S'cant wait looking forward seeing sunday'
p1881
aS'hello need insurance hope quick'
p1882
aS'guessing usual time maybe mine bout 7ish'
p1883
aS'going sunday dinner tonight grab lift please'
p1884
aS'look independence back'
p1885
aS'contributed greatly destroying spiders hoovered loads today teach disgusting sneaky'
p1886
aS'leaving lincolntill september anyway'
p1887
aS'nothing like slide followed wierd hallo salut song loving tonight'
p1888
aS'cheeky pitcher engine guna miss girlies'
p1889
aS'last night engine official student time drink'
p1890
aS'hello fucking mood'
p1891
aS'hate packing'
p1892
aS'anyone else think diana vickers sings constantly ball lodged throat'
p1893
aS'glad asleep sofa dribble much'
p1894
aS'light pissed goood fucking night'
p1895
asS'2011_39'
p1896
(lp1897
S'cream crackered'
p1898
aS'werent photos camera wouldnt know last wednesdaysthere reason gave vodka years'
p1899
aS'days doublesbring'
p1900
asS'2010_37'
p1901
(lp1902
S'could head hurts much right definately never headache painful'
p1903
aS'going therei hate freshers'
p1904
aS'stay meeee'
p1905
aS'comfy right tempted pull sicky'
p1906
aS'plan followssleep work lincoln'
p1907
aS'feel like rubbish'
p1908
aS'work best quickly date chuck nate tonightwoop'
p1909
asS'2010_34'
p1910
(lp1911
S'tired much need wake'
p1912
aS'maybe headline main stage next year youve fans'
p1913
aS'cant wait kigh'
p1914
aS'watched play never boring'
p1915
aS'gotta love remember'
p1916
aS'picking andy amersham park sorry late'
p1917
aS'reading going shoes feet moving'
p1918
aS'amazingand'
p1919
aS'right dogsshow moves'
p1920
aS'blonde atleast know difference symbol stupid idot americans back school'
p1921
aS'craving cheese purchase break nice block cheese'
p1922
aS'dont know think ultimate guna boring'
p1923
aS'thursday thanks drop message thursday'
p1924
aS'well done well andy cant back work till bout well catch taxi fest'
p1925
aS'results could leave place reading pretty please'
p1926
aS'tired shower today'
p1927
asS'2010_35'
p1928
(lp1929
S'prob doesnt help tweet every mins soon wont worry'
p1930
aS'whats attitude everything recently'
p1931
aS'stupid rabbit making feel guilty infront someone elses next time'
p1932
aS'time next week graduation thing pastbest partying next week'
p1933
aS'duvet since falling apart never ever'
p1934
aS'chance know company filming supplies cameras reading leeds'
p1935
aS'definately running like phoebe friends made amusing'
p1936
aS'released contract thank'
p1937
aS'awesome weekend muscles ache movies watch'
p1938
asS'2013_42'
p1939
(lp1940
S'moment efron look like gets instantly regret wearing make'
p1941
aS'concerned tooting broadway smells anchovies evening'
p1942
aS'yesterday shoes somewhere lets learning'
p1943
aS'still cloud close joseph gordon levitt girlcrush'
p1944
aS'dilf doctors broody'
p1945
asS'2013_43'
p1946
(lp1947
S'dance party'
p1948
aS'physically impossible jared leto look sohot'
p1949
aS'sounds right'
p1950
asS'2013_40'
p1951
(lp1952
S'looks epic'
p1953
aS'could least week sleep well nothing goes wrong would great pissedoff'
p1954
aS'tminus weeks book mormon finally'
p1955
aS'monday never breakingbad'
p1956
aS'said would never girls think accidentally came across wedding dress'
p1957
aS'today twitter zombie worstnightssleep'
p1958
asS'2013_41'
p1959
(lp1960
S'apparently everyone except born barn freezing'
p1961
asS'2013_46'
p1962
(lp1963
S'sneeze cough cough sneeze welcome sunday'
p1964
aS'looks like seeing next year 2014 gonna good'
p1965
aS'everyone book mormon fanfreakintastic laugh loud funny start finish witty writing'
p1966
aS'cultured music theatre gothic cinema'
p1967
aS'gavin degraw tickets check'
p1968
aS'wont happy meet looks sounds like josh turner tractor like'
p1969
aS'emma yourman joshturnerremake'
p1970
aS'mcbusted'
p1971
asS'2013_47'
p1972
(lp1973
S'spag bowl bottle perfect saturday night'
p1974
aS'still record scuba tune though'
p1975
aS'going hibernation weekend laters'
p1976
aS'gets colder wearing gear'
p1977
aS'buddy back ready tonight grouplove'
p1978
aS'season wrap duvet cocoon cold'
p1979
aS'doesnt expect give pillows meet future husband'
p1980
aS'hiccup'
p1981
asS'2013_44'
p1982
(lp1983
S'chinese bestie come play'
p1984
aS'trick treaters hope prepared disappointment offer pasta'
p1985
aS'london months last night first wrong situationpretty good going think'
p1986
aS'cant stand seeing hearing football fans alone stuck platform post game minutes'
p1987
aS'excitement thunder thighs return discuss logistics shared spotify account'
p1988
aS'want friend like schmit newgirl'
p1989
asS'2013_45'
p1990
(lp1991
S'counting coughs help sleep thats tonight sickbunny'
p1992
aS'admitting defeat eyes streaming keep coughing sniffing head hurts cold'
p1993
aS'want today danced much last night sure even stand'
p1994
aS'tonight realised always head home midnight night buses full idiots'
p1995
aS'watching blackfish shocking'
p1996
aS'full wardrobe clothes comes night nothing wear firstworldproblems'
p1997
aS'always laugh catch cousins'
p1998
aS'apparently spent past hour singing aloud work head phones arent good idea'
p1999
aS'going back today spotify sweethomealabama ballroomblitz'
p2000
aS'days shorter emma gets miserable needsunandserotonin'
p2001
aS'kill giants naked famous nowplaying'
p2002
aS'mess naked famous nowplaying'
p2003
aS'even better looking flesh'
p2004
aS'went premiere weeks'
p2005
aS'made mini xmas animation count'
p2006
aS'dont even live home still lets know boards plane lands family'
p2007
asS'2013_48'
p2008
(lp2009
S'oozing blood luurrrvvveeelllyyyy insectbite'
p2010
aS'muppets christmas carol'
p2011
aS'disneys peter afternoon baking hope guinea pigs ready taste desert xmas'
p2012
aS'thank cupcakes heated seats cars'
p2013
aS'place commonly known hairdressers like call hell'
p2014
aS'xmas presents left xmas shopping hell'
p2015
aS'blood thicker water maple syrup thicker blood technically pancakes important family'
p2016
aS'getting sleep idiot neighbours'
p2017
asS'2013_49'
p2018
(lp2019
S'2013 year hell showing sign taking easy last weeks'
p2020
aS'mammoth hang'
p2021
aS'lived australia would able beach birthday next week'
p2022
aS'many people stage palmaviolets thecoronet music rock londonlife\xe2\x80\xa6'
p2023
aS'palma violets jarvis cocker palmaviolets jarviscocker'
p2024
aS'happy people resting face smile really scare'
p2025
aS'seem woken north pole'
p2026
aS'shall blast drive glasgow year even crack tartan skirt yeeeooo'
p2027
asS'2010_50'
p2028
(lp2029
S'anything want xmas ideas would helpful'
p2030
aS'hate glad didnt lincoln would rather snowed home motorway'
p2031
aS'snowed ingoing watch kick strictly'
p2032
aS'people skiing around village'
p2033
aS'cant snow look nice play always ruin plans'
p2034
aS'keeping warmsleep soon'
p2035
aS'hour half homeno'
p2036
aS'someone given drugs sure gone loony'
p2037
aS'many young groupie slutsbless'
p2038
aS'lump paaaiinnffulll another trip doctors feel'
p2039
aS'good birthday wonderful friends'
p2040
aS'thank happy anniversary'
p2041
aS'thank hope later'
p2042
aS'cream crackered night'
p2043
aS'cravings better mmmm diet cokei shall vist headache fairy soon'
p2044
asS'2010_51'
p2045
(lp2046
S'programme live pretty impressive'
p2047
aS'work done celebrated bday laziness rest daynoice'
p2048
aS'tucked christmas work tomodouble payyipeee'
p2049
aS'know real hell coming chimney minute midnight'
p2050
aS'okies call next couple hours'
p2051
aS'plans'
p2052
aS'seems woken voice sound like'
p2053
aS'taking anymore people blood test done feel sick'
p2054
aS'devil shoulder'
p2055
aS'antibiotics making ache even annoying'
p2056
aS'tips surprised faces opening presents know pressie steph'
p2057
aS'preparing arctic adventure work'
p2058
aS'sleep time'
p2059
asS'2010_52'
p2060
(lp2061
S'good deed tonight wished hadnt drink driving'
p2062
aS'hope foggy london mission'
p2063
aS'homewardbound shows crap owners always losing pets'
p2064
aS'replacement already overloaded books'
p2065
aS'serious movie tunes played radio work'
p2066
aS'last night hilarious fund'
p2067
aS'hours time looney moment room'
p2068
aS'fairly surprised first cold winter probably around dirty freshers anymore'
p2069
asS'2010_28'
p2070
(lp2071
S'jared leto absolute hottie'
p2072
aS'home check movie check check'
p2073
aS'today hard hard'
p2074
aS'staying awake turning mission right'
p2075
aS'learnt sunrise appreciated sunrise early'
p2076
aS'really struggling stay awake'
p2077
aS'teeny hours sleep back work night'
p2078
aS'kate mine seeing leeds sold within 5mins tickets available glasgow'
p2079
aS'hello avenged stone sour tickets'
p2080
aS'next 36hours going long involve lack sleep sucks well life toddles'
p2081
aS'soooi applied perfect graduate fingers crossed'
p2082
aS'summer rubbish anything look forward doesnt look like'
p2083
aS'start dating vampires'
p2084
aS'vending machine gave products price gracious'
p2085
aS'tongue still hurts burning soup yesterday soup hardcore'
p2086
aS'hate nothing burning tongue guess tastebuds disappear couple days'
p2087
aS'tour dates announced excited'
p2088
aS'cant believe sleezy people dont offer something want make sure people charged'
p2089
aS'tempted take offer reading festival might give something actually look forward summer'
p2090
aS'hope offered applied right'
p2091
aS'people talk absolute rubbish'
p2092
aS'takes half hour answer phone mins sort assesment something doesnt'
p2093
aS'took money people want back pick fucking phone'
p2094
aS'nothing like year throwing mammoth tantrum wake alarm clock thinks'
p2095
aS'missing morning wrestles'
p2096
aS'need eclipse offers company'
p2097
asS'2012_29'
p2098
(lp2099
S'character development spot regards stripping skills storyline rather awkward'
p2100
aS'wont watching magic mike hurry'
p2101
aS'mine last week used hair dryer blast headphone jack 20secs mins later working'
p2102
aS'flourthrow'
p2103
aS'kate already going seeing magic mike'
p2104
aS'tonightthank much'
p2105
aS'well done'
p2106
aS'something telling'
p2107
aS'know americans stupid many attacks need realise laws around guns good idea'
p2108
aS'mens ultimate fashion brand following idea targetaudiencefail'
p2109
aS'oceansomeone build ocean themed pool london diving sharks'
p2110
aS'dont thatwhen hear good food want especially next work guna'
p2111
aS'jealous'
p2112
aS'congratulations moving 10minutes road olympics startsclever emma'
p2113
aS'noticing delays shed load pineapplestrue story'
p2114
aS'dear girl graduating clubbing arse away'
p2115
aS'always wondered valets take cars spinturns'
p2116
aS'much security hilton cardiff london going nightmare'
p2117
aS'last time wales used rather disgusting language deserved lets hope recognises'
p2118
aS'guarantee nightmares tonight'
p2119
aS'want feel violated'
p2120
aS'sweet mother devilmy eyes poor eyes ruined tell ruined'
p2121
asS'2012_28'
p2122
(lp2123
S'going tough competition'
p2124
aS'another great album kate voegelei shall ruin singing along'
p2125
aS'sound restored phone means hair dryer'
p2126
aS'looking forward seeing boys tonight'
p2127
aS'yearsreally cant wait'
p2128
aS'watching download front band definitely gilmour girls'
p2129
aS'beer time'
p2130
aS'turn around bright eyes'
p2131
aS'morning'
p2132
aS'partying like 1940s september'
p2133
aS'pole class verdict loads great fitnessmuscles dislike next week'
p2134
aS'loved shouts great tits love love much makes wish could throw balls fire'
p2135
aS'dear absolutely love great done'
p2136
aS'want magic mikeanyone game'
p2137
aS'dont love grab pole train dont fall instead grab strangers arse'
p2138
aS'around tonight work home last weekend july plan'
p2139
aS'london'
p2140
aS'thinking night hear rain night cant sleep'
p2141
aS'well aware sounds wrong holy moly inner thighs fire'
p2142
aS'might 10years away damn excited unlucky love party planned'
p2143
aS'first pole class tonight neck shoulder cooperate'
p2144
aS'feeling spiritedly fresh todayexcept right shoulder doesnt want join'
p2145
aS'sometimes feel sorry arent part familywere awesome'
p2146
aS'always great evening obnoxious indeed'
p2147
aS'tuesday kindly disappear thanks'
p2148
aS'pets cute stealing come seeing none'
p2149
aS'someone care tell currently bull bush stuck head'
p2150
aS'joinedif female thing doesnt seem sweat ends cross trainer next though punch'
p2151
aS'going purchase rifle preparation next person lets alarm hour half'
p2152
asS'2012_27'
p2153
(lp2154
S'fanfreakintastic dead'
p2155
aS'sleep'
p2156
aS'used salt water eyes except classic geordie shore'
p2157
aS'full weeks thankful spent sofa already'
p2158
aS'superstar begins lets find jesus'
p2159
aS'today mainly sofa tonight different busy wants chill'
p2160
aS'last night vague memory'
p2161
aS'night friends'
p2162
aS'wine'
p2163
aS'dear flight centre returning call idea call first place'
p2164
aS'sweet mother cupcakes lafitness join phone calls hour work know'
p2165
aS'blood pressure machines evil'
p2166
aS'yday girl next done cross trainer didnt break sweat wanted punch'
p2167
aS'roof view shard augementation laser light showgreat view crap laser show'
p2168
aS'watch laser show tonight thames street decisions decisions'
p2169
aS'note self picking cold glass putting excessive amount cream advised'
p2170
aS'look sweet'
p2171
aS'gutted missing hilltop hoods tonight'
p2172
aS'sorry england sure seen photo youd rooting aussies london2012 guna swimming aussie'
p2173
aS'thatll person week bumped also works sohoafter work drinks could expensive'
p2174
aS'dont know everyone moans monday personally find tuesday much harder comprehend'
p2175
aS'would love someone crack'
p2176
aS'regret living 10mins away olympic park kicks offsharp elbows needed'
p2177
aS'last olympic torch relay goes right past house'
p2178
aS'pretentious creature become'
p2179
aS'best thing hang epic sleep night9 hours straight thank'
p2180
asS'2012_26'
p2181
(lp2182
S'headache past sell date needs disappear'
p2183
aS'bedwould lovely would stay dark another hour'
p2184
aS'warehouse rave'
p2185
aS'else moved house'
p2186
aS'packed morning find unpacking already might different place packing seems pointless'
p2187
aS'movie night boys packing'
p2188
aS'padi professional nowtis true number says'
p2189
aS'moving tomorrowshould probably pack'
p2190
aS'half expected wake tropical island heat last nightwas disappointment didnt happen'
p2191
aS'gampt anyone'
p2192
aS'thursday december 23rd week doorway something special ultimately nothing average'
p2193
aS'waterloo finally facing waterloo'
p2194
aS'start pole ballet course weeks missiongetdancersbodyback'
p2195
aS'move days really think packingon friday'
p2196
aS'bring mugshots back'
p2197
aS'shouldnt downloaded song wanted early night'
p2198
aS'still going call benjust saying'
p2199
aS'pass twice fatemma'
p2200
aS'wonder local sunset strip likeonly soho would local strip joint'
p2201
aS'hello munkyyes thats answer phone'
p2202
aS'would love know sleep last night cant move shoulders'
p2203
aS'sleep'
p2204
aS'thanks possibly know nearer time'
p2205
aS'werent starbucks sunday came tell started today move saturday'
p2206
aS'house less weekpat back'
p2207
aS'dont think agelets honest dont find dilf mine either'
p2208
aS'couple dates last month werent dating sites dont know still signed'
p2209
aS'sweet depends time finish work give buzz laters'
p2210
aS'text yesterday'
p2211
aS'would like sincerely thank weather nice actually workreally thank'
p2212
aS'woman queue jumped saying sorry need something think queue somethingshe french'
p2213
asS'2012_25'
p2214
(lp2215
S'exciting tomorrowbest attempt sleep attempt main word'
p2216
aS'goal stick depp'
p2217
aS'googled hart google imagesi dont attractive'
p2218
aS'football house shouting tvthis never happened apocalypse maybe'
p2219
aS'seems happy todayi entered church hell'
p2220
aS'jokesbut going church dont tweet tomorrow morning sent hell'
p2221
aS'totes gone christian likedidnt know'
p2222
aS'church sundayfirst time everything'
p2223
aS'know obvious holy moly hugh jackman'
p2224
aS'look gots'
p2225
aS'shocking'
p2226
aS'chesham folk pleasant battered turd'
p2227
aS'sure think wear jeans isnt meant hole revealing arse right'
p2228
ag38
aS'yesterday stuck kitchen stools dont left lovely bruise'
p2229
aS'love waking wide awake hours favourite thing ever'
p2230
aS'need find dress appropriate church sunday already going helli dont want anger people'
p2231
aS'finally figured make song ringtonei singing along sublime answering phone'
p2232
aS'trying lodge form australia right 2000dollars backjust need figure lodge form'
p2233
aS'knew watching half naked models jump around would bring luck'
p2234
aS'real housewives give fuck blocking channels'
p2235
aS'would really nice good news monthi dont think thats asking much'
p2236
aS'enter place fear mostthe hair dressers'
p2237
aS'july maybe could head london could nandos cinema maybe drink'
p2238
aS'want spiderman movie whos'
p2239
aS'plan related'
p2240
aS'youve watching footy watching half naked modelsi believe'
p2241
aS'list date dilf check'
p2242
aS'sing seriously canonly window broke'
p2243
aS'apparently owed 2grand accident surely owed must accident cant remember'
p2244
aS'disturbed arent reading good'
p2245
aS'feels like full workout sleep last night'
p2246
aS'sometimes think live next door elephants'
p2247
aS'seems passing fully clothed lights night runs family'
p2248
aS'people bullshitting something come along soon'
p2249
ag38
aS'adam levinemarry'
p2250
aS'keep getting recruitment agencies saying found stuff never getting back'
p2251
aS'would someone hurry give break already'
p2252
aS'dear sort going demand properly idiots'
p2253
aS'well idea went'
p2254
aS'knowledged platforms thanks ready interview'
p2255
asS'2012_24'
p2256
(lp2257
S'hope tomorrow good daynow could sleep would much appreciated'
p2258
aS'exactly'
p2259
aS'back windy city windy city mighty pretty aint'
p2260
aS'calamity jane'
p2261
aS'weeks watching horror movie slept light offhave woman black'
p2262
aS'bedtime boring finished shades trilogy'
p2263
aS'sister strict orders pass digits bb12'
p2264
aS'feel exhausted weeki think worrying much'
p2265
aS'plenty tables guys sofa sitting onpersonal space mean anything douchebags'
p2266
aS'daisy less impressed back forth vets'
p2267
aS'christian greyits real pleasure'
p2268
aS'sleep pray lord shape keep please wrinkles please bags lift sags'
p2269
aS'wasted hours life worst shower evergood'
p2270
aS'many weird dreams last night'
p2271
aS'donuts check diet coke check thats food sorted'
p2272
aS'peeked curtains need confirmation seeing things'
p2273
aS'dear emma grow pair stop sincerely emma'
p2274
aS'shes couple operations wont still vets letting come home night helps'
p2275
aS'looks like missing daisy stalker keeps looking around'
p2276
aS'importantly find want itit looks dull'
p2277
aS'want hear window cleaners going wait gone'
p2278
aS'hope vets daisy come home soonthe house quiet without especially'
p2279
aS'frustrating even supposed older'
p2280
aS'phone call'
p2281
aS'wouldnt something official need grey need'
p2282
aS'daisy looking chirpy needs dammit'
p2283
aS'sandwich pretty sure everything come back'
p2284
asS'2012_23'
p2285
(lp2286
S'hate brother find watching figure guys voice broken'
p2287
aS'chocolate need'
p2288
aS'dear john'
p2289
aS'smell chilli reading sure makes hungry'
p2290
aS'known daisy stay vets next week would recorded meowing house quiet'
p2291
aS'probably lost ideas accents found annoying creature call miley engaged'
p2292
aS'plays thor aussie'
p2293
aS'daisy gone surgerynow twiddling thumbs hoping next phone call good news'
p2294
aS'junk email update according sandy stuart powerful male knows makes vicious wicked'
p2295
aS'also shotgun richmond advert'
p2296
aS'olly proudlock shotgun cheryl means cant'
p2297
aS'cheryl cole date chace crawford know shotgun means'
p2298
aS'correct last tweet conversation overheard people'
p2299
aS'argghh grunt orgh arrrhhhhggg grroff grruuffd'
p2300
aS'kind prayer would'
p2301
aS'awkward moment explaining shades grey'
p2302
aS'drawing pictures lyrics notepadsome still'
p2303
aS'drawing pictures lyrics notepadsome still'
p2304
aS'feel sorry male race considering women reading book'
p2305
aS'gone rather girly choice duvet setfirst time everything guess'
p2306
aS'would really appreciate internet would work apply jobs'
p2307
aS'sure know knows'
p2308
aS'think thats fair'
p2309
aS'first depp night week'
p2310
aS'someone give freakin break jobeither johnny depp needs propose already'
p2311
aS'wonderful lunch ruined life family nothing swear kids'
p2312
aS'blonde classed disability found great opportunity disability apply'
p2313
aS'would like thank cinema gods releasing birthday'
p2314
aS'correct wrong recruitment companies meant help find jobs found ones dont'
p2315
aS'prince harry smiling none jubilee photos seenim sure could change hazza'
p2316
aS'jean issues today issue keep falling'
p2317
aS'known sleep wasnt agenda last night would'
p2318
aS'know right link companys tweet maybe'
p2319
aS'lying hours eyes closed still sleepnot happy'
p2320
aS'againstop thinking start sleeping emma'
p2321
aS'dont dare tell hook channel cant even watch guide'
p2322
aS'finally home partying like 1952now sleep'
p2323
asS'2012_22'
p2324
(lp2325
S'well done emma deserve rather large back decision'
p2326
aS'sleeping light thats really going stop woman black turns'
p2327
aS'take woman blacki make time'
p2328
aS'wasnt useless would able tell went well'
p2329
aS'thats awkwardthats common sense'
p2330
aS'youve framedenough said'
p2331
aS'idea microsoftmake things compatible types prats'
p2332
aS'smart cars nothing smart paying 15000 dollars cart'
p2333
aS'definitely like'
p2334
aS'captain jack sparrow'
p2335
aS'blue skies'
p2336
aS'disney band fact girl playing trumpet backing trackingnot exciting'
p2337
aS'dont worry repeating songs shall bore tweetsongs'
p2338
aS'disney songs ceasedband still going though'
p2339
aS'look stuff isnt neat wouldnt think collections complete'
p2340
aS'cant wait kiiinnnggg'
p2341
aS'guest guest service test'
p2342
aS'made obvious last tweets tell easily amused'
p2343
aS'supercalifragliaticexpealidocious'
p2344
aS'look bare necessities simple bare necessities'
p2345
aS'friend friend'
p2346
aS'feel looovvveee tonight'
p2347
aS'anyone know good decent priced masseuse back full knots cracking every time stretch'
p2348
aS'however feel remember somewhere world dropped icecream'
p2349
aS'stop thinking start sleeping emma'
p2350
aS'anyone wanna blink 26th july'
p2351
aS'someone next time decide dancing night good thingit really hurts walk today'
p2352
aS'today hurts'
p2353
asS'2012_21'
p2354
(lp2355
S'weekends excitement shall sleep'
p2356
aS'neither drunk hungover dropped phone cracked screen ohemma'
p2357
aS'never girly'
p2358
aS'today make bridesmaid debutstill idea hair typical'
p2359
aS'someone please explain awake stupid hour cant back sleep'
p2360
aS'woke last nights clotheshad nothing wine consumption tired'
p2361
aS'playing reaction card ensuite'
p2362
aS'mascara fake eyelashes best tenner ever spentback weeks'
p2363
aS'eyelashes tintedmy days mascara'
p2364
aS'suicidal'
p2365
aS'didnt want nice know dont want know please stop trying friend'
p2366
aS'someone please explain chocolate house'
p2367
aS'well done emma choosing work home todayits working'
p2368
aS'definitely biggest drove passed'
p2369
aS'look audi going drive like pratyour audi crap'
p2370
aS'perfect diving weathernow show ocean dammit'
p2371
aS'really beautiful still trying force clouds little luck'
p2372
aS'spot face rare would happen week weeks wouldnt'
p2373
aS'pampered evening much gavin singing sleep lovely'
p2374
aS'gavin degrawyour voice beautiful'
p2375
aS'yippee hope tastes good wine tasting'
p2376
aS'know changed person plan spend first check scuba medic course rather clothes'
p2377
aS'today good well wine arrived bottles australian shame cant ship'
p2378
asS'2012_20'
p2379
(lp2380
S'come conclusion england doesnt enough real menplenty pretty boys'
p2381
aS'shopping empty stomach againlesson learned'
p2382
aS'according eyes titanic sinking twiceat time historical hear'
p2383
aS'pints'
p2384
aS'bombs away'
p2385
aS'also entertainment linei keep forgetting ipod'
p2386
aS'blame current state practice wedding guess'
p2387
aS'many foot ball fansdie already'
p2388
aS'note self drinking early catching train'
p2389
aS'hear marketing hear manager hear jobbut pint cider'
p2390
aS'schooners drink schooners pints much apologies anyone stuck tube evening'
p2391
aS'true true'
p2392
aS'dictator better expected'
p2393
aS'haha wasnt discussed faceyb mums status weekend'
p2394
aS'serious discussion makes good stripper family would considered normal'
p2395
aS'thats right customs release wine send'
p2396
aS'congrats dont anyones numbers number still'
p2397
aS'please busy next week week free'
p2398
aS'wish happened easy'
p2399
aS'hurry athletes qualified olympics make easier thanks'
p2400
aS'anyone want lucky buffed efron weekend'
p2401
aS'going olympic genius time complete'
p2402
aS'call emma avenger olympic researcher tayloryour welcome'
p2403
aS'dreams last night awesomeyes avenger'
p2404
aS'nothing enjoy watching cyclist full pelt back motionless needs happen often'
p2405
aS'dear please stop ruining twitter feed talk football would rather watch gauge eyes kind regards emma'
p2406
aS'excited morning shining birds singing decided tell still freezing outside'
p2407
aS'thongs'
p2408
aS'forgotten feels like nights sleep dont wake'
p2409
aS'asked research source information olympicsboom'
p2410
aS'sweet later dont jealous haha'
p2411
aS'would 7ish good time round kelly welcome look'
p2412
aS'home evening young taylor clothes raid'
p2413
aS'another dirty email reached junk folderwhere coming'
p2414
aS'hart dixie addiction'
p2415
aS'paul gets london weeks freakin excited hurry find place live'
p2416
aS'fartedher reply lady like'
p2417
aS'bridesmaid hairstyle tested conclusion hell freaking anyone know decent hair extensions dyed mine'
p2418
asS'2010_48'
p2419
(lp2420
S'need know wanna stage glee'
p2421
aS'shockingly'
p2422
aS'gotta love glee factor'
p2423
aS'nothing like snow short prat custody'
p2424
aS'came lincoln weekend forgot doesnt like'
p2425
aS'snowy lincoln'
p2426
aS'trying innocent decided likey'
p2427
aS'lets hope nice gritted driving lincolnsnow'
p2428
aS'well feel rele stupid'
p2429
aS'today good power heating turn pplleeeaassseee'
p2430
aS'nope facing different hill facing started hill'
p2431
aS'wellive learnt cant control spinning'
p2432
aS'morning morningrandom though'
p2433
aS'well shes wearing different dress thats'
p2434
aS'mitchell primary school care taker definately doctors surgery hasnt changed'
p2435
aS'dear body insist making left side ache hurt today answer would much appreciated'
p2436
aS'really like first thing morning even playedever'
p2437
aS'enjoyed skidding hill work twas'
p2438
asS'2011_37'
p2439
(lp2440
S'tonight night tired'
p2441
aS'drunk funny drunk'
p2442
aS'beer garden work yesterday described drunk irish australian sardines'
p2443
aS'sotoday australia irelandi work irish australiathis could interesting evening'
p2444
aS'seems much staying latemy body unsure amount sleep last night'
p2445
asS'2011_22'
p2446
(lp2447
S'years still exhausted friday night outsomethings right'
p2448
aS'tired early night come'
p2449
aS'eyes stinging hours nownot sure good thing'
p2450
aS'paid unexpected visit beaumont last night'
p2451
aS'lincoln'
p2452
aS'shitzys name reasonits shit'
p2453
aS'hair dryer'
p2454
aS'time next week well plane'
p2455
aS'decided time give'
p2456
aS'awesome night laughed much ages'
p2457
aS'real need water'
p2458
aS'versaemerge lincoln'
p2459
aS'appreciate creep watched every move chorleywood kings cross'
p2460
aS'tired going back'
p2461
aS'hold basis tweets good luck come visit miss guys'
p2462
aS'going travelling please tweet younger take ymas back'
p2463
aS'locked houseall days work'
p2464
aS'said good first familynot easy'
p2465
aS'ahaha expected shocked'
p2466
aS'cream crackered'
p2467
aS'would thats reasonable amount clothes considering gone year'
p2468
aS'apparently isnt good enough daisy lying stomach'
p2469
aS'going dark head ache pisses'
p2470
aS'head huurrrtttsss'
p2471
aS'slam dunk awesome home'
p2472
asS'2011_23'
p2473
(lp2474
S'slept jetlagged going food sleep avoid jetlag skype hostel'
p2475
aS'parents could talk right'
p2476
aS'underso ready'
p2477
ag38
aS'dear atmosphere please refrain turbulance safely thanks'
p2478
aS'also stocking body wotsits need prepared incase dont exist'
p2479
aS'packed spending quality time leave'
p2480
aS'trouble deciding underwear shoes take clothes'
p2481
aS'neglecting twitter iphonethis cool'
p2482
aS'hope added much refunded correctlyi happy'
p2483
aS'people helpful'
p2484
aS'people always leave hold agesi playing solitaire'
p2485
aS'want'
p2486
aS'life postiphone tough'
p2487
aS'last night iphonesad times'
p2488
aS'appreciate window cleaners turning stupid oclock would think could clean quietly'
p2489
asS'2011_20'
p2490
(lp2491
S'looking forward hearing alarm monday morning'
p2492
aS'woop'
p2493
aS'sunday dinnering'
p2494
aS'world didnt institutionalise jobs'
p2495
aS'enough days weeks needs fast'
p2496
aS'going please keep noise minimum wish world thanks'
p2497
aS'like fool tattooed across face'
p2498
aS'finally gavin degraw back crappy intro covers'
p2499
aS'tucked best rest ready kung gods arse tries world night'
p2500
aS'seriously looked comes take heaven whoever looking pets laughing'
p2501
aS'dont weekend please stick idiots mental institution'
p2502
aS'days cannot move great steak wont need week'
p2503
aS'last work today full steam ahead'
p2504
aS'cold annoying going sleep'
p2505
aS'surprised dick getting chesham place full'
p2506
aS'music shit turn train poor excuse human'
p2507
aS'cant work eyes keep streaming make screen blurry away cold'
p2508
aS'decision made going avenged sevenfold ticket reach sydney'
p2509
aS'every time blow nose feels like vein popping right ouch'
p2510
aS'finally getting early night'
p2511
aS'days advert embarrassingly awful'
p2512
aS'australia paris space weeks lucky girl'
p2513
aS'mayday parade reel fish clashthis upsetting\xe2\x80\x9d hell'
p2514
aS'dear please documentaries tonight would like early night last nights thanks'
p2515
aS'might stop following people usai hate work'
p2516
aS'early night turned documentary involving dolphins onbye early night'
p2517
aS'body telling time bedtime work says differently'
p2518
aS'listening paddys revenge train tempted crack irish elegantly performed'
p2519
aS'tonight realised work rich peopleshame'
p2520
aS'even better avenged sevenfoldhell'
p2521
aS'rise playing sydney july'
p2522
aS'olympic money still taken bank account please team pick youll'
p2523
asS'2011_21'
p2524
(lp2525
S'nice legs daisy dukescant help move 3oh3'
p2526
aS'mayday parade smashed amazing'
p2527
aS'mayday parade reel fish clash'
p2528
aS'slam dunk'
p2529
aS'legs still ache stairs climbed fingers crossed good slam dunk tomorrow'
p2530
aS'apparently paris times miss home'
p2531
aS'back show comfy need sleep'
p2532
aS'whats everyone planned today going paris'
p2533
aS'signed temp agency aylesbury year agogot first phone call today useless idiots'
p2534
aS'cold'
p2535
aS'sure last night tangled duvet going take bedso guna stay'
p2536
aS'stubbed hours still really hurts'
p2537
aS'really glee really'
p2538
aS'trip rehab wotsit addiction thinking'
p2539
aS'aylesbury prob full year olds druggies couple times crown much nicer'
p2540
asS'2011_26'
p2541
(lp2542
S'watching makes want another tattoosorry'
p2543
aS'underwear ordered debenhamsaustralia crap underwear bras isnt'
p2544
aS'promespecially 14quid mine like 30quid teachers dancing proms hilarious'
p2545
aS'diet coke comes many different sizes herei think stay forever reason'
p2546
aS'took risk fingers toes eyes arms legs crossed'
p2547
aS'blurgh'
p2548
aS'jovi looks like much'
p2549
aS'pulled calf muscleouchies'
p2550
aS'interview 930am turned working shift trial week ahead'
p2551
asS'2011_27'
p2552
(lp2553
S'think drank little much last night'
p2554
aS'come conclusion longer watch music videos featuring pitbullhes creepy makes feel uncomfortable'
p2555
aS'jobdone work experiencesorted whale watchingbooked started diving'
p2556
aS'cream crackered'
p2557
aS'australian much confidence good'
p2558
aS'really need macso much music want'
p2559
asS'2011_24'
p2560
(lp2561
S'media sent outfingers crossed'
p2562
aS'feel like getting jetlag dark circles around eyes different'
p2563
aS'done find work'
p2564
aS'till 1130pm slept 10am finally getting good sleep'
p2565
aS'1130pm still awakemaybe finally starting beat jetlag'
p2566
aS'wellthat course complete waste time money'
p2567
aS'sorry hear hope kids well tell'
p2568
aS'weather sydney winteri love'
p2569
aS'spent atleast last hours watching videos mcfly waste time love'
p2570
aS'dont want jinx buttomorrow meant sunny think time australia showed'
p2571
aS'tickets onsale'
p2572
aS'twitter phone means hardly every tweet'
p2573
aS'since sooo tired hopefully finally good nights sleepwell'
p2574
aS'jetlag nastygo away please'
p2575
asS'2011_25'
p2576
(lp2577
S'would like book open water thank please'
p2578
aS'cant wait back weeks much music download maybe tkwc'
p2579
aS'risking itsent applications'
p2580
aS'applications ready dont'
p2581
aS'hate waitingplease ring carry hunting needs'
p2582
aS'cant decide whether makes bieber better slipknot worse genius though'
p2583
aS'apparently peeping myth much myth'
p2584
aS'potential media work experience lined uploving australia'
p2585
aS'cinderella spamthats going call email'
p2586
aS'spam mail spam mailsob story half'
p2587
aS'trial shift'
p2588
aS'peopleyou relax located chanel sydneyno need worry anymore'
p2589
aS'trial shift tomorrow goes well finally started diving'
p2590
aS'still show babar australian tvthat going column decide stay'
p2591
aS'today productive possibly successfultime tuck book'
p2592
aS'second restaurant walk offered trial shift spotim gooooddd'
p2593
aS'jobs applied fortime lunch'
p2594
asS'2011_28'
p2595
(lp2596
S'harry potter freakin awesome'
p2597
aS'summer bayshame none hotties though maybe next time'
p2598
aS'nice proud'
p2599
aS'search whales today'
p2600
aS'hair looked nice todayuntil rained'
p2601
aS'soon start looking dress wedding excited'
p2602
aS'made australian debut todayi played ready steady cook band'
p2603
asS'2011_29'
p2604
(lp2605
S'lemme know lion good probably upgrade'
p2606
aS'quite proud watching filmmanaged tears complete outburst like last time'
p2607
aS'feet hurt'
p2608
aS'rugby australia fitties'
p2609
aS'slept like baby last nightwish still sleeping like baby'
p2610
aS'neglecting twittermaybe iphone'
p2611
asS'2010_45'
p2612
(lp2613
S'head ache painful whole face aching'
p2614
aS'ikead'
p2615
aS'highway code cyclists aswellmorons next time take whole road'
p2616
aS'hear song time guna break speakers uninventive uncreative song ever heard'
p2617
aS'generally make phone call speak person phone person stood next year knows'
p2618
aS'aaannnndddd sleep'
p2619
aS'shut time'
p2620
aS'moment head pillow slept straight till nowsweet'
p2621
aS'everyday bulldozer driving capital'
p2622
asS'2011_44'
p2623
(lp2624
S'headache want vomit'
p2625
aS'bout forget moving london come australia'
p2626
aS'apparently 100th dive done nakednot sure think'
p2627
aS'tomorrow going looonnnnggg daybut atleast diving'
p2628
aS'finally good nights sleep'
p2629
aS'early last dont know many nights slept welltylenol friend tonight'
p2630
aS'phone call boyslitre half vodka days left bucks partynearly dead state come sunday'
p2631
aS'looking forward state boys arrive home sunday bucks weekend'
p2632
aS'worst nights sleep ever'
p2633
aS'dont hype around melbourne guna give free champers working game'
p2634
aS'liveaboard trip booked flights bookednow ocean'
p2635
asS'2011_45'
p2636
(lp2637
S'landhello boat barrier reef'
p2638
aS'love travelling alone downside cant reach back suncream onburnt much'
p2639
aS'nowtoo figure airport stuff'
p2640
aS'please tell hear londons capital considered'
p2641
aS'literally cringing wetting conversation hear'
p2642
aS'need hear would make prematurely ejaculate thank much'
p2643
aS'busy dayrescue diver theory moving house worktomorrowmore theory trip manly dinner tash'
p2644
aS'would like apologise anyone faced vomit road morning'
p2645
aS'hung heat sucks'
p2646
aS'left house 11am monday morning5am woken full clothed lights face pillowmust good daynight'
p2647
asS'2011_46'
p2648
(lp2649
S'skype time thats time good'
p2650
aS'whenever maybe monday evening time'
p2651
aS'make sure aussie twang seem picked gone slightly freak family'
p2652
aS'lovely catch laughed always'
p2653
aS'people need dealing swollen stupid salt water'
p2654
aS'530am wake even struggledit would shame wrong body used'
p2655
aS'tomorrow morning going mornings wish drank coffee'
p2656
aS'back sydney'
p2657
aS'unbelievably exhausted week still feel like boat hoping rocking feeling rocks sleep'
p2658
aS'definately drunk last nightbut drunk never know still felt like boat'
p2659
aS'drinks prodive crew'
p2660
aS'back land awesome days divingi still feel like boat'
p2661
asS'2011_47'
p2662
(lp2663
S'missing breathing noseits days cold needs'
p2664
aS'okfed cold'
p2665
aS'true'
p2666
aS'stalker'
p2667
aS'hate cold'
p2668
aS'sign'
p2669
aS'movember wouldbe burgundy potential pervert sometimes hard make call'
p2670
asS'2011_40'
p2671
(lp2672
S'excited next friday'
p2673
aS'wednesday night hang overwork isnt going today'
p2674
aS'love album release dayespecially album good nice work'
p2675
asS'2011_41'
p2676
(lp2677
S'stopyum time'
p2678
aS'wins today factforgot sunday'
p2679
aS'dont care wins tomorrow long beat france final'
p2680
aS'swallow roses part ribswill stick photo redness gone downdetail amazing'
p2681
aS'ribs still feeling little sorebut worth'
p2682
aS'safely tattoo ribs painful looks stunning thoughnow sleep long weekend rugby'
p2683
aS'feet hurt much even standing anymore'
p2684
aS'would love days'
p2685
asS'2011_42'
p2686
(lp2687
S'taxi driver satnav giving directions idiot'
p2688
aS'know youve made right move spend relaxing beach night work'
p2689
aS'havent listened westlife years upset soon longer dramatic rises change'
p2690
aS'great beach'
p2691
aS'work fridayheaven'
p2692
aS'urghhhtattoo itchy healing stageso hard scratch'
p2693
aS'despite happy still ability napi regretting thisneed sleep'
p2694
asS'2011_43'
p2695
(lp2696
S'still feel like boat muthafugga'
p2697
aS'sunburnt faceattractive'
p2698
aS'best part today seeing remove boxers towel shorts onyes sexy knowing commando'
p2699
aS'water daynow lying feel like floating'
p2700
aS'started buying diving equipmentnext bulk fins suit boots'
p2701
aS'diving tomorrow'
p2702
aS'dear vodafonedo favour hire people decent speak english'
p2703
aS'made great friend goodbyesucks understatement'
p2704
aS'home flatmate getting ready work'
p2705
aS'need sleep'
p2706
asS'2010_23'
p2707
(lp2708
S'40mins hour borrow ipod thing cant stand radio makes want crash'
p2709
aS'home today'
p2710
aS'sucky mood realise certain persons dont seem care makes mood even suckier'
p2711
aS'justin bieber cool school smaller probably isnt pocket human'
p2712
aS'tempted call pest control spiders found england'
p2713
aS'still cant decide name carhmmmmmmm'
p2714
aS'brother watch australian hottie evicted'
p2715
aS'want drive hurry shitty insurance companies'
p2716
aS'keep feelings'
p2717
aS'dont care people sharks dont like taste still fucking scary'
p2718
aS'booked emma right words'
p2719
aS'excited london douchebag'
p2720
aS'ideas male names beginning name'
p2721
aS'electricity missed'
p2722
aS'seriously fucking bored fucking power joke'
p2723
aS'someone come pick lunch somewhere food electricity'
p2724
aS'great fucking power leaving house till tomorrow'
p2725
aS'sorted insurance sorted sorted insurance certificate better hurry fuck'
p2726
asS'2011_48'
p2727
(lp2728
S'wind sydney right'
p2729
aS'thats coool played lincolnwas amazing'
p2730
aS'someone please tell watching programme loads bloodblurgh'
p2731
aS'coolchat soon'
p2732
aS'actually snow time annual snow snow snooooowww jingle'
p2733
aS'hours final protime'
p2734
asS'2011_49'
p2735
(lp2736
S'going american idiot musical wooooooopppppp'
p2737
aS'lets hope todays sunny weather continues next months'
p2738
aS'best garlic smell wash hands cold water warm watersame onions'
p2739
aS'spent past hour skype sister gossiping getting excited 22nd cannot wait'
p2740
aS'tired bunny'
p2741
asS'2013_37'
p2742
(lp2743
S'dont half tease besties sweethearts rare happen'
p2744
aS'well done team winners ibc2013 innovation award'
p2745
aS'every sunday start full body massage spaday'
p2746
aS'friend started going tally many times hear words jesus journey'
p2747
aS'last tweet null void grammatical errors dontdrinkandtweetkids'
p2748
aS'realise commuting offence standing deck didnt think'
p2749
aS'preaching know going hell friends itll'
p2750
aS'looks like family member army distant future well done'
p2751
aS'spent past weeks hunting deerhunter etickets email saying dispatched blonde'
p2752
aS'time restock chanel cocomademoiselle perfume'
p2753
aS'london full charming gentlemensaid ever'
p2754
aS'holy motherfudgers intense breakingbad'
p2755
aS'anyone reveals spoiler breaking evening heisenberg'
p2756
aS'substantial lack kilts life today'
p2757
asS'2013_36'
p2758
(lp2759
S'might find scotsman redhotchillipipers'
p2760
aS'didnt memo potential future girlfriends great show redhotchillipipers'
p2761
aS'chilli pipers lack kilts'
p2762
aS'cute button every single harrystyles'
p2763
aS'speaking like year today mainly throat swollenblurgh'
p2764
aS'feels like tennis balls stuck throat stampede elephants head whilst sitting sauna blurgh'
p2765
aS'glands really swollen painful head decided wants feeling crap whereismybed'
p2766
aS'swollen glands head ache makes unhappy emma hurts'
p2767
aS'lemon ginger honey means thing think sick'
p2768
asS'2013_35'
p2769
(lp2770
S'church road playing dirty dancing obscenely loud repeat godneedssleepto bequiet'
p2771
aS'thoroughly enjoyable educational evening included eating grasshoppers'
p2772
aS'today learnt pictures ever taken done last 12months'
p2773
aS'craving glamorous loaf gbbo'
p2774
aS'woken screaming help stupid night terrors'
p2775
aS'good couple months since decent nights sleep night nurse something similar good'
p2776
aS'sent bottle sparkling apple juice house'
p2777
aS'bryancranston hysterical'
p2778
aS'keen horror movies'
p2779
aS'know youre nearly pops door'
p2780
asS'2013_34'
p2781
(lp2782
S'note self miss sessions'
p2783
aS'everyone loves observe late night police chase naughtyboys'
p2784
aS'definitely going nightmares tonight mama weneedtogetalife'
p2785
aS'might promenading'
p2786
asS'2013_33'
p2787
(lp2788
S'ikea advert come nightmare warning'
p2789
aS'perfect world season orange black start breaking ends notaperfectworld'
p2790
aS'whos cabin fever emmas cabin fever true mhmm dooo'
p2791
asS'2013_32'
p2792
(lp2793
S'shits getting holi'
p2794
aS'thats hooked defqon done'
p2795
aS'ralph'
p2796
aS'flat looking good fairy light bottles bunting wait arrival vintage boxes turn shelves'
p2797
asS'2013_31'
p2798
(lp2799
S'next door playing grimes find relaxing thats weird right'
p2800
aS'apparently national orgasm yesterday'
p2801
aS'iver glass come back soon'
p2802
aS'haim pretty damn awesome'
p2803
aS'seriously hoping second season orange black finishing season'
p2804
asS'2013_30'
p2805
(lp2806
S'quite honestly feel like backside donkeys arse'
p2807
aS'learnt song cool'
p2808
aS'must close getting hard topgun'
p2809
aS'roger thats bogey topgun'
p2810
aS'want make alarm tone theme tune wake feeling awesome topgun'
p2811
aS'goose stud take lose forever topgun'
p2812
aS'night ifeeltheneedtheneedforspeed'
p2813
aS'spending evening friends nothing would love jump plane visit everyone'
p2814
aS'cold breeze wish'
p2815
aS'wetting royal bubs head whilst making bets called royalbaby'
p2816
asS'2012_34'
p2817
(lp2818
S'paul serenading missed'
p2819
aS'good news longer drunk texter news drunk tweeterthis means everyone fails'
p2820
aS'nights rated afternoons wokeuphuggingamaxidress'
p2821
aS'cockteasewell cunt tease problems'
p2822
aS'problems cock teasewell cunt tease'
p2823
aS'tried larger piece pissed people would need vacate streets'
p2824
aS'pissed doesnt even cover right'
p2825
aS'made sensible decision save money night body repaid throwing upfanfreakintastic'
p2826
aS'course oiwhen imagine mean much older'
p2827
aS'gutted standing least chance green intimate'
p2828
aS'walks past handing leaflets steph looks away fast whispers twitter meet sister groupie'
p2829
aS'usual mantra follow emos find venue changed follow oaps evening'
p2830
aS'call bullshit sleeping left side makes positive cheerful\xe2\x80\x9d'
p2831
aS'figured best friends'
p2832
aS'tuesdays bitch'
p2833
aS'thank cupcakes thati green dayagain'
p2834
aS'went morning gives right much like like right'
p2835
aS'wrestling champion'
p2836
aS'helpful chap'
p2837
asS'2012_35'
p2838
(lp2839
S'jeez people stop staring 1940s dont know'
p2840
aS'love meet drunk would give massive slap tell shut mouth'
p2841
aS'panic ticket found safe placemy underwear drawer'
p2842
aS'dive gear back soon hands going ondiving loseralert'
p2843
aS'renaming todayit known friday fatty'
p2844
aS'blue skies coldwhat hell'
p2845
aS'cold considering digging snood even winter thatll teach proper winter since 2010'
p2846
aS'never know dentist might afraid'
p2847
aS'nights think singi cant cares'
p2848
aS'cant believe fast little lexie growingso beautiful'
p2849
aS'smart arse'
p2850
aS'know slow person youve figured instagram well months'
p2851
aS'aspects tinker shot travel explore love love little never touch ground'
p2852
aS'selfish years decade immerse every single thing possible selfish time'
p2853
aS'feet grew nighttrue story'
p2854
aS'still awake means going kinds bitchy whiny tomorrow'
p2855
aS'going folk seth lakeman'
p2856
aS'giving birth want'
p2857
aS'lucky enough witness someone stack ridiculous rollerblades tuesdayjustgotbetter'
p2858
aS'rugby comfiest piece lazy clothing'
p2859
aS'little said daddys also mummyim sure means'
p2860
asS'2012_36'
p2861
(lp2862
S'great summer sport safely missing helicopters'
p2863
aS'would love michael buble sang everyday'
p2864
aS'brilliant night family last night singing dancing drinking banter making tune next time'
p2865
aS'stations metropolitan line train aldgate words never want hear'
p2866
aS'happens beer cream tashtag'
p2867
aS'nanas friends bringing topbants evening good'
p2868
aS'buckinghamshirebound garden party shenanigans mines'
p2869
aS'pretty sure odontophobia fear going dentist\xe2\x80\x9d'
p2870
aS'chesham place want soul crushed'
p2871
aS'face planting strange mans chest tube ideal situation tubefail'
p2872
aS'stupid pigeons'
p2873
aS'shaking tail feather blues brothers morning'
p2874
aS'cocoa butter amazeballs'
p2875
aS'according itunes album artwork michael buble fact cover wicked'
p2876
aS'dont make miss nandos wont like miss nandos'
p2877
aS'underwear pissing today firstworldproblems'
p2878
aS'jeez watched last 15mins green mile emotional wreck'
p2879
aS'exciting booking flight october 28ththis happening'
p2880
aS'burn fingers clearly says cant multi task'
p2881
aS'amazing ladies gentlemen reason dont smile'
p2882
aS'today'
p2883
aS'someone please slap smile face reason moody today'
p2884
asS'2012_37'
p2885
(lp2886
S'next trick sleep'
p2887
aS'daughter bitch weasley'
p2888
aS'hang either still drunk bloody lucky'
p2889
aS'getting spechead'
p2890
aS'chicken nuggets maccas thats roll'
p2891
aS'dress already latched someones never wearing lace wowbeme'
p2892
aS'late even thinking nights gets tired days'
p2893
aS'best friends conversations impossible understand people\xe2\x80\x9d'
p2894
aS'ready halloween'
p2895
aS'little lexie'
p2896
aS'always thought face screamed danger'
p2897
aS'granny cardigan made outing today cold'
p2898
aS'good think like taylor swifts songsomeone hand well shoot shame'
p2899
aS'looking flat tonight hope likes'
p2900
aS'thats cold take back australia'
p2901
aS'people offer seats elderly pregnant women hung people need'
p2902
aS'worst part especially much wine night'
p2903
aS'arrived'
p2904
aS'wednesday feel need lump stomach back head pains time dick'
p2905
aS'reason know football season started clogging twitter feedeven interesting'
p2906
aS'technology europe star 2012 award superior technology ibc2012 imediaflex mobile ibcshow'
p2907
aS'importantly shouldnt forget tuesday shitest week terribletuesday'
p2908
aS'according phone todays weather starry'
p2909
aS'nana says ridiculed youtube shes little street cred'
p2910
aS'signed yoga class evening nothing good come'
p2911
aS'tongue taste blood bleurgh'
p2912
asS'2012_30'
p2913
(lp2914
S'heavy weekend'
p2915
aS'best back london town'
p2916
aS'drank much last night hangover happy dance'
p2917
aS'hear olympi fireworks window'
p2918
ag38
aS'drinks flowing cheering opening ceremony vibes'
p2919
aS'probably pointless tidying house yesterday considering people coming round opening ceremony drinks east london'
p2920
aS'made itnow sleep'
p2921
aS'thats american friend missed flight least made thoughnow station'
p2922
aS'certainly voice mail'
p2923
aS'someone needs tell olympic visitors acceptable especially tube'
p2924
aS'twice bumped dean times shoving sandwich mouth stillgoodlookingwheneating'
p2925
aS'fell asleep taxi last nightthat explain current state right'
p2926
aS'sailors sohohow ironic'
p2927
aS'today find mainly fidgeting wearing dressits awkward'
p2928
aS'lesson today dont lazy shave legs jeans'
p2929
aS'suns thongs show beach'
p2930
aS'starting3 weeks hell starting pack bags move work'
p2931
asS'2012_31'
p2932
(lp2933
S'tonight established people party outside house musically gifted'
p2934
aS'really slamming fridge door'
p2935
aS'sunburn serious'
p2936
aS'took 10mins watch murray gold back short shorts free sangria'
p2937
aS'free drinks ladiesthank'
p2938
aS'timespotted blake know cheer'
p2939
aS'kindly offering flatmate punch'
p2940
aS'nearly pulled laptop table wacom shoes stuck together headi blame flatmate'
p2941
aS'exactly'
p2942
aS'list emma moments'
p2943
aS'happens best checked voicemail proceeded finished listening'
p2944
aS'happily swap'
p2945
aS'life flatmate home drunk fighting phone followed hours drum bass music'
p2946
aS'even sure fact friday going sort mooda place live might'
p2947
aS'please open canoe slalom course public rubber tyres'
p2948
aS'move olympics jolly postman'
p2949
aS'jeez saying goodbye work moving side world commutingcouples'
p2950
aS'german gymnast fine'
p2951
aS'scrap thatthere east london shall using caketails replacement lash'
p2952
aS'anyone fancy trip wimbledon weekend caketailthey look delish'
p2953
aS'laughed loudamazing'
p2954
aS'wanted last nights catch home away channel5 upload really episodes want'
p2955
aS'ahahah cheap carnaby'
p2956
aS'super classy know finish work'
p2957
aS'early early dinner cheap place'
p2958
aS'either available late lunchearly dinner today'
p2959
aS'whats eiffel cant believe asked'
p2960
aS'italian water polo player added list potentials really consider making list realistic wont'
p2961
aS'giving allyou idiots sending'
p2962
aS'australian swimmers german gymnastteam looks department'
p2963
asS'2013_39'
p2964
(lp2965
S'crush farmer downton'
p2966
aS'sunday afternoon relaxing joseph gordon levitt 500daysofsummer'
p2967
aS'plucked mans hair brows nipples haha best friends'
p2968
aS'judge love country music cannot deny song named chicken fried wont rootin tootin booty shaking laugh'
p2969
aS'going country brown band yeehaw'
p2970
aS'needs youre awesome'
p2971
aS'thumb sore even sure managed whole splinter helloinfection'
p2972
aS'biggest splinter thumb nail shaking hand agony followed'
p2973
asS'2013_38'
p2974
(lp2975
S'domesticated weekend cooking baking charming shall make good wife'
p2976
aS'suffering scott eastwood fever'
p2977
aS'people tell classy isnt classy taking cans cider cinema riding snail'
p2978
aS'nearly years wonder feels doesnt'
p2979
aS'even final episode tears intense breakingbad'
p2980
asS'2010_29'
p2981
(lp2982
S'sleepwont sleep'
p2983
aS'looking forward dreams tonight wonder messed things bring'
p2984
aS'would olly hilarious'
p2985
aS'kind mousy brown floppy hair'
p2986
aS'wanna take awesome thats sorted taking lunch next week arnt nice'
p2987
aS'graduation gown ordered learnt clears height issues'
p2988
aS'applications soooo tedious ahhh well fingers crossed applications'
p2989
aS'getting seriously creepy stop watching house night'
p2990
aS'mcflys song mcfly wouldnt surprised strut boyband routines next tour'
p2991
aS'pigeon raping another pigeon outside window room'
p2992
aS'america something called rent friend explanation name'
p2993
aS'rent friend americans haha'
p2994
aS'second brought something primark happy primark purchase fits like glove'
p2995
asS'2010_25'
p2996
(lp2997
S'dear headache would appreciate would kindly fuck thanks'
p2998
aS'time'
p2999
aS'really starting take piss'
p3000
aS'cute writing list tomorrow bless'
p3001
aS'footballers football fans dont quite know brainsfact'
p3002
aS'derby'
p3003
aS'great psycho animal decided mischiefs grave find itll grave'
p3004
aS'tell tonight nights restless night'
p3005
aS'nooo john james dont'
p3006
aS'committed homicide today killed weeds never light'
p3007
aS'someone driving 10mph another people really shouldnt driving'
p3008
aS'gotta love band names song japanese exchange student'
p3009
asS'2012_38'
p3010
(lp3011
S'drink delightful morning grim though'
p3012
aS'must remember tell drunk emma pint tonic good idea'
p3013
aS'distance future must happen'
p3014
aS'first aussie refund tflanybody else want take money'
p3015
aS'trying door slamming elephant footed idiot'
p3016
aS'first position documentary well worth watch'
p3017
aS'taxed nearly 2500 refund robbed super isnt enough dicks'
p3018
aS'dare daisy quickly'
p3019
aS'princess well remember next time wish greet fowl language'
p3020
aS'course secret safe best friend awesome quote soooo haha'
p3021
aS'thats summer know crack first time months leave hibernate'
p3022
aS'mistofellies stuck head might start performing balletic jumps magic trickscoz cool loseralert'
p3023
aS'skip tuesday straight wednesday tuesdays bitch'
p3024
aS'firmly believe wake left chicken nuggets every morning'
p3025
as.