(dp0
S'2013_42'
p1
(lp2
S'feel steadiness peeta brings everything knod putting real questions'
p3
asS'2013_43'
p4
(lp5
S'rocks lake sunday afternoon talke okay someone phone'
p6
aS'local area network australia underg blogged surviving mall shooting'
p7
aS'foolish seeks happiness distance wise grows undeera existence 1938'
p8
aS'every mistake followed something right lifesteenquotezs twitter presence sonjatmorgan lynnschultz'
p9
aS'dear twitter seriously make twitlonger first picture comes google images'
p10
aS'fully enthusiastically malware business buzzfeedandrew sunday actual fuck'
p11
aS'live people know know allah bettersome girls wont ever wifey material'
p12
aS'judge never mistaken jean jacques rousseau quoteastingandstill cheating exam hall\xc2\x9d'
p13
aS'penalties refusing participate politics thatillards rock hell heels date'
p14
aS'take need leave land found arapahok randomly mind\xc3\xae\xc2\x90\xc5\xbe ltltltltlt'
p15
aS'people meant fall love meant together garry shandling jewishcomedians'
p16
aS'calls understand text understand witaxwell answer question'
p17
aS'many girls fall love wrong guys wrong guys salol yall think scooter posted'
p18
aS'quote quotes wisdom prosperity makes friends adversity tries themsalary\xc2\x9d said taxpayer salary\xc2\x9d'
p19
aS'bbcmikeembley beautiful shirt combo broken hearts rejection pain misery loss'
p20
aS'abuayyash1 know hard times better displease follow still need assistance'
p21
aS'writing quotes poetry creating imaginary gardens withe sure beats alternative'
p22
aS'adam created satan gave power authority negatives embrace positives'
p23
aS'care doesnt mean cstop wanting start wanting fuckon'
p24
aS'ilovewhenyou look really know thinkingim weary waiting youll please'
p25
aS'arent already highly recommend follow personal accly makes feel like life together'
p26
aS'asked whothepersonilike simply asking elfoodtravelaroundthemarkets'
p27
aS'officer wasnt drunk driving swerving hoesa kept harassed hook producer'
p28
asS'2013_40'
p29
(lp30
S'lets stop making civil rights analogies everything donna karan atelier gown oscars iszjgiduoe'
p31
aS'someone opinion advice make stranger smilessible reach remote without getting'
p32
aS'single doesnt mean know nothing love sometimes beorehand white house surprise coward'
p33
asS'2013_41'
p34
(lp35
S'years young sometimes cheerful hopeful laws commandments statues judgements'
p36
aS'nickyt719 dont know nothing confirmed thing scared fall love scared fall fast becaus'
p37
aS'success getting want happiness wanting getg cant change forever'
p38
aS'rollin back roads hangin window ridin hkalpa2010 different transformers common'
p39
aS'teflon accidently discovered scientist plunkett whgvpassion really sorry hear thanks'
p40
aS'\xc3\xa2\xe2\x82\xac\xc5\x93ever tried ever failed matter fail fail betr swift used look like gtgtgt 17btv7b'
p41
aS'great difference voyages rests ships peopsosabitchx3 gotta stop eating shit'
p42
aS'federal authorities announce corruption charges assemblymen malik indian idol auditions'
p43
aS'someone check blackhelicopters registered accountng head wall stopping stef penney'
p44
aS'dear bruno mars could really catch thingsim sure madami tinamaan baklang kabit'
p45
aS'make honest sure lebe happy everything good becau'
p46
aS'love ready lonely teensdothissg blame positivethinking artofliving quotes'
p47
aS'take step back told bulletproof knowareer oooh adambaldwin'
p48
aS'\xc3\xa2\xe2\x82\xac\xc5\x93courage takes stand speak courage also whbusydar friend remain friend'
p49
aS'discreetdiam0nd haha naughty naughty soundbites 20112012 13hs6fg'
p50
aS'want know thinks money look peopleing given another live'
p51
asS'2013_46'
p52
(lp53
S'eyes speak meaning persons words ever spoken mebillmentaro back home anywhere'
p54
aS'envy people drink least something blame everythinletmesexyouup better know'
p55
aS'holding tears holding breath moment feelhow view dogs beagle german shepherd poodle'
p56
aS'master possessions others happier never caught looking'
p57
aS'suggestions bastille flyleaf snow patrol avrilmaybe doesnt want called maybe'
p58
aS'like dragons girl real decision measured fact youve'
p59
aS'roots goodness soil appreciation goodnesszen proverb dress keeping tags satc'
p60
aS'cops show everyone turns olympic athletessh something much better mind joycemeyer'
p61
asS'2013_47'
p62
(lp63
S'woman deserves better cheats cheated hertom riddle said harry similar'
p64
aS'success want want want wacting right kind tinyccgettheman'
p65
aS'look spot chunked coming right back'
p66
aS'changed username irelatableteen ltgo follow accountead cant remember rest song'
p67
asS'2013_44'
p68
(lp69
S'never give really want person bigeres application called respect'
p70
aS'life short makes happy part give haley james'
p71
aS'carmen4rihanna hows things spoke ages xits cold outside wish hotter neversatisfied'
p72
aS'next time asks papers allowed talk quiet doesnt mean'
p73
aS'yesterday gone today okay tomorrow betterzmodo wired thenextweb macrumors'
p74
aS'learn natural herbs plants used medically fthe expo search guidebooks store'
p75
aS'right someone else appreciates person yopara kayong tanga tanga tanga tanga'
p76
aS'best could possibly theres nothing betterniallofficial feel back'
p77
aS'decide time thats given usghbors wifi changed password every month'
p78
aS'help friend need easy give time alwcancers horny alot time'
p79
aS'seethecornishfairy thank much'
p80
aS'based name internet author life unfortunately'
p81
aS'good girl head clouds stop looking muscly keeley hawes'
p82
aS'ruthless least important stuff habitsboring ruin relationship switch'
p83
aS'lead fool wisdom cant make think quoteoh certainly enjoys occasional sonnet sara'
p84
aS'policeman serg whats clown women theyre busy looking ways love'
p85
aS'unspeakable acts talking rape dont presidents fucking crazy things'
p86
aS'hate someone talentshow covers rihanna song ruin know feel unsure scared zbwjux'
p87
aS'mini heart attack teacher calls name omgthatsateencancer gets extremely pissed type'
p88
aS'friend crush dont even know itlso sweetest romantic ones'
p89
aS'power positive thinking forever push negative enemy seals bibletrivia therevelation 928wi'
p90
aS'thinking quote moleskine thinks start actually live'
p91
asS'2013_45'
p92
(lp93
S'retweets favs great round last hours earth tomorrow pictwittercomloabx7eu'
p94
aS'benmuirhead steelseriesuk answer gentleman please'
p95
aS'thinking something load faster dont look'
p96
aS'joining svenvaeth cocoon today marceldettmann mathewjonson ilarioalicante release animal'
p97
aS'whenever bruised apple grocery store give soft whisper'
p98
aS'peoplewhomademy2012 parents never realised much give year lucky'
p99
asS'2013_37'
p100
(lp101
S'remember stumble every thats comfort hand hand superbtweets'
p102
aS'instead defending point dont actually listen lifesteenquotez'
p103
aS'matter matter absolutely positively power change'
p104
aS'2mile walk whetstone high next stop cafe walking conditions fabwarmish suns bitlovely jubbly'
p105
aS'amazed quickly forget'
p106
aS'people twatch havent tweeting much lately theyre disappointing'
p107
aS'bitches think cute sayin thang booski nshit roasting call'
p108
aS'attention keep around youyour closes friend'
p109
aS'best party fails time number absolutely hilarious trust laugh'
p110
aS'pakistan defences protecting report aimed india never expected jazeera swoop west steal report'
p111
aS'treat like joke leave like funny'
p112
aS'seen jennifer lawrence bikini'
p113
aS'mrspaddyfoote wondered would happened used meticulous planning good honest work crime'
p114
aS'dear icebergs sorry hear global warming karma bitch sincerely titanic'
p115
asS'2013_39'
p116
(lp117
S'history happening egypt news channel showing thme want lose weight want skinny legs'
p118
aS'republican party wrong side history ever silways weve never spoken wassup'
p119
aS'andryluthfi everything happy emething really seem think'
p120
aS'honestly never seen someone fall banana ithi dont prettiest face look'
p121
aS'sucks find nice truly cares bucs break fernandez walker sing'
p122
aS'best help gods ughts create realityunknown xzogp'
p123
aS'back didnt internet well thats yeah threw dictionary'
p124
aS'smart people know strengths happy people ones privacy dont spoil making public'
p125
aS'passion pants aint afraid show itdo really think going wants team lose'
p126
aS'hate wear socks step something floor teensdothissrom norman vincent peale'
p127
aS'concentrated thinking visualization faith taking action make dream apps draw photos initial'
p128
aS'takes takes bigger laugh manthought someone cool isgd ihqthg'
p129
aS'rather lose argument lose argument give space help'
p130
aS'actively seek avoid things cannot control hdwmarvellously outrageous downtonabbey crazy dances'
p131
aS'still feet ground wear better shoes oprah winfrey morning piers piersmorgan follow'
p132
aS'customer always right fuck sometimes customer assholeime luke bryan done'
p133
aS'ignores like nothing fall himive realized matter hard'
p134
asS'2013_38'
p135
(lp136
S'look window town stinking diseased abandoned godforsaken'
p137
aS'days wiser used frequently take advice winston churchill'
p138
aS'girls bridgend hours traffic lights mint'
p139
aS'living mantra repeat great things happen live attitude gratitude'
p140
aS'incomprehensible thing world comprehensible albert einstein'
p141
aS'fact pressbook late 1960s rerelease gone wind 1939 listed butterfly mcqueens name butterfield mcqueen'
p142
aS'enjoy little things look back realise things'
p143
aS'province knowledge speak privilege wisdom listen\xc2\x94 oliver wendell holmes'
p144
aS'speak liberating palestine cant even liberate soul satan perform fajr salah naajo'
p145
as.