(dp0
S'2013_42'
p1
(lp2
S'ride front scene lmao thats sams seat'
p3
aS'never changed craicastiles'
p4
aS'craicastiles'
p5
aS''
p6
aS'thats even season'
p7
aS'episode season people cartoonish ways'
p8
aS'watching cartoons best thing ever'
p9
aS'stop wonderful'
p10
aS'doesnt like'
p11
aS'wincest'
p12
aS'first nigga'
p13
aS'want gonna watch'
p14
aS'petition 5sos permanently tour direction become close'
p15
aS'well ruby wont spoil find urself'
p16
aS'spoil'
p17
aS'think want watch season want talk'
p18
aS'season favorite ruby devil rising'
p19
ag6
aS'emotional castiel human mant quejzmtion bnnbb'
p20
aS'seen exist \xf0\x9f\x98\xa8\xf0\x9f\x98\xa8\xe2\x80\x9dlmao yeah'
p21
aS'didnt know cared good'
p22
aS'prays'
p23
ag6
aS'excellent thank'
p24
aS'doin lmao'
p25
aS'lmao anthony'
p26
aS'nigga'
p27
aS'someone tells really happy relationship dont hang onto every word simultaneously wanting'
p28
aS'mario lmao cutie'
p29
aS'want look like'
p30
aS'probably dont even remember unfollowing sorry'
p31
aS'lmao remember back attacked'
p32
aS'actually never page suck'
p33
aS'change icon spoon confuse people lmao'
p34
aS'kidding dont want drama'
p35
aS'summons anthony'
p36
aS'thats everyone hates like dont block half twitter blocked anyways'
p37
aS'dont like public like gonna stalk'
p38
aS'josh hates hate thinks hate pages pathwtic make'
p39
aS'popular like page made josh hate page like know whole world'
p40
aS'hate pages made time'
p41
aS'person dont like dont like people lmao'
p42
aS'pretty sure twitter blocked lmao'
p43
aS'think spoon'
p44
aS'talking okay'
p45
aS'everyone boyfriendgirlfriend\xe2\x80\x9dlmao'
p46
aS'smiley faces nose signature face'
p47
aS'everyones using saying frick want make face word lmao'
p48
aS'made friend proud'
p49
aS'make friends'
p50
aS'know feel like first played ezekiel episode likely whats deal lmao'
p51
aS'keep rarely cute things gonna friends welcome'
p52
aS'take damn pick line nigga'
p53
aS'fallen angel rude'
p54
aS'life without would like broken pencil pointless'
p55
aS'lost heaven long'
p56
ag6
aS'religions answer prayers'
p57
aS'thought smthe'
p58
aS'already sent pick line good'
p59
aS'call fire'
p60
aS'late laughs'
p61
aS'1800slapdatass'
p62
aS'cheesy pickup line bored'
p63
aS'lost number'
p64
aS'whats king without queen'
p65
aS'dont know words'
p66
aS'done'
p67
aS'snapchat'
p68
aS'snapchat'
p69
aS'seriously'
p70
aS'spelt name gasp'
p71
aS'habla ingl\xc3\xa9s'
p72
aS'heck yhat mean'
p73
aS'call someone faggot means like lmao'
p74
aS'wait rearrange words satan santa santa satan'
p75
aS'santa'
p76
aS'nigga'
p77
aS'serioualy'
p78
aS'fuck'
p79
aS'would away'
p80
ag6
aS'perfect'
p81
aS'probably next virgin saving'
p82
aS'lmao adore already'
p83
aS'mother nigga virgin'
p84
aS'spoons nice'
p85
aS'justin bieber'
p86
aS'want visit canada'
p87
aS'canadians cool baby canada'
p88
aS'mentioned shit'
p89
aS'ones talking'
p90
aS'sigh ezekiel o\xe2\x80\x9dyou dont like either'
p91
aS'hello bella interesting'
p92
aS'lmao bored'
p93
ag6
aS'likes damn photo look like butt raped\xe2\x80\x9di like 2030 lmao'
p94
aS'know justins lmao'
p95
aS'stupid\xe2\x80\x9drude nigga trying nice'
p96
aS'aont nicely'
p97
aS'waits'
p98
aS'stop saying spoopy aint even cute anyore lmao'
p99
aS'first thing tomorrow downloading holdtight tomorrow morning jiggy'
p100
aS'dont jiggy spoosn'
p101
aS'wait bella drawing look like draw nigga'
p102
aS'dont always leave hours anyways'
p103
aS'people blocked want favorite tweet lmao hope suffer'
p104
aS'bustyaslans bella really love youre super cute cool need become friends'
p105
aS'pretty please'
p106
aS'twitter bustyaslans lmao'
p107
aS'lmao romo'
p108
aS'like spoons'
p109
aS'actually probably divergent cant tamed'
p110
aS'lmao would abnegation though aint puttin everybody hate aint gettin nothin'
p111
ag6
aS'supposed mean'
p112
aS'took faction quiz divergent book divergent lmao'
p113
aS'lmao stab spoons'
p114
ag6
aS'really spoon'
p115
aS'followed tired lmao'
p116
aS'daughter poseidon apparently hardly breathe swimming lmao'
p117
aS'hope feeling okay'
p118
aS'ever realise youre attractive youre smart dont friends youre\xe2\x80\xa6'
p119
aS'lookin'
p120
aS'upset dont upset'
p121
aS'love'
p122
aS'mean dont like'
p123
aS'love'
p124
aS'friendship'
p125
aS'thats rude'
p126
aS'thank actually reading twist shout courage finish'
p127
aS'slower'
p128
aS'lightning speed lmao'
p129
aS'love'
p130
aS'thank karls ilysm good party hard hard'
p131
aS'search'
p132
aS'look good ones'
p133
aS'going spend last battery indirects yeah motherfuckers dont following'
p134
aS'recommend wincest fanfics'
p135
aS'cock'
p136
aS'like name good'
p137
aS'satan call bella'
p138
aS'hell'
p139
aS'someone talk'
p140
aS'imagine ultimate fear lucifer dressed clown killing dean tuesday'
p141
aS'needed thank'
p142
aS'youre reading hope fall love someone makes question ever thought would bette\xe2\x80\xa6'
p143
aS'take showers ugly wont wipe lmao'
p144
aS'funny fine crying space like minutes'
p145
aS'jordan josh make want lmao'
p146
aS'hate away'
p147
aS'youll scream cute lmao love'
p148
aS'gross'
p149
aS'please'
p150
aS'yall take hashtag jealous'
p151
aS'looks odrable frick'
p152
aS'halee called satan lmao'
p153
aS'drugs theres nothing good lmao'
p154
aS'asked would want'
p155
aS'nigga like minutes'
p156
aS'would'
p157
aS'single years cant even keep damn friendship suck lmao'
p158
ag6
aS'heck'
p159
aS'girlfriend'
p160
aS'need boyfriend lmao'
p161
ag6
aS'youll thank later'
p162
ag6
ag6
aS'added'
p163
aS'excuses nigga'
p164
aS'gonna date josh lives england'
p165
aS'dont problem'
p166
aS'lmao noahs favorite person ever'
p167
aS'cutie hate'
p168
aS'jorsh looks cooler'
p169
ag6
aS'nigga jordan whats taking damn long'
p170
aS'already'
p171
aS'yeah cool stop'
p172
aS'yeah cool though hope well miss weird self'
p173
aS'highway hell came'
p174
ag6
aS'probably wont like month later'
p175
aS'lmao homo'
p176
aS'lmao look cute work cant'
p177
aS'welcome'
p178
aS'even happened victorious never finale lmao'
p179
aS'luci sent letter post'
p180
aS'whats name'
p181
aS'thats awkward'
p182
aS'hashtag lame'
p183
aS'uses facebook clare'
p184
ag6
aS'dont reslly like thank'
p185
aS'ugly picture pretty ezekiel sams body'
p186
ag6
aS'texas strip club close'
p187
aS'know phone whole time'
p188
aS'cares justin went strip club live life without made feel like something'
p189
aS'hold tight full version wait minute yeye'
p190
aS'told'
p191
aS'hopefully haha anyways sending love'
p192
aS'feel guilty everything wanted know okay glad hell understand saying'
p193
aS'glad okay thank whoever stopped stupid selfish thing regret'
p194
aS'needs hell never forgive understand want know sorry everything'
p195
aS'hope josh alright send prayers tell everything okay comfort'
p196
ag6
aS'georgia songs week'
p197
aS'romis'
p198
ag6
aS'whenever youre presence feels like missing blessings'
p199
aS'good morning sunshines'
p200
aS'supernatural'
p201
aS'selfie lmao'
p202
aS'already know mika getting ahead game'
p203
aS'know meant mika'
p204
aS'episode'
p205
aS'tough'
p206
aS'justin justout'
p207
aS'justin could really thank'
p208
aS'love much'
p209
aS'hashtag rude'
p210
aS'mean talk someone talk'
p211
aS'someone talked'
p212
ag6
aS'pretty people frustrate much\xe2\x80\x9dsame'
p213
aS'probably trouble lmao rebel'
p214
aS'love want know youre not\xe2\x80\x9dthank'
p215
aS'hate'
p216
ag6
aS'justin hasnt kiked back hashtag rude'
p217
aS'justin high'
p218
aS'want good enough'
p219
aS'lmao time'
p220
aS'need said liked always liked sweetheart theres nothing like'
p221
aS'someone quote unblock wish happy birthday'
p222
aS'ship josh told guys would cute jordan'
p223
aS'lel\xe2\x80\x9dit means'
p224
aS'gonna hour'
p225
aS'nice'
p226
aS'lmao jensens'
p227
aS'whisper something spanish'
p228
aS'inalready baby'
p229
aS'bella theyre idiots\xe2\x80\x9dlol idiot'
p230
ag6
aS'selfish dont want people ever leave'
p231
aS'always nice people clearly friends followers'
p232
aS'said nice week wouldnt hate well nice everyone whos fucking nice'
p233
aS'ever start crying youre pissed'
p234
aS'clearly nice everyone trying help listen everyone'
p235
aS'keys words today meaning havent started drama week today'
p236
aS'free send whatever like'
p237
aS'well never friends face fact cant anymore always ends terribly'
p238
aS'said continue hate dont care think dont like care know'
p239
aS'nice awhile even caused drama past week today dont think'
p240
aS'didnt times trying change'
p241
aS'healthy hold grudges'
p242
aS'dont fact changing blind live past always hold things'
p243
aS'k\xe2\x80\x9dwill happy died'
p244
aS'continue hate though dont care anymore'
p245
aS'talk like lmao'
p246
aS'people dont change overnight changing trying change always loved helping people feels good'
p247
aS'clare quoting shes timeline gosh\xe2\x80\x9dlol asked'
p248
aS'want take away pain feel anything anymore'
p249
aS'understand never'
p250
aS'loads nice things many people mean sweet person everyone dont'
p251
aS'asked hate seriously hate want dont care anymore'
p252
aS'lmao shoutout hate page'
p253
aS'making hate page simply pathetic doesnt make better'
p254
aS'exactly please stop fucking reminding past please anthony'
p255
aS'bella hate page page josh saying'
p256
aS'whats reply thanks guess'
p257
aS'like twice rude unfollowing blocking dont blame'
p258
aS'alright seriously want idgi youre still talking clearly hate'
p259
aS'never alone'
p260
aS'want anthony'
p261
aS'quote first'
p262
aS'yeah thanks guess'
p263
aS'quote tweets josh please would mean much'
p264
aS'asked'
p265
aS'dick'
p266
aS'yeah leave alone'
p267
aS'fuck'
p268
aS'someone quote things smilehoechlin would much'
p269
aS'whag'
p270
aS'understand want know fucking sorry miss'
p271
aS'doesnt need sorry glad fine give prayers'
p272
aS'even though josh blocked know fucking sorry everything'
p273
aS'happy know josh isnt dead jesus christ made mood lighten'
p274
aS'cares'
p275
aS'dont care changed made better friends anyways'
p276
aS'mentions'
p277
aS'look like care'
p278
aS'dont forgive sorry dont'
p279
aS'many times going remind last fucking time'
p280
aS'love you\xe2\x80\x9di love'
p281
aS'realize nice people nice right'
p282
aS'always negative dont need explain'
p283
aS'thats great dont even remember messaging idrc'
p284
aS'youre making seem like murder people'
p285
aS'said million times want fuckin change tryin nice fuck'
p286
aS'everyone hates people made quite clear'
p287
aS'could care less unfollow sorry upset youre'
p288
aS'know quit reminding pointing flaws'
p289
aS'everyone little group'
p290
aS'makes happy'
p291
aS'hate love bitch lmao cute'
p292
aS'lmao havent bothered anyone fuck'
p293
aS'lets many times indirected today'
p294
aS'bella pisses many levels dont even started'
p295
aS'hate'
p296
aS'done fucking reminding'
p297
aS'could block instead feed make worse'
p298
aS'said sorry miya deserved nothing blocked anthony really doesnt deserve shit'
p299
aS'people youve done shitty things others turn around gang'
p300
aS'abuse want dont blame commit suicide well'
p301
aS'think karma long time'
p302
aS'didnt made truce'
p303
aS'quit reminding done makes want commit well away'
p304
aS'made truce unblocked'
p305
aS'thank means'
p306
aS'thing said hate done million fucking times already'
p307
aS'block saying\xe2\x80\x9dfucking thank'
p308
aS'woah suicidal feelings dont think enough'
p309
aS'well said felt guilty leave alone youre abusing'
p310
aS'mean thats fucking whenever theres drama youre always somewhat involved wrong'
p311
aS'yeah used shit lmao'
p312
aS'mentioned though another account around blocking technically youre better'
p313
aS'none involves know wait drama start love attacking'
p314
aS'kellie seriously fuck gives shit'
p315
aS'fucking change people like continue attack'
p316
aS'call insane want dont care anthony thought truce would stop bothering trying'
p317
aS'away done nothing friends dont back'
p318
aS'didnt absolute shit thats wrong'
p319
aS'alone'
p320
aS'feel guilt every fucking anthony dream came back wasnt real leave'
p321
aS'literally piece shit need fucking stop\xe2\x80\x9dim piece shit lmao okay'
p322
aS'doesnt involve honesty'
p323
aS'talked lmao'
p324
aS'excuse mentioning trying start wanted answer shivani never'
p325
aS'still cares lmao'
p326
aS'lmao mentions mentions'
p327
aS'followers'
p328
aS'nigga'
p329
aS'really means thank much'
p330
aS'youre welcome even never talk please forever know youre'
p331
aS'always much shit dude sorry\xe2\x80\x9dim used'
p332
aS'cares lmao'
p333
aS'lmao love thak'
p334
aS'thank means'
p335
aS'really like account think youre amazing person'
p336
aS'already know justin'
p337
ag6
aS'lmao cute'
p338
aS'doesnt mean reply damn'
p339
aS'thats fuckin kinky\xe2\x80\x9dur fiesty stuff'
p340
aS'always talk'
p341
aS'continuing reply replied first place'
p342
aS'fist face collide wanna punch'
p343
aS'want punch something'
p344
aS'love course talk well'
p345
aS'many times dont fucking remind know done jesus christ'
p346
aS'never made deal call everyone breaks mutual aint nothin special thanks'
p347
aS'plus ages already learned mistakes would kindly remind thanks'
p348
aS'lmao know dont fucking remind cant make anyone anything dont remind mistakes'
p349
aS'violent'
p350
aS'havent done shit people'
p351
aS'woah need violence'
p352
aS'lmao hate unfollowers'
p353
aS'lmao thank breaking mutual'
p354
aS'dude dont even know'
p355
aS'someone take screenshot account'
p356
aS'sent snapchat added all\xe2\x80\x9dno havent lmao'
p357
ag6
aS'lmao work'
p358
aS'lmao deactivated'
p359
aS'finished divergent'
p360
aS'finally noah make'
p361
ag6
aS'picture sent saved account'
p362
aS'lmao saved'
p363
aS'fanboy1 follow'
p364
aS'care sudden lmao never talk'
p365
ag6
aS'deactivating hate'
p366
ag6
aS'dont attention used lmao sorry suck'
p367
aS'josh obviously'
p368
aS'hate ignored fine thanks anyways'
p369
aS'pretty'
p370
aS'sorry mood'
p371
aS'ignore okay'
p372
aS'thanks'
p373
aS'people liked'
p374
ag6
aS'tell miss dont ignore lmao mean'
p375
aS'mean follower count'
p376
aS'miss'
p377
ag6
aS'dream josh came back'
p378
aS'remember liked everyone'
p379
ag6
aS'wrong'
p380
aS'ones follow actually chill fuck laugh theyre like wanna join nigga'
p381
aS'free follows goals'
p382
aS'imagine icon slowly pulling kiss backing away shyly'
p383
aS'someone love like tate loves violet'
p384
aS'crowley chilling trunk playing evil something begining hmmm\xe2\x80\xa6 gues\xe2\x80\xa6'
p385
aS'mean drunk'
p386
aS'imagine srumk tweeting laughing'
p387
aS'shes floating'
p388
aS'hate idiots dont even give justin bieber chance actually sing'
p389
aS'want jared drunk tweet'
p390
aS'easily entertained love foot toddlers'
p391
aS'puppet'
p392
aS'indirect must following'
p393
aS'misha take picture well hair really fucked'
p394
aS'jared doesnt shave really looks like belongs duck dynasty'
p395
aS'misha bieber'
p396
aS'realized misha wearing justin shirt mishhahahshhd'
p397
aS'fuck sleep said misha reading childrens book'
p398
aS'jared padalecki monster'
p399
aS'gonna wear wormstache'
p400
aS'remember jensen said misha sucked dick'
p401
aS'gonna watch misha blooper'
p402
aS'smashes table want skinny legs'
p403
aS'blessed voice'
p404
aS'brought guitar'
p405
aS'gonna sing weigjt'
p406
aS'someone yelled sing tiger laughed'
p407
aS'thought didnt allow porn youtube'
p408
aS'blessed jensen'
p409
aS'jensen would passed really famous country artist picked acting love'
p410
aS'dont touch sounds perfect song pakying guitar frick'
p411
aS'really early fuys'
p412
aS'pardon excuse coming make'
p413
aS'come strip club like justin'
p414
aS'wanna strip club'
p415
aS'justin strip club mean funniest shit ever'
p416
aS'justin strip club much'
p417
aS'yall pissed arent strippers justin looking oops'
p418
aS'like real laughing dumb'
p419
aS'justin bieber oops clothes gone'
p420
aS'justin went strip club'
p421
aS'know'
p422
aS'tired'
p423
aS'hate people break mutuals'
p424
aS'really'
p425
ag6
aS'holy woah followinf people'
p426
ag6
aS'hell gain followers funny guys'
p427
aS'wanker'
p428
aS'always'
p429
aS'annoying follow ignore tweets know tweet time'
p430
aS'know tweets stop ignoring'
p431
aS'would make good couple think cute thank'
p432
aS'suck trying friends guys lmao either ugly weird'
p433
aS'heck'
p434
aS'germy'
p435
ag6
aS'dont send snapchats'
p436
aS'send snapchats bored'
p437
aS'night time'
p438
aS'good sleep lovely'
p439
aS'give snapchats'
p440
aS'dont tell whole world'
p441
aS'take back mean hook'
p442
aS'want take butter butter toast bread bread buttered legs'
p443
aS'love'
p444
aS'mentions'
p445
aS'born america white mexican excuse'
p446
aS'digas hacer'
p447
aS'dices otra swear slap'
p448
aS'jeremy notifications nigga'
p449
aS'half mexican dumbass best friend black'
p450
aS'stop'
p451
aS'prayforaustin even happened'
p452
aS'wasnt supposed black emojis promised black people emojis'
p453
aS'emojis stop'
p454
aS'fucking heroes reply know wont today probably even year'
p455
aS'lesbian'
p456
aS'dont even watch porn'
p457
ag6
ag6
aS'great interview shoot today puerto rico tomorrow holdtight sunday midnight waitforaminute tuesday work'
p458
aS'darling'
p459
aS'blowjob porn'
p460
aS'guys avoid costs\xe2\x80\x9dsame'
p461
aS'like wrap legs around'
p462
aS'kidding'
p463
aS'quote tweet'
p464
aS'love justin'
p465
aS'ilyt sweetheart'
p466
aS'starts convulsing sobs shakes knees buckle collapses shakes fists shouts heavens dammit'
p467
aS'unfollowing'
p468
aS'okay'
p469
aS'dirty'
p470
aS'john mayer radio heart'
p471
aS'bout take shower'
p472
aS'like john mayer like heart break songs\xe2\x80\x9di'
p473
aS'likes john mayer'
p474
aS'well'
p475
aS'watch thor wont regret'
p476
ag6
aS'thank know'
p477
aS'john mayer'
p478
ag6
aS'annoy'
p479
aS'weird oddly cute\xe2\x80\x9dthank'
p480
aS'funfact showers john mayers music'
p481
aS'shower time'
p482
aS'know feel'
p483
aS'wanna know puke happened'
p484
ag6
aS'peenis stupid ship name ship'
p485
aS'luke lame'
p486
ag6
aS'good'
p487
aS'eating sopapilla cheese cake'
p488
aS'clare miss talking uall time'
p489
aS'really'
p490
aS'clare stalking love sarah'
p491
aS'wanna'
p492
aS'love love'
p493
aS'emojis'
p494
aS'snapped ians neck laughs'
p495
aS'pumpkin'
p496
ag6
aS'hunger games'
p497
aS'ilym'
p498
ag6
aS'person alright'
p499
aS'even likes account mean'
p500
ag6
aS'whats funny'
p501
aS'wats funny'
p502
aS'dont anything related teen wolf doesnt mean dont love show'
p503
aS'dont word wanker wank either masturbate masturbater jacks'
p504
aS'person jacks'
p505
ag6
aS'american white girl'
p506
aS'stop unfollowing icon isnt supernatural related nigga damn'
p507
aS'means'
p508
aS'wanker'
p509
aS'cares nathan'
p510
aS'gave right'
p511
aS'british wanker time\xe2\x80\x9dis true'
p512
aS'katniss everdeen girl fire'
p513
aS'lying'
p514
aS'miss'
p515
aS'boys plaid crush wore plaid cute looked country'
p516
aS'ones twitter crush thats cool'
p517
ag6
aS'dont tell dont want'
p518
aS'omfg person look like fetus justin holy'
p519
aS'isnt funny'
p520
aS'want spank chubby ass\xe2\x80\x9di spank joshs'
p521
aS'horny shit'
p522
aS'screaming name painfully'
p523
aS'dont'
p524
aS'implying want squeeze'
p525
aS'trying want watch hunger games'
p526
aS'butt painfully attractive round want squeeze'
p527
aS'okay dirty little secret wink'
p528
aS'girlfriend excuse'
p529
aS'need depressing'
p530
ag6
aS'boner feel like'
p531
aS'matt tell love'
p532
aS'ever tweet'
p533
aS'ever tweet'
p534
ag6
aS'remember used like every friday'
p535
aS'thought something'
p536
aS'askrick'
p537
ag6
aS'love'
p538
aS'love'
p539
aS'sneezed bless you\xe2\x80\x9dno'
p540
aS'really'
p541
aS'twitter crushes dont tell'
p542
aS'twitter crush'
p543
aS'really good listening peoples problems whenever need someone talk cares\xe2\x80\x9dnigga feel'
p544
aS'icon still really frickin'
p545
aS'imagine icon taking selfies'
p546
aS'lost phone reall'
p547
aS'heart broke'
p548
aS'justins voice spot penis could ever reach true'
p549
aS'ghostbusters netflix hold phone'
p550
aS'josh'
p551
ag6
ag6
aS'mean'
p552
aS'hashtag rude'
p553
aS'object'
p554
aS'public hear someone justin bieber'
p555
ag6
aS'bustyasians follow thats thing right\xe2\x80\x9d course'
p556
aS'dont even remind'
p557
aS'actually started understand damon stefan stop childish hating damon'
p558
aS'bring oxygen tanks dozens panties holdtight coming'
p559
aS'hold tight really sexual thats song'
p560
aS'obamacare theyre talking reopening idrc'
p561
aS'beliebers freaking hold tight sexual justin acting like'
p562
aS'sure'
p563
aS'clare'
p564
aS'hell people sick'
p565
aS'eyebrow worshipper'
p566
aS'like jail idgi'
p567
aS'whats'
p568
aS'teenage girls everywhere incredible haha'
p569
aS'songs different journals'
p570
aS'allthatmatters musicmondays'
p571
aS'realized away'
p572
aS'spam'
p573
aS'wanna twerk mouth like you\xe2\x80\x99re jumping trampoline'
p574
aS'1666 followers change follow dont look like satanist'
p575
aS'1666 followers change follow dont look like satanist'
p576
aS'1666 followers change follow dont look like satanist'
p577
aS'heck'
p578
aS'1666 followers change follow dont look like satanist'
p579
aS'1666 followers change follow dont look like satanist'
p580
aS'1666 followers change follow dont look like satanist'
p581
aS'1666 followers change follow dont look like satanist'
p582
aS'1666 followers change follow dont look like satanist'
p583
aS'1666 followers change follow dont look like satanist'
p584
aS'1666 followers change follow dont look like satanist'
p585
aS'1666 followers change follow dont look like satanist'
p586
aS'1666 followers change follow dont look like satanist'
p587
aS'1666 followers change follow dont look like satanist'
p588
aS'1666 followers change follow dont look like satanist'
p589
aS'1666 followers change follow dont look like satanist'
p590
aS'1666 followers change follow dont look like satanist'
p591
aS'1666 followers change follow dont look like satanist'
p592
aS'1666 followers change follow dont look like satanist'
p593
aS'1666 followers change follow dont look like satanist'
p594
aS'1666 followers change follow dont look like satanist'
p595
aS'follow want follow please\xe2\x80\x9d follow'
p596
aS'wants pick line'
p597
aS'buddh'
p598
aS'dylan love'
p599
aS'fire youre burnin baby'
p600
aS'dont know cutie'
p601
aS'makes'
p602
aS'bustyaslans'
p603
aS'bloody stupid dont tumblr'
p604
aS'send tumblr urls guess'
p605
aS'start using tumblr'
p606
aS'days till christmas'
p607
aS'america'
p608
aS'tumblr account years'
p609
aS'going believe tour days giving justin paper twitter usernames want'
p610
aS'blew proportion'
p611
aS'busty asian beauties'
p612
aS'america'
p613
aS'ilyt cutie'
p614
aS'whats gcse'
p615
aS'please'
p616
aS'clare shit'
p617
aS'jared padalickme\xe2\x80\x9dlick good'
p618
aS'like fluent french'
p619
aS'yall talkin bout banks\xe2\x80\x9dbout bank'
p620
aS'come play nice'
p621
aS'whats going mexico already beautiful'
p622
aS'speak french'
p623
aS'ignore itll blow promise sorry step reason wanted tell'
p624
aS'stalking hope feeling okay isnt something worked stop talking'
p625
ag6
aS'free follows holla'
p626
aS'people take life seriously'
p627
aS'want help people'
p628
aS'leia dont blame making feel like shit wont anywhere'
p629
aS'fork followed'
p630
aS'thing theyre blowing proportion making bigger deal'
p631
aS'dont like mean'
p632
aS'everyone boyfriend like'
p633
aS'dont think thats kind rude'
p634
aS'follows free follow would nice trade'
p635
aS'indirect free follows free happy please retweet'
p636
aS'know hard chose heartbreaker fave matters'
p637
aS'stop'
p638
aS'stop talking together'
p639
aS'free follows trade'
p640
aS'beliebers please read justin please smile lt333 love youuuuuuuuu youre matters'
p641
aS'bored spam come'
p642
aS'theaters counts'
p643
aS'stalking people'
p644
aS'bored come'
p645
aS'gotta find next time texas'
p646
aS'really tight money best'
p647
ag6
aS'sadly dont money'
p648
aS'gonna play lego harry potter'
p649
ag6
aS'someone send nothing play'
p650
aS'spelt amazing wrong'
p651
aS'true cant live past either'
p652
aS'people praise little group shes annoying'
p653
aS'logically thinking misha famous zachary quinto really doesnt like'
p654
aS'heart hurts'
p655
aS'well understand growing still trying find exactly adult'
p656
aS'still perfect'
p657
aS'ready christmas'
p658
aS'remember happy lucky time'
p659
aS'currently wants matters'
p660
aS'buddy tone'
p661
aS'genuinely really proud justin music good'
p662
aS'indirect free hold tight monday'
p663
aS'hate'
p664
aS'tease justin'
p665
aS'whats king without queen'
p666
ag6
aS'divya'
p667
aS'question'
p668
aS'know says'
p669
aS'want heartbreaker playing back'
p670
aS'wait looking'
p671
aS'call'
p672
aS'think followed retweeted coincidence'
p673
ag6
aS'awful'
p674
aS'jeremy season heck'
p675
aS'biggest douchefuck ever\xe2\x80\x9d douchefuck jeremy'
p676
aS'followers close guys'
p677
aS'food without actually getting'
p678
aS'followers please'
p679
aS'unfollowed laughing'
p680
aS'dont thank like'
p681
aS'tired sick'
p682
aS'gonna miss happy time always smiled selena'
p683
aS'love much baby dont want fake happiness video broke heart wish'
p684
aS'doin'
p685
aS'hell'
p686
aS'always keep smile baby deserve happy'
p687
aS'love much'
p688
aS'justin gives world everyone matter deserve happy'
p689
aS'emotional cant'
p690
aS'thank thank'
p691
aS'goodbye world'
p692
aS'reply justins tweets'
p693
aS'faught'
p694
aS'multifandom account dont unfollow icon justin bieber livetweeting nigga'
p695
aS'wouldnt eiher'
p696
aS'dylan brien followed'
p697
aS'dylan followed account followers'
p698
aS'tweeted asleep haha hate'
p699
aS'love especially nialls name'
p700
aS'bonnies original vampire supernatural'
p701
aS'damon willing give katherine stefan tell doesnt care bitches'
p702
aS'cant laughs'
p703
aS'jeremy fighting'
p704
aS'birthday today nigga'
p705
aS'silas true form stefan'
p706
aS'silas really'
p707
aS'love'
p708
aS'messed hair shes still alright'
p709
aS'think drink alcohol came mind bring blood alright'
p710
aS'wish ninas body'
p711
aS'tell damon doesnt care elena telling take break school offers take care jeremy'
p712
aS'haha girl queen getting selena popatrace'
p713
aS'hair love'
p714
aS'lesbian rebekah hhhhhh'
p715
aS'feel like nothing done nigga damon'
p716
aS'forgot katherine human frick'
p717
aS'starting season hopefully like'
p718
aS'selena playing background stop shes perfect'
p719
aS'right first period taking test'
p720
aS'sick'
p721
aS'school b\xe2\x80\x9dsame'
p722
aS'dont want fuckin'
p723
aS'dont know justin doesnt large breasts favorite word'
p724
aS'saved bustyjustin'
p725
aS'demi lovato epnext glee kisse skaqnjsdvs'
p726
aS'michael dming tweet link'
p727
aS'whos like'
p728
aS'remember formspring always replied frick okay'
p729
aS'justins email made mavs lakers would whoever lost sing lmao lost'
p730
aS'thank much'
p731
aS'seriously need tweets timeline'
p732
aS'self esteem fragile like second feel good next second feel like ugliest pers\xe2\x80\xa6'
p733
aS'lmao'
p734
aS'malone'
p735
aS'like laughs'
p736
aS'honestly obsessed'
p737
aS'topless'
p738
ag6
aS'remember jensen suspended kissed girl preschool'
p739
aS'people follow like doesnt messy'
p740
aS'today'
p741
aS'everyones booing kelly laughing dont expect presents tree'
p742
aS'kelly gonna naughty nice'
p743
aS'believe santa clause'
p744
aS'voice makes happy'
p745
aS'called santa clause teenager'
p746
aS'demi rude factor even simon acts like'
p747
aS'feel like doesnt matc'
p748
aS'header icon good'
p749
aS'tweet copied awkward'
p750
aS'justin acts like badass writes music like sensitive desperate'
p751
aS'imagine icon bringing mcnuggets middle night\xe2\x80\x9d'
p752
aS'even dont believe laughs'
p753
aS'want christmas hhbjbfrzsdcpfvvjhbhga'
p754
aS'disappeared like nigga'
p755
aS'well'
p756
aS'used obsessed'
p757
aS'gowing'
p758
aS'remember justin rapped lose'
p759
aS'forgot rest'
p760
aS'username lets'
p761
aS'wanna copy exactly like'
p762
ag6
aS'petition evan peters discussion group'
p763
aS'selena account love selena'
p764
aS'turn bieber account'
p765
aS'update ugly\xe2\x80\x9d same\xe2\x80\x9d same\xe2\x80\x9d same\xe2\x80\x9d'
p766
ag6
aS'happy birthday baby hope lots cake wonderful birthday love much okay proud'
p767
aS'dream dream'
p768
aS'government shutdown cost billion could given every human world bucks still billion doll\xe2\x80\xa6'
p769
aS'unfollow thought something special'
p770
aS'dont worry hate fandom'
p771
aS'fandom mean obviously icon header explains'
p772
aS'haha hate people'
p773
aS'much favorite'
p774
aS'unfollowed cool'
p775
aS'wish best though itll work'
p776
aS'whos satan'
p777
aS'moved australia nigga'
p778
aS'stalking thats cute also sucks time zones know'
p779
aS'love never forget'
p780
aS'thank everyone follows stuck depression complaining means much'
p781
aS'destroy everything touch'
p782
aS'done'
p783
aS'even best friend wants listen problems hate'
p784
aS'really complain much'
p785
ag6
aS'wasnt 1760'
p786
aS'alive'
p787
aS'really wish someone vent'
p788
aS'like account much unfollow lying nigga'
p789
aS'haha dont favorite myntweet'
p790
aS'haha hate liars anything lost respect sorry'
p791
aS'feel really like person\xe2\x80\x9dha okay'
p792
aS'phone died frick'
p793
aS'stab'
p794
aS'thought favorites alright'
p795
aS'guessing thats'
p796
aS'something'
p797
aS'want deactivate never come back'
p798
aS'best friends threw whole friendship away'
p799
aS'really'
p800
aS'dont yell'
p801
ag6
aS'whats'
p802
aS'used well liked like everyone liked hated wasnt depressed time wish back'
p803
aS'remember loved everyone'
p804
aS'stupid dumb thiugh'
p805
aS'cute calista'
p806
aS'calista blocked cute'
p807
aS'blocked'
p808
ag6
aS'ilym'
p809
aS'making friends suck'
p810
aS'yeah sure dont need thats willing throw friendship away totally'
p811
aS'cares'
p812
aS'thing dont even want live'
p813
aS'block dont like ship laughs'
p814
aS'hate really'
p815
aS'hope realize find dead'
p816
aS'dauntless'
p817
aS'love okay'
p818
ag6
aS'hope fucking hell'
p819
aS'fuck willing throw friendship away still care'
p820
aS'deactivating cant hate'
p821
ag6
aS'rather stay'
p822
aS'hell'
p823
aS'really need friends actually care'
p824
aS'dont fucking innocent make look like great friend'
p825
aS'thing dont always want asking someone reply know theres people fucking love damon'
p826
aS'feel like shit make even worse claps wonderful great friend'
p827
aS'dont call sweetie'
p828
aS'really fight twitter'
p829
aS'dont like damon dont talk'
p830
aS'nigga still havent given'
p831
aS'dont know alright'
p832
aS'fine'
p833
aS'yall ready shut hell'
p834
aS'quit replying'
p835
aS'fuck'
p836
aS'dont even care delena stelena everyone makes damon look like actually fucking cares'
p837
aS'shut didnt start anything'
p838
aS'hate thursdays'
p839
aS'damon stefan care eachother much theyd honestly always choose eachother'
p840
aS'told damon always right thinf brother'
p841
aS'hate vampire diaries show retarded hate much skanslabsksv'
p842
aS'dont care'
p843
aS'would ship stelena\xe2\x80\x9d fucking love'
p844
aS'elena loved damon sire bond'
p845
aS'said gonna like everyone else fuck comparing'
p846
aS'sorry delena fans ship isnt destiny bye\xe2\x80\x9dstop'
p847
aS'like people dont fucking compare people world'
p848
aS'calm caps'
p849
aS'lets face damon cares stefan matter theyre family'
p850
aS'quiet know whole fandom hate dont ship something dont'
p851
aS'didnt even know today dont care show anymore still block'
p852
aS'come'
p853
aS'block know pisses karla'
p854
aS'shut dont like damon'
p855
aS'wrong'
p856
ag6
aS'know fuckin'
p857
ag6
ag6
ag6
ag6
aS'please'
p858
ag6
aS'free follows free follow give'
p859
aS'follows free good mood'
p860
aS'sucks nobody likes people internet dont like like exist'
p861
aS'seriously hate delena upset'
p862
aS'want sleep never wake'
p863
aS'promise wont'
p864
aS'tweeted jareds mishas accounts'
p865
aS'waht followed mishas acct\xe2\x80\x9dthats possible though'
p866
aS'connection damon sucks\xe2\x80\x9dno doesnt'
p867
aS'gping back sleep'
p868
aS'followed someone fucking'
p869
aS'person misha person'
p870
aS'people misha follows laughing happened jared'
p871
aS'best three hour ever'
p872
aS'sorry fangirl'
p873
aS'dont define'
p874
aS'katniss everdeen tran'
p875
aS'cant wait catching fire private screening'
p876
aS'watching factions featurette might well kill'
p877
aS'alien'
p878
aS'figjts holy uconr'
p879
aS'hate theo james'
p880
aS'also book called divergent'
p881
aS'theyre gonna kill gonna happen'
p882
aS'whisper call divergent'
p883
aS'seen movie trailer'
p884
ag6
aS'find fuckin funny veronica'
p885
aS'fourtris kiss leave'
p886
aS'four cute heck'
p887
aS'hate'
p888
aS'divergent trailer scene peter kidnaps kill'
p889
aS'four saved okay leave'
p890
aS'divergent'
p891
aS'divergent'
p892
ag6
aS'liar welcome'
p893
aS'forgot four finds tris divergent'
p894
aS'birthday right good'
p895
aS'guys dont even look'
p896
aS'drained night time'
p897
aS'started doctor heck living mannequins'
p898
aS'breakfast club grease forrest gump netflix'
p899
aS'liked paranormal activity played ouija board'
p900
aS'popular netflix'
p901
aS'unrated edition'
p902
aS'paranormal activity netflix'
p903
aS'love destiel much seeing together makes happy handle relationship'
p904
aS'cried chapter couldnt finish'
p905
aS'ready episode hurry'
p906
aS'finale almost anyways needed watch last season never finished'
p907
aS'metatron back selling pirated dvds'
p908
aS'scene came anyways wwear hurt'
p909
aS'dont fucking tell sweat'
p910
aS'angels start falling want naomi human'
p911
aS'want loved crowley'
p912
aS'crowleys human side came'
p913
aS'wheres soup'
p914
aS'talk first stab later'
p915
aS'girl cupid made couple bless'
p916
aS'female dont think female'
p917
aS'nice kevin'
p918
aS'time'
p919
aS'really want crowley human'
p920
aS'still want impala look'
p921
aS'found'
p922
aS'isnt asshole'
p923
aS'jody called crowley spitting drink'
p924
aS'called wasnt real number'
p925
aS'call'
p926
aS'actually thought real number devil would answer'
p927
aS'crowley using emojis favorite show cheesiest shit ever'
p928
aS'abaddons hand moving gross'
p929
aS'sexting'
p930
aS'remember said thought dialed devil would answer well supernatural true laughing hard'
p931
aS'forget abaddons hands shes like fuck niggas hands'
p932
aS'mean'
p933
aS'sewed abaddon well thats mistake'
p934
aS'theyre talking nephilim supernatural frick jace'
p935
aS'cool coat actually quite warm choking'
p936
aS'actually couldnt even continue reading twist shout made miserable cried sleep chapter'
p937
aS'like dont understand need dammit'
p938
aS'asks grabs busty asian beauties porn magazine thinking dean'
p939
aS'give free pass boyfriend'
p940
aS'destiel bipolar couple'
p941
aS'wants needs'
p942
aS'dean ignoring couple problems'
p943
aS'always thought devil real number dialed would answer well didnt'
p944
aS'welcome'
p945
aS'friendly reminder jared padalecki wears saxx boxers made guys huge dicks'
p946
aS'cute episode like laughing everytjing'
p947
aS'words good friend bite sassy castiel forgot front friend'
p948
aS'back making pirated dvds'
p949
aS'remember metatron selling pirated dvds'
p950
aS'kevin crying stop'
p951
aS'stop'
p952
ag6
aS'dont talk like urself'
p953
aS'wonderful'
p954
aS'hate everyone\xe2\x80\x9di love'
p955
aS'well dont know american'
p956
aS'whats emergency misha collins exists\xe2\x80\x9disnt'
p957
aS'movie'
p958
aS'indirect think hate'
p959
aS'fish titties'
p960
aS'frick guys'
p961
aS'like glove'
p962
aS'sick'
p963
aS'school today'
p964
aS'stop tryong goody goody'
p965
aS'also someone please explain received change realize illegal deface currency right'
p966
aS'slef selfie selfie lsrlfie maisha'
p967
aS'sleep'
p968
aS'episode could probably rewatch teen wolf passed hours'
p969
aS'people blocked accounts protected'
p970
aS'hate sick dont wanna scjool'
p971
aS'50shadesofjohnfuckingwinchester'
p972
aS'episode'
p973
aS'look attractive person stiles'
p974
aS'know even scott already attempted kill stiles plenty times already stiles still best help scott'
p975
aS'wait dereks uncle'
p976
aS'legs cute muscular heck'
p977
aS'ilysm'
p978
aS'5sos lame band weird ashton'
p979
aS'kcits birthday name happy birthday great'
p980
ag6
aS'never texted back'
p981
aS'cute hate'
p982
aS'school sick'
p983
aS'frick'
p984
aS'smile 5sosfam'
p985
aS'shouldnt talk cutting things could dont talk cutting dumb'
p986
aS'wouldnt adam levine would jump nigga'
p987
aS'send hate fuckin dare nigga'
p988
aS'spam'
p989
aS'stop asking questions probably gonna hate care'
p990
aS'questions okay'
p991
aS'spam'
p992
aS'please'
p993
aS'going follow spree later'
p994
aS'better ashton'
p995
aS'wish account like following no\xe2\x80\x9dsame'
p996
aS'whats'
p997
ag6
aS'many followers already'
p998
aS'told chubby girl combo meal'
p999
aS'craicastiles dont talk dark days justin'
p1000
ag6
aS'really clever'
p1001
aS'clever'
p1002
aS'psatpickuplines psatnmsqt'
p1003
aS'psatpickuplines translator'
p1004
aS'stop giving basically whole story'
p1005
aS'wish could sing meet famous people'
p1006
aS'finally girl probably like dont know'
p1007
aS'good luck watching'
p1008
aS'sheeran voice heck'
p1009
aS'reasing'
p1010
aS'stalk twitter daily'
p1011
aS'okay good hate mean okay love'
p1012
aS'epubbud'
p1013
ag6
aS'favorite charity organization'
p1014
aS'misha collins'
p1015
aS'header speak really deep level'
p1016
aS'sorry realize mean know hate dont want dont deserve okay'
p1017
aS'reading'
p1018
aS'hate saying things regretting later need stop talking'
p1019
aS'dont hate comment omgggg love okay'
p1020
aS'dont bathroom upstairs talking'
p1021
aS'josh peck chunky attractive shit'
p1022
aS'dont spoil tangled havent seen\xe2\x80\x9dthe girls hair gets'
p1023
aS'happy youre happy\xe2\x80\x9d'
p1024
aS'best friend missing please guys serious real life'
p1025
aS'hate ignored hope punished'
p1026
aS'ignore'
p1027
aS'pretty satisfied icon doesnt maych header mjst change'
p1028
aS'liked show'
p1029
aS'texas sings good'
p1030
aS'fine appreciate'
p1031
aS'fourth funny neck snapped fake eyes black'
p1032
aS'\xf0\x9f\x8d\x8c\xe2\x80\x9dsame'
p1033
aS'means'
p1034
ag6
ag6
ag6
aS'pish posh thank'
p1035
aS'damn alicia frickin speedy gonzalez'
p1036
aS'whats yalls snapchats'
p1037
aS'thats actually favorite picture'
p1038
aS'arms'
p1039
aS'really hate skinny'
p1040
aS'noisily donates mean cows many cows person need hoardin cows'
p1041
aS'cant pretty pretty able take good selfies\xe2\x80\x9dme every'
p1042
ag6
aS'season wasnt actually best dont fucking argue'
p1043
aS'wish could look sexy'
p1044
aS'fuck gets looking like make'
p1045
aS'even famous'
p1046
aS'news updates read satan instead senate'
p1047
aS'started saying stop'
p1048
aS'something'
p1049
aS'hate'
p1050
aS'probably fine'
p1051
aS'holy fuck highest almlst laughs'
p1052
aS'give heart aytacks'
p1053
aS'aleesha aleeceeuh'
p1054
aS'send kiks'
p1055
aS'fault'
p1056
aS'would love friend cheer highly doubt would think'
p1057
aS'well hello bella'
p1058
aS'really dont know'
p1059
aS'really'
p1060
aS'dean oissinf'
p1061
aS'would'
p1062
aS'cheer'
p1063
aS'know people like yall never make effort become friend'
p1064
ag6
aS'someone talk'
p1065
aS'away'
p1066
aS'aoprently dont tell'
p1067
aS'wait'
p1068
aS'book made last olympian never finished'
p1069
aS'nico become'
p1070
aS'texas score'
p1071
aS'country voice'
p1072
aS'didnt even like people younger'
p1073
aS'stipid boys'
p1074
aS'love talking'
p1075
aS'hate following'
p1076
aS'hate liking much'
p1077
aS'like jase'
p1078
aS'duck dynasty'
p1079
aS'want talk craicastiles love yall'
p1080
aS'text'
p1081
ag6
aS'good world'
p1082
ag6
aS'really'
p1083
aS'theres nothing hate'
p1084
aS'stop'
p1085
aS'really want deactivate cant'
p1086
aS'lies'
p1087
aS'offended ones wcw\xe2\x80\x9dme every wednesday'
p1088
aS'forget'
p1089
aS'maybe selfconscious dont like taking embarrassing picture'
p1090
aS'whisper bestb'
p1091
aS'free follow saved accounts dont follow make free follows'
p1092
aS'look still ignored'
p1093
aS'lies thanks'
p1094
aS'pretty option'
p1095
aS'sorry wish people would notice'
p1096
aS'friends called pretty looking like damn potato'
p1097
aS'bored indirect'
p1098
aS'never anyones know fucking selfconscious'
p1099
aS'love'
p1100
aS'study stop'
p1101
aS'hope murdered'
p1102
aS'showed best friend account asked bought followers laughs'
p1103
aS'show'
p1104
aS'calculus'
p1105
aS'probably taking blow classes'
p1106
aS'senior classes blow offs laughs'
p1107
aS'96\xe2\x80\x9dok senior citizen'
p1108
aS'straight'
p1109
aS'geometry easy like'
p1110
aS'yalls lowest grades curious'
p1111
aS'left like questions blank\xe2\x80\x9di left half test blank'
p1112
aS'freshman taking psat though like feel stupid'
p1113
aS'followers dont matter amazing'
p1114
aS'didn hndersta word'
p1115
aS'speak english noah'
p1116
ag6
aS'exactly'
p1117
aS'something wrong'
p1118
aS'bella obviously'
p1119
aS'questions never answered'
p1120
aS'niah sophomore'
p1121
aS'calista take shes freshman'
p1122
aS'would mean kiss lios held sound'
p1123
aS'psat form fandom'
p1124
aS'book called canto really good rating going read'
p1125
aS'tempted book hasokowa'
p1126
aS'throughout whole psat probably answered like questions right'
p1127
aS'whisper mine'
p1128
aS'said adam throw adam hell leave'
p1129
ag6
aS'indirect need following nice'
p1130
aS'kill'
p1131
aS'like answered anyway'
p1132
aS'really wanted know happened like didnt want answer damn questions'
p1133
aS'someone date'
p1134
aS'voice sounded like music like whoa there\xe2\x80\x9d felt vibe going'
p1135
aS'attracted'
p1136
aS'study time puke'
p1137
aS'tell beautiful'
p1138
aS'month private screening'
p1139
aS'make damn good looking angel'
p1140
aS'hell yeah\xe2\x80\x9d ruined using hell'
p1141
aS'welcome sabs keep thuggin'
p1142
aS'people follwo please'
p1143
aS'fitting dont anywhere'
p1144
aS'really really want group friends really close outsider twitter'
p1145
aS'heck'
p1146
aS'need misha'
p1147
aS'lame friends'
p1148
aS'wont follow someone ship something shaking head u\xe2\x80\x9dmost fandom'
p1149
aS'real thug'
p1150
aS'heard wanna 6669 gang'
p1151
aS'lying'
p1152
aS'wanna part gang'
p1153
aS'wants joim'
p1154
ag6
aS'nigga hell look like free food'
p1155
aS'like'
p1156
aS'dont'
p1157
aS'join gang 6669'
p1158
aS'made history teacher make twitter'
p1159
aS'wants join gang alright'
p1160
aS'join gang 6669'
p1161
aS'fuck fuck bitch'
p1162
aS'thug fight'
p1163
aS'spoiler alert cant keep anymore tris divergent'
p1164
aS'calista cowgirls noah'
p1165
aS'spoiler alert fours real name tobias dont like'
p1166
aS'maybe'
p1167
aS'cute cowboy sitting next bye\xe2\x80\x9dis calista'
p1168
ag6
aS'hair blonde never shave bless\xe2\x80\x9dgross'
p1169
aS'cute cowboy sitting next'
p1170
aS'rereading divergent four cares much cried'
p1171
aS'hours away'
p1172
aS'cowgirl'
p1173
aS'love'
p1174
aS'cowgirl'
p1175
aS'live texas cowgirl never talked someone texas intrigued'
p1176
aS'grown spinach'
p1177
aS'dont'
p1178
aS'remember intern friends liked'
p1179
aS'wait live texas'
p1180
aS'dont worry'
p1181
aS'happened last week coven'
p1182
aS'follow people beyonce\xe2\x80\x9d obviously am\xe2\x80\x9ddoes beyonce follow'
p1183
aS'follow people beyonce'
p1184
aS'watch coven tonight'
p1185
aS'entire timeline evan peters\xe2\x80\x9dda babe'
p1186
ag6
aS'hinojooosa'
p1187
aS'like snapchats thanks'
p1188
aS'tweets'
p1189
aS'single laheys'
p1190
ag6
aS'mean'
p1191
aS'bitch dont push going damn place hate people'
p1192
aS'completely bombed psat leave alone'
p1193
aS'going watch supernatural wish luck'
p1194
aS'alone like sitting front home alone'
p1195
aS'shoot'
p1196
ag6
ag6
aS'someone dean please'
p1197
aS'feel sympathy king hell know something wrong'
p1198
aS'dean voice cas\xe2\x80\x9di love'
p1199
aS'picture dean reaching crotch'
p1200
aS'stopped season tbh\xe2\x80\x9dwat'
p1201
aS'castiel voice dean'
p1202
aS'girl making moans dean shes like what\xe2\x80\x9dmy life'
p1203
aS'whos dick goes long theyre happy prefer going dean vice versa'
p1204
aS'rest cast still really close obviously work together'
p1205
aS'obviously coming back heard'
p1206
aS'cute'
p1207
aS'aquestion'
p1208
aS'people like sometimes dont wrong vibe though swear sweet person'
p1209
aS'like almost everyons torture everyone like show love well really'
p1210
aS'everyone time change'
p1211
aS'kiss looks misha girl plus needs blow steam every'
p1212
aS'tell future'
p1213
ag6
aS'liked gabriel'
p1214
aS'gabriel would like think coming back'
p1215
aS'stay away vagina'
p1216
aS'tell alive nigga know'
p1217
aS'watch ezekiel gabriel wings tattered gabriel died mean come many times nigga died'
p1218
aS'actually felt sympathy'
p1219
aS'four aint number kids'
p1220
aS'seriously love'
p1221
aS'guess'
p1222
aS'person think deserved reply reply next time thanks buddy'
p1223
aS'camera frame shirt untucked unbuttoned pants ventilation'
p1224
aS'hate'
p1225
aS'well thanks'
p1226
aS'mishas looking person nigga blind fuck'
p1227
ag6
aS'actually look pretty today'
p1228
aS'twitter cute made better'
p1229
aS'thank'
p1230
aS'actually dont wish'
p1231
ag6
aS'decided palm tree today'
p1232
aS'palm tree'
p1233
aS'dont'
p1234
aS'cool dude'
p1235
aS'love running shooting shots second feel tough almost forget youre wearing makeup'
p1236
aS'hate remembering anything happened divergent considering read years'
p1237
aS'spending night reading divergent take break finish lost hero'
p1238
aS'tris tobias fall tartarus thats allegiant spoiler'
p1239
aS'least hackers coulda done blocked account'
p1240
aS'going'
p1241
aS'dont cock stay caps lock\xe2\x80\x9d stfu nigga capslock5ever'
p1242
aS'unfair shows leaked well'
p1243
aS'first beau jamie call urself fans'
p1244
aS'hacked'
p1245
aS'dont cock stay caps lock\xe2\x80\x9ddont tell asshole'
p1246
ag6
aS'dont find kill'
p1247
aS'jamies account hacked'
p1248
aS'havent even read insurgent tell thing brutal death'
p1249
aS'anything ever linked'
p1250
aS'spammed'
p1251
aS'wikl'
p1252
aS'hell gonna tell misha collins enough heart like mine'
p1253
aS'love year olds enough would like report murder'
p1254
aS'wish could personally meet whole supernatural cast matter know theyre genuinely sweet'
p1255
aS'kissing girl trying brsh teeth dean wanting find heart beating'
p1256
aS'actually getting annoyed ezekiel account'
p1257
aS'eating toothpaste'
p1258
aS'smell scene coming'
p1259
aS'next week cant control'
p1260
aS'heavens wanted'
p1261
aS'love much'
p1262
aS'dean touching hhhhhn'
p1263
aS'fuck fuck thenheck'
p1264
aS'dean showing caring really season frick'
p1265
aS'youre family kevin youre fucking family love'
p1266
aS'dean cares much kevin great father crying'
p1267
ag6
aS'well'
p1268
aS'watch ezekiel gabriel choking'
p1269
aS'jeremy'
p1270
aS'love bellayou know true'
p1271
aS'plot twist angel whole time'
p1272
aS'hurt children like misha ezekiel evil'
p1273
aS'keep watching\xe2\x80\xa6\xe2\x80\x9d'
p1274
aS'fucking replace dont even'
p1275
aS'dean winchester right thing season never heard'
p1276
aS'awesome'
p1277
aS'zeke yeah call zeke'
p1278
aS'gonna call zeke ahhjsjsadva'
p1279
aS'porn'
p1280
aS'ezekiel shit knew still inside'
p1281
aS'lover'
p1282
aS'give girls sorts nasty ideas notice'
p1283
aS'fuck nigga damn'
p1284
aS'talk dean touching wiener'
p1285
aS'theyre taking pledge fuck loventhem slcmjch'
p1286
aS'icon'
p1287
aS'lets make hate even painful guilt amazing'
p1288
aS'familys dead excuse fuck didnt soul dont blame'
p1289
aS'iphone afford iphone'
p1290
aS'jesus juice'
p1291
aS'supposed save'
p1292
aS'scene girl whore'
p1293
aS'everyone jjst iere holy shit'
p1294
aS'girl'
p1295
aS'watch girl hook dean fuck vampire'
p1296
aS'torture friends show love friends'
p1297
aS'dean really touch fucking'
p1298
aS'terrified crowley want'
p1299
aS'want abaddon torture'
p1300
aS'abaddon evil sexiness makes'
p1301
aS'tell kevin'
p1302
aS'kevin friggin solo'
p1303
aS'winchesters suits drill'
p1304
aS'fucked hell'
p1305
aS'hello girl cute butt'
p1306
aS'drivers need stop damn look like abaddon'
p1307
aS'abaddon look everything could ugliest thing world still beautiful'
p1308
aS'aint ever stay dead supernatural'
p1309
aS'crowley always comes back nigga'
p1310
aS'abaddon fucking'
p1311
aS'really sampm'
p1312
aS'crowley make song reference wrong show'
p1313
aS'nigga tweeted like times dont tweet limit'
p1314
aS'abaddon sexy asshole'
p1315
aS'first notice respond thanks\xe2\x80\x9dthis aint fair'
p1316
aS'used wrong jared'
p1317
aS'tony romo'
p1318
aS'jared'
p1319
aS'ezekiel'
p1320
aS'funniest thing ever like egale powers couldnt walk laughed hard'
p1321
aS'stroke dick mean hair'
p1322
aS'watch though right seen take john luke dentist'
p1323
aS'duck dynasty'
p1324
aS'yall talking burnt wings things look like damn palm tree branches'
p1325
aS'wings angel inside him\xe2\x80\x9dya dick'
p1326
aS'thought jarpad account actually jared frick happen\xe2\x80\x9dim pissing'
p1327
aS'wings someone tree dont play woth nigga'
p1328
aS'rude'
p1329
aS'guess show awesome poster guess gets tweet right now\xe2\x80\x9djensen'
p1330
aS'know girlfriend'
p1331
aS'thank means much'
p1332
aS'dont follow idec love whole bella think wonderful inside deserve'
p1333
aS'want date'
p1334
aS'cutie hook girl'
p1335
aS'date twin'
p1336
ag6
aS'really'
p1337
aS'ones live tweeting thank gods'
p1338
aS'least thats texas'
p1339
aS'also take psat junior year good score really good stuff'
p1340
aS'apply everything'
p1341
aS'alone tired'
p1342
aS'college worry'
p1343
aS'knew'
p1344
aS'really want tears'
p1345
aS'fandom hate makes sad\xe2\x80\x9dbecause people suck'
p1346
aS'live everyday like pizza cafeteria\xe2\x80\x9dhey pizza pizza'
p1347
aS'love ignored'
p1348
aS'always depressed supernatural frick hate'
p1349
aS'want drown tears'
p1350
aS'canon since beginning time'
p1351
aS'talks'
p1352
aS'dont feel loved okay'
p1353
aS'hell'
p1354
aS'thats wheres everyone else exactly'
p1355
aS'love'
p1356
aS'yes\xe2\x80\x9dna'
p1357
aS'dont wanna lose follows though'
p1358
aS'guys even like'
p1359
aS'pretty much want unfollow everyone cant'
p1360
aS'wish people texted tweeted first'
p1361
aS'cool mean used follow probably unfollowed cool'
p1362
aS'country'
p1363
aS'really like mutuals unfollow people dont follow back sound stupid'
p1364
aS'dont soul anymore dont\xe2\x80\x9di never start witj'
p1365
aS'jensen confirmed dean meant tell castiel loves crypt scene didnt think dean would come'
p1366
aS'thought followed going love'
p1367
aS'people hara follows used'
p1368
aS'dont soul'
p1369
aS'wait'
p1370
aS'hate dont follow anyone think'
p1371
aS'high school best time life incorrect'
p1372
ag6
aS'life hurts'
p1373
aS'sorry yall come back hell give kiss'
p1374
aS'excuse qustions'
p1375
aS'header stop'
p1376
ag6
aS'love'
p1377
aS'dont insult hold'
p1378
ag6
aS'keep holdin'
p1379
ag6
ag6
aS'hello'
p1380
ag6
aS'laughs hate cute'
p1381
aS'yall even consider account laughs'
p1382
aS'hate accounts follow literally indirect user mishacollins'
p1383
aS'elvis presley twist shout destiel'
p1384
aS'hell making accounts like elvis presley followed'
p1385
aS'gorgepus'
p1386
aS'plus dont wanna change mine tate'
p1387
aS'already selfie'
p1388
aS'really cute'
p1389
aS'love soup'
p1390
aS'wish could soup every'
p1391
aS'uhhh confidence urself icon'
p1392
aS'cutie'
p1393
aS'love soup'
p1394
aS'love soup misha collins'
p1395
aS'less hours'
p1396
aS'wouldnt socially awkward annoy everyone socially awkward'
p1397
aS'know shaved season'
p1398
aS'mustache'
p1399
aS'know shes older whole cast besides dads'
p1400
aS'hours'
p1401
aS'mabuhay mahal kayo'
p1402
aS'late'
p1403
aS'stupid'
p1404
aS'sign boobs'
p1405
aS'embarrasinh wont like thats true'
p1406
aS'love'
p1407
aS'santa clause obama pope followed today sign government definitely closed'
p1408
aS'days'
p1409
aS'lets count tonight'
p1410
aS'santa clause followed'
p1411
aS'called texted pretty much important thing universe ever sodrop youre'
p1412
aS'abaddon tonight mean clothes ready'
p1413
ag6
aS'fucking fuckin header fuck fuck tate fuck'
p1414
aS'jensens'
p1415
aS'destiel always canon'
p1416
aS'gammit'
p1417
aS'watch twilight every night\xe2\x80\x9doh'
p1418
aS'oddly turned taking photo person'
p1419
aS'gotta protorture'
p1420
aS'love hurting children'
p1421
aS'gotta protorture\xe2\x80\x9dsame'
p1422
aS'precious love like looks calm serious'
p1423
aS'really didnt know actually didnt know'
p1424
aS'posey dylan'
p1425
aS'surprised well'
p1426
aS'laughs evilly'
p1427
aS'ratchet green truck'
p1428
aS'green green'
p1429
aS'shhhhhhhh'
p1430
aS'long term girlfriend highschool'
p1431
aS'posey girl already tell laughs engaged'
p1432
aS'watch damn show characters season'
p1433
aS'everyone pray mika'
p1434
aS'teenwolf tonight'
p1435
aS'guys meet thomas photo taken ridiculously talented follow themazerunner'
p1436
aS'know small portion'
p1437
aS'ugly know'
p1438
aS'tyler posey'
p1439
aS'watch season'
p1440
aS'ugly'
p1441
ag6
aS'derek'
p1442
aS'darl outiade svared'
p1443
ag6
aS'well waiting season mini hiatus finish watching january'
p1444
aS'told hell walking school'
p1445
aS'tyler hoechlin'
p1446
aS'derek jesus christ'
p1447
aS'laughing mika finds hoechlin drools'
p1448
aS'laughing mika finds tyler getting married'
p1449
aS'getting married'
p1450
aS'call fucking call'
p1451
aS'think fucking game'
p1452
aS'really want teen wolf crossover'
p1453
aS'werewolves shut'
p1454
aS'wont spoil mika thojgh'
p1455
aS'remember teen wolf account'
p1456
aS'scott mccall s2g\xe2\x80\x9dthe whole cast beautiful stop'
p1457
aS'think thats'
p1458
aS'seriously havent watched teen wold well isnt anymore'
p1459
aS'hope canucks awesome thanksgiving \xe2\x80\x9dnigga texas damn texan canadian'
p1460
aS'forgot finish knock knock joke\xe2\x80\x9doh'
p1461
aS'reminder hale halee letter apart explanation hale\xe2\x80\x9dno'
p1462
aS'great really thank'
p1463
aS'theres better people'
p1464
aS'wouldnt dont understand'
p1465
aS'wanna lame band 5sos'
p1466
aS'whos theres'
p1467
aS'stop annoying sorry'
p1468
aS'true mean dont even real friends like talk tweet first want feel needed okay'
p1469
aS'everything annoying theres andres grandma'
p1470
aS'zodiac sign cancer'
p1471
aS'cool'
p1472
ag6
aS'asshole sorry'
p1473
aS'want hard ever worth'
p1474
aS'love'
p1475
aS'annoy stop tweeting'
p1476
aS'someone care feelings'
p1477
aS'hate'
p1478
aS'brother walks says soul well gonna starving dont'
p1479
aS'none talk would care mean'
p1480
aS'well damn'
p1481
aS'deactivating cant deal anymore'
p1482
aS'like seriously half main priority probably dont even care'
p1483
aS'cool'
p1484
aS'first person someones mind'
p1485
aS'want block everyone angry'
p1486
aS'thought someones friend'
p1487
aS'dont name alright'
p1488
aS'feel right bored hate studying'
p1489
ag6
aS'habits procrastinating sarcastic responses talking'
p1490
aS'things annoy easily child whining'
p1491
aS'favorite holiday christmas thanksgiving tons food'
p1492
aS'dude know fucking annoying back'
p1493
aS'confession'
p1494
aS'political changes roman republic empire thank'
p1495
aS'tell characteristics cities athens sparta rome persepolis thank'
p1496
aS'know phones terrible sauna right'
p1497
aS'america better canada lolz'
p1498
aS'canada isnt missing'
p1499
aS'canadian need stop'
p1500
aS'canada country'
p1501
aS'whats best thing canada\xe2\x80\x9d enough space answer\xe2\x80\x9dcanada understand'
p1502
ag6
aS'thank'
p1503
aS'rude'
p1504
aS'seriously'
p1505
aS'study time'
p1506
aS'hate putting clothes naked lolz'
p1507
aS'shes pregnant'
p1508
aS'looked blame'
p1509
aS'simon cowell girlfriend since'
p1510
aS'wait'
p1511
aS'squiddlyanddiddly\xe2\x80\x9dare really'
p1512
aS'missed spot gammit'
p1513
aS'thank gods razors'
p1514
aS'legs really soft hhhh'
p1515
aS'sounds like much wish could practice'
p1516
aS'really studying'
p1517
aS'procrastinating frick'
p1518
aS'rick riodonewithu'
p1519
ag6
aS'rick riordonewitu'
p1520
aS'screaming\xe2\x80\x9dme'
p1521
aS'famous'
p1522
aS'going regret practice tomorrow might well chicken ront'
p1523
aS'mean fabulpus'
p1524
aS'tuesday'
p1525
aS'tuesday'
p1526
aS'tweet limit last night'
p1527
aS'lame'
p1528
aS'never hotpocket whag'
p1529
aS'goes trick treating anymore problem'
p1530
aS'cant take normal picture'
p1531
aS'retarded smile'
p1532
aS'tweets like month'
p1533
aS'actually dojt even pictures swimming look like fuckin cone'
p1534
aS'swim thursday pray please\xe2\x80\x9dlike actual swimming gonna float around'
p1535
aS'cant wait swimming tomorrow lifeguard hhhhhh'
p1536
aS'misha means teddy bear going room hours'
p1537
aS'misha accidentally kill puppy still think cute'
p1538
aS'wanna make fans direction feel better chances interacting imagine misha collins'
p1539
aS'taste blood doesnt bother vampire'
p1540
aS'imagine icon seductively whispering greedy'
p1541
aS'imagine icon murdering someone expression currently'
p1542
aS'creyin'
p1543
aS'hurt feelings'
p1544
aS'waited long insurgent'
p1545
aS'still alive'
p1546
aS'remember teacher recommended book grade finished dreading wait insurgent popular'
p1547
aS'want reread divergent years book made emotional'
p1548
aS'makes overall'
p1549
aS'last olympian makes like really really really sad\xe2\x80\x9dwow dont'
p1550
aS'school tomorrow replay weekend'
p1551
aS'ever take feel free'
p1552
aS'crushes suck'
p1553
aS'wonder ever tried jareds hair'
p1554
aS'calista crush'
p1555
aS'cant tell thatd embarrasing follow twitt cant'
p1556
aS'depends born north calls call soda'
p1557
aS'cutie wanna cutie'
p1558
aS'came like wrecki ball'
p1559
aS'smell acklehol'
p1560
ag6
aS'supposed'
p1561
aS'want extra'
p1562
aS'name shes teens react right'
p1563
aS'names camila banus'
p1564
aS'really cute mexican'
p1565
aS'frick'
p1566
aS'movie said minutes'
p1567
aS'broke cant afford attention'
p1568
aS'idrc'
p1569
aS'spam'
p1570
aS'unfollowed even\xe2\x80\x9dthats annoying'
p1571
aS'like away love'
p1572
aS'theres lock really didnt know'
p1573
aS'greek nobody reads greek'
p1574
aS'squirting water everyone never getting wisdom teeth pulled'
p1575
aS'episode duck dynasty best gonna'
p1576
aS'goes randomly says hungry fellas creepiest possible laughinf sochrd'
p1577
aS'eagle powers'
p1578
aS'funnier thought john luke bend show'
p1579
ag6
aS'free follows telethon7'
p1580
aS'life without free follows'
p1581
aS'free follows dont following telethon7'
p1582
aS'wanna friends'
p1583
aS'free follows free trying save lives telethon7'
p1584
aS'need friends scary promise'
p1585
aS'start doctor study'
p1586
aS'true'
p1587
ag6
aS'beautiful alice beautiful'
p1588
aS'lets kind hate today'
p1589
ag6
aS'better nigga'
p1590
aS'bitch foot asshole uself'
p1591
aS'promises probably arent reassuring'
p1592
aS'thought friend'
p1593
aS'unfollow dead'
p1594
aS'obviously unfollowed clearly getting along'
p1595
aS'people break mutuals make want break face'
p1596
aS'time'
p1597
aS'unfollowed'
p1598
aS'favoriting thatdoesnt count clare'
p1599
aS'thats twitter'
p1600
aS'gammit word'
p1601
aS'gammit'
p1602
aS'jensen called jared crying said \xe2\x80\x9cjared she\xe2\x80\x99s girl baby girl\xe2\x80\x9d jared fucking cried phone'
p1603
aS'though proud'
p1604
aS'save life retweet'
p1605
aS'give oizza'
p1606
aS'cameela cabeyo come'
p1607
aS'ovnna'
p1608
aS'camilla retweet'
p1609
aS'impala human would'
p1610
aS'gaysar'
p1611
aS'tweet hashtag retweet follow ready telethon7'
p1612
aS'love youre beautiful okay'
p1613
aS'indirect'
p1614
aS'wont lose fucking follower people wont judge awareness help children need'
p1615
aS'imagine people doesnt luxury shows books bands youtubers mean'
p1616
aS'doesnt hurt cost damn thing nice would mean retweet help kids need telethon7'
p1617
aS'literally kill please\xe2\x80\x9dno never'
p1618
aS'senior quote misha'
p1619
aS'love hurting children'
p1620
asS'2013_43'
p1621
(lp1622
S'love guys'
p1623
aS'thank putting final goodbye swear'
p1624
aS'stay safe'
p1625
aS'guys making emotional dont want leave okay'
p1626
aS'going miss seeing bella timeline'
p1627
aS'love you\xe2\x80\x9di love'
p1628
aS'want stay safe wonderful life okay'
p1629
aS'dont want understand hope better'
p1630
aS'thats feel need stay safe'
p1631
aS'think thats going help please'
p1632
aS'dont please youre deactivating stay shit youre worth everything need know\xe2\x80\xa6'
p1633
aS'bells wherever hope everything turns okay hope find happiness looking forward find'
p1634
aS'love much going miss whatever need stay strong baby'
p1635
aS'good kyou guys'
p1636
aS'means ltha'
p1637
aS'isnso pressure'
p1638
aS'text whenever need love much'
p1639
aS'thank guys mjchn sorry'
p1640
aS'sorry text whenever'
p1641
aS'cant promise wont something stuoid snsdjs sorryvguys love'
p1642
aS'even best friend cares'
p1643
aS'dont thin care'
p1644
aS'dont know anyone would wait thank'
p1645
aS'care would read lmao'
p1646
aS'made sense lmao'
p1647
aS'please read'
p1648
aS'think funny lmao'
p1649
aS'sorry deactivate dont want actually kill cont'
p1650
aS'fuck'
p1651
aS'hope josh gets better deserves happy anything lets know feeling tomorrow'
p1652
aS'neve good eniugh loolool'
p1653
aS'someone blocked'
p1654
aS'blocked'
p1655
aS'cant friendship fallen cant'
p1656
ag6
ag6
aS'stalker neighbors\xe2\x80\x9dme'
p1657
aS'plot twist real angel demons leviathans dean mass murderers'
p1658
aS'lmao live hour away oklahoma'
p1659
aS'ever listens side story look like fucking time'
p1660
aS'might deactivate'
p1661
aS'cold'
p1662
aS'want friend'
p1663
aS'ilyt'
p1664
aS'could literally everyone none would notice done'
p1665
aS'kidding likes lmao'
p1666
aS'lmao hashtag twitter famous'
p1667
aS'cres nigga'
p1668
aS'could shut would nice'
p1669
aS'wish best friend actually'
p1670
aS'obviously youre queen stupid'
p1671
aS'cant qait recovery come'
p1672
aS'justin justin would respond curious'
p1673
aS'tweeted'
p1674
aS'want someoje vent feel like typing feelings would best jusg anyon'
p1675
ag6
ag6
aS'yeah stupid'
p1676
aS'fine whatever gonna'
p1677
ag6
aS'stop indirecting lmao'
p1678
aS'seriously call something time\xe2\x80\x9dwhat gonna lmao'
p1679
aS'best friend isnt lmao'
p1680
aS'good person make look like'
p1681
aS'sorry good enough'
p1682
aS'someone played getting attacked calling lmao'
p1683
aS'something'
p1684
aS'justin going another episode dying'
p1685
aS'dont anymore dumb'
p1686
aS'hashtag fake friend'
p1687
aS'dont like unfollowblock'
p1688
aS'nigga aint even nothing even talking justin'
p1689
aS'block dumbass'
p1690
aS'unfollowed'
p1691
aS'talking lmao'
p1692
aS'like know life lmao'
p1693
aS'even talking shit jesus christ fuck'
p1694
aS'close something druoidnbye'
p1695
ag6
aS'sorry defending bella now\xe2\x80\x9dbut friends lmao'
p1696
aS'feel unloved'
p1697
aS'possible stop liking someone screwed head lmao'
p1698
aS'hurting anyone already told feel like dick make worse'
p1699
aS'cares'
p1700
aS'care'
p1701
aS'ever tired drama live'
p1702
aS'fuck reason'
p1703
aS'right tell extra'
p1704
aS'lied kiking forget mention'
p1705
aS'dont care dont know treated past right tell feel lmao'
p1706
aS'actually dont'
p1707
aS'dont even know whats going'
p1708
aS'fuck isnt'
p1709
aS'talking shit position youd feel'
p1710
aS'even bothering'
p1711
ag6
aS'hashtag asshole'
p1712
aS'lying liking real asshole move'
p1713
aS'racial slurs nigga dumb hell'
p1714
aS'call everyone nigga racist'
p1715
aS'ignore okay'
p1716
aS'nigga dont even follow'
p1717
aS'want someone love like love'
p1718
aS'cant tell pretty angry'
p1719
aS'fuck misha feel warm cuddly didnu feel stubble kiss'
p1720
aS'stalking sorry'
p1721
aS'hell'
p1722
aS'cheer'
p1723
aS'dont dead open inside'
p1724
aS'played many times dont need'
p1725
aS'think played'
p1726
aS'help'
p1727
aS'lets together'
p1728
aS'please dont tell like back dating someone else lmao'
p1729
aS'lost bucks tonight damn good shuffleboard bowling'
p1730
aS'thought kidding didnt'
p1731
aS'gonna stalk weird'
p1732
aS'cool'
p1733
aS'love peter hale much\xe2\x80\x9d'
p1734
aS'bella doesnt realise awesome actually is\xe2\x80\x9dilysm divya love'
p1735
aS'reminds always fukin horny tweets'
p1736
aS'gotten anything'
p1737
aS'text'
p1738
aS'text dammit'
p1739
aS'texted'
p1740
aS'many direction 5sos fans following'
p1741
aS'free follows dont follow'
p1742
aS'mean love'
p1743
aS'hate anthony'
p1744
aS'better fuckin'
p1745
aS'stop mean'
p1746
aS'report'
p1747
aS'want block'
p1748
aS'wants facetime'
p1749
aS'love'
p1750
aS'love misha'
p1751
aS'jared havent said bitch crowd jensen'
p1752
aS'report user want'
p1753
aS'turn frown upside darling'
p1754
aS'extra fukin'
p1755
aS'lt333'
p1756
aS'dont send damn emojis'
p1757
aS'sometimes time want punch anthony face'
p1758
aS'made angry'
p1759
aS'fuck'
p1760
aS'watch'
p1761
aS'block'
p1762
aS'female singers sing live ariana grande demi lovato beyonce little'
p1763
aS'reach halloween'
p1764
aS'mine'
p1765
aS'dont know matters'
p1766
aS'saved wouldnt dare change username'
p1767
aS'dont know hurts lmao diagnosed depression cant really help'
p1768
aS'plus dont even know followers complain used awesome tweets'
p1769
aS'wanna make separate account dont think keep'
p1770
aS'bustyasians damntvshows'
p1771
aS'people answer'
p1772
aS'bustyasians damntvshows'
p1773
aS'username damntvshows multifandom account'
p1774
aS'nonsense true'
p1775
aS'annoying'
p1776
aS'single years think like lonely lmao'
p1777
aS'whatever know never good enough sorry'
p1778
aS'stop unfollowing jesus christ'
p1779
aS'cant hold grudges pissed little'
p1780
aS'teen wolf fans'
p1781
aS'wanna leave fandom still watch pick puttin'
p1782
aS'still love okay'
p1783
aS'sorry'
p1784
ag6
aS'worth'
p1785
aS'sorry sorry okay suck'
p1786
aS'sorry'
p1787
aS'justin'
p1788
aS'hate guys going lesbian'
p1789
aS'thank ignoring'
p1790
ag6
aS'lmao congrats ignoring'
p1791
aS'gonna deactivate'
p1792
aS'wish could died night'
p1793
aS'dont talk'
p1794
aS'hate everyone'
p1795
aS'heather like butts like butts maybe food sits next person goes'
p1796
aS'really love justin taking music'
p1797
aS'never good enough'
p1798
aS'sorry tryna help'
p1799
aS'doesnt mean anything chloe'
p1800
aS'everyone gonna fuckin kms\xe2\x80\x9dno stop lovely'
p1801
aS'didnt mean'
p1802
aS'made'
p1803
aS'better'
p1804
aS'like indirected'
p1805
aS'fuckin hate'
p1806
aS'delete justin forever'
p1807
aS'pick puttin'
p1808
aS'damntvshows multiple tumblr multiple tumblr follows'
p1809
aS'delete wont talk anymore'
p1810
aS'lmao'
p1811
aS'ignore wanna date'
p1812
ag6
ag6
aS'justin'
p1813
aS'imagine justin going back tattoos badass look asdfghajldheidls'
p1814
aS'justin'
p1815
aS'twitter user justinbieber'
p1816
aS'justin wanna'
p1817
aS'dumb'
p1818
aS'everything sucks'
p1819
aS'wanna'
p1820
aS'some1 fake date'
p1821
aS'twitter user tweetsonurface lmao'
p1822
ag6
aS'someone grant boyfriend'
p1823
aS'drop dead'
p1824
aS'need boyfriend'
p1825
aS'kisses sweeter honey'
p1826
aS'never seen moose moose sighting'
p1827
aS'love moose'
p1828
aS'moose'
p1829
ag6
aS'hashtag shut'
p1830
aS'quit lyin urself'
p1831
aS'swag'
p1832
aS'satan lmao'
p1833
aS'bella'
p1834
aS'read fanfiction'
p1835
aS'coffee gross hell'
p1836
aS'drinks coffee lmao'
p1837
aS'anyone name'
p1838
ag6
aS'loser'
p1839
aS'icon'
p1840
aS'going surgery'
p1841
aS'whats talk welcome back howve proper salutation someone getting good'
p1842
aS'penis tool used wean convert lesbians virgins useful productive members'
p1843
aS'hgctvguyf'
p1844
aS'ggvtyvu'
p1845
aS'hello'
p1846
ag6
aS'fuck'
p1847
aS'hoot hoot logan lerman'
p1848
aS'indra blood'
p1849
aS'stop existing'
p1850
aS'ship'
p1851
aS'promised destiel canon'
p1852
aS'everyones starting frick shoot'
p1853
ag6
aS'bella theyre idiots\xe2\x80\x9dlol idiot'
p1854
aS'dont like general'
p1855
ag6
aS'define penis'
p1856
aS'frickin wanna fight'
p1857
aS'walks away slowly'
p1858
aS'gonna drafts wait'
p1859
aS'damn santa milk cookies bear trap last night without getting caught catch'
p1860
aS'days late'
p1861
aS'bella lmao'
p1862
aS'know'
p1863
aS'okay night'
p1864
aS'stop love'
p1865
aS'weird'
p1866
aS'live'
p1867
aS'ayyy tjats town'
p1868
aS'good night guys'
p1869
aS'wanna change user'
p1870
aS'hottie follow'
p1871
aS'remember crush texted friends saying hammer'
p1872
aS'well hope things turn okay'
p1873
aS'wondering talking justin tweeted baskarth'
p1874
aS'cant'
p1875
aS'please back fuck away friends\xe2\x80\x9dis lmao'
p1876
aS'gonna bang'
p1877
aS'welcome'
p1878
aS'icon cute heck'
p1879
aS'yall screw drivers\xe2\x80\x9dur hammer'
p1880
aS'guys prettier'
p1881
aS'redrum'
p1882
aS'charlie'
p1883
aS'would reply'
p1884
aS'tweeting away'
p1885
aS'isnt movie'
p1886
aS'heck'
p1887
aS'people ship justin bella thorne'
p1888
aS'anthony hour'
p1889
aS'maybe'
p1890
aS'really'
p1891
aS'really'
p1892
ag6
aS'said crush love'
p1893
aS'well except velvet cheesecake'
p1894
aS'cake gross'
p1895
aS'cream'
p1896
aS'justins rampb style treating really well like fuck suits much'
p1897
ag6
aS'lyin nigga aint'
p1898
aS'really'
p1899
aS'meant'
p1900
aS'favsrts twitter crush'
p1901
aS'whats'
p1902
aS'anthony like'
p1903
aS'dont want though pussy'
p1904
aS'kidding'
p1905
aS'shouldnt know'
p1906
ag6
aS'twitter crush'
p1907
aS'really positive wouldnt reach guys suck'
p1908
aS'follow thank'
p1909
ag6
aS'hold bella\xe2\x80\x9dhustin realy'
p1910
aS'dont count shit like username'
p1911
aS'number'
p1912
aS'laughs favsrts cutest gurls wink\xe2\x80\x9dim anyways'
p1913
ag6
aS'want know'
p1914
ag6
aS'guys never reach'
p1915
aS'wrong'
p1916
aS'think'
p1917
aS'snap'
p1918
aS'favsrts twitter crush'
p1919
aS'means thqnk'
p1920
aS'sorry dont ever need anything darling'
p1921
aS'feel annoying sorry'
p1922
aS'want talk'
p1923
aS'ship'
p1924
aS'bustin'
p1925
aS'look like dance'
p1926
aS'ship satan'
p1927
aS'glad glad love'
p1928
aS'well thats rude'
p1929
aS'storming really zeus'
p1930
aS'ever since make really happy'
p1931
aS'bella ily\xe2\x80\x9dilym'
p1932
aS'shes pretty'
p1933
aS'kiked'
p1934
aS'gonna disagree everything'
p1935
aS'cute stop'
p1936
aS'wouldnt dare love'
p1937
aS'fukin tell'
p1938
aS'find later'
p1939
aS'kisses'
p1940
aS'dont fukin know'
p1941
ag6
aS'cute'
p1942
aS'reply mine first'
p1943
aS'want'
p1944
aS'people follow pride love guys much'
p1945
aS'hottie'
p1946
aS'bella nice meet'
p1947
aS'really wanna fight nigga'
p1948
aS'stop'
p1949
aS'love'
p1950
aS'thats impossible love much'
p1951
aS'making sure butt face'
p1952
aS'pretty horrible lets talk'
p1953
aS'sorry'
p1954
aS'faves feel special'
p1955
aS'nigga fuck doin'
p1956
aS'smoking'
p1957
aS'diagnosed depression sorry negative time'
p1958
aS'happy thanks'
p1959
aS'like teen wolf guessing'
p1960
aS'frick'
p1961
aS'cutie'
p1962
aS'meant back'
p1963
aS'happy justin babe'
p1964
aS'missed loti ssed meofz\xe2\x80\x9dlmao missed spoon much'
p1965
aS'hate hashtag rude'
p1966
aS'fuck haters somebody loves rong'
p1967
aS'missed'
p1968
aS'justin'
p1969
aS'never good enough'
p1970
aS'live greece hotter'
p1971
aS'hate'
p1972
aS'text'
p1973
aS'need talk okay'
p1974
aS'want someone vent'
p1975
aS'text'
p1976
aS'blaze bella'
p1977
aS'fucking died last night'
p1978
aS'fucking close'
p1979
aS'actually wished could died last night'
p1980
ag6
aS'talk'
p1981
aS'pain'
p1982
aS'hospitals suck'
p1983
aS'guys'
p1984
aS'officially give'
p1985
aS'sorry'
p1986
aS'sorry sorry'
p1987
aS'sorry'
p1988
aS'sorry'
p1989
aS'done anymore'
p1990
aS'maybe kill youll notice'
p1991
aS'friend much'
p1992
aS'nothing'
p1993
aS'want someone actually want talk cant wait talk every'
p1994
aS'make feel worthless'
p1995
aS'dont alright'
p1996
aS'wish loved'
p1997
aS'rapper'
p1998
aS'close unfollowing'
p1999
ag6
aS'bellas selfie game strong \xf0\x9f\x92\xaa\xe2\x80\x9dlmao selfie game'
p2000
ag6
aS'back rude'
p2001
aS'hard type frock'
p2002
aS'holy shit freezing warm'
p2003
aS'unloved unwanted'
p2004
aS'cold like someone cuddle'
p2005
aS'really hate ignored dont fucking'
p2006
aS'lmao whatever anthony'
p2007
aS'said'
p2008
aS'loue hairy leeyum'
p2009
aS'ignore alright'
p2010
aS'messages wont send noah sorry'
p2011
aS'would heck bella hard\xe2\x80\x9d'
p2012
aS'someone talk'
p2013
aS'text lmao'
p2014
aS'shes cheerleader acne like gonna date'
p2015
aS'copies tumblr'
p2016
aS'starts minutes never bother'
p2017
aS'really follow freddy'
p2018
aS'crush nice ugly'
p2019
aS'time check guys butts tight pants'
p2020
aS'dont ignore'
p2021
aS'football game'
p2022
aS'nigga'
p2023
aS'know'
p2024
aS'apparently bella beautiful italian lmao'
p2025
aS'reasonstosmile n\xe2\x80\x9dyes'
p2026
aS'banned first minutes'
p2027
ag6
aS'better back nigga sweat jesus'
p2028
aS'whats going'
p2029
aS'bella shes beautiful girl ever every feature posseses'
p2030
aS'define bella'
p2031
aS'name slashes miss'
p2032
aS'lmao princess thats'
p2033
aS'sleep'
p2034
aS'playing around sorry'
p2035
aS'wanna change username'
p2036
ag6
aS'call mother'
p2037
aS'fucking annoying\xe2\x80\x9dyoure'
p2038
aS'heck bagged milk what\xe2\x80\x9dlmao stupid canadians'
p2039
aS'hate'
p2040
aS'stole heaft'
p2041
ag6
aS'anyone else scared relationships'
p2042
aS'smith'
p2043
aS'tyler back lmao good nigga caroline needed dumb'
p2044
aS'choke'
p2045
aS'fukin poop dont think wont'
p2046
aS'stip naking typos dammit'
p2047
aS'hate'
p2048
aS'matt sweat jesus'
p2049
ag6
aS'like thay name'
p2050
aS'bout shit'
p2051
aS'lmao whatever noah done'
p2052
aS'migga'
p2053
aS'human body trillion nerves people manage every single fucking'
p2054
aS'ddnt wrinkly said'
p2055
ag6
aS'asshole'
p2056
aS'whatever done'
p2057
aS'fuck'
p2058
aS'didnt want talk okay'
p2059
aS'everyone forgets'
p2060
aS'hasnt noah texted lmao'
p2061
aS'hate'
p2062
aS'calista fandom\xe2\x80\x9dno'
p2063
aS'gonna like picture lmao'
p2064
aS'nigga aint damn spoiler released everywhere'
p2065
aS'well mean annoying gonna complain turn love'
p2066
aS'finfers'
p2067
aS'stop fucking retweeting damn'
p2068
ag6
ag6
aS'fucking ugly maybe start wearing makeup itll hide lmao'
p2069
aS'based makeup'
p2070
aS'damons mine anyways lmao'
p2071
aS'facetime'
p2072
aS'jeremy working outnnjdj'
p2073
aS'ripper stefan come back'
p2074
aS'jeese'
p2075
aS'sorry idea people'
p2076
aS'life damon sweet frick'
p2077
aS'like stelena story'
p2078
aS'destiny trying together forever obviously hasnt worked something always happens isnt meant'
p2079
aS'text'
p2080
aS'channel'
p2081
aS'cutie'
p2082
aS'really wanna apart orgy'
p2083
aS'love much'
p2084
aS'everyone still school'
p2085
aS'justin cutest baby ever dont touch'
p2086
aS'watchin never never sllqle'
p2087
aS'shut fuck much metal'
p2088
aS'signs point'
p2089
aS'marry misha collins'
p2090
aS'using futurepeering skills determine answer maybe'
p2091
aS'test message type thingy used blackberry'
p2092
aS'anyone halloween icons'
p2093
aS'happy birthday mika love forever ever hope wonderful'
p2094
aS'unfollow cool'
p2095
ag6
aS'wincestcity saved lmao'
p2096
aS'wincestcity want karla'
p2097
aS'happy mine'
p2098
aS'josh really'
p2099
ag6
aS'abaddon cosplay pics\xe2\x80\xa6'
p2100
aS'okay good night sleep tight'
p2101
aS'give pumpkin'
p2102
aS'test serial killers'
p2103
aS'okay good night sleep tight'
p2104
aS'homocest'
p2105
aS'carroll\xe2\x80\x9d'
p2106
aS'cute'
p2107
aS'ever read serial killers'
p2108
aS'favorites breaks mutual'
p2109
aS'unfollow liked account'
p2110
aS'unfollowed fornthat'
p2111
aS'going politely stab neck giggle skip away\xe2\x80\x9d imagine serial killer'
p2112
aS'bundy favorite serial killer'
p2113
aS'strong obsession serial killers'
p2114
aS'existed dean would happy'
p2115
aS'existed people wouldnt suffer lmao'
p2116
aS'whos real lmao'
p2117
aS'licked knife tasted gross'
p2118
aS'bella best\xe2\x80\x9d yeah'
p2119
aS'really liked movie okay cant look elevators'
p2120
aS'quoted movie devil'
p2121
aS'devil real must real lmao'
p2122
aS'yellin'
p2123
aS'bitch'
p2124
aS'thought halee icon'
p2125
aS'cant'
p2126
aS'ignored week lmao'
p2127
aS'urge unfollow strong\xe2\x80\x9dthen lmao'
p2128
aS'stop chnging damn name'
p2129
aS'hury'
p2130
aS'fuck stelena delena said like stds'
p2131
aS'janoskians might annoying people face earth'
p2132
aS'loved matt since season ever since still trying elena'
p2133
aS'lmao much anymore want matt happy everything still functioning'
p2134
aS'stefan trend lmao'
p2135
aS'klaus needs come back fuck originals'
p2136
aS'little white boy\xe2\x80\x9dsame'
p2137
ag6
aS'matt ends supernatural done'
p2138
aS'never liked tyler since tried rape vivian thats name'
p2139
aS'matt needs little life\xe2\x80\x9dwhen found rebekah hooking like'
p2140
aS'living hard dying easy'
p2141
aS'things kids scared whole childhood'
p2142
aS'really tired trying brave honestly quit'
p2143
aS'make people happy good it\xe2\x80\x9dhow make urself happy lmoa'
p2144
aS'none would notice dead anyways'
p2145
aS'want already'
p2146
aS'wish could without letting people'
p2147
aS'cant thsi aynmore'
p2148
aS'stop\xe2\x80\x9dsorry'
p2149
ag6
aS'hope know sorry'
p2150
aS'want badyl'
p2151
aS'least people care'
p2152
aS'watch'
p2153
aS'annoying'
p2154
aS'send'
p2155
aS'wont anyone talk'
p2156
aS'cries makeup'
p2157
aS'perfect point'
p2158
aS'want burst tears none care'
p2159
aS'make laugh hard'
p2160
aS'phallophobia fear penises'
p2161
aS'hate'
p2162
aS'appreciates'
p2163
aS'ever fucking listens'
p2164
aS'haha something blow done'
p2165
aS'love much please forgive fuck going happy birthday hope best ever youre'
p2166
aS'feel like friend didnt know 23rd fuck please forgive noah makenejwn'
p2167
aS'whisper back'
p2168
aS'loved hard'
p2169
aS'person like back lmao'
p2170
aS'perfect thats married jared'
p2171
aS'kiks never send'
p2172
aS'gonna make'
p2173
aS'remember protection'
p2174
aS'like biggest plot twist time drake becominh ugly josh becoming'
p2175
aS'kiks sending'
p2176
aS'destiel forever lmao'
p2177
aS'damn someone give award blocked many people\xe2\x80\x9d'
p2178
aS'everyone school said funny lmao'
p2179
aS'food struggle real'
p2180
aS'need thor'
p2181
aS'knows youre saying'
p2182
aS'wait people seriously want dean sex\xe2\x80\x9dthey already'
p2183
aS'kiks havent sending lmao'
p2184
aS'trapped elevator hell nigga'
p2185
aS'gonna syart'
p2186
aS'devil people trapped elevator netflix always wanted'
p2187
aS'halloween curse michael netflix'
p2188
aS'version carrie netflix watch'
p2189
aS'people stupid'
p2190
aS'insidious gayest'
p2191
aS'scary movies dumb'
p2192
aS'watch last exorcism'
p2193
aS'make'
p2194
aS'hello natalie'
p2195
ag6
aS'ever want touch jared padaleckis chest\xe2\x80\x9dno want touch lmao'
p2196
aS'anthony spam'
p2197
aS'nigga'
p2198
ag6
aS'tired know usual'
p2199
aS'good scary movies netflix mood'
p2200
aS'talk'
p2201
aS'talk'
p2202
aS'talk'
p2203
aS'talk'
p2204
aS'talk'
p2205
aS'someone talk'
p2206
aS'cool'
p2207
aS'hurry damn'
p2208
aS'ignore haha alright'
p2209
aS'movie made laugh bloody valentine jensen'
p2210
aS'like michael myers halloween movies kills everyone first mins think lmao'
p2211
aS'freddys head gets still alive okay love freddy'
p2212
aS'like freddy jason meet jason scared water freddys like yeah scared water haha sucker'
p2213
aS'like freddy jason cute'
p2214
aS'like michael myers movies better jason freddy'
p2215
aS'gayest movie ever'
p2216
aS'childs play comedy instead horror mean'
p2217
aS'even watching lmao'
p2218
aS'feel like everyone left'
p2219
aS'sorry baby'
p2220
aS'problem people arent ment awake morning dunno senior quote'
p2221
aS'lazy'
p2222
aS'frick want'
p2223
aS'ever going talk'
p2224
aS'happened school'
p2225
aS'okay hope feel better'
p2226
aS'fine hope feel better'
p2227
aS'okay'
p2228
aS'dont know havent read'
p2229
aS'plus dont money'
p2230
ag6
ag6
aS'lmao twitter talked days'
p2231
aS'bout damn time fourtris'
p2232
aS'tris four'
p2233
aS'someone tell house hades'
p2234
aS'already taken tests second period need tissues tears'
p2235
aS'still reading insurgent'
p2236
aS'cant handle theo james tobias'
p2237
aS'ansel cale'
p2238
ag6
aS'watch voice study'
p2239
aS'didnu send said'
p2240
aS'hate everyone everything\xe2\x80\x9dbut love'
p2241
aS'good night darling'
p2242
aS'teardrop right allegiant next feelings explained title'
p2243
aS'bout smoking'
p2244
aS'want tell love hope good'
p2245
ag6
aS'allegiant'
p2246
aS'question going become friends pointless follow'
p2247
aS'since reply people'
p2248
aS'frick'
p2249
aS'afraid watc'
p2250
aS'supernatural'
p2251
aS'think dean emotionally confused fuck fuck'
p2252
aS'blocked anyways really dont need'
p2253
aS'lmao saying lmao'
p2254
aS'going block everyone mentioning pissing'
p2255
aS'theyre still talking'
p2256
aS'away jesus christ'
p2257
aS'watching lmao'
p2258
aS'isnt unfollowing someone lmao'
p2259
aS'neither relationships sweetheart'
p2260
aS'throwing friendship away fuck supposed react'
p2261
aS'wasnt rude'
p2262
aS'destiel happening'
p2263
aS'went instead twice enough kill'
p2264
aS'like honestly guys arent going married whatever throw friendships away'
p2265
aS'cool unfollow want said wanted friends'
p2266
aS'lmao okay'
p2267
aS'lmao isnt'
p2268
aS'pornography'
p2269
aS'wanna watch'
p2270
aS'dean fuck impala \xe2\x80\x9dkarla'
p2271
aS'yeah pretty much'
p2272
aS'friend shit bird'
p2273
aS'didnt wanna know detail frick'
p2274
aS'fuck dont spoilt fucki'
p2275
ag6
aS'rude didnt care thought'
p2276
aS'book'
p2277
aS'supernatural mean life'
p2278
aS'woah misha slow dont limit'
p2279
aS'dont know fuck youre pissed hours unfollowed early morning annoyed lmao'
p2280
aS'easy'
p2281
aS'unfollowed said sorry unfollowing lmao'
p2282
aS'lmao sorry unfollowed'
p2283
aS'going block nigga'
p2284
aS'yall watching stay alive xoxo'
p2285
aS'light fire'
p2286
aS'livetweet'
p2287
aS'lmao minutes cant watch hate mlife'
p2288
ag6
aS'cant watch live fuck everything'
p2289
aS'dont'
p2290
aS'hate'
p2291
aS'wont fucking watch supernatural worse'
p2292
aS'taking fucking break'
p2293
aS'fucking irritating says point flaws seems like pointing mine\xe2\x80\x9dnever'
p2294
aS'lmao away'
p2295
aS'going home like lmao'
p2296
aS'dressed miley suspended'
p2297
aS'status update today bella wants watch world burn'
p2298
aS'wildcat always wildcat hell yeah'
p2299
aS'nigg school'
p2300
aS'block dont wanna lose follow lmao'
p2301
aS'lose respect throw friendship away lmao gonna married'
p2302
aS'lmao thanks'
p2303
aS'doesnt look like'
p2304
aS'hope good school'
p2305
aS'like threatened ezekiel account followed lmao'
p2306
ag6
aS'spammed'
p2307
aS'follow ashton lame band 5sos gets'
p2308
aS'bestfriend lmao'
p2309
aS'liked evan peters since like phil future'
p2310
aS'heard like evan peters'
p2311
aS'ones talking lmao alright'
p2312
aS'cream truck demon blood flavor dont'
p2313
aS'brother wont'
p2314
aS'brother wont confess love fallen angel'
p2315
aS'someone afterwards'
p2316
aS'come home make spaghe wait shes dead'
p2317
aS'apocalypse'
p2318
aS'fuck fuck fuckoyu'
p2319
aS'thursday check collection first fans shop'
p2320
aS'okay shave'
p2321
aS'fucking shave'
p2322
aS'long time'
p2323
aS'going sleep'
p2324
aS'slap justin upside head'
p2325
aS'choked orange juice driving thought gonna okay love thought'
p2326
aS'said nothing'
p2327
ag6
aS'still waiting'
p2328
aS'must like justin calista follow tbh\xe2\x80\x9dand'
p2329
aS'supernatural supernatural everything'
p2330
aS'either lmao'
p2331
aS'barely guys turn heads even talk'
p2332
aS'lmao'
p2333
aS'michael'
p2334
ag6
aS'post selfie dont want blind darling'
p2335
aS'lmao prettier'
p2336
aS'send cute things'
p2337
aS'moisturize ketchup heard good moisturizer'
p2338
aS'never asked date'
p2339
aS'never asked dances lmao'
p2340
aS'fuck fandom prom lmao sounds hella dumb'
p2341
aS'even mean anymore'
p2342
aS'dogs cats thats hehe\xf0\x9f\x99\x8a\xe2\x80\x9du agree dogs better'
p2343
ag6
aS'said spam'
p2344
aS'send stuff nigga'
p2345
aS'angry'
p2346
aS'chtie'
p2347
aS'send stuff'
p2348
aS'wanna adams face fuck'
p2349
aS'theyre maroon song fuck life lovr yhis song'
p2350
aS'love'
p2351
aS'quote funny tumblr post think need laugh'
p2352
aS'home alone someone come'
p2353
aS'direct indirect'
p2354
aS'porn'
p2355
aS'cant wait xrated scene finally pornhub'
p2356
aS'casual smiley face conversation anthony'
p2357
aS'tired sleep\xe2\x80\x9dyes rest baby'
p2358
aS'youre allowed youre like walgreens open'
p2359
aS'supposed studying feel lucky talking lmao'
p2360
ag6
aS'dont know phone charging'
p2361
aS'love account'
p2362
aS'love account love'
p2363
aS'fuck fucking falsetto mmekskmmdmdj'
p2364
aS'gonna listen hold tight dark'
p2365
aS'hate tamps hate tamps hate tamps hate tamps hate tamps hate tamps hate tamps hate tamps hate tamps hate tamps hate tamps\xe2\x80\xa6'
p2366
aS'dont feel worthless pets face'
p2367
aS'notice'
p2368
aS'stop unfollowing thats cyberbullying know'
p2369
aS'lmao ignoring though'
p2370
aS'cool'
p2371
aS'never felt worthless thanks guys'
p2372
aS'justin hold tight playing dang flabbit wanka song'
p2373
aS'positions justin bieber'
p2374
aS'whyd follow wondering'
p2375
aS'juston'
p2376
aS'lmao antonia'
p2377
aS'nigga'
p2378
aS'lmao'
p2379
aS'spamming'
p2380
aS'unfollow'
p2381
aS'want break mutuals'
p2382
aS'hate ignored hate'
p2383
aS'call'
p2384
aS'personally think make great girlfriend like would cuddles sweaters shut'
p2385
aS'cute okay love'
p2386
aS'hard explain blessed make smile laugh giggle come'
p2387
aS'lmao thanks'
p2388
ag6
ag6
aS'love much youre amazing friend'
p2389
aS'recommend wincest fics'
p2390
aS'remember said hope friends yeah'
p2391
ag6
aS'snapchat bored'
p2392
aS'father obey'
p2393
aS'fandom prom lmao fuck even'
p2394
aS'dont'
p2395
aS'someone talk thank'
p2396
aS'video send'
p2397
aS'something isnt violate feel violated'
p2398
aS'ship name actual word lmao'
p2399
aS'hashtag rude'
p2400
aS'theres prom lmao cringe'
p2401
aS'boycott give second look come cool comeback tjank'
p2402
ag6
aS'bulls\xe2\x80\x9dbills cash flow'
p2403
ag6
aS'lmao thinks'
p2404
aS'remember dean'
p2405
aS'talk dont talk'
p2406
aS'karla love karla'
p2407
aS'love'
p2408
aS'said hates'
p2409
aS'hate except noah'
p2410
aS'doggies slaves humanity\xe2\x80\x9dgasp'
p2411
aS'balls\xe2\x80\x9dbells'
p2412
aS'wanna talk dont wanna talk lmao work'
p2413
aS'dogs'
p2414
aS'really girls netflix shes straight damn'
p2415
aS'wont shut'
p2416
aS'whats difference cats babies none lmao'
p2417
aS'pretty cute'
p2418
aS'wont'
p2419
aS'hate cats passion even offered choke demon'
p2420
aS'since yall like cats'
p2421
aS'going choke fuckin shut hell jesus christ cats annoying'
p2422
aS'screenshot snapchat notifications'
p2423
ag6
aS'lmao cute thank'
p2424
aS'talk'
p2425
aS'making angry school making angry everything making angry hate everything'
p2426
aS'meant anthony'
p2427
aS'lmao anthoy'
p2428
aS'fake cheese'
p2429
aS'penis'
p2430
aS'solo'
p2431
aS'glad jordan makes happy shes amazing\xe2\x80\x9d lmao'
p2432
aS'mean dont'
p2433
aS'lmao like penis'
p2434
aS'everyones'
p2435
aS'barely week'
p2436
aS'mishgggag'
p2437
aS'test'
p2438
aS'chapter theyre currently'
p2439
aS'really cringey basic love yall though'
p2440
aS'cringe'
p2441
aS'heck yeeessss'
p2442
aS'anyways hope grwat'
p2443
aS'annoyed'
p2444
aS'lmao joshdan really cringy'
p2445
aS'teacher told stop sucking thank'
p2446
aS'pick nose'
p2447
ag6
aS'dont like holdtight youre probably lesbian'
p2448
aS'love'
p2449
aS'room alone turn lights listen holdtight musicmondays spread word'
p2450
aS'justin'
p2451
aS'hope good love much'
p2452
aS'glad'
p2453
aS'gonna listen holdtight lday'
p2454
aS'listening hold tight'
p2455
ag6
aS'fuckin'
p2456
aS'fork'
p2457
aS'hope guys good'
p2458
aS'baby'
p2459
aS'appreciated'
p2460
aS'nice appreciated'
p2461
aS'even together made josh theyd still friends didnt thank'
p2462
aS'plus told shove everywhere gets annoying'
p2463
aS'laughing cringy things'
p2464
aS'good night ilysm'
p2465
aS'taking break homework getting nice refreshing drink'
p2466
ag6
aS'hope good night'
p2467
ag6
aS'love okay'
p2468
aS'glad love'
p2469
aS'thank'
p2470
aS'twitter made smile'
p2471
aS'everyone talking carrie'
p2472
aS'care theres reason thank'
p2473
aS'recent photo shoot behindthescenes shot captured instant flexed muscles'
p2474
aS'rude'
p2475
aS'understand'
p2476
aS'make really happy love muhc'
p2477
aS'sorry kind offended people expect nice time'
p2478
aS'ouch'
p2479
aS'bella'
p2480
aS'holdtight better sexual justin'
p2481
aS'hate nice people walk lmao'
p2482
aS'means lott hank'
p2483
aS'holla friend want smth cheer'
p2484
aS'sorry really negative sucks youre appreciated'
p2485
aS'people suck'
p2486
aS'horrible'
p2487
aS'doesnt really matter prefer'
p2488
aS'well'
p2489
aS'anything'
p2490
aS'need someone vent lmao'
p2491
aS'wont open dammit'
p2492
aS'honestly need friend talk thats'
p2493
ag6
aS'lmao cheer'
p2494
aS'want someoje genuinely care'
p2495
aS'nothing really like always'
p2496
aS'doesnt look like'
p2497
ag6
aS'lmao'
p2498
aS'complain sorry'
p2499
aS'want fucking appreciated'
p2500
aS'okay'
p2501
aS'someone needs friend ones cool'
p2502
aS'ungrateful'
p2503
aS'lmao never thank'
p2504
aS'want loved lmao'
p2505
aS'wait cant blocked'
p2506
aS'thank'
p2507
aS'seriously like someone crush'
p2508
aS'seriously like someone crush'
p2509
aS'promised nude picture'
p2510
aS'guys'
p2511
aS'sounds like band'
p2512
aS'justin'
p2513
ag6
aS'read'
p2514
aS'bless lord'
p2515
aS'emotionally physically exhausted pain'
p2516
aS'lmao lord loves'
p2517
aS'laughed loud favorited bless soul'
p2518
aS'isnt show cant stand walking dead didnt sign this\xe2\x80\x9dsame'
p2519
aS'cant everyone unblock retweet fuckin'
p2520
aS'like doesnt care form guys'
p2521
aS'thank made josh'
p2522
aS'season'
p2523
aS'vote time chumfmcom'
p2524
aS'anhtony'
p2525
aS'ship'
p2526
aS'sorry'
p2527
aS'celeb music mondays shoot originality cunts'
p2528
aS'people accounts protected stop damn pussy know talk'
p2529
aS'remember reply justins tweet'
p2530
ag6
aS'baby love'
p2531
aS'alfredo justin confirmed holdtight gonna sexual'
p2532
aS'thisrightheresapantydropper'
p2533
aS'ready midnight tonight holdtight musicmondays\xe2\x80\x9dno'
p2534
aS'yeah thank know'
p2535
aS'drama sometimes twitter lame\xe2\x80\x9dfavorites cant favorite blocked'
p2536
aS'enjoying'
p2537
aS'hard someone like'
p2538
aS'episode'
p2539
aS'leave josh alone great lmao'
p2540
aS'actually wanna talk lmao shoot'
p2541
aS'cutie frickin'
p2542
aS'twitter population blocked lmao'
p2543
aS'smell lies'
p2544
aS'thought gonna watch netflix lied'
p2545
aS'justin really attractive'
p2546
ag6
aS'mean cowboys'
p2547
aS'haha retweeted'
p2548
aS'matters'
p2549
aS'lmao delete'
p2550
aS'look booty show booty give booty want booty back booty need booty like'
p2551
aS'game'
p2552
aS'mike teen wolf fandom'
p2553
aS'someone talk bored'
p2554
aS'wonder like someone crush'
p2555
asS'2013_46'
p2556
(lp2557
S'rude felt like attacking'
p2558
aS'dont joking'
p2559
aS'thats funny dont thank everyone support'
p2560
aS'tweeted lmao dont shut'
p2561
aS'know deserve hate sorry'
p2562
aS'threatening tried lmao'
p2563
aS'stop trying dont'
p2564
aS'fuck'
p2565
aS'actually tweeted first'
p2566
ag6
aS'done'
p2567
aS'even bothering simple conversation jesus'
p2568
aS'cant anymor done'
p2569
aS'dont making difficult'
p2570
aS'dont none'
p2571
aS'think havent already tried getting help dont feel comfortable telling stranger fucking feel'
p2572
aS'leave alone please leave'
p2573
aS'never said reason'
p2574
aS'shut michael irrelevant'
p2575
aS'whatever want'
p2576
aS'back people mentions please'
p2577
aS'take medicine think'
p2578
aS'time lmao fuck'
p2579
aS'started saying stop tweeting'
p2580
aS'dont rude time suggestion'
p2581
aS'goes deeper honestly doubt understand'
p2582
aS'start stop tweeting'
p2583
aS'even laughing lmao actually crying thanks implying shit person'
p2584
aS'dont understand dont expect'
p2585
aS'threatening suicide anyone hospital stop acting like know everything lmao'
p2586
aS'dont need help lmao'
p2587
aS'past weeks actually came today'
p2588
aS'whatever want lmao'
p2589
aS'dont understand stop acting like'
p2590
aS'dont understand fact diagnosed depression fuck'
p2591
aS'unfollowed tweeting'
p2592
aS'know everyone hates matter kill lmao'
p2593
aS'fuck waste skin'
p2594
aS'finen rude'
p2595
aS'dont even kmow actually tried commiting suicide'
p2596
aS'sick continue friend'
p2597
aS'bella mentioning suicide note thanks'
p2598
aS'yeah piece shit dptop remind ming'
p2599
aS'hateyou wish never came back'
p2600
aS'done fuck'
p2601
aS'kill self'
p2602
aS'wasnt fucking rude jesus christ great friend taking sides'
p2603
aS'hate'
p2604
aS'already done'
p2605
aS'piece shit thanks girl'
p2606
aS'arent friends'
p2607
aS'maybe unblocked wouldnt problem darling'
p2608
aS'fuck karla nothing really wanna argue number'
p2609
aS'actually deactivated week thats irrelevent'
p2610
aS'would rather herpes pass\xe2\x80\x9du make sense fuck mentions'
p2611
aS'wishing youd fuck helps sleep night'
p2612
aS'mentions'
p2613
aS'lmao suck dick'
p2614
aS'threaten nothing laughing hard'
p2615
aS'dont care whos right wrong lmao'
p2616
aS'never cunt defensive noah dont like lorde fucking opinion dumbass'
p2617
aS'even talking saying irrelevant conversation lmao'
p2618
aS'funny thing friends internet never ever meet matter'
p2619
aS'dont even bother tweet cast lives lmao'
p2620
aS'devote life internet people dont know exist awesome'
p2621
aS'youre bitch'
p2622
aS'going killing spree fucking annoying'
p2623
aS'back pussy blocking annoying self shut fuck jesus christ'
p2624
aS'gonna thing convo bustyasians jaredpadalcki'
p2625
aS'xoxo'
p2626
aS'shit hate deactivating'
p2627
aS'bitch laughing'
p2628
aS'back blocking fine lmao'
p2629
aS'sure youre cant think that\xe2\x80\x9dand bitch everyone lmao dont even'
p2630
aS'internet wont meet years really dont give shit lmao'
p2631
aS'know dont fucking care lmao'
p2632
aS'always bitch stop acting like know'
p2633
aS'dont need help pretty good talking'
p2634
aS'demand back teenwolf'
p2635
aS'whatever want lmao'
p2636
aS'stupid lmao'
p2637
aS'wasnt expecting help going dont need help lmao'
p2638
aS'talking lorde dont come like know whats going lmao'
p2639
aS'selena gomez'
p2640
aS'trying nice excuse'
p2641
aS'hashtag'
p2642
aS'bashed perfect person ever care lmao'
p2643
aS'hashtag'
p2644
aS'people suck lmao'
p2645
aS'opinion right'
p2646
aS'dont want fight good'
p2647
aS'freaking said stop fucking replying jesus christ'
p2648
aS'well year born'
p2649
aS'like year'
p2650
aS'lmao'
p2651
ag6
ag6
aS'young nigga'
p2652
aS'stop replying'
p2653
aS'annoyed'
p2654
aS'bald still gorgeous'
p2655
aS'gets emotional whenever sings wrecking ball literally perfect'
p2656
aS'anthony change back teenwolf feel empty'
p2657
aS'lmao sorry getting defensive piss sometimes'
p2658
aS'watching hannah montana earlier cried miley grown much'
p2659
aS'hasnt direction'
p2660
aS'congrats baby deserve'
p2661
aS'dont care sucks doesnt deserve famous'
p2662
aS'sick tired justin bieber little fucker pissing off\xe2\x80\x9dhes perfect'
p2663
aS'watched royals music video lmao stupid'
p2664
ag6
aS'shes great singer heard better lmao'
p2665
aS'royals isnt even good song overplayed'
p2666
aS'lorde even famous'
p2667
asS'2013_47'
p2668
(lp2669
S'remember used talk'
p2670
aS'karla still friends'
p2671
asS'2013_44'
p2672
(lp2673
S'well mean dont would lmao want talk'
p2674
ag6
aS'dont even talk lmao'
p2675
aS'like care anyways'
p2676
aS'deactivating sorry'
p2677
ag6
ag6
aS'taking another break anyways'
p2678
aS'least could text back days lmao'
p2679
aS'gonna take another break hate'
p2680
aS'cares want\xe2\x80\x9dlol'
p2681
aS'well mean gone days'
p2682
aS'dont want'
p2683
aS'dont miss okay'
p2684
aS'many bruises help'
p2685
aS'nigga'
p2686
ag6
aS'dont want answer anyone lmao'
p2687
ag6
aS'brother'
p2688
aS'thats great artwork finished everyone would love'
p2689
aS'bitch'
p2690
aS'lmao ungrounded already'
p2691
aS'deep trouble wont month lmao sorry guys'
p2692
aS'respect justin caring person take shoes give need would'
p2693
aS'never knew cutting good lmao'
p2694
aS'want fucking kill mywelf'
p2695
aS'maybe truly liked'
p2696
aS'asked dont date anybody answered dont like anybody really complete opposite'
p2697
aS'want liked somebody haha'
p2698
aS'havent texted back though'
p2699
aS'feel like start wearing makeup haha'
p2700
aS'understands ever'
p2701
aS'probably scrolls goes funny'
p2702
aS'called supernatural horror laughed loud almost puked'
p2703
aS'shsow'
p2704
aS'show hands masterbated today'
p2705
aS'amazing ilysm\xe2\x80\x9dno'
p2706
aS'dinne'
p2707
aS'want kill'
p2708
aS'never wanted come back twitter'
p2709
ag6
aS'none fucking care done'
p2710
aS'give'
p2711
aS'unfollow everyone misha'
p2712
aS'calum follow make happy'
p2713
aS'thank ignoring'
p2714
aS'lmao talking thanks'
p2715
aS'ketchup\xe2\x80\x9dis gross'
p2716
aS'didnt want come back first place hate'
p2717
aS'noah talking lmao'
p2718
aS'miss nigga'
p2719
aS'done'
p2720
aS'want deactivate mean point'
p2721
aS'legs already looking rough havent shaved week well'
p2722
aS'fine'
p2723
aS'love talking bella cute nice\xe2\x80\x9d'
p2724
aS'shave november heads'
p2725
aS'lady probably thinks 5sos bunch crazy people well true'
p2726
aS'girls ashton talking'
p2727
aS'ashton follow spree start'
p2728
aS'ashton love'
p2729
aS'5sos makes really happy'
p2730
aS'calum dont touch shield'
p2731
aS'panda express mean like fast food yeah like panda express ashton'
p2732
aS'calum follow'
p2733
aS'cute'
p2734
aS'okay'
p2735
aS'follow'
p2736
aS'hopenu'
p2737
aS'like'
p2738
aS'always sleeping'
p2739
aS'lmao twitter pointless dont anymore'
p2740
aS'wasnt going'
p2741
aS'havent badday thank'
p2742
ag6
aS'seeing smile gets badday'
p2743
aS'leaving'
p2744
aS'dont pokin spokin'
p2745
aS'busty asian'
p2746
aS'dont thang raaaaang'
p2747
aS'youre cute make happy'
p2748
aS'hate love'
p2749
aS'valentines special myfos'
p2750
aS'justins cute hard laugh'
p2751
ag6
aS'bring paints know much loves'
p2752
aS'sleep no\xe2\x80\x9dsleep amazing'
p2753
aS'always something lmao love sleeping'
p2754
aS'really boring like life without twitter'
p2755
aS'well mainly school hang family friends lmao'
p2756
aS'yeah pretty much want leave'
p2757
aS'really state last weekend needed leave lmao'
p2758
aS'lets talk going catching fire private showing'
p2759
aS'better'
p2760
aS'cant brush teeth left hand shit impossible'
p2761
aS'missed'
p2762
aS'josh always talked much'
p2763
aS'wish josh best luck know gets back feet thank ryan'
p2764
aS'ever always'
p2765
aS'john tucker must favorite movie'
p2766
aS'well fixing sleep'
p2767
aS'probably wont often'
p2768
aS'replied'
p2769
aS'love'
p2770
aS'arent'
p2771
aS'also gonna watch stephen kings funny'
p2772
aS'gonna watch carrie 1976 kinda weird lmao'
p2773
aS'people afraid clowns theyre lonely makeup'
p2774
aS'missed'
p2775
aS'boobs saggy'
p2776
aS'really wanted femcas year wasnt mood lazy next year'
p2777
aS'love okay'
p2778
aS'better'
p2779
aS'cute'
p2780
aS'cutie ilym'
p2781
aS'happy love'
p2782
aS'weird letters hashtag basic love'
p2783
aS'happy glad happy'
p2784
aS'halloween called cute'
p2785
aS'alina'
p2786
ag6
aS'missed guys'
p2787
aS'everyone'
p2788
ag6
asS'2013_45'
p2789
(lp2790
S'brother asked grownup girls boobies'
p2791
aS'whats'
p2792
aS'gonna answer'
p2793
aS'watch netlflix'
p2794
aS'lmao wrong'
p2795
aS'followed nigger'
p2796
aS'whats instagrams guys'
p2797
aS'dont follow liked tweet'
p2798
aS'watching monsters university'
p2799
aS'doin'
p2800
ag6
aS'live'
p2801
aS'hate twitter'
p2802
aS'lmao'
p2803
aS'dont fucking care'
p2804
aS'excuse coming back twitter feeling welcomed'
p2805
aS'twitter name really thought missed guess wrong'
p2806
aS'going deactivate never come back obvious yall dont need anymore'
p2807
aS'dont need karla came back least could happy'
p2808
aS'talks unless needed hate'
p2809
aS'lmao well'
p2810
ag6
aS'twitter stupid dont know lmao'
p2811
aS'suck'
p2812
aS'guess thats'
p2813
aS'fuck'
p2814
aS'anyone miss'
p2815
aS'whats account look like'
p2816
aS'guys'
p2817
ag6
as.