(dp0
S'2013_43'
p1
(lp2
S'running boston childrens hospital make donation'
p3
asS'2012_49'
p4
(lp5
S'gotta'
p6
aS'totally sick'
p7
aS'reminder everyday'
p8
asS'2012_48'
p9
(lp10
S'loves'
p11
asS'2012_45'
p12
(lp13
S'make martinez running back'
p14
aS'calling golfers runners check alson donate cause'
p15
aS'boston today believetour'
p16
aS'pure green coffee weight loss'
p17
aS'running 2013 boston marathon childrens hospital donate 2013bostonmarathon'
p18
aS'need learn shut mind'
p19
aS'raspberry ketones really work'
p20
aS'yesterday minuteseven though hate'
p21
asS'2012_44'
p22
(lp23
S'veterans afternoon stangers kiddos'
p24
aS'construction'
p25
aS'dont sessions week hill repeats speed work interval training bust lungs'
p26
aS'favorites make benefit bostons childrens hosp running boston2013'
p27
aS'auen pumpkins happy halloween'
p28
aS'back school work dance today hope everyone made hurricanesandy'
p29
aS'committed 5000 help sandy dont forget plus free shipping'
p30
aS''
p31
aS'notice'
p32
asS'2012_47'
p33
(lp34
S'sweet sweet little'
p35
aS'days'
p36
ag31
aS'impossible dont exist 2013bostonmarathon'
p37
asS'2012_46'
p38
(lp39
S'check'
p40
aS'better face things head hide inspiration'
p41
ag31
aS'quick fast mile morning darkday light savingsnot 2013bostonmarathon'
p42
aS'running makes happy believe inspiration'
p43
aS'best husband everrrrrr 4ever best long time'
p44
aS'definitely sick last month cant shake damn sinus infgrrr hope trainings going well'
p45
aS'awesome congrats running childrens hospitalsuch honor 2013bostonmarathon charity'
p46
aS'mile beautiful springlike dayjust cant shake cold grrrrr2013bostonmarathon'
p47
aS'days everything feels like going wrong fall apart tomorrow strong'
p48
asS'2012_43'
p49
(lp50
S'miles prehurricanevery windy felt strong boston2013 well'
p51
aS'always rock never ever getting back together bring emma school lt3s'
p52
aS'watched taylor ellen daughterheading album'
p53
aS'love showwatch dvrbut love scare scenes dancing behind people segments follow please'
p54
aS'people keep asking names justin guess first retweet promisin'
p55
aS'please'
p56
aS'year loves youshe would never believe followed puhleez first bostonian maybe'
p57
aS'seriously youre tour coming boston soonfollow'
p58
aS'gettin finally'
p59
aS'dont forget'
p60
ag31
aS'angel visiting making dreams come true hoping able donate boston childrens hosp'
p61
aS'cant enough dont know living unless know giving'
p62
aS'enjoy journeyi every step love forever always'
p63
asS'2012_42'
p64
(lp65
S'registered 25th annual feaster five road race'
p66
aS'girls night soon boston love'
p67
aS'awesome dinner hubs willys'
p68
aS'follow'
p69
ag31
aS'hope help'
p70
aS'love forever always'
p71
aS'waiting wife tweet'
p72
aS'miles today felt good couldve forever boston2013'
p73
aS'running boston marathon charity hope'
p74
aS'first tweet hubbys'
p75
ag31
aS'twitter'
p76
asS'2013_24'
p77
(lp78
S'posted photo auen estate'
p79
aS'daddys little girl'
p80
aS'like father like mass'
p81
aS'watching bruins missing half'
p82
aS'back sweatymama strongbody bringiton boroughs family branch ymca'
p83
aS'little dancer forever dancing auen estate'
p84
asS'2013_25'
p85
(lp86
S'bostonstrong stonehamstrong stoneham town common'
p87
aS'coughing lung stop smoking cigarette'
p88
asS'2013_26'
p89
(lp90
S'reading tatnuck wonderful sight tatnuck booksellers'
p91
aS'thank buddy emily xoxo instacollage auen estate'
p92
aS'7amemma cakes enjoying summer vacation auen estate'
p93
asS'2013_27'
p94
(lp95
S'dancers pose even beast childrens museum providence childrens museum'
p96
aS'likefatherlikeson'
p97
aS'seriously cool dude toocuteforwords summerdays narragansett beach'
p98
aS'cold brrr narragansett beach'
p99
asS'2013_21'
p100
(lp101
S'powerful moment copley square'
p102
aS'ready swimming auen estate'
p103
aS'brushin'
p104
asS'2013_22'
p105
(lp106
S'love town shrewsbury'
p107
asS'2013_23'
p108
(lp109
S'please please please open door need work saturday bloomingdales'
p110
asS'2013_28'
p111
(lp112
S'greatest gifts love'
p113
aS'little thing joke abroller mamashurtin totalbodyworkout ymca'
p114
asS'2013_29'
p115
(lp116
S'boston strong mile morning bostonstrong landing long wharf'
p117
aS'free weekend scottandkim lovesamadams doyles cafe'
p118
aS'seriously full silliness take fullofpersonality\xe2\x80\xa6'
p119
aS'acro acro acro camp elite elite academy dance'
p120
aS'another tooth bites dust cutestemmaever'
p121
aS'cool dude dentist toocoolforschool dental place'
p122
aS'silly emma auen estate'
p123
aS'sweatymess sodonewiththisweather boroughs family branch ymca'
p124
asS'2013_5'
p125
(lp126
S'finally received mail cant wait wear support boston childrens hospital\xe2\x80\xa6'
p127
aS'best buddiesjacky bear scout auen estate'
p128
aS'emma years agoseems long auen estate'
p129
asS'2013_7'
p130
(lp131
S'added closet poshmark patchwork blazerjacket shopmycloset'
p132
aS'added closet poshmark tall brown boots shopmycloset'
p133
aS'added closet poshmark lucky brand ballet flats size 9m39 shopmycloset'
p134
aS'hows training going'
p135
aS'miles yesterday miles bike today beast mode'
p136
aS'join fashion shopping network shopping closets together sign code hcabj credit'
p137
aS'sleepy baby auen estate'
p138
aS'running partner todays heartbreak hill newton'
p139
asS'2013_6'
p140
(lp141
S'emma cakes standing snow auen estate'
p142
aS'jacky bear auen estate'
p143
aS'suburb living auen estate'
p144
aS'upgrade auen estate'
p145
aS'nemo auen estate'
p146
aS'weeks boston donated'
p147
aS'blame everyone anything makes feel focus others'
p148
aS'husband done boston times turn know seen runs'
p149
aS'yeah know fingers crossed going team miler saturday able team'
p150
aS'derry miler'
p151
aS'going great boston marathon excited derry 16miler last weekend tough race worth'
p152
asS'2013_3'
p153
(lp154
S'bostonmarathontrainings photo'
p155
aS'cool light fixtures grand foxwoods'
p156
aS'love auen estate'
p157
asS'2013_2'
p158
(lp159
S'happy running makes happier unhappy running reminds strong'
p160
aS'donate year'
p161
asS'2013_9'
p162
(lp163
S'best friends auen estate'
p164
asS'2013_8'
p165
(lp166
S'really real auen estate'
p167
aS'protector auen estate'
p168
aS'added closet poshmark jcrew pink ankle length chinos shopmycloset'
p169
aS'added closet poshmark hampm chambray miniskirt shopmycloset'
p170
aS'added closet poshmark blue label ralph lauren denim shopmycloset'
p171
aS'added closet poshmark nautical stripe sweater dress shopmycloset'
p172
aS'added closet poshmark sparkle tank shopmycloset'
p173
aS'added closet poshmark ralph lauren lace size shopmycloset'
p174
aS'added closet poshmark sparkle tank shopmycloset'
p175
aS'added closet poshmark mermaid tank shopmycloset'
p176
aS'added closet poshmark nautical stripe sweater dress shopmycloset'
p177
aS'added closet poshmark sparkle tank shopmycloset'
p178
aS'added closet poshmark jcrew pink ankle length chinos shopmycloset'
p179
aS'added closet poshmark jcrew capri chinos shopmycloset'
p180
aS'added closet poshmark ralph lauren blue label crewneck cable shopmycloset'
p181
aS'added closet poshmark hampm chambray miniskirt shopmycloset'
p182
aS'added closet poshmark patchwork blazerjacket shopmycloset'
p183
aS'added closet poshmark ralph lauren lace size shopmycloset'
p184
aS'added closet poshmark blue label ralph lauren denim shopmycloset'
p185
aS'added closet poshmark rugby ralph lauren boyfriend denim shopmycloset'
p186
asS'2013_11'
p187
(lp188
S'mamas baby beast auen estate'
p189
asS'2013_36'
p190
(lp191
S'daddy jacks gift grownupkid funnydaddy imatoysruskid auen estate'
p192
aS'emma finally ears pierced proud brave little girl prettydicey\xe2\x80\xa6'
p193
asS'2013_35'
p194
(lp195
S'another crazy saturday daddy jack turkeychasing cutestjackever auen estate'
p196
aS'happy birthday jack love love love forever ever ever\xe2\x80\xa6'
p197
aS'firstdayofschool cant believe shes grade auen estate'
p198
asS'2013_34'
p199
(lp200
S'love auenvacation2013 narragansett'
p201
aS'heading block island auenvacation2013'
p202
asS'2013_15'
p203
(lp204
S'thanks'
p205
asS'2013_32'
p206
(lp207
S'great opportunity little emma work week sytycd elite academy dance'
p208
aS'peaceful sleeper cutestjackever'
p209
asS'2013_31'
p210
(lp211
S'longtrainingruns speed determination finish training path becoming enduranc\xe2\x80\xa6'
p212
aS'goin ride earlymorningballoonrides auen estate'
p213
aS'jacks scooter thank daddy cutestjackever bestdaddyever auen estate'
p214
asS'2013_30'
p215
(lp216
S'apparatus home crazydecor auen estate'
p217
asS'2013_19'
p218
(lp219
S'powerful moment copley square'
p220
aS'accident boston worcester turnpike jammed traffic'
p221
asS'2013_18'
p222
(lp223
S'love hearts backyard auen estate'
p224
aS'franklin'
p225
aS'real leaders ordinary people wextraordinary determination waking determined'
p226
aS'almost home'
p227
aS'late night train nofun missmyhusband'
p228
aS'love faces auen estate'
p229
asS'2013_16'
p230
(lp231
S'love auen estate'
p232
aS'perspective auen estate'
p233
aS'could nightmare please'
p234
aS'recognize either please call 1800callfbi'
p235
aS'elite family auen estate'
p236
ag31
aS'okay home safe'
p237
asS'2013_38'
p238
(lp239
S'warrior dash virgins funtimeswithgoodfriends dirtypeopledoingstupidobstacles'
p240
asS'2013_10'
p241
(lp242
S'early morning snowy walk auen estate'
p243
asS'2013_33'
p244
(lp245
S'vacation ipad still must narragansett'
p246
aS'totally diva mymamascoolerthanyours cutestemmaever mamas divas'
p247
asS'2013_14'
p248
(lp249
S'well deserved like today auen estate'
p250
as.