(dp0
S'2014_44'
p1
(lp2
S'today stats followers unfollowers followed people'
p3
aS'please merry bedroom'
p4
aS'wish know girl green crazy beautiful'
p5
aS'damn swag sexy'
p6
aS'pretty much everyone'
p7
aS'selena'
p8
aS'going'
p9
aS'want chat still didnt dicade'
p10
aS'matter much tweet people talked whatsa point twitter talks'
p11
aS'yeah even thinking delete twitter talked'
p12
aS'actually nicest convo probablly ever'
p13
aS'look icon bella sexy cowgirl halloween'
p14
aS'dont mind call sexy even underage even faved tweet saying sexy'
p15
aS'yeah needed little time star likeing loving side'
p16
aS'bella also share similar life stories lost dads casae killed'
p17
aS'love latest projects cant wait duff grow keeps growing'
p18
aS'planing adopt least dogs untill year'
p19
aS'since work hier help work hours paying take care animals'
p20
aS'hierd help since hamsters chikens snakes horse like little farm take care'
p21
aS'people adopted dogs cats even horse person couldnt take care animals important'
p22
aS'cant donate stupid money donate charity'
p23
aS'diner'
p24
aS'life savinsg year always donate charity year dinber thats nice'
p25
aS'really beautiful perfect meaning word beauty'
p26
aS'charity event donating charity making christmas diner ffor homless shealter'
p27
aS'camila selena ssexy hell look camilas body like damn sexy'
p28
aS'tell fight forever'
p29
aS'bellas sister pretty great well'
p30
aS'sister kaili amazing model'
p31
aS'bella really sexy body wanna merry'
p32
aS'bella sexy cowgirl'
p33
aS'jedino hrvatsku uvozi kancerogeni proizvod pozor limun turske kancerogen kakva grani\xc4\x8dna kontrola'
p34
aS'selenagomezsexiest'
p35
aS'kickass costume'
p36
aS'selenagomezsexiest'
p37
aS'today visited dads grave'
p38
aS'slu\xc4\x8daj tako\xc4\x91er povezuje arkanovcima koji ve\xc4\x87inu poslova obavljali hrvatsku udbu'
p39
aS'poznato slu\xc4\x8daj povezan inom hrvatskom udbom'
p40
aS'zendaya even enough casino going perform'
p41
aS'sounds like track'
p42
aS'sexy cowgirl cowboy girls best'
p43
aS'olivia always cute'
p44
aS'idol nothing change'
p45
aS'little hotie'
p46
aS'laura crazy sister also birthday halloween thats cool'
p47
aS'sexy outfit'
p48
aS'cutest thing ever'
p49
aS'boob pretty face boobs nice tattoo boobs mention boobs'
p50
aS'even scared looks sexy'
p51
aS'sorry love candy much'
p52
aS'share anything candy candy line dont share'
p53
aS'full skitles mampms worth'
p54
aS'follow back biggest selenator account woping 105k followerss'
p55
aS'always fall'
p56
aS'times fall stupid scary maze poop scareed'
p57
aS'acually care kinda super amazing'
p58
aS'home town fellow yankee'
p59
aS'sexy'
p60
aS'really sexy love couple'
p61
aS'damn sexy'
p62
aS'love womenguy swear'
p63
aS'need tits mouth miss violet'
p64
aS'today stats followers unfollowers followed people'
p65
aS'sexy girl'
p66
aS'goes said disne machine disney machine disney company cont'
p67
aS'darn sexy'
p68
aS'first glimpse really sexy pussy'
p69
aS'beautiful nude photoshoot'
p70
aS'wish ccan taset direct source'
p71
aS'pussy looks tight'
p72
aS'godess sexy'
p73
aS'hate girlfriend'
p74
aS'dont really'
p75
aS'admire mandy much'
p76
aS'mandy young gave birth selena hard begining look'
p77
aS'could never thank enough mandy taking amazing care selena mandy amazing women'
p78
aS'followed best women ever women gave reason smile reason selena marie gomez'
p79
aS'give username forget follow cant remeber whats username'
p80
aS'yeah best world didnt even left anything share gave candy'
p81
aS'baby full skitles mampms'
p82
aS'cute nose face silky beautiful hair amazing fashion sense amazing actress perfect singer sabrina'
p83
aS'princess'
p84
aS'think cutest cheek bones ever dimples smile life made smile'
p85
aS'happy going tracks record hope record tracks soon'
p86
aS'comments coming fact love selena'
p87
aS'comment rted faved selena person beautiful face sexiest ever'
p88
aS'busy girl arnt'
p89
aS'godess icon sexappeal'
p90
aS'happy halloween miss dove wish spooky full candy treats'
p91
aS'sabrina known little edgy fashion senseif transfers career knows future holds'
p92
aS'cases child actor plays role dont include rated things french movies worst'
p93
aS'think child actors rated movies never rated movie project disney'
p94
aS'happy sabrinas character horns cerfuly played cute moments like kiss'
p95
aS'becouse movie rated general younger fans probablly couldnt'
p96
aS'played pretty cool cute character horns'
p97
aS'happy sabrina disney time rated movies like grows'
p98
aS'nonono love acting especially sabs movie dont like types movies know'
p99
aS'every person right chose believe hate people make religion'
p100
aS'love dont like horns going opinion dont like'
p101
aS'also think believer dont believe cross something wear accessory'
p102
aS'little cross around neck believer thats true happy'
p103
aS'cutest thing ever'
p104
aS'would like fuck silly'
p105
aS'happy halloween'
p106
aS'happy halloween crew'
p107
aS'dont know followed thank'
p108
aS'celebs would like date part already'
p109
aS'sounds pretty good tunes dilemma going good year'
p110
aS'waitwhat'
p111
aS'damn women'
p112
aS'sexy minx isnt'
p113
aS'miss sexy perfect'
p114
aS'wvwn know sexiest boob mole sexiest'
p115
aS'even boob mole goal'
p116
aS'hmmmmm hand even wears casual look hands must make look darn sexy'
p117
aS'happy halloween buaaahhahahahahahahahahahahahahahahaha'
p118
aS'deciso tweet italiano'
p119
aS'sono lesbica famiglia supporta'
p120
aS'sono lesbica fiero esso'
p121
aS'lamore lamore diritti degli omosessuali devono essere rispettate'
p122
aS'odiatori sbattere gentilezza'
p123
aS'lamore battere lodio'
p124
aS'scrivendo twitlonger spiegare motivo odio twitter'
p125
aS'every singe'
p126
aS''
p127
aS'sempre angelo'
p128
aS'difficile lasciare'
p129
aS'tienimi cuore sempre'
p130
aS'essere triste'
p131
aS'amor fuerte'
p132
aS'stato unico migliore amico'
p133
aS'addio cara'
p134
aS'birthday haloween thats pretty cool'
p135
aS'facebook'
p136
aS'ecco perch\xc3\xa9 \xe2\x80\x8b\xe2\x80\x8bintenzione eliminarlo'
p137
aS'little wierd feeling couple days contacts never hurt'
p138
aS'twitter noioso'
p139
aS'nessuno risposta miei tweets'
p140
aS'addio'
p141
aS'nessuno parla noioso andando facebook'
p142
aS'odio twitter posso stare'
p143
aS'intenzione eliminare oggi twitter'
p144
aS'amici gente vuole parlare'
p145
aS'today stats followers unfollower followed people'
p146
aS'important find'
p147
ag127
aS'dimenticher\xc3\xb2 celeste'
p148
aS'tweeting italiano perch\xc3\xa8 voglio nessuno capire quello tweet'
p149
aS'avete tempo cosi pensando eliminare twitter unico amico'
p150
aS'icon'
p151
aS'longest friend trying best friend'
p152
ag127
aS'piper sabrina rowan olivia made life'
p153
aS'nope mine'
p154
aS'dont mention mean every single word'
p155
aS'meant like really pretty point pretty beyond sexy indead'
p156
aS'really pretty life really pretty'
p157
ag127
aS'fonte ispirazione'
p158
aS'angelo sempre cuore'
p159
aS'miss didnt chat really long time celeste'
p160
aS'maybe liked idea shaving part hair cant really blame something maybe liked'
p161
aS'cool contest coming next week'
p162
aS'smart talented funny'
p163
aS'live long life died'
p164
aS'owns world talks things easly manipulated'
p165
aS'fuck dont shave half hair leave demi alone demi would look sexy even bald'
p166
aS'heart belongs selenagomezsexiest'
p167
aS'queen'
p168
aS'damn sexy'
p169
aS'dalje uklanja uvredljive diskriminiraju\xc4\x87e protuzakonite komentare svoje stranice dalje obmane'
p170
aS'thank much mind going crazy sort drty stuff'
p171
aS'still shoot'
p172
aS'perfect'
p173
aS'noticed post edit happy'
p174
aS'tits grow'
p175
aS'actually pretty excited'
p176
aS'movie movie ashfsdmvbncdkfgbjdfb'
p177
aS'celebs role modelsbella right whatever wantsher latina shoot sexy perfect'
p178
aS'work tweeting phone'
p179
aS'home land proud yankee'
p180
ag127
aS'sister sexy amazing happy idol'
p181
aS'torn sexy'
p182
aS'3112 years program dont fofrget'
p183
aS'explain high wasted knickers shorts wears looks amazing sexy'
p184
aS'know right'
p185
ag127
aS'photoshoots'
p186
aS'cats died yestrday'
p187
aS'sexy idol everyone'
p188
aS'dont know bella admit sexy'
p189
aS'cheek behind scenes shoot youtube bella december cover girl'
p190
aS'december 2014 cover girl gets sexy stylish latinas best cover date'
p191
aS'check sexy shoot best latna cover date'
p192
aS'sound sexy'
p193
aS'call kaylor sexy'
p194
aS'also tits look bigger'
p195
aS'thoughts prayers'
p196
aS'hope everything fine'
p197
aS'love selena'
p198
aS'sexy december 2014'
p199
aS'today stats follower unfollowers followed people'
p200
aS'time figure actually looks like looks real'
p201
aS'rape okay fucked'
p202
aS'love sexy hotie proud bunch movies book much coming cant proud'
p203
aS'sexiness overload'
p204
aS'yeah feel pretty know'
p205
aS'best friend'
p206
aS'love seeing grow kids still chance rated reasons movie'
p207
aS'sexy'
p208
aS'excuse looking model wears mind naked'
p209
aS'thats adopted animals like little farm keep animals'
p210
aS'look must great fuck sexy'
p211
aS'want fuck'
p212
ag127
aS'dont know would dont mind horny tweets'
p213
aS'question anything'
p214
aS'worst gift ever received none'
p215
aS'fucking gidess wanna scene'
p216
aS'hgate life'
p217
aS'forever heart'
p218
aS'feel really today'
p219
as.