(dp0
S'2013_42'
p1
(lp2
S'wanna talk text hear nobody toma frfr'
p3
aS'still need something party toma'
p4
aS'need start takin hair'
p5
aS'good morning loves'
p6
aS'wanna fuck best friend night fuck homies'
p7
aS'every fuckin body'
p8
aS'process spazzing fuck'
p9
aS'tolerance bull shit thats goin'
p10
aS'every body fuckin blowin'
p11
aS'kickin king'
p12
aS'good morning loves'
p13
asS'2013_43'
p14
(lp15
S'like share greenmoneymafia video theydontwantit'
p16
asS'2013_40'
p17
(lp18
S'need good loving'
p19
aS'waiting king call'
p20
aS'drezzy aint'
p21
aS'slept night felt good arms'
p22
aS'love always make smile'
p23
aS'come'
p24
aS'since stop'
p25
aS'real aint gotta people already'
p26
aS'never attached people wake different feelings everyday'
p27
aS'fucked relationship lettin outsiders'
p28
aS'aint perfect relationship'
p29
aS'wouldnt'
p30
aS'love cease shit'
p31
asS'2013_41'
p32
(lp33
S'screamin happy birthday husband enjoyed self bringin bday'
p34
aS'love king enjoyed time spend togetha'
p35
aS'getting high today'
p36
aS'cease goin today'
p37
aS'good morning loves'
p38
aS'aint jade dumb'
p39
aS'ugly bitches really boostin'
p40
aS'cease bout kill frfr'
p41
aS'mean'
p42
aS'need find pretty dress party thats comin'
p43
aS'cant merch'
p44
aS'feet ugly'
p45
aS'feet beautiful'
p46
aS'tryna oovoo freaky'
p47
aS'turn turn'
p48
aS'hubby bday days'
p49
aS'ready come'
p50
aS'flawless'
p51
aS'love come hate leave'
p52
aS'love nigga ceaseratti'
p53
aS'spent whole nite cease love king'
p54
aS'ughh hate leave'
p55
asS'2013_46'
p56
(lp57
S'roll like cottonell made shit'
p58
aS'shamia bang'
p59
aS'anyways watchin friday creep'
p60
aS'goofy goffin'
p61
aS'understand believe everything hear'
p62
aS'gullible'
p63
aS'cant trust face know niggas switch'
p64
asS'2013_47'
p65
(lp66
S'money dance'
p67
aS'letting isnt something talk something'
p68
asS'2013_44'
p69
(lp70
S'fuck bout'
p71
aS''
p72
asS'2013_45'
p73
(lp74
S'aint tryin aint shit'
p75
aS'good shit always come'
p76
aS'aint nothin bout ordinary come yayo'
p77
asS'2013_16'
p78
(lp79
S'turn still celebrating still turnt shit aint turnt'
p80
aS'posted photo facebook'
p81
aS'posted photo facebook'
p82
aS'posted photo facebook'
p83
aS'posted photo facebook'
p84
aS'posted photo facebook'
p85
aS'posted photo facebook'
p86
aS'picture perfect'
p87
aS'shorty gorgeous'
p88
aS'spam ltltltlt thinking somebody nshit \xe2\x80\x9dthirsty shit'
p89
aS'start putting clothes'
p90
aS'break think betta better think ceaseratti wish good luck'
p91
aS'ceaseratti wish luck gtgtgtgtgtgtgtgtgtgtgt'
p92
aS'ceaseratti wish luck'
p93
aS'follow back'
p94
aS'everyone person wanna fuck'
p95
aS'wish luck prod'
p96
aS'wish luck prod'
p97
aS'nitenite'
p98
aS'smoke cuddle fuck'
p99
aS'everyone person wanna fuck'
p100
aS'pretty face phat good pussy meeeee'
p101
aS'rest pussy'
p102
aS'smoke weed'
p103
aS'night everybody horny bored sleepy tired fucking social network\xe2\x80\xa2 sleeping\xe2\x80\xa2 watching porn\xe2\x80\xa2 freak\xe2\x80\xa2 texting'
p104
aS'waking horny alone shitidontlike'
p105
aS'weed makes better'
p106
aS'tight clean pussy deserves fucked right'
p107
aS'loyal dick deserves faithful pussy'
p108
aS'dont pussy pussy'
p109
aS'thats everyday'
p110
aS'called great character matters wonder sinful people'
p111
aS'posted photo facebook'
p112
aS'fantasia lose'
p113
aS'police bombing boston camera'
p114
aS'doesnt take rocket science still love'
p115
aS'leadem send buisness'
p116
aS'fresh shower'
p117
ag72
aS'bout take'
p118
aS'weather sleepy'
p119
aS'waist deep bonnie clyde shit thats cease gone'
p120
aS'waist deep'
p121
aS'maury going sleep'
p122
aS'watching maury pathetic'
p123
aS'husband gone alllll'
p124
aS'theres nothing want spend life'
p125
aS'need hair'
p126
aS'feenin'
p127
aS'freak dont come night'
p128
aS'early'
p129
aS'rkelly slow dance'
p130
aS'listening music cleaning room'
p131
aS'fuck last piece cornbread'
p132
aS'start morning double'
p133
aS'make feel blessed another wouldnt'
p134
aS'good morning woke feeling great good mood tgif'
p135
aS'going sleep anit makeing noise'
p136
aS'cold'
p137
aS'posted photo facebook'
p138
aS'good nite loves'
p139
aS'posted photo facebook'
p140
aS'posted photo facebook'
p141
aS'wowww pathetic'
p142
ag72
aS'bout back aint shit crackinn'
p143
aS'waiting punk sista call barbieprincess todaymybirthday reynolds'
p144
aS'bout subway hungry'
p145
aS'damn love money conceited self'
p146
aS'feelin great miss sistas already bone ballard mzjuicy garrett norine morehead'
p147
aS'hacked follow tweets point'
p148
aS'single life \xf0\x9f\x91\x8c\xe2\x80\x9dfseeeeee'
p149
aS'claming single right'
p150
aS'saturday strippersndollabillz clubpound germantown pikeoff broard eriephil'
p151
aS'saturday strippersndollabillz clubpound germantown pikeoff broard erie'
p152
aS'going the1 100s mins'
p153
aS'dark beautiful'
p154
aS'love dark women yall keep redbones'
p155
aS'nigga door house look like bouncers'
p156
aS'dontcallme honey babe baby love sweetie sweetheart stuff unless youre saying'
p157
aS'trap fire stay street satin'
p158
aS'club every week aint ratchet disqualified'
p159
aS'clothes refuse beautiful hoes'
p160
aS'hoes given name hoes scary scary'
p161
aS'bitch tell ever feels face seat punk bitch section'
p162
aS'sometimes need alone bitch dont kill vibe'
p163
aS'hoes love keep conversation goin'
p164
aS'tell btch business watch hear'
p165
aS'tryna outside'
p166
aS'feels great side need lookin like today'
p167
aS'people bring past intimidated future'
p168
aS'wish could forget like forget everything studied seconds exam'
p169
aS'life world needa without head disrespectful'
p170
aS'hell talm bout bald head spikes'
p171
aS'funny'
p172
aS'dont need dont hear shit person'
p173
aS'lmaoooo dick never gets rest'
p174
aS'anything ruin relationship anything'
p175
aS'told akeylah shit swole'
p176
aS'note gone good nitemorning'
p177
aS'threw'
p178
aS'gone thats childish hell guess simplminded fareal'
p179
aS'duck still aint called pettyasshell'
p180
aS'even like aint even tied'
p181
aS'gone sleep'
p182
aS'bout'
p183
aS'matter fact imma leprechaun shit good luck'
p184
aS'hellokitty tattoo pussy mice tails sayin'
p185
aS'fuck nite till things right'
p186
aS'pussy'
p187
aS'touch toes letem back'
p188
aS'thats super leak'
p189
aS'wouldnt threw'
p190
ag72
aS'call shots ride thang like harley supafreak'
p191
aS'person calls shots bedroom'
p192
aS'think like niggas'
p193
aS'bomb pussy aware'
p194
aS'made doin numbers'
p195
ag72
aS'oomf knows would happen'
p196
ag72
aS'shit waterfall'
p197
aS'shit night'
p198
aS'pussy smooth'
p199
ag72
aS'follow back'
p200
aS'ride face like rodeo'
p201
aS'follow goin crazy'
p202
aS'rule number must give facetime ipod'
p203
aS'shit sound like stirring macaroni'
p204
aS'wanna mfker gotta chew'
p205
aS'fareal'
p206
aS'head head'
p207
aS'bitch wanna imma'
p208
aS'jade freaky'
p209
aS'dont mind keyahh'
p210
ag72
aS'discriminate'
p211
aS'spikes'
p212
aS'juice hair'
p213
aS'mohawk'
p214
aS'bald head'
p215
aS'fade'
p216
aS'head nigga dreads'
p217
aS'like pussy ways'
p218
aS'fuckin good'
p219
aS'suck juice'
p220
aS'pussy could hear cummin'
p221
aS'love start slow speeded'
p222
aS'everybody thing freaky asses'
p223
aS'horny everybody'
p224
aS'make pussy squirt eatin face realshit'
p225
aS'freaks come night frfr lmao'
p226
aS'might squirt bite'
p227
aS'chew mfker'
p228
aS'mfker'
p229
aS'lick mfker'
p230
aS'niggas dont pussy'
p231
aS'bitches suck dick'
p232
aS'cummin face'
p233
aS'lost words'
p234
aS'shit feeling great'
p235
aS'shakin pussy'
p236
aS'smooch pussy lick pussy suck pearl crazy'
p237
aS'kik\xe2\x80\x9dyea thafamousmontana'
p238
aS'without head outta order'
p239
aS'cummings tongue keep goin'
p240
aS'honestly want want tongue'
p241
aS'good pussy doesnt make fast actually make wanna take time'
p242
aS'without head disrespectful'
p243
aS'horny whole time'
p244
aS'would oohhh'
p245
aS'swea cease'
p246
aS'followers talkin gtgtgtgtgtgt'
p247
aS'face ride grippin gtgtgtgtgt'
p248
aS'wanna right'
p249
aS'nigga know pussygtgtgtgtgtgtgtgtgtgtgtgtgtgtgt'
p250
aS'suck pussy'
p251
aS'horny'
p252
aS'dont fuck neck'
p253
aS'freak'
p254
aS'grabbing kissing gtgt'
p255
aS'want head'
p256
aS'well looks everyone need sexual activity'
p257
aS'dont mouth weak nigga'
p258
aS'like pussy enjoy every'
p259
aS'head would good right'
p260
aS'best'
p261
aS'love make'
p262
aS'gotta night things right'
p263
aS'niggas pussy even ones thar nerch dont lien'
p264
aS'gotta lick stick'
p265
aS'shake dreads legs'
p266
aS'make girl aint shit imma freak'
p267
aS'wonder oomf keep secret'
p268
aS'freaks come night'
p269
aS'oomf whole freak'
p270
aS'shake dreads legs'
p271
aS'niggaz talkin eatin pussy dont doin lemme teach'
p272
aS'thafamousmontana'
p273
aS'amanda perez kandy kisses'
p274
aS'still somebody mention'
p275
aS'retweeet\xe3\x83\x84 good night post'
p276
aS'dont realier'
p277
aS'vamping'
p278
aS'drake friends'
p279
aS'friends'
p280
aS'shit since 2011'
p281
aS'mixed emotions'
p282
aS'swvweak'
p283
aS'hickies look ltltltltltltlt hickies feel gtgtgtgtgtgtgt'
p284
aS'late nights deep thoughts'
p285
aS'love'
p286
ag72
aS'reasons stopped replyin busy 2youre boring 4you replied word twitter eating\xf0\x9f\x8d\x94\xf0\x9f\x8d\x9f'
p287
aS'stand contemplating right thing decide take wrong direction time whocanirunto'
p288
aS'retweet strangers everybody'
p289
ag72
aS'mfer boyfriend cares'
p290
aS'friends cease friend understands'
p291
aS'thing'
p292
aS'miss disney channel'
p293
aS'rufus'
p294
aS'silly caught'
p295
aS'care argue love give cant nobody replace thats alwaysn4evashit'
p296
aS'remember possible'
p297
aS'alicia keys brand kind shit really relate song'
p298
aS'guess start fresh tomorrow tonite'
p299
aS'kicking grandma twin love miss kari'
p300
aS'friends drama'
p301
aS'solo shit weeks good'
p302
aS'think dont even road'
p303
aS'hang older crowd young hoes like drama'
p304
aS'already taught bettah'
p305
aS'oomf bullshit making yall need start mentioning shit'
p306
aS'need goin willssportsbar'
p307
ag72
aS'feeling kind music'
p308
aS'bout'
p309
aS'miss kari'
p310
aS'would cross ocean'
p311
aS'early thought like'
p312
aS'changed moved 100s somewhat realizing meaning life growing stronger individual'
p313
aS'going minnesota sunday'
p314
aS'everything could ever wish thanxox momma love winnie pooh'
p315
aS'gone post love picture'
p316
aS'feel part society retweeted ugly person might made'
p317
aS'shoe'
p318
aS'subliminal post guilty thinking'
p319
aS'respect nigga wrong'
p320
aS'dont something permanently stupid temporarily upset'
p321
aS'sorry ugly feel'
p322
aS'attention hoes finna worst nightmare'
p323
ag72
aS'follow'
p324
aS'respect nigga wrong'
p325
aS'respect nigga wrong doing\xe2\x80\x9d'
p326
aS'bridgette kelly special delivery'
p327
aS'shit jukin frfr'
p328
aS'truuu come'
p329
aS'money problems less bitches less gossip real know real bitches fraudn'
p330
aS'nigga cant female bestfriends know shoulder lean turns dick ride'
p331
aS'need isolate couple days together'
p332
aS'bird you\xe2\x80\x99d first person shit'
p333
aS'niggas mans bitches moms tell police absolute truth'
p334
aS'think dont much'
p335
aS'smoke shit'
p336
aS'guess aint feelings'
p337
aS'baybee'
p338
aS'respect nigga wrong'
p339
aS'bitches friend bitch call fuckin friend period dont trust none hoes bestfrwend fuck mann simple'
p340
aS'cater'
p341
aS'ikno issues call debo'
p342
aS'thats satin baybee'
p343
aS'cant even talk want'
p344
aS'girlfriend come guyz\xe2\x80\x9d wish niggas thought like'
p345
aS'momma hennessy bout help self aintshitelsetodo'
p346
aS'follow back'
p347
aS'keisha cole love'
p348
aS'aint shit cracking want shit aint doin'
p349
aS'love million'
p350
aS'love give cant replaced oneinamillion'
p351
aS'shit really coolin'
p352
aS'chocolate bowlegged'
p353
aS'thank'
p354
aS'favor give dope'
p355
aS'feeling kind'
p356
aS'come back hear callin'
p357
aS'heart still mind wanna sometimes'
p358
aS'aaliyah miss'
p359
aS'heart radio jammin'
p360
aS'back road'
p361
aS'listening tamar braxton love love song'
p362
aS'cool'
p363
aS'iggghtimma letchu know'
p364
ag72
aS'come friday ashley comin spend night'
p365
aS'monica gone'
p366
aS'love keylahhh gotta come days'
p367
aS'somebody anybody give shout'
p368
aS'slap goofy'
p369
aS'except'
p370
aS'finna stupid'
p371
aS'follow back'
p372
ag72
aS'follow instagram shoutouts show love\xe2\x80\x9d'
p373
aS'doin numbers follow'
p374
ag72
ag72
ag72
ag72
aS'hoes'
p375
ag72
ag72
aS'pictures dope'
p376
aS'gotta start actin'
p377
ag72
aS'ilove'
p378
aS'posted photo facebook'
p379
aS'posted photo facebook'
p380
aS'posted photo facebook'
p381
aS'send sexy picture remind given'
p382
aS'shorty mfker'
p383
aS'bitch badd'
p384
aS'posted photo facebook'
p385
aS'posted photo facebook'
p386
aS'posted photo facebook'
p387
aS'posted photo facebook'
p388
aS'fuck world needs sneek dissin dont talkin bout'
p389
aS'bitches friend bitch call fuckin friend period dont trust none hoes bestfrwend fuck mann'
p390
aS'posted photo facebook'
p391
aS'posted photo facebook'
p392
aS'dont start shit want'
p393
aS'cease betta swerve'
p394
ag72
aS'denise miserable'
p395
aS'bitches niggas name aint even tatted twice'
p396
aS'bord shit else lurk find business bitch'
p397
aS'hoes south hollands dicks hoes harvey fuckn buck'
p398
aS'tied bitch lurkin page follow already damn bitch'
p399
aS'suburban hoes sneaky undercover hoes'
p400
aS'tatted name wasnt show moma'
p401
aS'bitches always thinking talm bout recall bitch gotta niggas name love yterrian'
p402
aS'today'
p403
aS'posted photo facebook'
p404
aS'bout clothes'
p405
aS'tatted name real'
p406
aS'bitch hands high'
p407
aS'work hard take'
p408
aS'trinidad james beats fuckin cold'
p409
aS'grandma cookin fish spaghetti tonight'
p410
aS'side bitch main bitch main bitch aint feeling'
p411
aS'heart open finally breath'
p412
aS'tamar braxton love'
p413
aS'alicia keys brand shit'
p414
aS'call'
p415
aS'wrong along good even breaks heart badd'
p416
aS'weeknd love songs tell story'
p417
aS'baby knew would living sheets'
p418
aS'weekend twenty eight'
p419
aS'master dripper'
p420
aS'weather suppose cuddling'
p421
aS'aint worried bout nigga taking bitch'
p422
aS'treat like mistake tell coming soon'
p423
aS'bday tweet'
p424
aS'hearthat'
p425
aS'wanna'
p426
aS'pathetic'
p427
aS'lookin'
p428
aS'shorty'
p429
aS'niggas'
p430
aS'fake shit thats goin would bein'
p431
aS'miss swea wouldnt worry shit'
p432
aS'real irritated'
p433
aS'aint finna fuckin around nobody games today'
p434
aS'thats fuck erbody soul'
p435
ag72
aS'cheating starts mind cheated mind made would worth relationship'
p436
aS'dont nobody understand pain'
p437
aS'called morning cellphone wasnt damn'
p438
aS'delete number youre deleted life'
p439
aS'keep small circle erbody snitchin'
p440
aS'iaint even jayda'
p441
aS'told twitter crush awwwww sweet'
p442
aS'heads along'
p443
aS'relationship gotta hold treat right'
p444
aS'people take much stop giving fuck'
p445
aS'twitter biggest distractions ever'
p446
aS'scared judge people never fuck'
p447
aS'dont cause trouble always seem find'
p448
aS'look like give fuck'
p449
aS'aint drama shit miss'
p450
aS'thirsty flirting gone'
p451
aS'awkward moments dont know texting conversation'
p452
aS'hate weekends actually participate real life'
p453
aS'parents warned'
p454
aS'term talk doesnt mean relationship'
p455
aS'ugly hoes dream waking attractive'
p456
aS'dont scared curious'
p457
aS'dont scared curious'
p458
aS'pray hope side'
p459
aS'lead'
p460
aS'wassup'
p461
aS'gave pussy think pussy whooped home studio session meal cooked'
p462
aS'tell tyga lookin bitch call black chyna take nigga bitch flash'
p463
aS'bitches different diamonds glisten weed loud erbody listen'
p464
aS'going sota sunday'
p465
aS'twitter important relationship thats relationship note goodafternoon'
p466
aS'bout call would call busy tweeting good nite loves'
p467
aS'alone think'
p468
aS'somebody make noise'
p469
aS'nights like wish baby arms'
p470
aS'heyyy'
p471
aS'wassup'
p472
aS'retweeet\xe3\x83\x84'
p473
aS'love unconditional'
p474
aS'aint nothin better lurk damn retweet mention'
p475
aS'simple minded'
p476
aS'cousins finna hella tree tree'
p477
aS'pissed erbody'
p478
asS'2013_24'
p479
(lp480
S'alone thinking alot shit'
p481
aS'rather crumbs bums steak fakes'
p482
ag72
ag72
ag72
aS'love make crazy things'
p483
asS'2013_25'
p484
(lp485
S'pussy gone need goggles'
p486
aS'play pussy lick fingers'
p487
aS'came jamaica owned couple acres'
p488
aS'take look'
p489
aS'pretty cant take close'
p490
aS'aint want'
p491
aS'hating bitches lips aint worried bout nothin'
p492
aS'want head orange juice loud'
p493
aS'love'
p494
aS'twisted cease hair look like fredo well fredo look like'
p495
aS'look good hair'
p496
aS'pepsi'
p497
aS'riding thats 4eva love cease'
p498
aS'drill kill'
p499
aS'bank split meal'
p500
aS'swea riding wheels fall'
p501
aS'miss'
p502
aS'whole time thotianna braining'
p503
aS'gorgeous'
p504
aS'body godess'
p505
aS'thicka cold grits'
p506
aS'pretty nice body'
p507
aS'look suprised'
p508
aS'shawty'
p509
aS'today happy fathers real fathers'
p510
aS'gotta'
p511
asS'2013_26'
p512
(lp513
S'good morning text special person gtgtgt'
p514
aS'shit point'
p515
aS'threw cease hair'
p516
aS'turning dread head rasta'
p517
aS'bout take'
p518
aS'uoeno'
p519
aS'bitch clit like dikin'
p520
aS'know problem child wiffin dont shit shit trifling'
p521
aS'spit crack like bobby brown'
p522
aS'gotta bonding nigga bonding'
p523
aS'groupie bitch wifing hoes losing'
p524
aS'police aint want'
p525
aS'tough luck bitches think next'
p526
aS'last night forehead'
p527
aS'sometimes hate hair'
p528
aS'long face seat pussy fight'
p529
aS'need something wear shit right around corner'
p530
aS'love like ceasee nobodyyy'
p531
aS'dance dick loved shit'
p532
aS'holds part heart love cease'
p533
aS'grandma spazzing'
p534
aS'coochie till'
p535
aS'things dont play trust\xf0\x9f\x92\x94 food\xf0\x9f\x8d\x9d\xf0\x9f\x8d\x94 sleep\xf0\x9f\x92\xa4 heart\xe2\x9d\xa4 music\xf0\x9f\x8e\xb5 phone\xf0\x9f\x93\xb2 money myface\xf0\x9f\x98\xa0'
p536
aS'hurt want stay'
p537
aS'dont gone think care dont love real nigga wanna girl crying'
p538
asS'2013_27'
p539
(lp540
S'fuck hoes anybody bitch'
p541
aS'sleepy back bout back sleep'
p542
aS'break neck friends beyond cant count hand many would'
p543
aS'bitches something dont call aint even tripping bout hair today lookin like'
p544
aS'bitches come around gone something money thats aint fuckin'
p545
aS'cease whole fuckin goofy'
p546
aS'good morning loves'
p547
aS'posted photo facebook'
p548
aS'head hurt'
p549
aS'money best dick blind listening death watching'
p550
aS'make feel type'
p551
aS'bitches proved face book right leggings thot'
p552
aS'follow instagram pictures point follow'
p553
aS'bitches silly laugh hoes'
p554
aS'bitches need weave game going threw bitches pictures tracks looking stepped literally'
p555
aS'alotta shot today thinkin shit firecrackers'
p556
aS'eliquent bitch president sittin elephant countin money stella went'
p557
aS'disagreements happy couple dont'
p558
aS'cease connect like computer wifi'
p559
aS'twin gone look today'
p560
aS'feeling type'
p561
aS'today spend today king'
p562
aS'women stay house streets'
p563
aS'thats raised around'
p564
aS'love'
p565
aS'glad cease bond cant broke'
p566
aS'rain still gone shine note goodnite love bugs'
p567
aS'feeling good alcohol aint remy aint'
p568
aS'give reasons never leaving cease'
p569
aS'give reasons really love cease'
p570
aS'shower sipping remy'
p571
aS'good afternoon'
p572
aS'love'
p573
aS'wanna play early fuckin morning'
p574
aS'trynna find cease really think playing'
p575
aS'different strokes different folks'
p576
asS'2013_20'
p577
(lp578
S'broadcasting live hangwith iphone come hang wthafamousmontana'
p579
aS'cease cant call nothing'
p580
aS'aviii gtgtgtgt'
p581
aS'best things life free thats cost merked'
p582
aS'want bitchesss hateeeeeee jadeeeee'
p583
aS'taking drugs time'
p584
aS'fucked nigga thats dick'
p585
aS'pussy clean like soap mouth'
p586
aS'bunch dimes thats chump change'
p587
aS'suck pussy feel better already'
p588
aS'pussy grace\xf0\x9f\x99\x8f'
p589
aS'cease aint even call'
p590
aS'smoke fuck'
p591
aS'tony city'
p592
aS'hungry every time full'
p593
aS'walk jimmy smoke loud'
p594
aS'made self boss'
p595
aS'racks racks racks'
p596
aS'suck dick swallow call peniscoloda'
p597
aS'momma much boss talk peers'
p598
aS'shit would crazy'
p599
aS'random thought'
p600
aS'feel moma talk friends'
p601
aS'need smoke'
p602
aS'today gone'
p603
aS'goooood morning bless'
p604
aS'niggas saving hoes call niggas justice league'
p605
aS'hate going sleep like'
p606
aS'confused'
p607
aS'aint strings attached boothang'
p608
aS'ahead free self'
p609
aS'slow tell want'
p610
aS'ciara body party repeat gtgtgtgtgtgt'
p611
aS'tadoe molly retarded shit'
p612
aS'wanna keep never'
p613
aS'niggaz need stop claiming bitches aint'
p614
aS'bitches need stop claiming niggaz aint'
p615
aS'going fight want time'
p616
aS'little dance'
p617
aS'love always mind'
p618
aS'whole time thotianna braining'
p619
aS'time increases beauty well take step time things better'
p620
aS'miss ceaseeee'
p621
aS'ciara thingy thang body party'
p622
aS'love things dont love'
p623
aS'coolin aint going steady'
p624
aS'hating dont wanna good'
p625
aS'telling rumors make sure tell sides future'
p626
aS'lied neglected kind people'
p627
aS'tell baby moma super weak'
p628
aS'cant niggas tell looking super freak'
p629
aS'straight like fucks long'
p630
aS'bitches shit walk around like zombies'
p631
aS'mommy dont feel good'
p632
aS'standing watching give something look'
p633
aS'running shit shoe deal'
p634
aS'good morning king'
p635
aS'good morning love'
p636
aS'momma good alcohol'
p637
aS'sometimes gotta lose'
p638
aS'tonight gonna dance oohh'
p639
aS'bitch dope start chokin'
p640
aS'prayed asked remove enemies life next thing started losing friends'
p641
aS'music'
p642
aS'acting really tuff take'
p643
aS'lost'
p644
aS'home sweet home'
p645
aS'bout call'
p646
aS'hate hoes keeping tabs mfkin worried bitch'
p647
aS'dont even knowing good gone'
p648
aS'bitches cant find ride good'
p649
asS'2013_21'
p650
(lp651
S'dude'
p652
aS'getting brain dont stupid'
p653
aS'diamonds teeth words precious'
p654
aS'named pistol first name fuck last name dont give'
p655
aS'like math bitches'
p656
aS'might book show'
p657
aS'money talk nigga caught gossip'
p658
aS'watching espn'
p659
aS'call dont whole name'
p660
aS'wish like something live'
p661
aS'cant take heat stay away kitchen simpleshit'
p662
aS'high fuck right'
p663
aS'bout 100s hair thirstythursday time turn'
p664
ag72
aS'done fuckery'
p665
aS'guns kill people guess pencils misspell wordscars drive drunk spoons make people'
p666
aS'bitch like need stand alone'
p667
aS'amanda perez angel'
p668
aS'dream dayyyy'
p669
aS'always love always'
p670
aS'aint nobody gone love love thats whole bunch solo shit'
p671
aS'fuck taking'
p672
aS'sleep'
p673
aS'treat nigga like call lassie'
p674
aS'fuckin example fuckin example back thats fuckin example'
p675
aS'airplane'
p676
aS'asthma kush couging'
p677
aS'campaign jade bitch nigga follow'
p678
aS'enuff'
p679
aS'rowdy fake tuff aint gone'
p680
aS'lady anything came correct wouldnt problem talking'
p681
aS'guess'
p682
aS'everybody could like grown place everything would fine'
p683
aS'every bitch lurking need follow already aint'
p684
aS'hear body callin'
p685
aS'emergency call tell need surgery'
p686
aS'every thing body fetish'
p687
aS'make movie ready'
p688
aS'monster truck tall fuck cant even'
p689
aS'fucks'
p690
aS'like chowing'
p691
aS'smoke bitch loudest thats nigga good mileage'
p692
aS'acting need movie role'
p693
aS'smokin loud toatin blow crowd veryloud'
p694
aS'ballin bitch trynna file'
p695
aS'shawty'
p696
aS'cant keep hands'
p697
aS'body party'
p698
aS'raining pouring'
p699
aS'hate arguing person wanna talk'
p700
aS'reunion weak'
p701
aS'nikki crazy reason'
p702
aS'rocky badd stephanieee'
p703
aS'dont make shit'
p704
aS'make next move best move follow'
p705
aS'follow'
p706
aS'every body follow'
p707
aS'aint hater'
p708
aS'wish every bitch luck'
p709
aS'shit benefit'
p710
aS'hate bitch give fucks next bitch fuck'
p711
aS'females hate next female'
p712
aS'watching girls'
p713
asS'2013_22'
p714
(lp715
S'bitches billionaires aint'
p716
aS'make bottom chosen'
p717
aS'niggas shootin shit like hati'
p718
aS'atch lackin stretched'
p719
aS'fuck twitter beef'
p720
aS'rock designer'
p721
aS'follow'
p722
ag72
aS'caught moment'
p723
aS'turn party murder scene'
p724
aS'killing shit thats period'
p725
aS'shawty badd hell'
p726
aS'bibby thats move'
p727
aS'city hate weight'
p728
aS'thicka cold grits'
p729
aS'mfrs went sleep'
p730
aS'youre real\xf0\x9f\x92\xaf relationship\xf0\x9f\x91\xab hoes shouldnt\xf0\x9f\x99\x85 still around'
p731
aS'shouldve known better would stay side'
p732
aS'never ever cheat never ever stop asking'
p733
aS'monica shouldve known better'
p734
aS'listening pandora'
p735
aS'thick shit'
p736
aS'destiny child cater'
p737
aS'attention'
p738
aS'like share music video shot woods greenmoneymafia'
p739
aS'balh head dont want forest gump'
p740
aS'wake early morning blessing'
p741
aS'thumb threw check finger fuckin cash'
p742
aS'bitches stay'
p743
aS'shit like aqua fina'
p744
aS'break bread want leaving want'
p745
aS'love babyyy'
p746
asS'2013_23'
p747
(lp748
S'good'
p749
aS'even feel mood right'
p750
aS'miss babyy'
p751
aS'make bottom chosen'
p752
aS'good morning loves'
p753
ag72
aS'outfit whole time'
p754
aS'liquor food'
p755
aS'prepin house house warming saturday'
p756
aS'love tamar braxton song'
p757
aS'love'
p758
aS'miss cease talk everyday damn near everyday moment away hear feel like gonna foreva'
p759
aS'riding foreign cars like tomorrow'
p760
asS'2013_28'
p761
(lp762
S'niggas shoot first take name laters'
p763
aS'movie watchin directed'
p764
aS'swea missin cease'
p765
aS'dont contacts phone broke'
p766
aS'stomach hurt'
p767
aS'niggas onme'
p768
aS'level shit young'
p769
aS'dont fuck niggas aint shit fucked nigga thats dick'
p770
aS'pussy sleep tylenol'
p771
aS'pussy medicine'
p772
aS'french kiss pussy like muah face muah pussy grace'
p773
aS'slept good'
p774
aS'good morig loves'
p775
aS'niggas caught feelings give'
p776
aS'watch ceaseratti diffrentz fuckin shot'
p777
aS'avii bitches'
p778
aS'bout sleep getting'
p779
aS'honestly lost weight look good'
p780
ag72
aS'square'
p781
aS'theres meeting bedroom please dont late please dont make wait'
p782
aS'feel type'
p783
aS'miss much ughhh'
p784
aS'nigga slurp pussy like pasta'
p785
aS'follow'
p786
aS'pussy money weed'
p787
aS'every freakin every freakin night wanna freak baby every freakin'
p788
aS'wanna freak'
p789
aS'exactly'
p790
aS'tired niggas period'
p791
aS'takes real bitch bring feelings real nigga'
p792
aS'love aint always complicated'
p793
aS'facetime'
p794
aS'fuck cease'
p795
aS'fuck bitches friends never rich money'
p796
aS'gone talk shit dieria'
p797
aS'love'
p798
aS'niggas talkin emotions niggas emotional'
p799
aS'lookin mirror tell look nigga couldnt said clear'
p800
aS'niggas acting like broads pick tone'
p801
aS'fuck niggas talm bout fuck niggas'
p802
aS'guess going 100s'
p803
aS'thots nothin major'
p804
aS'whole time thotianna braining'
p805
aS'church pray night'
p806
aS'dear hope make heart cold betraded'
p807
aS'kiss like miss fuck like hate fuckin somebody else fuck like aint'
p808
aS'itll neva'
p809
aS'bitch streets talk police'
p810
aS'questions chance'
p811
aS'keep'
p812
aS'niggas cryin missed'
p813
aS'keep squares circle'
p814
aS'fuck world shit lately bitches niggas aint shit thats'
p815
aS'treat life like orange peel shit'
p816
aS'body gone paid body bread'
p817
aS'bitches want beef burger'
p818
aS'aint food stamps accept'
p819
aS'aint bout life find something safe'
p820
aS'bought mirror face truth'
p821
ag72
aS'momma stay porch aint life steady talm bout pull'
p822
aS'trynna make move gotta lane'
p823
aS'best friend tripping'
p824
aS'late post yesterday'
p825
aS'hate nigga bitch made attitude'
p826
aS'fuck bedroom point kitchen'
p827
aS'young hoes fuckin senior citizens'
p828
ag72
aS'love nigga lead'
p829
aS'aint bout stunt nigga fareal'
p830
aS'goofy bitch give damn bitch dont stand chance moma badder getit'
p831
aS'stupid dumb bitches surround ughhhhh'
p832
aS'bout traffic'
p833
aS'classic bathroom'
p834
ag72
aS'cease whole character lmpao funny'
p835
aS'bout'
p836
aS'trynna'
p837
aS'like looking walkin pass mirror'
p838
aS'plans today trynna today brings'
p839
aS'fuckin irritated'
p840
aS'nolackinhomie'
p841
aS'fuck niggas fuck niggas'
p842
aS'back hurt'
p843
aS'side hair truly'
p844
aS'mean understand child dosent necessarily mean gotta stay'
p845
aS'baby momas feel like cant baby daddy tooken'
p846
aS'keep mouth duck tape never enemies plea bargain'
p847
aS'lets play game question respond status'
p848
aS'granny'
p849
aS'bake chicken sweet corn cabbage corn bread peach cobbler bout smash'
p850
aS'bout west cuddies'
p851
aS'fuck babymoma thot'
p852
aS'rick ross'
p853
aS'bitches molly aquafina'
p854
ag72
aS'petty'
p855
aS'versace versace medusa head like lumanti'
p856
aS'radio cent spazzed wrong person wonder could back mins'
p857
aS'wanna traffic right damiesha ross'
p858
aS'side'
p859
aS'bord'
p860
aS'trust bitches'
p861
aS'everybody story everybody struggles'
p862
aS'dick stay night like porch lights'
p863
aS'sleep tdmg check youtube'
p864
aS'nigga slurp like pasta'
p865
aS'problems revolvers'
p866
aS'fuck niggas dont even time fuck niggas'
p867
aS'find back phone cant without cease'
p868
aS'dirty money filthy'
p869
aS'stop listen shit gohard suicide'
p870
aS'like jade shit smell'
p871
aS'flexing popout'
p872
aS'stunna like steve austin'
p873
aS'live drill shit catch lackin drill bitch'
p874
aS'keep ratchets caught lackin field bitch'
p875
aS'drillary land'
p876
aS'dream chaser like meek mills bitches fake keep real main ones face killed'
p877
aS'weak hoes killing murderscene yellowtape'
p878
aS'niggas talkin fuck shit heels public'
p879
aS'quoted songs shit defiantly hard'
p880
aS'shit smelling'
p881
aS'acting bitches need oscar'
p882
aS'nina thats loud bitch bang'
p883
aS'double cross thats toya delt'
p884
aS'dont hoes thats dumb shit'
p885
aS'gotta shot drumma clip make thot flips'
p886
aS'boyfriend'
p887
aS'blow hands thot stand'
p888
aS'know bout action keep tooley dont make bring clip might shoot movie drilldrill'
p889
aS'love money along'
p890
aS'aint talking riding'
p891
aS'bitches hating poppin'
p892
aS'need bond gone bail'
p893
aS'jade bandz shit'
p894
aS'want girl thats shit drilldrill'
p895
aS'bitches tripping catchem'
p896
aS'aint club cant bring weapon bang'
p897
aS'hoes opps cant trust bitches'
p898
aS'hittas shooters reckless blow dont caught blessing'
p899
aS'bitches twitter beefin letem betta hope traffic catchem'
p900
aS'lame niggas cappin wiffin stretchers'
p901
aS'flexing flexing nigga'
p902
aS'lame nigga keep talkin reckless'
p903
aS'middle fingers fuck gurls'
p904
aS'bitches fake hate hoes broke niggas make lame niggas date'
p905
aS'tell chill'
p906
aS'bitches fake like nicki diss guns like nicki'
p907
aS'fuck hitta hits'
p908
aS'clip thats grow shit'
p909
aS'keep might catch bodie'
p910
aS'thots face whole time phoney bitch want nigga'
p911
aS'flexin foreign onme'
p912
aS'model hair bitch ugly bitch ugly yall hoes look scary wanna married nigga bird parrot'
p913
aS'established gone together forever matter thats nigga'
p914
aS'cakes fareal'
p915
ag72
aS'good work marvelous ways today opened door better future week'
p916
aS'near tied'
p917
aS'watching proud family'
p918
aS'cold house'
p919
aS'laying watchin possible waiting phone call'
p920
aS'bitches sneaky'
p921
ag72
aS'caught guard'
p922
aS'wanna give shot camera cease'
p923
aS'know bitches friend nosy post took pictures'
p924
aS'never rains southern california'
p925
aS'trynna finna foam party'
p926
aS'glad cease always need always listen thats'
p927
asS'2013_29'
p928
(lp929
S'would never leave'
p930
ag72
aS'gone line home'
p931
aS'cool'
p932
aS'dont matter close close doesnt matter wassup'
p933
aS'beach'
p934
aS'shit'
p935
aS'live close still aint seen swear dont fuck'
p936
aS'wassup today blood'
p937
aS'still kinda early sleep'
p938
aS'cease sleep forum loud pack'
p939
aS'breakfast night besides morning'
p940
aS'cease plans gone today'
p941
aS'bald head dont want forest gump'
p942
aS'million dolla pussyyy'
p943
aS'jade bout cummin withcha'
p944
aS'dont look like'
p945
aS'perfect'
p946
aS'heard wanna fuck feel type'
p947
aS'bitches'
p948
aS'bout clothes'
p949
aS'bitch point'
p950
aS'steak'
p951
aS'dont body blow cease'
p952
aS'deal rich niggas fuck mitt romney'
p953
aS'bitch sacked'
p954
aS'typo strong'
p955
aS'nigga aint worried bout nothin'
p956
aS'soooooorrryyyyyyyy'
p957
aS'last drop refilll'
p958
aS'refill time intoxicating mine refilllll'
p959
aS'thots nothin major'
p960
aS'cant spell sober smoke srong boii'
p961
aS'hate ugly bitch sneeze hoes dont deserve blessed'
p962
aS'niggas savin hoes start callin niggas justice league'
p963
aS'walked party home girl girl molly home girl'
p964
aS'trap work'
p965
aS'twin babies'
p966
asS'2013_7'
p967
(lp968
S'bout shower'
p969
aS'type person doesnt shit back laugh'
p970
aS'fuck want fuck dont'
p971
ag72
aS'shit sweet gone till diabetes'
p972
aS'pussy written face'
p973
aS'hungry every time full'
p974
aS'pussy gets shes sucking dick know shes freak realshit'
p975
aS'plug bitch foreign'
p976
aS'smoking something fuckin hobby everyday'
p977
aS'dont shit hoes somethin bitches even madder hoes need move around'
p978
aS'gone make motion picture'
p979
aS'asked album drop'
p980
aS'future truth gone hurt'
p981
aS'make shit happen'
p982
aS'life still short'
p983
aS'bitch riding bumper'
p984
aS'aint even good look homie'
p985
aS'bitch still hatin'
p986
aS'bitch lien mfker'
p987
aS'bitch trendingtopic'
p988
aS'hating bitchhhhgtgtgtgtgt somethin right wasnt wouldnt hating'
p989
aS'drivin gurl shit'
p990
aS'damn bitch swerve lane'
p991
aS'tell kari hatin'
p992
aS'aint'
p993
aS'flows sick flow retarded'
p994
aS'beat bitches heat like scott scortch'
p995
ag72
aS'toya montana boss aint heard'
p996
aS'goal digger gold digger independence'
p997
aS'hate love'
p998
ag72
aS'shit really bout make something thats'
p999
aS'thick gtgtgtgtgt'
p1000
aS'good amorning sweetie'
p1001
aS'good morning good enjoy'
p1002
aS'good morning hope blessed productive enjoy'
p1003
aS'happy sunday'
p1004
aS'sistas loud hell reason'
p1005
aS'aint going'
p1006
ag72
aS'defiantly earliest ever woke sunday'
p1007
aS'gotchu'
p1008
aS'junk trunk love junk food'
p1009
aS'pussy written face'
p1010
aS'posted photo facebook'
p1011
aS'based storyyyyyy'
p1012
aS'posted photo facebook'
p1013
aS'posted photo facebook'
p1014
aS'posted photo facebook'
p1015
aS'flexing like work dats nigga goin fuck mouth'
p1016
aS'dont wanna'
p1017
aS'pretty'
p1018
aS'pussy clean church'
p1019
aS'posted photo facebook'
p1020
aS'shit'
p1021
aS'reginald charles call self trynna expose aint realniggashitrns'
p1022
aS'instagram straight flexinn'
p1023
aS'kilt club'
p1024
aS'look look niggas look rich fuck'
p1025
aS'wassup'
p1026
aS'goose'
p1027
aS'goose'
p1028
aS'bitch trending topics'
p1029
aS'bout'
p1030
ag72
aS'posted photo facebook'
p1031
aS'feed gone always come back'
p1032
ag72
ag72
aS'cute'
p1033
aS'bitch'
p1034
aS'talkin behind back afavor bend kissmyass'
p1035
aS'aint sluggin lies'
p1036
aS'coolin'
p1037
aS'pretty gurls closeup'
p1038
aS'posted photo facebook'
p1039
aS'aint sluggin'
p1040
aS'pretty gurls'
p1041
aS'coolin'
p1042
ag72
aS'thats call retweet'
p1043
aS'lets smoke blunt fuck great fuckin'
p1044
aS'bitch lookin like money'
p1045
aS'gotem wantem'
p1046
aS'posted photo facebook'
p1047
aS'antione larkins'
p1048
aS'fuck'
p1049
aS'love money concieted self'
p1050
aS'louie hoes drugsremix coming soon'
p1051
aS'hoes drugss'
p1052
aS'neva aint starve'
p1053
aS'niggas guns clapp notolerance'
p1054
aS'fuck bitches shit'
p1055
aS'thats thats'
p1056
aS'every broad timeline foreign every bitch sideline hatin'
p1057
aS'bank wont tell cash tell truth'
p1058
aS'finessin check drug dealin'
p1059
aS'bitch cooler cooler'
p1060
aS'question'
p1061
aS'cooling rock jeans'
p1062
aS'smoke fuck'
p1063
aS'drugs make need gold medal'
p1064
aS'blow money like candle blowwww'
p1065
aS'every time look jade starting shit damn jade hate bitch like argue shit'
p1066
aS'well currently getting dressed valentine bout clothes turn adreiannas turn'
p1067
aS'bout turn sista shaun jerrica club adrienne tonight happy valentine everybody'
p1068
aS'thanxx'
p1069
aS'thanks love took loving hair'
p1070
aS'hacked love twin happy valentines turn'
p1071
aS'bout sista shaun'
p1072
aS'bout sista shaun'
p1073
aS'hair love boww bang point'
p1074
aS'need squarebluntbottle something ughhhhhhh'
p1075
aS'exactly'
p1076
aS'valentines deal suppose treat girl good everyday'
p1077
aS'ever want'
p1078
aS'fseeeeeee'
p1079
aS'love'
p1080
aS'momma said valentines'
p1081
aS'valentine jordans blue yellow'
p1082
aS'truth fugazi threw'
p1083
aS'anti friends cause cant trust hoes'
p1084
aS'gotta early something wear'
p1085
aS'momma came back shopping sistas'
p1086
aS'bout chipotle'
p1087
aS'love cease'
p1088
aS'shit smokin'
p1089
aS'tired bitches bitching bitches bitching bitches'
p1090
aS'wassup'
p1091
aS'smile'
p1092
aS'pretty'
p1093
aS'watch finna check fuckin'
p1094
aS'miss twin momma jade chanqeem likesocks shaundra neal'
p1095
aS'heard true negativetheres curves road'
p1096
aS'actin like bogie bitch fuck mean aint never heard talm bout actin like bogi'
p1097
aS'cute fuck'
p1098
aS'sista lashaun onlygettinbetta thomas trynna turnn turn'
p1099
aS'smokin since last night swea went sleep weed woke weed shit dont stop'
p1100
aS'gone follow gotta follow first'
p1101
aS'aint follow back'
p1102
aS'baby wanna come myspace twitter yahoo till google facebook'
p1103
aS'baby wanna come myspace twitter yahoo till google facebook'
p1104
aS'question'
p1105
aS'ayeee follow askfm thafemaleyogotti'
p1106
aS'question'
p1107
aS'need shit talm bout shit'
p1108
aS'lmpao funny'
p1109
aS'feeling right good shit dope bout grab bottle'
p1110
aS'write movie script would something like uptodate'
p1111
aS'miss bitch jade'
p1112
aS'time normally wake 1200'
p1113
aS'makes special everything'
p1114
aS'plans valentines shit single relationship'
p1115
aS'less care happier'
p1116
aS'pretty'
p1117
aS'wassup'
p1118
aS'posted photo facebook'
p1119
aS'home'
p1120
aS'posted photo facebook'
p1121
aS'sexxy bitch'
p1122
aS'tyler kandice wilson'
p1123
aS'family eyes'
p1124
aS'need flip flop back stabbers money grabbers'
p1125
aS'lost'
p1126
ag72
aS'listening toya montana kari kapone chitown'
p1127
ag72
aS'free bitch jade looked cute'
p1128
aS'cleanin bout company'
p1129
aS'every women breaking point'
p1130
aS'tight pussy best pussy'
p1131
aS'hate neyo passion'
p1132
aS'pandoragtgtgtgtgt'
p1133
aS'sistas momma nothing'
p1134
aS'bout clean huse'
p1135
aS'gucci mane flow gtgtgtgtgtgt'
p1136
aS'damn bruh talm bout nigga robbed geeked'
p1137
aS'brick squad biker girl angel name charlie'
p1138
aS'exactly bitches'
p1139
aS'love hoes hate makes'
p1140
aS'silly billy bitches dont time realshit'
p1141
aS'yousa stupid call ever call paid front'
p1142
aS'squidward square square nigga'
p1143
aS'lmpao sneek dissin thing gotta tell greasy face bitches would tell trustnbelivemebaby'
p1144
aS'money power respect thats nigga'
p1145
aS'cant trust every face bitch gotta watch'
p1146
aS'money dope everyday'
p1147
aS'niggas talk another nigga pussy females talk another female head'
p1148
aS'bitch trending topicsimple'
p1149
aS'shit sound like'
p1150
aS'whole body sore'
p1151
aS'every nigga want finally rich'
p1152
aS'ayeee fmot eatbelowmybelt fmoig goneindoyathang'
p1153
aS'aint fuckin around fuck arounds fuckin around fuck arounds smoked simple'
p1154
aS'girlfriend bestfriend dont treat like friend benefits'
p1155
aS'lookin like gotta visit dusable today bitch body sista gone problems'
p1156
aS'whats goin jada suppose boogin'
p1157
aS'gave email address password talm bout start talkin aint games straightchalupa'
p1158
aS'effff erbody fuckin inbox'
p1159
aS'whos badddddd meeeeee'
p1160
aS'babyy'
p1161
aS'aries extremely loyal generous'
p1162
aS'niggas work dont feel wrong bout shit simple'
p1163
aS'rappin like trappin'
p1164
aS'dont wassup cant find bitch'
p1165
aS'dont call phone aint shit talk bizness realniggas yogotti'
p1166
aS'death dishonor homie'
p1167
aS'world deabloe diapolis'
p1168
aS'purse purse pussy clean church'
p1169
aS'give money town give money nike town'
p1170
aS'aint neva seen chick like'
p1171
aS'might endorsement baking soda'
p1172
aS'good morning seem cool tweets point gone take extra step follow already'
p1173
aS'based truuu storyy'
p1174
aS'party scene turned murder scene'
p1175
aS'think make twerk video'
p1176
aS'started bottom'
p1177
aS'retweet good morning mention retweet strangers welcome\xe2\x98\xbb'
p1178
aS'kendrick lamar poetic justice gtgtgtgtgtgtgtgtgt'
p1179
aS'mornin gtgtgt'
p1180
aS'pour uppppppp'
p1181
aS'kelly gtgtgtgtgt\xe2\x99\xa5'
p1182
aS'miss twinn'
p1183
aS'follow instagram mention twitter'
p1184
aS'course though sucks right'
p1185
aS'aint trippin shoes tied'
p1186
aS'thing mind right example talkin'
p1187
aS'pretty girls shoulda woke morning head'
p1188
aS'headache hungry hangover shit worsem'
p1189
aS'bout cook breakfast'
p1190
aS'homeless ladys period'
p1191
aS'poppedhoeitis lmpao'
p1192
aS'guess popped season ugly duckling lookin bitches'
p1193
aS'fuckin headache world'
p1194
aS'hoes osougly'
p1195
aS'aint body loyal days'
p1196
aS'aint nobody girl damn'
p1197
aS'good morning loves'
p1198
asS'2013_6'
p1199
(lp1200
S'bout clothes turndown4what'
p1201
aS'sick lost voice cool iainttrippin'
p1202
aS'hate bitches bring bisness facebook twitter even anything getting'
p1203
aS'bout tree tree'
p1204
aS'role pesos'
p1205
aS'pretty harlans reppin peso'
p1206
aS'bitches dying next move damnswerveintoatree'
p1207
aS'tell mfkers want dont think shit'
p1208
aS'money gone make come house mama'
p1209
aS'kilt club'
p1210
aS'bout smoke drink liquor thats'
p1211
aS'reason dont forget anything choose mention'
p1212
aS'aint killa dont push'
p1213
aS'smile face smilinfaces'
p1214
aS'real niggas real gangstas'
p1215
aS'never change blocks'
p1216
aS'fuck lets police niggas'
p1217
aS'body make movin toya montana handling bizness'
p1218
aS'level aint latitude'
p1219
aS'hoes waist skinny fatter theres'
p1220
aS'aint body plus popped thats badcombination'
p1221
aS'hate bitches thats ugly reason'
p1222
aS'taking shit aint like price'
p1223
aS'bout pretty sleep aint shit'
p1224
ag72
aS'without head disrespectful\xe2\x80\x9d neva lied'
p1225
aS'tiered'
p1226
aS'might call night'
p1227
aS'followback'
p1228
aS'pussy till lips bleed'
p1229
aS'play pussy fucked show feelings hurt faithful cheated show love left honest lied'
p1230
aS'without head disrespectful'
p1231
aS'ride dick smoke blunt time wife bitch'
p1232
aS'lick itstick itbeat'
p1233
aS'nigga dont stop till times'
p1234
aS'good pussy doesnt make fast actually make wanna take time'
p1235
aS'pussy leaking touch freak'
p1236
aS'dont forget anything choose mention'
p1237
aS'real boyfriend tell hoes girlfriend'
p1238
aS'name toya montana lets'
p1239
aS'good whats couple scratches savage'
p1240
aS'neck scratched ltltltltltlt'
p1241
aS'bitchhh swerveee tree'
p1242
aS'beautiful like diamonds skyyyy'
p1243
aS'hair bout step ladies early dranks ayayyy yeaaa'
p1244
aS'keep squares circle'
p1245
aS'fake make hoes aint makin stop fakein bitchess'
p1246
aS'retweet'
p1247
aS'hoes hidden behind image'
p1248
aS'bitches runnin mouth keep convo going'
p1249
aS'dont nothing nobody scare person walk talk like pussy dont blood nobitch'
p1250
aS'bitches 100s must dont boog bitch'
p1251
aS'scary dont wanna pick phone'
p1252
aS'scared boys gone shoot'
p1253
aS'mouth bitch'
p1254
aS'kita gone start shit cant'
p1255
aS'wish hoes wouldd like kitchen cabinet'
p1256
aS'ayee need follow back daddyyyy'
p1257
aS'process takin hair'
p1258
aS'drink patron head almost kilt thug'
p1259
aS'grandma love hearing talk'
p1260
aS'wonder gone'
p1261
aS'kilt club'
p1262
aS'lets right'
p1263
aS'bitches talkin much shit aint even life claim'
p1264
aS'minus bullshit lifes great'
p1265
aS'aint talkin money shit'
p1266
aS'phone'
p1267
aS'bein worried bout anotha bitch neva part grind'
p1268
aS'hate people poke weddings point whisper youre next started thing'
p1269
aS'still hurts still care'
p1270
aS'fuckin awesome'
p1271
aS'damn fool care somebod thats clamin somebod eles'
p1272
asS'2013_9'
p1273
(lp1274
S'callin phone dont nothin want'
p1275
aS'gone good morning everyone postive productive'
p1276
aS'birthday slowly comin april3'
p1277
aS'bout back'
p1278
aS'intoxicated'
p1279
aS'woke today thinkin tomorrow'
p1280
aS'waken early'
p1281
aS'good morning'
p1282
aS'twitter weak'
p1283
aS'wassup'
p1284
aS'pussy written face'
p1285
aS'posted photo facebook'
p1286
aS'aint game niggas understand story'
p1287
aS'posted photo facebook'
p1288
aS'posted photo facebook'
p1289
aS'posted photo facebook'
p1290
aS'posted photo facebook'
p1291
aS'never give bitch chance cross bitches boring'
p1292
aS'spanish nigga aint fuckin adios'
p1293
aS'think ballin gotta block'
p1294
aS'supa badd'
p1295
aS'yellow bone team'
p1296
aS'swea like drug haveem'
p1297
aS'told truth wish would took different route'
p1298
aS'lied petty shit could avoid jump'
p1299
aS'fuck check'
p1300
aS'call back'
p1301
aS'whole demonstration pissed'
p1302
aS'well call'
p1303
aS'cease cant call'
p1304
aS'goofy meatball shit'
p1305
aS'bout really piss cant call'
p1306
aS'fumbled heart'
p1307
aS'rollin hitter'
p1308
aS'chance read status rude sent request'
p1309
aS'kisses rude 3111 even much respect earned threw love'
p1310
aS'cease cant call'
p1311
aS'make niggas financial wise swea bans broke niggas'
p1312
aS'bitch aint'
p1313
ag72
aS'tsssss tell money stunners imma ball regardless 365247 shit'
p1314
aS'gtgt'
p1315
aS'bitch cooler cooler'
p1316
aS'hoes kiara flexers wink wink screws'
p1317
aS'ride thing like harley'
p1318
aS'bitches bout come right instant aint aint call'
p1319
aS'shit kita herewhy aint come today'
p1320
aS'dope fanna face need like 2off gudnight'
p1321
aS'jjaaaddddeeeee'
p1322
aS'upwyd'
p1323
aS'shit dope coolin crib hidden babooski'
p1324
aS'stormmmmmmmmmmmmmmm'
p1325
aS'twerkin everybody tomorrow'
p1326
aS'fumbled heart'
p1327
aS'heart beat'
p1328
aS'throw back thursday'
p1329
aS'tsssss tell money stunners imma ball regardless 365247 shit season'
p1330
aS'swea money dont change gone stunt around shit talkin talk body else'
p1331
aS'posted photo facebook'
p1332
aS'love head'
p1333
aS'posted photo facebook'
p1334
aS'trophie made miss nail appointment'
p1335
aS'posted photo facebook'
p1336
aS'posted photo facebook'
p1337
aS'posted photo facebook'
p1338
aS'every time gotta show'
p1339
aS'chalupin moma'
p1340
aS'bout smoke dope'
p1341
aS'april roll back around back relaxin trushit'
p1342
aS'glad gettin either money money'
p1343
aS'swea money would change'
p1344
ag72
aS'style hair tomorrow'
p1345
aS'bout come loud'
p1346
aS'fell heaven like shower smile'
p1347
aS'posted photo facebook'
p1348
aS'fuck time'
p1349
aS'today thirsty thursday pouritup'
p1350
aS'good mood today'
p1351
aS'brushed teeth morning washed face'
p1352
aS'pablo tweakin early'
p1353
aS'good morning'
p1354
aS'house'
p1355
aS'clean'
p1356
aS'threw cookin breakfast'
p1357
aS'good morning sweetie'
p1358
aS'good morning good hope post puts smile face aint already'
p1359
aS'good mornin mentions everyones welcome'
p1360
aS'grandma think grown'
p1361
aS'guess imma stay'
p1362
aS'keep getting woke'
p1363
aS'good morning world'
p1364
aS'lookin woods holly shit'
p1365
aS'broke niggas right threw'
p1366
aS'real girlfriend text everyday fight cares listens'
p1367
aS'sleep pray lord soul keep amen'
p1368
aS'need'
p1369
aS'need hair eyebrows arched nails'
p1370
aS'dont believe watch nolie'
p1371
aS'gone feel stupid'
p1372
aS'gone feel stupid'
p1373
aS'cant broke nigga sorry'
p1374
aS'yeah dick good iaint gone'
p1375
aS'trap girl hold'
p1376
aS'aint spit game dick game'
p1377
aS'like girls like girlsss'
p1378
aS'whole otha shit'
p1379
aS'bitches gone like summer'
p1380
aS'damn thick'
p1381
aS'love trap boys know bricks'
p1382
aS'goofy ones'
p1383
aS'niggas'
p1384
aS'gone ahead throw tantrum finna throw idgaf'
p1385
aS'aint nobody gone sneek diss imma talkin bout'
p1386
aS'hope talkin bout cease'
p1387
aS'whole aint even trippin'
p1388
aS'might killed soon idgaf lived decent'
p1389
aS'bitches forever beefing community dick'
p1390
aS'gone good nite love bugs'
p1391
aS'kissing thats negative ltltltltltltltlt'
p1392
aS'wish chance'
p1393
aS'nigga aint even trynna flex hard'
p1394
aS'bitches snakes dead chanqe fast make head spinn truuu shit wont liee'
p1395
aS'onmygrannytho'
p1396
aS'real fuckin goofy'
p1397
aS'real boyfriend never gives girl period'
p1398
aS'callin nite early nite love bugs'
p1399
aS'hate bitch next bitch feel good worthless hoes'
p1400
aS'gonna gonna fuck gonna feelwhat gonna think gonna tell make next move'
p1401
aS'bout smoke dope'
p1402
aS'good kush alcohol'
p1403
aS'call phone want even pick'
p1404
aS'talk crack recop'
p1405
aS'thatonepersonwho gets fuckin nerves bumm funky bitch'
p1406
aS'miserable bitch'
p1407
aS'jada straight bitch'
p1408
aS'pink pussy better come pink pussy chew chew like'
p1409
aS'cold pussy fresh'
p1410
aS'fabulous gtgtgtgtgt'
p1411
aS'1003'
p1412
aS'hating beneth thats devil trying keep faith hang hope'
p1413
aS'tell hoes stick dont leading blind'
p1414
aS'cant spell believe without middle'
p1415
aS'could always truth lyin little'
p1416
aS'taught winner learn losses losses like friends miss'
p1417
aS'story gets better worse know'
p1418
aS'whats beef beef make mistakes like less burgers buddies steaks snakes'
p1419
aS'came dirt made blew right light shinebrightlikeadiamond'
p1420
aS'life gave lemons made lemonade mine'
p1421
aS'turn dark secrets bright ideas used help learned wipe tears'
p1422
aS'zone feelin stop blowin buzz quit killin westillinthisbitch'
p1423
aS'think seeing aint even seen shit'
p1424
aS'wale gtgtgtgtgtgtgtgtgt\xe2\x99\xa5'
p1425
aS'thats dont talk nothin dont body neva comin exactly stay'
p1426
aS'complicated'
p1427
aS'haven would upset dont even feel like'
p1428
aS'tynisha keli gtgtgtgtgt'
p1429
aS'whole shit'
p1430
aS'pandora shitgtgtgtgtgtgtgt'
p1431
aS'jaheim gtgtgtgtgtgt'
p1432
aS'shake like strippa'
p1433
aS'hate hoes pose every fuckin picture hoes basic'
p1434
aS'crazy jade'
p1435
aS'righty storm'
p1436
aS'toya molly retarded shit'
p1437
aS'bitch storm called jazz'
p1438
aS'righty bday bdaytweet'
p1439
aS'posted photo facebook'
p1440
aS'would really stupid thought jade gone kiss'
p1441
aS'woke bugatti'
p1442
aS'lips smile trigger kisses bullets label killer'
p1443
aS'toya topia wonderful world toya montana'
p1444
aS'play part play well'
p1445
aS'fuckin bullshit'
p1446
asS'2013_8'
p1447
(lp1448
S'thatt note bout take pretty back sleep'
p1449
aS'tell chick everything gone whole demonstration'
p1450
aS'lips smile trigger kisses bullets label killer'
p1451
aS'would lien told good decent thank askin'
p1452
aS'good morning sweetie'
p1453
aS'good morning phony'
p1454
aS'goodmorninggggggg'
p1455
aS'lmpao good bullshit early fuckin even give fuck really really dont'
p1456
aS'hidden something right ding ding ding correct'
p1457
aS'neva nigga tripp girl mention name mean thats goofies shit ever heard guess'
p1458
aS'dont care tantrum bout throw'
p1459
aS'pissed cease'
p1460
aS'slow ticket realshit'
p1461
aS'gonna gonna fuck gonna feel cool cumup'
p1462
aS'doin actin fucking least'
p1463
aS'hype early'
p1464
aS'text bitch good morning dont even call tell good morning cool aint trippin'
p1465
aS'worried wrong shit frfr'
p1466
aS'give fuck'
p1467
aS'perfect nigga online'
p1468
aS'like tellmeanything'
p1469
aS'niggas defiantly hidden behind image'
p1470
aS'startin saying niggas aint shit sneaky next'
p1471
aS'good morning world'
p1472
aS'hate sober'
p1473
aS'lookiin somethin party tonight'
p1474
aS'still bitch'
p1475
aS'last night shit'
p1476
ag72
aS'local celebrity'
p1477
aS'life party'
p1478
aS'hoes drugs black gurl like smoke weed'
p1479
aS'subliminal post fuck guilty persons mind'
p1480
aS'subliminal post fuck guilty persons mind'
p1481
aS'long bitches love'
p1482
aS'subliminal post fuck guilty persons mind'
p1483
aS'thats chocolate version future'
p1484
ag72
aS'askin questions like feds'
p1485
aS'shit'
p1486
aS'booo'
p1487
aS'money never hate bitches'
p1488
aS'trust better keep sight'
p1489
aS'money power respect took bitch finesse'
p1490
aS'aint love side jealous bitches ride'
p1491
aS'cross supersoaker water burst'
p1492
aS'thinking wrong bitches fuckin aint doin right'
p1493
aS'niggas salute niggas thats dead niggas prison aint gone salute shit'
p1494
aS'long livin wanna live always talk'
p1495
aS'gone gonna gonna feel gonna think gonna moment come'
p1496
aS'nigga talm bout went joint charge went jail singing loud motormouthassnigga'
p1497
aS'swea given fuckin headache'
p1498
aS'drunk smoke weed havin dont care sees young wild free'
p1499
aS'first come first serve bout'
p1500
aS'dontbothermewhenim menstrual'
p1501
ag72
aS'pockets getting lypo weight watchers'
p1502
aS'turn'
p1503
aS'thirsty thursday'
p1504
aS'bitch shaun bout'
p1505
aS'momma cleaning closetgtgtgtcool widd'
p1506
aS'regret shit bcus wouldnt able learn mistakes lessonlearned'
p1507
aS'gonna gonna feel gone'
p1508
aS'read nutssss'
p1509
aS'erbody start hate'
p1510
aS'love strippas'
p1511
aS'keep squares circle'
p1512
aS'favorite song moment wale'
p1513
aS'erbody start hate'
p1514
aS'mine spend'
p1515
aS'keep shittin bitches like need potty train'
p1516
aS'pocket full dead bread'
p1517
aS'party scene turned murder scene'
p1518
aS'lets forget make'
p1519
aS'follow back'
p1520
aS'sure always side'
p1521
aS'bitches lookin like'
p1522
aS'might clothes'
p1523
aS'miss sister ughhh minesotaa lame fuckk'
p1524
ag72
aS'evening baby'
p1525
aS'whasup chicago'
p1526
aS'good'
p1527
aS'chillin sistas turnin kianna garrett bday week'
p1528
aS'hearing slow song thing think'
p1529
aS'teamnolackin bitch keep cannon'
p1530
aS'bitch kick fucked'
p1531
aS'prom date'
p1532
aS'\xe2\x88\x9aboogie badd better'
p1533
aS'dont talkin'
p1534
aS'bitches ballin'
p1535
aS'aint worried bout shawty ballin'
p1536
aS'shawty'
p1537
aS'always forever\xe2\x99\xa5'
p1538
aS'love'
p1539
aS'taught'
p1540
aS'love makeup day1nigga'
p1541
aS'goofy girls make excellent girlfriends'
p1542
aS'girl wants hear girls'
p1543
aS'background gtgtgtgtgt'
p1544
aS'dance dick know love shit'
p1545
ag72
aS'people change memories dont'
p1546
aS'actually statustweet wasnt aimed shoe fits feel free wear'
p1547
aS'doin bgc10'
p1548
aS'currently watchin bgc10'
p1549
aS'badgirlsclub10'
p1550
aS'money others bitches money anything'
p1551
ag72
aS'posted photo facebook'
p1552
aS'posted photo facebook'
p1553
aS'posted photo facebook'
p1554
aS'posted photo facebook'
p1555
aS'bitches hunneds hating right already knowin thats bitches'
p1556
aS'like letem breath killem'
p1557
aS'sexy want pretty ummmmm okayyyy'
p1558
aS'cease dont want thats pretty fine haveaniceday'
p1559
aS'snitchen love opps'
p1560
aS'lookin woods holly shit'
p1561
aS'bitch wanna like tell grind'
p1562
aS'gone kids tonight sister turn still'
p1563
aS'gone whole discussion'
p1564
aS'silly'
p1565
aS'hate find thing argue'
p1566
aS'cool guess somethin aint bizness gone always expect something wrong'
p1567
aS'swea actin fuckin least'
p1568
aS'give fuck niggas long bitches love'
p1569
aS'lets neglect make'
p1570
aS'bitches dont feel fuck fake friend real friends'
p1571
aS'started bottom'
p1572
aS'bout tree tree'
p1573
aS'wale thats shit'
p1574
aS'fuck wrong oddles noodles'
p1575
aS'love song'
p1576
aS'beauty brains'
p1577
aS'aint shix wrong widd faithful bitch dats'
p1578
aS'never niqqa alday glad came home'
p1579
aS'never made love never sure know fuck'
p1580
aS'never made love never sure know fuck'
p1581
aS'posted photo facebook'
p1582
aS'girls aint good good girls aint'
p1583
aS'people talk shit also pays attention truuuu'
p1584
aS'gurls fall like dominoes'
p1585
aS'pissed aint playin fair gotti'
p1586
aS'posted photo facebook'
p1587
aS'photobox'
p1588
aS'youll never love like'
p1589
aS'bout sleep'
p1590
aS'good morningggg love bugssss'
p1591
aS'good morning love bugsss'
p1592
aS'gotem team haha'
p1593
aS'mention baybeee'
p1594
aS'talkin shit righty bored'
p1595
ag72
ag72
aS'mean yall nobody yall selves ampamp maybe yall kids yall'
p1596
aS'rightyyy funny'
p1597
aS'finna fuck around sleep'
p1598
aS'aviiiigtgtgtgt'
p1599
aS'watchin good luck charlie'
p1600
aS'imma'
p1601
aS'care time woke wanna talk'
p1602
aS'neva mahself talkin'
p1603
aS'whats really goin'
p1604
aS'pussy wasnt meant kissed wouldnt lips'
p1605
aS'chills'
p1606
aS'rollin hitta'
p1607
ag72
ag72
ag72
ag72
ag72
ag72
ag72
ag72
ag72
ag72
aS'wassup'
p1608
aS'posted photo facebook'
p1609
aS'pretty'
p1610
ag72
ag72
aS'layin hoes like tylenol'
p1611
ag72
aS'bout clothes smoke drink turn'
p1612
aS'broke bitches make sick throw'
p1613
aS'broke bitches talk much bitch shut'
p1614
aS'bitch paid thoughts'
p1615
aS'sista said piss poor'
p1616
aS'matter good people wont appreciate'
p1617
aS'rich went broke became rich thepowerofgod'
p1618
aS'talm bout good'
p1619
aS'turn wanna exotic dancer wanna'
p1620
aS'fuck many hold self'
p1621
aS'need away cuss much going'
p1622
aS'think ugly aint cigerettes'
p1623
aS'miserable bitchhh'
p1624
aS'granma'
p1625
aS'much going'
p1626
aS'spazzing house'
p1627
aS'posted photo facebook'
p1628
aS'sexyy asss'
p1629
aS'fuckin pretty'
p1630
aS'prettyy'
p1631
aS'posted photo facebook'
p1632
aS'bomb'
p1633
aS'smile camera'
p1634
aS'pockets getting weight watchers lypo'
p1635
aS'never leave crib hungry horny'
p1636
aS'nigga want nigga vevoed'
p1637
aS'silly'
p1638
aS'good pussy nigga sleepamp mines knocked'
p1639
asS'2013_17'
p1640
(lp1641
S'choose wisely thats choosen'
p1642
aS'bout streets'
p1643
aS'aint body time lord jesus sarfire'
p1644
aS'well obviouslyyy'
p1645
aS'rocko nachos'
p1646
aS'truuu fuckin statement'
p1647
aS'biggie tupac kilt'
p1648
aS'supa irritated'
p1649
aS'damn something self'
p1650
aS'hate hoes always lookin drama'
p1651
aS'shit need towel pronto'
p1652
aS'dont make number need charmin'
p1653
aS'bank account comma comma comma'
p1654
aS'riding like obama cause dont give drama'
p1655
aS'want like drake'
p1656
aS'cross line pussy shoot square face keep niggas line hoes place'
p1657
aS'following'
p1658
aS'much money friends turn enemies enemies turn memories'
p1659
aS'gangstas move silence word'
p1660
aS'posted photo facebook'
p1661
aS'good morning'
p1662
ag72
aS'somebody anybody inbox conversation'
p1663
ag72
aS'100s'
p1664
aS'posted photo facebook'
p1665
aS'posted photo facebook'
p1666
aS'posted photo facebook'
p1667
aS'sexy'
p1668
aS'beauty beholder'
p1669
aS'waiting auntie 100s turn'
p1670
aS'heard king voice made'
p1671
aS'times like bitch jade around miss changemlikesocks free bitch'
p1672
aS'talk'
p1673
aS'hate like status dont shit'
p1674
aS'trynna traffic'
p1675
aS'posted photo facebook'
p1676
aS'posted photo facebook'
p1677
aS'bout clothes time started'
p1678
aS'ready'
p1679
aS'tweet alot shit twatching mfrs'
p1680
aS'real friends dont count favors'
p1681
aS'played streets young nigga aint never liked nintendo'
p1682
aS'cross tracks like boosie ride better know shooting'
p1683
aS'dont tellem homicide'
p1684
aS'irritated like'
p1685
aS'good morning loves'
p1686
aS'posted photo facebook'
p1687
aS'posted photo facebook'
p1688
aS'posted photo facebook'
p1689
aS'dont like hate hate'
p1690
aS'name ring like android'
p1691
ag72
aS'real irritated'
p1692
aS'todays flow'
p1693
aS'posted photo facebook'
p1694
aS'posted photo facebook'
p1695
aS'uwelcome'
p1696
aS'going back 100s today'
p1697
aS'posted photo facebook'
p1698
aS'every body stop follow tweets point want regret'
p1699
aS'jade'
p1700
aS'posted photo facebook'
p1701
aS'niggas pussies like dike hoes'
p1702
aS'dont want beef might crack taco rickross'
p1703
aS'money everybody start hating'
p1704
aS'decent'
p1705
aS'rather enemy hate friend secretly talk hoes fufu'
p1706
aS'coolin kari'
p1707
aS'getting hair whipped going outside today'
p1708
aS'sleepy'
p1709
aS'love bottom'
p1710
aS'guess bout call night'
p1711
aS'dont feel right'
p1712
aS'wanna talk king'
p1713
aS'kickin sista kari'
p1714
aS'home'
p1715
aS'love cease'
p1716
aS'100s theres place like home'
p1717
aS'tahhh'
p1718
aS'niggas bitchie ways'
p1719
aS'based truuu story'
p1720
aS'everything came nowhere'
p1721
aS'phony bitch'
p1722
aS'dont matter didnt wouldnt'
p1723
aS'stfu already'
p1724
aS'threw cleaning room'
p1725
aS'kilt whole vibe'
p1726
aS'bitches love drinking love smokin alcoholic bitch dope start smokin'
p1727
aS'good mood today'
p1728
aS'dont need playboy play nigga'
p1729
aS'bitches bitches pretty gang make noise pretty gang make noise'
p1730
aS'pussy mufasa'
p1731
aS'grandma goin outta town friday leavin'
p1732
aS'make album sayin nothin track'
p1733
aS'sometimes youre enemy throwin grenades'
p1734
aS'momma grandma blast love'
p1735
aS'love tamar braxton'
p1736
aS'steps great morning open eyes take deep breath back sleep goodmorning'
p1737
aS'good morning loves'
p1738
aS'like said gone woke somebody callin name'
p1739
aS'good morning'
p1740
aS'bedroom boom'
p1741
aS'going sleep finna right back'
p1742
aS'tiered hell'
p1743
aS'ciara'
p1744
aS'need somebody thats'
p1745
aS'niggas mouths like auctions'
p1746
aS'peanut butter complex pretty eyes'
p1747
aS'wanna ride back seat caddy'
p1748
aS'false alarm'
p1749
aS'hate going sleep terms guess'
p1750
aS'sleepy fuck'
p1751
aS'listen music fall asleep'
p1752
aS'pretty ricky gtgtgtgt'
p1753
aS'bord cant even talk sugar smack'
p1754
aS'ciara body party gtgtgt'
p1755
aS'eating candy watching waist deep'
p1756
aS'cant nothin think cheating'
p1757
ag72
aS'wanna cake'
p1758
aS'follow backk baybeeee'
p1759
aS'aries think later'
p1760
aS'nope dont getting'
p1761
aS'comfortable'
p1762
aS'lazy shit'
p1763
aS'really dont feel like getting turnin light'
p1764
aS'posted photo facebook'
p1765
aS'aint even tiered'
p1766
aS'simple'
p1767
aS'need understanding'
p1768
aS'hard keep love alive'
p1769
aS'keep getting followers sayin followers every time shrugs'
p1770
aS'ever needed'
p1771
aS'sometimes gotta lose'
p1772
ag72
ag72
aS'glad brother birthday'
p1773
aS'eating cupcakes cream'
p1774
aS'candy bags cease'
p1775
aS'suppose feel nice toma'
p1776
aS'million dollar'
p1777
aS'love future sound tapout gtgtgtgt'
p1778
aS'birdman tapout gtgtgtgtgt'
p1779
aS'oomf defiantly trynna tweets back thestruggle'
p1780
aS'dont tell twice already told pussy'
p1781
aS'ball head dont want forest gump'
p1782
aS'pussy jury made burrrr'
p1783
aS'accounts million dollar checks dont bounce'
p1784
aS'threw 100s lose count'
p1785
aS'million dollar pussy might pounce'
p1786
aS'baddest pussy planet dboys love dont understand dont'
p1787
aS'driveem crazy seat belt'
p1788
aS'birdman tapout feat nicki minaj mack maine wayne future lyrics'
p1789
aS'come across super soaker water burst'
p1790
aS'watching martin'
p1791
aS'date boys tattoos'
p1792
aS'baddest chick dont believe come tonight magicstick'
p1793
aS'couple hugs give nigga chills'
p1794
aS'give nigga chills paying bill'
p1795
aS'call moma tell'
p1796
aS'inside look like laptop outside look like crack spot'
p1797
aS'feel love money feel love swag'
p1798
aS'dumped last girl wasnt enuff'
p1799
aS'niggas full shit somebody call plumber'
p1800
aS'hate liers passion lien like spitting shit trifling'
p1801
aS'always seem manage shit like'
p1802
ag72
aS'highly upset'
p1803
aS'cool'
p1804
aS'posted photo facebook'
p1805
aS'mommy'
p1806
aS'posted photo facebook'
p1807
ag72
aS'posted photo facebook'
p1808
aS'feel like getting treated'
p1809
aS'next time\xe2\x9c\x8c\xe2\x9c\x8c'
p1810
aS'next wifeyyyy'
p1811
aS'pandoragtgtgt'
p1812
aS'stay jodeci'
p1813
aS'theres always gonna chick clique doesnt like guess give fucks damn'
p1814
aS'xscape kickin'
p1815
aS'respect nigga wrong realniggasstepup bigshoutoutrealniggas'
p1816
aS'love song'
p1817
aS'trey songz fumble'
p1818
aS'daddy told alone makes strong love quality time self right boring cool imisscease'
p1819
aS'continue push gone pull away'
p1820
aS'special delivery'
p1821
aS'hope tears paper dont reach side'
p1822
aS'niggas participate'
p1823
aS'nigga steady callin number'
p1824
aS'aint worried bout shawty ballin'
p1825
aS'worrying another bitch nigga gone forever stressed miserablemfs'
p1826
aS'small chick bars hard'
p1827
aS'love boyfriend 2death'
p1828
aS'retweet dont give fuck'
p1829
aS'snitch nigga thats shit dont like'
p1830
aS'cant nobody love like boyfriend love'
p1831
aS'weekend chillin niggaz disrespectful callin women bitches'
p1832
aS'wild night fuck light'
p1833
aS'lame niggas disgrace'
p1834
aS'take fredo fuck shit'
p1835
aS'want want pipe'
p1836
aS'gangsta'
p1837
aS'people expect text first time ltltlt'
p1838
aS'birdman tapout'
p1839
aS'posted photo facebook'
p1840
aS'cell phones numbers'
p1841
aS'sometimes youre general quarterback plays sometimes youre enemy throwin grenades'
p1842
aS'want'
p1843
aS'played'
p1844
aS'really feel like played'
p1845
aS'slow ticket'
p1846
aS'highly irritated'
p1847
aS'feel good outside guess house today'
p1848
aS'posted photo facebook'
p1849
aS'every nigga sideline hating'
p1850
aS'every girl timeline foreign'
p1851
aS'bangin bombshell'
p1852
aS'love cease wouldnt'
p1853
aS'feels great outside'
p1854
asS'2013_37'
p1855
(lp1856
S'pretty petite'
p1857
ag72
aS'aint done turning bitch'
p1858
aS'bout ride bikes friends bikergirl'
p1859
aS'aries women much balls many'
p1860
aS'aries women dont wondering unless partner otherwise faithful everything'
p1861
aS'aries easily bored'
p1862
aS'tell aries cant show otherwise'
p1863
aS'aries shows fuck'
p1864
aS'aries hella playful'
p1865
aS'aries hard workers always competition'
p1866
aS'whenever someone says dont aries always harder'
p1867
aS'aries best wethebest'
p1868
aS'aries cant stand negative people always complaining everything done'
p1869
aS'aries determined take leadto first make action includes action making first advance'
p1870
aS'aries like perfect balance confidence aggression humor intellect partner'
p1871
aS'people like bring aries past present future look better'
p1872
aS'aries women radiate charm hard resist'
p1873
aS'nothing without love aries'
p1874
aS'stress free'
p1875
aS'miserable liven house'
p1876
aS'gigi said bgc11'
p1877
aS'tiana bgc11'
p1878
aS'tiana aint shit sarah whopped call callin shots bgc11'
p1879
aS'aint like sarah couldnt bgc11'
p1880
aS'sarah intimidated hoes bgc11'
p1881
aS'sarah bitch'
p1882
aS'shit coming bgc11'
p1883
aS'hoes look real thirsty keep picking sarah keeps whooping yall losers'
p1884
ag72
aS'hoes weak sauce jumped girl wrong bgc11 little'
p1885
aS'hoes intimidated sarah bgc11'
p1886
aS'love girls club\xf0\x9f\x92\x8b\xf0\x9f\x98\xbb'
p1887
aS'cant wait till episode come'
p1888
aS'sarah baddest bgc11'
p1889
aS'still fuck'
p1890
aS'still fuck hahaha since'
p1891
aS'shortyy'
p1892
aS'shortyy thafamousmontana'
p1893
aS'shit wisconsin lake house'
p1894
aS'shit wisconsin lake house wasnt invited'
p1895
aS'watchu mean'
p1896
aS'watchu mean watchu mean wassup'
p1897
aS'playing titties every picture shit turning shit'
p1898
aS'playing titties every picture shit turning shit feel'
p1899
aS'followed please subscribe best friends channel link want'
p1900
aS'followed please subscribe best friends channel link want surp'
p1901
aS'dont fuck'
p1902
aS'dont fuck games'
p1903
aS'love nigga fareal'
p1904
aS'keep thoughts feelings shawty'
p1905
aS'broke person opinion neva matters'
p1906
aS'bitch want keep real'
p1907
aS'bitches dont feel like goin school feel like turning weekend'
p1908
aS'avii moma thick grits'
p1909
aS'work dumbest shit could possibly'
p1910
aS'aint gone give'
p1911
aS'aint gone miss cease'
p1912
asS'2013_36'
p1913
(lp1914
S'could choose stay certain forever would'
p1915
aS'could choose stay certain forever would forever'
p1916
aS'question'
p1917
ag72
aS'friends'
p1918
aS'rather rich famous'
p1919
aS'good afternoon loves'
p1920
aS'pandora flow fresh shower'
p1921
aS'hurt learned along'
p1922
aS'thats thats found'
p1923
aS'cleaning room maybe feel better'
p1924
aS'birthdays worst days champagne thirsty'
p1925
aS'real cute'
p1926
aS'head ache'
p1927
aS'worst hang ever'
p1928
asS'2013_35'
p1929
(lp1930
S'bout dressed popout'
p1931
aS'tweakin widd funny'
p1932
aS'want right'
p1933
aS'want need life wouldnt without'
p1934
aS'horny much ridiculous'
p1935
aS'youre prove words nothing point'
p1936
aS'treat like feed like'
p1937
aS'bout'
p1938
aS'baby wanna cater'
p1939
aS'screamin free jade till free free half'
p1940
aS'smiles'
p1941
aS'watching momma'
p1942
aS'molester talking year brother takm bout handle'
p1943
aS'blessed'
p1944
asS'2013_34'
p1945
(lp1946
S'bout girls'
p1947
aS'bout read book'
p1948
aS'ever dark always come light'
p1949
aS'happy birthday loving sister turn'
p1950
aS'hoes givem every reason'
p1951
asS'2013_33'
p1952
(lp1953
S'city bright lights sleep night baby rockstarr'
p1954
aS'strawberry chocolate baybee'
p1955
aS'bangin head'
p1956
aS'badd head'
p1957
aS'real pretty'
p1958
aS'love'
p1959
aS'love cease always come thru need'
p1960
aS'love sista boyfriend looked cute leaving outta exact thing fucks hard keep cute'
p1961
aS'aint'
p1962
aS'aint gone trip'
p1963
aS'tied shit fareal'
p1964
aS'heart hurt literally'
p1965
aS'couple niggas dats ride homicide drama time'
p1966
aS'listenin herb versace'
p1967
aS'still sound funny hell'
p1968
aS'talm bout gucci mane'
p1969
aS'cheif keef said disrespect bricksquad gone drop'
p1970
aS'smokin like citgo'
p1971
aS'bussing fuck rottfl'
p1972
aS'need earrings'
p1973
aS'gone knock door talm bout earrings'
p1974
aS'bussing'
p1975
aS'brotha cock blocka'
p1976
aS'nobody smoke even better loud'
p1977
aS'bout roll dome blunts'
p1978
aS'fuckin irritated'
p1979
aS'cease fucked whole'
p1980
aS'iight need beauty supply rinse'
p1981
aS'love love cease'
p1982
aS'good morning loves'
p1983
aS'bout fish'
p1984
aS'waiting cease'
p1985
aS'women crush wednesday'
p1986
aS'bitches bleached pants summer dont shit wear winter'
p1987
aS'cassidy control'
p1988
aS'control defiantly'
p1989
aS'cassidy'
p1990
aS'puttin name song like puttin silencer'
p1991
aS'dont come wrong correct'
p1992
aS'cassidy came back kendrick lamar shit cold'
p1993
aS'live'
p1994
aS'waking person text messages'
p1995
aS'love give head hate give headaches'
p1996
aS'hate cancers virgos aquarius sagittariuses asses biggest liers'
p1997
aS'thinking'
p1998
aS'going register school today'
p1999
aS'cheat leave bitch alone'
p2000
aS'nasty classy'
p2001
aS'well threw'
p2002
aS'freaks come night'
p2003
aS'freak'
p2004
aS'drunk make best'
p2005
aS'cant even take getting head sometimes'
p2006
aS'getting head dread head best head'
p2007
aS'sloppy head best head'
p2008
aS'dont bother lying find everything'
p2009
aS'minutes extra sleep morning seriously matter'
p2010
aS'dude shit'
p2011
aS'dude shit shit'
p2012
aS'fucked'
p2013
aS'fucked made clear first time'
p2014
aS'fucked right'
p2015
aS'fucked right pretty cool fucked daddy right'
p2016
aS'fucked right'
p2017
aS'fucked right pretty cool'
p2018
aS'fuck cease'
p2019
aS'fuck cease fuck'
p2020
aS'sloppy head best head'
p2021
aS'love high right goes'
p2022
aS'relationships aint everybody'
p2023
aS'girl dont want nigga nomo'
p2024
aS'chicago best city love shit'
p2025
aS'aint loyal cant rock'
p2026
aS'love independent women shid mama'
p2027
aS'takes lose interest'
p2028
aS'herb versace shit period'
p2029
aS'matching tatts dont come even rings come'
p2030
aS'hold heart dont care come'
p2031
aS'care baby long next loving crime tell bring best'
p2032
aS'lovejayz song part'
p2033
aS'bout shower clean room read book wine cooler sounds like plan'
p2034
aS'walked hour half'
p2035
aS'went walking moma today'
p2036
aS'thankful toyaaa montana gtgtgtgtgtgtgtgt love'
p2037
aS'easy believe someone they\xe2\x80\x99re telling exactly want hear'
p2038
aS'fuck time'
p2039
aS'lifeee kendrick lamar went hard sleep'
p2040
aS'niggas niggas dont involved'
p2041
aS'many bombs make farrakhan think saddam bitch'
p2042
aS'miscellaneous minds never explainin minds'
p2043
aS'kendrick lamar control'
p2044
aS'people kendrick lamar mentioned shouldnt feel threatened ones didnt mention'
p2045
aS'dick lmpaobvs'
p2046
aS'cant nobody like'
p2047
aS'gone fuck night'
p2048
aS'cant wait cease come'
p2049
aS'snored snored back'
p2050
aS'jholiday suffocate'
p2051
aS'love'
p2052
aS'wanna sleep phone shit'
p2053
aS'cease cakes'
p2054
aS'relationship long even feels like single'
p2055
aS'every broad timeline foreign'
p2056
aS'pussy aint better loyal pussy difference rider passenger'
p2057
aS'weather friend ship relationship bonds build trust nothinggg'
p2058
aS'fuckin ratchet think shit cute'
p2059
aS'fuckin ratchet think shit cute hahah must think cute acknowledge ratchet'
p2060
aS'feel free anything lets'
p2061
aS'whats havin aint gone throw'
p2062
aS'hear sirens make love'
p2063
aS'care baby long next loving crime tell bring best'
p2064
aS'toya montana toya montana toya montana molly white'
p2065
aS'bitches desperate'
p2066
asS'2013_32'
p2067
(lp2068
S'always forever'
p2069
aS'thats'
p2070
aS'feel type around'
p2071
aS'love cease'
p2072
aS'good shower slept good'
p2073
aS'cease silly house still text'
p2074
aS'dick like bullet'
p2075
aS'deeper words beyond right love beyond life sweet jesus piece beyond'
p2076
aS'drezzy mikey dolla shit'
p2077
aS'hoes going fuck anybody'
p2078
aS'side bitch main bitch main bitch aint feeling'
p2079
aS'gotta respect like respect dont want nobody disrespecting'
p2080
aS'hale hale'
p2081
aS'wonder still mans years'
p2082
ag72
aS'cook tati real breakfast morning'
p2083
aS'game good daddy'
p2084
aS'love game farther figure\xf0\x9f\x98\x8d'
p2085
aS'bitches fuckin many niggas wind pregnant dont babydaddy'
p2086
aS'always tough school asked read paragraph loud'
p2087
aS'wale clappers'
p2088
aS'pizza sound good right'
p2089
ag72
aS'question'
p2090
aS'questions link page'
p2091
aS'quality like woman'
p2092
aS'quality like woman fuck bitches period'
p2093
aS'damn well still'
p2094
aS'damn well still'
p2095
aS'damn well still'
p2096
aS'damn well still'
p2097
aS'text frfr'
p2098
aS'text frfr'
p2099
aS'single'
p2100
aS'single nope spoken'
p2101
aS'interested'
p2102
aS'interested interested'
p2103
aS'hate bitch talk much'
p2104
aS'bitches want nigga like obama dont wanna michelle'
p2105
aS'feel like malcom stuck middle'
p2106
aS'want head'
p2107
aS'gotta main bitch name'
p2108
aS'bout straighten room'
p2109
aS'juat twooooo'
p2110
aS'imma ride nigga dogggg straightschemin'
p2111
aS'wouldnt'
p2112
aS'thats'
p2113
aS'anything'
p2114
aS'ride'
p2115
aS'cease like bonnie clyde'
p2116
ag72
aS'jade reynolds'
p2117
aS'arrogant'
p2118
asS'2013_31'
p2119
(lp2120
S'follow follow back'
p2121
aS'happy birthday bisshhhhh booski turn turn'
p2122
aS'baby phone turn'
p2123
aS'movie funny hell'
p2124
aS'dude flame'
p2125
aS'told must around ears'
p2126
aS'watching phat girlz'
p2127
ag72
aS'heart'
p2128
aS'shit longest'
p2129
aS'cease gtgtgtgt'
p2130
aS'love ceasseeeee'
p2131
aS'bitches stab back bleeding'
p2132
aS'phone tati'
p2133
aS'still gotta hair deggg'
p2134
aS'outfit saturday'
p2135
aS'bout braids'
p2136
aS'keep friends close enemies closer problem days cant tell apart'
p2137
aS'goodmorning'
p2138
aS'month erbody'
p2139
aS'retweet goodmorning mention'
p2140
aS'oomf shout return favor'
p2141
aS'goodmorning'
p2142
aS'morning pretty'
p2143
aS'goodmorning'
p2144
aS'good morning hunns'
p2145
aS'good morning gurll'
p2146
aS'good morning sweetie'
p2147
aS'good morning loves retweet mention'
p2148
aS'would lien told aint still care'
p2149
aS'rocking bottoms aint'
p2150
aS'every nigga would faithful took inch dick\xf0\x9f\x8d\x86 every time cheated'
p2151
aS'notice everything like dont'
p2152
aS'admit sometimes easier don\xe2\x80\x99t care explain reasons'
p2153
aS'oomf need shout'
p2154
aS'dont neva nigga think need'
p2155
aS'fuck everything wanna shit together worries done'
p2156
aS'dont want kids anytime soon want success first ongod'
p2157
aS'grandma radio station 1027 cutting'
p2158
aS'dont fuck anymore call holding grudges simply call fucking anymore'
p2159
aS'dont hold grudges rent live head'
p2160
aS'rich aint sharing shit fuck'
p2161
ag72
aS'kissing something refuse'
p2162
aS'staying forward'
p2163
aS'niggas trust bitch everytime bitch trusting bitch'
p2164
aS'dont want kids anytime soon want success first'
p2165
aS'funny thing ever wanted already'
p2166
aS'loyalty aint shit word days aint shit'
p2167
aS'people think inappropriate thingsi perfer think fucking honest'
p2168
aS'dont like hate hate'
p2169
aS'done trying fuck fuck fuck fuck fuck probably still text tomorrow though fuck'
p2170
aS'hoes think turning lesbian gives fresh start dicks sucked high school\xe2\x9c\x8bnah still'
p2171
aS'dont sweat anybody either fuck dont\xf0\x9f\x92\xaf'
p2172
aS'shout cousin'
p2173
aS'summer need slow fuck frfr\xf0\x9f\x95\x9b'
p2174
aS'ignored annoying things earth'
p2175
aS'relationships like months good\xe2\x9d\xa4 year breaking years babe love years damn'
p2176
aS'hoes'
p2177
aS'follow back\xe2\x80\x9d'
p2178
aS'akeylah think aint miss funny'
p2179
aS'bitches dislike theyll ride anybody thats'
p2180
aS'cant fuck cause levels bitch'
p2181
aS'fuck friend sisters'
p2182
aS'joseline determined sideline'
p2183
aS'dont like fuck you\xe2\x9c\x8cif take nigga him\xf0\x9f\x9a\xb6if texting line tell said wassup babe\xf0\x9f\x91\x8bif'
p2184
aS'hoes like yall cute girl omfg finds yall broke like always crush lmao'
p2185
aS'aint talking bout soul food wacked cabbage'
p2186
aS'niggas days eating anybody pussy'
p2187
aS'akeylah thinks truth'
p2188
aS'follow'
p2189
aS'cant losing'
p2190
aS'think tiered trying'
p2191
asS'2013_30'
p2192
(lp2193
S'always foreva'
p2194
aS'back mine'
p2195
aS'heart'
p2196
aS'cant bitch take place'
p2197
aS'cease gonne married'
p2198
aS'slept good known right side'
p2199
aS'bond cease unbreakable'
p2200
asS'2013_19'
p2201
(lp2202
S'miss ceaseee'
p2203
aS'watching game heatvsbulls'
p2204
aS'late nights like swear miss mycease'
p2205
aS'arnetta blowing'
p2206
aS'smoking dope high like eagle'
p2207
aS'whats really going'
p2208
asS'2013_18'
p2209
(lp2210
S'dont look alike'
p2211
aS'asses look alike'
p2212
aS'photobox'
p2213
aS'100s'
p2214
aS'cracking block bitch dead'
p2215
aS'fuck really going'
p2216
aS'broadcasting live hangwith iphone come hang wthafamousmontana'
p2217
aS'love bitch jerrica'
p2218
aS'good morning baybbeeee'
p2219
aS'niggas ride uoeno'
p2220
aS'uoeno'
p2221
aS'defiantly real battle field aint'
p2222
aS'gone play stupid stumped theeee fuck onmylife'
p2223
aS'ever fuck want fuck gone stop aint dodging kind action aint blood'
p2224
aS'aint running aint hard find'
p2225
aS'bitch betta move around hands aint talkin bout'
p2226
aS'woke good bull shit'
p2227
aS'called mean suppose stop sayin said'
p2228
aS'good morninggggg'
p2229
aS'fuck callin house fuckin early fuck'
p2230
aS'pussy jury makeem burrrrman'
p2231
aS'ball head dont want forest gump'
p2232
aS'baddest pussy planet dboys love meee dont understand'
p2233
aS'good night baybeee'
p2234
aS'guess bout call goodnight'
p2235
aS'stupid dumb hoes swea nigga hands love noooooo loved wouldnt'
p2236
aS'feelings thought gone came rushing back'
p2237
aS'something'
p2238
aS'blowin kisses pussy lips smooches'
p2239
aS'wrong last time'
p2240
aS'aint sparing feelings none niggas wouldnt female heart gone'
p2241
aS'cold hearted bitch'
p2242
aS'heart cold'
p2243
aS'aint sparing feelings nigga'
p2244
aS'every time look jwebb jerrica onmysht webster starting something shit damn jade hate bitch like argue shit'
p2245
aS'bitch jwebb something else'
p2246
aS'bitch jerrica onmysht webster speaking real shit'
p2247
aS'niggaz petty shit like putting hand bitch whole'
p2248
aS'phone bitch'
p2249
aS'need appreciate time make appreciate'
p2250
aS'tommy bondz want give'
p2251
aS'cocky thats cool getting money thats'
p2252
aS'crusin threw city window'
p2253
aS'beat like instrumental'
p2254
aS'niggas lien rapping'
p2255
aS'hoes'
p2256
aS'half'
p2257
ag72
ag72
aS'pretty'
p2258
ag72
aS'ceaseeeeeeee\xe2\x99\xa5'
p2259
aS'cheating callin txtin talkin kissin huggin winkin seein flirtin anyone besides'
p2260
aS'eating fuck around food fight'
p2261
aS'call mrsandman killin hoes dreams'
p2262
aS'cant trust none niggas cant trust hoes nigga want nigga tevoed'
p2263
aS'never talk cops dont speak latin'
p2264
aS'money bring cars cars bring hoes rockkstarlifeee'
p2265
aS'free bands movie'
p2266
aS'million dolla check dont bounce'
p2267
aS'dboy loves dont understand'
p2268
aS'million dollar pussy sleeping versace'
p2269
aS'million dolla'
p2270
aS'shorty'
p2271
aS'home sweet home back house 100s'
p2272
aS'still girls kickin'
p2273
aS'tweaking'
p2274
aS'smoking good loud'
p2275
aS'sitting porch sistas drink'
p2276
aS'kick bobos sistas'
p2277
aS'asap rocky wild night'
p2278
aS'nigga feeling froggy leap'
p2279
aS'watching dysfunctional friends'
p2280
aS'cooling'
p2281
aS'fuck really going'
p2282
aS'surrounded bunch pathetic hoes'
p2283
aS'degrees'
p2284
aS'shooters delete'
p2285
ag72
aS'really enjoying drama free'
p2286
aS'solo whats jessie come fuck'
p2287
aS'cool ladies feel good hell enjoying weather'
p2288
aS'enjoying weather smoking loud'
p2289
aS'100s enjoying weather'
p2290
aS'thing sista think right link card come fseeeee'
p2291
aS'want bitch want another bitch want another bitch cuddle'
p2292
aS'niggas gangstas bitches freaks'
p2293
ag72
aS'birthday tweet bdaytweet'
p2294
aS'south folks dont mind buisness'
p2295
aS'hung hundreds'
p2296
aS'cant wait bitch miss twin'
p2297
aS'wanna keep could never'
p2298
aS'wanna wanna cash'
p2299
aS'wanna smoke till cant today'
p2300
aS'woke seen'
p2301
aS'girl best friend tripping'
p2302
aS'gotti cases'
p2303
aS'club whoop silence'
p2304
aS'bitch wasnt fuckin nigga left'
p2305
aS'bout take'
p2306
ag72
aS'follow shit point jukin follow'
p2307
ag72
aS'hoes trynna head lookin like popped flamin looked good'
p2308
aS'good morning every'
p2309
aS'bout shower cake oven cakeit'
p2310
aS'posted photo facebook'
p2311
aS'never drop diamond rock ampamp never drop wife thot'
p2312
aS'wish cease'
p2313
aS'inchicago think facebook famous wont beat'
p2314
aS'twin looked pretty free jade'
p2315
aS'baddest pussy planett dboys love dont stand'
p2316
aS'pussyyyyyy'
p2317
aS'shorty gone newport'
p2318
aS'momma tweakin hard'
p2319
aS'bring broom lakers swept'
p2320
ag72
ag72
aS'check shortie'
p2321
aS'nightstand right next bible'
p2322
aS'call mrsandman killin hoes dream'
p2323
aS'million dolla pussy million dolla pussy inch pumps'
p2324
aS'driveem crazy seatbelt'
p2325
aS'pussy like shell'
p2326
aS'nigga choosy never ever fuck rubber'
p2327
aS'tell pigs asaalamma aleikumm'
p2328
aS'toya bout cumm cummin withcha'
p2329
aS'hatin need pussy fucked gave pussy'
p2330
aS'dont fuck dont pussy'
p2331
asS'2013_39'
p2332
(lp2333
S'pretty bish'
p2334
aS'aint bish like honest'
p2335
aS'fuck know bout'
p2336
aS'last night kush ciroc super geeked'
p2337
aS'life uncertain death unwanted'
p2338
aS'cool young young sober'
p2339
aS'fuck might attached'
p2340
aS'miscellaneous bitches irrelevant'
p2341
aS'mother daughter'
p2342
aS'approve seeing females beside'
p2343
aS'smoke loudpack'
p2344
aS'fucks king louie jeep music niceamp slow'
p2345
aS'bout cute'
p2346
aS'still gotta argue gone stay mind feel doubt self'
p2347
aS'bitch finna cute'
p2348
aS'rather rich famous'
p2349
aS'crazy girls loyal ones'
p2350
aS'everybody talks everybody listens somehow truth always comes missin'
p2351
aS'dont fear enemy attacks ubut fake friend shake hand'
p2352
aS'bitches walkin around steal face feelin type aint gone shit'
p2353
aS'trust fuckin sole thats role solo fuck bitches'
p2354
aS'everything'
p2355
aS'least aint broke bitch'
p2356
aS'cashed'
p2357
aS'bitch finna'
p2358
aS'aries spend money freely willingly'
p2359
aS'hard goodbye yesterday'
p2360
aS'love aaliyah'
p2361
aS'love million goes'
p2362
aS'workin ipad need called trap'
p2363
aS'want loud bring noise'
p2364
aS'forever birthday comin'
p2365
aS'gotta back beauty supply'
p2366
aS'bout probably'
p2367
aS'want braids'
p2368
aS'good dick shower best feeling ever'
p2369
aS'crazy'
p2370
aS'shit'
p2371
aS'aries dedicated ones love'
p2372
aS'aries look trouble love addicted conquest'
p2373
aS'aries upset loved ones make lose respect'
p2374
aS'aries highly rebellious'
p2375
aS'aries turned humour someone stronger'
p2376
aS'aries highly rebellious\xe2\x80\x9d'
p2377
aS'wybo'
p2378
aS'thott'
p2379
aS'4get haters cause somebody loves'
p2380
aS'thru enough shit realize real certain shit'
p2381
aS'bout shower somethin aint tiered'
p2382
aS'thing right spot'
p2383
aS'sleep shit'
p2384
aS'listening pandora'
p2385
aS'make feel type'
p2386
aS'slap dick pussy stick head tell come rest dick'
p2387
aS'love connection frfr'
p2388
aS'question'
p2389
aS'booty'
p2390
aS'aint smoked month'
p2391
aS'bitches'
p2392
asS'2013_38'
p2393
(lp2394
S'period'
p2395
aS'grandma cookin sunday dinner'
p2396
aS'hair finns'
p2397
aS'want chinese food'
p2398
aS'cutt'
p2399
aS'indecisive'
p2400
aS'braids back'
p2401
aS'even want hair'
p2402
aS'need beauty supply'
p2403
aS'family need'
p2404
aS'love life well would enuff untill time'
p2405
aS'aaliyah come'
p2406
aS'pandoragtgtgt'
p2407
aS'love unconditional'
p2408
aS'always wanna sleep together'
p2409
aS'cakes'
p2410
aS'cease need come home'
p2411
aS'love cease'
p2412
aS'forever'
p2413
aS'annoyed easily react fast'
p2414
aS'bout take cleaned whole house tiered'
p2415
aS'watching momma'
p2416
aS'bitches lookin sympathy'
p2417
aS'shit aint even cute'
p2418
aS'hate bitch claim pregnant every nigga fuck'
p2419
aS'always cant kiss aint kissin body else period'
p2420
aS'bite tongue shit bite tongue shit hurts realbadd'
p2421
aS'shit turn around cool'
p2422
aS'bipolar crazy much call want point across either goes'
p2423
aS'noway period'
p2424
aS'outspoken'
p2425
aS'thats type person'
p2426
aS'like doin'
p2427
aS'littlest thing make spazz'
p2428
aS'dont'
p2429
aS'saved hella money geico given fucks'
p2430
aS'shid care'
p2431
aS'dont fuck attitude'
p2432
aS'rather hate real kick fake'
p2433
aS'tolerance bullshit'
p2434
aS'good morning loves'
p2435
aS'made'
p2436
aS'walk that\xe2\x80\x99s talk that\xe2\x80\x99s you\xe2\x80\x99ve hair forget that\xe2\x80\x99s'
p2437
aS'cant trust sole even devil angel'
p2438
aS'pandora flow'
p2439
aS'fufu niggas scared claim girl\xf0\x9f\x91\x8f\xf0\x9f\x91\x8f\xf0\x9f\x91\x8f\xe2\x80\x9d'
p2440
aS'always fuck nigga tryna claim real knockitoff'
p2441
aS'theres nothin important money hustlin hustlin\xf0\x9f\x92\xaf\xe2\x9c\x94\xef\xb8\x8f\xf0\x9f\x92\xb8\xf0\x9f\x92\xb0'
p2442
aS'high earth higher jesus'
p2443
aS'honest'
p2444
aS'pathetic'
p2445
aS'whole thots lookin'
p2446
aS'inlove bitch name murder'
p2447
aS'pocket full dead guys know anti antisocial antilabor anticool nigga aint'
p2448
aS'wrote autobiography youd lying hennessy wine glass'
p2449
aS'fuck niggas reflexion shadow'
p2450
aS'love weeknd'
p2451
aS'would skip bitches like spacebar much rather delete bitches'
p2452
aS'want loud imma bring noise'
p2453
aS'good morning loves'
p2454
aS'montana bitches'
p2455
aS'yessss'
p2456
aS'cant sleep'
p2457
aS'types people tell truth kids drunk angry aries'
p2458
aS'aries ignore pretend dont existbut deep know wasnt supposed like'
p2459
aS'aries status favourite song'
p2460
aS'aries great need privacy personal space love think highly original plans'
p2461
aS'aries anything twice good'
p2462
aS'bout shower'
p2463
aS'jade bull shit ride dick'
p2464
aS'bitches recruiting'
p2465
aS'follow might change life'
p2466
aS'jumpin lowkey stop follow boss'
p2467
aS'need lurk follow ifollowback'
p2468
aS'follow'
p2469
aS'iove fuck'
p2470
aS'need cease come'
p2471
aS'shit aint blood'
p2472
aS'hating next bitch cool'
p2473
aS'cheating choice mistake'
p2474
aS'homie lover friend'
p2475
aS'thats forever boii'
p2476
aS'care cease gone matter'
p2477
ag72
aS'twinsss'
p2478
ag72
ag72
ag72
aS'aint even breakfast person\xe2\x80\x9d'
p2479
aS'dont expect going show amount love show'
p2480
aS'girlfriends keep track hold back good times times\xe2\x80\xa6'
p2481
aS'dont need anyone doesnt need'
p2482
aS'females think relationships cute together\xf0\x9f\x91\xab matching\xf0\x9f\x91\x95\xf0\x9f\x91\x96\xf0\x9f\x91\x9f taking pictures\xf0\x9f\x93\xb7 levels\xf0\x9f\x93\xb6 this\xe2\x80\xa6'
p2483
aS'retweeted basically saying feel nigga'
p2484
aS'aint even breakfast person'
p2485
aS'much care'
p2486
aS'went ihop today'
p2487
aS'went insidious today movie decent enjoyed'
p2488
aS'chick'
p2489
ag72
aS'suck dick keep'
p2490
aS'please baby'
p2491
aS'please baby please'
p2492
asS'2013_11'
p2493
(lp2494
S'posted photo facebook'
p2495
aS'posted photo facebook'
p2496
aS'sippin 1800 kianna garrett listening music turnin still'
p2497
aS'side bitch main bitch main bitch aint feeling'
p2498
aS'come follow room love piece'
p2499
aS'rolling flat drinkin sunny orange juice'
p2500
aS'girls aint good good girls aint hood girls want smart nigga college girls want thug'
p2501
aS'bitches cant find ride good'
p2502
aS'love ride'
p2503
aS'mention'
p2504
aS'drive across country asked'
p2505
aS'bitch remind mama keeper'
p2506
aS'crib'
p2507
aS'subliminal post guilty person thinking'
p2508
aS'fake niggas tickle elmo'
p2509
aS'trending topic real'
p2510
aS'waiting rudeypooh'
p2511
aS'fuck ceasee'
p2512
aS'kari shit think jada gone gone nahhhhhhh'
p2513
aS'ugly aint right picky'
p2514
aS'boyfriend love girlfriend'
p2515
aS'aint good lookin bitch'
p2516
aS'bitches ballin bitch dont talkin'
p2517
aS'gurl gurl friend'
p2518
aS'real shit'
p2519
aS'wasssuppp'
p2520
aS'cant wait till bitch jade come home'
p2521
ag72
aS'haha make clapp'
p2522
aS'dont action mislead wanted never needed'
p2523
aS'love'
p2524
aS'nigga aint even badd'
p2525
aS'scared money dont make nomoney'
p2526
aS'like girls like girlsss'
p2527
aS'bitches gone like summer'
p2528
aS'hoes argue aint time money wegettingtothemoney understament'
p2529
aS'hate bitch would next bitch make self feel good look good like'
p2530
aS'whole shit'
p2531
aS'fuck nigga money hoes laughin'
p2532
aS'back bitchesssss'
p2533
aS'hoes goin around lookin drama well doin around bitch gettin banded'
p2534
aS'cashin bitch money team less drama money'
p2535
aS'dont surprised talk louder speak wrong'
p2536
aS'dont brand kind'
p2537
ag72
aS'bout call early godbless'
p2538
asS'2013_10'
p2539
(lp2540
S'zone feeling nobody make sound feeling'
p2541
aS'found brand kind'
p2542
aS'really really really fuckin irritated'
p2543
aS'note hate sober rolling pack'
p2544
aS'thought last ltltltltltltltltltltlt'
p2545
aS'bout house aint fuckin nobody today blew thank cease'
p2546
aS'long trynna lookin like already'
p2547
asS'2013_13'
p2548
(lp2549
S'fucking shit done'
p2550
aS'nails'
p2551
aS'fuck birthday'
p2552
aS'hearin voice like music ears'
p2553
aS'yall dick riding still broke'
p2554
aS'yall feel know game'
p2555
aS'really could give fuck less basketball dont wrong watch'
p2556
aS'every body talking fucking game'
p2557
aS'jade nunu tweakin frfr'
p2558
aS'shit crazy still havent heard'
p2559
aS'still gotta something wear birthdays'
p2560
aS'dont certain days'
p2561
aS'bulls need maintain lead'
p2562
aS'fuckin irritated'
p2563
aS'ibprofen needed'
p2564
aS'headache kicking'
p2565
aS'head hurt'
p2566
aS'really dont'
p2567
aS'0403'
p2568
aS'0403 twin'
p2569
aS'slightly pissed aint talk cease'
p2570
aS'days untill bday aries april turnup'
p2571
aS'make next move best move'
p2572
aS'petty fareal days aint called'
p2573
aS'sweater pretty'
p2574
aS'rockin rock jeans'
p2575
aS'bout jacket made'
p2576
aS'dont suprised brand kind'
p2577
aS'miss cease ever'
p2578
aS'tweet'
p2579
aS'want'
p2580
aS'bday exactly week turn fuck'
p2581
aS'first time write wrong workingonthisletter fumble treysongz'
p2582
aS'talking sister birthday'
p2583
aS'pass'
p2584
aS'sitting working letter'
p2585
aS'miss cease'
p2586
aS'sittin sister'
p2587
aS'ceaseeee'
p2588
asS'2013_12'
p2589
(lp2590
S'talk shit halitosis'
p2591
aS'dude really played part'
p2592
aS'nothin nothin fumble'
p2593
aS'wish touch'
p2594
aS'face time'
p2595
aS'hate sober'
p2596
aS'sisters bout roll wakenbake'
p2597
aS'listening pandora tamarbraxtonstation'
p2598
aS'norine spazzing kieta fseeeeee'
p2599
aS'posted photo facebook'
p2600
aS'oclock mornin'
p2601
aS'heart blew'
p2602
aS'posted photo facebook'
p2603
aS'posted photo facebook'
p2604
aS'posted photo facebook'
p2605
aS'bout roll sober'
p2606
aS'tweaking'
p2607
aS'time bday april'
p2608
aS'missin cease'
p2609
aS'hack bitch mzjuicy garrett love jade'
p2610
aS'posted photo facebook'
p2611
aS'posted photo facebook'
p2612
aS'pussy dark skinned'
p2613
aS'hate count money'
p2614
aS'distant dont mean changed means mind totally different dramafree'
p2615
aS'birthday april comin'
p2616
aS'bdaytweet'
p2617
aS'tweet bdaytweet'
p2618
aS'chest heart'
p2619
aS'bout liquor'
p2620
aS'take shot'
p2621
aS'lied neglected trynna break imma harder'
p2622
aS'need drugs'
p2623
aS'reason'
p2624
aS'wondering thinking talkin bout cease'
p2625
aS'hate fact every body voice heard mine'
p2626
aS'never aint bout start'
p2627
aS'type kiss body'
p2628
aS'reason'
p2629
aS'bitxhes hawkin page'
p2630
aS'hate bitches outside trying find whats goin inside'
p2631
aS'dick'
p2632
aS'like party hard glock forty body guard'
p2633
aS'music gets party heart'
p2634
aS'told grandma need sleepin floor'
p2635
aS'walked away walked away stayed babyyyy'
p2636
aS'said done told'
p2637
aS'schoolin bitches pose class picture'
p2638
aS'hoes stop hatin jade time'
p2639
aS'half yall hoes rest snitches'
p2640
aS'waiting'
p2641
aS'love'
p2642
aS'high'
p2643
aS'birthday comin'
p2644
aS'lord good cant wait answers prayers'
p2645
aS'hoes hating give every reason'
p2646
aS'really need fuckin break feel like breakin vacation'
p2647
aS'distant people best'
p2648
aS'never made love sure fuck'
p2649
aS'hate faced people'
p2650
aS'paper gone come gotta money wasnt born'
p2651
aS'kiss clit miseltoe'
p2652
aS'people doin petty shit child minded'
p2653
aS'hoped king size friends green guys'
p2654
aS'worked still wouldnt feel'
p2655
aS'jade trending topic girl conversation'
p2656
aS'hoes'
p2657
aS'bout smoke'
p2658
aS'bangin popeyes right high'
p2659
aS'today broski bday gills bout turn time good times'
p2660
aS'smoking hella dope right'
p2661
aS'drive across country asked'
p2662
asS'2013_15'
p2663
(lp2664
S'posted photo facebook'
p2665
aS'asked remove enemies life next thing started losing friend erbodyaintyafriend'
p2666
aS'asked remove enemies life next thing started losing friends everybodyaintyofriend'
p2667
aS'baby stay mind dreams'
p2668
ag72
aS'posted photo facebook'
p2669
aS'poof like check gone'
p2670
aS'always want jump something wanna think every excuse'
p2671
aS'cease fuckin nerves'
p2672
aS'bout 100z'
p2673
aS'need smoke'
p2674
aS'dont lose friends learn real ones'
p2675
aS'quiet around'
p2676
aS'sitting porch enjoying weather'
p2677
aS'bout come smoke'
p2678
aS'bout shower'
p2679
aS'wish blunt smoke'
p2680
aS'bout hair porch feels nice side'
p2681
aS'house bout back quiet'
p2682
aS'glad every body leavein'
p2683
aS'baby jojo'
p2684
aS'teetee baby bout leave'
p2685
aS'need bottle hella dope sober long'
p2686
aS'need take pictures'
p2687
aS'bout nephew dressed finally reached departure time'
p2688
aS'iceeeyyy coneee'
p2689
aS'woke back'
p2690
aS'good morning sweetie'
p2691
aS'eating cereal watching martin'
p2692
ag72
aS'used goodmorning mentions majority yall fucked never said back used followers hope'
p2693
aS'good morning loves'
p2694
aS'theres meeting bedroom dont late'
p2695
aS'posted photo facebook'
p2696
aS'trust believe'
p2697
aS'thafamousmontana thafamousmontana thafamousmontana thafamousmontana'
p2698
aS'house nephew'
p2699
aS'martin people'
p2700
aS'disappointed cease'
p2701
aS'amytramphouse motherfucker never pussy\xe2\x80\x9du lmao damn come from\xe2\x80\x9dmy momma pussy'
p2702
aS'thinking kill happiness'
p2703
aS'need drink whole bottle\xe2\x80\x9dme'
p2704
aS'wanna keep never'
p2705
aS'wanna show much dedicated'
p2706
aS'crave cant'
p2707
aS'need dope'
p2708
aS'note'
p2709
aS'questions gone asked playing role'
p2710
aS'really mood'
p2711
aS'give reasons really love give reasons never leaving'
p2712
aS'need love free daddy kapo quan jonjon jade goolie aint right auntie stine twincity'
p2713
ag72
aS'theres blessing every lesson glad'
p2714
aS'love makes feel'
p2715
aS'hate acting like dont care really tears inside'
p2716
aS'nothin bord'
p2717
ag72
aS'someone make still want stay'
p2718
aS'listening pandora tynisha kelli station'
p2719
aS'fool'
p2720
aS'love make crazy things'
p2721
aS'fuckin high'
p2722
aS'really anger best'
p2723
aS'blowin frfr'
p2724
aS'fuckin movement'
p2725
aS'bitches aint shit'
p2726
aS'good hanging boring still drama'
p2727
aS'thats real nigga shit'
p2728
aS'call want something soon doin good outta sight'
p2729
aS'hate sleeping alone drake'
p2730
aS'sour deezel favorite'
p2731
aS'wanna sistas mzjuicy garrett kianna garrett bone ballard moved'
p2732
aS'sometimes need alone'
p2733
aS'bitch dont kill vibe'
p2734
aS'dont wanna neva'
p2735
aS'gone miss party 100s'
p2736
aS'hoes come dime dozen'
p2737
aS'real niggaz take care family'
p2738
aS'montana'
p2739
aS'fuck want fuck dont'
p2740
aS'twitter diary'
p2741
aS'used goodmorning mentions majority yall fucked never said back used followers hope'
p2742
aS'cant chase something doesnt wanna caught'
p2743
aS'insecurities meet trust issues'
p2744
aS'much laid back person dont like lied played mislead'
p2745
aS'dont ever assume never find something always'
p2746
aS'wassup ooley moved'
p2747
aS'wassup aint seen'
p2748
aS'didnt choose antisocial life antisocial life chose'
p2749
aS'know mann dont anything'
p2750
aS'speak hear'
p2751
aS'anybody pussy everybody dont clean pussy'
p2752
aS'expensive girl well girl shit'
p2753
aS'heart warming things without even realizing'
p2754
aS'love cease'
p2755
aS'cant wait baby'
p2756
aS'goodmorning'
p2757
aS'1017 brick squad'
p2758
aS'posted photo facebook'
p2759
aS'posted photo facebook'
p2760
aS'posted photo facebook'
p2761
aS'posted photo facebook'
p2762
aS'posted photo facebook'
p2763
aS'posted photo facebook'
p2764
aS'posted photo facebook'
p2765
aS'hacked sister'
p2766
aS'give'
p2767
aS'posted photo facebook'
p2768
aS'morning'
p2769
aS'goodmorninggg'
p2770
aS'goodmorninggggggg'
p2771
aS'happy birthday twinster jayde nicole love hope enjoy self'
p2772
aS'good morning mentions'
p2773
aS'goodmorningggggg mentions retweet'
p2774
aS'good morning mentions'
p2775
ag72
aS'grandma makin full course breakfast throwin'
p2776
aS'good morning baby'
p2777
aS'good morning'
p2778
aS'good morning sweetie'
p2779
aS'good morning sweetie'
p2780
aS'good morning sweetie nice follow back'
p2781
aS'good morning mentions retweet'
p2782
aS'good morning mentions retweet'
p2783
aS'good morning mentions'
p2784
aS'goodmorning mentions'
p2785
aS'goodmorning mention'
p2786
aS'goodmorning mentions anybody'
p2787
aS'good morning mentions favorite follow followback though'
p2788
aS'retweeet good morning mentions'
p2789
aS'good morning love retweet mention'
p2790
aS'weed mozart'
p2791
aS'thanks love babe'
p2792
aS'horny random times\xf0\x9f\x98\xabltltltltltltltltltltltltltltltlt'
p2793
aS'hold heart show start amazing shine dark'
p2794
aS'think time take trip'
p2795
aS'gone think inventedsex'
p2796
aS'love wrong'
p2797
aS'make still want'
p2798
aS'wanna friend'
p2799
aS'beyond'
p2800
aS'dance cease dick loved shit'
p2801
aS'reeboks yeen even know'
p2802
aS'fuck fuck momma'
p2803
aS'rude aint even rudeville'
p2804
aS'swerve nigga acting'
p2805
aS'nephew week yayyyy aint like'
p2806
aS'take bullet take rumors'
p2807
aS'haters motivators keep grinding'
p2808
aS'kickin aint going steady'
p2809
ag72
aS'sitting computer stop follow instagram'
p2810
aS'theres blessing every lesson'
p2811
aS'gone tell friends remix'
p2812
aS'stil laying listening pandora'
p2813
aS'good morning loves happyfriday'
p2814
aS'somebody said gone sunn skies loveandwar'
p2815
aS'pussy'
p2816
aS'follow instagram thafamousmontana thafamousmontana thafamousmontana thafamousmontana'
p2817
aS'never made love sure fuck'
p2818
aS'swea love cease means world'
p2819
aS'shout bank account gotta zeros'
p2820
aS'high pilot take detour'
p2821
aS'hands like count money eyes close'
p2822
aS'nigga cool like water lava'
p2823
aS'kiss hating'
p2824
aS'posted photo facebook'
p2825
aS'posted photo facebook'
p2826
aS'grandma gotta smoke smoker choice cigarettes'
p2827
aS'money bring cars cars bring hoes'
p2828
aS'bitches lying cool points'
p2829
aS'niggaz session lets make movie want regret foreal'
p2830
aS'dirty birds callem julio'
p2831
aS'hell'
p2832
aS'phone sistas daddy asses funny'
p2833
aS'sista suspension'
p2834
aS'devantae'
p2835
aS'jada beat'
p2836
aS'asses stupid frfr'
p2837
aS'jada school called'
p2838
aS'lmpao'
p2839
aS'thats funny aint never heard'
p2840
aS'finna subspended purpose watch'
p2841
aS'want'
p2842
aS'pregnate'
p2843
aS'fought devantae'
p2844
aS'pics'
p2845
ag72
aS'back house'
p2846
aS'good morning jada'
p2847
aS'bout ride momma drop brother woke'
p2848
aS'good morning world'
p2849
aS'listening piece'
p2850
aS'picture body'
p2851
aS'eatin fuck around food fight'
p2852
aS'tell bitches hatin aint worries'
p2853
aS'behind back like numchucks'
p2854
aS'sexually frustrated fareal'
p2855
aS'aint none almost month'
p2856
aS'wish knew weed around house'
p2857
aS'facetime'
p2858
aS'bout shower'
p2859
aS'perfect cant perfect best person drained'
p2860
aS'since sticky hands'
p2861
aS'want dont talk ahead free self fantasia'
p2862
aS'thats'
p2863
aS'curious'
p2864
ag72
aS'child whole situation'
p2865
aS'aint shit pick phone'
p2866
aS'posted photo facebook'
p2867
aS'house dirty pussy dirty'
p2868
aS'eyebrows'
p2869
aS'nails pretty'
p2870
aS'fuck'
p2871
aS'aint gone stress shit'
p2872
aS'lost cant help self feel love baby'
p2873
aS'trynna find going distant'
p2874
aS'thee real trueee freaks'
p2875
aS'grandma threw cookin hamdressinggreensbaked chicken maccoroni aint even sunday bout slam'
p2876
aS'aint fuckin around fuck arounds'
p2877
aS'cease time every fuckin social network aint time shit talkin'
p2878
aS'guess aint time guess'
p2879
aS'came back getting pampered mommy brother'
p2880
aS'posted photo facebook'
p2881
aS'bout take breakfast'
p2882
aS'went sleep late woke early good morning loves enjoy'
p2883
aS'hate late nights early mornings like'
p2884
aS'cant sleep busy thinkin cease bout roll call'
p2885
aS'likes imma give cutest guys password'
p2886
aS'would believe said love'
p2887
aS'nigga dirt right pussy tombstone'
p2888
aS'aint shit poppin'
p2889
aS'doin petty shit'
p2890
aS'cant stand petty goofy bitch'
p2891
aS'100z bout come loud'
p2892
aS'waiting lashaun onlygettinbetta thomas'
p2893
aS'point life care'
p2894
aS'lmpao right'
p2895
aS'bout twin'
p2896
aS'blew every aint even gone react petty shit bout enjoy weather'
p2897
aS'bout 100s'
p2898
ag72
ag72
aS'born make mistakes fake perfection'
p2899
aS'body call weed'
p2900
aS'need somebody come loud'
p2901
aS'bout make breakfast bout come help'
p2902
aS'good morning wall post'
p2903
aS'head right sounds greaatttt tonytiger'
p2904
aS'questions'
p2905
ag72
aS'nite nite freaks'
p2906
aS'bout shower make somethin nite fucked'
p2907
aS'wanna fuck right right right snoopdogg'
p2908
aS'fuck shit cease right'
p2909
ag72
ag72
aS'flexing like work dats nigga goin fuck mouth'
p2910
aS'nigga speak tongue every time speak private'
p2911
aS'factt'
p2912
aS'follow back daddyyy'
p2913
aS'ride thing like harley come lets started'
p2914
aS'bodys party'
p2915
aS'like seriously sexually frustrated whyme'
p2916
aS'seduce send bout bisness'
p2917
aS'everyone follow real cool earth doesnt give watchu waiting owwww'
p2918
aS'thirsty special drink'
p2919
aS'lowkey freak'
p2920
aS'bitches cant find ride good'
p2921
aS'would nice gave bangin'
p2922
ag72
aS'follow back'
p2923
aS'lmpao'
p2924
aS'niggas days dont show respect next nigga unless dead jail'
p2925
aS'aint'
p2926
aS'jojo need pics frfr'
p2927
aS'cant trust niggas cant trust hoes nigga want nigga tevoed'
p2928
aS'follow back'
p2929
aS'killin hoes hope dogs heaven'
p2930
ag72
aS'chicago weekend bumpin'
p2931
aS'thank stormie baybee seein shit'
p2932
aS'ayegtgtgtits burfdaigtgtgtyall follow'
p2933
aS'happy burfdai gtgtget ampamp turn fuck'
p2934
aS'happy bday slide'
p2935
aS'twin today birthdaylt3'
p2936
aS'aayyyeee sumbody burfdai margtgtgt'
p2937
aS'gnight'
p2938
aS'wassup'
p2939
aS'never talk cops dont speak latin'
p2940
aS'facetime'
p2941
asS'2013_14'
p2942
(lp2943
S'posted photo facebook'
p2944
aS'posted photo facebook'
p2945
aS'posted photo facebook'
p2946
aS'church leave'
p2947
aS'guess baby swag'
p2948
aS'getting ready church'
p2949
aS'trynna face time'
p2950
aS'catching girls love show'
p2951
aS'party cracked yesterday glad sistas side mzjuicy garrett bone ballard love hoes'
p2952
aS'party house inbox info'
p2953
aS'bodys party'
p2954
aS'left response'
p2955
aS'birthday toma dont even give fuck'
p2956
aS'fuckin agravated'
p2957
aS'whole fucked'
p2958
ag72
ag72
ag72
aS'good night'
p2959
aS'posted photo facebook'
p2960
aS'posted photo facebook'
p2961
aS'posted photo facebook'
p2962
aS'kieta kianna garrett sippin hennessy smokin good loud bday week'
p2963
aS'famous montana'
p2964
as.