(dp0
S'2013_42'
p1
(lp2
S'many fucking twitters'
p3
aS'cant believe forgot account holy shit'
p4
asS'2013_25'
p5
(lp6
S'doesnt taste good dont lick wise words jack barakat fullfrontal'
p7
aS'jackandalexonsnl trend'
p8
asS'2013_20'
p9
(lp10
S'poor derek lmao'
p11
aS'noticed jacky like harassing derek ronnie singing little girl look'
p12
aS'love andy'
p13
aS'maxlt3'
p14
aS'else listens breaking benjamin'
p15
aS'love three days grace'
p16
aS'even gonna preorder fashionably late cause really wanna walk topic comes'
p17
aS'possibilities exist either alone universe equally terrifying'
p18
aS''
p19
aS'instagram'
p20
aS'craig crai cron cronn cronni cronnie'
p21
aS'happy birthday fucking amazing'
p22
aS'like escape fate follow everyone'
p23
aS'ifyouknowmeyouknowthat love escape fate passion\xe2\x80\xa6'
p24
aS'craig faggot'
p25
aS'havent seen ratio long time\xe2\x80\xa6 makes'
p26
aS'really want jackys guitar'
p27
aS'loudwire hall fame thank army support amazing bestfans'
p28
aS'difference would somthing ronnies face would nothing mine'
p29
aS'still makes'
p30
aS'army plan attend warped tour shows july thru july please attention follow\xe2\x80\xa6'
p31
aS'pick ungrateful target best topic itunes today'
p32
aS'fall love youre ready youre lonely'
p33
aS'dead'
p34
aS'understand crissy cant wait'
p35
aS'thats music ugly yelling screaming said direction'
p36
aS'love forever forever need'
p37
aS'best live interview ever'
p38
aS'almost crying reason still twitters please dont delete'
p39
aS'please dont delete literaly eyes please dont delete please dont please dont please dont'
p40
aS'please dont delete literaly eyes please dont delete litterly please dont begging'
p41
aS'ryan jacky ones left twitters'
p42
aS'please dont delete literaly eyes please dont delete'
p43
aS'ryan jacky twitters still really crying guys'
p44
aS'dont cant give ideas stahp'
p45
aS'ronnie father'
p46
aS'news falling reverse cancel remaining tour dates ronnie radke prepares fatherhood'
p47
aS'guys said expecting dont want ronnie miss incase happens'
p48
aS'baby fucking radke everyone'
p49
aS'crissy really labor omfg baby fucking radke'
p50
aS'\xe2\x80\x9cinstead focusing worlds problems give attention energy trust love abundance education peace'
p51
aS'leave ronnie ripronnieradkestwitter'
p52
aS'ronnie ripronnieradkestwitter'
p53
asS'2013_21'
p54
(lp55
S'york back soon little lemon drops lanie'
p56
aS'jacky'
p57
aS'ronnie whatever fuck wants'
p58
aS'gtgt'
p59
aS'ashley'
p60
aS'jimmy riplt3'
p61
ag19
aS'true story'
p62
aS'okayyyy'
p63
aS'like sleeping sirens'
p64
aS'signed escape fate guitar'
p65
aS'signed escape fate guitar'
p66
aS'signed escape fate guitar'
p67
aS'cannot stop listening fashionably late amazeballs'
p68
aS'vote fallinginreverse'
p69
aS'yogurtland kicks'
p70
aS'sorry fucking friends'
p71
aS'dont ever want alone'
p72
aS'sorry bout fucking friends'
p73
aS'calm thunderstorms knowing letting legend live'
p74
aS'stomp heaven beautiful angel\xe2\x9d\xa4'
p75
aS'mitch baby hear'
p76
aS'color pants last thing band name'
p77
aS'music life'
p78
aS'lyric video newunreleased track revelation week'
p79
aS'amazing amazing'
p80
aS'ronnie terrible actor'
p81
aS'wasnt kidding'
p82
aS'gonna word badaptos wall'
p83
aS'suicide silence talks future plans confirms plans release mitch lucker memorial show'
p84
aS'back chicago another today definitely excited rest'
p85
aS'finally'
p86
aS'nirvana band brand'
p87
aS'lets folks home doped stoned lets folks home sooner known'
p88
aS'love weapon music religion peace soul'
p89
aS'dont know would without fallinginreverse hear could breaking upthis cant true'
p90
asS'2013_22'
p91
(lp92
S'bass tone born lead'
p93
aS'bmth paramore omampm ymas adtr issues follow everyone'
p94
aS'feature aptv exclusive conversation ronnie radke part public perception'
p95
aS'guys want stuff ahead lanie'
p96
ag19
aS'fake10factsaboutme could live without music'
p97
aS'follow account lanie'
p98
aS'mitch stomping heaven right'
p99
aS'someone take concert fangirlproblems'
p100
aS'dont like oliver sykes anyone stars spam twitters hate cause theyre human'
p101
aS'lovatic someone calls demi want stab fucking face'
p102
aS'people actually sick call fans faggots tell kill ourselves\xe2\x80\x9d'
p103
aS'green fans'
p104
aS'guys vine follow'
p105
aS'falling reverse lanie'
p106
aS'band motionless white following seen live nope favorite song devils night band lanie'
p107
aS'band motionless white definitely\xf0\x9f\x98\x8f following seen live favourite song city lights sinematic band'
p108
aS'band yesss following seen live favorite song nobodys hero band'
p109
aS'band time rush following absolutely seen live couldnt favourite song dont care enough band'
p110
aS'escape fate lanie'
p111
aS'band time rush yeah following seen live favorite song boyfriend band lanie'
p112
aS'band black veil brides much following seen live favourite song band'
p113
aS'band blessthefall following seen live favourite song never heard band'
p114
aS'band blessthefall really following seen live favorite song band lanie'
p115
aS'band escape fate hell following seen live favorite song situations youre insane'
p116
aS'band black veil brides hell following seen live wish\xf0\x9f\x98\xad favorite song nobodys hero band lanie'
p117
aS'band bless fall following seen live wish favorite song days band'
p118
aS'band falling reverse fuck following seen live favourite song uhhi guess fashionably late band'
p119
aS'band falling reverse yesyesyes following seen live favorite song cant chose band lanie'
p120
aS'band paramore yeah kinda following seen live favourite song exception band'
p121
aS'band paramore following seen live favorite song never heard band lanie'
p122
aS'band bring horizon really following nope seen livenope nope favorite song antivist\xe2\x80\xa6'
p123
aS'band chiodos nope following seen live favorite song never heard band'
p124
aS'band stars fuck following seen live rather horse shit rather swallow glass favorite'
p125
aS'band black veil brides yessss following seen live favorite song ritual band'
p126
aS'band following seen live favorite song bite tongue band'
p127
aS'rude problem'
p128
aS'warning revelation almost wild ones legion black continue path total'
p129
aS'spell world domination black veil brides'
p130
aS'tomorrow official lyric video revelation released writing song'
p131
aS'playing show june walnuts creek californi\xe2\x80\xa6'
p132
aS'revelationbvb'
p133
aS'great though'
p134
aS'army sorry havent tweeted much today voting wampd best album watchi\xe2\x80\xa6'
p135
aS'hate craig used talk shit ronnie youre behaving even like child ronnie'
p136
aS'accurate fuckk'
p137
aS'dont want wake ryan seamans penis online'
p138
aS'favorite bands'
p139
aS'like omampm adtr 30stm bmth bfmv patd ymas follow everyo\xe2\x80\xa6'
p140
aS'beautiful would hear ronnie sing ballad though'
p141
aS'bands care'
p142
asS'2013_23'
p143
(lp144
S'voted today'
p145
aS'mick morris'
p146
asS'2013_19'
p147
(lp148
S'cage match awesome close'
p149
aS'sure subscribe vevo page first brand videos'
p150
aS'knock bottom outta annoyed driver'
p151
aS'made friends enter guitar could give think lanie'
p152
aS'speaking'
p153
aS'haters'
p154
aS'craig knows best\xe2\x80\xa6'
p155
aS'need guitar signed escape fate want lanie'
p156
aS'never ever give ronnie'
p157
aS'fironsnl'
p158
aS'really need fans help round great band helps stay streak vote thanks love'
p159
aS'fallinginreverse absolutely amazing matter'
p160
aS'people cause falling reverse hates alone doesnt mean theyre fake fucking song'
p161
aS'redsdj play black veil brides'
p162
aS'redsdj please play black veil brides'
p163
aS'baby clothes background awwwwwasdfghjkl cute'
p164
aS'wanna sleep june 18th\xe2\x80\xa6'
p165
aS'andys replied omgomgomg fangirl lanie'
p166
aS'feel knowing hero thousands'
p167
aS'teenagers scare living shit could care less long someone bleed'
p168
aS'ronnie loved tweets year'
p169
aS'herestostayingstrong'
p170
aS'officially year since diagnosed clinical depression still barely anyone knows roadtorecovery'
p171
aS'mitch stompinglt3'
p172
aS'dream album released excited woke ruined\xe2\x80\xa6'
p173
aS'justin bieber gone'
p174
aS'everything feels like movies bleed know youre alive'
p175
aS'thanks follow\xf0\x9f\x92\x95'
p176
aS'terrible week metal\xe2\x80\x9d'
p177
aS'music music scene'
p178
ag19
aS'currently watching videos mitch crying eyes lanie'
p179
aS'dont know holy shit'
p180
aS'cannot real fuuuck'
p181
aS'make sure vote youreinsane help cage match'
p182
aS'congratsfironalone congratsfironalone congratsfironalone congratsfironalone fallinginreverse trend congratsfironalone'
p183
aS'congratsfironalone song absolutly amazing blown away guys great'
p184
aS'start trend congratsfironalone please'
p185
aS'cant believe radio already playing song\xe2\x80\x9d congrats guys definitly deserve love guys lanie'
p186
aS'combine different genres music song make work deserve famous'
p187
aS'respect people admitted hated point love song speechless\xe2\x80\x9d'
p188
aS'live motto remember later'
p189
aS'bands music shuts everyone'
p190
aS'music video amazing blown away great fucking guys lanie'
p191
aS'personally chemical romance\xf0\x9f\x92\x95 maddi'
p192
aS'cannot wait album'
p193
aS'dont even listen excited album come maddi lanie likes'
p194
asS'2013_18'
p195
(lp196
S'dead walker texas ranger\xf0\x9f\x91\x8c myshit'
p197
aS'dont bother sleeping without open wide demons night hold tight'
p198
aS'sweetest picture worldlt3'
p199
aS'heres kids feel like theyre growing fast'
p200
aS'fate somthing cannot escape'
p201
aS'every stars aline could lucky ones'
p202
aS'thanks bday wishes kick video well\xe2\x80\x9d'
p203
aS'happybirthdaymikedirnt best bass player ever\xe2\x9d\xa4'
p204
aS'nickel aint worth dime\xf0\x9f\x91\x8c'
p205
aS'hate people'
p206
aS'message'
p207
aS'please'
p208
aS'kellin quinn seriously perfect ever created\xf0\x9f\x92\x95'
p209
aS'else cannot wait crissy ronnie baby fallinginreverse fangirl'
p210
aS'blackveilbrides saviors'
p211
aS'twitting musicians kill dont respond wrong battle daily depression'
p212
aS'must admit heart dont know'
p213
aS'everyone prayforfaith'
p214
aS'thats sexy tattoo teej'
p215
aS'music free'
p216
aS'army vote vote'
p217
aS'bitches getting ready throwin party'
p218
aS'music savior painkiller overall antidote bullshit'
p219
aS'want'
p220
aS'something makes happy mefinds music everyoneno cant concert cant record'
p221
aS'another gonna find gonna getcha getcha getcha getcha blondie'
p222
aS'school homeroom lipsync call maybe video year book killme lanie'
p223
aS'another friday night sitting home listening music iaintevenmad'
p224
aS'idontunderstandwhy warped tour doesnt last forever'
p225
aS'waped tour lasted forever'
p226
aS'school would better listen music'
p227
aS'okay okay'
p228
aS'hate feeling nervous worse stomach ache'
p229
aS'going goodnight twitterland lanie'
p230
aS'craiglt3'
p231
aS'bvbdotheharlemshake'
p232
aS'interview trend going bvbdotheharlemshake'
p233
aS'bvbdotheharlemshake need trend'
p234
aS'pfft bvbarmy blackveilbrides'
p235
aS'follow mine maddis twitter'
p236
aS'band'
p237
aS'another thing love ronnieradke'
p238
aS'music escape'
p239
aS'realize forgot ipod friends house'
p240
aS'love someone says idiot internet always good chuckle'
p241
aS'greatest things life unseen thats close eyes kiss laugh dream'
p242
aS'crazy funnies shit ever'
p243
aS'intense guitar solo stuck head right'
p244
aS'fallinginreverse perfect'
p245
aS'wants band wants join lanie'
p246
aS'want sing'
p247
aS'night bandland\xf0\x9f\x98\x98 tomorrow maddi'
p248
aS'fallinginreverse'
p249
aS'baby radke automatically perfect'
p250
aS'remember first found ronnie geting married'
p251
aS'think direction better chemical romance'
p252
aS'chemical romance'
p253
aS'chemical romance dont find another band'
p254
aS'green sucks'
p255
aS'lanie love music singing want form band main idols'
p256
aS'live fucking nuts ripmitchlucker'
p257
aS'would like informally introduce maddi love almost every artist long taylor swift\xe2\x9c\x8c'
p258
aS'said grow savior broken beaten damned welcometotheblackparade'
p259
aS'piercetheveil sucks'
p260
aS'green herolt3'
p261
aS'somehow still explain darkest hour never comes night'
p262
aS'love hate promis wont phase'
p263
aS'born live whats point living life contradicts fallinginreverse'
p264
aS'teambilliejoearmstrong'
p265
aS'fallinginreverse perfect'
p266
aS'better follow'
p267
asS'2013_29'
p268
(lp269
S'help friend meet idol click link please help'
p270
as.