(dp0
S'2011_52'
p1
(lp2
S'direction posterbookmy life complete'
p3
asS'2011_51'
p4
(lp5
S'ipoddocking station lifes good'
p6
asS'2011_50'
p7
(lp8
S'biggest cringe word everrrr'
p9
asS'2012_41'
p10
(lp11
S'eves'
p12
asS'2012_40'
p13
(lp14
S'yasmin little predator photos ooooo pred trustyou'
p15
asS'2011_47'
p16
(lp17
S'christmasplease'
p18
aS'direction possibly four fittest boys alive planet'
p19
asS'2012_28'
p20
(lp21
S'posted photo'
p22
asS'2012_26'
p23
(lp24
S'posted photo'
p25
aS'guyzzz'
p26
asS'2012_25'
p27
(lp28
S'chillin'
p29
asS'2012_23'
p30
(lp31
S'leave alone minutes'
p32
aS'hollygeorgiaive known years still dont know turn telly hahahhah'
p33
aS'looking good morn iniitttt'
p34
aS'posted photo'
p35
aS'posted photo'
p36
aS'posted photo'
p37
aS'posted photo'
p38
asS'2012_22'
p39
(lp40
S'evers following account using anymore follow'
p41
asS'2012_21'
p42
(lp43
S'follow account using xoxoxo'
p44
aS'many people gemma series jeez towie'
p45
aS'amazing weekend love weather'
p46
aS'isnt'
p47
aS'hahaha waterfight'
p48
aS'trampoline timeee'
p49
aS'eveskelhanmumdadpaul sunnydays'
p50
aS'hasnt bikini itsengland'
p51
aS'posted photo'
p52
aS'chillin'
p53
aS'oliver oliver oliver twisstttt summersong'
p54
aS'tomorrow family friends music food sunbathe perf lovelife'
p55
aS'tired georgia'
p56
aS'cute amazingday'
p57
aS'many skittles mouthhaha classday'
p58
aS'good gurlzz'
p59
aS'sunnay picnic'
p60
aS'need shorts arghh'
p61
aS'exciteeed today'
p62
aS'wish phones unlimited battery lifewouldbesosimple'
p63
aS'totes agreeed'
p64
aS'cant wait tomorrowpicnic people love soexcited'
p65
aS'picnic tommorow woogurlzz'
p66
aS'actuallys cool'
p67
aS'weather perfff'
p68
aS'yeaah'
p69
aS'knowjesus hugeeee doors open though'
p70
aS'tonight'
p71
aS''
p72
aS'tonight'
p73
aS'tonightin weather comeatmebro'
p74
aS'wont turning radio singing baby'
p75
aS'blackberrysareshocking'
p76
aS'long lost family upsetting'
p77
aS'awks evie gets winked white'
p78
aS'broke ideal'
p79
aS'perfect'
p80
aS'towie wooo'
p81
ag72
aS'good thing peter andrehmm nothing'
p82
aS'dearyeah sorryspelling mistake crap spell check blackberrys'
p83
aS'harry styles beaut eyesss'
p84
aS'sitting outside homework defs forward'
p85
aS'even walking tell desperate money haha'
p86
aS'anything possible round house earn money needtosaveup'
p87
aS'feel soooo stupud'
p88
aS'seriously want sorted'
p89
aS'even known would'
p90
aS'urgh'
p91
aS'urgh hate typing blackberrys hurts thumbs much'
p92
aS'okay xxxxxx'
p93
aS'everything change quickly'
p94
aS'awks evie knows words benidorm learningfromanearlyage'
p95
aS'love'
p96
aS'black blazers take mick weather'
p97
aS'walking past shop seeing t4on beach advert soxcited rollon1stjulybro'
p98
aS'awks'
p99
aS'guarantee nice weather holiday rain week'
p100
ag72
aS'much easier shining'
p101
aS'feels like close love'
p102
aS'dont know think many things night'
p103
aS'calling house phone asking bring drink takingexercisethatonestepfurther'
p104
aS'friends thought havent stuck around thats feel kind love emelisande'
p105
aS'eggs taken twitter official'
p106
aS'persuading father hunter wellies expensivetaste letsdothisthing'
p107
aS'cause youve given matter never good enough'
p108
aS'today reminded summer wooo getmetodabeachh'
p109
aS'kind loveemeli sande good songshe amazing voice'
p110
aS'roll july babaay'
p111
aS'sameee'
p112
aS'atleast know feels'
p113
aS'older want become famous nothing like simon cowell'
p114
aS'year irritating shits'
p115
aS'fuck dont face'
p116
aS'first period monday morning avinalaff'
p117
asS'2012_20'
p118
(lp119
S'joey'
p120
aS'towie purely reason stay sunday night'
p121
aS'jail amount facebook stalking'
p122
aS'many memories painful thing watching fade away imissyou'
p123
aS'wish sorted'
p124
aS'flyi levitation represent entire generation nickiminaj'
p125
aS'awrh busters hair'
p126
aS'much love nicki minaj looks awful starships video'
p127
aS'yeah level uppppp'
p128
aS'parents embarrassing'
p129
aS'tell world coming home'
p130
aS'back belong yeah never felt strong'
p131
aS'eyes changed colour'
p132
aS'getting sweat wherestheaircon'
p133
aS'hate really amazing dream wake realise never going happen'
p134
aS'stretchers make cringe'
p135
aS'dads laughing fits best'
p136
aS'better'
p137
aS'diss gingersbut even ginger notcool'
p138
aS'feet kill hatewalking wishicouldfly'
p139
aS'shhhhhdont anything'
p140
aS'hahahahaeveryone goes chelsea score chill itsonlyagame'
p141
aS'awrh louisa calls loueejaybless'
p142
ag72
aS'think deffo invest movespurely improve catwalk tings'
p143
aS'grandad hilarious'
p144
aS'sitting whoopee cushions bampm yolo'
p145
aS'haha didnt news paper snake front cover takingaphobiatothemax haha'
p146
aS'woke evie singing great'
p147
aS'alright'
p148
aS'walking drive medad tree dadyeahits 4years ooops alwayspayingattention'
p149
aS'notcool'
p150
aS'gooooood'
p151
aS'tonightxo'
p152
aS'xoxo'
p153
aS'wont give'
p154
aS'sweeeeeeeeet dissssposition lovethissongloads'
p155
aS'never temperature right shower'
p156
aS'eyes watering reasonurghh'
p157
aS'phones shit'
p158
aS'towie highlight'
p159
aS'towie'
p160
aS'soft mints addictive'
p161
aS'remind really'
p162
aS'awrh small bump cute song edsheeran'
p163
aS'loooove earings'
p164
aS'ngl1500 metres killed mebut came nextstopthemarathon hahajkjk'
p165
aS'woke suprisingly good mood thesunisshining'
p166
aS'wish could australiajust family missthemsomuch'
p167
aS'hair seriously needs hurryup grow urgh'
p168
aS'tehe xxoxox'
p169
aS'love grandad loadslt3'
p170
aS'songs know every single word perfecttt'
p171
aS'supposed maygreat weather ohright'
p172
aS'listening boys argue funniestthingeverz'
p173
aS'stop responding means arent worth anymore time doesnt mean'
p174
aS'loosing best friend worst feeling ever hate'
p175
aS'atleast tried'
p176
aS'feels like close love'
p177
aS'finding something someone never looking'
p178
aS'bothered inside hurts much'
p179
aS'coldplay scientist good song'
p180
aS'left meim pretendingno hopeno loveno glory happy ending'
p181
aS'hate mego'
p182
aS'pick broken pieces bleedingif thatll make right brunomarss'
p183
aS'listened wouldntbeinthissituation'
p184
aS'stop answering tweets'
p185
aS'hahawhen people think tweetstatus aimed goodone'
p186
aS'shut'
p187
aS'love wearing maxi dress makes look tall'
p188
aS'love instagram addicted'
p189
aS'awkward walkrun lets crosshaha chickenrun'
p190
asS'2011_43'
p191
(lp192
S'great yesterday hayleyjamiejakenathtomaidanjackethaneveryone elselt3'
p193
asS'2011_46'
p194
(lp195
S'asif'
p196
aS'need diet desperately'
p197
aS'feeling knowing youre loved'
p198
aS'sometimes think point secrets'
p199
asS'2012_8'
p200
(lp201
S'gonna shiiiitttt weekend'
p202
aS'officially need keep weight georgia'
p203
asS'2012_9'
p204
(lp205
S'dayyyym film sheeeeet'
p206
aS'glad perfect'
p207
asS'2012_6'
p208
(lp209
S'gonna good week'
p210
asS'2012_7'
p211
(lp212
S'blackberry batteries last longer relationships days'
p213
aS'twwwweeeeet'
p214
aS'tommorowbirthdayshoppingliquidsleepoverboomd'
p215
asS'2012_2'
p216
(lp217
S'year sister owns says yehso pissed firesmoothhhh'
p218
aS'sister says chav smoking olderhahahah'
p219
aS'wanna drunk wake upon right side wrong'
p220
asS'2012_16'
p221
(lp222
S'towieeee'
p223
aS'great thanks chillinlikeee'
p224
aS'vernon suchalegend'
p225
aS'majorca 2k11 holidaytoremember takemebackthere'
p226
aS'music makes highhhhhh poundthealarm nickiminaj'
p227
aS'hate british weather takemebacktoegypt'
p228
aS'never able marathoni breath walking upstairs stupidasthma'
p229
aS'sunday depressing badtimes'
p230
aS'headachedizzysore throattiredlovinlyfatm'
p231
aS'tired actually ridiculous'
p232
aS'mumevie argue like pair toddlersahaha ridiculous'
p233
aS'loveable roguesyes please'
p234
aS'love feeling youve hair'
p235
aS'sure'
p236
aS'catwalks ownwe deffo need balance improve even morexoxoxo'
p237
aS'tehecus dancing bomb likexoxox'
p238
aS'dont worryyou wont miss anythingim either'
p239
aS'nicking evies ipodtaking yourselfsetting wallpapercus skilled mwahah topsislikeeee'
p240
aS'couldnt anyworse'
p241
asS'2011_45'
p242
(lp243
S'gonna miss like child misses blanket'
p244
aS'wish here\xe2\x80\x8e\xe2\x99\xa5'
p245
aS'think mate'
p246
asS'2012_14'
p247
(lp248
S'chillin plastic brooo'
p249
aS'lets ting gurl'
p250
aS'pees laptopxx'
p251
aS'rateokay fattygonna nowcyas tomorrowbbm'
p252
aS'young8'
p253
ag72
aS'follow hershes gaysada loner followersjokes shes amazaaangmy bestfriendlt3'
p254
aS'love'
p255
aS'thankyou trust love morexo'
p256
aS'everyone follow babe wise youll missing time hehe shes best friend love pieces'
p257
asS'2012_15'
p258
(lp259
S'sames'
p260
aS'amazzangggg'
p261
aS'told would inform special purchase treasured itemso goits onfull blast raveeeee'
p262
aS'song bring back many memories'
p263
aS'okay kidi inform special purchase treasured item'
p264
aS'swear last night said getting itand well jell'
p265
aS'getting albumim gonna tomorrow'
p266
aS'pound alarmtunebut marilyn monroe'
p267
aS'seriously want ginger hair'
p268
aS'totes'
p269
aS'listening brorave sesh'
p270
aS'serious obsession nicki minaj'
p271
aS'3weeksso tonights gonna kill dayaaam'
p272
aS'dead getoff'
p273
aS'camping tonight benders woop'
p274
aS'write long meaningful heart paragraphyou reply great tsssss'
p275
aS'second either wayif eating caviar buckingham palaceor shit troff'
p276
aS'bearing upians getting grips whole lifestyle meand said stick either'
p277
aS'hows hamster cageahahahahaha'
p278
aS'chillerz afro inteeeet'
p279
asS'2012_12'
p280
(lp281
S'miami bitch'
p282
asS'2012_13'
p283
(lp284
S'okaywhatevsss'
p285
aS'ermrightkwhatever'
p286
aS'eerrrrrmnopeit deffo'
p287
aS'youuuu'
p288
aS'good'
p289
aS'alton towers love beautiful girl much'
p290
asS'2012_10'
p291
(lp292
S'freeking downerrrrrr'
p293
aS'hate feeling'
p294
aS'dear boys penis like pinocchios nose wont longer every time size'
p295
aS'goes aroundcomes back aroundhey baby'
p296
aS'didnt want sound harshwell mateive news'
p297
asS'2012_11'
p298
(lp299
S'hanging round boys sooooo much less drama hanging round girls'
p300
asS'2012_18'
p301
(lp302
S'everyone favour follow babe bestfriend shes bare hillare tots amazaaaangampuber gorgggg muchlove'
p303
aS'facemasksssss pamperrrr'
p304
aS'pizzaaaampgarlic doughballs delissshhhhh'
p305
aS'evie knows words benidorm thats hahaha'
p306
aS'trampoline hilareeee'
p307
aS'costaaaaa'
p308
aS'buss broooowith'
p309
aS'shopping today letsspendoursavings'
p310
aS'follow round like lost puppys'
p311
aS'haha xxxx'
p312
aS'jealous easy fair'
p313
aS'saving ages shopping within youve spent'
p314
aS'evie cried phonebless'
p315
aS'love oasis theyre much better half bands'
p316
aS'love energy advertits cute'
p317
aS'awrh sisters making dinner'
p318
aS'girls pictures facebook gagging likes none hahaha fail'
p319
aS'nightxxxxxxx'
p320
aS'sure willyxxxxxxxxxxxx'
p321
aS'heheteam spirit like xxxxxxxxxxx'
p322
aS'dayaaaamnnever mindwell discuss sunday xxxxxxxx'
p323
aS'like sitting human sized freezer hereget heating mother getwithitkid'
p324
aS'taking coolness whole level'
p325
aS'hahaahahahaoh beck love reallyxoxoxo'
p326
aS'love david walliams people great chattyman'
p327
aS'dont liejust dont talking shoulders hahahahahahhaha'
p328
aS'james corden actual bloody legend'
p329
aS'favouritestsongofalltime'
p330
aS'gonna broit hilarious'
p331
aS'hehe xoxoxo'
p332
aS'hate shoulders hahahahahahahahah'
p333
aS'love btwxoxoxo'
p334
aS'woopyour offish following mesound'
p335
aS'already following'
p336
aS'hahahahaas made laughabout thing willthe mood'
p337
aS'hahahate'
p338
aS'moods everyone everything annoys upsets urghh'
p339
aS'goodsee therexoxo'
p340
aS'tomorrow'
p341
aS'cant work petrol machinehahahahahahaahaha'
p342
aS'gets ratty parkbecause cant park want hahhaha'
p343
aS'seriously recommend start play nicki minajs album radio instead shit play'
p344
aS'evieto paddy hamsterhello gorgeoussay hello name borathigh five seriousissues'
p345
aS'year7 starts hahahahahpatheticbitch'
p346
aS'sure willxoxo'
p347
ag72
aS'sorry brogoing mondayslight mistakeawrhmy crew yget larkk'
p348
aS'probsmight embarrass againhaha'
p349
aS'woopsee'
p350
aS'working sundayxoxo'
p351
aS'football status bore much itsonlyagame'
p352
aS'jealousshes gorgeousxoxoxo'
p353
aS'kate middleton beautiful'
p354
aS'thanksmuchly appreciated'
p355
aS'homealonepjshot chocolatetv heaveeennn'
p356
aS'really called gorm hahahaha'
p357
aS'little shit thankslove'
p358
aS'thankyoufor rude gesture towards earlier'
p359
aS'awkward moment find texting sister'
p360
aS'hahaxoxox'
p361
aS'wussand badxoxoxox'
p362
aS'mines achinghahaim wussxoxoxo'
p363
aS'goodbecause explaining againhahahows armxoxo'
p364
aS'fairytales full shit maroon5'
p365
aS'forgive donecus youngyeah younggggg tulisa'
p366
aS'laughed soooo much todayits great justforthegoodtimes'
p367
asS'2012_19'
p368
(lp369
S'much little cris cringey funny dicecostume whatareyousayin'
p370
aS'sket'
p371
aS'rebecca ferguson different voice'
p372
aS'hahahahaha guess whos added facebookxoxooxo'
p373
aS'towie time onlyhighlightofasunday'
p374
aS'paddy chinese dwarf hamster gets chinky eyes onhahaha'
p375
aS'love dresssisters'
p376
aS'goodxxxxxxx'
p377
aS'sotomorrowmums deciding towers whilst school notcool'
p378
aS'hope good dayxxxxxxx'
p379
aS'move meeverything groovythey dont like'
p380
aS'prefer twitter facebook1o times better'
p381
aS'love purple brain lickers send tongue purple'
p382
aS'ikkle milo fell asleep awrhhh'
p383
aS'sooo catchy'
p384
aS'things make mmmm barrym catchy'
p385
aS'gordon ramsay heart'
p386
aS'lazaaay'
p387
aS'urgh motivation'
p388
aS'shit telly sundays'
p389
aS'sundays sooo depressinggg'
p390
aS'describes exactly feeeel'
p391
aS'find weird thinking never actually physically seen look like mirrors photogra'
p392
aS'towie back screens tomora yehhhhhhhh'
p393
aS'please follow sampepper3000000'
p394
aS'hahawith photographyy skilzzzz'
p395
aS'whatryan molly avinalaff'
p396
aS'gwaaaarn subo'
p397
aS'gonna liemolly rainford good voice'
p398
aS'keep smiling life tired upsetting'
p399
aS'dont know stand peoples lives minute treat like someone special nothing next'
p400
aS'cant actually believe right'
p401
aS'awrh evies bought dress'
p402
aS'meal lovelife'
p403
aS'hate people love dont mean'
p404
aS'look different without makeup'
p405
aS'awhahaa'
p406
aS'oyou lilskyveerrr didnt thursday either'
p407
aS'sunnyfor'
p408
aS'careful trust'
p409
aS'whenever person eating alone restaurant little inside'
p410
aS'people talk behind back remember took time pathetic lives think'
p411
aS'awkward moment someone tells much hate someone next theyre best friends'
p412
aS'thanks lovely comments today going start drippy tweets lets keep buzz going'
p413
aS'feeling profesh sing really fast verse songsuccessfully bgthereicomekid'
p414
aS'said used hard hahaha'
p415
aS'always feel posh wear glasses lookingprofesh'
p416
aS'woopand might even wear tonight dude'
p417
aS'yeah broooyouxoxo'
p418
aS'hate illsuch boring days home'
p419
aS'need phoneagain'
p420
aS'cant stand'
p421
aS'hate illurghh'
p422
aS'thankyou xxxxxxxxxxxxx'
p423
aS'right theres steel knife windpipe eminem'
p424
aS'corrieyes'
p425
aS'girls take pictures headswe cant face nicehairbro'
p426
aS'forget hooplook boddyyyy'
p427
aS'want laser harp'
p428
aS'goodampyeah brooo'
p429
aS'good girlxxxxxxxxxxxx'
p430
aS'arent going dance xxxxxxxxxx'
p431
aS'lump back throat worsefeelingever'
p432
aS'gonna like thatfinei leave loner'
p433
aS'hahawhy give evil look morningand wave back'
p434
aS'four weeksss rollon'
p435
aS'simon cowells hand actionshahaha'
p436
aS'malakiyou little beauty'
p437
aS'mamaaaa'
p438
aS'camping sooooond lovedevon'
p439
aS'brandonampdarcy would things cousin awksss'
p440
aS'brandonalkinsyou absolute legend'
p441
aS'happybirthday beautiful little sisterxxxxx'
p442
aS'send talent home dont smoothkiddas'
p443
aS'lmfao bgtand annoying songsthey choose annoying perform partyrockanthem'
p444
aS'beautxoxo'
p445
aS'okayno probs xxxxxxxxxxxxxx'
p446
aS'love thankyou much everythinglove xxxxxxxxxxxxxxxxxxxxxx'
p447
aS'bemuch love tooxxxxxxxxxxxxxxx'
p448
aS'fuck sake'
p449
aS'okayxxxxxx'
p450
aS'answer phone desperately'
p451
aS'think things getting better'
p452
aS'throwingadictionaryatyousss'
p453
aS'next time babe'
p454
aS'monday morning feeling ihateschool'
p455
aS'miss alana'
p456
aS'dont know theyre good tears'
p457
ag72
aS'completely broke'
p458
aS'urgh sunday night feeling depressinggg'
p459
aS'want hair colour girl four cornersits amazaaaang'
p460
aS'awrh seriously love people much theyre cute'
p461
aS'would love marry david walliamsim even gonna legend'
p462
aS'good weekend lovemybestieeessssss'
p463
aS'chillin towersss larkkk'
p464
asS'2012_38'
p465
(lp466
S'baby'
p467
asS'2012_34'
p468
(lp469
S'posted photo'
p470
asS'2012_31'
p471
(lp472
S'wrinkles bags eyes love guurl xoxooxo'
p473
aS'difference foot year sisters smallfeet sizethree'
p474
aS'instacollage love bezxxxxxxxxxxxx'
p475
asS'2012_33'
p476
(lp477
S'posted photo'
p478
asS'2012_17'
p479
(lp480
S'joey well jell'
p481
aS'hahahand okay xoxoxo'
p482
aS'nanny patyou girl towie'
p483
aS'explained dayxxxxxxxx'
p484
aS'dont understandis modest good things yourselfor hahahahahayou make laughyeah bbzjkxo'
p485
aS'getting worsexoxoxoxoxox'
p486
aS'hahawho needs anyone else youve xoxo'
p487
aS'woomakes onehahaxxxxxxxxxxxxxxxxxxxxxxxxxx'
p488
aS'swear likes moment'
p489
aS'lane'
p490
aS'hate paint nails amazaanglythen chip annoyinggg'
p491
aS'themclearly dont need thingsendmemorieslast'
p492
aS'homealone weathers shit looks like meeee'
p493
aS'bgtblesss'
p494
aS'open pack suddenly everyone best friend'
p495
aS'awkward moment someone deleted facebook tries'
p496
aS'evie makes 2mile reason whatsoeverwhat slimmingitdownbrooo'
p497
aS'take leave meill never perfect believe'
p498
aS'love make sound like fault forgotyouwereanangel'
p499
aS'dont facedacting like'
p500
aS'lying gets nowhere life'
p501
aS'keep smilingatleast things cant worse'
p502
aS'brodid minutes itand know told times haha'
p503
aS'whole body aches conditioning last night neverdoingatuckjumpeveragain'
p504
aS'lifes offish right bbzcannot believe betrayed like rochelleyoubitch'
p505
aS'coming home soul leggingstopawrhlove daddy loads'
p506
aS'awkward moment want ground swallow upppppp'
p507
aS'wanted know love'
p508
aS'beez trap beez trap'
p509
aS'lisp cecilia gone ihatethedentist'
p510
aS'shotin blood clot gunshot'
p511
aS'miss muchbut dont understand much youve hurt'
p512
aS'awrh mummys bought kfcbut cant'
p513
aS'mouth still bleeding idontgetit'
p514
aS'paaaainnnn ouch'
p515
aS'eurghnumb gumlipsmouthcheek worst ihatethedentist'
p516
aS'dentist doctors straight whatismylife'
p517
aS'feel illjust thought dentist tomorrow puts even better mood'
p518
aS'people excited football matchwho needs youve facebookbbm calmitdownlads'
p519
aS'maybe gonna saves youre wonderwall oasis'
p520
aS'sickening joke play emotions'
p521
aS'ohemgeemade playlist brofull nickitehehe'
p522
aS'sleep importantwhy school start early idontgetit'
p523
aS'life choices problems mistakes lessons business mind problems'
p524
aS'years agonow look ooftttt'
p525
aS'luvinlyf hahajkjk'
p526
aS'currently feeling lazy dude created japanese flag'
p527
aS'hope soxxxxx'
p528
aS'oatcakesss yummmm'
p529
aS'dreading wednesday'
p530
aS'hate french'
p531
aS'genuinely sick'
p532
asS'2011_31'
p533
(lp534
S'early night towers tomorahh'
p535
asS'2011_33'
p536
(lp537
S'causually talking barbie dollslt3'
p538
ag72
asS'2011_32'
p539
(lp540
S'blackpool soon civil'
p541
aS'blackpool soond'
p542
aS'moment failure hair turns pink'
p543
as.