(dp0
S'2014_29'
p1
(lp2
S'2012'
p3
aS''
p4
aS'\xd0\xb3\xd0\xb5\xd0\xb9dddd'
p5
ag4
ag4
ag4
ag4
ag4
ag4
ag4
ag4
ag4
ag4
ag4
ag4
ag4
ag4
ag4
ag4
ag4
ag4
ag4
ag4
ag4
ag4
ag4
ag4
ag4
ag4
ag4
ag4
ag4
ag4
ag4
ag4
ag4
ag4
ag4
ag4
ag4
ag4
ag4
ag4
ag4
ag4
ag4
ag4
ag4
ag4
ag4
ag4
aS'\xd1\x81\xd0\xbe\xd1\x84\xd0\xb8\xd1\x8fblack star'
p6
ag4
ag4
ag4
ag4
ag4
ag4
ag4
ag4
ag4
ag4
ag4
ag4
ag4
ag4
ag4
ag4
ag4
ag4
ag4
ag4
asS'2014_28'
p7
(lp8
g4
aS'castro'
p9
ag4
ag4
aS'category'
p10
aS'baltic course'
p11
ag4
ag4
ag4
ag4
ag4
aS'1680'
p12
ag4
ag4
ag4
ag4
ag4
ag4
ag4
ag4
ag4
ag4
ag4
ag4
ag4
ag4
ag4
ag4
ag4
ag4
ag4
ag4
ag4
ag4
ag4
ag4
ag4
ag4
ag4
ag4
ag4
ag4
ag4
ag4
ag4
ag4
ag4
ag4
ag4
ag4
ag4
ag4
ag4
ag4
ag4
ag4
ag4
ag4
ag4
ag4
ag4
aS'sagrada familia'
p13
ag4
ag4
ag4
ag4
ag4
ag4
ag4
asS'2014_38'
p14
(lp15
g4
ag4
ag4
ag4
ag4
ag4
ag4
ag4
ag4
ag4
ag4
ag4
aS'cocacola'
p16
ag4
ag4
ag4
ag4
ag4
ag4
ag4
ag4
aS'spacex'
p17
ag4
ag4
ag4
ag4
ag4
ag4
ag4
ag4
ag4
aS'ampquot\xd0\xb1\xd1\x80\xd0\xb0\xd1\x82\xd1\x8c\xd0\xb5\xd0\xb2\xd0\xbc\xd1\x83\xd1\x81\xd1\x83\xd0\xbb\xd1\x8c\xd0\xbc\xd0\xb0\xd0\xbdampquot'
p18
ag4
ag4
ag4
aS'mercedes vito'
p19
ag4
ag4
ag4
ag4
asS'2014_37'
p20
(lp21
g4
ag4
ag4
ag4
ag4
ag4
aS'\xd1\x87\xd0\xbc2018'
p22
aS'curiosity'
p23
ag4
ag4
ag4
ag4
ag4
ag4
ag4
ag4
ag4
ag4
ag4
ag4
ag4
ag4
ag4
ag4
ag4
ag4
ag4
ag4
ag4
ag4
ag4
ag4
ag4
ag4
ag4
ag4
ag4
ag4
ag4
ag4
ag4
ag4
ag4
ag4
ag4
ag4
ag4
ag4
ag4
asS'2014_23'
p24
(lp25
g4
asS'2014_31'
p26
(lp27
g4
ag4
ag4
ag4
ag4
ag4
ag4
ag4
ag4
ag4
ag4
ag4
ag4
ag4
ag4
ag4
ag4
ag4
ag4
ag4
ag4
aS'un454'
p28
ag4
ag4
ag4
ag4
ag4
ag4
ag4
ag4
ag4
ag4
ag4
ag4
ag4
ag4
ag4
ag4
ag4
ag4
ag4
ag4
ag4
ag4
ag4
ag4
ag4
ag4
ag4
ag4
ag4
ag4
ag4
ag4
ag4
ag4
ag4
ag4
ag4
ag4
ag4
ag4
ag4
ag4
ag4
ag4
ag4
ag4
ag4
ag4
ag4
ag4
ag4
ag4
ag4
ag4
ag4
ag4
ag4
ag4
ag4
asS'2014_25'
p29
(lp30
g4
ag4
aS'2013'
p31
aS'2030'
p32
ag4
ag4
aS'2013'
p33
aS'hipway'
p34
ag4
ag4
ag4
ag4
ag4
aS'zhenyabelyaeva'
p35
aS'2013'
p36
ag4
ag4
ag4
ag4
aS'inova beach hotel'
p37
ag4
ag4
ag4
asS'2014_34'
p38
(lp39
g4
ag4
ag4
ag4
ag4
ag4
ag4
ag4
ag4
ag4
ag4
ag4
ag4
ag4
ag4
ag4
ag4
ag4
ag4
ag4
ag4
ag4
ag4
ag4
ag4
ag4
aS'unix'
p40
ag4
ag4
ag4
ag4
ag4
ag4
asS'2014_27'
p41
(lp42
g4
ag4
ag4
ag4
aS'seconds mars'
p43
ag4
ag4
aS'2300'
p44
aS'seconds mars'
p45
ag4
ag4
ag4
ag4
ag4
ag4
ag4
ag4
ag4
ag4
ag4
ag4
ag4
ag4
ag4
ag4
ag4
aS'enjoy'
p46
ag4
ag4
ag4
ag4
ag4
ag4
ag4
ag4
ag4
ag4
ag4
ag4
ag4
ag4
ag4
ag4
ag4
ag4
ag4
ag4
ag4
ag4
ag4
ag4
ag4
ag4
ag4
ag4
ag4
ag4
ag4
ag4
ag4
ag4
ag4
ag4
ag4
ag4
ag4
ag4
ag4
aS'apple'
p47
ag4
aS'\xd1\x85\xd0\xberolik'
p48
ag4
ag4
ag4
ag4
ag4
ag4
ag4
ag4
ag4
ag4
ag4
ag4
ag4
ag4
ag4
ag4
ag4
ag4
ag4
ag4
ag4
ag4
asS'2014_26'
p49
(lp50
g4
ag4
ag4
ag4
ag4
ag4
ag4
ag4
ag4
ag4
ag4
ag4
ag4
ag4
ag4
ag4
ag4
ag4
ag4
ag4
ag4
ag4
ag4
ag4
ag4
ag4
ag4
ag4
ag4
ag4
ag4
ag4
ag4
ag4
aS'castro'
p51
aS'royal palms beach 38582'
p52
ag4
ag4
ag4
ag4
aS'horizon'
p53
ag4
ag4
ag4
ag4
ag4
ag4
ag4
ag4
ag4
ag4
ag4
ag4
ag4
ag4
ag4
ag4
ag4
ag4
ag4
aS'2013'
p54
ag4
ag4
ag4
ag4
ag4
aS'664313'
p55
ag4
ag4
ag4
ag4
ag4
ag4
ag4
aS'1968'
p56
ag4
ag4
ag4
ag4
ag4
ag4
ag4
ag4
ag4
ag4
ag4
ag4
ag4
ag4
ag4
ag4
aS'sims'
p57
ag4
ag4
ag4
ag4
ag4
ag4
ag4
ag4
ag4
ag4
aS'2014'
p58
ag4
ag4
ag4
ag4
ag4
ag4
ag4
ag4
ag4
ag4
ag4
ag4
ag4
ag4
ag4
ag4
ag4
ag4
ag4
ag4
ag4
ag4
ag4
ag4
ag4
ag4
ag4
ag4
ag4
ag4
ag4
ag4
asS'2014_43'
p59
(lp60
g4
ag4
ag4
ag4
ag4
ag4
aS'news'
p61
ag4
ag4
ag4
ag4
ag4
ag4
ag4
ag4
ag4
ag4
ag4
aS'news'
p62
ag4
ag4
aS'porsche'
p63
ag4
ag4
aS'pussy riot'
p64
ag4
ag4
ag4
ag4
aS'news'
p65
ag4
ag4
ag4
ag4
aS'news'
p66
aS'\xd1\x81\xd0\xbe\xd1\x87\xd0\xb82014'
p67
ag4
ag4
ag4
aS'news'
p68
ag4
ag4
ag4
ag4
aS'news'
p69
ag4
aS'news'
p70
ag4
ag4
ag4
ag4
ag4
ag4
aS'news'
p71
ag4
ag4
aS'news'
p72
ag4
ag4
aS'news'
p73
ag4
asS'2014_42'
p74
(lp75
g4
ag4
ag4
ag4
ag4
ag4
ag4
ag4
ag4
ag4
ag4
ag4
ag4
asS'2014_41'
p76
(lp77
g4
ag4
ag4
ag4
ag4
ag4
ag4
ag4
ag4
ag4
aS'lost boeing'
p78
ag4
ag4
ag4
aS'777200\xc2\xbb'
p79
ag4
ag4
ag4
ag4
ag4
ag4
aS'ampquot\xd0\xb6\xd0\xb5\xd0\xbd\xd0\xb5\xd0\xb2\xd1\x832ampquot'
p80
ag4
ag4
ag4
ag4
ag4
ag4
ag4
ag4
ag4
ag4
ag4
ag4
ag4
ag4
ag4
ag4
aS'cullian rollsroys'
p81
ag4
ag4
ag4
ag4
ag4
aS'volkswagen'
p82
ag4
ag4
ag4
ag4
ag4
ag4
ag4
ag4
asS'2014_40'
p83
(lp84
g4
ag4
aS'alcatel onetouch hero'
p85
ag4
ag4
ag4
ag4
ag4
ag4
ag4
ag4
ag4
ag4
ag4
ag4
ag4
ag4
ag4
ag4
ag4
ag4
ag4
ag4
ag4
ag4
ag4
ag4
ag4
aS'\xc2\xablada priora\xc2\xbb'
p86
ag4
ag4
ag4
ag4
ag4
ag4
aS'gmail mailru'
p87
ag4
ag4
ag4
ag4
ag4
ag4
ag4
ag4
ag4
ag4
ag4
ag4
ag4
ag4
ag4
ag4
ag4
ag4
ag4
ag4
ag4
ag4
asS'2014_32'
p88
(lp89
g4
ag4
ag4
ag4
ag4
ag4
ag4
ag4
ag4
ag4
aS'live'
p90
aS'live'
p91
ag4
ag4
ag4
ag4
ag4
ag4
ag4
ag4
ag4
ag4
ag4
ag4
ag4
ag4
ag4
ag4
ag4
ag4
ag4
ag4
aS'yesterday'
p92
ag4
ag4
ag4
ag4
ag4
ag4
ag4
asS'2014_33'
p93
(lp94
g4
ag4
ag4
ag4
ag4
ag4
ag4
ag4
ag4
ag4
aS'\xe2\x82\xac1242'
p95
ag4
ag4
ag4
ag4
ag4
ag4
ag4
ag4
ag4
ag4
ag4
ag4
ag4
ag4
ag4
ag4
ag4
ag4
ag4
ag4
ag4
ag4
asS'2014_30'
p96
(lp97
g4
ag4
ag4
ag4
ag4
ag4
ag4
ag4
ag4
ag4
ag4
ag4
aS'2014'
p98
ag4
ag4
ag4
ag4
ag4
ag4
ag4
ag4
ag4
ag4
ag4
ag4
ag4
ag4
ag4
ag4
ag4
ag4
ag4
ag4
ag4
ag4
ag4
ag4
ag4
ag4
ag4
ag4
ag4
ag4
ag4
ag4
ag4
ag4
ag4
ag4
ag4
ag4
ag4
ag4
ag4
ag4
ag4
ag4
ag4
ag4
ag4
ag4
ag4
ag4
ag4
ag4
ag4
ag4
ag4
ag4
ag4
ag4
ag4
ag4
ag4
ag4
ag4
ag4
ag4
ag4
ag4
ag4
ag4
aS'1500'
p99
ag4
ag4
ag4
asS'2014_44'
p100
(lp101
g4
aS'news'
p102
ag4
ag4
ag4
ag4
ag4
ag4
ag4
ag4
ag4
ag4
aS'\xd0\xb2\xd1\x81\xd0\xb5\xd0\xbb\xd0\xb5\xd0\xbd\xd0\xbd\xd0\xbe\xd0\xb92013'
p103
aS'news'
p104
aS'news'
p105
ag4
ag4
ag4
ag4
aS'news'
p106
aS'skoda octavia'
p107
ag4
ag4
ag4
aS'2014'
p108
ag4
aS'greenpeace'
p109
aS'news'
p110
aS'reuters'
p111
ag4
ag4
ag4
aS'news'
p112
ag4
aS'mcdonalds heinz burger king'
p113
ag4
ag4
ag4
aS'news'
p114
ag4
ag4
ag4
ag4
aS'2013'
p115
ag4
ag4
ag4
ag4
ag4
ag4
ag4
ag4
ag4
ag4
aS'news google glass'
p116
ag4
ag4
ag4
ag4
aS'facebook'
p117
aS'news'
p118
ag4
ag4
ag4
ag4
ag4
aS'news'
p119
ag4
ag4
ag4
ag4
ag4
ag4
aS'news'
p120
aS'news'
p121
aS'arctic sunrise'
p122
ag4
ag4
ag4
ag4
ag4
ag4
aS'reuters'
p123
aS'news'
p124
ag4
ag4
aS'greenpeace'
p125
ag4
ag4
ag4
aS'news'
p126
ag4
ag4
aS'news'
p127
aS'arctic sunrise'
p128
ag4
ag4
aS'news'
p129
ag4
ag4
aS'news'
p130
aS'news'
p131
ag4
ag4
aS'news'
p132
ag4
ag4
ag4
ag4
aS'news 2013'
p133
ag4
asS'2014_35'
p134
(lp135
g4
ag4
ag4
aS'bello fino'
p136
ag4
ag4
ag4
aS'boeing'
p137
ag4
aS'2015'
p138
aS'2013'
p139
ag4
ag4
ag4
ag4
ag4
asS'2014_36'
p140
(lp141
g4
ag4
ag4
ag4
ag4
ag4
aS'honda'
p142
ag4
ag4
ag4
ag4
ag4
aS'ampquot\xd0\xba\xd0\xbe\xd1\x80\xd1\x80\xd0\xbe\xd0\xb7\xd0\xb8\xd0\xb8 \xd0\xbc\xd0\xb5\xd1\x82\xd0\xb0\xd0\xbb\xd0\xbb\xd0\xb0ampquot'
p143
ag4
ag4
ag4
ag4
ag4
ag4
ag4
ag4
ag4
ag4
ag4
ag4
ag4
ag4
ag4
ag4
ag4
ag4
ag4
ag4
ag4
ag4
ag4
ag4
ag4
aS'xbox'
p144
ag4
ag4
ag4
ag4
ag4
ag4
ag4
ag4
ag4
ag4
ag4
ag4
ag4
aS'google 2013'
p145
ag4
ag4
ag4
ag4
ag4
ag4
ag4
ag4
ag4
ag4
asS'2014_39'
p146
(lp147
g4
ag4
ag4
aS'ampquot\xd1\x82\xd1\x83\xd1\x80 \xd1\x81\xd0\xb0\xd0\xbd\xd0\xba\xd1\x82\xd0\xbf\xd0\xb5\xd1\x82\xd0\xb5\xd1\x80\xd0\xb1\xd1\x83\xd1\x80\xd0\xb3ampquot'
p148
aS'assassins creed'
p149
aS'iphone iphone plus'
p150
ag4
ag4
ag4
ag4
aS'2015'
p151
ag4
ag4
ag4
ag4
aS'\xd0\xb5\xd0\xb2\xd1\x80\xd0\xbe\xd0\xb1\xd0\xb0\xd1\x81\xd0\xba\xd0\xb5\xd1\x822015'
p152
ag4
ag4
ag4
ag4
ag4
aS'mitsubishi outlander phev concepts'
p153
ag4
ag4
ag4
aS'2020'
p154
aS'mcdonalds'
p155
ag4
ag4
ag4
ag4
ag4
ag4
ag4
aS'2014 samsung gear'
p156
ag4
ag4
ag4
ag4
ag4
ag4
ag4
ag4
ag4
ag4
ag4
ag4
ag4
ag4
ag4
ag4
ag4
ag4
ag4
ag4
ag4
ag4
ag4
ag4
ag4
ag4
ag4
ag4
as.