(dp0
S'2012_49'
p1
(lp2
S'looks like alloa pitch might alright getting salted morning taking drive past back'
p3
asS'2013_47'
p4
(lp5
S'know someone struggling mentalhealth reach friend suffering ptsd trust real frie\xe2\x80\xa6'
p6
asS'2014_34'
p7
(lp8
S'2010 signed loan watch goals free'
p9
aS'played much passion heart shirt hope makes return asap ibrox would lift'
p10
aS'expect blue rangers vlad watp'
p11
aS'signed payed membership also purchased community share however profile still shows free member'
p12
aS'thanks roulette'
p13
asS'2014_35'
p14
(lp15
S'eithan bout 1830'
p16
aS'poor richard snooker tonight fancy'
p17
asS'2014_38'
p18
(lp19
S'fantastic thank daisy'
p20
asS'2014_39'
p21
(lp22
S'snooker debut tonight preston district snooker league'
p23
asS'2013_5'
p24
(lp25
S'happy birthday hope lots cuddles'
p26
asS'2013_7'
p27
(lp28
S''
p29
ag29
ag29
ag29
aS'blue nose'
p30
asS'2013_6'
p31
(lp32
g29
asS'2013_3'
p33
(lp34
S'hahhaa mate fuck saturday night tweeting life inbred'
p35
asS'2014_15'
p36
(lp37
g29
asS'2013_9'
p38
(lp39
S'cardinal keith obrien says sexual conduct fallen standards expected christ'
p40
asS'2013_51'
p41
(lp42
S'gamer package follow retweet chance 14daysoffifa'
p43
asS'2013_50'
p44
(lp45
g29
asS'2012_50'
p46
(lp47
S'think busy work return desk toys connecticut'
p48
aS'rangers fans know gettin tattoo bout rangers hope like rtid watp'
p49
aS'alloa come wasps gutted couldnt make hold'
p50
asS'2012_51'
p51
(lp52
S'alloa signed former dundee united midfielder gavin stokes free transfer hartley feels player'
p53
asS'2014_3'
p54
(lp55
g29
asS'2013_37'
p56
(lp57
S'little mans birthday 2moz year flown past birthday'
p58
asS'2014_42'
p59
(lp60
S'quinny queens park rangers rangers theres rangers cheers mate'
p61
aS'think fantastic football clubs recognising service personnel charitys hope owners fork help'
p62
aS'millwall something troops glasgow rangers also troops taking field honour'
p63
aS'lost first ever competitive snooker match tonight record stands'
p64
aS'office'
p65
aS'hopefully scotland something tonights game chance hangover anything'
p66
asS'2013_13'
p67
(lp68
S'lose something need counting stars life color songs native'
p69
asS'2013_12'
p70
(lp71
S'9yrs service'
p72
asS'2013_15'
p73
(lp74
S'follow service leavers start resettlement speak advice jobs'
p75
asS'2014_43'
p76
(lp77
S'real madrid absolute class love watching'
p78
as.