(dp0
S'2013_42'
p1
(lp2
S''
p3
ag3
aS'cheat responding comments'
p4
aS'follow please would make life'
p5
aS'small announcement longer running youtube wasnt decision leave excited'
p6
aS'love mommy hate right wish still'
p7
aS'shoutout details'
p8
aS'cold rainy windy usual hows weather turkey'
p9
aS'follow'
p10
asS'2013_43'
p11
(lp12
S'names jimmy johnny'
p13
aS'milk boob juice'
p14
asS'2013_40'
p15
(lp16
S'pizza good'
p17
aS'movie great'
p18
ag3
aS'watch video'
p19
asS'2013_41'
p20
(lp21
S'take pride fact 500000 people trying control jaws alone struggle'
p22
aS'direction last week'
p23
aS'yeah alright holiday considering still scotland haha'
p24
aS'doesnt really probably'
p25
ag3
aS'amazing'
p26
aS'hope amazing holiday'
p27
ag3
ag3
aS'hate self right'
p28
aS'open click picture fucking confused'
p29
asS'2013_46'
p30
(lp31
S'watching drifters'
p32
aS'sure left house zalfie'
p33
aS'ship zalfie'
p34
aS'cant even perfect ghhgs zalfie'
p35
aS'welcome england winter'
p36
aS'soooooo excited album come really proud songs can\xe2\x80\x99t wait hear'
p37
aS'follow pleases love videos'
p38
aS'love getting spend life career beautiful little girls'
p39
aS'meet'
p40
aS'ayyyyy 600000 followers want kiss right also dont yuck'
p41
asS'2013_44'
p42
(lp43
S'youre perfect'
p44
aS'hope face gets better soon'
p45
aS'screaming help'
p46
aS'chillin hoodie nanight'
p47
aS'love reading letters guys give makes realize lucky'
p48
aS'askjoey would ever date fans'
p49
aS'perfection'
p50
asS'2013_45'
p51
(lp52
S'love joey'
p53
aS'hell already friday woooo complaining'
p54
aS'someone tickles neck like'
p55
aS'teacher wheres homework'
p56
aS'dats cool hang bitch food'
p57
aS'principals office principal seat thank picks chair leaves'
p58
aS'love story life videoits good storyofmylife storyofmylifevideo'
p59
aS'cant wait till christmas'
p60
aS'excited dome'
p61
aS'judging dont'
p62
aS'guys complain girls making duckfaces theyre biting squinting like theyre tryna read somethin'
p63
aS'louis record scene times kept crying emotional stuff'
p64
aS'christmas like please'
p65
aS'come twitter youre good mood'
p66
aS'shoutout free follow'
p67
aS'hate walking past group people dislike awkward'
p68
aS'joey sweet'
p69
asS'2012_44'
p70
(lp71
S'retweet less 5000 followers follow everyone retweets gain quicker retweet'
p72
aS'wants shoutout 64000'
p73
asS'2012_47'
p74
(lp75
S'excuse heres nose found business'
p76
aS'derrensmells smelt mint'
p77
asS'2012_46'
p78
(lp79
S'shoutout'
p80
asS'2012_41'
p81
(lp82
S'night yall'
p83
asS'2012_40'
p84
(lp85
S'school tomorrow'
p86
aS'instagram'
p87
aS'shout follow first though'
p88
asS'2012_43'
p89
(lp90
g3
asS'2012_42'
p91
(lp92
S'love youre'
p93
asS'2013_25'
p94
(lp95
S'beautiful macbarbie07giveaway'
p96
aS'beautiful macbarbie07giveaway'
p97
aS'beautiful macbarbie07giveaway'
p98
aS'beautiful macbarbie07giveaway'
p99
aS'beautiful macbarbie07giveaway'
p100
aS'beautiful macbarbie07giveaway'
p101
aS'beautiful macbarbie07giveaway'
p102
aS'beautiful macbarbie07giveaway'
p103
aS'beautiful macbarbie07giveaway'
p104
aS'beautiful macbarbie07giveaway'
p105
aS'beautiful macbarbie07giveaway'
p106
aS'gorgeous macbarbie07giveaway'
p107
aS'beautiful macbarbie07giveaway'
p108
aS'macbarbie07giveaway'
p109
aS'please macbarbie07giveaway'
p110
aS'giveaway macbarbie07giveaway'
p111
aS'enter macbarbie07giveaway'
p112
aS'please macbarbie07giveaway please'
p113
aS'macbarbie07giveaway'
p114
aS'macbarbie07giveaway'
p115
aS'enter please macbarbie07giveaway'
p116
aS'please macbarbie07giveaway'
p117
aS'prom soon would wear dress giving away macbarbie07giveaway beth please'
p118
aS'macbarbie07giveaway'
p119
aS'please pick please macbarbie07giveaway'
p120
aS'prom soon would wear dress giving away please pick macbarbie07giveaway'
p121
aS'would make life macbarbie07giveaway'
p122
aS'pick please macbarbie07giveaway'
p123
aS'please macbarbie07giveaway'
p124
aS'macbarbie07giveaway pick'
p125
aS'please macbarbie07giveaway'
p126
aS'please pick macbarbie07giveaway'
p127
aS'macbarbie07giveaway'
p128
aS'macbarbie07giveaway'
p129
aS'macbarbie07giveaway'
p130
aS'macbarbie07giveaway'
p131
aS'macbarbie07giveaway'
p132
aS'macbarbie07giveaway abcdefghijklmbopqrstuvwxyz'
p133
aS'macbarbie07giveaway'
p134
aS'macbarbie07giveaway'
p135
aS'macbarbie07giveaway'
p136
aS'macbarbie07giveaway'
p137
aS'directioner'
p138
aS'macbarbie07giveaway'
p139
aS'macbarbie07giveaway'
p140
aS'macbarbie07giveaway'
p141
aS'macbarbie07giveaway'
p142
aS'macbarbie07giveaway please pick'
p143
aS'macbarbie07giveaway'
p144
aS'macbarbie07giveaway'
p145
aS'macbarbie07giveaway'
p146
aS'macbarbie07giveaway'
p147
aS'macbarbie07giveaway'
p148
aS'macbarbie07giveaway'
p149
aS'macbarbie07giveaway'
p150
aS'enter macbarbie07giveaway'
p151
aS'enter macbarbie07giveaway'
p152
aS'please macbarbie07giveaway'
p153
aS'macbarbie07giveaway'
p154
aS'macbarbie07giveaway'
p155
aS'macbarbie07giveaway'
p156
aS'macbarbie07giveaway'
p157
aS'macbarbie07giveaway'
p158
aS'macbarbie07giveaway'
p159
aS'macbarbie07giveaway'
p160
aS'macbarbie07giveaway'
p161
aS'macbarbie07giveaway giveaway'
p162
aS'macbarbie07giveaway'
p163
aS'macbarbie07giveaway'
p164
aS'macbarbie07giveaway'
p165
aS'macbarbie07giveaway'
p166
aS'macbarbie07giveaway'
p167
aS'macbarbie07giveaway'
p168
aS'macbarbie07giveaway'
p169
aS'macbarbie07giveaway'
p170
aS'macbarbie07giveaway'
p171
aS'macbarbie07giveaway'
p172
aS'macbarbie07giveaway'
p173
aS'macbarbie07giveaway'
p174
aS'macbarbie07giveaway'
p175
aS'macbarbie07giveaway'
p176
aS'enter macbarbie07giveaway'
p177
aS'macbarbie07giveaway'
p178
aS'macbarbie07giveaway'
p179
aS'macbarbie07giveaway'
p180
aS'macbarbie07giveaway'
p181
aS'macbarbie07giveaway'
p182
aS'macbarbie07giveaway'
p183
aS'macbarbie07giveaway'
p184
aS'please macbarbie07giveaway'
p185
aS'pick macbarbie07giveaway'
p186
aS'love macbarbie07giveaway'
p187
aS'please pick please macbarbie07giveaway'
p188
aS'please macbarbie07giveaway'
p189
aS'macbarbie07giveaway'
p190
aS'pick macbarbie07giveaway'
p191
aS'macbarbie07giveaway'
p192
aS'pretty please macbarbie07giveaway'
p193
aS'macbarbie07giveaway'
p194
aS'please pick macbarbie07giveaway'
p195
aS'pick macbarbie07giveaway'
p196
aS'enter beth macbarbie07giveaway'
p197
aS'enter please macbarbie07giveaway'
p198
aS'please pick beth pretty pretty please cherry macbarbie07giveaway'
p199
aS'please pick beth pretty pretty please cherry macbarbie07giveaway'
p200
aS'world'
p201
aS'please pick beth pretty please macbarbie07giveaway'
p202
aS'please pick beth pretty please macbarbie07giveaway'
p203
aS'please enter giveaway macbarbie07giveaway would grateful picked would happiest girl world'
p204
aS'pretty pretty please enter giveaway love pretty please macbarbie07giveaway'
p205
asS'2013_26'
p206
(lp207
S'help stuck emoji puzzle know answer play along free'
p208
aS'summer holiday'
p209
aS'please pick beth pretty please macbarbie07giveaway'
p210
aS'macbarbie07giveaway'
p211
aS'macbarbie07giveaway'
p212
aS'macbarbie07giveaway'
p213
asS'2013_27'
p214
(lp215
S'watched funniest drunk collab theyre givin away ipad mini check'
p216
aS'excuse language'
p217
asS'2013_20'
p218
(lp219
S'really hate people people feel need people dose anyone answer please tell'
p220
asS'2013_21'
p221
(lp222
S'house level design home design home free designthishome'
p223
ag3
asS'2013_23'
p224
(lp225
S'great newton grange gala'
p226
asS'2012_49'
p227
(lp228
S'shoutout anyone'
p229
aS'bitching best friend'
p230
asS'2012_24'
p231
(lp232
S'follow'
p233
asS'2013_28'
p234
(lp235
S'breathes parents sick tired attitude'
p236
aS'text right would great'
p237
aS'letniallsing'
p238
aS'letniallsingwhereweare'
p239
aS'want smile check video called reasons smile'
p240
aS'haha'
p241
asS'2013_29'
p242
(lp243
S'night good morning'
p244
asS'2012_21'
p245
(lp246
S'follow please love much thanks'
p247
aS'follow please follows back xlt3x'
p248
asS'2012_20'
p249
(lp250
S'twitter first tweet'
p251
asS'2013_5'
p252
(lp253
S'happy birthday'
p254
asS'2013_7'
p255
(lp256
S'okay challlenge accepted'
p257
aS'draw life need check'
p258
asS'2013_6'
p259
(lp260
S'love much'
p261
aS'congrats'
p262
asS'2013_3'
p263
(lp264
S'shoutout follow back everyone'
p265
asS'2012_36'
p266
(lp267
S'shoutout follow back picking'
p268
aS'shoutout follow back'
p269
aS'follow good tweets always follows back'
p270
asS'2012_32'
p271
(lp272
S'shoutout also question'
p273
aS'lets dope'
p274
ag3
aS'ever broke bone'
p275
aS'follow back please'
p276
aS'want shoutout followme fora follow back'
p277
ag3
aS'everyone welcome'
p278
aS'everyone'
p279
aS'follow also'
p280
aS'everybodys welcome'
p281
aS'anyone'
p282
ag3
aS'everyone even strangers'
p283
aS'everybody'
p284
aS'strangers'
p285
aS'shoutouts'
p286
aS'shoutouts everyone'
p287
aS'shoutout'
p288
aS'shoutout'
p289
aS'sheeran drunk'
p290
aS'shoutout'
p291
aS'shout'
p292
ag3
aS'guessing everyones asleep shoutout'
p293
aS'doin'
p294
ag3
aS'great britain love'
p295
aS'last real shit'
p296
aS'shout'
p297
aS'shout'
p298
aS'shoutout seeing notifications arent moving'
p299
aS'shoutout'
p300
aS'shoutout'
p301
aS'everyone please'
p302
aS'shout follow'
p303
aS'shout follow'
p304
aS'shoutout'
p305
aS'shoutout'
p306
aS'shoutout'
p307
aS'shoutout follow'
p308
aS'cute shoutout'
p309
aS'shoutout'
p310
aS'shouout must following'
p311
aS'shoutout must following'
p312
aS'shoutout everyone must follow first followback later'
p313
ag3
aS'bitch didnt fall attacked floor'
p314
aS'please give shout 13240 followers'
p315
aS'shoutout guys follow first though xxxxxx'
p316
aS'shoutout dont following'
p317
aS'shoutout follow back'
p318
aS'shoutout'
p319
aS'shoutout must following'
p320
aS'retweet shoutout following random'
p321
aS'cute shoutout must follow though'
p322
aS'lovely shoutout follow first'
p323
asS'2012_33'
p324
(lp325
S'late night shoutout'
p326
aS'follow back'
p327
aS'retweet shoutout'
p328
aS'keep posting keep retweeting girl needs found'
p329
aS'shoutout doesnt matter youre following follow back'
p330
aS'night time shoutout everyone welcome'
p331
aS'retweet shoutout favourite follow back'
p332
aS'shout'
p333
aS'shoutout bored'
p334
aS'shoutout follow back'
p335
aS'shoutout'
p336
aS'shoutout probably wake morning'
p337
aS'shoutout'
p338
ag3
aS'rate favorite'
p339
aS'retweet shoutout everyone welcome follow back'
p340
aS'shoutout open'
p341
aS'account rate icon location tweets overall rate'
p342
aS'tired nite fing crazy'
p343
aS'shoutout every single follow back guys follow'
p344
aS'retweet shoutout follow back'
p345
aS'shoutout'
p346
aS'shout outbefore sleep'
p347
asS'2012_35'
p348
(lp349
S'thats happens'
p350
aS'cute shoutout'
p351
aS'shoutout'
p352
aS'wants shoutout follow back'
p353
aS'shout follow back'
p354
asS'2012_50'
p355
(lp356
S'made'
p357
aS'retweet takes seconds'
p358
aS'happen please'
p359
aS'late shoutout'
p360
aS'shoutout'
p361
aS'shoutout hypermode'
p362
asS'2013_37'
p363
(lp364
S'youre subscribed youre missing amazing videos gettyleroakleyto2m'
p365
aS'follow gettyleroakleyto2m amazing friggin hilarious'
p366
aS'gettyleroakleyto2m'
p367
aS'almost million subscribers biggest size queen youtube subscribe'
p368
aS'sake small cute michiganders everywhere help gettyleroakleyto2m'
p369
aS'know better subscribe fellow fangirl teamfangirl gettyleroakleyto2m'
p370
aS'subscribe free flower crown youcanfinallybecool gettyleroakl\xe2\x80\xa6'
p371
aS'subscribe personally give free taco bell tyler awesome gettyleroakleyto2m'
p372
aS'come lazy bums tweet tyler tyler includes'
p373
aS'please today finally follow indonesian close giving'
p374
ag3
aS'taylor swift needs stop fucking piece shit'
p375
aS'ready bring'
p376
aS'love troye'
p377
ag3
aS'rest rest'
p378
aS'glamorous side show hahaha'
p379
aS'happy birthday niall love much'
p380
aS'started bottom'
p381
aS'love lock screen back round troyler'
p382
aS'watched 2030 videos stop love videos'
p383
aS'fault stars troye sivan official music video'
p384
aS'tell pretty'
p385
aS'pretty'
p386
aS'lift breathes heavily'
p387
aS'must watch tumblr challenge troyler real'
p388
aS'watch interviewed talked tumblr fanfiction tyleroakley1dinterview'
p389
aS'kema natalie louise palmer reach time official video'
p390
ag3
aS'love people weird'
p391
asS'2013_36'
p392
(lp393
S'please'
p394
aS'retweeting last tweet video would help'
p395
aS'love banner'
p396
aS'love'
p397
aS'connor'
p398
aS'excited'
p399
aS'tutorial please thanks loving hair'
p400
aS'best bios seen hahaha bestcomplimentevaa'
p401
aS'please broadcasts earlier dont want miss 1130pm love ricky'
p402
aS'really need focus school year'
p403
aS'video soon fell asleep editing haha finishing'
p404
aS'haha'
p405
aS'rickychat favourite room mate love ricky'
p406
ag3
asS'2013_35'
p407
(lp408
S'nite'
p409
aS'walk water'
p410
aS'thats cute'
p411
aS'wear'
p412
aS'still cant believe followed ahhhh'
p413
aS'came gave perfume samples awsome'
p414
aS'came gave perfume sample awsome'
p415
aS'hope nice'
p416
aS'cold room warm blankets heaven'
p417
aS'going excited'
p418
aS'happy birthday liam love'
p419
aS'birthday badman'
p420
aS'adorable'
p421
aS'tweet gets retweets collab video hint wild myler acti\xe2\x80\xa6'
p422
aS'single cover fleetwood macs dont stop itunes like'
p423
aS'love'
p424
aS'thats awsome'
p425
aS'drunk selfie'
p426
aS'beautiful view fran'
p427
aS'stop writing songs break yeah know dumped every single stop please thanks'
p428
aS'ever feel like someones watching'
p429
ag3
aS'guess excuse sale haha'
p430
asS'2013_34'
p431
(lp432
S'love yous'
p433
aS'welcome love'
p434
aS'hate blonde stereotype bitchy blonde dumb blonde blonde bimbo annoying'
p435
aS'happy birthday stacy love videos'
p436
aS'rebel haha'
p437
aS'hope make haha'
p438
aS'guys'
p439
aS'hello'
p440
aS'lucky'
p441
aS'thingsihateaboutpeople thingsihateaboutpeople'
p442
aS'thingsihateaboutpeople thingsihateaboutpeople'
p443
aS'thingsihateaboutpeople thingsihateaboutpeople'
p444
aS'thingsihateaboutpeople'
p445
aS'thingsihateaboutpeople thingsihateaboutpeople'
p446
aS'thingsihateaboutpeople thingsihateaboutpeople'
p447
aS'thingsihateaboutpeople thingsihateaboutpeople'
p448
aS'thingsihateaboutpeople thingsihateaboutpeople'
p449
aS'thingsihateaboutpeople thingsihateaboutpeople'
p450
aS'thingsihateaboutpeople thingsihateaboutpeople'
p451
aS'thingsihateaboutpeople'
p452
aS'thingsihateaboutpeople'
p453
aS'thingsihateaboutpeople'
p454
aS'thingsihateaboutpeople'
p455
aS'thingsihateaboutpeople'
p456
aS'thingsihateaboutpeople'
p457
aS'things hate people ricky dillon thingsihateaboutpeople'
p458
aS'things hate people ricky dillon thingsihateaboutpeople'
p459
aS'following spree following people tweet hashtag thingsihateaboutpeople videogt'
p460
aS'things hate people ricky dillon'
p461
asS'2013_33'
p462
(lp463
S'someone unfollows'
p464
aS'well need mines free jussayin'
p465
aS'awwww poor joey'
p466
aS'retweet follow back'
p467
aS'everyone tweet winning tickets think really deserves vmanow'
p468
aS'entered tweet contest tickets lolol would amazing guys retweeted last tweet'
p469
aS'chill cool guys today'
p470
aS'epic'
p471
aS'tell back please'
p472
aS'whatever decide make sure makes happy'
p473
aS'follow zayns secret account follows zaynmalik proof'
p474
aS'roses going'
p475
aS'please'
p476
aS'nevermind shouldve listened first fucking time'
p477
aS'want give shout thank friend creating clips follow'
p478
aS'love ricky'
p479
aS'good luck hope better soon love'
p480
aS'happybirthdayo2l actually trended worldwide earlier yall amazing goodnight oops'
p481
aS'brand video dirty little confessions check please give thumbs'
p482
aS'seen video yesterday answering comments right please'
p483
aS'niall horan morning'
p484
aS'respect'
p485
aS'true'
p486
aS'yeahhh'
p487
aS'love direction'
p488
aS'hihi'
p489
aS'people never change'
p490
aS'wanted love broadcasts would amazing followed thanks'
p491
aS'matter people think keep smiling walk away'
p492
aS'guys love much tweeting today well easy dont anything'
p493
aS'poor joey well soon'
p494
ag3
aS'love'
p495
aS'suicide chances life getting worse suicide eliminates possibility ever getting better'
p496
aS'follow'
p497
aS'look taking selfie'
p498
aS'leave window open summer'
p499
ag3
aS'love thank much follow love'
p500
aS'shout cool cats live show love'
p501
aS'ahhhhhhh mikey follows ahhhhhhh crying probs woke neighbours dont care mikey follows'
p502
aS'ahhhhhh mikey said loves ahhhhhhhhhhh crying paultheunicorn'
p503
aS'paul unicorn'
p504
aS'zayn prettier 1010 girls lets real'
p505
aS'midnight think'
p506
aS'please follow watching live show'
p507
asS'2013_32'
p508
(lp509
S'well yous awesome'
p510
aS'made mark today wall awesomeness'
p511
ag3
aS'poor joey'
p512
aS'hahahah'
p513
aS'done'
p514
aS'gorgeous'
p515
aS'headache headache away come never suck dont like youuu'
p516
aS'love'
p517
aS'love ricky'
p518
aS'holy lasagna noticed close 300000 subscribers please subscribe youre'
p519
aS'congratulations kian love'
p520
aS'night kian'
p521
aS'lion king coming theater near starring'
p522
aS'dont forget hahahaha love guys'
p523
aS'video \xe2\x9d\xa4\xe2\x9d\xa4style swap japan meets california makeover asahi'
p524
ag3
aS'video better\xf0\x9f\x99\x8a\xf0\x9f\x99\x88\xf0\x9f\x99\x89\xe2\x9d\xa4\xe2\x9d\xa4'
p525
aS'follow back please'
p526
asS'2013_31'
p527
(lp528
S'whats school essentials'
p529
aS'back school august 21st stilababe09giveaway'
p530
aS'back school supplies haul giveaway'
p531
aS'sitting watching brothers side stop'
p532
aS'weloveyouzayn forever always'
p533
aS'bitch please'
p534
ag3
aS'unique little hazz'
p535
aS'cant waitttttt'
p536
aS'someones getting angry'
p537
aS'weloveyouzayn'
p538
aS'love adventure time'
p539
aS'happened'
p540
asS'2013_30'
p541
(lp542
S'bored dressing room gummy bear basketball lukey love gummy bear basket\xe2\x80\xa6'
p543
aS'harry follow next fans follow'
p544
aS'love watching drake josh'
p545
aS'facts know sassy fabulous 3male smart good looking love'
p546
aS'went cross trainer hour half tired'
p547
aS'please follow love'
p548
aS'teachers take notes extended teens react student lectures teacher jeff bliss'
p549
aS'best lock screen ever'
p550
aS'google everything'
p551
aS'hair amazing'
p552
aS'please'
p553
aS'wearing slippers awwww'
p554
aS'mean princess haha dramamemories'
p555
aS'know repeat bestsongever video lets break record mtvhottest'
p556
aS'know repeat bestsongever video lets break record'
p557
asS'2013_19'
p558
(lp559
S'describe crush'
p560
aS'follow instagram please thanks follow back'
p561
aS'shout'
p562
aS'shoutout'
p563
aS'shoutout'
p564
aS'pink lemonade'
p565
aS'haha true'
p566
aS'true'
p567
aS'nanagt'
p568
aS'retweet follow back'
p569
aS'free wifi hell'
p570
asS'2013_18'
p571
(lp572
S'shoutout happybaekhyunday'
p573
aS'follow follow follow'
p574
aS'follow follow follow'
p575
aS'follow'
p576
aS'follow follow follow'
p577
aS'follow follow follow follow'
p578
aS'follow directioner like follow follow follow'
p579
aS'shout board'
p580
aS'started homework 1040 good elle tomorrow'
p581
asS'2013_16'
p582
(lp583
S'shit scotland'
p584
asS'2012_37'
p585
(lp586
S'finnick nips'
p587
aS'shoutout'
p588
aS'cute shoutout everyone welcome'
p589
asS'2012_30'
p590
(lp591
g3
aS'aries observant others surroundings'
p592
asS'2012_31'
p593
(lp594
S'shoutout'
p595
aS'retweet shoutout'
p596
aS'follow back'
p597
aS'shoutout first'
p598
ag3
aS'lovely shootout\xe2\x98\xaf'
p599
aS'shoutout'
p600
aS'shout youre lucky\xf0\x9f\x98\x8f'
p601
aS'want shoutout'
p602
aS'cute little shoutout filthy animals'
p603
aS'shoutout'
p604
aS'paper shoutout'
p605
aS'timeline boring follow'
p606
aS'little shoutout follow back'
p607
aS'want shoutout'
p608
aS'shoutout'
p609
aS'want follow'
p610
ag3
aS'shout'
p611
aS'shoutout'
p612
aS'shout'
p613
aS'massive shoutout must following'
p614
aS'shoutout bored bored bored'
p615
aS'huge shoutout'
p616
aS'daley'
p617
aS'shoutout'
p618
aS'shoutout 144k must following follow back'
p619
aS'want follow person choose'
p620
aS'retweet shoutout'
p621
aS'cute shoutout'
p622
aS'retweet strangers welcome'
p623
aS'retweet shoutout'
p624
aS'shoutout must following'
p625
aS'shoutout'
p626
aS'nice shoutout'
p627
aS'shoutout'
p628
aS'shoutout really bored'
p629
aS'shoutout follow back'
p630
aS'shoutout'
p631
aS'shout follow follow back'
p632
aS'want shoutouts retweet'
p633
aS'shoutout appreciate follow first'
p634
aS'shoutout seriously bored give everyone'
p635
aS'shoutout till tiredlt3'
p636
aS'shoutout first'
p637
aS'shoutout many'
p638
aS'shoutout'
p639
aS'bored shout dont care youre following'
p640
aS'want follower follow follow back'
p641
aS'follow follows back dont follow missing'
p642
aS'please give shout'
p643
aS'shoutout must following first yeeee'
p644
aS'shoutout follow back'
p645
aS'shout'
p646
aS'retweet shoutout'
p647
aS'massive shoutout'
p648
aS'shoutout must following follow back everyone'
p649
aS'shoutout'
p650
aS'retweet shoutout buttttt think retweet follow'
p651
aS'wants retweet'
p652
aS'shoutout'
p653
aS'cute shoutout must following'
p654
aS'shoutout doesnt matter dont follow'
p655
aS'awkward moment drop something stare youre lazy pick'
p656
aS'shoutout 40000 gtgtgt doesnt matter dont follow'
p657
ag3
aS'shoutout'
p658
aS'shoutout people dont follow aswell follow'
p659
aS'life like chocolates never know youll well read leaflet know chocolate'
p660
aS'shoutout must following follow back everyone'
p661
aS'shutout follow back'
p662
aS'shoutout must following follow back bored'
p663
aS'shoutout follow back'
p664
aS'sostrangers welcome teamfollowback'
p665
aS'shout bored wants follow load people'
p666
aS'shout'
p667
aS'shout follow back'
p668
aS'retweet want shoutout'
p669
aS'shoutout'
p670
aS'shoutout must following follow back everyone'
p671
aS'please cause need follower'
p672
aS'please cause need followers follow back'
p673
aS'good morning shoutout strangers welcome'
p674
aS'done shoutouts shoutout follow back'
p675
aS'follows back'
p676
aS'vans think'
p677
asS'2013_39'
p678
(lp679
g3
aS'drove nasa'
p680
aS'loved video'
p681
aS'haha'
p682
aS'excited'
p683
asS'2013_38'
p684
(lp685
S'haha'
p686
aS'beautiful'
p687
aS'dance'
p688
aS'love joey'
p689
aS'cant anymore full want desert yessssss'
p690
aS'thoughts'
p691
aS'cool naked stop motion'
p692
aS'laughed much watching video haha someone'
p693
aS'loved video \xe2\x9d\xa4signs doesnt like'
p694
aS'love connor franta much'
p695
aS'main channel video signs doesnt like gtgtgt'
p696
aS'video someone gtgtgt'
p697
aS'pikachu'
p698
aS'pikachu kinda'
p699
aS'hope awsome'
p700
aS'thank'
p701
aS'watch haul love bethers \xe2\x9d\xa4fall clothing haul forever hampm urban outfitters'
p702
asS'2013_11'
p703
(lp704
S'iphone back'
p705
asS'2013_12'
p706
(lp707
S'hate people face'
p708
aS'followback gtgtgt follow anyone retweets gain instant followers'
p709
asS'2012_34'
p710
(lp711
S'hate person class thinks perfect arrrr\xf0\x9f\x98\xa1'
p712
aS'everyone follow shout everyone follows'
p713
aS'retweet follow follow first100 retweets dothe video running round naked'
p714
aS'followers follow back retweet give shoutout'
p715
aS'follow back follow follow back'
p716
aS'simple shoutout'
p717
aS'followers shout outs'
p718
aS'follow'
p719
aS'want girl protect girl mine'
p720
aS'describeafollowerwithoneword'
p721
aS'shoutout open'
p722
aS'shoutout'
p723
asS'2013_15'
p724
(lp725
S'wish could shopping spree shopping mall everything wanted free'
p726
asS'2012_38'
p727
(lp728
S'want fucking panda'
p729
aS'anyone else'
p730
aS'beautiful'
p731
asS'2012_39'
p732
(lp733
g3
aS'goodnight mention strangers welcomed'
p734
aS'want shout follow back follow'
p735
aS'take seconds help'
p736
as.