(dp0
S'2013_42'
p1
(lp2
S'system needs change everyone blames everyone truthfully govt shown irresponsible'
p3
aS'election every years voter count matter voted'
p4
aS'referendums like swiss havethis voters elections thats true democracy'
p5
aS'sneaked smallest margins since found waste libs vote'
p6
asS'2013_43'
p7
(lp8
S'truly want hear people electionno panels asked'
p9
aS'charge coffee water chocolate middle'
p10
aS'pensioners wait laundry used used'
p11
aS'time time hydro hurts retirees'
p12
aS'hope redford paid pocket using alberta taxpayers money gifts'
p13
aS'dont think premier history visits much doeveryday placeexpensed taxpayer'
p14
aS'guess taxpayer hook shouldnt restoring backup tapes'
p15
aS'taxpayer funded pension revoked'
p16
aS'tells attitude libsthey think billion nothing easy mpps make'
p17
aS'speak dwight stupid think people billion counting pension revoked'
p18
aS'want people fact distracted drivers higher finepoints little comfort person'
p19
aS'even hands free drivers concentration conversation driving save lives prevent accidents cell'
p20
aS'whether hands free distraction cause many accidents preventable'
p21
aS'cellphone cars cant operate machine factory disturbed cars machines'
p22
aS'timemoney restore tapes timemoney consultation panels mths'
p23
aS'done full disaster recovery hours libs still choose open want'
p24
aS'open still waiting backup tapes restored gasplants doesnt take months'
p25
aS'perfect timing retire stay home help raise grandchildren benefit taxpayer benefits'
p26
aS'wallin used report issues know better pigs trough feel entitled happens'
p27
aS'companys restore backups days months libs hiding'
p28
aS'website make good govt libs still havent produced emails gasplant backup tapes joke'
p29
asS'2013_41'
p30
(lp31
S'geez quiet andrea time election much carnage lies need libs'
p32
asS'2013_46'
p33
(lp34
S'total utter failure management govt province rich energy highest rates country'
p35
aS'woodys burger lakeshore west good place makes good wood oven pizza'
p36
aS'wwwqueenmargheritapizza'
p37
asS'2013_47'
p38
(lp39
S'would learn heinz leaving high energy prices'
p40
aS'would better visit closure late'
p41
aS'made millions spreading words fear lives life tells others live hypocrite'
p42
aS'many millions made spreading fear hypocrite whats carbon footprint'
p43
aS'people meet really gets rich spreading fear carbon footprint'
p44
asS'2013_44'
p45
(lp46
S'thats classic policy pass issue doesnt existendbsl'
p47
aS'owners kathleen dogs issue punishing dogs'
p48
aS'time change govt'
p49
aS'heres good read kathleen true open govt democracy'
p50
aS'send mpps switzerland study true open govt website make open research swiss referendums'
p51
aS'swiss referendums levels govt reason cant gives voters true voice'
p52
aS'referendums allow voters mandate govt count weather vote ndplibpcgreen'
p53
aS'referendums allow bigger voice votershaving vote every years true democracy research swiss referendum'
p54
aS'referendums like swiss would true open govt keeps govts accountable gives power back voter'
p55
aS'time change referendums like swiss would start gives power back voters'
p56
aS'saying sorry change actions isnt enough history proven govern people'
p57
aS'people could honest govt helped instead continuously wasting money mpps ashamed'
p58
aS'camp front mcguinty wynnes homes toountil answers months later voters still waiting tape restore'
p59
aS'guess hound people blue collar criminals white collar criminals leave alone crime crime'
p60
aS'really pissing corpse think important news pretty sure cp24 emps drunk'
p61
aS'trust invest money properly trust govt invest money'
p62
aS'allowing taxpayers keep money start contribute rrsp'
p63
aS'would like family member issues needed deal stalked homefamilies homes'
p64
aS'think stalking someone drugdrink issue make prone drinkdo drugs'
p65
aS'know needs help follow people drug issues families homes'
p66
aS'really deserving privacy even need help stalking people families home junk jorrnalism'
p67
aS'less allow people keep money contribute rather control pension'
p68
aS'dressing want scare crap taxpayers'
p69
aS'cant afford remember hydros going taxes used pensions'
p70
aS'star camp homes waste billions guess dont care stuff voters'
p71
aS'spent much time coverage hounding libs backup tapes available start camping homes'
p72
aS'another minutes cp24 tweet watch live video city hall janitor comments ford video news'
p73
aS'agree politicians wasting billions dont cp24 hounding camped homes'
p74
aS'openon whats happening backup tapes voters still waiting restored already months'
p75
aS'camp front mpps homes wasted billions guess cp24 doesnt consider news crime'
p76
aS'video mcguinty wynne plants guess billion wasted worth investigating media'
p77
aS'media camping front mpps homes wasted billions guess media consider crime'
p78
aS'camp outside kathleen wynnes office guess wasting billions crime media lieing'
p79
aS'mayor miller liar wasted millions media never stood outside house'
p80
aS'media stay away peoples homes wait work would like stood outside home'
p81
aS'consumers need protection ripped people last years cell'
p82
aS'okso lcbobeer storehydro course wont protect reap'
p83
aS'remember work voter salarybenefitspensions please respect fact want vote'
p84
aS'percent voters want election obviously arent listening people care'
p85
aS'libs mentality find ways money taxpayer spending currently better'
p86
aS'seek ways take money taxpayers never announcement saved'
p87
aS'many jobs libs chased away energy policy still supports 2000'
p88
aS'cant housing wages thats workers guaranteed pensions'
p89
aS'think wine beer sold corner stores libs dont care majority thinks'
p90
aS'think wine beer sold corner stores libs dont care majority thinks'
p91
aS'course doesnt monopoly many european countries allow selling small stores cant'
p92
aS'would easy help small business year 2013 kathleen follow europeans'
p93
aS'cant imagine clowns spend home everyday spending money cant afford'
p94
aS'mandate spend geez years would figure libs would learn'
p95
aS'still spending call election mandate first spend'
p96
aS'sudden libs smell election soon care everyone actions last speak differently'
p97
aS'future easier youth years rule worse simple question much libs cared'
p98
aS'sure youth excited future consists paying highest debt history'
p99
aS'million fund cant physio test strips diabetics priorities'
p100
aS'supposed spending history proven industrybusiness creates jobs government'
p101
aS'support respect different things govt proven respect taxpayer'
p102
aS'speak first theyll shocked much govt takes people keep'
p103
asS'2013_45'
p104
(lp105
S'killer good lucerne september bake shops'
p106
aS'thank'
p107
aS'ensure things right environmentally nakina times beautiful land cant afford lose'
p108
aS'agree exceptions support consumers power effect change'
p109
aS'sadly ceos care next quarters shareholders consumers choose gets'
p110
aS'hasnt stolen publictaxpayer feds step remove stole billions would precedent'
p111
aS'vote vote power council shut ignore himthen voters decide 2014'
p112
aS'justin come policys long leader'
p113
aS'justin definitely need barbie someone inform shes aisle local toysrus'
p114
aS'anyone happen know individuals companies seeking help media creative currently pretty much anything'
p115
aS'govt role intervene peoples livespeople help peoplepeople create jobs prosperitylet people'
p116
aS'time media steps back know ford needs step away help media circling around alcoholic like vultures doesnt help'
p117
aS'dont need support govt need less intervention govtwe help morebetter less waste'
p118
aS'right support taxing people poverty treating dollars collect respect'
p119
aS'alcoholic thats obvious dont think lynch mentality media helping probably makes drink'
p120
aS'cant post selfie tapes restored itll take years'
p121
aS'taxing less would allow citizens invest consumer dollars promote sustainable growth govt money'
p122
aS'council already control ford 1vote shut council trying publicity'
p123
aS'charity boxing match ford justin would lineups'
p124
aS'magazine kathleen bias take grain salt voters decide best'
p125
aS'better less interruption education around strike'
p126
aS'years become province huge dept bills time canada'
p127
aS'apple support 18002633394'
p128
aS'good article anthony govt aware voters tired games politicians playing'
p129
aS'agree'
p130
aS'caretakers future gens already done enough damage past lets make errors'
p131
aS'need protect kathleen future generations deserve generation sees'
p132
aS'vote really gives power council control respect taxpayer taxpayers hard earned money'
p133
aS'good work also need protection land local land local food'
p134
aS'exactlyvoters vote someone invoters vote someone outits called democracy upto paper union hidden powers decide'
p135
aS'exactly voters vote someone voters vote someone called democracy paper union decide'
p136
aS'tomorrow start hounding camping front homes voters still waiting tape restore'
p137
aS'medias hold govts accountable whether green dont pick choose'
p138
aS'media camp north west city hall billions wasted thereneed answers gets free ride'
p139
aS'malls anywhere'
p140
aS'relief everyone taxpayers deserve relief govt picks chooses called buying votes'
p141
aS'saying adam vaughan rest left support ford propose safe injection site built close home'
p142
aS'thanks randy great'
p143
aS'wonder much money spent trailing fordcameras everywhereplanes staffetcand charges laid direction came someone'
p144
aS'kate lots investigate queens park sometimes impartialmedia'
p145
aS'smitherman admitted drug user ehealth lost ford wasted billions media front door'
p146
aS'compassionate forcing barbers become hair dressers totally different professions idiots'
p147
aS'much business chased away energy policy drinking koolaid'
p148
aS'stupid think voters areafter years rule worse offso taking credit'
p149
aS'ampandreahorwath poll says want election guess kathleen andrea dont care majority think'
p150
aS'creditrelief taxpayer'
p151
aS'public next time holds govt accountable right first time'
p152
aS'true public wasted'
p153
aS'poll says want election guess kathleen andrea dont care majority think'
p154
aS'makes open govt stupid website'
p155
aS'read'
p156
aS'heres good read andrea true open govt democracy'
p157
aS'website make open govt1 vote every years democracy referendum gives voice'
p158
aS'media move north west city hall billions wasted getting free ride'
p159
aS'tapes exist camped door'
p160
aS'idiot energy policy makes pensioners wait evening laundry time'
p161
aS'kathleen take fellow crooks dont look back'
p162
aS'expensive wind electricity sells cheap hydro idiot'
p163
aS'libs waste billions liemedia front doorford drinking issue feeding frenzy'
p164
aS'libs waste billions cp24 front door conservative mayor drinking issue feeding frenzy'
p165
aS'waste billions itmedia leave alonehave drinking issueyet respect taxpayermedia door'
p166
aS'mayor london charged wasted billions still waiting tape restore chase ford'
p167
aS'start sitting doorsteps voters still waiting tape restore'
p168
asS'2013_14'
p169
(lp170
S'leafs negotiations luongo late decided didnt make sense'
p171
asS'2013_22'
p172
(lp173
S'users retweet chance shift code legendary gear krieg borderlands2'
p174
as.