(dp0
S'2013_42'
p1
(lp2
S'site auto changes hard words easier ones showed yesterday'
p3
aS'free today claropdfaccessible reader text speech annotations normally atchat miched'
p4
aS'didnt think look'
p5
aS'skype click call chrome keeps crashing browser'
p6
asS'2013_40'
p7
(lp8
S'pouring kalamazoo glad weather nice askformary'
p9
aS'helping spread word maryfreebed'
p10
aS'shouldnt working presentation'
p11
aS'awesome'
p12
aS'sharing apps reading atk13'
p13
aS'learning twitter great resource atk13'
p14
aS'ummmmm'
p15
aS'atk13 showing tweeps tweet'
p16
aS'thanks sharing cool things youtube atk13 miched'
p17
aS'comparing accessibility options ios6 ios7 atk13 miched kisd conference\xe2\x80\xa6'
p18
aS'sharing great ideas tools flipping classroom atk13 miched'
p19
aS'leading minute speed date atk13'
p20
aS'muskegon showing speed dating atk13'
p21
aS'speed dating atk13 calhoun showing every minutes'
p22
aS'atk13 fortunate quality speakers around state'
p23
aS'hero know lots help coordinating atk13 kudos'
p24
aS'starting listening soothing voice showing atk13'
p25
asS'2013_41'
p26
(lp27
S'milearncamp mimic edcamp platform literacy spin 102613 info miched'
p28
asS'2013_46'
p29
(lp30
S'nothing like word background trying professional another story tell'
p31
aS'thanks julie learned'
p32
aS'agree calling everythingatthebottomofmybagholder live without itthanks'
p33
aS'welcome good week always'
p34
aS'hoping helps know'
p35
aS'sure found today presenting macul14'
p36
aS'determined learn using badges moodle learn thanks angela mdlc13 miched'
p37
aS'glad'
p38
aS'things twittercompliments'
p39
aS'padlet questions reading activity engage students mdlc13 thanks monroe team'
p40
aS'thanks info added twitter presentation withalittlehelpfrommyfriends'
p41
aS'stembite youtube channel first person education videos using google glass mdlc13'
p42
aS'experience google glass mdlc13 awesome'
p43
aS'google glass experience'
p44
aS'ideas learners engagedgamification social networks role teachers mdlc13'
p45
aS'ahhh thrill learning something excited learn next friends macomb mdlc13'
p46
aS'fine tuning twitter presentation mdlc13 miched'
p47
aS'added twitter teachers resource presentation guys awesome things jackson'
p48
aS'avatar creators mdlc13'
p49
aS'wondering howif techniques used game used gamify moodle'
p50
aS'game learning gamify education mdlc13 miched'
p51
aS'linoit corkboard wonderful things mdlc13 mdlc13 miched'
p52
aS'great corkboard stuff mdlc13 miched'
p53
aS'loving linoit corkboard mdlc13 miched'
p54
aS'ways keep track passwords mdlc13'
p55
aS'tech integration event mdlc13 miched'
p56
aS'tools support common core tech person mdlc13 miched'
p57
aS'cant wait tomorrows keynote talking wearable technology mdlc13 miched great keynote today ltclapgt'
p58
aS'using watch phone call cutting edge tech mdlc13 miched'
p59
aS'mean personal discovery mdlc13 miched'
p60
aS'mdlc13 sharing great chats followjoin like edchat miched'
p61
aS'love mdlc13 team showing flexible technology thing team mdlc13'
p62
aS'joining mdlc13 adobeconnect livebythesworddiebythesword'
p63
aS'personalized learning like yodayou info need mdlc13 miched'
p64
aS'check awesomeness fraser schools mdlc13 miched fraserschools'
p65
aS'check important tech trends next years hint cloud computer huge mdlc13'
p66
aS'getting excited mdlc13 harding starting trends tech'
p67
asS'2013_17'
p68
(lp69
S'reg3atc miched interesting article spec students taking smarter balanced assessments'
p70
asS'2013_45'
p71
(lp72
S'inspired help educators tell story attend webinar learn'
p73
asS'2013_26'
p74
(lp75
S'must read white friends miched atchat iste13'
p76
aS'resources creating lessons kids adults based brain research mwli13 miched'
p77
aS'super excited mariale hardiman share brain targeted teaching beautiful holand mwbli13 miched'
p78
aS'listening hardin myla presenting stem session rock'
p79
aS'find helpful'
p80
aS'teachers power change physical construction students brains surely deserves raise mwbli13 miched'
p81
aS'cognitive social emotional parts brain want students info long term memory mwbli13 miched'
p82
aS'reading loud uses different modules brain need identify module help student mwbli13 miched'
p83
aS'taxi drivers bigger hippocampus others mwbli13 miched'
p84
aS'person learning person learning comes action huge implications mwbli13 miched'
p85
aS'already learning midwest brain learning institute christian jernstedt rainy holland mwbli13 miched'
p86
aS'wrapping great learning mwbli13'
p87
aS'good learning wmbli13'
p88
aS'linda jordan wowing crowd brain works mwbli13'
p89
aS'linear thinkers technology changing exponentially hard forecast mwbli13 miched'
p90
aS'makes iphoneipad japan makes device mwbli13 miched'
p91
aS'charles fadel 21st knowledge skills character clear present imperative mwbli13 miched'
p92
aS'looking forward expanding brain brain learning institute today holand mwbli13 miched'
p93
asS'2013_20'
p94
(lp95
S'reg3atc interactive geometry sites grade'
p96
aS'reg3atc football game makes students answer finance make successful plays great peer peer activity'
p97
aS'reg3atc great math interactives include support reading questions loud'
p98
aS'reg3atc interactive activities spelling enter words students play learn'
p99
aS'reg3atc class complete youve dissected something interactive board salmon'
p100
aS'reg3atc check microscope interactive board awesome thankfully tour'
p101
aS'reg3atc download free flash activities early learners interactive boards'
p102
asS'2013_21'
p103
(lp104
S'reg3atc make sure check iboards activity finder interactive learning lessons'
p105
aS'reg3atc great activities interactive board ages'
p106
aS'reg3atc zoos books teachers read students turn pages board'
p107
aS'reg3atc readwritethink another great site interactive activities heres list younger students'
p108
aS'reg3atc kids great assortment interactive whiteboard games education grades'
p109
aS'reg3atc choose several activities teach students time interactive white board'
p110
aS'think miched'
p111
aS'tweet chat future'
p112
aS'thanks link helpful webtools every kind learner reg3atc attidbit'
p113
aS'reg3atc students learn parts speech interactive board using activity sheppard software'
p114
aS'reg3atc coin maddnessaddition interactive board teaching money skills students'
p115
asS'2013_22'
p116
(lp117
S'check list recommended summer reading developed atchat participants tonight good stuff'
p118
aS'great video tutorials'
p119
aS'learned things early literacy workshop apple hosted kresa notes reg3atc macul13 miched'
p120
aS'reg3atc choose names class students names spin fruit machine'
p121
aS'reg3atc applets play educational games class interactive board'
p122
aS'reg3atc choose activity interactive board science math'
p123
aS'mark coppins latest webinar ipads special education 300400 atchat miched reg3atc'
p124
aS'reg3atc great interactive board online drawing program instant replay'
p125
aS'reg3atc work search great interactive activities subject popularity'
p126
asS'2013_23'
p127
(lp128
S'summer plan kinds projects enjoy'
p129
aS'youre welcome friend shared email projects class'
p130
aS'good keep reg3atc miched'
p131
aS'shares thoughts lone specialist reg3atc attidbit'
p132
aS'finger pointing critical mistakes schools make ipadsand correct'
p133
asS'2013_37'
p134
(lp135
S'want freshen list blogs keep track check ritss list blogs mirits miched'
p136
aS'list find mindcraft integrates ccrs mirits miched'
p137
asS'2013_36'
p138
(lp139
S'based resource free appsdaily thanks reg3atc aaesa'
p140
aS'want know assistechknow conference kent atchat reg3atc attidbit'
p141
aS'cant find tweets show tweets macul13 miched iste13 atchat reg3atc'
p142
asS'2013_13'
p143
(lp144
S'region3atc need intro accessibility features ipad training mits facilitators guide help'
p145
aS'great resource gwenyth best sharer'
p146
aS'mits region3atc guided access circle parts notes dont want students access mail trash'
p147
aS'mits region3atc uses guided accessmake untouchable apps circling students locked'
p148
aS'mits region3atc want various apps used improve learner outcomes'
p149
aS'mits region3atc manual videos ipad accessibility features available'
p150
aS'macul going midwest brain learning institute'
p151
asS'2013_12'
p152
(lp153
S'infographic role pinterest inside outside classroom smedu'
p154
aS'thinking mobile learning conf good practice going'
p155
aS'leafsnap ipad free cool science identifies leaves scichat macul13'
p156
aS'many advantages connected educator virtual participation conferences'
p157
aS'seen mystery math town trading cards coming april store ipad'
p158
aS'free apps added pinterest board morning great apps primary grades iosedapp'
p159
aS'macul13 educators need market themselvesor said quit dying humble'
p160
aS'macul13 great wiki'
p161
aS'macul13 twitter tutorial comic book form thanks'
p162
aS'macul13 socialnomics video'
p163
aS'many inspirational speakers macul13 going gwyneth jones'
p164
aS'thanks letting ride macul13'
p165
asS'2013_15'
p166
(lp167
S'otsego event provides answers parents need know online world afraid'
p168
aS'dont forget register brain learning institute 4152013 save'
p169
aS'think auras cooler training students keep ipads trigger edapps edtech'
p170
aS'user keep mobile device image whole time aura play codes quick snapshot'
p171
aS'blue2 switch ipad plus chart apps switches reg3atc'
p172
aS'infocus tool works like ipads guided access reg3atc attidbit'
p173
asS'2013_14'
p174
(lp175
S'thanks featured speakers great participants tweets helped learn much info conference macul13'
p176
aS'free today thanks mark copin sending notice reg3atc'
p177
aS'poetry maintain composure ntchat edchat teachchat'
p178
aS'nerdilicious ideas resources macul13 keeps giving thanks'
p179
aS'webinars rock mark coppin coming plus check free attainment region3atc'
p180
aS'macul13 many school board members attended macul conference year'
p181
aS'love director technology wrote article obsolete'
p182
aS'free apps visual working comapp visual'
p183
aS'free today emotion touch choice toca house'
p184
aS'free today click talk talkn photos mathpro math trainer'
p185
aS'apps free month april autism cool'
p186
aS'watch free reduced apps world autism awareness'
p187
asS'2013_31'
p188
(lp189
S'student need remediation must also grade level material especially know stuff srti'
p190
aS'kids need access essential grade level standards mike mattos srti'
p191
aS'send helping students behind srti'
p192
aS'hurray educators grand rapids ready change system srti'
p193
aS'kids arent failing teachers arent working hard enough teachers cant alone need change system srti'
p194
asS'2013_16'
p195
(lp196
S'want students work share family loose leaves tool reg3atc attidbit'
p197
asS'2013_19'
p198
(lp199
S'reg3atc great activities students special needs interactive board'
p200
aS'reg3atc check interactives goodwill teach students life money skills'
p201
aS'great time tweeps maculmlc'
p202
aS'good stuff things googlefy classroom reg3atc'
p203
aS'losing blog great stuff reg3atc'
p204
aS'good maculmlc mlc13 today looking handouts since cant attend session'
p205
aS'apps tell story presentation slides resources macul maculmlc'
p206
aS''
p207
aS'join open learning community creating apps edmodojoin group otj28q maculmlc'
p208
aS'stretched brain maculmlc'
p209
aS'shared making ipad nearly impossible truth hurts solution apps posting link handout soon maculmlc'
p210
aS'hmmm learn create apps prepare presentation nobrainer maculmlc'
p211
aS'great idea codes book cover video book review read outloud book maculmlc'
p212
aS'foto babble create screencast voice lots uses special josh bridges maculmlc'
p213
aS'collage easily combine pics text creat timeline flyers math writing lessons maculmlc mlc13'
p214
aS'wondering josh bridges tweetslooking forward ipads create content session maculmlc'
p215
aS'reg3atc recipe learning take interactive white board student special needspoof'
p216
aS'official conference hashtag 2013 mobile learning conference maculmlc mlc13'
p217
aS'twitter presentation ready mobile learning conference mlc13 includes singalong'
p218
aS'read todays stories'
p219
aS'tried paperli tweets content newspaper paper update weeklypeople subscribe'
p220
aS'warming twitter account mlc13 learning begin'
p221
aS'reg3atc succeeding science gets students excited interactive activities ages yearsadults'
p222
aS'reg3atc childrens university manchester interactive ways learn science theres sound'
p223
aS'reg3atc ways learn ancient egypt greece black history interactive white board'
p224
aS'reg3atc early learning activities like letters shapes work great interactive white board'
p225
asS'2013_18'
p226
(lp227
S'reg3atc ways work story comprehension interactive white board'
p228
aS'reg3atc choose social studies interactive national geographic interactive white board'
p229
aS'free webinar chrome bookshare help students print disabilities read'
p230
aS'reg3atc students designing cell phone replacement surgery'
p231
aS'reg3atc gamegoo works great interactive white board content grade'
p232
aS'reg3atc sharing cool interactive white board activities everyday ready starfalls calendar'
p233
asS'2013_33'
p234
(lp235
S'absolutely cant wait'
p236
aS'thanks letting practice exemplary science aaesa'
p237
aS'grabbing cloud daphnia observe microscope aaesa'
p238
aS'using daphnia explore effects alcohol aaesa'
p239
aS'hands aaesa'
p240
aS'andel education institute showing allegan admins quality science instruction aaesa'
p241
aS'talking brained based learning linda jordon today allegan'
p242
aS'vine croakit share student work zetacon'
p243
aS'great resource elementary ipads zetacon'
p244
aS'another great resource zetacon'
p245
aS'resources nearpod session resource itunesu flipping'
p246
aS'great resource flipping itunesu zetacon'
p247
aS'share resources session great resource itunesu flipping youre interested'
p248
aS'thanks'
p249
aS'samr related starbucks coffee video thanks zetacon'
p250
aS'samr related starbucks coffee video thanks'
p251
aS'example redefinition tech samr zetacon'
p252
aS'samr info using tech enhance learning'
p253
aS'pull lists next month find tweets today zetacon msctech13'
p254
aS'asked answered thanks anthony'
p255
aS'good place find widgets ibook creation zetacon'
p256
aS'widgets ibooks send student responses directly email great idea session zetacon'
p257
aS'take teaching world zetacon slides room miched flippedclassroom'
p258
aS'followship underrated zetacon'
p259
aS'lets beyond interested zetacon'
p260
aS'going highest form responsibility isbut nmzetacon'
p261
aS'hoping free'
p262
aS'zeta conference rocksliterally starting great music zetacon'
p263
as.