(dp0
S'2013_42'
p1
(lp2
S'maccys pancakes though'
p3
aS''
p4
aS'yeah'
p5
aS'literally cant bothered move'
p6
aS'deadest walk home peafield'
p7
aS'heeey'
p8
aS'bought graces'
p9
aS'jules gone surprised reeses'
p10
aS'bored fuck'
p11
aS'constantly tired'
p12
ag4
aS'bored'
p13
aS'dont know whats wrong recently'
p14
aS'booth making write'
p15
aS'emotional'
p16
aS'strawberry lucozade doesnt taste anything'
p17
ag4
asS'2013_43'
p18
(lp19
S'miss'
p20
ag4
aS'happy birthday wanker'
p21
aS'tired'
p22
aS'grace fucking gassed'
p23
aS'disclosure latch loick essien sick'
p24
aS'miguel something else\xf0\x9f\x99\x8c'
p25
aS'looove time night\xf0\x9f\x91\x8c\xf0\x9f\x99\x8c'
p26
aS'congratulations manors richardson elected deputy youth mayor'
p27
aS'never'
p28
aS'apologize myatt'
p29
aS'need start seeing friends miss many people'
p30
aS'episode family much'
p31
aS'myatt knows'
p32
aS'sleeping double mattress bedroom floor cause comfier'
p33
aS'account told told unlike hahahaha'
p34
aS'bored'
p35
asS'2013_40'
p36
(lp37
S'fucked'
p38
aS'dont even know'
p39
aS'need sleep'
p40
aS'tired'
p41
aS'know killing'
p42
aS'bring'
p43
aS'whys'
p44
aS'grace'
p45
aS'hiya'
p46
aS'gassed'
p47
aS'definitely getting bike older'
p48
aS'becky told hard could'
p49
aS'dont mind free house'
p50
asS'2013_41'
p51
(lp52
S'stop'
p53
aS'cant believe gonna another little brother tomorrow'
p54
aS'soooo annoyed'
p55
aS'green noodle'
p56
aS'bored'
p57
aS'spent pounds make'
p58
aS'fuck'
p59
aS'family'
p60
aS'zzzzzzz'
p61
aS'toby carvery'
p62
aS'probably sleep'
p63
aS'bored'
p64
aS'jennifer hudson spotlight fucking banger'
p65
aS'yeah cool room though'
p66
aS'hahaha pretty pink'
p67
aS'peng cuppa'
p68
aS'bathroom quilt wrapped round rubbing brookes fucking back caught sickness birthday loool'
p69
aS'drop text'
p70
aS'famdawg'
p71
aS'happy birthday'
p72
aS'cant believe nine today happy'
p73
aS'family'
p74
aS'pahahahaha'
p75
ag4
aS'hahahaha literally thought someone trying house downstairs window cleaner lool'
p76
aS'cheeky sexonthebeach'
p77
aS'lool mans puffing ting'
p78
aS'whats saying'
p79
asS'2013_46'
p80
(lp81
S'birthday days'
p82
ag4
aS'yawn'
p83
aS'josh pretending hair really'
p84
aS'like turd'
p85
aS'feel like heads gonna explode'
p86
aS'tired'
p87
aS'nothing worse missing someone'
p88
aS'need nandos'
p89
aS'thinking'
p90
aS'good lovin feel numb'
p91
aS'made heart tell'
p92
aS'lost words'
p93
aS'hahahahaha'
p94
aS'loooooool'
p95
aS'chill'
p96
aS'diddy meek blackbottleboys'
p97
aS'forgiving easy forgetting hardest part'
p98
asS'2013_47'
p99
(lp100
S'thanks haha'
p101
aS'meisha funny fuck'
p102
aS'happy birthday'
p103
aS'happy birthday enjoy'
p104
aS'happy birthday'
p105
aS'happy birthday hardnut'
p106
aS'happy birthdayx'
p107
aS'happy birthday babe'
p108
aS'happy birthday xxxx'
p109
aS'happy birthday'
p110
aS'happy birthday'
p111
aS'happy birthday'
p112
aS'happy birthday'
p113
aS'happy birthday'
p114
aS'happy birthday'
p115
aS'happy birthday'
p116
aS'happy birthday'
p117
aS'happy birthday'
p118
aS'happy birthday mate'
p119
aS'happy birthday'
p120
aS'happy birthday hope good'
p121
aS'happy birthday imoxx'
p122
aS'happy birthday'
p123
aS'happy birthday'
p124
aS'happy birthday'
p125
aS'happy birthday'
p126
aS'happy birthday'
p127
aS'happy birthday\xf0\x9f\x92\x9c'
p128
aS'happy birthday\xf0\x9f\x92\x9c'
p129
aS'happy birthday\xf0\x9f\x92\x9b'
p130
aS'happy birthday\xf0\x9f\x92\x95'
p131
aS'happy birthday'
p132
aS'happy birthday'
p133
aS'happy birthday xxxx'
p134
aS'happy birthday'
p135
aS'happy birthdayy\xf0\x9f\x8e\x89\xf0\x9f\x92\x9c xxxxx'
p136
aS'happy birthday babe'
p137
aS'happy birthday'
p138
aS'happy birthday imogen'
p139
aS'happy birthday'
p140
aS'happy birthday gorg hope lovely'
p141
aS'happy birthday xxxx'
p142
aS'happy birthday good'
p143
aS'happy birthday'
p144
aS'happy birthday'
p145
aS'happy birthday'
p146
aS'happy birthday gally'
p147
aS'happy birthday head'
p148
aS'happy birthday sexy good later\xf0\x9f\x98\x8f\xf0\x9f\x92\x95\xf0\x9f\x92\x95\xf0\x9f\x92\x95'
p149
aS'happy 15th birthday beautiful xxxx'
p150
aS'happy birthday'
p151
aS'happy birthday'
p152
aS'birthday bored'
p153
aS'sinner whos probably gonna lord forgive'
p154
aS'thank'
p155
aS'baby'
p156
ag4
aS'turned house'
p157
ag4
aS'birthday'
p158
ag4
aS'dont worry bout dont give fuck'
p159
aS'saying'
p160
ag4
aS'2chinz'
p161
ag4
aS'left'
p162
aS'feel pooey'
p163
aS'heads fucked'
p164
aS'awwww stop'
p165
aS'though'
p166
ag4
aS'releasing bangers'
p167
aS'make remember'
p168
aS'already know'
p169
asS'2013_44'
p170
(lp171
S'love parcels'
p172
aS'chillin main'
p173
aS'drake tickets'
p174
aS'person thank religious person real blessing'
p175
aS'miss giving fucking bollockin grace pahahahahahahahahhaha'
p176
aS'skwl'
p177
aS'woooow head mess'
p178
aS'good loving feel nummmmb'
p179
aS'ladies'
p180
aS'sisters differences'
p181
aS'imma keep grinding nigga tryna rich tell keep fuckin cause shit'
p182
aS'fuck would think bitch tell keep suckin girl dick'
p183
aS'chris brown fucking unreal'
p184
asS'2013_45'
p185
(lp186
S'bare electric fence challenge crappy ending even breathing\xf0\x9f\x98\x82\xf0\x9f\x98\x82\xf0\x9f\x98\x82'
p187
ag4
aS'dont silly'
p188
aS'already know think freshest creps'
p189
aS'chinese'
p190
aS'baby'
p191
aS'feels good'
p192
aS'seen nicest audi wowerzzz'
p193
aS'always trouble'
p194
aS'happy birthday sexy bastard laaaaater'
p195
aS'vote4abi inspirational pahahaha'
p196
aS'ring asap'
p197
aS'nice shower'
p198
aS'aching'
p199
aS'feelin today'
p200
asS'2012_45'
p201
(lp202
S'give second'
p203
aS'love showering right feel clean fresh sheets'
p204
aS'ahaha text'
p205
aS'need sleep'
p206
aS'always tired'
p207
aS'keep real'
p208
aS'made'
p209
aS'proper feelin snow year'
p210
aS'music music music'
p211
aS'watched many times amazing'
p212
aS'lmao shutup richo'
p213
aS'guin'
p214
aS'love'
p215
aS'need shit'
p216
aS'ooooooooooooooo bangin tune'
p217
aS'away lt3lt3lt3 xxxxxxx'
p218
aS'born'
p219
aS'taken reckon'
p220
aS'going argue rather talk'
p221
aS'love inbetweeners must watched every episode atleast times'
p222
aS'love speaking people'
p223
aS'home alone hours bored'
p224
aS'1111'
p225
aS'forget'
p226
ag4
aS'anyone else bored'
p227
aS'wowie dont know aint factor'
p228
aS'love'
p229
aS'dare follow'
p230
aS'still love michael jackson'
p231
aS'know girl'
p232
aS'feel like youve'
p233
aS'babys'
p234
aS'stop please love'
p235
aS'youre perfect'
p236
aS'tell please point going sang badly ridiculous talen'
p237
aS'right soon'
p238
aS'mcdonalds last night tonight'
p239
aS'krushem snackbox chicken food'
p240
aS'follow girl guess shes okay'
p241
aS'money everything'
p242
aS'stay positive'
p243
ag4
aS'dont mind'
p244
aS'aint coming'
p245
aS'safe'
p246
aS'lmao guess'
p247
aS'dont really reason lool'
p248
aS'noooo haha yeah'
p249
aS'cant hack'
p250
aS'whattt thats serious'
p251
ag4
aS'decisions'
p252
aS'want maccies'
p253
aS'films hahaha'
p254
ag4
aS'doccin station stuff'
p255
aS'called baby girl'
p256
aS'hospital'
p257
aS'awwwwww'
p258
aS'abouttopop'
p259
ag4
aS'started eating popcorn cant stop'
p260
aS'melted chocolate'
p261
aS'okay haha'
p262
aS'seriously getting pissed amount times seenread mice fuckofflenny curleyswifeisaslag'
p263
aS'check thanks'
p264
aS'decent films'
p265
aS'aite'
p266
aS'arent skwl'
p267
aS'feed pony'
p268
aS'gotta love chris brown'
p269
aS'bored'
p270
aS'relationship important relationship'
p271
aS'gonna throw clock wall minute'
p272
aS'always horny'
p273
ag4
aS'thats true avin watching factor ipod touch repeat touch ahah'
p274
aS'funnyyyy urlaying typin away phone keepin awake'
p275
aS'mine sleepovers becoming regular thing'
p276
aS'sooo snug'
p277
aS'tongue piercings disgusting'
p278
aS'youre ruining'
p279
aS'would come room walk close door behind'
p280
aS'thank'
p281
aS'xxxx'
p282
aS'probs know xxxxx'
p283
aS'nothing seems going right moment'
p284
aS'love girl xxxx'
p285
aS'watched film come crack back please'
p286
aS'gotta pray'
p287
asS'2012_47'
p288
(lp289
S'woops youd'
p290
aS'thanks memories even though werent great'
p291
aS'wish year older'
p292
aS'christopher youre next lump shit'
p293
aS'rylan mate come'
p294
aS'hyper hahahahahah'
p295
aS'need stop saying stuff dont mean notwotuwant sortursenout getagrip'
p296
aS'layed laffin random stuff isnt funny'
p297
aS'okay baby'
p298
aS'sudden feel like shit'
p299
aS'love xxxxxxxxx'
p300
aS'enough said aaliyah'
p301
aS'head fucked'
p302
aS'lets'
p303
aS'know'
p304
aS'always thirsty fucking drink mate'
p305
aS'spen'
p306
aS'twatll text'
p307
aS'teeth actually fucked dont even think braces sort fuckers'
p308
aS'done'
p309
aS'hahaha dont'
p310
aS'haha funny'
p311
aS'fuck knows havent seen since last night'
p312
aS'xxxxx'
p313
aS'lips cant wait taste skin'
p314
aS'nice seeing last night babe hahaha'
p315
aS'you\xe2\x80\x99re leaving easier walk away fight really want'
p316
aS'james arthur needs xfactor'
p317
aS'aint thinking though know'
p318
aS'stop jokes please aint funny'
p319
aS'looool keep thinkin'
p320
aS'another absolutely amazing performances baby james arthur hopefully mine'
p321
aS'right'
p322
aS'sooo good'
p323
aS'would happily redo last night hahaha'
p324
aS'somet'
p325
aS'last night fuck'
p326
aS'need sleep need food need drink'
p327
aS'struggling dead'
p328
aS'everything wank'
p329
aS'fuck knows'
p330
aS'thanks girl'
p331
aS'majority life spent notphased'
p332
aS'know gurl'
p333
aS'fucking love'
p334
aS'love adorn'
p335
aS'thought'
p336
aS'today okay guess'
p337
aS'lovin'
p338
aS'birthday'
p339
aS'thanks sweetlt3'
p340
aS'thanks babe xxxxxx'
p341
aS'eden xxxx'
p342
aS'cant wait'
p343
aS'thanks babe hahaha awww love xxxx'
p344
aS'thank love xxxx'
p345
aS'thanks willd'
p346
aS'starving'
p347
aS'thanks harry'
p348
aS'thanks'
p349
aS'thanks'
p350
aS'thank'
p351
aS'thanks babe hahahahah yesss xxxx'
p352
aS'th\xc3\xa1nks babe'
p353
aS'thank love know xxxx'
p354
aS'haha thanks babe'
p355
aS'thanks babes'
p356
aS'thank'
p357
aS'thanks babe'
p358
aS'thanks babe'
p359
aS'thank'
p360
aS'thanks elliot'
p361
aS'fanks'
p362
aS'thank youd xxxx'
p363
aS'thanks babe xxxx'
p364
aS'thanks babe'
p365
aS'thank'
p366
aS'yeahh'
p367
aS'birthday'
p368
aS'head gone'
p369
ag4
aS'fukin twat hahahaha'
p370
aS'awww thank'
p371
aS'tell birthday going fucking wank'
p372
aS'looove water bottleslt3'
p373
aS'birthday tomorrow still nothing'
p374
ag4
aS'frank ocean radio yeahhhh'
p375
aS'yessss'
p376
aS'true'
p377
aS'fuckin love tropicana'
p378
aS'tired'
p379
aS'look came'
p380
aS'shoes'
p381
aS'noones stole left hannahs said didnt want itlll'
p382
aS'weeknd unreal'
p383
aS'shoes'
p384
aS'shots taken amazing photographer'
p385
aS'make absolute tramp fancy walk'
p386
aS'would literally anything made cuppa'
p387
aS'plans birthday'
p388
aS'notts saturday reckon'
p389
aS'geordie shore drip'
p390
aS'world aint gonna month real'
p391
aS'need'
p392
aS'eden said whats twisted knickers loooool'
p393
aS'birthday days aint even cards post'
p394
aS'biggie\xe2\x80\x9d beating motherfuckers like beat tina'
p395
aS'biggie'
p396
aS'absolutely used love avril lavigne girlfriend'
p397
aS'bored'
p398
aS'please stop love'
p399
aS'cant james arthur head obsessed needtogetalife'
p400
aS'wish could record dreams'
p401
aS'absolute cunt'
p402
aS'swaggin braggin'
p403
aS'nooo didnt'
p404
aS'wardle warble told gonna make twatl'
p405
aS'serious havent picture atleast havent called work daniel wheat hotel'
p406
aS'good'
p407
aS'dear text please'
p408
aS'bare ignorance right'
p409
aS'faves'
p410
aS'shit dont like'
p411
aS'justin timberlake'
p412
aS'complaining'
p413
aS'thompson randomly text saying yolo hahahaha'
p414
aS'going demolish chicken dinner'
p415
aS'many shuggs'
p416
aS'voice absolutely ridiculous'
p417
aS'james arthur something special though'
p418
aS'going deaf swear'
p419
aS'allergic fckin'
p420
aS'kitchen side waiting dinner ready'
p421
aS'dont judge'
p422
aS'loool'
p423
aS'whattt hahaha jokes'
p424
aS'fuckin dint kiss something cant resist'
p425
aS'lonnnng'
p426
aS'wont responsibility sign report'
p427
aS'want'
p428
aS'went downstairs took minutes choose film come upstairs disc isnt fucking case'
p429
aS'nooo didnt'
p430
aS'spaz'
p431
aS'well yeah seeing biting legs'
p432
aS'come room annoy'
p433
aS'okay joking whats number'
p434
aS'mess hahahaha life motto fucking idiot'
p435
aS'sket'
p436
aS'wanted happen'
p437
ag4
aS'gonna regret'
p438
aS'reckon gonna watch hills eyes'
p439
aS'thinkin bout forever'
p440
aS'feeling good enough'
p441
ag4
aS'frank ocean stop please'
p442
aS'dont know'
p443
aS'everyone going broadcasts tonight'
p444
aS'thinking shit'
p445
aS'okay'
p446
asS'2012_46'
p447
(lp448
S'twitter ipod fucking shit'
p449
aS'love hearing sick songz'
p450
aS'going sleep'
p451
aS'fucking joking'
p452
aS'whos bottom'
p453
aS'friend requests'
p454
aS'birthday five days'
p455
aS'right fucked dream last night'
p456
aS'cough fuck'
p457
aS'weird going watch twilight'
p458
aS'love frank ocean'
p459
aS'especially watching twilight yesterday'
p460
aS'billys contacts spinnin'
p461
aS'tired cinema wide awake'
p462
aS'frozen'
p463
aS'cinema packed'
p464
aS'fine thank'
p465
aS'hope know youre pushing away'
p466
aS'never know stop'
p467
aS'joke'
p468
aS'going cinema midnight watch breaking dawn part'
p469
aS'right'
p470
aS'hahaha silly'
p471
aS'sure thursday'
p472
aS'worst headache ever'
p473
aS'watched last nights hollyoaks wowww'
p474
aS'obedient'
p475
aS'headache'
p476
aS'friend requests facebook getting hand'
p477
aS'want snow'
p478
aS'dont german'
p479
aS'wanna home'
p480
aS'named'
p481
aS'chelsey names mine clara clit hahaha'
p482
aS'teachers asked extentions today fuck'
p483
aS'wanna back'
p484
ag4
aS'world fucking'
p485
aS'love chillin home'
p486
aS'mark'
p487
aS'joking aswell jokes loooool'
p488
aS'real getting adam side immature'
p489
aS'stop dick'
p490
aS'beautiful'
p491
aS'tell leave alone bruises minute'
p492
aS'allergic pets annoying'
p493
ag4
aS'maths test dragging'
p494
aS'happy'
p495
asS'2013_24'
p496
(lp497
S'loving life lads'
p498
aS'happy fathers miss much wish miss good times never forgotten'
p499
aS'night prayed asked please remove enemies life knew losing friends'
p500
aS'pouring glass water thinking cold fucking scorching never heard someone scream loud'
p501
aS'ballers'
p502
aS'swag'
p503
aS'cant mate'
p504
aS'sooo tired'
p505
aS'rare occasion fancy white person'
p506
aS'gone worse absolutely fucking disgusting'
p507
aS'boooooored'
p508
aS'loool goon'
p509
aS'luke said look scary dont feel mmmmmmhm'
p510
aS'hahahaha thats funny fuck'
p511
aS'dream fucking ridiculously fucked'
p512
aS'want somet decent need something different'
p513
aS'check'
p514
aS'saying'
p515
aS'ohhh times hard yeah making crazy dont give baaaaaby'
p516
aS'lovin yeah'
p517
asS'2013_25'
p518
(lp519
S'know alltalk'
p520
aS'later'
p521
aS'monster usually closes nine sure come'
p522
aS'going'
p523
ag4
aS'later'
p524
aS'bitchin'
p525
aS'cant sleep'
p526
aS'fuckin tears streamin'
p527
aS'bored fuck'
p528
aS'looooool'
p529
aS'cheeky'
p530
ag4
aS'alright good cause every piercing half price sunday monster'
p531
aS'lads'
p532
aS'text back chinese bastard'
p533
ag4
aS'sooo tired'
p534
aS'home fucking drenched weather dead'
p535
aS'annoyed reason'
p536
aS'falads fuck'
p537
aS'tired keep falling back sleep'
p538
aS'mums absolutely sorted costa'
p539
ag4
aS'grapes need'
p540
aS'happy birthday'
p541
aS'laughing theresonlyonejuliepoole'
p542
aS'nope'
p543
ag4
aS'fuck still school uniform'
p544
aS'moon'
p545
aS'moon ahahhaa'
p546
aS'anyone looking late fathers present wanna treat self self tomorrow'
p547
aS'loool'
p548
aS'hahahahahah'
p549
aS'wont long jules2rescue'
p550
aS'would probably help turned love'
p551
aS'loooool thats fucking hilarious julie going crazy'
p552
aS'hahahahaha cant theres water'
p553
aS'ouch'
p554
asS'2013_26'
p555
(lp556
S'bored fucking mind'
p557
aS'miguels rampb dream'
p558
aS'weeknds voice voices cousin always'
p559
aS'feel uncomfortable warm'
p560
aS'boredddd'
p561
aS'regret'
p562
aS'neeeeeded'
p563
aS'yeahhhh good'
p564
aS'fumin'
p565
aS'sure floored bitched'
p566
aS'scrappin'
p567
aS'rate'
p568
aS'dont gstars number'
p569
aS'keep making wrong decisions'
p570
aS'hate boring people'
p571
asS'2013_27'
p572
(lp573
S'hahahahahaha'
p574
aS'hiyaaaaa'
p575
aS'cant fucking boiling'
p576
aS'second'
p577
aS'horrid coming'
p578
aS'arms legs killing'
p579
aS'dont beat'
p580
ag4
aS'mine nicer'
p581
aS'think still'
p582
aS'meadowhall minute later'
p583
aS'dont worry gonna youll'
p584
ag4
ag4
asS'2013_20'
p585
(lp586
S'dead body'
p587
aS'know dont love baaaby'
p588
aS'feeling doesnt matter cause know okayy'
p589
aS'everyone absolute fucking arsehole'
p590
aS'best dreams last nights'
p591
aS'fancy carvery today'
p592
aS'fuck'
p593
aS'feeling like'
p594
aS'need something today'
p595
aS'think conjunctivitis'
p596
aS'grace blessing pizza cookie dough'
p597
ag4
aS'apple juice sorting'
p598
aS'unbelievably tired'
p599
aS'song'
p600
aS'bagged mate goodluck'
p601
aS'happy birthday'
p602
ag4
aS'happy english'
p603
aS'come mine'
p604
aS'want next'
p605
aS'leaveit'
p606
aS'maybe youll realise late'
p607
aS'stop'
p608
aS'annoyig annoying'
p609
aS'attitude gonna paulette give discipline'
p610
aS'fucking weird arent drop text anyway love'
p611
aS'fucking hell thats keeper'
p612
aS'aint received'
p613
aS'annoying'
p614
aS'dont understand people'
p615
aS'send'
p616
aS'dont know whats wrong'
p617
aS'someone getting stabbed head fork stitches gara'
p618
aS'tell want'
p619
aS'nice'
p620
ag4
aS'going anywhere really'
p621
aS'fuck hickman took fucking earphones till fucking friday yourgonnaregretthat'
p622
aS'home'
p623
aS'loool bang video hahaha'
p624
aS'noone understands'
p625
aS'better keep'
p626
aS'head fucked'
p627
asS'2013_21'
p628
(lp629
S'look like snail whos'
p630
aS'shits going daily check tweets'
p631
aS'peng peng lovin yeah'
p632
aS'need stop drinking much lucozade'
p633
aS'watching thats'
p634
aS'sitting chair future throne'
p635
aS'cant explain shit'
p636
aS'music drizzy calmdown'
p637
aS'right'
p638
aS'thats unlucky isnt'
p639
aS'don\xe2\x80\x99t worry bout voice won\xe2\x80\x99t need bitch girl think might used yaaa'
p640
aS'feel year elevens leaving today'
p641
aS'tired'
p642
aS'wanna sleep cant'
p643
aS'imma legs behind head make'
p644
aS'feels good comes natural baby arch back point toes'
p645
aS'cause love youuu need youuu want nobodys going know true'
p646
aS'haha goood song'
p647
aS'lyricalmadness'
p648
aS'love adorn'
p649
aS'lips cant wait taste skin'
p650
aS'baby want want'
p651
aS'would believe said loooove'
p652
aS'night prayed asked could please remove enemies life know started losing friends'
p653
aS'stop lool'
p654
aS'women need attention therefore women complain develop hatred youre blame'
p655
aS'dont mind trey songz either'
p656
aS'drizzy'
p657
aS'ipod treating though drakeguinmad'
p658
aS'shouldnt earlier'
p659
aS'sorry msjackson reaaaaal never meant make daughter'
p660
aS'dont even need'
p661
aS'currently listening taylor swift banger'
p662
aS'fuck sake woke cant believe fell asleep'
p663
ag4
aS'mate'
p664
aS'wont mention'
p665
aS'gonna take cold shower'
p666
aS'thing hate layed fucking boiling literally boiling'
p667
aS'feel'
p668
aS'feeling truly'
p669
aS'hahahahah'
p670
aS'back struggling wouldnt mind'
p671
aS'balling hard since'
p672
aS'funny fuck wont long'
p673
aS'thank next year'
p674
aS'disgusting'
p675
aS'yeah theres food chilling savingitforlater'
p676
aS'hate braces'
p677
ag4
aS'brush teeth something deathbreathe'
p678
asS'2013_22'
p679
(lp680
S'gaytweet'
p681
aS'text'
p682
aS'wish someone would understand'
p683
ag4
aS'becky luke live'
p684
aS'idea thinking'
p685
aS'pissed'
p686
aS'looking family photos lynn'
p687
aS'forgives'
p688
aS'cheekychurch'
p689
aS'girls find attractive dont guys negatively commenting shit lame'
p690
aS'ring asap'
p691
aS'tingz'
p692
aS'person hasnt uploaded photo fucking bath'
p693
aS'sorry whoevers eyes read'
p694
aS'eden fuck twitter'
p695
aS'finally someone call boyyyy\xf0\x9f\x92\x95'
p696
aS'fuck always blame'
p697
aS'gonna someone gives somet'
p698
aS'legend meggaz'
p699
aS'gonna murder meal'
p700
aS'fuck fuck history'
p701
ag4
aS'bored fuck'
p702
aS'literally couldnt worse fucking morons literally bored fuck'
p703
aS'need something'
p704
aS'swear always fall type'
p705
aS'know slut named brooke'
p706
aS'someone speak'
p707
aS'well guess lose'
p708
aS'think still'
p709
aS'dont know happens every time alone swear zone'
p710
aS'probably good idea turn trey songz right'
p711
aS'excuse french'
p712
aS'xxxx'
p713
aS'missing missing'
p714
aS'thankin'
p715
ag4
aS'thanks'
p716
aS'think'
p717
ag4
aS'hahaha'
p718
aS'next time promise'
p719
aS'lads havent'
p720
aS'dead'
p721
aS'give'
p722
aS'time sorted self'
p723
aS'bored fuck'
p724
aS'even still alive'
p725
asS'2013_23'
p726
(lp727
S'physically dont know awake'
p728
aS'less friends less issues'
p729
aS'banger'
p730
aS'lads'
p731
aS'exam'
p732
aS'like yeah yeahhh touch touch give love shes ready ready'
p733
aS'never sleep warm'
p734
aS'snapchat imojep'
p735
aS'tired would understatement needsleep'
p736
aS'youre fucking freak'
p737
aS'question always worth'
p738
aS'fuck never sleep'
p739
aS'love julie'
p740
aS'absolutely sorted'
p741
aS'happy birthday anyway jack safe'
p742
aS'modelling school uniform peng'
p743
aS'yeeeeeeeeah'
p744
aS'need stop showering late'
p745
aS'love crackin back'
p746
aS'fire bars'
p747
aS'jules dont wozza'
p748
aS'gonna another brother'
p749
aS'exam'
p750
aS'need work stop gassing hahaha'
p751
aS'cant believe history exam today notfeelinit'
p752
aS'love banger'
p753
asS'2012_49'
p754
(lp755
S'still havent gone shower'
p756
aS'shower'
p757
aS'lovin life right'
p758
aS'keep going haha'
p759
aS'words cannot describe happy actually supported fucking fancy pants'
p760
aS'actually screaming happy'
p761
aS'james sexy mother fucker'
p762
aS'nervous'
p763
aS'nails already gone'
p764
aS'moment'
p765
aS'hair makeup edens media course work'
p766
aS'gone listen james arthur sing wank fuck\xe2\x80\x9d spaz'
p767
aS'singing lets couldnt better'
p768
aS'fancy james arthur much performance indescribable melting perfection'
p769
aS'hahahahahah'
p770
aS'youre funny hahaha obviously singing think dead'
p771
ag4
aS'obsessed'
p772
aS'jahmene amazing'
p773
aS'indeed'
p774
aS'james gotta'
p775
aS'dont give fuck care james arthur'
p776
aS'sunday dinner happy'
p777
aS'tekin piss'
p778
aS'hahahahahahahahhahhahhahahahaaahahahah'
p779
aS'sexy'
p780
aS'someone come chat'
p781
aS'cant wait sunday dinner long'
p782
aS'fuck lets'
p783
aS'adverts films'
p784
aS'hate adverts'
p785
aS'channel'
p786
aS'thank'
p787
aS'channel'
p788
ag4
aS'gonna food watch best christmas film ever hilarious'
p789
aS'fucking love music'
p790
aS'adorable'
p791
aS'worst last days life things better'
p792
aS'fuck polar express'
p793
aS'fucking shit'
p794
ag4
aS'people need arent'
p795
aS'dont know many times watched unreal'
p796
aS'much love supporters voted tonight thankyou much'
p797
aS'honey worth'
p798
aS'maybe haha'
p799
aS'hmmm'
p800
aS'dont'
p801
aS'miss girl'
p802
aS'dear good well school'
p803
aS'reckon staying'
p804
aS'hahaha boring'
p805
aS'havent left house weekend'
p806
aS'imagine world 21st though well dead really'
p807
aS'wanna christmas tree'
p808
aS'take battery fucking clock stop fucking ticking noone gives fuck time'
p809
aS'ring finger jimmies feet jeans back lingerie sheets'
p810
aS'sooo sexy'
p811
ag4
aS'hard times'
p812
aS'forcing need hard'
p813
aS'love like brother treat like friend respect like lover'
p814
aS'wank weekend actual shit'
p815
aS'miss things'
p816
aS'jammin kanye'
p817
aS'face'
p818
ag4
aS'fuck miss'
p819
aS'feeling chest baby feelin stress depressed'
p820
aS'cutie'
p821
aS'sooooo happy'
p822
aS'take baby'
p823
ag4
aS'james arthur'
p824
aS'shes weird fuck'
p825
aS'awks'
p826
aS'tweet awks'
p827
aS'cant hack'
p828
aS'absolutely unreal'
p829
aS'absolutely unreal hahdfjfhehdhde words cant describe unbelievable'
p830
aS'awww'
p831
aS'boss'
p832
aS'chris lovin'
p833
aS'james arthurs sleeve tattoos turn'
p834
aS'whatever happens youll still biggest thing happened 2012'
p835
aS'james arthur asdfghjgdfjnibfqewiubfhiuaejfklaegbiuqxhrncbwoaiegfo 8ehgwhkfjhguiyaedshbcvkzdsjgfizewabgcfiuagsydkfuzersuoghfwjegfvdhfvk'
p836
aS'actually watching factor final life doesnt much better'
p837
aS'fuckin owned james'
p838
aS'james arthur'
p839
aS'sooo excited jamesarthurtowin'
p840
aS'shit'
p841
aS'sister cute'
p842
aS'hungry'
p843
aS'parents unfair'
p844
aS'fuck'
p845
aS'excited perform youre already winner eyes xxxxxxxx'
p846
aS'music loud ipod falling hahahaaha'
p847
aS'music loud right'
p848
aS'home alone'
p849
aS'bored fuck'
p850
aS'imyyyyyyyyy'
p851
aS'dont talking someone everyday literally nothing'
p852
aS'love song'
p853
aS'tell practising'
p854
aS'good torture film'
p855
ag4
aS'first'
p856
aS'long'
p857
aS'need house'
p858
aS'angry'
p859
aS'thank reading tweet dishbsdusdbs youre amazing xxxxx'
p860
aS'cant trust noone'
p861
aS'sing humpty dumpty now1 live'
p862
aS'sing humpty dumpty jake live'
p863
aS'sing humpty dumpty please live'
p864
aS'sing humpty dumpty live'
p865
aS'songs little jenny humpty dumpty cover higher lovelt3 live'
p866
aS'read tweet twitcam'
p867
aS'gorgeous thank reading tweet xxxxxxxxxxxxxxx live'
p868
aS'tell love live'
p869
aS'thank much reading tweet tell love live'
p870
aS'fancy live'
p871
aS'fancy live'
p872
aS'retweet please'
p873
aS'notice'
p874
aS'sing'
p875
aS'twitcam'
p876
aS'stuck school people city situations everyday theres escape'
p877
aS'feelin'
p878
aS'mood already'
p879
aS'first time happy ages good mood'
p880
aS'used around playground dick'
p881
ag4
aS'showed unreal'
p882
aS'youre cringey'
p883
aS'went primary like years'
p884
aS'cracking back heaven'
p885
aS'okay hahaha'
p886
aS'jonothan right'
p887
ag4
aS'miguel adorn'
p888
aS'bored'
p889
aS'thats shit dont like'
p890
aS'asking twos know dont like'
p891
aS'thank ebay'
p892
aS'definately crush bruno mars'
p893
aS'fuck knows without ipod music'
p894
aS'give love'
p895
aS'actually miss many people unreal would anything back'
p896
aS'nothing ever turns expect'
p897
aS'annoyed'
p898
aS'determined make next year good year worst\xe2\x80\x9d'
p899
aS'relationship would great'
p900
aS'track listing album order guys'
p901
aS'crums'
p902
aS'another ship airmax country worth though'
p903
aS'tropicana sorting would prefer lucozade though'
p904
aS'gonna stay'
p905
ag4
aS'yeah thats right doin'
p906
aS'need hobby'
p907
aS'brooke today shes bare butts angin'
p908
aS'hehe'
p909
aS'freezing though'
p910
aS'absolutely freezing'
p911
aS'thinkin bout forever'
p912
aS'chilled'
p913
aS'prefer company anyone elses company'
p914
aS'definitely pulled muscle'
p915
aS'days'
p916
aS'cheese next time ungrateful twat'
p917
aS'dinner served waiting dont call ramsay reason'
p918
aS'realised dont even advent calender'
p919
aS'babe miss hard'
p920
aS'wish asleep right'
p921
aS'soooo bored'
p922
aS'think'
p923
aS'hahaha idiot'
p924
aS'pulled muscle arse cheek'
p925
aS'love shit'
p926
aS'spend time putting sudocrem face'
p927
aS'think straight'
p928
aS'straightening hair time'
p929
aS'saying ldubk offbjtvhryyter lniem'
p930
aS'hahaha'
p931
ag4
aS'fckin'
p932
aS'gonna gulp energy drink need good mood'
p933
aS'ipod sleep must'
p934
aS'thank told know'
p935
aS'okay mate'
p936
aS'course'
p937
aS'dear'
p938
aS'checking phone constantly particular person messaged'
p939
aS'sometimes wish still went church'
p940
aS'fuck people everything shut fuck annoying fucking twats'
p941
aS'wait'
p942
aS'swear speaks wants something'
p943
aS'tiredness badweek'
p944
aS'bored'
p945
aS'music powerful change mood matter seconds'
p946
aS'funnyyyy'
p947
aS'fuckin shit like'
p948
aS'killed'
p949
aS'leggings uggs'
p950
aS'stand sight'
p951
aS'dont come back'
p952
aS'fuck history fucking boring fuck take'
p953
aS'love cracking back'
p954
aS'woke still tired'
p955
aS'cuddling sissy always makes feel better'
p956
ag4
aS'tired tired tired'
p957
aS'thanks mate'
p958
aS'happy birthday georgia xxxxx'
p959
aS'wanna come'
p960
aS'wanna home'
p961
aS'useless everything'
p962
aS'piss'
p963
aS'cant sleep shock'
p964
aS'wish would dont give fuck'
p965
aS'thanks mate'
p966
aS'nervous feeling belly dont know whys'
p967
aS'know mood'
p968
aS'love getting unexpected texts'
p969
aS'never ever sleep days need early night'
p970
aS'fancy james arthur'
p971
aS'childhoodmemories purposely snapping pencil going sharpen mate'
p972
aS'hollys hair soooo bright'
p973
aS'well thick fuck'
p974
aS'chose history dont'
p975
aS'baby'
p976
ag4
aS'swear always sisters theyre bathroom whilst bath'
p977
aS'word'
p978
aS'disgusting hahaha'
p979
aS'miss bare people'
p980
aS'tired effort move head forward lean bowl therefore spilt soup'
p981
aS'whenever brooke trumps always blames bella hahaha'
p982
aS'hahahaha'
p983
aS'still school never mind college lmao'
p984
aS'hahaha dont'
p985
aS'weird tell whos walking upstairs cant'
p986
ag4
aS'much homework much effort'
p987
aS'ignorance suck dick'
p988
aS'nearly home'
p989
aS'devil inside'
p990
ag4
aS'good'
p991
aS'pillow quilt'
p992
aS'cant wont move'
p993
aS'good idea even better didnt sleep people'
p994
aS'hahaha'
p995
aS'gets worse'
p996
aS'stupidly tired'
p997
aS'feel stoned tired'
p998
aS'immature cant though'
p999
aS'sometimes feel'
p1000
aS'morgan chelsey absolute freaks'
p1001
ag4
aS'sure'
p1002
aS'keep strong babe youre amazing xxxxx'
p1003
aS'gonna fucked morning'
p1004
aS'absolute waste time'
p1005
aS'please dont judge wont judge'
p1006
asS'2013_28'
p1007
(lp1008
S'fuck'
p1009
aS'feeling lowage'
p1010
aS'happy birthday'
p1011
aS'luke sprint earlier cause huge jacket'
p1012
aS'water forward weather'
p1013
aS'neighbours maserati literally nice'
p1014
aS'sigh'
p1015
aS'want holiday break fucking arseholes round'
p1016
aS'getting tomorrow'
p1017
aS'fine honestly'
p1018
aS'yeah'
p1019
aS'downer'
p1020
aS'listening right songs'
p1021
aS'make feel like living teenage dream turn'
p1022
aS'today stats followers unfollower'
p1023
aS'funking tired understatement'
p1024
aS'absolutely shattered'
p1025
aS'ganja farmer better hide marijuana'
p1026
aS'today days'
p1027
aS'feel pooey'
p1028
aS'bored feeling like'
p1029
aS'baby baby baby ooooh'
p1030
asS'2013_29'
p1031
(lp1032
S'feel sorry next person little thing wrong argh'
p1033
aS'head gonna fucking blow minute'
p1034
aS'ahaaaaaa'
p1035
aS'never'
p1036
aS'nextyear'
p1037
aS'attitude right'
p1038
aS'course hahahaha goooon'
p1039
aS'house hiding'
p1040
aS'gooooood'
p1041
ag4
aS'love cheeky fruit salad'
p1042
aS'loooool'
p1043
aS'literally laughing'
p1044
aS'fucking hilarious'
p1045
aS'cant feel anything sadness'
p1046
aS'best nothing emotional lads heartbroke matt green stag yellows coys missyou'
p1047
aS'smyth banger find youtube'
p1048
aS'absolute banger'
p1049
aS'teenagedream'
p1050
aS'choon'
p1051
aS'good shout banging right'
p1052
aS'arrr thanks smythe doctor'
p1053
aS'seen gotta love lads yellows missingyou'
p1054
aS'today stats followers unfollowers'
p1055
aS'never felt life'
p1056
asS'2012_48'
p1057
(lp1058
S'someone didnt expect'
p1059
aS'ipod always dead time gotta wait charge'
p1060
aS'tired'
p1061
aS'hate girls dumb'
p1062
aS'didnt even watch factor tonight everyones tweets'
p1063
aS'already knew gonna make proud next week baby xxxx'
p1064
aS'worst belly ache ever ever ever'
p1065
aS'sisters give best advice genuinely duno without'
p1066
aS'awwwwww thanks babi xxxx'
p1067
aS'fucked around time'
p1068
aS'feel like absolute fucking shit'
p1069
ag4
aS'unreal'
p1070
aS'absolutely frozen'
p1071
aS'awks'
p1072
aS'shut fuck bitch'
p1073
aS'awks'
p1074
aS'awks'
p1075
aS'girl awks'
p1076
aS'morning baby'
p1077
aS'lastnights performance replay'
p1078
aS'peppa whilst waiting spongebob come back carried away missed spongebob'
p1079
aS'best episode spongebob'
p1080
aS'bored already'
p1081
aS'sleep'
p1082
aS'fuck'
p1083
aS'weird'
p1084
aS'give gonna tweet 100000 times tomorrow prepared baby'
p1085
aS'right come notice'
p1086
aS'fault love much think youre amazing please notice'
p1087
aS'going'
p1088
aS'notice love'
p1089
aS'love please retweet'
p1090
aS'singing power love absolutely world words cant describe much love amazing'
p1091
aS'love retweeted aswell love unreal'
p1092
aS'notice tweeted many times love much'
p1093
aS'retweet everyone else love'
p1094
aS'sleep'
p1095
aS'bein nice actually gets'
p1096
aS'tired'
p1097
aS'repeat'
p1098
aS'right cant hack'
p1099
aS'funny youre trying conversation someone thats drunk'
p1100
aS'beggin'
p1101
aS'someone text inbox anything'
p1102
aS'dude'
p1103
aS'please stop unreal'
p1104
aS'outstanding performance james lets hope second good love'
p1105
aS'thompson chris reminds local singer'
p1106
aS'people dont like union everyone else opinion theyre alright'
p1107
aS'bored'
p1108
aS'honesty think youre absolute spaz'
p1109
aS'screaming jelly babies'
p1110
aS'smile'
p1111
aS'anticipation killing'
p1112
aS'dont trust many people'
p1113
ag4
aS'small nips'
p1114
aS'want taste lips allow'
p1115
aS'snuggled best thing'
p1116
aS'miss says emily charlotte youre annoying want shoot face'
p1117
ag4
aS'neeeeeded sleep'
p1118
aS'please forgive'
p1119
aS'admit totally order really didnt mean truly sorry hope accept apology'
p1120
aS'hahahahahaha diecasper'
p1121
aS'whats happening casper'
p1122
aS'think time early night'
p1123
aS'nice'
p1124
aS'shower best nice'
p1125
aS'people closest hurt'
p1126
aS'cant stand people copy'
p1127
aS'dont feel good enough anybody anything anyone'
p1128
aS'cuddles bella'
p1129
aS'seen trainers internet earlier'
p1130
aS'room needs tidying'
p1131
aS'waiting around nothing'
p1132
ag4
aS'wait'
p1133
aS'friends become strangers'
p1134
aS'make remember'
p1135
ag4
aS'need pierced'
p1136
aS'someone help'
p1137
aS'fuckk miss'
p1138
aS'frank ocean frank ocean frank ocean'
p1139
aS'soooo purchasing saturday'
p1140
aS'need trainers'
p1141
ag4
aS'poor full liqour dive'
p1142
aS'could scared death bitch already gone'
p1143
aS'yall follow chill'
p1144
aS'cant even hold bella five minutes without someone else asking'
p1145
aS'woman still looking beautiful ever'
p1146
aS'baby'
p1147
aS'something aint right'
p1148
aS'dont know without sisters'
p1149
aS'half eight last night'
p1150
aS'dont know without sisters'
p1151
aS'cute'
p1152
aS'little sister makes happy'
p1153
ag4
aS'twitter pretty cool creation'
p1154
aS'dark nights cool people'
p1155
aS'hahahahaha'
p1156
ag4
aS'ring finger jimmies feet jeans back lingerie sheets'
p1157
aS'grip'
p1158
aS'give even though dont love'
p1159
aS'jools holland'
p1160
aS'dont listen jessie voice amazing'
p1161
aS'know know thats jokes hahaha tweet wasnt aimed'
p1162
aS'cannot stop listening'
p1163
aS'genuinely lool'
p1164
aS'people ridiculous tattoos'
p1165
aS'thanks babe'
p1166
aS'annoyed'
p1167
aS'found laptop'
p1168
aS'unfair'
p1169
aS'doooo'
p1170
aS'know'
p1171
aS'might fetch lucozade asda'
p1172
aS'dont wanna dance beat head beat'
p1173
aS'many'
p1174
aS'need girls'
p1175
aS'mwah xxxxx'
p1176
aS'thing guaranteed life death fact'
p1177
aS'arrr thank know goes xxxxxx'
p1178
aS'hate unexplainable moods dont help whole unexplainable mood situation slightest'
p1179
aS'find everything cringey'
p1180
aS'thinking wrote dontgiveafuck hahahhhahaa'
p1181
aS'baby bella gonna soon'
p1182
aS'lips cant wait taste skin'
p1183
aS'mardy people suck dick'
p1184
aS'good mood'
p1185
ag4
aS'miguel repeat'
p1186
aS'bitches aint shit women aint bitches women queens bitches bitches'
p1187
aS'please dont judge wont judge cause could ugly gets beautiful'
p1188
aS'well know'
p1189
aS'dont even know thats annoyed much'
p1190
ag4
aS'lmao even supposed bella shes born'
p1191
aS'wish could'
p1192
aS'doesnt even seem real'
p1193
aS'girl'
p1194
aS'thank much'
p1195
aS'mums labour'
p1196
aS'hungry'
p1197
aS'bored'
p1198
aS'finally pushed edge'
p1199
aS'said many times cant arsed'
p1200
aS'shit happening'
p1201
aS'fuck today fuck week guck month fuck year'
p1202
aS'could anyone even bring self thats'
p1203
aS'people fucking sick'
p1204
aS'isnt time retweeted something love'
p1205
aS'tweeted retweet'
p1206
aS'dont think going anywhere notice'
p1207
aS'youve retweet dont keep waiting baby'
p1208
aS'even dont youre already famous eyes'
p1209
aS'supported'
p1210
aS'yeah lets forget delete couldnt bring self watch'
p1211
aS'shit aloud hospital'
p1212
aS'awake'
p1213
aS'willl'
p1214
aS'sleep little girl'
p1215
aS'love camera room exactly happens sleep scared paranormal shit though'
p1216
aS'dont know dont though'
p1217
aS'best advice'
p1218
aS'confused'
p1219
ag4
aS'hope realizes going school tomoz'
p1220
aS'dont think head take'
p1221
aS'much shit happening'
p1222
aS'unhappy time'
p1223
aS'sorry follow'
p1224
aS'thing hate people blatantly copy'
p1225
aS'wonder youre thinking'
p1226
aS'weird think could possibly holding baby sister tomorrow'
p1227
aS'lindor choccy nice time though'
p1228
aS'fuck school'
p1229
aS'lmao stop embarrassing text'
p1230
aS'want cause next'
p1231
aS'stop habit haha'
p1232
aS'dear spotless'
p1233
aS'people think okay come room make mess noneed outoforder hahhaha'
p1234
aS'hahahaha stupid'
p1235
aS'hahaha especially bears whatever theyre fuckin called'
p1236
aS'adverts youtube right nips'
p1237
aS'food think come round'
p1238
aS'said fuck charlotte texting dont like'
p1239
aS'miss'
p1240
aS'absolute twat'
p1241
ag4
aS'said theres fucking christening excited'
p1242
aS'well inboxing char text hahaha'
p1243
aS'stop texting'
p1244
aS'weird cannot stop thinking'
p1245
aS'fuuuuuuuck'
p1246
aS'judge'
p1247
aS'zone'
p1248
ag4
aS'make like never happened nuffin'
p1249
aS'dont even need love'
p1250
aS'signing twitter think something exciting sign back hahaha'
p1251
aS'trust noone'
p1252
aS'dont need'
p1253
aS'curves beats skinny every time'
p1254
aS'baby bella'
p1255
aS'whats uppy'
p1256
aS'everyday least person asks shaking dont know fucking shake'
p1257
aS'shoving baby back'
p1258
aS'mums induced tomorrow'
p1259
aS'honest spots getting'
p1260
aS'youre want'
p1261
aS'biggest heart heart ever'
p1262
aS'potato chips peng'
p1263
aS'cute'
p1264
aS'sister weird'
p1265
aS'sooo tired'
p1266
aS'much homework'
p1267
aS'happy birthday xxxx'
p1268
aS'battery phone wank'
p1269
aS'daniel bedingfield youre fuckin banger'
p1270
aS'need'
p1271
aS'wanna home'
p1272
aS'always late'
p1273
asS'2013_5'
p1274
(lp1275
g4
aS'yoooo'
p1276
aS'might'
p1277
aS'show deserve allll'
p1278
aS'wanna party'
p1279
aS'give'
p1280
aS'every thug needs asss chick\xe2\x80\x9d'
p1281
aS'suck dick'
p1282
aS'cant wait shower'
p1283
aS'07807200419 text xxxx'
p1284
aS'back xxxx'
p1285
aS'today stats followers unfollowers'
p1286
aS'pissed'
p1287
aS'cant wait till summer'
p1288
aS'gotta love'
p1289
aS'mate love walking'
p1290
aS'better mood'
p1291
aS'want train somewhere different boring round here\xf0\x9f\x98\x9e'
p1292
ag4
aS'angry right'
p1293
aS'wanna'
p1294
aS'well really year'
p1295
ag4
aS'year elevens left bitchy'
p1296
aS'asking dont'
p1297
aS'cringe'
p1298
ag4
aS'whats hard'
p1299
aS'fuck'
p1300
aS'tired'
p1301
aS'07807200419'
p1302
aS'fucking bored'
p1303
aS'talk'
p1304
aS'cant sleep'
p1305
aS'laughing cause song sick'
p1306
aS'deaaaar mate'
p1307
aS'disgusting piece clothing loool'
p1308
aS'something admitting'
p1309
ag4
aS'touch touch'
p1310
aS'maybe'
p1311
aS'mean like yeah'
p1312
aS'anginnn'
p1313
aS'still need onesie aint'
p1314
aS'miguel stop'
p1315
aS'routine'
p1316
aS'every night come cuppa glass orange juice'
p1317
aS'watched american like first time enjoyed'
p1318
aS'hate accidentally liking shit retweeting whatevz'
p1319
aS'naah xxxx'
p1320
aS'come please xxxx'
p1321
aS'thats true saying think'
p1322
aS'dont think wanna lottery would probably make selfish dont satisfaction earning'
p1323
aS'lately feel need real friends around dont clue'
p1324
aS'hope best friend gotta love'
p1325
ag4
aS'harder forget remember'
p1326
aS'sugar puffs nice\xf0\x9f\x98\x8d'
p1327
aS'tonight going slow'
p1328
aS'dont know whats wrong'
p1329
aS'feel lately'
p1330
aS'house warm'
p1331
aS'think still'
p1332
aS'thinkin bout'
p1333
aS'dont even wanna know youve done'
p1334
aS'haha'
p1335
aS'shurrup'
p1336
aS'mama said greatest things life free'
p1337
aS'instagram imojepx'
p1338
aS'love baby'
p1339
aS'need company'
p1340
aS'home alone'
p1341
ag4
aS'babe miss hard'
p1342
aS'okay keep enemies close long know make sure know youre around'
p1343
aS'night prayed asked could please remove enemies life know started losing friends'
p1344
aS'sorry didnt even realise followed'
p1345
aS'could hear loud music right'
p1346
aS'make ring finger jimmies feet jeans back lingerie sheets'
p1347
aS'sweatin'
p1348
aS'absolutely starving deffo wouldnt turn today'
p1349
aS'lips cant wait taste skin'
p1350
aS'tired'
p1351
aS'boys pierced sooooooooo attractive'
p1352
aS'love emotion hahaha llll'
p1353
aS'think actually love miguell'
p1354
aS'phone fucked'
p1355
aS'really pisses channel programmes finishibg'
p1356
ag4
aS'shes gone bought chilli heatwave doritos'
p1357
aS'love walking'
p1358
aS'jezzalt3'
p1359
ag4
aS'warm outside'
p1360
aS'must wrong number'
p1361
ag4
aS'fire sick film'
p1362
aS'asked brooke shes hair interview says gonna pretty employ'
p1363
aS'fuck'
p1364
aS'doesnt make sense'
p1365
aS'pasta cheese sortin'
p1366
aS'youre fucking idiot'
p1367
aS'nopee'
p1368
aS'don\xe2\x80\x99t judge choices don\xe2\x80\x99t understand reasons'
p1369
aS'always regret going school bored fuck'
p1370
aS'muse sick'
p1371
aS'seen advert series geordieshore bosh'
p1372
aS'toast best butter melted peng'
p1373
aS'shattered'
p1374
aS'dont know much algebra know plus equals twooo'
p1375
aS'worriesd'
p1376
aS'hahahahahaha'
p1377
aS'kids head firel sick bastards'
p1378
aS'fucking love bedroom'
p1379
aS'yeah brooke'
p1380
aS'though'
p1381
aS'need shit'
p1382
aS'thanks'
p1383
aS'sick film though'
p1384
aS'sinister fucked'
p1385
aS'youremoreattractiveif dont attractive tweets'
p1386
aS'little brother happy people online xbox live awwwe'
p1387
ag4
aS'sooo joke'
p1388
aS'youaremoreattractiveif focus person'
p1389
aS'dunno made sense'
p1390
aS'brooke still hula hoops eden yeah last packet today though brooke actual hula hoop'
p1391
aS'need want want dont'
p1392
ag4
aS'someone fucking'
p1393
aS'tongue'
p1394
aS'lets onnn'
p1395
aS'give need please imma make'
p1396
aS'boreddd'
p1397
aS'make feel like locked heaveeeeeen'
p1398
ag4
aS'matter think even know crazy'
p1399
aS'needs fucking jacket zippers'
p1400
aS'absolute banger'
p1401
aS'right'
p1402
aS'glad today'
p1403
asS'2013_4'
p1404
(lp1405
S'talk'
p1406
aS'dearrr'
p1407
aS'dont work scrub wash'
p1408
ag4
aS'guin'
p1409
aS'sure probs fell much pain'
p1410
aS'yooooo mine'
p1411
aS'though'
p1412
aS'proper crush neyo'
p1413
aS'dont'
p1414
aS'beyond tired'
p1415
aS'never forget much love drake ever'
p1416
aS'miss'
p1417
aS'haha taking anytime soon sooo painful'
p1418
aS'cant emoji isnt going unless daily check'
p1419
aS'probably wont though guin yesterday'
p1420
aS'hahahahaa thats soooo funny'
p1421
aS'good film'
p1422
aS'dont need'
p1423
aS'thats wrong thing'
p1424
aS'alright'
p1425
aS'coming home'
p1426
aS'happened workin'
p1427
aS'learn mistakes'
p1428
aS'well done mate'
p1429
aS'head lately'
p1430
aS'don\xe2\x80\x99t trust words trust actions'
p1431
aS'love'
p1432
aS'tashas sorting sausage cuppa'
p1433
aS'noone answering phone'
p1434
aS'never broke anything'
p1435
aS'death'
p1436
aS'fell asleep sofa chatting bare shit'
p1437
aS'line crossed'
p1438
aS'fuck sake'
p1439
aS'leave yeah'
p1440
aS'piercing'
p1441
aS'tonight gtgtgtgtgtgt'
p1442
ag4
ag4
aS'music much better music'
p1443
aS'done something funny'
p1444
aS'dont care weekend making sure fuckin fucked brainz'
p1445
aS'dont text back dont expect text rudeignorantfucker'
p1446
aS'mardy people actually make feel sick'
p1447
aS'songs dont mean miss independent shit sick song though'
p1448
aS'death programme deeep'
p1449
aS'songs'
p1450
aS'little bump grind'
p1451
aS'dont nothing wronggg'
p1452
aS'secondaryschoolmemories listening jennie allen coughing full hour half history exam'
p1453
aS'insidedeathrow'
p1454
aS'insidedeathrow'
p1455
aS'hate people move things'
p1456
aS'head arse'
p1457
aS'thought like 11pm'
p1458
aS'thank friday tomorrowgoing time killer'
p1459
aS'step still think cool yeah thats talking'
p1460
aS'sure chicken every night'
p1461
aS'would like'
p1462
aS'bradley stare hour wowee'
p1463
aS'cant ways'
p1464
aS'undressing people youre imagination'
p1465
ag4
aS'hahaha bless'
p1466
aS'thats alright'
p1467
aS'youre'
p1468
aS'woodhouse picked reason haha'
p1469
aS'haha yeahh home'
p1470
aS'home'
p1471
aS'bums'
p1472
ag4
aS'walkin round mansfield fuckin smackheads'
p1473
aS'aite xxxxx'
p1474
aS'sexy'
p1475
aS'swagz'
p1476
aS'chicken rice'
p1477
aS'lmao sooo funny'
p1478
aS'text sent ahahaha'
p1479
aS'easy attached people days easy people aswell'
p1480
aS'fail exam blamin girl every seconds fuckin coughing probz choakin breath'
p1481
aS'thank haha'
p1482
aS'fuckkkkkk exam'
p1483
aS'walkin round woodhouse clothes word freezing'
p1484
aS'today stats followers unfollowers'
p1485
aS'liking routine getting'
p1486
ag4
aS'stripper booty rack like wowwwww'
p1487
aS'shits embarrassing'
p1488
aS'bullshiters thats shit dont like'
p1489
aS'fucking love kanye'
p1490
aS'fuck even chose history option fuck would history even cross mind'
p1491
aS'live today like last'
p1492
aS'connection wank'
p1493
aS'theres much fucking soppy shit twitter actually embarrassing'
p1494
aS'wine dine'
p1495
aS'bare fucked dream'
p1496
asS'2013_7'
p1497
(lp1498
S'haha\xf0\x9f\x98\x81'
p1499
aS'picture aint even'
p1500
aS'soooo joke hahahahaaha'
p1501
aS'whole body'
p1502
aS'might climb'
p1503
aS'looks hungry might shove fingers'
p1504
aS'thats disgusting hahaha'
p1505
aS'cant beat warm heaven thats worst thing ever cold beds best'
p1506
aS'imogens room cosy'
p1507
aS'mums funny hahaha'
p1508
aS'niggas nigga dont feel fuck fake friend real friends'
p1509
aS'joookes going meadowhall'
p1510
aS'gonna take trip mcarthur glen'
p1511
aS'needed'
p1512
aS'nice sleep'
p1513
aS'sooo tired'
p1514
aS'moods shocking'
p1515
aS'actually care thats thing'
p1516
aS'looool'
p1517
ag4
ag4
aS'gonna laugh offff lool'
p1518
aS'much effort'
p1519
aS'even home'
p1520
aS'feel like eyes gonna drop'
p1521
aS'eating food'
p1522
aS'everything good'
p1523
aS'hahaha lovin mine'
p1524
aS'sooo nice'
p1525
aS'anyone ever tells dont like green noodle explode'
p1526
aS'miss'
p1527
aS'fuck valentines'
p1528
aS'like spicy food wish'
p1529
aS'dead walk'
p1530
aS'want neeed'
p1531
aS'today stats followers unfollower'
p1532
aS'angry'
p1533
aS'anyone'
p1534
aS'thank later'
p1535
aS'moaning bout something aint gonna make better'
p1536
aS'shit stay quiet around people dont really know makes easier spazz'
p1537
aS'know took time thought hard make seem'
p1538
ag4
ag4
aS'might wipe phone'
p1539
aS'staring shit past hour'
p1540
aS'worry give fuck'
p1541
aS'someone thought little sisters loooool'
p1542
aS'school dead'
p1543
aS'bath peeps weird mate'
p1544
aS'forever baby'
p1545
aS'dont feel good'
p1546
aS'feel like shit'
p1547
aS'night hear talk coldest story ever told'
p1548
aS'tired girl\xf0\x9f\x98\xb4'
p1549
aS'hahahaah fucking love lesson'
p1550
aS'fucking wank start year loooool'
p1551
aS'thank fuck phones'
p1552
aS'want'
p1553
asS'2013_6'
p1554
(lp1555
S'whenever going diet shit always eating think fucking food'
p1556
aS'different meant something'
p1557
aS'feels like'
p1558
aS'lucozade mate'
p1559
aS'looooooool'
p1560
aS'sooooo piff'
p1561
aS'waaaant'
p1562
aS'getting wanna take clothes'
p1563
aS'gettin take clothes'
p1564
aS'thanks offering cuppa aswell'
p1565
aS'everyone taking photos legs bath'
p1566
aS'finally sorting ipod'
p1567
aS'going'
p1568
aS'fucking hate family'
p1569
aS'loooong'
p1570
aS'tired'
p1571
aS'feel wank whats wrong mood'
p1572
aS'soon head hits pillow gone'
p1573
aS'test want heart well baby theres something need'
p1574
aS'hahaha'
p1575
aS'noooo'
p1576
aS'hahahah'
p1577
aS'hate blunt people'
p1578
aS'right good mood morning'
p1579
aS'actually chat shit time'
p1580
aS'chat bare shit tired'
p1581
aS'irritated'
p1582
aS'sometimes secret find stop searchin'
p1583
ag4
aS'want stay'
p1584
aS'cant handle anymore'
p1585
aS'baby tryna fool'
p1586
aS'fucking feeling like'
p1587
aS'piff'
p1588
aS'dont understand'
p1589
aS'apple juice'
p1590
aS'bacon sandwich speechless'
p1591
asS'2013_1'
p1592
(lp1593
S'mate'
p1594
aS'today stats followers unfollowers'
p1595
aS'cant watch game fucking shit'
p1596
aS'fucking slag'
p1597
aS'wanna watch football xxxxx'
p1598
aS'need someone watch game'
p1599
ag4
aS'yeeah'
p1600
aS'still'
p1601
aS'happy mood'
p1602
aS'hear shouting stairs saying move youre always'
p1603
aS'staying today'
p1604
aS'doesnt even feel like christmas'
p1605
aS'brooke wants lappy anyway'
p1606
aS'nuttin loool'
p1607
aS'okay booo'
p1608
aS'cause love lying love'
p1609
aS'dont things dont mean'
p1610
aS'music mean'
p1611
aS'come skype'
p1612
aS'dont worry thats start mwahahaha xxxx'
p1613
aS'supposed ebony embarrassing'
p1614
aS'still fuckkk'
p1615
aS'becky shut upllll'
p1616
aS'something soon though'
p1617
aS'fuck really gave everyone'
p1618
aS'forgot text'
p1619
aS'excuse'
p1620
aS'everyone tweets shit boring'
p1621
ag4
aS'fuckin love frank ocean'
p1622
aS'wicked games'
p1623
aS'fuck everyone house asleep'
p1624
aS'think time better'
p1625
aS'feel soooooo drained'
p1626
aS'felt ages'
p1627
aS'havent eaten days'
p1628
aS'never felt shit life'
p1629
aS'lool thanks'
p1630
aS'looool themeggaz'
p1631
aS'thanks babi bless hope'
p1632
aS'think dead billy'
p1633
aS'ready pass'
p1634
asS'2013_3'
p1635
(lp1636
S'brookes crying eyes pearl harbour'
p1637
aS'hahaha becky'
p1638
aS'fucking hate ignored'
p1639
aS'hannah lucys youre arent seen'
p1640
aS'dontbothermewhen earphones never ever ever bother earphones'
p1641
ag4
aS'bored'
p1642
aS'annoyed right'
p1643
aS'last days worst'
p1644
aS'home bored fuck'
p1645
aS'thinkin bout'
p1646
aS'every chance imma turn'
p1647
aS'hour half lolz'
p1648
aS'hannah trusts house'
p1649
aS'wanted left asleep'
p1650
aS'changed mind'
p1651
aS'tired theres chicken left know'
p1652
aS'love room hannahs always first'
p1653
aS'bare cute shit hannahs house'
p1654
aS'garden looks like virgin pure untouched'
p1655
aS'hannah cheering hehe'
p1656
ag4
aS'thats'
p1657
aS'need update ipod'
p1658
aS'noodle sandwich bang'
p1659
aS'would without sudocrem'
p1660
aS'howtoreacttoapifftingfollowingyou'
p1661
ag4
aS'talklikeyourbestfriend spazzzzz grits teeth squeezes hands'
p1662
aS'love sooo much'
p1663
aS'music'
p1664
aS'know'
p1665
aS'best friends like brothers sumtymz luverz tell abwt'
p1666
aS'recently wedding married girl whos world believe'
p1667
aS'ignorance thats shit dont like'
p1668
ag4
aS'freezing dont even know writing tweet hands cold'
p1669
aS'gonna'
p1670
aS'need lucozade'
p1671
aS'fucking love funny people'
p1672
aS'gonna wack teacher'
p1673
aS'cant wait home cuppa'
p1674
aS'well'
p1675
aS'okaaay'
p1676
aS'wont come'
p1677
aS'blagging tomorrow'
p1678
aS'love talking people'
p1679
aS'theres mark'
p1680
aS'dads together doesnt miss whilst xbox hahahaha'
p1681
aS'feet soaking'
p1682
asS'2013_2'
p1683
(lp1684
S'film weird'
p1685
aS'actually raging'
p1686
aS'fucking fuming'
p1687
aS'cant fucking trust noone'
p1688
aS'absolutely pissing laughing text text ended many thanks lucys friend imogen hahaha'
p1689
aS'quite happy snowed need though'
p1690
aS'breakfast'
p1691
aS'love'
p1692
aS'want know woke socks never sleep socks'
p1693
ag4
aS'actually horrible feeling like youve noone'
p1694
aS'xxxx'
p1695
aS'fuck think'
p1696
aS'getting bored need something different'
p1697
aS'disappointed'
p1698
aS'always earphones always'
p1699
aS'home raced room brooke wasnt hahahaa'
p1700
aS'love'
p1701
aS'fuckin love music'
p1702
aS'said yeah married maaaaaall'
p1703
aS'cant express feelings bedroom walking going hunny home'
p1704
aS'would even want'
p1705
aS'would wind purpose'
p1706
aS'need hobby constantly fucking shit'
p1707
aS'admit quite scary'
p1708
aS'meant happen'
p1709
aS'good films'
p1710
aS'actually love chilling room'
p1711
aS'mmmmm'
p1712
aS'went shop pick doritos lucozade'
p1713
aS'meeting tonight going kiss face'
p1714
aS'whats'
p1715
aS'wanna'
p1716
aS'annoyed'
p1717
aS'cant ways'
p1718
aS'night'
p1719
aS'hahahaha leave mate'
p1720
aS'layed remembering loads funny times hahahahaha'
p1721
aS'hills eyes mate'
p1722
aS'today stats followers unfollowers'
p1723
aS'loool'
p1724
asS'2013_9'
p1725
(lp1726
S'howcouldyoubesoheartless'
p1727
aS'dontwakemeup fave song'
p1728
aS'cinema packed nahht'
p1729
aS'fuck rank smell'
p1730
ag4
aS'listen batty music bars aint suitable'
p1731
aS'mood today'
p1732
aS'peng'
p1733
ag4
aS'fuck goes sick'
p1734
aS'fucking annoyed'
p1735
aS'wish capable relationship'
p1736
aS'proper shit mood enough'
p1737
aS'excuse james thought girl'
p1738
aS'already'
p1739
aS'fucking wank'
p1740
aS'crashed andrews looool'
p1741
aS'tired'
p1742
aS'hmmmmm'
p1743
asS'2013_8'
p1744
(lp1745
S'done homework gunna think excuses'
p1746
aS'final chapter'
p1747
ag4
aS'talking gasman'
p1748
aS'suck dick'
p1749
aS'youre making hate'
p1750
aS'wait couple months youll never find nobody better'
p1751
aS'think know'
p1752
aS'thats embarrassing meant'
p1753
aS'wearing'
p1754
aS'rather train tracks straight away'
p1755
aS'brace face tomorroww'
p1756
aS'sundays dead'
p1757
aS'doesnt surprise'
p1758
aS'phone call last night morning'
p1759
aS'drink think'
p1760
aS'cherry lucozade'
p1761
aS'anyone wanna chill'
p1762
aS'talk good game girl youve played'
p1763
aS'annoying cant remember dreamt something real'
p1764
aS'quiet'
p1765
aS'people favouriting tweets still aint spoke'
p1766
aS'someone please talk'
p1767
aS'phone fucking spaz'
p1768
aS'people writing shit saying aint changing fuck anyone else supposed know'
p1769
aS'bored tired\xf0\x9f\x98\x95'
p1770
aS'07807200419'
p1771
aS'talkkkkk'
p1772
aS'miss'
p1773
aS'yeahh knowim'
p1774
aS'educated nigga class never classy londonboy chip'
p1775
aS'fuck sooo bored'
p1776
aS'lucozade'
p1777
aS'peng maccies'
p1778
ag4
aS'like drugssssssyeah'
p1779
aS'ignoring phones dead carry convo later baby'
p1780
aS'always tired'
p1781
aS'hungry'
p1782
aS'kanye west runaway'
p1783
ag4
aS'lyrics poor dont compare mine'
p1784
aS'someone better come today mood'
p1785
aS'imma legs behind head make'
p1786
aS'ipods shuffle right bangers coming'
p1787
aS'tired'
p1788
aS'cant seem fall asleep tonight reason'
p1789
aS'lucozade fucking'
p1790
ag4
aS'sandwich\xf0\x9f\x91\x8c'
p1791
aS'chill'
p1792
aS'currently bath burning skin fucking bare effort move'
p1793
aS'love xxxx'
p1794
aS'fucked'
p1795
ag4
aS'tasha mums making fucking sunday dinner telling joke hahah'
p1796
aS'cold'
p1797
aS'tired girrrl'
p1798
aS'nandos'
p1799
aS'notts'
p1800
aS'wrapped toilet roll loooool'
p1801
aS'loooove music'
p1802
ag4
aS'text'
p1803
aS'pierced nipple'
p1804
aS'actually nearly shanked someone'
p1805
aS'beautiful'
p1806
aS'like druuuugs yeah well'
p1807
aS'lips cant wait taste skin'
p1808
aS'beckys airmax nice'
p1809
aS'dropped spaz'
p1810
aS'every penny ever spent maccies definitely worth'
p1811
aS'cant wait food'
p1812
aS'meadow hall'
p1813
aS'text back'
p1814
aS'deal table look like bout like milla shout lawyer contract killa'
p1815
aS'getting money long paper'
p1816
aS'lick night yeah yeahhhhh'
p1817
aS'kiss right yeah yeaaaah'
p1818
aS'wanna take legs wrap round girl cummin right noww'
p1819
asS'2013_17'
p1820
(lp1821
S'might might'
p1822
aS'tell youve taken blackberry'
p1823
aS'sleepinginacoffin'
p1824
ag4
aS'dont come please'
p1825
aS'people weird annoying'
p1826
aS'swear dont wanna hurt nobody'
p1827
aS'real friend blessing'
p1828
aS'feel fresh'
p1829
aS'angry'
p1830
aS'explain later'
p1831
aS'haha welovemrbooth'
p1832
aS'says bible load crap stupid people believe wemustbestupid'
p1833
aS'looks eyes feels like highhhhh'
p1834
aS'love tells needs'
p1835
aS'baby aint scared show freaky side'
p1836
aS'wanna strip'
p1837
aS'arent coming'
p1838
aS'yeah coming'
p1839
ag4
aS'safe'
p1840
aS'fuck'
p1841
aS'drop attitude fuckin drop minute'
p1842
aS'absolute banger'
p1843
aS'woke feeling good'
p1844
aS'dont know whats wrong recently'
p1845
aS'crazy makes happiest make saddest'
p1846
aS'gassin'
p1847
aS'guaranteed shes gonna hotty gheeeze'
p1848
aS'hate bored thinktomuch'
p1849
aS'generally feel like getting drunk'
p1850
aS'loool sure came'
p1851
aS'fresh nigga'
p1852
aS'come house mess like titties dressed like impress like'
p1853
aS'cant wait'
p1854
aS'weird feeling stomach'
p1855
aS'dont know havent sorted whos coming thats tweeted'
p1856
aS'gonna book tickets soon'
p1857
aS'trust every time show shouldnt'
p1858
aS'feelings fuck everything'
p1859
aS'today actually fucking sick'
p1860
aS'buffet kara tori rhys'
p1861
aS'lovinglife'
p1862
aS'weeknd jodie tickling back loving life'
p1863
aS'coach blackpool'
p1864
asS'2012_52'
p1865
(lp1866
S'know right'
p1867
ag4
aS'sweating shivering'
p1868
aS'poorly'
p1869
aS'either focus whats tearing apart whats holding together'
p1870
aS'babes'
p1871
aS'yeah babe feel like death'
p1872
aS'feel'
p1873
aS'actually frozen dont even know writing tweet'
p1874
aS'never cold life'
p1875
aS'gravy'
p1876
aS'fresh'
p1877
aS'would'
p1878
aS'probably time sleep though'
p1879
aS'becky sooooo drunk'
p1880
aS'imos gone'
p1881
aS'wrong people serious taking fucking piss'
p1882
aS'worth'
p1883
aS'cant take much'
p1884
ag4
aS'yeah yeah coming mine anyway'
p1885
aS'fuck knows hahaha dont'
p1886
aS'annoying everyone puts emotions iphones cant'
p1887
aS'amazing minute sleep night'
p1888
aS'moons chill misty ignore'
p1889
aS'sleep'
p1890
aS'absolute death'
p1891
aS'today stats followers unfollowers'
p1892
aS'hate belly ache'
p1893
aS'fuck'
p1894
aS'tempted treat sister'
p1895
aS'meadowhall brooke eden'
p1896
aS'drunk'
p1897
aS'swear chocolate'
p1898
aS'think hasnt opened anything need'
p1899
aS'give love'
p1900
aS'actually happy hols gonna sick bring thursday friday yellowwwwwwwss boys girls smashed'
p1901
aS'want thank'
p1902
ag4
aS'watched jennifers body many times still love'
p1903
aS'dont think made sense'
p1904
aS'hope christmas isnt birthday'
p1905
aS'purchased james arthurs single'
p1906
aS'seen christmas overrated'
p1907
asS'2012_50'
p1908
(lp1909
S'hahahahahha'
p1910
aS'mate think check'
p1911
aS'bond bond hahahahahahaha'
p1912
aS'powercut'
p1913
aS'today chill'
p1914
aS'love'
p1915
aS'cant wait'
p1916
aS'hahahahahhaahahahahahaha give'
p1917
aS'face hahahahaha'
p1918
aS'dear'
p1919
aS'hahahaha doesnt mean'
p1920
aS'taught well loool'
p1921
aS'glad didnt stay'
p1922
aS'delete like ages'
p1923
aS'hahahaha'
p1924
aS'cannot arsed world today'
p1925
aS'fucking bored'
p1926
aS'might town'
p1927
aS'phone fucked'
p1928
aS'thanks loool'
p1929
aS'lets'
p1930
aS'follow xxxxxxxx'
p1931
aS'proper'
p1932
aS'feel wank'
p1933
aS'bored fuck alreadyyy'
p1934
aS'today stats followers unfollowers'
p1935
aS'bored'
p1936
aS'wide awake'
p1937
aS'deciding homework'
p1938
aS'much homework unreal'
p1939
aS'asleep since'
p1940
aS'today stats followers unfollowers'
p1941
aS'please follow'
p1942
aS'need massage'
p1943
aS'thanks'
p1944
aS'loving life right'
p1945
aS'fancy'
p1946
aS'james arthur radio made better already'
p1947
aS'headband look'
p1948
aS'hahaha babi'
p1949
aS'mine hahaha'
p1950
aS'time miss many people wish could back'
p1951
aS'headache'
p1952
aS'doesnt christmas tree'
p1953
aS'starting feel like christmas'
p1954
aS'gotta walk sooo fack knows whenever'
p1955
aS'follow'
p1956
aS'could fall asleep tired'
p1957
aS'everything wank'
p1958
aS'wank mood'
p1959
aS'fucksake bullshit'
p1960
aS'follow please actually begging xxxxxxx'
p1961
aS'keep clicking connect followed obsessed pleasefollowme iloveyou'
p1962
aS'would actually make life followed follow xxxxxxx'
p1963
aS'follow mannnnn must tweeted 100347382843837 times'
p1964
aS'getjamestono1 getjamestono1 getjamestono1 getjamestono1 getjamestono1 getjamestono1 getjamestono1'
p1965
aS'getjamestono1'
p1966
aS'getjamestono1 trend people trend hard jamesarthurhq'
p1967
ag4
aS'guys follow many people next tweet'
p1968
aS'hahahaha follow xxxx'
p1969
aS'think time followed stop playing games xxxxxxxxxxxxxx'
p1970
aS'noonecaresaboutyou'
p1971
aS'cant believe'
p1972
aS'wheres follow amount times tweeted love soooo much youre amazing xxxxxxx'
p1973
aS'actually distraught'
p1974
aS'fuck trainers'
p1975
aS'wouldnt mind cold snow'
p1976
aS'actually frozen think might turn cube'
p1977
aS'love people make laugh'
p1978
aS'worries baby'
p1979
aS'feels like fuck'
p1980
aS'awwww gotta love'
p1981
aS'sure tulisa blasting earphones'
p1982
aS'scared'
p1983
aS'heads took shit'
p1984
asS'2012_51'
p1985
(lp1986
S'option'
p1987
aS'body aching much'
p1988
aS'fuck'
p1989
aS'memories summer'
p1990
aS'love'
p1991
aS'sneaky'
p1992
aS'unreal nothing anymore'
p1993
aS'bring love baby bring shame'
p1994
aS'wish enough'
p1995
aS'boring walk home'
p1996
aS'watching polar express morgy'
p1997
aS'dont worry'
p1998
aS'chippy tonight complaining though'
p1999
aS'need favour'
p2000
aS'1111'
p2001
aS'world jokes getting boring'
p2002
aS'sorted'
p2003
aS'fucked'
p2004
aS'tomorrow'
p2005
aS'sources'
p2006
aS'supposed 1111'
p2007
aS'follow'
p2008
aS'still aint shower'
p2009
aS'seeing cheesy spaghetti brooke decided make themeggas'
p2010
aS'need massage'
p2011
aS'aching'
p2012
aS'supposed take shower like hours still havent moved fuuck'
p2013
aS'know'
p2014
aS'thanks leaving dinner tomorrow'
p2015
aS'never remember dreamt something actually real'
p2016
aS'thanks elliot'
p2017
aS'tell love'
p2018
aS'give even though dont love'
p2019
aS'weird much song remind someone'
p2020
aS'hahaha okay'
p2021
ag4
aS'debating whether phone'
p2022
aS'coat'
p2023
aS'gonna demolish chippy'
p2024
aS'routine everyday need something'
p2025
aS'chainz back dont talk shit facts'
p2026
aS'signal constantly fucking'
p2027
aS'message'
p2028
aS'suck dick'
p2029
ag4
aS'bottle bottle drink overdose'
p2030
aS'dont reply blunt messages'
p2031
aS'meeeeeek mill'
p2032
aS'quoteyourteacher youve come school expect anything'
p2033
aS'quoteyourteacher youre play primary'
p2034
aS'fuckin suckin swallowin anything dollar'
p2035
aS'quoteyourteacher dont worry till'
p2036
aS'quoteyourteacher break time wasting'
p2037
aS'love listening bruno mars locked heaven sooo loud loool'
p2038
aS'could heartless'
p2039
aS'somewhere along road lost soul woman heartless'
p2040
aS'shouldnt mardy bitch'
p2041
aS'awww love imox'
p2042
aS'love babes'
p2043
aS'need hobby'
p2044
aS'spaz'
p2045
aS'girls youre taking'
p2046
aS'always favourite retweet stuff accident'
p2047
aS'night prayed asked could please remove enemies life know started losing friends'
p2048
aS'actually rang police loool'
p2049
aS'yeah living'
p2050
aS'thats aint dead'
p2051
aS'cant wait 2013 fresh start'
p2052
aS'bath'
p2053
aS'lifes shit shit mums shit everythings shit'
p2054
aS'love feel comfortable someone'
p2055
aS'actually making effort anyone anymore'
p2056
aS'made cuppa said thanks loool'
p2057
aS'love spending time'
p2058
aS'brother grown'
p2059
aS'fuck life'
p2060
asS'2013_37'
p2061
(lp2062
S'goes'
p2063
ag4
aS'haha youre bitch cant hack home'
p2064
aS'aite'
p2065
aS'youre welcome though'
p2066
aS'mums energy walk'
p2067
aS'bored'
p2068
aS'aite thanks'
p2069
aS'asda open'
p2070
aS'grace bought bella football hahaha'
p2071
aS'mate'
p2072
aS'cereal bang time tweet bang'
p2073
aS'bored tired anything'
p2074
aS'alright'
p2075
aS'bored head'
p2076
aS'make remember'
p2077
aS'spaz sleep cause went earlier'
p2078
aS'mate think someones tweeting account'
p2079
aS'wonder woman'
p2080
aS'pahahaha'
p2081
aS'done puff loool'
p2082
aS'gotta make read'
p2083
aS'mario love banger'
p2084
aS'cole sick'
p2085
aS'gotta pair black jeans'
p2086
aS'ridiculously tired'
p2087
aS'nottingham'
p2088
aS'cant sleep without'
p2089
aS'looove cold'
p2090
aS'yeah'
p2091
aS'come chill'
p2092
aS'awake'
p2093
aS'tell'
p2094
aS'thinking getting realized hahaha crazy'
p2095
aS'gonna listen kiss land think'
p2096
aS'nothing better pancake'
p2097
aS'funny cause eating'
p2098
asS'2013_36'
p2099
(lp2100
S'need full body massage pieces'
p2101
aS'lucozade reeses'
p2102
aS'fucking'
p2103
aS'lips getting boring'
p2104
aS'gonna nose pierced tomorrow'
p2105
aS'chinese'
p2106
aS'yeah'
p2107
aS'fucking'
p2108
aS'comp fucked'
p2109
aS'aint felt like'
p2110
aS'zzzzzzzzzzzzzzz'
p2111
aS'lost contacts text 07807200419'
p2112
aS'make laugh enjoy company anyone elses always laughin'
p2113
aS'becky hahahahaha'
p2114
aS'everytime dreams face haunting guess need baby'
p2115
aS'right'
p2116
aS'spare time play football garden'
p2117
aS'cereal bang time'
p2118
aS'gravy'
p2119
aS'cant sleeeep'
p2120
aS'chris browns stuff unreaaaaal'
p2121
aS'gonna leave maaan hungry'
p2122
aS'aite'
p2123
aS'haha yeah deffo send picture timetable somehow'
p2124
aS'famdog bout'
p2125
aS'nothin better listening music'
p2126
aS'yeah yeah'
p2127
aS'yeah might dont even number days haha'
p2128
aS'know wont'
p2129
aS'make judge haha'
p2130
aS'yeah yeah'
p2131
aS'amen'
p2132
aS'best pancake maker\xf0\x9f\x98\x8f'
p2133
aS'speechless'
p2134
aS'good back life'
p2135
aS'getting little hand'
p2136
asS'2013_35'
p2137
(lp2138
S'ting'
p2139
aS'happy birthday'
p2140
ag4
aS'fake people suck dick'
p2141
aS'never'
p2142
aS'sexy'
p2143
aS'need food'
p2144
aS'stop gassing youre obviously coming youre snoring youth'
p2145
aS'havent sleep going'
p2146
aS'mums best'
p2147
ag4
aS'amazing woman earth awwww love much'
p2148
ag4
aS'amazing woman earth'
p2149
aS'happy birthday'
p2150
asS'2013_34'
p2151
(lp2152
S'lmao'
p2153
aS'fuck'
p2154
aS'literally loudest weve ever drakey'
p2155
aS'fave album'
p2156
aS'layed listening whole take care'
p2157
aS'starin cause picturing naked'
p2158
aS'lads'
p2159
aS'bitched'
p2160
ag4
ag4
ag4
ag4
aS'turn dead tunes deadestbars'
p2161
aS'layed listening music thinking actually realised'
p2162
aS'funniest nights life looool dont even wanna speak'
p2163
aS'tired'
p2164
aS'soooo joke laughing head'
p2165
aS'everyone talk shit twitter watching fucking programme fuming'
p2166
aS'might'
p2167
aS'really kicking football wall'
p2168
aS'bored'
p2169
aS'ganja farmer'
p2170
aS'ganja farmer\xe2\x80\x9d'
p2171
aS'becky wood genuinely funniest person know'
p2172
aS'cheeky film'
p2173
aS'love cooking family'
p2174
aS'yeah deffo'
p2175
aS'good'
p2176
aS'looooool thats joke'
p2177
aS'cant sleep'
p2178
aS'chilled listening weeknd'
p2179
aS'havent felt like sober'
p2180
aS'havent felt like'
p2181
aS'know'
p2182
ag4
ag4
aS'right hahahhaa'
p2183
aS'soon'
p2184
aS'know'
p2185
aS'hahahahahahahah'
p2186
aS'funny sisters holiday year friend theres'
p2187
aS'definitely gheeze star'
p2188
aS'literally cant decide brain wont'
p2189
aS'dont start'
p2190
aS'snapchat imojep'
p2191
aS'wearing graces dads made think miss toplad'
p2192
aS'struggling'
p2193
aS'sending revolting text messages'
p2194
asS'2013_33'
p2195
(lp2196
S'conjuring'
p2197
aS'realised today nearly everybody fucking arse hole'
p2198
aS'earth going watch conjuring'
p2199
aS'looool'
p2200
aS'whens coming back cause noone'
p2201
aS'best present becky'
p2202
aS'soon'
p2203
aS'walk killed'
p2204
aS'bout mins going ting haha explain'
p2205
aS'home aint home lool tell'
p2206
ag4
aS'first time bellas slept front soooo cute'
p2207
aS'love baby tish xxxxxxxxxxx'
p2208
aS'done wasting time\xe2\x80\x9d'
p2209
aS'everyone absolute cunt'
p2210
aS'back love'
p2211
aS'naughty'
p2212
aS'cant wait gonna shag'
p2213
aS'idiot'
p2214
aS'looool'
p2215
aS'need food'
p2216
aS'absolute filth'
p2217
aS'people take ages reply replying ridiculously fast'
p2218
aS'cant remember last night'
p2219
aS'perfect example song youd love'
p2220
aS'another love'
p2221
aS'always music ridiculously loud'
p2222
aS'yaaaaaay looong'
p2223
aS'back missing'
p2224
ag4
aS'mine best best'
p2225
aS'photography'
p2226
aS'looool hahaha'
p2227
aS'know shes gasman like'
p2228
aS'julies alright text'
p2229
aS'swear mine'
p2230
aS'woke morning absolute bits'
p2231
aS'literally least person sleep mine every night'
p2232
aS'genuinely worst dream ever'
p2233
aS'cant wait little catch james tomorrow'
p2234
aS'need massage'
p2235
aS'dont even know bother'
p2236
aS'aching everywhere wanna home'
p2237
aS'people arseholes'
p2238
aS'guin'
p2239
aS'everyone arsehole'
p2240
aS'today stats followers unfollower followed person'
p2241
aS'walking near samworth yesterday'
p2242
aS'youve parred'
p2243
aS'getting something looks like lying rest holidays'
p2244
aS'never watching conjuring'
p2245
aS'left chars windowscreen hahahahahaa'
p2246
aS'ooooo'
p2247
aS'know star'
p2248
aS'aite'
p2249
ag4
aS'everyway topsupporter'
p2250
aS'look like thug'
p2251
aS'tired'
p2252
aS'earth woke time'
p2253
aS'brookes proper getting yeezus hahaha'
p2254
aS'happy birthday woff'
p2255
aS'speed boat loving'
p2256
asS'2013_32'
p2257
(lp2258
S'actually cant wait lads later little'
p2259
aS'bladdered'
p2260
aS'three things need journey'
p2261
aS'cant sleep'
p2262
aS'love'
p2263
ag4
aS'keep dreaming person time getting weird'
p2264
aS'trust body'
p2265
aS'dead bored'
p2266
aS'tiredest ever knackered'
p2267
aS'worst headache'
p2268
aS'hahahaha'
p2269
aS'chocolate film'
p2270
asS'2013_31'
p2271
(lp2272
S'tired'
p2273
aS'twats'
p2274
aS'fuck comp twats including'
p2275
aS'today stats followers unfollower'
p2276
aS'shattered'
p2277
aS'cant wait loool ganja farmer'
p2278
aS'literally coughing guts'
p2279
aS'laying floor naked cause'
p2280
aS'bored head'
p2281
aS'literally illegal banned infact'
p2282
aS'trey songz always better late night looool'
p2283
aS'yeaaaah fammy'
p2284
aS'know miss'
p2285
aS'lets stop hahahaha'
p2286
aS'getting embarrassing'
p2287
ag4
aS'loool fuck peeeeeeng'
p2288
aS'cant keep eyes open'
p2289
aS'ridiculously tired'
p2290
aS'bought drink inthere'
p2291
aS'today stats followers unfollowers'
p2292
aS'drizzy'
p2293
aS'option'
p2294
aS'women need attention therefore women complain develop hatred youre blame'
p2295
aS'love funny people'
p2296
aS'baby'
p2297
aS'looool funny'
p2298
aS'walk thats talk thats'
p2299
aS'eyes angry'
p2300
aS'looool'
p2301
aS'listening drakey isnt right'
p2302
aS'course'
p2303
aS'happy birthday girlllll xxxx'
p2304
aS'happy birthday babe xxxx'
p2305
aS'loooooool soooo joke'
p2306
aS'talk'
p2307
aS'hope matty green still background'
p2308
aS'awwwww'
p2309
aS'grouded lool'
p2310
aS'yeah took like weeks forgot show think meadowhall haha'
p2311
aS'went shop notts reeses'
p2312
ag4
aS'today stats follower unfollower'
p2313
aS'text names lost everyones number'
p2314
aS'today stats follower unfollowers'
p2315
aS'definately'
p2316
aS'knowing free house making feel sick'
p2317
aS'twisted cause side telling need move side wanna break banger'
p2318
asS'2013_30'
p2319
(lp2320
g4
aS'usher burn absolute banger'
p2321
aS'looool mess funny'
p2322
ag4
aS'dont need anyone doesnt need'
p2323
aS'good shout'
p2324
aS'first'
p2325
aS'cant'
p2326
aS'mood getting absolutely fucking bladdered'
p2327
ag4
aS'nice weather'
p2328
aS'also somebody else banger'
p2329
aS'chris brown give away banger'
p2330
aS'nottingham faaaaam'
p2331
aS'phones broke babe nottingham inbox home xxxx'
p2332
aS'earth awake'
p2333
aS'cant sleep shit'
p2334
aS'everyday wanna shit thats fuck yooooou'
p2335
aS'wanna back freedom take away bullshit rewind truth'
p2336
aS'laptop fones broke gassed'
p2337
aS'youre gasser'
p2338
aS'yeaaaah thats'
p2339
aS'lovin arent'
p2340
aS'sorry whoevers eyes going bored'
p2341
aS'cunts describe people round'
p2342
aS'craaaaaazy well'
p2343
aS'people sooo long'
p2344
aS'loooove taken'
p2345
aS'chris brown blunt'
p2346
aS'earth'
p2347
aS'know mate know'
p2348
aS'dont want'
p2349
aS'speechless please dont ever bring ever'
p2350
aS'okay'
p2351
aS'phones broke'
p2352
aS'going show'
p2353
aS'even listening gassed'
p2354
aS'aloud last weeks finally freedom'
p2355
aS'shut youre fucking gasser stop breather rest'
p2356
aS'stupid everyday weeks sometimes twice heard'
p2357
aS'need stop running heat gettothegym'
p2358
aS'sure keep getting like minute sleep'
p2359
aS'gonna'
p2360
aS'born sinner better yeezus said'
p2361
aS'best friends'
p2362
aS'know know'
p2363
aS'stop'
p2364
aS'mine conversations ridiculously'
p2365
aS'happy birthday hope youve good'
p2366
ag4
aS'tell soothers please'
p2367
aS'shut jack gassin usual'
p2368
aS'wish cough would fuck'
p2369
aS'excited tomorrow'
p2370
ag4
ag4
aS'need massive'
p2371
aS'chris brown dont think know aaliyah'
p2372
aS'hmmmmm'
p2373
aS'come'
p2374
aS'lets shout abuse boat hahahahahahaha'
p2375
aS'shut didnt copy goon'
p2376
aS'today stats follower unfollowers'
p2377
ag4
aS'nothing banger'
p2378
aS'pray never turn like niggaz'
p2379
aS'feel like'
p2380
aS'woooooooooooow'
p2381
aS'gassed'
p2382
aS'come back'
p2383
aS'legs think look'
p2384
aS'today stats follower unfollowers'
p2385
asS'2013_19'
p2386
(lp2387
S'balling hard'
p2388
aS'next season yeah'
p2389
aS'might'
p2390
aS'definitely going training wednesday'
p2391
aS'green noodle wowerz'
p2392
aS'today stats followers unfollower'
p2393
ag4
aS'thinking bout think still'
p2394
aS'lets'
p2395
aS'wonder long going waiting'
p2396
aS'could'
p2397
aS'love'
p2398
aS'award goes best back tickler'
p2399
aS'graces'
p2400
aS'holla nowornever'
p2401
aS'hellooooo world whos awake highonlife lovinlife'
p2402
aS'steam'
p2403
aS'mansfield dead mate'
p2404
ag4
aS'safe'
p2405
aS'needs growing styling bang'
p2406
aS'thank fuck itsabouttime'
p2407
aS'sort'
p2408
aS'steamed'
p2409
aS'gassed'
p2410
aS'safe'
p2411
aS'pussy keep secret'
p2412
aS'rick ross'
p2413
aS'always need drink'
p2414
aS'xxxxxxxx'
p2415
aS'happy birthday jade xxxx'
p2416
aS'shower late'
p2417
aS'windowsill consists'
p2418
aS'cant anything right'
p2419
aS'literally dont know anymore'
p2420
aS'nice creps mate'
p2421
aS'hate trying nothing pays'
p2422
aS'daaaaays look nice'
p2423
aS'bored'
p2424
aS'balled hard since baller'
p2425
aS'becky youre funny'
p2426
aS'love close feel heart beating clothes'
p2427
aS'decides take fucking turd kitchen floor woken fucking stench'
p2428
aS'could stayed shower forever'
p2429
aS'actually dead'
p2430
aS'banty'
p2431
aS'gassed'
p2432
aS'nothing anymore gonna stop trying'
p2433
aS'cards'
p2434
ag4
aS'litterally hate home fucking boring'
p2435
aS'absolutely struggling mate'
p2436
ag4
aS'need'
p2437
aS'havent felt ages'
p2438
aS'youre trying find somebody replace gave'
p2439
aS'care would take love made'
p2440
aS'cause nobody ever like'
p2441
aS'tonight'
p2442
aS'sweatin'
p2443
aS'minimum clothes quilt window open still fucking boiling'
p2444
aS'feels like brain exploded mate'
p2445
aS'pillow quilt cold sleep'
p2446
aS'never really know someone'
p2447
aS'missing'
p2448
aS'makes whole better\xf0\x9f\x91\x8c'
p2449
aS'banger'
p2450
aS'today stats followers unfollower'
p2451
ag4
aS'jayz call beyonce feyonce proposed'
p2452
ag4
ag4
aS'becky wood said shes weird said weirder shes fucking weird'
p2453
ag4
aS'really want'
p2454
aS'nothing'
p2455
asS'2013_18'
p2456
(lp2457
S'actually lazy fuck'
p2458
aS'tired understatement'
p2459
aS'body cant hack anymore need sleep'
p2460
aS'shouldnt naughty'
p2461
aS'much better bedroom spotless'
p2462
aS'best school young lady'
p2463
aS'supp'
p2464
aS'absolutely fuck weekend'
p2465
aS'hahaha stomach struggling yeah'
p2466
aS'actin kinda shady babyy sudden change'
p2467
aS'looool'
p2468
aS'wowww'
p2469
aS'inittt toppark'
p2470
ag4
aS'someones fell'
p2471
aS'youve sorted lucozade'
p2472
aS'today actually hilarious glad came school ahahaha'
p2473
aS'name'
p2474
aS'cant wrong strawberry milkshake'
p2475
aS'okay babe xxxx'
p2476
aS'myyy miss loads'
p2477
aS'spit grave fucked'
p2478
aS'like remember meee'
p2479
ag4
aS'wonder womann'
p2480
aS'baby'
p2481
aS'alright mate'
p2482
aS'youre peak confusing annoying'
p2483
aS'youre peak'
p2484
aS'ignore ones adore adore ones ignore'
p2485
ag4
aS'time cuppa'
p2486
asS'2013_16'
p2487
(lp2488
S'damn twice'
p2489
aS'make remember'
p2490
aS'dont like'
p2491
aS'speak want something suck dick'
p2492
aS'yeeeeeeah miss'
p2493
aS'mums called family meeting honesty love compassion'
p2494
aS'determined'
p2495
ag4
aS'lets toast douchebags'
p2496
aS'yeah always find something wrong puttin shit long'
p2497
aS'cant wait tomorrow'
p2498
aS'actually thought friends'
p2499
ag4
aS'please stop youre actually best person ever'
p2500
aS'aite'
p2501
aS'coming home'
p2502
aS'think everything getting better'
p2503
aS'youre fucking pathetic'
p2504
aS'banter alright constant batter banter time thats dont lool'
p2505
aS'move'
p2506
aS'gonna text dont reply'
p2507
aS'fuckkk teeth aching'
p2508
aS'need massage'
p2509
aS'friends'
p2510
aS'close eyes almost feel like nothing changed'
p2511
aS'fell asleep bath shiaaat'
p2512
aS'havent promise'
p2513
ag4
aS'youve left computer spaz'
p2514
aS'right'
p2515
aS'lool'
p2516
aS'nice actually cares right'
p2517
aS'justin bieber please believe pussy keep secret'
p2518
aS'baby'
p2519
aS'away horrid people'
p2520
aS'need tonight'
p2521
aS'literally dont know'
p2522
aS'cant take anymore'
p2523
aS'arent school'
p2524
aS'took home police rudegyal'
p2525
asS'2013_39'
p2526
(lp2527
S'bored tired'
p2528
aS'grace asleep school tomorrow'
p2529
aS'eyez goes sick'
p2530
aS'actually eyez'
p2531
aS'getting family'
p2532
aS'song feeling'
p2533
aS'football madness comp'
p2534
ag4
ag4
aS'imogen pinned punched repeatedly blood messing phsyco angerman\xe2\x80\xa6'
p2535
aS'time real niggas times bitches'
p2536
aS'wale unbelievable'
p2537
aS'safe girl'
p2538
aS'script first time'
p2539
ag4
aS'know right getting'
p2540
aS'awake watching horrid henry'
p2541
aS'bought grace bought'
p2542
aS'writing words wisdom today'
p2543
aS'ripdepz'
p2544
aS'without music would insane'
p2545
aS'drake'
p2546
aS'naughty bastard'
p2547
aS'night prayed asked could please remove enemies life know started losing friends'
p2548
aS'chilled drake ears like'
p2549
aS'ohhhhh times hard yeah making crazy dont give baby banger'
p2550
aS'eyez fuck grime scene sick'
p2551
aS'cole tickets must'
p2552
ag4
ag4
ag4
aS'know ages'
p2553
aS'ordered banoffee waffle'
p2554
aS'walked rufford walked straight back'
p2555
aS'still school clothes'
p2556
aS'takin brother park making talk mates'
p2557
asS'2013_38'
p2558
(lp2559
S'ipod absolutely fucking sorting banger banger really'
p2560
aS'bangers'
p2561
aS'funny cause actually havent moved'
p2562
aS'drake good blew really stopthat'
p2563
aS'need toby carveryyyy'
p2564
aS'any1 wana'
p2565
aS'listen everybody cause told motherfuckin dont need help'
p2566
aS'asleep already loool'
p2567
aS'youre boring'
p2568
ag4
aS'well dont know many bangers thrown'
p2569
aS'look faved know said'
p2570
aS'well anymore'
p2571
aS'yellows still background deffo'
p2572
aS'messin'
p2573
aS'said youre house'
p2574
aS'jules said wondered didnt wave'
p2575
aS'drake stop'
p2576
aS'haha love ping'
p2577
aS'everyone seem poorly today come yeeee'
p2578
aS'check'
p2579
asS'2013_11'
p2580
(lp2581
S'call'
p2582
aS'fuck sake'
p2583
ag4
aS'fuck'
p2584
aS'music good'
p2585
aS'asap trey songz\xf0\x9f\x91\x8c\xe2\x80\x9d banger'
p2586
aS'imogen actually feel sorry maccies going fucking kill'
p2587
aS'wait\xe2\x80\x9d long'
p2588
aS'fuck carvery maccies'
p2589
aS'miguel actually sick'
p2590
aS'becky tasha'
p2591
aS'cant wait carvery'
p2592
aS'shall today becky white post farm'
p2593
aS'dead'
p2594
aS'tired fuck'
p2595
aS'cant wait home'
p2596
aS'need plans'
p2597
aS'goggles'
p2598
aS'fuck shin pads'
p2599
aS'need fuckin boat play pitch'
p2600
aS'fucks'
p2601
aS'many people wish closer'
p2602
aS'last tweet obviously wasnt'
p2603
aS'addicted swag pills'
p2604
aS'hannah hannah hannah hannah hannah hannah hannah'
p2605
aS'someone asks whats mind nothing really thinking'
p2606
aS'sure liked boys goddd\xf0\x9f\x98\x8d'
p2607
aS'hannah curtis best person ever evereverever'
p2608
aS'actually love'
p2609
aS'fucking love'
p2610
aS'imogen actually donated comic relief mums credit card fuck ahahahhahahahahahaaahahahaha'
p2611
aS'falling sleep time'
p2612
aS'hadnt woke would sleeping days'
p2613
aS'fucking nicest ever'
p2614
aS'love imogen ahhhh dear'
p2615
aS'stop'
p2616
aS'feel poorly fuck'
p2617
aS'woke drenched sweat'
p2618
aS'tired'
p2619
aS'listen trey songz makes horny fuck'
p2620
aS'notts'
p2621
aS'nice people show much mean'
p2622
aS'watch'
p2623
aS'feel sorry anyone fucking annoys today'
p2624
ag4
aS'definitely bothered mate'
p2625
aS'tired braces killing arghhhh'
p2626
aS'read ridiculous tweet eyes ever dumbbitch'
p2627
aS'worst feeling layed neeeed shower'
p2628
aS'meek mills started bottom embarrassed drakes'
p2629
aS'soooooo attractive'
p2630
aS'baby want want'
p2631
aS'would believe said love'
p2632
aS'miguel stop please'
p2633
ag4
aS'basketball'
p2634
aS'take'
p2635
aS'give'
p2636
aS'someone please ring'
p2637
aS'sigh'
p2638
aS'youre wasting time'
p2639
aS'coming'
p2640
aS'bored washed fucking pots whats'
p2641
aS'bored fuck'
p2642
asS'2013_10'
p2643
(lp2644
S'weekend'
p2645
aS'youve love know might make soooooak'
p2646
aS'first thing take clothes leave panties'
p2647
aS'thats girl'
p2648
aS'know getting reaaal'
p2649
aS'effort getting though'
p2650
aS'remembered left lucozade'
p2651
ag4
aS'game'
p2652
aS'grieve beat murder dont know name shoulda heard'
p2653
aS'chicks streets stop call want willy toss'
p2654
aS'read something thats literally made head blow'
p2655
aS'matching leopard print lool'
p2656
aS'love adorn'
p2657
aS'absolute baller drake truewords'
p2658
aS'trust issues'
p2659
ag4
aS'wish much'
p2660
aS'people stupid funny'
p2661
ag4
ag4
aS'wish someone talk right'
p2662
ag4
aS'well'
p2663
aS'struggling keep eyes open'
p2664
aS'fuck'
p2665
aS'nice feeling know someone proud'
p2666
aS'still care still upset'
p2667
aS'music soooo good'
p2668
aS'made'
p2669
aS'bottomburps actually funniest people know cant wait'
p2670
aS'bottomburps'
p2671
aS'mrbooth'
p2672
aS'booth funniest teacher ever ever ever ahahaha'
p2673
aS'looking devilish'
p2674
aS'swish swimming yellow bitch'
p2675
aS'think still'
p2676
aS'thinking bout'
p2677
aS'think might somewhere massage weekend aching'
p2678
aS'chris brown'
p2679
aS'layed last hour fuck apart think thats weird'
p2680
aS'love tells neeeeeds'
p2681
aS'music makes think many things\xe2\x80\x9d'
p2682
aS'tonight cool'
p2683
aS'proper absolute banger came couldnt wait next banger fucking wank song came absolute shit'
p2684
aS'nottingham'
p2685
aS'word'
p2686
aS'history loool'
p2687
aS'dont confuse personality attitude personality attitude depends'
p2688
aS'watching cramp twins'
p2689
aS'better'
p2690
aS'chelsey shit bird ahahahaha'
p2691
aS'real tired'
p2692
aS'falling asleep'
p2693
aS'feeling weeknd today'
p2694
aS'songs still best'
p2695
aS'prepare worst still praying best'
p2696
aS'niggas reality check'
p2697
aS'trust ishuws'
p2698
aS'mardy people shit'
p2699
aS'quite nervous wednesday'
p2700
aS'okay'
p2701
aS'mine last week'
p2702
asS'2013_13'
p2703
(lp2704
S'cheeky'
p2705
aS'cool cool shall point tomorrow'
p2706
aS'yeah yeah brooke ring'
p2707
aS'know init lool drag'
p2708
aS'yeah probably aint spoke though'
p2709
aS'thats question dont know'
p2710
aS'yeah yeah dont worry'
p2711
aS'sort something tomorrow'
p2712
aS'spoke phone hope havent forgot'
p2713
aS'better'
p2714
aS'girl take pride wanna even means inside youuuu rememberyou'
p2715
aS'kanye west runaway banger'
p2716
aS'come closer close original never'
p2717
aS'cheesy chips definitely done'
p2718
aS'asleep hours'
p2719
ag4
aS'feel dead'
p2720
aS'full english start'
p2721
aS'feel like fucking gypsy'
p2722
aS'fosters gold'
p2723
aS'caravan cheeky fosters'
p2724
aS'sorry lewis blackberry'
p2725
aS'spitting bars balling'
p2726
aS'becky wood biggest freak anyone literally ever meet fuckingspaz sortherout helpme'
p2727
aS'struggling'
p2728
aS'route skeggy ahahahaa'
p2729
aS'weird songs memories'
p2730
aS'whats mate'
p2731
aS'looool nice seeing'
p2732
aS'worried'
p2733
aS'shes done'
p2734
aS'becky giving massage feel good baby gonna undo'
p2735
aS'always tired'
p2736
aS'hahahaha whiteboy'
p2737
aS'dont know fancy someone'
p2738
aS'like business'
p2739
aS'make remember'
p2740
aS'mansfieldtotherescue'
p2741
aS'happens lock baby'
p2742
aS'peaaak'
p2743
aS'mums right mong'
p2744
aS'remember good things done else brooke preacher'
p2745
aS'suck dick'
p2746
aS'aint joking'
p2747
aS'sweet baby jesus'
p2748
aS'lets take conversation message'
p2749
aS'business'
p2750
aS'come home alone'
p2751
aS'pornhub candles'
p2752
aS'happy birthday'
p2753
aS'need massage'
p2754
aS'feel wank'
p2755
aS'chat much shit tired'
p2756
aS'literally cant take word constant fucking bullshit literally'
p2757
aS'cheesy chips wooooowerz'
p2758
aS'cant wait steak'
p2759
aS'fuckin rent lame'
p2760
aS'much food bring school everyday'
p2761
ag4
aS'drained'
p2762
aS'count hand many people like\xe2\x80\x9d'
p2763
aS'hahaha'
p2764
aS'school dead'
p2765
asS'2013_12'
p2766
(lp2767
S'dont questions dont want know answer'
p2768
aS'bangers keepemcoming'
p2769
aS'ipod treating tonight'
p2770
aS'swagz'
p2771
aS'literally nothing anymore'
p2772
aS'know somet fucking wrong'
p2773
aS'dont know goes head'
p2774
aS'listen batty music bars aint suitable spit bars ahahahahah'
p2775
aS'house'
p2776
aS'drake actually sick'
p2777
aS'feels good'
p2778
aS'lying said wasnt drunk'
p2779
ag4
ag4
aS'mine forever'
p2780
aS'time piece fucking shit blackberry'
p2781
aS'yeah'
p2782
aS'everyone justin timberlake hype yeah well true since river days ahahahhahaha'
p2783
aS'today moving fuck'
p2784
aS'going able back sleep'
p2785
aS'tired'
p2786
aS'blessed'
p2787
aS'yeah'
p2788
aS'close'
p2789
aS'cheese bean'
p2790
aS'count many people trust hand'
p2791
aS'lips cant wait taste skin'
p2792
aS'geordie shore'
p2793
aS'hahaha wasteman'
p2794
aS'baredoobies hahaha'
p2795
aS'sortmeout'
p2796
aS'dont stoned head'
p2797
aS'earphones haha'
p2798
aS'training'
p2799
aS'need marijuana system'
p2800
aS'text'
p2801
aS'feeling training tonight'
p2802
aS'chicken good'
p2803
ag4
aS'good luck today hope goes well'
p2804
aS'pray worry less'
p2805
aS'sorting jacket potato cheese'
p2806
aS'might aswell party many people'
p2807
aS'thing stopping life'
p2808
aS'first thing take clothes'
p2809
aS'last manor'
p2810
aS'stuff thats'
p2811
aS'show touch'
p2812
aS'lots sugars milky fuck thats'
p2813
aS'seeing people mean upset fucking horrid'
p2814
aS'bothered'
p2815
ag4
aS'remembered nice chewits'
p2816
aS'love xxxx'
p2817
aS'call'
p2818
aS'fuck tonight tomorrow youll famous'
p2819
aS'miguel'
p2820
aS'fancy miguel'
p2821
asS'2013_15'
p2822
(lp2823
S'question awake'
p2824
aS'long make duck'
p2825
aS'didnt answer question mate'
p2826
aS'youre alright'
p2827
aS'watch hair panties mirror'
p2828
aS'usher'
p2829
aS'whos awake'
p2830
aS'please stop drinking'
p2831
aS'drinkin bottle'
p2832
aS'know youd make comment'
p2833
aS'come chill boss'
p2834
aS'need'
p2835
aS'everybody wants'
p2836
aS'quite pissed'
p2837
aS'excited'
p2838
aS'aite'
p2839
aS'dunno probs'
p2840
aS'complaining'
p2841
aS'theres never point tired'
p2842
ag4
aS'sinner whos probably gonna'
p2843
aS'know'
p2844
aS'green noodle'
p2845
aS'hashtaggingell'
p2846
aS'keep bangers coming'
p2847
aS'stop'
p2848
aS'bare ignorance'
p2849
aS'shit people'
p2850
aS'check phone'
p2851
aS'nicest sleep ever dream fucked though'
p2852
asS'2013_14'
p2853
(lp2854
S'shit'
p2855
aS'actually hilarious people differently theyre people'
p2856
aS'absolutely ridiculous'
p2857
aS'woke bugatti'
p2858
aS'making sound like dealer shit also mums phone hasnt seen text lool'
p2859
aS'church'
p2860
aS'youre sooooooong'
p2861
aS'raaaah'
p2862
ag4
aS'dont phone'
p2863
aS'think still'
p2864
aS'thinkin bout'
p2865
aS'loool shutup'
p2866
ag4
aS'choice would choose'
p2867
aS'pimping convos bubbles champagne jazz playing'
p2868
aS'actually'
p2869
aS'beat beat beat beat beat beat'
p2870
ag4
aS'give need please'
p2871
aS'cadillac moving fast girl'
p2872
aS'truth need eachother'
p2873
aS'aint treat eachother'
p2874
aS'miguels voice'
p2875
aS'taken'
p2876
aS'thanks baby'
p2877
aS'havent phone xxxx'
p2878
aS'xxxxx'
p2879
aS'missing someone horrible feeling'
p2880
aS'mentally physically drained'
p2881
aS'walls kept tumbling city loove great clouds roll hills bringing darkness aboovve'
p2882
aS'could really massage'
p2883
aS'parents gone music'
p2884
aS'loool yeah'
p2885
aS'thats actually funny fuck imagine saying loool'
p2886
aS'girl hahaha'
p2887
ag4
aS'fine china'
p2888
aS'right'
p2889
aS'gonna another baby running around soon'
p2890
aS'love hearing good news'
p2891
aS'listen carefully bars mate'
p2892
aS'chicken'
p2893
aS'sooo tired'
p2894
aS'tired girrrl'
p2895
aS'loooool'
p2896
aS'know actually miss presence'
p2897
aS'hahahahahahahahahahaha'
p2898
aS'sinner whos prolly going'
p2899
aS'anybody tries touch phone good luck'
p2900
aS'bored'
p2901
aS'quite decent mood'
p2902
aS'feel like necks gonna snap half'
p2903
ag4
aS'yeah yeah'
p2904
aS'even tired'
p2905
aS'check phone'
p2906
aS'dont know much take'
p2907
aS'tempted walk'
p2908
aS'haha know like'
p2909
ag4
aS'deffo'
p2910
aS'yeah nice init'
p2911
aS'ring'
p2912
aS'ohhh thats shit'
p2913
aS'hard trying ages jelly left chocolate things came zapped screaming'
p2914
aS'finished level done'
p2915
aS'dont know anymore'
p2916
aS'plans three girls'
p2917
aS'coming back'
p2918
aS'ignore ignore'
p2919
aS'tired even care'
p2920
aS'brooke ugly brooke yeah head'
p2921
aS'whats phone number'
p2922
aS'sort'
p2923
aS'hahhaha help smoke fucking joint thats'
p2924
aS'need plans'
p2925
aS'bored fuck'
p2926
aS'want next'
p2927
as.