(dp0
S'2014_18'
p1
(lp2
S'dont want roofie want health dont understand video games'
p3
asS'2014_8'
p4
(lp5
S'pizza rolls essential part diet cant considered adult'
p6
aS'grocery shopping thinking people look think adult like'
p7
aS'white cishet offer carry things patriarchy'
p8
aS'dyslexia called cant smart like brother cure many\xe2\x80\xa6'
p9
aS'meeting queer friends always good solution'
p10
aS'tell people call peactice legit works haha'
p11
aS'kill fire like dont call special things youre nice'
p12
aS'like surrounded people like dont really care right drives insane'
p13
aS'sometimes want tell people stop apologizing right'
p14
aS'like asking anything wouldnt struggle someones pronouns practice shit'
p15
aS'babe wanna come back place fall fuck asleep'
p16
aS'tldr trans awesome dont talk genitals ever pronouns right even practice trans101'
p17
aS'also sure feel people telling pass really well passing isnt really goal dont think trans'
p18
aS'know emergency pugs thing'
p19
aS'like enough time right trans'
p20
aS'identify would without question male still call like semiregular basis theres number people'
p21
aS'dont know feel people trans positive theory still misgender regularly like said'
p22
aS'panic attack think dakota'
p23
aS'miss'
p24
aS'love tomorrow'
p25
aS'miss much sometimes feels like ground pulled underneath starsonmyheart'
p26
aS'selgbtq2014'
p27
aS'recently lost someone hope honored legacy loved memory take care'
p28
aS'afraid around people love afraid things happen starsonmyheart'
p29
aS'personal essays hard'
p30
aS'application asked students knew still dakota ready past tense'
p31
aS'important recognize spaces safe sometimes best thing leave space foster noone'
p32
aS'ideal world come nothing changes youre trans ideal world everything foster noone'
p33
aS'polite reminder straight people cares someone comes gestures addressed lonely'
p34
asS'2014_9'
p35
(lp36
S'haha breakup helping friend'
p37
aS'fueling long held desire hair black'
p38
aS'post breakup hair dying experience successful'
p39
aS'look purple postbreakuphaordyeingadventures'
p40
aS'beautiful'
p41
aS'never leave unopened mixing container burst haircolorgetsreal'
p42
aS'hope doesnt look dont care true signs breakup right'
p43
aS'heres fifty corpses sewn together shape seeing nice rest evening hannibal'
p44
aS'update really live tweeting'
p45
aS'gonna need much therapy lecter hand hannibal'
p46
aS'cant repress hannibal cannibalism puns hannibal'
p47
aS'forbidden speaking tweeting instead'
p48
aS'subtle cannibalism references make happy fannibal'
p49
aS'app\xc3\xa9tit fannibals'
p50
aS'henceforth live tweeting hannibal'
p51
aS'glad came'
p52
aS'diagnosed ptsd'
p53
aS'equal home snaps repeatedly'
p54
aS'twitter could follow'
p55
aS'shhhh twitter like name'
p56
aS'life thestruggle'
p57
aS'tonight interesting presentation awesome well yeah'
p58
aS'maybe tweeted something substance would retweet great twitter already'
p59
aS'tweet stuff twitter work becka'
p60
aS'break lgbtq five identities five ally four identities share'
p61
aS'yeah applied'
p62
aS'want help cant stay environment toxic'
p63
aS'last year support almost disappeared unsustainable'
p64
aS'stopped feeling safe long time felt like support change environment'
p65
aS'actually dont feel safe university'
p66
aS'trying park typically involves making deal devil selling piece soul'
p67
asS'2014_21'
p68
(lp69
S'okay know must know person sorry havent able piece together'
p70
aS'basically time make contact therapist awkward'
p71
asS'2014_15'
p72
(lp73
S'quarter fell nowhere isnt funny'
p74
aS'adult last night dreamed paying bills'
p75
aS'things spontaneously shout thought loved'
p76
asS'2014_16'
p77
(lp78
S'could basically play clue emojis'
p79
aS'boners cartoons allow make important decisions'
p80
aS'finally wings campuswas impressed sauce goes wings wings dipping sauce'
p81
asS'2014_10'
p82
(lp83
S'eating fast food obviously counting caloriesso please take menu want know'
p84
aS'twitter like hanging friends facebook like shove hands'
p85
aS'daww'
p86
aS'proud daughter leaving medical mission trip honduras praying safety blessings rockstarnurse'
p87
aS'commoners thingsijustsaidtomydog caninequeen'
p88
aS'traumatized unpredictable know survive hannibalgetsdeep'
p89
aS'hannibal brings meaning cake'
p90
aS'probably like pinterest repin'
p91
aS'theres aerial killer facebook jesus hannibal'
p92
aS'trying figure seen umbrella twitter'
p93
aS'dont social competency understand theyre saying hannibal'
p94
aS'dear hope theres silos full murals nbchannibal'
p95
aS'dont know would without lovely people like life thankful people talk ptsd anxiety'
p96
aS'thing points success'
p97
aS'google calming manatee'
p98
aS'worry lonely without come home plays alone night left'
p99
aS'dont'
p100
aS'white tell oppressed feel guilty white'
p101
aS'getting notified people dont know following brings whole level pressure mustperform bewitty'
p102
aS'meds work keeps stable productive trade minor side effects rather medicated'
p103
aS'thoughts people really surprised many meds take mental health honestly dont care take'
p104
aS'writing bios hard finished mine think like narcissistic thestruggleisreal'
p105
aS'convince people stop using horrible wrecks example shitty things'
p106
aS'realized tweet picture done'
p107
aS''
p108
aS'yeah happened like'
p109
aS'bahaha either'
p110
aS'better professor said heterosexual gender identity'
p111
aS'professor listed pulling contraception method sexed'
p112
aS'printer giving flashing lights death days went worked thank almost cried'
p113
aS'shit grounds divorce married divorce'
p114
aS'danielle drank gallon pitcher sweet everything love contaminated horror monstrosity'
p115
aS'danielle says cant watch episodes pokemon tonight lies allofit netflixmarathon'
p116
asS'2014_11'
p117
(lp118
S'cute usher dancing drunk women'
p119
aS'worry group people front uscant find designated driver terrified think many people'
p120
aS'every time elton live fall love'
p121
aS'concert time also elton john trivia time'
p122
aS'northern folk telling need alabama supporting southern queer youth southern queer'
p123
aS'midnight adventures owning pair skin tight purple skinny jeans muchsuccess leedoesfashion'
p124
asS'2014_12'
p125
(lp126
S'people look funny defiantly shout adult middle walmart adult'
p127
aS'swear waits take pants tell outside'
p128
aS'gerbil isnt afraid vacuum concerned murdergerbil'
p129
aS'discovered fosters thing life'
p130
asS'2014_13'
p131
(lp132
S'feel need speculate someones gender please wait earshot ihearyou ialwayshearyou'
p133
aS'pretend someone elses notice'
p134
aS'parent worries quality dogs sleep weird feel like weird'
p135
aS'goddamnit'
p136
ag108
aS'sounds like best date ever'
p137
aS'hour people walmart college students whove lost control lives thisishome'
p138
aS'reached point dont care romance want someone raise dogs wearing sweatpants overit'
p139
aS'please tell ejaculation fact true'
p140
aS'watched episode family dont cable much less'
p141
aS'good times game thrones'
p142
aS'zombie pretty blue eyes isnt walking dead'
p143
aS'watching first time dunno episode theres baby whose name randal shit crows'
p144
asS'2014_14'
p145
(lp146
S'saying single position marriage required orthodoxy makes bold claim insufficiency histo\xe2\x80\xa6'
p147
aS'call hysterical tell overreacting watch best friend joke anymore'
p148
aS'haha drive drunk fuck fucking hell fuck people think fucking funny fuck'
p149
aS'idea comic book store allegiance today'
p150
aS'never going'
p151
aS'wading dudebros find comics'
p152
aS'paid rent time adult'
p153
aS'picture turtle tutu'
p154
aS'cant stick finger mouth thats works'
p155
aS'roommate anal warts much going back pokemon mylifethough'
p156
aS'gently punch wolfie time'
p157
aS'roommate texts think depressed later never mind poop'
p158
aS'think elderly people gross need grow come yall'
p159
aS'elton john whole song boils fucking birds'
p160
aS'thus skyrim strategy take everything four brooms'
p161
asS'2014_44'
p162
(lp163
S'never relieved hear news aunt changed channel'
p164
aS'someone needs tell stahp soooo interested homophobia gays aids monkeys need retire'
p165
asS'2014_7'
p166
(lp167
S'great time'
p168
aS'continues wonderful super supportive person shes basically perfect'
p169
aS'sometimes pronouns nervous laughter'
p170
aS'lying bath saturday night answering work emails'
p171
aS'tripping'
p172
aS'nothing makes angry people talkingtouching binder transproblems'
p173
aS'late'
p174
aS'know youre trouble walmart theres carts snomaggedon2'
p175
asS'2014_6'
p176
(lp177
S'fuck wires'
p178
aS'thought confused'
p179
aS'dont smoke somehow ended ecig regular cigarettes'
p180
aS'changed three letters'
p181
aS'regret didnt chance fuck grieftweets'
p182
aS'time talking womens studies class trans issues told story mostly good questions wall whatever'
p183
aS'twitter failed'
p184
asS'2014_38'
p185
(lp186
S'dear scpride fact chers daughter fact chers gross amounts transphobia coming'
p187
as.