(dp0
S'2012_17'
p1
(lp2
S'fuck everything fuck fuck everything'
p3
aS'fuck'
p4
aS''
p5
aS'everything'
p6
asS'2012_7'
p7
(lp8
S'please'
p9
aS'wrong'
p10
asS'2011_52'
p11
(lp12
S'fall know'
p13
aS'yeah good comes wait wait'
p14
aS'impossible'
p15
aS'stages situation destroy define strengthen destroyed defined need strengthen someone teach'
p16
aS'wear pants relationship women control zipper'
p17
aS'wish loose floorboard room store things'
p18
aS'always song playlist always skip never courage delete'
p19
aS'planned know really want know'
p20
aS'ruined dont trust much worry'
p21
aS'forget care anymore'
p22
aS'please dont'
p23
aS'look crying'
p24
aS'bitch ruined life killed emotionally multiple times cannot forget'
p25
aS'worrying nakama youre verge death want life adventure like'
p26
aS'hope would though someday'
p27
aS'please dont find follow'
p28
aS'fuck wheres phone'
p29
aS'open books legs blow minds guys'
p30
aS'haters jealous ahhahahahahahahah sometimes really hate'
p31
aS'self pity'
p32
aS'bitch cant believe targeting another person'
p33
aS'yell'
p34
asS'2012_40'
p35
(lp36
S'feel like bubble life depression thats close easy reach cant anymore'
p37
aS'miss everyone much'
p38
asS'2012_1'
p39
(lp40
S'youre mood dont fucking take'
p41
asS'2012_3'
p42
(lp43
g5
aS'love'
p44
asS'2012_38'
p45
(lp46
S'dont even tweet account irrelevant'
p47
asS'2012_9'
p48
(lp49
S'golden retriever puppies stupid stupid cute stupid cant handle'
p50
aS'ruined lives'
p51
aS'fucking hate yeah'
p52
asS'2012_34'
p53
(lp54
S'little compliment dont know much means'
p55
aS'love cousins perf'
p56
aS'rude'
p57
aS'remember drowned pancakes syrup finished'
p58
aS'miss'
p59
aS'remember phase good friends chester darren'
p60
aS'remember blue underwear found ground'
p61
aS'tailored trends fuck'
p62
aS'remember everyone legitimately called trevor bimbo weeks'
p63
aS'remember camp freezing cold sail ghost stories tent'
p64
aS'remember trio'
p65
aS'paige favorite person ever love'
p66
aS'oxford doubt best month life forever'
p67
aS'cant summer last forever best summer life'
p68
aS'really dont want gsis people seem type people'
p69
asS'2012_35'
p70
(lp71
S'dont know somebody help please'
p72
aS'leave'
p73
aS'cant take'
p74
aS'idea school prevented falling deep deep depression fact school crap'
p75
aS'breaks keep going back years'
p76
aS'cant someone save'
p77
aS'years'
p78
aS'really cannot'
p79
aS'cant'
p80
aS'zoro sanji sexy'
p81
aS'voteonedirection'
p82
aS'voteonedirection'
p83
aS'voteonedirection'
p84
aS'voteonedirection hasdffwefzx'
p85
aS'voteonedirection'
p86
aS'voteonedirection rthgfsd'
p87
aS'voteonedirection qwas'
p88
aS'voteonedirection'
p89
aS'voteonedirection'
p90
aS'voteonedirection'
p91
aS'voteonedirection needs going'
p92
aS'voteonedirection likuyjyhtgfds'
p93
aS'voteonedirection wesdfxcv'
p94
aS'voteonedirection 3475eryfsg'
p95
aS'voteonedirection pyuiljkh'
p96
aS'voteonedirection awesd'
p97
aS'voteonedirection 34wtrsdg'
p98
aS'voteonedirection 67iytj'
p99
aS'voteonedirection eawrhs'
p100
aS'voteonedirection retsgdfxc'
p101
aS'voteonedirection kuythjgnvb'
p102
aS'voteonedirection xcfre'
p103
aS'voteonedirection 3wesdzfx'
p104
aS'voteonedirection 34eryfgd'
p105
aS'voteonedirection rtufgh'
p106
aS'voteonedirection ouykghj'
p107
aS'voteonedirection wesdz'
p108
aS'voteonedirection erhsf'
p109
aS'voteonedirection wesdsd'
p110
aS'voteonedirection'
p111
aS'voteonedirection wesd'
p112
aS'voteonedirection ersgh'
p113
aS'voteonedirection wasf'
p114
aS'voteonedirection'
p115
aS'voteonedirection'
p116
aS'voteonedirection'
p117
aS'voteonedirection'
p118
aS'voteonedirection'
p119
aS'voteonedirection'
p120
aS'voteonedirection'
p121
aS'voteonedirection'
p122
aS'voteonedirection'
p123
aS'voteonedirection'
p124
aS'voteonedirection'
p125
aS'voteonedirection'
p126
aS'voteonedirection'
p127
aS'voteonedirection'
p128
aS'voteonedirection'
p129
aS'voteonedirection'
p130
aS'voteonedirection'
p131
aS'voteonedirection'
p132
aS'voteonedirection'
p133
aS'voteonedirection forgive dont want bieber'
p134
aS'voteonedirection'
p135
aS'voteonedirection'
p136
aS'voteonedirection'
p137
aS'voteonedirection'
p138
aS'voteonedirection'
p139
aS'voteonedirection'
p140
aS'voteonedirection'
p141
aS'voteonedirection'
p142
aS'wrshg voteonedirection'
p143
aS'voteonedirection'
p144
aS'wsdf voteonedirection'
p145
aS'voteonedirection'
p146
aS'voteonedirection'
p147
aS'voteonedirection awesd'
p148
aS'voteonedirection w4et'
p149
aS'sdfg voteonedirection'
p150
aS'voteonedirection 9puiojk'
p151
aS'voteonedirection'
p152
aS'voteonedirection wesdx'
p153
aS'voteonedirection rtyfgh'
p154
aS'voteonedirection'
p155
aS'voteonedirection wsdzfxc'
p156
aS'voteonedirection'
p157
aS'voteonedirection'
p158
aS'voteonedirection eraygwrayerya'
p159
aS'voteonedirection rtyfhvb'
p160
aS'voteonedirection jyfgksrg'
p161
aS'voteonedirection wsdf'
p162
aS'voteonedirection kytdrgh'
p163
aS'voteonedirection adsd'
p164
aS'voteonedirection jsrtfh'
p165
aS'voteonedirection eardfh'
p166
aS'voteonedirection'
p167
aS'voteonedirection jesdh'
p168
aS'voteonedirection'
p169
aS'voteonedirection edhfb'
p170
aS'voteonedirection werterg'
p171
aS'harry please follow'
p172
aS'harry please'
p173
aS'voteonedirection'
p174
aS'voteonedirection'
p175
aS'voteonedirection'
p176
aS'voteonedirection'
p177
aS'voteonedirection'
p178
aS'voteonedirection'
p179
aS'voteonedirection'
p180
aS'voteonedirection'
p181
aS'voteonedirection'
p182
aS'voteonedirection'
p183
aS'voteonedirection'
p184
aS'voteonedirection'
p185
aS'voteonedirection'
p186
aS'voteonedirection'
p187
aS'voteonedirection'
p188
aS'voteonedirection'
p189
aS'voteonedirection'
p190
aS'voteonedirection'
p191
aS'voteonedirection'
p192
aS'voteonedirection'
p193
aS'voteonedirection'
p194
aS'voteonedirection'
p195
aS'voteonedirection neccesary'
p196
aS'think harry another account vote laughing'
p197
aS'voteonedirection still voting'
p198
aS'harry hayrharyahryarharahyarhayrhrayry'
p199
aS'voteonedirection tweet limit account doign'
p200
aS'voteonedirection come fuckers'
p201
aS'havent genuinely happy years painful leave'
p202
aS'drama nothing month happiness doesnt happen often'
p203
aS'circle friends genuinely loved genuinely loved'
p204
aS'found someone appreciated temper outbursts stuck hung hours nonstop days'
p205
aS'best people literally best like even crap things'
p206
aS'actually genuinely happy oxford havent genuinely completely happy years'
p207
aS'dont need take bullshit'
p208
aS'fuck fuck'
p209
aS'skip follow account holla'
p210
asS'2012_6'
p211
(lp212
S'want life'
p213
aS'wish still friends'
p214
asS'2012_37'
p215
(lp216
S'fuck'
p217
aS'going cant face people'
p218
asS'2012_36'
p219
(lp220
S'guess internet really'
p221
aS'joke shazza gave fuck none'
p222
aS'walk hallways friends'
p223
aS'help'
p224
aS'dont want alone'
p225
aS'dont alone'
p226
aS'painful dont friends'
p227
asS'2012_2'
p228
(lp229
S'please dont'
p230
ag5
ag5
aS'fucking uptight'
p231
aS'mood swings'
p232
asS'2012_33'
p233
(lp234
S'thats secret recurring major depression'
p235
aS'diagnosed depression hate gang know'
p236
aS'good friends loved change'
p237
aS'sometimes want fetal position scream'
p238
aS'might dramatic right might deserve painful'
p239
aS'help'
p240
aS'cant'
p241
aS'best friends starts hating caused depression didnt notice heartbreaking'
p242
aS'never going back fuck'
p243
aS'fucking changed schools still hate'
p244
aS'hold fuck stop'
p245
aS'still hate stop'
p246
aS'fuck'
p247
aS'followmejai followmejai followmejai followmejai followmejai followmejai'
p248
aS'even come advice asshole'
p249
aS'followmejai'
p250
aS'followmejai followmejai followmejai followmejai followmejai followmejai follow'
p251
aS'followmejai followmejai followmejai followmejai followmejai followmejai follow'
p252
aS'want follow hate'
p253
aS'dont even want tomorrow stay'
p254
aS'need stop awkward'
p255
aS'really love didnt miss much close used'
p256
ag5
as.