(dp0
S'2013_25'
p1
(lp2
S'enter macbarbie07giveaway'
p3
aS'comeon enter macbarbie07giveaway'
p4
aS'enter macbarbie07giveaway'
p5
aS'enter macbarbie07giveaway'
p6
aS'enter macbarbie07giveaway please love much bethany'
p7
aS'enter macbarbie07giveaway'
p8
aS'enter macbarbie07giveaway'
p9
aS'enter macbarbie07giveaway'
p10
aS'enter macbarbie07giveaway'
p11
aS'enter macbarbie07giveaway'
p12
aS'enter macbarbie07giveaway'
p13
aS'enter macbarbie07giveaway'
p14
aS'enter macbarbie07giveaway'
p15
aS'enter macbarbie07giveaway'
p16
asS'2013_18'
p17
(lp18
S'asksamandkian shout maddy massachusetts could create flavor arizona would'
p19
aS'asksamandkian shout maddy massachusetts could create flavor arizona would'
p20
aS'asksamandkian shout maddy massachusetts could create flavor arizona would'
p21
aS'asksamandkian shout maddy massachusetts could create flavor arizona would'
p22
aS'asksamandkian shout maddy massachusetts could create flavor arizona would'
p23
aS'asksamandkian shout maddy massachusetts could create flavor arizona would'
p24
aS'asksamandkian shout maddy massachusetts could create flavor arizona would'
p25
aS'asksamandkian shout maddy massachusetts could create flavor arizona would'
p26
aS'asksamandkian shout maddy massachusetts could create flavor arizona would'
p27
aS'asksamandkian shout maddy massachusetts could create flavor arizona would'
p28
aS'asksamandkian shout maddy massachusetts could create flavor arizona would'
p29
aS'asksamandkian shout maddy massachusetts could create flavor arizona would'
p30
aS'asksamandkian shout maddy massachusetts could create flavor arizona would'
p31
aS'asksamandkian shout maddy massachusetts could create flavor arizona would'
p32
as.