(dp0
S'2013_42'
p1
(lp2
S'tonight'
p3
aS'wanna duckdynasty swag chance prizes'
p4
aS'predictions tonights game'
p5
aS'predictions score tonight'
p6
aS'lets done'
p7
aS'please keep score updates coming'
p8
asS'2013_46'
p9
(lp10
S'midst boom homebased businesses shows sign slowing paul zane pilzer renowned economist author'
p11
aS'interesting read dont find time exercise find time disease'
p12
aS'arris bistro tickets mizzou game'
p13
aS'health fact using tobacco healthy diet preventing infections cause cancer could prevent cancers'
p14
aS'building business best become rich begin investing assets robert kiyosaki'
p15
aS'network marketing wave future taking place franchising requires much capital rohn'
p16
asS'2013_44'
p17
(lp18
S'lets cards'
p19
asS'2013_45'
p20
(lp21
S'network marketing offers education rich taught build network rather working network robert kiyosaki'
p22
aS'christopher reeve'
p23
asS'2012_43'
p24
(lp25
S'duckawesome'
p26
asS'2012_42'
p27
(lp28
S'entered great holos giveaway orange leaf columbia'
p29
aS'entered great holos giveaway midamerica wireless'
p30
asS'2013_37'
p31
(lp32
S'walked miles today walk'
p33
asS'2013_26'
p34
(lp35
S'cooking manhattan clam chowder150 calories servingnothing like eating healthy'
p36
aS'congrats'
p37
aS'congrats jake taggart'
p38
asS'2013_30'
p39
(lp40
S'going first hike tomorrowwalked miles todaywoot woot'
p41
asS'2012_27'
p42
(lp43
S'need help'
p44
asS'2013_28'
p45
(lp46
S'obamacare great americait done nothing drive healthcare costs'
p47
asS'2013_29'
p48
(lp49
S'punk'
p50
aS'lost weight'
p51
asS'2013_38'
p52
(lp53
S'still think colin best ever'
p54
aS'wowpredictable angle'
p55
as.