(dp0
S'2013_42'
p1
(lp2
S'dont know dont sleep much'
p3
aS'dont sleep'
p4
aS''
p5
aS'yeah game tomorrow'
p6
aS'sometimes'
p7
aS'haha dont'
p8
aS'noooooo like'
p9
aS'think'
p10
aS'haha yeah'
p11
aS'doesnt likes'
p12
aS'like'
p13
aS'didnt'
p14
aS'gorda'
p15
aS'hate phone right'
p16
aS'lost contacts phone reason phone going crazy'
p17
aS'cant sleep'
p18
aS'24hourfitness good workout today'
p19
asS'2013_41'
p20
(lp21
S'give certain point life'
p22
aS'still watching walking dead'
p23
aS'sleep today'
p24
aS'time walking dead'
p25
aS'haha'
p26
aS'watching supernatural great show'
p27
asS'2013_46'
p28
(lp29
S'best snapchats hahahaha'
p30
ag5
aS'yeah good'
p31
ag5
aS'frog good'
p32
ag5
aS'ewwwwwwwwwwwww eating frog legs'
p33
aS'ewwwwwwwwwwwww eating frog legs\xe2\x80\x9d'
p34
asS'2013_47'
p35
(lp36
S'striped pajamas'
p37
aS'yeah true little late'
p38
aS'well late haha'
p39
aS'sleepy'
p40
aS'haha'
p41
aS'haha sleepy'
p42
asS'2013_44'
p43
(lp44
S'late night wingstop'
p45
aS'salad'
p46
aS'clippers lakers today'
p47
asS'2013_9'
p48
(lp49
S'uploaded photo pheed'
p50
aS'uploaded photo pheed'
p51
asS'2013_35'
p52
(lp53
S'love astrid'
p54
asS'2013_22'
p55
(lp56
S'another gift movie flixster'
p57
as.