(dp0
S'2013_5'
p1
(lp2
S'hope stay night'
p3
aS'thinking'
p4
aS'fuck'
p5
aS'good night last nightlt3'
p6
aS'fuck love fuck youu'
p7
aS'tell like'
p8
aS'ahhhh shut'
p9
aS'hell night'
p10
asS'2013_7'
p11
(lp12
S'sucks knowing ganna single valentines'
p13
aS'nobody dies virgin life fucks'
p14
aS'wonder people naked private parts dont needa lmfao'
p15
asS'2013_6'
p16
(lp17
S'hard find perfect time tell something thats gonna change everything'
p18
aS'amazingly cute'
p19
aS'like youu dont wanna like'
p20
aS'think fallin yoult3'
p21
asS'2013_46'
p22
(lp23
S'theres hell hello good goodbye liein believe lover friend next'
p24
aS'sweat pants hair idgaf mood'
p25
aS'face love james'
p26
aS'feel like shit sick sucks'
p27
aS'relationship made peoplebut bitches dont know count'
p28
aS'girlfriend doesnt like bitch dont talk bitch'
p29
aS'every girl bestfriend boyfriend true love youre really lucky theyre person'
p30
aS'hate people different front certain people'
p31
aS'thats cute'
p32
aS'dont'
p33
aS'awwwww'
p34
aS'didnt anything dont'
p35
aS''
p36
aS'really starting piss'
p37
aS'everyone tells give dont like broke heart made still love'
p38
aS'wasnt ampamp love'
p39
aS'tired people life doesnt care acts like'
p40
aS'sick tired mean whatever'
p41
ag36
aS'yeah\xf0\x9f\x98\x94'
p42
ag36
aS'created world days well took months create clearly deal'
p43
aS'sucks dont weekend'
p44
aS'people meant time long distance ever tear apart'
p45
aS'someone sent haha'
p46
aS'awkward imgonnakillyou'
p47
aS'going means switching computer phone spending another hour mobile tweeting dark'
p48
aS'love baby'
p49
aS'talking phone love'
p50
aS'sweet funny'
p51
aS'hush little laptop dont mommy\xe2\x80\x99s gonna find wifi wifi doesn\xe2\x80\x99t work momma destr\xe2\x80\xa6'
p52
aS'dont give fuck dont like bitch like'
p53
aS'ever much decide take'
p54
aS'throwback went florida dang burnt'
p55
aS'lmfao things happen walk upstairs throwback'
p56
ag36
aS'shower hear loud thumps think theyre killing family fight attacker naked lmfao'
p57
asS'2013_47'
p58
(lp59
S'happy birthday girl'
p60
aS'hahahahah'
p61
ag36
aS'doesnt make mistakes trust someone ends past theyre reason'
p62
aS'fight like married couple talk like best friends flirt like first loves obviously meant'
p63
aS'haters motivators'
p64
aS'love baby'
p65
aS'love'
p66
aS'haters like crickets chirp motherfuckin daynight walk shut fuck bitch\xe2\x80\xa6'
p67
aS'matter busy person care always find time'
p68
ag36
aS'hugs behind'
p69
aS'boys look good without makeup'
p70
aS'smile literally cutest thing ever seen life'
p71
aS'touch iphone usphone wephone ourphone iphone'
p72
aS'nice person hate everyone'
p73
aS'shout following thanks'
p74
asS'2013_45'
p75
(lp76
S'pinquotes pictures words backgrounds text sayings phrase polyvore quote pinquotes'
p77
aS'dont understand fucking jealous talk shit room talk monkey looking bitch\xf0\x9f\x98\x98\xf0\x9f\x98\x89'
p78
asS'2013_9'
p79
(lp80
S'followed first bitch stfu'
p81
asS'2013_8'
p82
(lp83
S'know want dick lmfao'
p84
asS'2013_25'
p85
(lp86
S'youre nothing piece shit fucking hate wish would jump bridge'
p87
asS'2013_18'
p88
(lp89
S'havent'
p90
as.