(dp0
S'2013_42'
p1
(lp2
S'sickk vibee'
p3
aS'2night dope'
p4
aS'goign poping parries cuzens'
p5
aS'awwwwwwlt33 made'
p6
aS'bouta gta5 online noww'
p7
aS'coco puffs look like goat shitt lucky chrams better'
p8
aS'fruity pebbles better'
p9
aS'ahah'
p10
aS'verga'
p11
aS'alrightt'
p12
aS'wack friday'
p13
aS'dooonnttt knowww'
p14
aS'love birds'
p15
aS'still triping ahahha'
p16
aS'took like vicodins back pains feeling drizzunk'
p17
aS'weyyy'
p18
aS'traigan plebitas estoy enfiestando'
p19
aS'traigo lumbre diablo'
p20
aS''
p21
aS'somehting happen 3per thinking 2daylt33'
p22
aS'lt333 awww much though'
p23
aS'awwwwlt33 much'
p24
aS'missed ugly today'
p25
aS'bouta munch tacos'
p26
aS'dayy ahah'
p27
ag21
ag21
aS'pussy money weeed'
p28
aS'mmmm'
p29
ag21
aS'dammm fattt haha'
p30
aS'beautiful babe'
p31
aS'damm first time math book'
p32
aS'home school raid fridge'
p33
aS'finally homee'
p34
aS'fuckk going work cuzen'
p35
aS'hell yeah bought piercings'
p36
aS'hell needa back fuck'
p37
aS'lmao needa take napp'
p38
aS'dirtyy asss'
p39
aS'ewww tell cristian ahhahahha'
p40
aS'lmao'
p41
aS'ahha okay bitch shut'
p42
aS'haha idgaf still understand'
p43
aS'okay babe sooo'
p44
aS'ahhaha short stefanie stupidd'
p45
aS'heaven chuuu'
p46
aS'hell dragging bitch'
p47
aS'ahhah meee yeahhh blame'
p48
aS'dont think cuzz thts spell namee bitchhhh'
p49
aS'puess vete verga lmao'
p50
aS'whoss geeeeeoooooo'
p51
aS'ahhahah uyyy weyyyyy callate'
p52
aS'nahhhh to0t'
p53
aS'bitch ahah'
p54
aS'steff stfu alreadyyy'
p55
aS'mean dont make sense'
p56
aS'shouldnt tlking never goooo'
p57
aS'bitch'
p58
aS'correction princess'
p59
ag21
aS'culichi town like culote town'
p60
aS'adorablelt3'
p61
aS'months princeslt333'
p62
aS'offically months'
p63
aS'watching bull rampage crazy muthafukas'
p64
aS'stop song lyrics'
p65
aS'thing smart muthafuckas sound like crazy muthafukas stupid muthafukas'
p66
aS'matter shes oneelt3'
p67
aS'lazy sunday'
p68
aS'jarhead badass movie'
p69
aS'still havent seen insidious'
p70
aS'playing ikno said'
p71
aS'2day'
p72
aS'thats said yesterday'
p73
aS'lt3333'
p74
aS'yeahh cuzz yoouu uhhhggllyyy'
p75
aS'shee needa sleep ahha'
p76
aS'tripen baby sleep'
p77
aS'pssshhhhhhhhhh ewwww'
p78
aS'ewwwwwww lollt33'
p79
aS'daaaa fucckkkkk'
p80
aS'dannnnng fucking ugly'
p81
aS'already babe'
p82
asS'2013_43'
p83
(lp84
S'ohhh staying longer noww'
p85
aS'bitches know name'
p86
aS'hope comeslt3'
p87
aS'dammm spot'
p88
aS'woke feeling good'
p89
aS'waking sore ltlt'
p90
aS'pick'
p91
aS'love matter matter much argue know shell always'
p92
aS'chill dayy babe'
p93
aS'pablo'
p94
aS'timee sale yayo'
p95
aS'going kick babelt3'
p96
aS'tired ness getting'
p97
aS'done cleaning time hope gta5'
p98
aS'bitch'
p99
ag21
aS'woke beautiful babe'
p100
aS'ganna 2mrw'
p101
aS'babe jelly lt33'
p102
aS'entrar mafia verga'
p103
aS'miss vtec cracks'
p104
aS'jelly babe lollt3'
p105
aS'chill sunday hahaha'
p106
asS'2013_40'
p107
(lp108
S'broncos forsureunless block kick'
p109
aS'awwww bitchhhh'
p110
aS'motherfucking strike'
p111
aS'around world hoes know name'
p112
aS'time crashh outtt'
p113
aS'hahaha thts meee'
p114
aS'jesus drug free lmao'
p115
aS'jesusssss'
p116
aS'youu need lecture need jesus life'
p117
aS'like lucky star'
p118
aS'wonder shee doingg mmmm'
p119
aS'ahhaha sickk bryan'
p120
aS'shes like jesus christ cause bread body choclate blood'
p121
aS'need jesus'
p122
aS'lose wreck'
p123
aS'burn rubba buburn rubbaaaa'
p124
aS'every thing seems control going fast enough'
p125
aS'ahhaha sickk fooo'
p126
aS'bitches'
p127
aS'neeed fuck'
p128
aS'idea gonna wear tomorrow'
p129
aS'talk'
p130
aS'stay school loll'
p131
aS'twitttter nigga'
p132
aS'okayyy babe'
p133
aS'asking socked isnt'
p134
aS'double play'
p135
aS'babe'
p136
aS'misss like much'
p137
aS'happpppy happppy happppy happpy birthday baby like soooo much morning\xe2\x99\xa5'
p138
aS'awwww miss moree babelt33'
p139
aS'miss boyfriend much'
p140
asS'2013_41'
p141
(lp142
S'fatt assssss'
p143
aS'dammm starts early'
p144
aS'jelly ahha'
p145
aS'funniest thing heard weekend'
p146
aS'woke next stripers dont know lmao hahaha'
p147
aS'going kick primos'
p148
aS'thiss thoolt333'
p149
aS'fashooo wasup'
p150
aS'thts rightt havnt match bowls niggaa dammm nigga'
p151
aS'ahahaha whats deal nigga'
p152
aS'ahah niggaa'
p153
aS'wasup nigggaa'
p154
aS'ahahha funnyyy'
p155
aS'wanna smoke'
p156
aS'oralee homiewhy guys gatta wear green shirt last time'
p157
aS'bitch'
p158
aS'wtffffff hellll nooo'
p159
aS'fckenn fuckn eeeee withhh iiiiii'
p160
aS'guys'
p161
ag21
aS'thought hhahahahahahahaha'
p162
aS'ohhh shee dangerous'
p163
aS'ahhaha stupidd awww cutieelt3'
p164
aS'stripper'
p165
aS'imma feel imma smoke till done'
p166
aS'want mountains starts snowing'
p167
aS'dumbbxdd watevaa'
p168
aS'lmao nahhhhh tripen'
p169
aS'youu fucken dont always deaaaad asleep'
p170
aS'always mine'
p171
aS'surprise'
p172
aS'lmao weenie'
p173
aS'fuck grades\xf0\x9f\x98\x84'
p174
aS'shit grades yeah pretty much fucked'
p175
aS'aahahha nahhhhhhhhhh tripen'
p176
aS'girlfriend lmaooo'
p177
aS'wonder still going drift night'
p178
aS'bitch'
p179
aS'ahahh okayyyy thts feel'
p180
aS'awwww thts wass cutee wass looking ahhh'
p181
aS'helll nooooooo'
p182
aS'ahha doesnt work think going know lmao alright'
p183
aS'fckk forgot txts books like qustion'
p184
aS'thought soooo'
p185
aS'buen chavo feliz vida'
p186
ag21
aS'cant sleep night mind'
p187
aS'works pages miss joliff book'
p188
aS'muddafcka'
p189
aS'like muchhh'
p190
aS'woooowwww would slap piercing thts right better back'
p191
aS'home'
p192
aS'knows gone thru'
p193
aS'cocaine addicted apartment aviction'
p194
ag21
aS'bomb weather special beautiful girl'
p195
aS'need noww coldd'
p196
aS'gonna tell irene'
p197
aS'wait highh'
p198
aS'tengo chingo hambre'
p199
aS'skip friday already'
p200
aS'going knock early'
p201
aS'hell yeahh boouta cutttt'
p202
aS'fully built heavy block'
p203
aS'kiss'
p204
aS'pathetic dude'
p205
aS'jezzzzz tweets funny'
p206
aS'hahah good times thts right thts good lyssa knock stop stranger punk goodnight'
p207
aS'dummmm'
p208
aS'ahah made class crackkyou still playing softball'
p209
aS'stranger noww ahha member msdavolos lmao'
p210
aS'glocks kemosabe'
p211
aS'girls love lunch line'
p212
aS'girls think theyre slick cutting line little know last laugh booty'
p213
aS'thts good good toomiss whats'
p214
aS'beenn'
p215
aS'wassupping beenn attt'
p216
aS'smells goooddd'
p217
aS'miss feeling'
p218
aS'loving'
p219
aS'homework welll'
p220
aS'time sleeppp'
p221
aS'know'
p222
aS'gtfo twitter text back nigga'
p223
aS'hooo ohhhhh'
p224
aS'going skewl'
p225
aS'ahhaha true wont nadalmao'
p226
aS'lmao wont nothingg'
p227
aS'irene slap'
p228
aS'fckk round'
p229
aS'time kiss'
p230
aS'vete verga lmao'
p231
aS'comes cute text msgs'
p232
ag21
asS'2013_46'
p233
(lp234
S'miss'
p235
aS'betttaa shittt'
p236
aS'ball hard lets faded'
p237
aS'dont play something hoes like'
p238
aS'damm shower felt bomb'
p239
aS'want money money cars cars clothes hoes'
p240
aS'today hmmm'
p241
aS'goal give fuck'
p242
aS'haha fuck'
p243
aS'already hear monday whispering almost bitch'
p244
aS'ervin santana workhorse needs stable predict team using hashtags freeagenttracker'
p245
aS'ugly cloudy days actually favorite'
p246
aS'hope'
p247
aS'homework chill dayy'
p248
aS'fuckk homework'
p249
aS'feel betta noww'
p250
aS'dammm spot'
p251
aS'breakfast time\xf0\x9f\x98\x81'
p252
aS'finally home'
p253
aS'cereol'
p254
aS'fuck life hours sleep fucking tired'
p255
aS'princesslt33'
p256
aS'looking careing gets alright'
p257
aS'care'
p258
aS'wouldd'
p259
aS'ahaha wooooww'
p260
aS'59fitfty'
p261
aS'keep fitted'
p262
aS'blowning phone dammmmm'
p263
aS'bowl cereal knock fuck'
p264
aS'tired'
p265
aS'night ahah'
p266
aS'fucking beautiful piece'
p267
aS'2night hell yeahh'
p268
ag21
aS'weather feels good packs bowls'
p269
aS'trying something 2night'
p270
aS'hopefully something today\xf0\x9f\x98\x81'
p271
aS'might dislike school still goes trying someone shit call life'
p272
aS'hell yeahh wanna graduate bitch'
p273
aS'ahhaha sickk foooo'
p274
aS'started give fuck stopped fearing consequence'
p275
aS'esta weyy future baby'
p276
aS'shower time'
p277
aS'jussst want already'
p278
aS'pickle head'
p279
aS'nahh aint going'
p280
aS'comes want cant dont patience'
p281
aS'glad herlt3'
p282
aS'always says never shit'
p283
aS'bitch'
p284
aS'awww seen thtlt33 fell spell'
p285
aS'take forever reply sometimes phone doesnt vibrate loud enough sleeping'
p286
aS'ahha never gets'
p287
aS'watching little rascals'
p288
aS'mean expensive 2300 could clean whit swap'
p289
aS'ayyy weyyy sale hatch nigga'
p290
aS'linda guerita'
p291
aS'life like tommrw chse live'
p292
aS'clean looks better white'
p293
aS'shitt niggaaour connect beer ahha fucuckk'
p294
aS'otro ahah'
p295
aS'make fake weyy paso'
p296
aS'hooka'
p297
aS'ahah pinchie grifo weyyyy'
p298
aS'lmao'
p299
aS'tony mota'
p300
aS'twitter confuses sometimes'
p301
aS'dummyy'
p302
aS'ahha'
p303
aS'looking stock intake'
p304
aS'orale post socal wasupp'
p305
aS'running already'
p306
aS'gonna real'
p307
aS'awww miss babe hope fell better beautifull'
p308
aS'asco'
p309
aS'party still shit done'
p310
aS'lt3your cutie babe'
p311
aS'pancakes'
p312
aS'wait tlking bout krespey kreme meet'
p313
ag21
aS'thursday months whit princesslt3'
p314
aS'much never gain ounce'
p315
aS'livin'
p316
aS'booooootty like fairest wheel'
p317
aS'speed pedal pedal pedal'
p318
aS'goodmoringg cutielt3'
p319
aS'love movie'
p320
aS'fats furious never gets'
p321
aS'isnt junkyard garage'
p322
aS'boost cars'
p323
aS'always give full charge lmao'
p324
aS'smell burnrubba'
p325
aS'ahahha naahhhhh phone dies'
p326
aS'rawwrrr'
p327
aS'picture made laugh'
p328
aS'true looks like babelt3'
p329
ag21
aS'ahahlt3 spanish'
p330
aS'ella hace feliz'
p331
aS'makes'
p332
asS'2013_47'
p333
(lp334
S'double socks double sweats double everthing'
p335
aS'cold modafcka'
p336
aS'good work'
p337
aS'damm kinda sore 2mrw welll'
p338
aS'awww like trips ahha'
p339
aS'straight killa'
p340
aS'miss feeling'
p341
ag21
aS'sasquatch'
p342
aS'fuucckkkkkk self hair'
p343
aS'keep drinking love shit keep smoking love shitt'
p344
aS'ohhh helll nooo'
p345
ag21
aS'mmmm'
p346
aS'cold function'
p347
aS'back hurting'
p348
aS'didnt anything classes today movies like free time thank'
p349
aS'ahhaha alil lmao'
p350
aS'fcken dayy'
p351
aS'going talk phonelt3 knock outt'
p352
aS'shit noww'
p353
aS'fuckkk going rain 2mrw'
p354
aS'high touch till cant even function'
p355
aS'lets smoke weed together'
p356
aS'damm kill fcken'
p357
aS'fuckkkkkkk'
p358
aS'pastel colombiana'
p359
aS'stomach hurts much laughing'
p360
aS'funny'
p361
aS'aahahhahahahhahahahahahah'
p362
aS'smokeampdrink'
p363
aS'slowly dying'
p364
aS'weather feels bomb smoke bowls'
p365
aS'must cute'
p366
aS'think bullshiting'
p367
aS'mama said going rain 2mrw'
p368
ag21
aS'yeahhh dont nothing thissss'
p369
aS'puffin poundin'
p370
aS'think'
p371
aS'ooooo trying ightttttttt'
p372
aS'importa lunes martes miercoles quiero amaneserme pistiando'
p373
aS'tired want smoke'
p374
aS'vale pito'
p375
aS'fattasss'
p376
aS'high definition blind listen probably hear pissing crew ahaha'
p377
aS'ahahhaha'
p378
aS'shit hear zipping fluid'
p379
aS'meee ahahha dont blame always trowing self ground problems'
p380
aS'pancakes spot'
p381
aS'high power'
p382
aS'nada amor jajaj'
p383
aS'happy coming friday'
p384
aS'awww baby cutielt33'
p385
aS'awwwlt33 cute'
p386
aS'ahaha sick'
p387
aS'gang fuck niggas hating'
p388
aS'time knock'
p389
aS'crazy movie ahha'
p390
aS'think knock early'
p391
aS'burgandy sexy color'
p392
asS'2013_44'
p393
(lp394
S'wanna something'
p395
aS'snitchen'
p396
aS'beers sounds bomb right'
p397
aS'buchanans lavadero'
p398
aS'hahah'
p399
aS'muertos'
p400
aS'stuntingg'
p401
aS'playin nigga money thts disrespect'
p402
aS'smoke like hippy'
p403
aS'finally home'
p404
aS'poes sigue rollo camaradas'
p405
aS'encanta pida banda besos sabor buchanans'
p406
aS'fruity pebbles'
p407
aS'bowl cereal spot'
p408
aS'eyes fire'
p409
aS'damm shower felt bomb'
p410
aS'wooowww'
p411
aS'thug'
p412
aS'jajaja weyyy calmado onda mija'
p413
aS'dont give fucc nipsey hussle'
p414
aS'done'
p415
aS'ahhah could things'
p416
aS'twitter said fucken liar'
p417
aS'ahha psshhh funny'
p418
aS'tony'
p419
aS'triping cutiee'
p420
aS'white lamborghini call sweet drug money'
p421
aS'yall dont even know train'
p422
aS'need bowl'
p423
aS'math makes head hurt'
p424
aS'helll yeah done homework'
p425
aS'keeping yoult33 ever ever'
p426
aS'aint going wtfi princesslt3'
p427
aS'ahhah bitch funny'
p428
aS'deserve everything earth'
p429
aS'awwwwlt3'
p430
ag21
aS'ahhahaha'
p431
aS'weekend great\xf0\x9f\x98\x98'
p432
aS'enjoy every moment even watching sleep'
p433
aS'lt33 made'
p434
asS'2013_45'
p435
(lp436
S'born race dope movie'
p437
aS'half'
p438
aS'want something tonight'
p439
aS'fuckkk shouldnt give rise crispy'
p440
aS'need'
p441
aS'bouta munch'
p442
aS'hungry'
p443
aS'ahahh ohhhhhhhhh fuck shoot lmao'
p444
aS'hell yeahh weather alll retarded raining windy like'
p445
aS'nahh feeling right whit'
p446
aS'damm badd nigga shits like mothafcker'
p447
aS'shitt 4reals wascracking hell yeah thts hood'
p448
aS'ahah thts rightwere'
p449
aS'team school'
p450
aS'da9lt3'
p451
aS'lmao funny girl'
p452
aS'jelly'
p453
aS'angel babylt33'
p454
aS'work'
p455
aS'knows already thts shittt boss'
p456
aS'ahahah'
p457
aS'damn thats weird'
p458
aS'olor kush'
p459
aS'work home worrkkkk'
p460
aS'fuck going'
p461
aS'feels late fuck'
p462
aS'munchiess'
p463
asS'2013_39'
p464
(lp465
S'gold'
p466
aS'pfffffffffff thank goodness'
p467
aS'knew kidding knew'
p468
aS'everyone house keeps making pimple'
p469
aS'dammm knnock pretty long time'
p470
aS'bout'
p471
aS'tired'
p472
aS'babe wake alreadyy'
p473
aS'glad beautifulll babelt3 else replace'
p474
as.