(dp0
S'2013_42'
p1
(lp2
S'thank hubspot peeps read mind perfectly imuk13 huge brain feast worth every minute'
p3
aS'transform business good friend louise walkers amazing book marketing ground'
p4
aS'joes prog started juicing need find magic juice machine washerupper'
p5
aS'thoroughly enjoyed entertaining keynote presentation mumsnets imuk london yesterday journey'
p6
aS'come short london black journey costs \xc2\xa31140 return return taking midmorning grrr'
p7
aS'must catchup juicing favs might like personal blog'
p8
aS'fascinating presentation shaun thank although fiona simultaneous translation'
p9
aS'brilliantly entertaining enlightening presentation kenny whitelawjones yesterday inbound marketing thanks'
p10
aS'tweet mightier speaking imuk13'
p11
aS'wonder romeo tweets insights'
p12
aS'eyeopening thoughtprovoking nicely controversial presentation marketing genius brian halligan imuk13'
p13
aS'congress centre inbound marketing conference great imuk13'
p14
asS'2013_43'
p15
(lp16
S'google stopped giving access keywords analytics'
p17
aS'thanks follow russell last time stage kpi8 pitch fest obviously'
p18
asS'2013_40'
p19
(lp20
S'adam lucy guys share common passion hotel successes seemed right connect'
p21
aS'thanks jonny much appreciate repost'
p22
asS'2013_41'
p23
(lp24
S'check sumall excellent aggregation site bringing online data together great daily summary'
p25
aS'great meet today sold million books excellent questions answers'
p26
aS'real pleasure carol spiers speaking breakfast morning left cogitating lots tips'
p27
asS'2013_46'
p28
(lp29
S'question chloe make want donuts'
p30
aS'good meet morning mike experience insight really thinking'
p31
aS'privilege today enjoying brilliant presentation fergus mcclelland star screen stage'
p32
aS'indeed chloe enjoyed meeting interesting business field expertise'
p33
aS'paramount client\xe2\x80\x99s online sales increased launch website'
p34
aS'interesting innovative concept massively raise profile credibility online'
p35
asS'2013_47'
p36
(lp37
S'breaking news london domain name suffix soon available read'
p38
asS'2013_44'
p39
(lp40
S'social media donuts read'
p41
aS'excellent meeting friday favorite bespoke developers'
p42
aS'show world want phone worth keeping phonebloks'
p43
aS'sorry laura pedantic weather forecasting brings sunshine dreary weather mustnotbesopicky'
p44
aS'lisa tongueincheek humour clearly wasted'
p45
aS'write lisa however lauras malapropism reminded'
p46
aS'hope safe morning hope youre safe broadcasters'
p47
asS'2013_45'
p48
(lp49
S'following expecting magnate magnetism ruboff'
p50
asS'2013_16'
p51
(lp52
S'clarity network daily stories today'
p53
aS'approach week remember robinson crusoe everything done friday'
p54
aS'reading fantastic book clarity cant recommend highly enough stop thinking'
p55
asS'2013_26'
p56
(lp57
S'google photos great photos less time'
p58
asS'2013_20'
p59
(lp60
S'paramount exhibiting south east business show friday 17th come'
p61
asS'2013_22'
p62
(lp63
S'shaa wasmund retiring friends birthday please wish wonderful'
p64
asS'2013_29'
p65
(lp66
S'media sales experience looking change career amscreen hiring apply'
p67
aS'browser extensions streamline workflow'
p68
aS'microsoft finally reveals wants surface'
p69
aS'exciting secondscreen proposition fournow live tweets sync programmes'
p70
aS'thanks retweet jody take figaro event today'
p71
aS'spinach celery cucumber ginger frozen wheatgrass apple pineapple lime fullofbeans'
p72
aS'thanks brilliantly orchestrated digital marketing conference stellar speaker lineup great figdigconf'
p73
aS'sure actually adjudicator think hungry'
p74
aS'proves quite much rocks figdigconf'
p75
aS'brilliant informative engaging entertaining presentation shorthaired andy atalla figdigconf'
p76
aS'would love copy andys facts regale friends figdigconf'
p77
aS'useful exposed insight experience thanks yara'
p78
aS'recommendation great thanks using social media could engage feel meeting coming'
p79
aS'figdigconf finally scanner remind people volume likes counts volume engagement'
p80
aS'andy obrian amaze lovely factoids information internet weighs grain salt figdig\xe2\x80\xa6'
p81
aS'juicer juicetastic half time twice juice goodness might still lunch'
p82
aS'figdigconf sage advice social media campaign focus customer engagement'
p83
aS'conference content interesting enlightening eyeopening little 100mph digital marketing seems work'
p84
aS'massive congrats winning silver enterprise awards raise glass green juice'
p85
aS'fascinating fact andy obriens presentation syllable abbreviation letter abbreviation figdigconf'
p86
aS'missing action unable attend figdigconf fear content recorded available breathe'
p87
aS'discovering ryangoslingwonteatcereal figdigconf power retweets'
p88
aS'twitter figdigconf demonstrates power screening combining watch twitter usage eyeopening'
p89
aS'talk figdigconf steve implementing systems growing mobile market really made hungry'
p90
aS'brilliant talk figdigconf justin khaksar incredible power video marketing'
p91
aS'figdigconf eager anticipation figaro digital marketing conference london'
p92
aS'work tiny details improve business'
p93
aS'dont understand always think marketing expensive bizwealth'
p94
aS'questions fuel social media said many times blog probably needs said again\xe2\x80\xa6'
p95
aS'watch space'
p96
aS'white glove surrendering already'
p97
aS'feel dinner party coming'
p98
aS'seen profile makes mean lasagne mines better cookoff'
p99
aS'youre linked like make valuable connections check opprtunity'
p100
aS'loving mean green juices thanks inspiring story incorporating fully replacing loving energy'
p101
aS'sounds like shambles gutted'
p102
aS'still able know result'
p103
aS'particular good meeting today fiona great client discuss social media engagement business'
p104
aS'welcome jerry open mind change think forever'
p105
aS'brilliant demo concentration focus resourcefulme book launch monday'
p106
aS'looking forwardbeing conference thursday fantastic agenda speakers figdigconf'
p107
asS'2013_17'
p108
(lp109
S'write book theres interesting idea'
p110
aS'great spend time yesterday today supremely talented financial life planner'
p111
aS'fantastic roundup looking forward kpi9 pitchfest'
p112
asS'2013_37'
p113
(lp114
S'feed photography sigma imaging september news'
p115
aS'firstever caterham beer festival 22nd 23rd ticket entry want sponsor'
p116
asS'2013_36'
p117
(lp118
S'indeed pair shiny shorts youd think aunty would know better'
p119
aS'looking employ qualified team leaders climbing arborists work reigate depot providing'
p120
aS'good meet innovative topnotch designer joerg discuss potential project york gallery'
p121
aS'talks huge amount sense making easier innovative people start business'
p122
aS'amazing view microsoft nokia deal mobile marketshare strategy'
p123
aS'move apple days numbered'
p124
aS'negative space amazing examples'
p125
asS'2013_35'
p126
(lp127
S''
p128
aS'well saying hard follow'
p129
aS'looking forward meeting soon legendary restaurant social media guru author'
p130
aS'positive thoughtprovoking meeting yesterday fiona sarah simon partnerships'
p131
aS'possible shiney pair anything'
p132
aS'spreading literacy spreading internet'
p133
asS'2013_34'
p134
(lp135
S'found phone heartwarming story kids ingenuity honesty'
p136
aS'work companies grow small business'
p137
aS'great really enjoyable insightful evening look forward return match'
p138
aS'best home made lasagne side tuscany served even though certain thinks better'
p139
aS'month peace'
p140
aS'thanks follow great sound chilled soulful'
p141
aS'train creative mind'
p142
aS'everything need know eating sushi'
p143
asS'2013_33'
p144
(lp145
S'future bright future green'
p146
aS'todays lesson belief trust train said westbound probably'
p147
aS'enlightening business development session insight clarity steroids thanks'
p148
aS'youre still sure power tweet might convince'
p149
asS'2013_32'
p150
(lp151
S'perseids meteor shower shimmer'
p152
aS'fantastic customer service delivered first order frozen wheatgrass hours thanks guys'
p153
aS'digital entrepreneur autumn dinner interesting'
p154
aS'check launching tomorrows leadership language trust'
p155
aS'entrepreneurial thoughtoftheday youll never plow field turn mind'
p156
aS'rightpoliteetiquette keep asking people isnt value retweet happens organically'
p157
aS'turns google really internet'
p158
aS'unstoppable attraction behind personal brand'
p159
aS'send texts android phone mightytext brilliant android'
p160
asS'2013_31'
p161
(lp162
S'gatwick enroute berlin cultural realignment tour days building international relations social setting'
p163
aS'keys writing small business blog'
p164
aS'video self generating storytelling marketing brand smarta'
p165
aS'think emmetts daughter'
p166
aS'find important keep uptodate industry want successful caree\xe2\x80\xa6'
p167
aS'really interesting article importance creating niche nicola'
p168
aS'congratulations andrew hope well'
p169
aS'definition wildly excited pleasure meet'
p170
aS'miss witty insightful inciteful observations club joining future'
p171
aS'upside side gain influence helping others upside initiativenegotiation'
p172
aS'looking forward working richard chambury clients project needs commercial photography'
p173
aS'theres pitch ever heard'
p174
aS'looks like great place'
p175
aS'really enjoyed witty informative inteligent responses panelist last night smarta100'
p176
aS'nice meet evening carol said best french accent look blog'
p177
aS'another belter event organised expert panel award winners great advice thanks guys'
p178
aS'customers story smarta100'
p179
aS'evernote brilliant cloud service store anything anywhere manually free smarta100'
p180
aS'reall wise words seven hills thinking tell story important product smar\xe2\x80\xa6'
p181
aS'qualified sell tomorrow smarta100'
p182
aS'cant marianne rafael massive crowd smarta100 event'
p183
aS'nice meet away facebook smarta100 event familiar faces'
p184
aS'paramount digital marketing smarta100 event strutting stuff'
p185
aS'rotor flies helicopter theyre standing around thats full health safety precautions place really'
p186
asS'2013_30'
p187
(lp188
S'graze brilliant free feed friends code 54l4gyyt'
p189
aS'world person person world thats obviously'
p190
aS'learn successes learn failuresbut learn successes'
p191
aS'send mobile stuff'
p192
aS'watched dont blame facebook incredible stories events getting control people post tweet'
p193
aS'mornings yummy smoothie'
p194
asS'2013_39'
p195
(lp196
S'ebays 2012 revenue billion dollars'
p197
aS'seen surprise surprise website appears'
p198
aS'success2013 james caan amazing success stage slightly dull uninspiring disappointed'
p199
aS'morning everyone looking forward speaking success2013 today'
p200
aS'youre smartest group need group brown success2013'
p201
aS'success2013 rule rules made followed'
p202
aS'really good meet maggie tonight look forward catching soon'
p203
aS'pleasure meet amazing find thing tonight thanks great networking evening tanya'
p204
aS'train driver trying announce stops ahead keeps breaking bits words funny amilost'
p205
aS'junior webdevelopers looking change paramount digital marketing looking'
p206
aS'thanks follow sally nice make acquaintance'
p207
aS'thanks retweeting vacancy michelle much appreciated'
p208
aS'many thanks retweet much appreciated'
p209
aS'thank favouriting vacancy tweet david'
p210
aS'thanks retweeting vacancy margaret much appreciated'
p211
aS'thanks retweeting vacancy emma much appreciated'
p212
aS'thanks retweeting vacancy bizitalk much appreciated'
p213
aS'thanks follow'
p214
aS'thanks follow alexander'
p215
aS'paramount digital marketing hunt great junior developer know anyone please send'
p216
aS'paramount digital marketing hunt great junior developer know anyone please send'
p217
aS'thanks guys much appreciated details emailed jonny'
p218
aS'paramount digital marketing hunt great junior developer know anyone please send'
p219
asS'2013_38'
p220
(lp221
S'going success 2013 london sept 28th fancy coming'
p222
aS'looking forward first business meeting 27th fancy joining'
p223
aS'next wednesday hosting live twitter qampa aimed entrepreneurs startups send'
p224
aS'business scale productbudget premiumrelationship'
p225
aS'huge congrats louis wowing client delivering expectation rebrand'
p226
aS'book people person free kindle amazon midnight tonight'
p227
aS'thanks fiona using excellent justunfollow anyone else'
p228
aS'cant look choices making hungry tweet free'
p229
asS'2013_11'
p230
(lp231
S'kpiday made world smaller infinitely accessible thanks little blue'
p232
aS'interesting informative engaging entertaining emotive words describing excellent kpiday spent'
p233
asS'2013_10'
p234
(lp235
S'selfridge crabb sets example preempting market bringing forward umbrellas rainwear genius'
p236
aS'north korea cuba countries left world sell coca cola'
p237
aS'archive turning good'
p238
aS'amazing food lunch supplied including artichoke salad falafel fantastic courgette spaghetti'
p239
aS'spent days expand brand amazing speakers'
p240
asS'2013_12'
p241
(lp242
S'fomo jealousy lizard'
p243
aS'anyone lose trade mark intellectual property experts shows innocent drinks messed'
p244
aS'conscious seminar chiropractor selfconfessed posture addict trying hard slouch'
p245
aS'income seldom exceeds personal development rohn'
p246
aS'nice today miss'
p247
aS'spent hugely valuable afternoon iconic brand creator mike harris whys always find real question'
p248
aS'google products services might know exist'
p249
aS'whatsapp give away zillions users charge genius users well'
p250
asS'2013_15'
p251
(lp252
S'fantastic publishing spent team plus bestselling author clarity'
p253
aS'publishnow book publishing event'
p254
asS'2013_14'
p255
(lp256
S'google shuttingdown youtube midnight tonight'
p257
as.