(dp0
S'2013_42'
p1
(lp2
S'england poland tues nightthree crownswhos coming promo 710pm pint carling ruddington nottscityrocks'
p3
asS'2011_44'
p4
(lp5
S'vote follow'
p6
aS'realised beer glasses rovers musta lifted lastnite pissed never mind'
p7
aS''
p8
aS'gonna call salford sure theyd well happy 2meet girls'
p9
aS'fooking kevin websters outside window wanking writing wanna shag deirdre sparkler hhhmmm'
p10
aS'please vote serious xfactor'
p11
aS'louis totally agree everything said 2only good things 2say others winner'
p12
aS'leaves show epicfail hands kelly gary livin others pockets'
p13
aS'actually watched acts talent stage presence'
p14
aS'tonight amazing xfactor'
p15
aS'gonna grow hair mound movember'
p16
aS'bits earlia fort avin brown period turnd walnut meltid biff'
p17
aS'rocked nottingham concert hall made ladys night birthday kiss'
p18
aS'nottingham concert tonight rows front excited much'
p19
aS'10thingsifindattractive barlow'
p20
aS'eddie work shop know drop attitude'
p21
aS'fewmin blind eyeleen frunta scoota fert swurve dint kill daft cunt gorra'
p22
aS'release dates nottingham tickets sold released keep ringing check last cancel'
p23
aS'patsy isnt rave happening abfab'
p24
aS'johnny kitty amazing'
p25
aS'thingslessmankythanfrankie washin nickers muddy rivers india'
p26
aS'thingslessmankythanfrankie leave flowter overnite mornin ferra piss water brown'
p27
aS'thingslessmankythanfrankie mound lads estate'
p28
aS'thingslessmankythanfrankie mams used thats bathrewm floor weeks coverd pubes blood'
p29
aS'eddy lights models guest list best darling abfab'
p30
aS'shave november mound guna luck like subos head'
p31
aS'patsy little bitch troll hell abfab'
p32
aS'watched factor today performances weekend kitty little really like'
p33
asS'2011_19'
p34
(lp35
S'well done guys amazing come home proud boys blue robbed eyes'
p36
aS'unlucky moldova'
p37
aS'cracked open cava tonights semi saving champagne saturday nights party bring jedward'
p38
aS'portugal lmao'
p39
aS'biggest goals dont scare least little theyre small leadership'
p40
asS'2011_18'
p41
(lp42
S'excellent'
p43
asS'2012_49'
p44
(lp45
S'talent actually sing well creepysick'
p46
aS'relationship advice good gemmas dedication towielive'
p47
asS'2012_47'
p48
(lp49
S'guys starting words thank'
p50
asS'2012_41'
p51
(lp52
S'greetings back weeks veronicas strip oneil stairs modern room cheesy room poles'
p53
asS'2012_42'
p54
(lp55
S'tweet'
p56
asS'2012_28'
p57
(lp58
S'starships ment'
p59
asS'2012_25'
p60
(lp61
S'hart pulled face drop knickers open legs'
p62
asS'2012_24'
p63
(lp64
S'4999th tweet want shoutout 5000th tweet mingers'
p65
asS'2012_22'
p66
(lp67
S'follow dude would well ream shuuuuut'
p68
ag8
aS'windsurf life'
p69
aS'swing rope rope'
p70
aS'dont care'
p71
aS'reach railway'
p72
asS'2012_21'
p73
(lp74
S'thats role'
p75
aS'outdoor eurovision party'
p76
asS'2012_20'
p77
(lp78
S'reem enough twitpiccom9l3zgh'
p79
asS'2011_20'
p80
(lp81
S'keep straight face buzzcocks'
p82
asS'2011_26'
p83
(lp84
S'amazing conversation lmao'
p85
aS'nope requested payroll breakdown nothing tomorrow gonna send sturn reply'
p86
aS'hows things dear ready'
p87
asS'2011_24'
p88
(lp89
S'dear nachos pizza balcony'
p90
aS'seen repeat piers morgan think amazing personality shined missing'
p91
aS'happy birthday'
p92
aS'shows wicked'
p93
asS'2011_25'
p94
(lp95
S'believe oclock dear iphone smashing song lonely type'
p96
asS'2011_28'
p97
(lp98
S'missing already great time come back soon midnight swims'
p99
aS'pissmypants'
p100
asS'2012_16'
p101
(lp102
S'pounded'
p103
ag8
aS'vodka oclock'
p104
aS'late'
p105
asS'2011_45'
p106
(lp107
S'would suckk massiv juicy thexfactor xtrafactor'
p108
aS'xfactor louis telling craig looks like young gary barlow hope doesnt tell misha shes'
p109
aS'sort dude'
p110
aS'please vote tonight weve much give lots love'
p111
aS'also elephant castle tree need visit'
p112
aS'stella black landan town xfactor tonight cmon give follow'
p113
aS'whats legs pubic hair front direction concert bits'
p114
aS'young lady frig offand wash bastard curtains eastiseast'
p115
aS'louis mate lucy would made follow tomorrow dont fewmin'
p116
aS'love love love kind fearless xfactor'
p117
aS'bring back gamu'
p118
aS'lincoln whats night life like much'
p119
aS'fewmin frankie'
p120
asS'2011_46'
p121
(lp122
S'standing edge'
p123
aS'course insecurity'
p124
aS'sort'
p125
aS'follow follow follow please please please'
p126
aS'whats claw misha'
p127
aS'marrrrrrcus give follow'
p128
aS'found gorge'
p129
asS'2011_40'
p130
(lp131
S'craig janet like risk'
p132
aS'please keep xfactor tweets coming love'
p133
asS'2011_41'
p134
(lp135
S'excellent result louis love acts'
p136
aS'patsy quite tits'
p137
aS'track album best please nottingham make'
p138
asS'2011_42'
p139
(lp140
S'need admit good'
p141
aS'vote kitty 88333 kitty 88333 kitty 88333 kitty 88333 kitty 88333'
p142
ag8
aS'dont listen acts bottom love cher love'
p143
aS'follow would smash back doors'
p144
asS'2011_43'
p145
(lp146
S'team walsh'
p147
aS'result'
p148
aS'super brat back cher lloyd'
p149
aS'hello miming singing show xfactor'
p150
aS'rasist cunt nite deleated twita'
p151
aS'vote kitty johnny'
p152
aS'bits'
p153
aS'text kitty 88333 everyone'
p154
aS'kitty sexi jonny smashin owta biffs'
p155
aS'kitty actually pretty good tonight'
p156
aS'fuck frankie fingering slags smoking weed bedroom doesnt make keith richards xfactor'
p157
aS'stay'
p158
aS'girl sing vote long'
p159
aS'stay'
p160
aS'eddy want total sensory deprivation backup drugs alright abfab'
p161
aS'watched vivo love'
p162
aS'watching come young iphone'
p163
aS'eddy daughter saffy jackie never mind late flush abfab'
p164
aS'halloween special like'
p165
aS'gurls reet gonna splash juice sofa thinkin tite'
p166
aS'frobin fort biffin west cunt sausage surprise everyone'
p167
aS'shit mouf pound passage'
p168
aS'reeet deep tite good mite finga'
p169
aS'beat mound salvation army drum skip whyl eating keebab bitch'
p170
aS'mate sent pitur louis retweet round 2morrw smash shit mams mound'
p171
aS'welovekitty lovely thank'
p172
asS'2012_52'
p173
(lp174
S'congrats guys'
p175
asS'2012_51'
p176
(lp177
S'retake december picture calendar holding strictly trophy showdance outfit thanks'
p178
aS'everyone dial 6225206 mobiles winner'
p179
aS'fancy sending signed photo someone make xmas loves shes sober drunk'
p180
aS'first spray hahaha'
p181
asS'2012_18'
p182
(lp183
S'give follow tweet nowt would reem essex follow'
p184
aS'project implementation manager bampq monday friday'
p185
aS'left tesco week monday london quick holiday though funtimes'
p186
asS'2012_19'
p187
(lp188
S'london starts tomorrow panic'
p189
asS'2012_36'
p190
(lp191
S'word amazeing'
p192
aS'dude time watching edge seat jonnie'
p193
asS'2012_13'
p194
(lp195
S'please tweet griffin menswear link brotherinlaw shot loads views'
p196
asS'2011_31'
p197
(lp198
S'beaten pool 10yr theshameofitall'
p199
as.