(dp0
S'2013_42'
p1
(lp2
S''
p3
aS'photo society sucks'
p4
asS'2013_46'
p5
(lp6
S'photo nic0tinekisses thought died months'
p7
aS'photo'
p8
aS'photo'
p9
aS'photo'
p10
aS'photo'
p11
aS'photo inkskinned poppunkiscoolerthanyou sexhairdontcare fuck fucking thank'
p12
aS'photo sadb0nes'
p13
aS'photo theblackcloud edit mine'
p14
aS'photo'
p15
aS'photo mpiganaji swing world safety measures simply swing'
p16
aS'photo'
p17
aS'photo'
p18
aS'photo'
p19
aS'photo'
p20
aS'photo morphineandcigarettes black white blog follow back similar'
p21
aS'photo'
p22
aS'photo'
p23
aS'photo'
p24
aS'photo'
p25
aS'photo'
p26
aS'photo'
p27
aS'photo'
p28
aS'photo imdepressed lefous alone'
p29
aS'photo'
p30
aS'photo thatgurluknow'
p31
aS'photo'
p32
aS'photo savemyfrommyself likes tumblr heart'
p33
aS'photo'
p34
aS'photo'
p35
aS'photo'
p36
aS'photo'
p37
aS'photo survivinginnumbers submitted email'
p38
aS'photo mysuicidesmile br\xe2\x80\x940k\xe2\x80\x943n dash today please wake tomorrow xoxo'
p39
aS'photo'
p40
aS'photo g0nebeyondrepair hopeless\xe2\x80\x94child hopeless\xe2\x80\x94child'
p41
aS'photo itsnotasuicide needtobethinner promise doesn\xe2\x80\x99t mean thing anymore nope'
p42
aS'youngstero someone thought today probably'
p43
aS'photo howimetyourbobsaget mysterylnc thisisrelatable shithappensbutlifegoeson damn thats powerful'
p44
aS'photo indebthofinsomniaticdreams deadgirlsdonotcry imdepressed mellodramatic'
p45
aS'photo psychotixc'
p46
aS'photo'
p47
aS'photo'
p48
aS'photo'
p49
aS'photo'
p50
aS'photo sirdugs promise'
p51
aS'photo would handy'
p52
aS'tried died'
p53
aS'photo jwyo poems even love never'
p54
aS'photo'
p55
aS'photo lied okay gonna liei never'
p56
aS'photo gnijacamodelka bitch heart'
p57
aS'photo blackandwhitesuicide fucking hate relapsing fuck'
p58
aS'sorry alive wasn\xe2\x80\x99t choice'
p59
aS'photo'
p60
aS'photo'
p61
aS'photo'
p62
aS'photo equivoco133 broken heart'
p63
aS'photo westillhavetomorrow mostly black white adviceblog trigger warning'
p64
aS'photo'
p65
aS'photo relationship people bitches don\xe2\x80\x99t know count8'
p66
aS'photo depressedmale'
p67
aS'photo suicidalized bampw blog following back similar'
p68
aS'photo'
p69
aS'photo prettysuicidal suicide depression selfharm blog'
p70
aS'photo prettysuicidal suicide depression selfharm blog'
p71
aS'photo styleite lily allen comes musical retirement make john lewis'
p72
aS'video louisvandriesscheart stunning british christmas advert \xe2\x80\x98john lewis\xe2\x80\x99'
p73
aS'photo'
p74
aS'photo'
p75
aS'photo'
p76
aS'photo'
p77
asS'2013_47'
p78
(lp79
S'photo'
p80
aS'photo claricestarlings althestuffilike dichotomization devil\xe2\x80\x99s tramping ground wooded section'
p81
aS'photo 1734miles thatgirlwiththescars cutsandcuts jacoblasher thirteenreasonsnottolive'
p82
aS'fifteen thinking unzipping veins neil hilborn perfect'
p83
aS'photo pierxetheveil tonight alive wasting away'
p84
aS'photo'
p85
aS'photoset'
p86
aS'photo'
p87
aS'photo livingbeast jump heart'
p88
aS'mindcutcutcut need c\xe2\x80\x99mon dont need dont need dont stupid always'
p89
aS'photo'
p90
aS'photo'
p91
aS'photo'
p92
aS'photo'
p93
aS'photo'
p94
aS'photo setmefreefrommyself heart'
p95
aS'photo'
p96
aS'photo'
p97
aS'photo'
p98
aS'photo'
p99
aS'photo helpmeleave chanrel\xe2\x80\x94 sorry'
p100
aS'photo'
p101
aS'photo'
p102
aS'photo'
p103
aS'photo'
p104
aS'photo alicesmaliceworld fucking clue heart'
p105
aS'photo sweetnovember19 follow like'
p106
aS'photo ilovecharts sexting acronyms 1930s'
p107
aS'photo survivinginnumbers submitted email'
p108
aS'photo'
p109
aS'meladoodle meladoodle meladoodle granddad called tell cauliflowers'
p110
aS'photo'
p111
aS'photo'
p112
aS'photo'
p113
asS'2013_45'
p114
(lp115
S'photo'
p116
aS'photo b\xe2\x80\x94r\xe2\x80\x94ok\xe2\x80\x94e\xe2\x80\x94n please'
p117
aS'photo toallthebrokenpeople good night stay strong'
p118
aS'photo ialternativefashion tumblr heart'
p119
aS'ever days break ohbecause'
p120
aS'photo'
p121
aS'photo'
p122
aS'photo'
p123
aS'photoset shitborderlinesdo geekgirlsmash actual suicide prevention source source sure'
p124
aS'photo sadb0nes blog'
p125
aS'photo'
p126
aS'photo wipeawaythebadmemories gets much'
p127
aS'photo islaameliaoswald whosherlockedthestarkids frayfairchildmorgensternohmy looks like'
p128
aS'photo aperfectsuicid3 psychotictorture black white blog'
p129
aS'photo'
p130
aS'photo phyerfly depression doesn\xe2\x80\x99t care you\xe2\x80\x99re football team parties every weekend'
p131
aS'photo'
p132
aS'photo'
p133
aS'photo glorifiedanxiety wreckedblog phanequalsphriendship pharmaca hello everyone name danny'
p134
aS'photo rotten body flowers grow eternity'
p135
aS'photo'
p136
aS'photo rights 1214'
p137
aS'photo barakkats partoftheband nathansfavouritenightmare forebidden makes'
p138
aS'photo acrylic pastel spiritual'
p139
aS'photo'
p140
aS'photo existingindreamland anyone wants talk anything inbox always open'
p141
aS'dear wonderland alice8\xe2\x99\xa5'
p142
aS'photo'
p143
aS'photo'
p144
aS'photo sadb0nes'
p145
aS'photo neutral milk hotel8'
p146
aS'photo secondandsebring hopeless\xe2\x80\x94child'
p147
aS'photo'
p148
aS'photo existingindreamland suicidalatbestt musicandrazorblades blisfulness dreadfulsecrets'
p149
aS'photo'
p150
aS'photo'
p151
aS'photo'
p152
aS'photo worldfullofpain'
p153
asS'2012_42'
p154
(lp155
S'iphone free deal ends tomorrow'
p156
asS'2013_21'
p157
(lp158
S'hahaaad'
p159
aS'cant wait wednesday people dont twitter'
p160
asS'2013_22'
p161
(lp162
S'photo'
p163
aS'photo'
p164
aS'actually want marry olly murslt3'
p165
aS'aimieyou meant best friendyou said would kill anyone hurt meguess liedyou ditched meampnow make mewhy'
p166
asS'2012_49'
p167
(lp168
S'hate someone really sexy face hits mirror'
p169
aS'thought nice thought different turns like rest'
p170
asS'2012_21'
p171
(lp172
S'cant wait watch want ipad 23rd'
p173
asS'2012_20'
p174
(lp175
S'long take makeup morning dlt3lt3'
p176
asS'2013_5'
p177
(lp178
S'gone omfg'
p179
ag3
aS'nobodys perfect start judging reality check'
p180
aS'meeo joddiii gawwddlt33333'
p181
asS'2013_4'
p182
(lp183
g3
aS'loosing friend close makes feel like nothing'
p184
aS'prered lipstick 1940s'
p185
aS'make sure next time writing tweets'
p186
aS'rude'
p187
aS'like friend'
p188
aS'dont think tell'
p189
aS'like whats reasons'
p190
aS'ergh ignoring sent textsampquestions'
p191
aS'want long lasting relationship'
p192
aS'come marcus live watch'
p193
aS'info shows coming come different types venues different ages'
p194
aS'year relationship would complete without edit profile pictures cropped together'
p195
aS'saying goodbye probably hardest thing know last time even harder'
p196
aS'wanted talk herelt3333333333333'
p197
aS'people like shirt always look wearing'
p198
aS'like versus online pollthe tweets going crazy celebsdi'
p199
aS'think going todaygtlt3333333333333333333'
p200
aS'apparently thats says website anywaylt3333333333'
p201
asS'2013_7'
p202
(lp203
S'awesome photography3'
p204
aS'shoutout must following'
p205
aS'dyou like itlt3lt3lt3lt3'
p206
aS'feel unloved'
p207
aS'nice picturedlt3lt3lt3lt3lt3lt3lt3'
p208
aS'feel bedlaughing nowl'
p209
asS'2013_6'
p210
(lp211
S'whats boolt3'
p212
asS'2013_3'
p213
(lp214
S'askfm'
p215
aS'miss days didnt care wore noone would care'
p216
aS'wooh found yoult3lt3'
p217
asS'2013_2'
p218
(lp219
S'played open night orleans school playing songs people watching truelove'
p220
aS'passed theory test whooooooop george'
p221
asS'2013_9'
p222
(lp223
S'okay'
p224
asS'2012_8'
p225
(lp226
S'wheres vloog saan'
p227
aS'uploaded prank cause cant find'
p228
asS'2012_9'
p229
(lp230
S'give shout joddi please'
p231
asS'2012_5'
p232
(lp233
S'videos would really mean alot sorry tweets wouldnt llet'
p234
asS'2012_6'
p235
(lp236
S'made list things guys wanted nylah cant find anywhere'
p237
aS'haha read watching'
p238
aS'long left till vlog uploaded'
p239
aS'kitten sleep anywhere retweet said least'
p240
asS'2012_7'
p241
(lp242
S'typed jesse wellens google imaes keep scroling picture cookie'
p243
aS'haha cake shop england reminded xxxxx'
p244
aS'nominate shorty award videoblogger awesomesst funny generous'
p245
asS'2012_3'
p246
(lp247
S'true work hospital really good almost forgot team jeana'
p248
asS'2012_16'
p249
(lp250
S'tummy ache gtlt'
p251
aS'hello night nightt'
p252
aS'heeyy xxxx'
p253
asS'2012_14'
p254
(lp255
S'happy easter jeana nylah jessie lt33lt3'
p256
aS'found flicking friends photos facebook'
p257
aS'facetime call dancing around kitchen making cupcakes love'
p258
aS'dont mean dogs smarter'
p259
aS'wheres vloog'
p260
aS'malachi'
p261
asS'2012_15'
p262
(lp263
S'shoutout please saann'
p264
aS'nooo like youtube username sweet lt3lt3'
p265
aS'women harder lower'
p266
asS'2012_12'
p267
(lp268
S'nooo noow cant guys cause school tomorrow midnight fait'
p269
aS'phone tricks easy'
p270
asS'2012_13'
p271
(lp272
S'wait since refreshed page'
p273
aS'jesseee wheres vlog subscription'
p274
aS'jesseee wheres vlog'
p275
aS'wish could playlist meet'
p276
asS'2012_10'
p277
(lp278
S'free topshop makeup sprinkle glitter'
p279
asS'2012_11'
p280
(lp281
S'another haul video follow around vlog like sprikle glitter lt3lt3'
p282
asS'2012_50'
p283
(lp284
S'love yoult3333333333'
p285
aS'really want meet love spragganers forever\xe2\x99\xa5'
p286
aS'best friend'
p287
aS'knowwolt3'
p288
aS'cant believe union cheltenham missed themlt3'
p289
aS'knowlt3'
p290
aS'samelt3'
p291
aS'cant believe came cheltenha missed damn yoult33333'
p292
aS'want meet lucylt\xc2\xa33333333'
p293
aS'i\xe2\x99\xa5hertoo love'
p294
aS'spraggeners life\xe2\x99\xa5'
p295
ag3
asS'2012_19'
p296
(lp297
S'haha'
p298
aS'everybody hawmo'
p299
asS'2013_11'
p300
(lp301
S'bitchez staring canihelpyou'
p302
asS'2013_13'
p303
(lp304
S'twitter nameo'
p305
asS'2013_12'
p306
(lp307
S'dont worry babalt3'
p308
aS'whole life tore apartlt3'
p309
aS'hate lied tocheated disrespectedyoure'
p310
aS'love mwahhlt3'
p311
aS'dipshit guess youve talking charlotte'
p312
aS'phahaaa really'
p313
aS'mean'
p314
ag3
ag3
aS'whos thenlt3lt3'
p315
aS'finefine yoult3lt3'
p316
aS'helloolt3lt3'
p317
aS'thankss much appreciated'
p318
aS'youre gonna write tweet metag'
p319
aS'know'
p320
aS'youre 12stop complaining youve hurt many times youre pathetic idiots'
p321
aS'smell mushrooms feelsick'
p322
aS'snowing really march'
p323
aS'cinema today nathmolly brad yippeeee'
p324
asS'2013_17'
p325
(lp326
S'finally back twittero'
p327
asS'2013_19'
p328
(lp329
S'type inomgew'
p330
aS'shit'
p331
aS'ooooooooooohi knoooooooow'
p332
aS'train road oooooooooooh ambulanceseverywhere'
p333
aS'come back askfm misses youxoxo'
p334
aS'disabled askfm'
p335
aS'hate fake friends like youha nevershouldoftrustedyou'
p336
aS'hehe3'
p337
aS'always twitteryou dont talk'
p338
aS'knowo'
p339
aS'arwhi want meet tooooooooolt3lt3lt3lt3lt3lt3lt3lt3lt3lt3'
p340
aS'live life full'
p341
aS'great'
p342
aS'babyto1billion'
p343
aS'goodamparwhokaynight night baby'
p344
aS'arwh bbywhat'
p345
aS'thankyou sweetieamparwhokay better ltlt double'
p346
aS'heheits best profile picture says itso loves ityay\xe2\x99\xa5\xe2\x99\xa5\xe2\x99\xa5\xe2\x99\xa5\xe2\x99\xa5\xe2\x99\xa5\xe2\x99\xa5\xe2\x99\xa5\xe2\x99\xa5\xe2\x99\xa5\xe2\x99\xa5\xe2\x99\xa5\xe2\x99\xa5\xe2\x99\xa5'
p347
aS'perfect mean kfjshadfkjskjfska perfection'
p348
aS'yesssssssssssssssssssslt3lt3lt3'
p349
aS'oooh tell sommin thenolt3lt3lt3lt3lt3lt3lt3lt3lt3lt3lt3lt3lt3lt3lt3lt3lt3lt3'
p350
aS'deleted askfm like cryingomgnowhynolt3lt3lt3lt3lt3lt3lt3lt3lt3lt3lt3lt3lt3lt3lt3lt3'
p351
aS'hehe arwhlove bbylt3lt3lt3lt3lt3lt3lt3lt3'
p352
aS'welcomelt3lt3lt3lt3lt3lt3lt3lt3lt3lt3lt3lt3lt3'
p353
aS'dear blackberry toobut dont ithehe simi want numberolt3lt3lt3lt3lt3lt3lt3lt3lt3lt3lt3lt3'
p354
aS'samsung galaxy acewith smashed screenllt3lt3lt3lt3lt3lt3lt3lt3lt3lt3lt3'
p355
aS'know songaha much though3 hehelt3lt3lt3lt3lt3lt3lt3lt3lt3lt3lt3'
p356
aS'goshi knowseems happen alotlt3lt3lt3lt3lt3lt3lt3lt3 happend againomg'
p357
aS'tweeted youbut forgot send itwoopsiesslt3lt3lt3'
p358
aS'heyalt3lt3lt3lt3'
p359
aS'heywhts wrong bbby'
p360
aS'coughand dont cover mouthi entire existence'
p361
as.