(dp0
S'2013_41'
p1
(lp2
S'real'
p3
aS'aware kansas explicite interview videos last year name ruganty'
p4
asS'2012_44'
p5
(lp6
S'trash decompose garbage'
p7
asS'2012_47'
p8
(lp9
S'cant wait seehear evidence said baez shaken'
p10
aS'information tonight'
p11
aS''
p12
aS'pipitone present evidence caylee anthonys murder tonight info story tomorrow night'
p13
aS'evidence told tonight orlando tvpiupitone show never seenheard evidence caylee anthonyand murder points'
p14
asS'2012_41'
p15
(lp16
S'holly answering knew wasnt real cindy knowledgable thought would know answer'
p17
asS'2014_35'
p18
(lp19
S'hello cindya'
p20
asS'2013_20'
p21
(lp22
S'need learn ptsdlook steven siblings travis'
p23
aS'probation violation afelon communicating another soon stopped'
p24
aS'crazy following listand want show hypmocrityou'
p25
aS'victim tell donovan coach creeperjodie'
p26
aS'victim donovan lieing murder whatsure hell domestic abuse shes liar survivor'
p27
aS'alyce lavioletta'
p28
aS'like stole dior guessgot papers yetyou'
p29
aS'donovan writing book birds feather'
p30
aS'soon taken awaydonovan felon cant talk creeperi call jodieanother felon'
p31
aS'convicted murdererbut felon matter long'
p32
aS'cause life paarole really real abuse'
p33
aS'creeper black white stripes lmao doesnt even look good'
p34
aS'ones ordering ones crazy site'
p35
aS'millions going clear traviss good name show lied'
p36
aS'forgives askbut wont ever asyou dont know truth admit guilt'
p37
aS'thank lord guiding jurors correct verdict'
p38
aS'alone hours dayon'
p39
aS'site disgusting hope know using'
p40
aS'said hours'
p41
aS'death alone hours'
p42
aS'would send family penny fools'
p43
asS'2014_33'
p44
(lp45
S'blaisse could initials stand casey mckenna hadnt seen misskriskmc42826'
p46
asS'2013_22'
p47
(lp48
S'sorry slaughtering travis lies lieing abuse travis sympathy caught'
p49
asS'2013_23'
p50
(lp51
S'started following seeing photo casey anthonys house please street address'
p52
aS'hello stranger miss still hugs dear friend'
p53
aS'give donovan media attention makes sick liar like creeper jodie'
p54
aS'gerri lord control'
p55
asS'2013_5'
p56
(lp57
S'reported casey anthony reporting conversation cheney mason true'
p58
aS'amen lloyd'
p59
aS'amen'
p60
aS'case didnt captivate nationa little beautiful girls murder'
p61
aS'casey lloyd'
p62
asS'2013_6'
p63
(lp64
S'could caare less likes noti follow want noseylol'
p65
aS'five natural room scents herbs spices fruits'
p66
aS'invite'
p67
aS'bullying attack leaves coma news blogs yahoo'
p68
aS'adding blaisseand love tweets'
p69
aS'christopher dorner manifesto uncensored'
p70
asS'2012_6'
p71
(lp72
S'hello rochelle friend right lolif nothello anyway'
p73
asS'2012_7'
p74
(lp75
S'glad found youherewondered youve hadnt seen hugssss'
p76
asS'2012_15'
p77
(lp78
S'hello rochelle dont twitter oftnen thought would today hope great miss dear friend11'
p79
asS'2011_41'
p80
(lp81
S'dear daughter jsut found hope wonderful love miss youxoxoxoxoxo'
p82
asS'2012_18'
p83
(lp84
S'said caylee drowned poolhoiow pool even look everyday'
p85
asS'2013_35'
p86
(lp87
S'still sending jodie gifts books anything else'
p88
aS'many times talked seen jodie since trial'
p89
asS'2013_15'
p90
(lp91
S'justice travis abut give money make state trial'
p92
asS'2013_17'
p93
(lp94
S'pray aleander family gets every penny'
p95
aS'made well 1000000 poor traviss slaughter meaning family sick friends'
p96
aS'puking grave'
p97
aS'creepers drawing photo guess jeans andselling'
p98
aS'help domestic vilence joke abused slaughtered travis'
p99
aS'perpetual liar murderer fraud'
p100
aS'sell artyou traceddrew photos guess jeans'
p101
asS'2013_16'
p102
(lp103
S'jodie admitted guilt murderer follow wrong'
p104
aS'hands hide fold eachother horrible hands given talent chose kill'
p105
aS'caught justice travis'
p106
aS'flip camera today donovan beringshame'
p107
aS'believe tendons fingers wounds killing travis'
p108
aS'jodie satans spawn'
p109
aS'tell evidence abuse travis court none'
p110
aS'better yell stab decapitate almost shoot'
p111
aS'jodie made 1000000 already ebay shut'
p112
aS'donovan bering love jodie cant tell'
p113
aS'twitter jodie brought court today shut'
p114
aS'jodiearies site well blood money murderers'
p115
aS'needs look butcher photos jodie nothing evil creepgt'
p116
aS'heydan stoodstand twit anthony right'
p117
aS'anyone believe anything dont think anyone'
p118
asS'2013_19'
p119
(lp120
S'jodie convicted slaughtered travis'
p121
aS'convicted luxuries like donovan tweeting'
p122
aS'words choke jodie jury ever convict'
p123
aS'degree murder premeditatedwheres nastiness wheres smuggy grins'
p124
aS'guilty degree murder premeditated thank jesus'
p125
aS'blames forgot squirt jodie walljustice travis'
p126
aS'buttrumped maybe times yearswonder crap stays hole'
p127
aS'also proof reports solt womens sheltersalso reports xrays jodie'
p128
aS'actually needs oooo mean women would'
p129
aS'tendon butchered travis'
p130
aS'survivor every kind abusethanks doesyour disgrace survivors jodie creeper'
p131
aS'already gotten fight course creeper said inmates fault'
p132
aS'received court papers dior guess'
p133
aS'taxpayers lots money'
p134
aS'slaughted travis also keep talking admitted guilt'
p135
aS'creeper name satans spawn'
p136
aS'trying protection naaa liar butcher'
p137
aS'doesnt doyouve never abused'
p138
asS'2013_18'
p139
(lp140
S'perhaps already haslol'
p141
aS'tell fight jail blamed saying also self defense'
p142
aS'juans lies butcher photos travis shows lies'
p143
aS'plastered online naked tell allhow many years fducked said times'
p144
aS'tell funny lawyer saying dont like jodie days'
p145
aS'dont think thought butchering talent screwing'
p146
aS'dont know love'
p147
aS'whose sperm donated panties'
p148
aS'drawing butchering hands ugly like'
p149
aS'using thousands proifiting taxpayers back'
p150
aS'feel millions watching praying death penalty justice travis'
p151
aS'commissary costs money family also profiting'
p152
aS'agree dont think travis even knew thereno photo shootshe used timer'
p153
aS'slammed tile wouldnt able breath lies'
p154
aS'slaughtering travisshe devil worships'
p155
aS'thinks soon disappeared dust'
p156
aS'also went trash flipped hair'
p157
aS'diagnosed ptsd survivor every form abuse liar'
p158
aS'people meet creepergtjodie arias'
p159
aS'cant stand negative talk tell truthshe ugly look hands'
p160
aS'wanted fluff hair narssasist loves'
p161
aS'ugly murderous hands tell dark empty bottomless pits eyes jurys verdict coming soon'
p162
aS'stolen photos lies abused woman lies yoga truth'
p163
aS'amit needed euthanize immediately'
p164
aS'justice travis lets smirk today'
p165
aS'today justice travis'
p166
aS'time next week hopefully death days justice travis prevail'
p167
aS'also perhaps large cork plug butt hole grosssss'
p168
aS'belongs dior pieces guess several owners'
p169
aS'also butt practice often said maybe times'
p170
aS'headstand bending interrogatd'
p171
asS'2012_32'
p172
(lp173
S'hello allie remember joined group fbsissym nice checking things well'
p174
asS'2013_38'
p175
(lp176
g12
aS'heard mckenna married'
p177
aS'reply'
p178
aS'connections connections know'
p179
ag12
aS'sent page several justice caylee people'
p180
asS'2014_29'
p181
(lp182
S'lots pics brothers pppllleeeaaaseee sing'
p183
asS'2014_28'
p184
(lp185
S'hello dear granddaughterluv xoxo'
p186
asS'2014_25'
p187
(lp188
S'spiders exist dear make scream'
p189
aS'hello dearest granddaughter'
p190
asS'2013_21'
p191
(lp192
S'seen interview creeper night guilty verdict'
p193
aS'seen happened jurors left croom'
p194
aS'cause scamming'
p195
aS'prob already making jodieisinnoscent site scammers'
p196
aS'agree travis victim jodie stalkerabuser'
p197
aS'crazy call show'
p198
aS'defensing onself different slaughtering someone'
p199
aS'jodieariasis innoscent site owner scammer scammer jodie would around kind'
p200
aS'murder photos tell whole storyfacts'
p201
aS'jodie casey anthony honest people world'
p202
aS'would want butcher'
p203
aS'could jodie take travis life abuse slaughtered horrible'
p204
as.