(dp0
S'2013_42'
p1
(lp2
S'eating cadburys misshapes cadbury store think tommorow'
p3
aS'october november december best months year'
p4
aS'good choice'
p5
aS'much cheaper would rather extra money'
p6
aS'think looks much better'
p7
aS'played hour game monopoly wonit intense\xf0\x9f\x98\x85'
p8
aS'feeling jealous right'
p9
aS''
p10
aS'iphone'
p11
aS'taylors'
p12
aS'want dresses strictly prom dress\xf0\x9f\x91\x97'
p13
aS'changed facebook profile picture years'
p14
aS'golden wrap awesome series thanks everyone made special'
p15
aS'long weeks filming finally tdg2 time wrap party'
p16
aS'cant remember last time saturday morning'
p17
aS'thanks sweet'
p18
aS'begging year sister spongbob'
p19
aS'many people moan plans make soms damn plans'
p20
aS'tonight found friend youve talking faced'
p21
aS'dint even care class test proud physics'
p22
aS'nice takeaway trampolining best'
p23
aS'baby glitter2 adorable funny watchhurry third laugh darcys cuteness'
p24
aS'childhood favourite story tracy beaker could never decide favourite character though dilemmas'
p25
aS'fantastic back waterloo road youre brilliant actor'
p26
aS'everyone keep saying theres point school tomorrow point dont'
p27
aS'another series'
p28
aS'hell goat waterloo road'
p29
aS'grantly appreciation tweet waterlooroad'
p30
aS'couldnt teachers strike friday would make much sense instead back school'
p31
ag10
aS'would like dedicate tweet teachers morning'
p32
aS'dont sarcastic'
p33
aS'looks drop'
p34
aS'fuck happened screen'
p35
aS'hair extensions look cheap vile'
p36
aS'really wanna sitc line'
p37
aS'whyilovezaynmalik telethon7'
p38
aS'basically three hair styles straight wavy homeless'
p39
aS'voice incredible'
p40
aS'dont care people think abraham mateo'
p41
aS'wanna everyone goes brendans'
p42
aS'sixth form going might going mangotsfield'
p43
asS'2013_43'
p44
(lp45
S'crying'
p46
aS'please stawp'
p47
aS'thankyou following'
p48
aS'thieves stolen crates bull people sleep night'
p49
aS'serious anger issues comes'
p50
aS'yeah'
p51
aS'already filled billion since year'
p52
aS'book millies sarcasm'
p53
aS'youre lazy time'
p54
aS'came school today assembly'
p55
aS'australian accents beautiful thing ever'
p56
aS'rugby players assembly'
p57
aS'things good haha wait'
p58
aS'halloween shopping millie saturday halloween party getting excited'
p59
aS'agree drunken mess'
p60
aS'hate adverts nothing theyre selling'
p61
aS'girl expensive'
p62
aS'looking forward sophs halloween party'
p63
aS'getting always much harder winter'
p64
asS'2013_40'
p65
(lp66
S'please baby glitter soon'
p67
aS'want hour english mock tomorrow like nope nope nopety nope'
p68
aS'free wifi human right'
p69
aS'bourbons icecream breakfast perf'
p70
aS'boring friday night'
p71
aS'love family guys'
p72
aS'video little ranty moment hope like'
p73
aS'meangirlsappreciationday trending fetch'
p74
aS'drum roll pleasegromit lightyear sells mindblowing \xc2\xa365000 gromitauction overwhelmed'
p75
aS'hate lisa girl waterloo road'
p76
aS'sorry hear'
p77
aS'whats'
p78
aS'basically said never built house problem building house sorry'
p79
aS'girlfriend wants another girl tweeting talking texting thinking looking'
p80
aS'hate'
p81
aS'cant sleep blocked nose'
p82
aS'nintendo dogs left since 2008'
p83
asS'2013_41'
p84
(lp85
S'yeah'
p86
aS'replied back'
p87
aS'forever prettythinsmartfunny'
p88
aS'find cure cure cystic fibrosis curecf curecf curecf'
p89
aS'years still love tracy beaker tracy beaker returns dumping ground'
p90
aS'good mumma winter clothes'
p91
aS'happy 16th birthday billy good'
p92
aS'rightx'
p93
aS'everyones world'
p94
aS'nathan better'
p95
aS'pleaseit make week rubbish week'
p96
aS'follow pleaseit make week rubbish week'
p97
aS'good afternoon longest best sleep last night didn\xe2\x80\x99t wake afternoon\xe2\x80\xa6'
p98
aS'waterloo road crying'
p99
aS'first grantly waterloo road done'
p100
aS'grantly dead'
p101
aS'ummmmmm'
p102
aS'youre nasty stay away friends annoyed right'
p103
aS'dont worry terrible hockey give looks cant play crap'
p104
aS'song'
p105
aS'nope'
p106
ag10
aS'thingsthatannoyme girls visible orange foundation lines'
p107
aS'luckily text back quite quickly'
p108
aS'well done'
p109
aS'guess'
p110
aS'forgetting someone'
p111
aS'whole world'
p112
aS'nathans better'
p113
aS'bitch peoples slug like eyebrows'
p114
aS'hate tuesdays mondays'
p115
aS'theres many chavs school vile'
p116
aS'cheated suck left another happens everyday many cont'
p117
asS'2013_46'
p118
(lp119
S'matthew wright nothing respect'
p120
aS'matthew shared fears gonna voted every week'
p121
aS'tell series celebrity gonna hilarious'
p122
aS'santa needs notebook make years naughty nice list giftforsanta'
p123
aS'hair dryer beard giftforsanta'
p124
aS'guess dont like yellow team'
p125
aS'dont mind eating testicles penises long theyre hard dead'
p126
aS'monday tomorrow'
p127
aS'joeys face jumped imaceleb joeyessex'
p128
aS'joey essex already favourite'
p129
aS'everyone different opinions'
p130
aS'joey dumb'
p131
aS'want joey celebrity joeyessexkingofthejungle'
p132
aS'dunno'
p133
aS'annoyed'
p134
aS'fact case'
p135
aS'dont look terrible sake'
p136
aS'shut'
p137
aS'learn japan umnothing really present direction'
p138
aS'appreciate fetus niall'
p139
aS'pushing level bravery'
p140
aS'mcbusted make happy'
p141
aS'cant believe dates added tomorrow morning happy proud husband'
p142
aS'sometimes night shining armour retard foil'
p143
aS'everything happens reason'
p144
aS'wish good something'
p145
aS'mcbusted make happy'
p146
aS'teachers'
p147
ag10
aS'\xe2\x80\x9chunting sport sport sides know theyre game\xe2\x80\x9d'
p148
aS'hangs friend goes home calls friend'
p149
aS'shorter person'
p150
aS'celebrity tonight sundays sorted\xf0\x9f\x91\x8c\xf0\x9f\x91\x8d'
p151
aS'life picture'
p152
aS'thankyou everyone came tonight happy 18th'
p153
aS'party'
p154
aS'brothers early meet friends dont worry noise making like people sleeping'
p155
aS'good view going upside random photo trampolining'
p156
aS'live emersons green childreninneed'
p157
aS'donate children need every retweet tweet gets last year donated lets'
p158
aS'haha'
p159
aS'dont'
p160
aS'dont energy argue even though typing mylogic'
p161
aS'ummm'
p162
aS'would rather'
p163
aS'hate passenger cant even sing'
p164
aS'fact girls wear extensions fake lashes every astounds cant even bothered dressed'
p165
aS'nope nathan better'
p166
aS'steak isnt nice'
p167
aS'nathan cutie'
p168
aS'performance great'
p169
aS'children need rocks bbc1'
p170
aS'happy 18th birthday ugly brother\xf0\x9f\x8e\x81\xf0\x9f\x8e\x89\xf0\x9f\x8d\xba\xf0\x9f\x8e\x82'
p171
aS'austin wants million followers year follow pleasex'
p172
ag10
aS'fluffy blankets water bottles reason like time year'
p173
aS'nothing ever seems'
p174
aS'smile enemies hate'
p175
aS'bestfriend bitchy'
p176
aS'interested history topic learning moment great'
p177
aS'gcse history isnt good'
p178
aS'excellent results 11at2 today oneproudteacher'
p179
aS'naughty year find stocking youvebeenwarned'
p180
aS'literally person give relationship advice never relationship'
p181
asS'2013_47'
p182
(lp183
S'okay'
p184
aS'millie anyway'
p185
aS'hoping chance'
p186
aS'dont usually tweet much'
p187
aS'winter jumpers best'
p188
aS'christmas days'
p189
aS'really christmasy mood today'
p190
aS'still dont know shoes going wear dress tildas next week dilemma'
p191
aS'bath shopping today mother father'
p192
aS'hair'
p193
aS'celebrity'
p194
aS'joey essexs died school years couldnt concentrate bullied didnt learn think'
p195
aS'joey definitely floor morning'
p196
aS'excited tildas'
p197
aS'childhood remember months hahaha'
p198
aS'omfg'
p199
aS'happy 13th birthday kate cant believe much grown sorry havent spoke much lately'
p200
aS'thought couldnt properly tell time till alone 2324 able joeyessex'
p201
aS'joey essex funny ahaha'
p202
aS'joey'
p203
aS'converse pretty much type shoes wear'
p204
aS'pert absolute genius\xf0\x9f\x91\x8c\xf0\x9f\x98\x82'
p205
asS'2013_44'
p206
(lp207
S'cuddle cute word cuddle'
p208
aS'amused'
p209
aS'fair last night good night'
p210
aS'thanks'
p211
aS'thing people army uniform'
p212
aS'fair enough'
p213
aS'whole party witnesses matt getting cosy'
p214
aS'bestfriend'
p215
aS'drinking last night'
p216
aS'wouldnt thought liked lewis'
p217
aS'powerful retweet fighting ones'
p218
aS'glad used'
p219
aS'rest night hugging hands waist flirty'
p220
aS'leave alisha decided finish drink obviously downed instead'
p221
aS'sober people cough henry cough'
p222
aS'tilda jess henry sophie mess henry'
p223
ag10
aS'millie nice heart heart sophies party last night'
p224
aS'people though'
p225
aS'matt give cuddle honestly adorable'
p226
aS'haha extremely hyper though'
p227
aS'didnt drink much fine'
p228
aS'haha'
p229
aS'feeling rough'
p230
aS'christmas next month sink'
p231
aS'huge headache going tonight badtimingheadache'
p232
aS'good shannah'
p233
aS'fair enough dont want stumbling drunk high heels'
p234
aS'happy halloween everyone'
p235
aS'millie cant wear heels costumes'
p236
aS'hate journeys'
p237
aS'freshers good series\xf0\x9f\x91\x8c'
p238
aS'okay thanks'
p239
aS'news'
p240
aS'good playing'
p241
aS'finding injection soon want right ihateneedles'
p242
aS'wish could stay till 101030 everyday'
p243
aS'love bestfriend matching halloween costumes'
p244
aS'storm last night didnt hear anything usually wake night hear anything'
p245
aS'gail force winds sunday night hahaha'
p246
asS'2013_45'
p247
(lp248
S'cant wait michael buble christmas album tweet'
p249
aS'lest forget'
p250
aS'lestweforget remembrancesunday'
p251
aS'looking forward brothers 18th next week'
p252
aS'good sadie tilda jesse'
p253
aS'dont'
p254
aS'ordered dressx'
p255
aS'didnt bother talking bother talking hate fall'
p256
aS'hate people twig slim thankyou twig'
p257
aS'wide awake eeek long ahead cant wait guys later signing check'
p258
aS'going blanket idea right cold thanks idea'
p259
aS'feel like hardly people understand anymore'
p260
aS'absolutely positively want double english friday'
p261
aS'photographer decided take photo straightened arms'
p262
aS'obviously land front somersaults weeks look crap'
p263
aS'front somersaults trampolining nearly year week best friends week like enemies'
p264
asS'2013_27'
p265
(lp266
S'actually like early'
p267
aS'love weather'
p268
aS'fair play well played'
p269
aS'katie fantastic runner'
p270
asS'2013_31'
p271
(lp272
S'whenever hear shes lovely imagine georgia running streets stuffed olive'
p273
aS'found cimorelli back think really talented sisters'
p274
aS'people slag parents facebook ungrateful idiots swap life orphan'
p275
asS'2013_28'
p276
(lp277
S'people find bacon nice vile'
p278
aS'everybody gets judged badly prom much pressure look perfect'
p279
aS'messages person person doesnt reply doesnt feel like talking person anymore doesnt repl\xe2\x80\xa6'
p280
ag10
asS'2013_37'
p281
(lp282
S'days till christmas'
p283
aS'know dusted cleaned room things moved shelf'
p284
aS'trampolining friday'
p285
asS'2013_36'
p286
(lp287
S'ever scared walk past group teenagers even though also teenager'
p288
aS'people complaining nothing friday good trampolining session cosmos trampolining club yate'
p289
aS'chavs chavs everywhere'
p290
aS'happy 15th birthday jess'
p291
aS'cannot wait bristol rovers bristol city tweetsstatuses'
p292
aS'double english week fridaysno break inbetween'
p293
aS'haha sarcastic'
p294
aS'last tommorow morning'
p295
aS'thought school makes feel sick like really really dont wanna back'
p296
aS'expecting invite party soon'
p297
aS'writing dads 25th wedding anniversary card struggled write forgotten write properly'
p298
aS'pics full strictly come dancing lineup year'
p299
asS'2013_35'
p300
(lp301
S'christmas want summer summer want winter'
p302
aS'going short stressful year school'
p303
aS'england'
p304
aS'swear like april last week'
p305
aS'sort likes strictly come dancing'
p306
aS'question spit fans lost respect towards'
p307
aS'tuna mayo jacket potato lush bacon'
p308
aS'smell petrol amazing\xf0\x9f\x91\x8d'
p309
aS'fair enough raisins arent worst food world bacon bacons disgusting'
p310
aS'praying poor souls going back school soon'
p311
aS'trying make miley cyrus joke twerking'
p312
aS'hate raisins shannah'
p313
aS'dreading school'
p314
aS'feature wall wallpaper natural colour round rest room'
p315
aS'2000000 subscribers last night congratulations little'
p316
aS'realising back school next wednesday next tuesday feeling happy extra school'
p317
aS'people lift weights arms tired putting hair ponytail'
p318
aS'excited winter wear cosy comfy clothes'
p319
aS'rules texting girl dont take minutes reply good grammar questions face'
p320
aS'dont smoke cigarettes'
p321
aS'knew harry asthma didnt know niall'
p322
aS'know havent grown know words spongebob theme tune'
p323
aS'guys enjoy much sooo nice meeting'
p324
aS'austin mahone singers deserved famous well done austin come long'
p325
aS'airmax'
p326
aS'abraham incre\xc3\xadbles ventilador inglaterra quiero'
p327
aS'hell happened miley cyrus'
p328
aS'barber asshole'
p329
asS'2013_34'
p330
(lp331
S'feliz cumpleanos abrahammateofelizcumple'
p332
aS'happy 15th birthday abraham feliz cumpleanos abrahammateofelizcumple'
p333
aS'getting point many lieins forgotten liein like'
p334
aS'also never felt happy thank everyone kind supportive lucky girl love'
p335
aS'birthday tommorow'
p336
aS'well done aswell sweet amazing gradesx'
p337
aS'well done year science grades'
p338
aS'three year science ones even though second science still badly wanted'
p339
aS'happy year science results'
p340
aS'good luck'
p341
aS'tonight consists making playlist sleep tomorrow results'
p342
aS'wouldnt worry gcse results honest passed girl thought sharks mammal\xe2\x80\xa6'
p343
aS'matilda'
p344
aS'drag school'
p345
aS'better start school though'
p346
aS'well summer holidays done holiday sleep'
p347
aS'love photo'
p348
aS'except trampolining fridays'
p349
asS'2013_33'
p350
(lp351
S'tweet true'
p352
aS'wasnt great either love'
p353
aS'spell word wrong spell check like dont know tell'
p354
asS'2013_32'
p355
(lp356
S'nothing better come home holiday back'
p357
asS'2013_17'
p358
(lp359
S'shoes look cool'
p360
asS'2013_16'
p361
(lp362
S'follow everyone tomorrow good night real time love'
p363
aS'nawwwh look poor baby operation nawwwh'
p364
aS'alright'
p365
asS'2013_19'
p366
(lp367
S'haha'
p368
asS'2013_18'
p369
(lp370
S'hype tops horrible geek tops'
p371
asS'2013_39'
p372
(lp373
S'people hair grown faster putting something hair work sounds like nonsence'
p374
aS'girl year posters around school today amen'
p375
aS'need invest jumpers winter'
p376
aS'shut hair nice'
p377
aS'looking prom dresses'
p378
aS'people shouldnt able tell stories things like factor gives unfair advantage'
p379
aS'yanke candles'
p380
aS'thank makeup'
p381
aS'twitter complaining life problems jeeeez'
p382
aS'never seen people walk past house'
p383
aS'wish christmas would hurry start decorating\xf0\x9f\x8e\x85\xf0\x9f\x8e\x84'
p384
aS'strictly come dancing'
p385
aS'chilled friday night dominos pizza'
p386
aS'hate peoples foundation darklight skin'
p387
aS'barry barry waterloo road'
p388
aS'yeah text'
p389
aS'trust friends hang around break lunch nobody else shown clearly today'
p390
aS'idea'
p391
aS'text girl first'
p392
aS'youve boyfriend icecream think know whos best'
p393
aS'train food gonna answer questions twitter keep mind food'
p394
aS'firstly loved tracy beaker returns whats like actor'
p395
asS'2013_38'
p396
(lp397
S'favourite colour tealturquoise swear obsessed things colour'
p398
aS'first official autumn'
p399
aS'cannot stand piercings tattoos'
p400
aS'\xc2\xa31000 shopping spree autumn clothes would perfect please'
p401
aS'shrek three'
p402
aS'love mornings says nobody ever'
p403
aS'candy crush addictive'
p404
ag10
aS'need sarcasm'
p405
aS'spider'
p406
aS'could drive would drive hours nowhere particular listening music escape everything'
p407
aS'kevin slut waterlooroad'
p408
aS'perfect skin please\xf0\x9f\x99\x8c\xf0\x9f\x99\x8c'
p409
aS'almost 2014 like past years gone'
p410
aS'cant wait winter'
p411
aS'dont hurt'
p412
aS'haha'
p413
aS'timeline right talkin bout lonely'
p414
aS'alfie used love doctors waiting room'
p415
aS'found best ever'
p416
aS'girls know brothers'
p417
aS'girls play fifa boys like cringe'
p418
aS'christmassy mood'
p419
asS'2013_15'
p420
(lp421
S'love singing voice'
p422
as.