(dp0
S'2013_9'
p1
(lp2
S'lkshaw'
p3
aS'poetry alpha centuri poetry bagel poetry final fantasy poetry willy wonkas psychedelic boat'
p4
aS'poetry'
p5
aS'stadium poetry'
p6
aS'laptop poetry'
p7
aS'always call always online'
p8
aS'want shop like tracey emin shop 1992'
p9
aS''
p10
aS'think gonna'
p11
aS'reading clancy martin thing muumuu house seemed like best thing read tbqh'
p12
aS'seems like reading rontel changed approach exclamation points'
p13
aS'damn bucket'
p14
aS'nicki minaj lyric goes fuck give damn bucketlol'
p15
aS'life easy life like yeezy life dont panic guacamole exists'
p16
aS'listen mixtape tell think facebook friend like literature'
p17
aS'since stopped tweeting lkshowbiz really foxy brown thats thing wanted tweet know nobody cares'
p18
aS'fine'
p19
aS'guess main thing quitting twitter writing poetry instead'
p20
aS'thing quitting twitter'
p21
aS'thing quitting twitter'
p22
aS'great american kanye poem'
p23
aS'poem literature'
p24
aS'weeks issue time really flies producing mixtapes'
p25
aS'anyone interested inteviewing lkcovering shabby doll house something email issue weeks'
p26
aS'support local girl gang'
p27
aS'guys listen mixtape'
p28
aS'mixtape playing another making feel like human deep altlit'
p29
aS'mixtape feat'
p30
aS'mixtape features'
p31
aS'shabby doll house mixtape online'
p32
asS'2013_8'
p33
(lp34
S'shabby doll mixtape coming tuesday'
p35
aS'photo moontempleuniverse package moon temple really restless want contest thing'
p36
aS'shaw band called indigo first dropped uoyiea record label'
p37
aS'writes episode joyce johnson kerouac'
p38
aS'support local girl gang'
p39
aS'support local girl gang thought catalog'
p40
aS'indigo shaw'
p41
aS'submissions closed thank everybody submitted back shortly'
p42
aS'look person sitting next communicate something face isnt looking bother'
p43
aS'submissions close midnight tonight'
p44
aS'find'
p45
aS'mean'
p46
aS'illuminati girl gang online'
p47
ag10
aS'seems like least could'
p48
aS'neither would like forget'
p49
ag10
aS'issue three illuminati girl gang'
p50
asS'2013_24'
p51
(lp52
S'original work'
p53
ag10
aS'summer issue coming june eighteenth line'
p54
aS'week summer issue line coming soon'
p55
asS'2013_25'
p56
(lp57
S'story posologie'
p58
aS'inside frightened beast wild fucking horizon'
p59
aS'wild dogs vicki tingle wild dogs fucking horizon alone andit coldthere'
p60
aS'damn thank please know ever write would love'
p61
aS'stumbled upon really evokes lurking inner'
p62
aS'photo poems shabby doll house summer alone matthew landy'
p63
aS'poems'
p64
aS'anybody wants write issue anything want interview sarah jean'
p65
aS'afraid human body tonight shove half calzone face watch'
p66
aS'canadian poetry\xe2\x80\x99s unlikely renaissance want comment shabbydollhouse even though'
p67
aS'shabbydollhouse badass shit like people write shit'
p68
aS'really happy shabbydollhouse poems lyndsay coloracci'
p69
aS'whats cooler poem word lines aliens nothing read issue shabbydollhouse'
p70
aS'reviewed issue'
p71
aS'encourage guys check amazing pieces'
p72
aS'night city summer'
p73
aS'check issue good writing dope artwork'
p74
aS'poem wild dogs summer issue'
p75
aS'havent even gotten dressed today heres story wrote thats online stuff'
p76
aS'excited lonely poems really good'
p77
aS'fuck road fault lying asphalt slick warm alive booki\xe2\x80\xa6'
p78
aS'love story illustration'
p79
aS'happy part issue shabby couldnt happier accompaniment beau\xe2\x80\xa6'
p80
aS'story summer edition shabby doll house broke every heart'
p81
aS'drawing summers shabby doll house'
p82
aS'resulting good advice serge astapkov illustrated'
p83
aS'thing issue visual'
p84
aS'check summer edition online'
p85
aS'look look drawing also check poem'
p86
aS'look read enjoy'
p87
aS'summer edition features'
p88
aS'summer edition online'
p89
aS'almost show time'
p90
aS'well respond asap'
p91
aS'hello thank submitting reply everybody submissions open ongoing forthcoming issues'
p92
aS'summer issue'
p93
aS'hooray summer issue coming june eighteenth line'
p94
asS'2013_26'
p95
(lp96
S'keep trying reconcile love music feminist ideals'
p97
aS'nearly cried like cats much'
p98
aS'romantic idea myspace'
p99
aS'sometimes walking street think seriously thats alien'
p100
aS'want treated like dignity realize start'
p101
aS'people'
p102
aS'keep picturing iceberg sunk titanic andy warhols'
p103
aS'chapbook called ulysses'
p104
aS'shooting outside babies last night many questions'
p105
aS'difficult beautiful easy appear'
p106
aS'road signs thought shabbyville excited'
p107
aS'imagine everything gain thats something lose long enough timeframe life'
p108
aS'feel feel feel sitting milligrams oxycodone'
p109
aS'referring cake roommate making girlfriend fuck whole afternoon shit'
p110
aS'interview'
p111
aS'shaw creator online zine'
p112
aS'short story mine television crashes published last week'
p113
aS'2010 great year feel'
p114
aS'tumblr'
p115
asS'2013_27'
p116
(lp117
S'bitch might shr\xc3\xb6dingers'
p118
aS'supercomputer ebook wrote 2011 available viewdownload scribd'
p119
aS'news dennis cooper liked book sweet books'
p120
aS'imagine someones mother watching grow adult become person cant'
p121
asS'2013_20'
p122
(lp123
S'girl want crispin best'
p124
aS'feel coming'
p125
aS'whoops forgot submit shabby doll house whatstheoppositeofboost'
p126
aS'often seems like think love poem hear read know love poem like ever'
p127
aS'sarah jean told reading shabby doll poetry submissions loud smart girl'
p128
aS'mean cmaawn guys loving much'
p129
aS'okay submissions officially closed summer issue thank'
p130
aS'mixtape available online'
p131
aS'schofield mixtape'
p132
aS'dumb thought someone else twitter'
p133
aS'recorded reading cigarettes mixtape'
p134
aS'tape features'
p135
aS'mixtape features'
p136
aS'mixtape vol2'
p137
aS'interview publishing genius'
p138
aS'hello friends video everyday genius'
p139
asS'2013_21'
p140
(lp141
S'talk want sudden want'
p142
aS'therapist condom aisle therapist condom aisle abort abort'
p143
ag10
aS'summer issue june 18th thank'
p144
aS'also pretty monumental 666th tweet went'
p145
aS'summer issue live super psyched'
p146
aS'much homeboy ever suppose'
p147
aS'sabrina teenage witch video drive crazy britney spears tryna produce'
p148
aS'listening audiobooks freakin menial tasks highly recommended'
p149
aS'sarah jean never logs'
p150
aS'process'
p151
aS'main message convey twitter account look feel better life okay'
p152
aS'feel much capable maintaining great tumblrya feel'
p153
aS'honest dont really know twitter account'
p154
aS'trying nothing great difficulty'
p155
asS'2013_22'
p156
(lp157
S'every time someone starts fairy murdered cold blood'
p158
aS'poem appeared'
p159
aS'youre memorial great submit banango streets issue best even'
p160
aS'bros said raise kids baseball football basketball soccer ball golf ball floor'
p161
aS'product spend money want'
p162
asS'2013_23'
p163
(lp164
S'less weeks summer issue'
p165
aS'course submissions closed summer issue ongoing future issues info'
p166
aS'thing wrote moonbound feel'
p167
asS'2013_28'
p168
(lp169
S'friday following cmawn guys'
p170
aS'sincerely said thank much past year plants threw trashbag packe\xe2\x80\xa6'
p171
aS'drop like chances living past'
p172
aS'reading brooklyn next friday gonna good think really hard'
p173
aS'kelly clarkson cant fucked'
p174
aS'aspiring literally thousands twitter followers pursuing dream glad sent'
p175
aS'story last summer never really found right place stay'
p176
aS'forthcoming novel montreal stuff anxiety stuff bands stuff facebook stuff videogames stuff weird homemade backy\xe2\x80\xa6'
p177
aS'anyone unsdertanad'
p178
aS'painkillers kicked right woman approached talk agreed bible study'
p179
aS'lyndsay coloracci explain'
p180
aS'lyndsay coloracci explain htmlgiant lyndsay coloracci poem shabby doll house\xe2\x80\x99s'
p181
aS'poems summer issue featured today'
p182
aS'screaming mike bushnell'
p183
aS'please well shabby dollhouse thank'
p184
aS'read everyone never shabby dollhouse thought really good story\xe2\x80\xa6'
p185
asS'2013_29'
p186
(lp187
S'believe something'
p188
aS'poems mine sunra'
p189
asS'2012_17'
p190
(lp191
S'reverse psychology'
p192
aS'unlearn read'
p193
aS'book tray'
p194
aS'stop saying poet'
p195
aS'completely miss point book'
p196
asS'2012_14'
p197
(lp198
S'damn shabby doll'
p199
aS'shabby doll house street live'
p200
asS'2012_15'
p201
(lp202
S'shabby doll house build come'
p203
aS'shabby doll house isnt physical house state mind'
p204
aS'come shabby doll house take shoes conversation'
p205
aS'shabby doll house looking really good right'
p206
aS'shabby doll house likes words pictures'
p207
aS'ever feel really engage piece feel really good'
p208
aS'ever feel really good shabby doll house likes stories'
p209
aS'ever feel really shabby doll house likes stories'
p210
aS'shabby doll house loves stories death'
p211
aS'shabby doll house doesnt care traditional story structure shabby doll house cares mostly distracted death'
p212
aS'shabby doll house likes stories based true events'
p213
aS'youve come right place shabby doll house created human beings longing connection'
p214
aS'something ever happen write make feel connected human beings'
p215
aS'shabby doll stories wants stories'
p216
asS'2012_13'
p217
(lp218
S'shabby doll never sleeps'
p219
aS'live'
p220
aS'shabby doll cares live'
p221
aS'shabby doll interested profiles people work withtake withyour familyyour exhusband'
p222
aS'shabby doll interested pieces called ideal situation ideal situation thats boring'
p223
aS'adrienne rich dead'
p224
aS'thank sweet submission touch shortly'
p225
aS'mention like essays personal minutiae'
p226
aS'really appreciate context emails seem poignant lovinginsane beautiful'
p227
aS'enjoy poetry makes think laugh time'
p228
aS'like people tell stories seem important terms life'
p229
aS'judy find information real website soon'
p230
aS'shabby doll house publishing house shabby dolls seems make sense'
p231
aS'russell love wonder youd want write short piece prose life journal'
p232
aS'barack would like write short story online literary journal mostly write love pain'
p233
aS'charlie sheen interested submitting illustrations online publishing house money'
p234
aS'drizzy feel like submitting poems online literary journal'
p235
aS'ashton kutcher want write small nonprofit publishing house funarts sake'
p236
aS'wonder ashton kutcher want write shabby doll house'
p237
aS'shabby doll fiona apple elvis costello'
p238
aS'want information'
p239
aS'sentimentalhopefulfunnyabout deathabout loveabout musichonestinsanesurrealistrealistintensevalidatingsimple'
p240
aS'shabby doll house especially likes things deeply personalridiculouscasualhighly seriouseasy relate tosweet'
p241
aS'byfor people joyousexcitingdepressedexistentially challengedbeautifullonelyfunny people like'
p242
aS'shabby doll house accepting submissions storiespoemsessaysemailsillustrations online journal'
p243
aS'shes shabby doll'
p244
asS'2012_18'
p245
(lp246
S'keep updated'
p247
aS'shabby doll'
p248
aS'kanye seem like shabby doll'
p249
aS'seems like life life vice versa time'
p250
aS'shabby doll aims help live life enjoyable'
p251
aS'hello shabby doll'
p252
asS'2012_19'
p253
(lp254
S'shabby doll least death'
p255
aS'shabby doll forever'
p256
aS'lets serious'
p257
aS'cute rodent called shabby doll mouse'
p258
aS'shabby doll trailer'
p259
aS'dont shabby doll'
p260
aS'mostly like things serious funny life death music love written honestvulnerablebrilliant style'
p261
aS'email submissionsideas submissions'
p262
aS'shabby doll still accepting submissions issue fiction poetry seem preferable male human thats especially good'
p263
aS'damn shabby dolls everywhere'
p264
aS'rely pieces make happy maybe youre shabby doll thats symptoms'
p265
aS'kidding thats feel wooo love'
p266
aS'concerned maybe everything pointless theres hope anyone maybe something wrong'
p267
aS'worried existence planet earth woooo solidarity distracting'
p268
aS'mildly depressed dont shabby doll house coming soon'
p269
asS'2013_11'
p270
(lp271
S'bitches hate hate watch money pile'
p272
aS'encouraging'
p273
aS'anybody feels interested writing issue encourage'
p274
aS'zine shabby doll house'
p275
aS'certainly sounds easy enough'
p276
aS'haiku becoming successful wake every work hardest'
p277
aS'lock room making five beats three summers'
p278
aS'want romance going threw quarter mall fountain tossed burrit'
p279
aS'ocean'
p280
aS'online zines super cool know'
p281
aS'submissions open summer issue hope yall know'
p282
aS'zines need know'
p283
aS'listening janet jacksons 2001 album verify library congress data work'
p284
aS'gettin paper'
p285
aS'seems like theres never better time zines online zines need know'
p286
aS'luna miguel poem really special also really enjoyed timothy willis sanders thing'
p287
aS'pray4peterbd'
p288
aS'listening selena cause thought funny really like selena'
p289
aS'frank ohara'
p290
aS'someone written fuck frost last night walked past like fuck gently'
p291
aS'shaw performing party acoustic indigo recently released uoyiea records'
p292
aS'read springs send tweenebook make'
p293
aS'heres link three decisions shabby doll house much'
p294
aS'lets hang'
p295
aS'yall favorite issue'
p296
aS'work hardwrite hard dont play'
p297
aS'choose adventure interactive relational aesthetic tweet characters construct cool idea abcdefghijk'
p298
aS'story spring issue'
p299
aS'piece'
p300
aS'shabby doll'
p301
aS'help babestation'
p302
aS'everybody else love'
p303
aS'good shabby dolls everywhere'
p304
aS'received confirmation went next level'
p305
aS'spring edition edited contributors shaw'
p306
aS'spring issue online feat'
p307
aS'spring issue online feat'
p308
aS'awesome poems others'
p309
aS'please write clearly highly suitable lydia davis diane williams enjoyers'
p310
aS'three poems wrote published shabby doll house'
p311
aS'spring issue online feat many'
p312
aS'please write clearly work newest issue read'
p313
aS'issue online'
p314
aS'moneys everything'
p315
ag10
aS'need help'
p316
aS'love shabby doll'
p317
asS'2013_10'
p318
(lp319
S'control'
p320
aS'angel person'
p321
aS'next level issue coming days'
p322
aS'good kill youre blue cyanide'
p323
ag10
aS'tryna change color mood ring'
p324
aS'became vaguely aware thinking date something like september 2024i think stroke'
p325
aS'favorite thing think poem cool'
p326
aS'something might enjoy'
p327
aS'submissions still open mall'
p328
aS'friends facebook question remains'
p329
aS'shabby doll give away info'
p330
aS'shabby doll house news'
p331
aS'heiko juli\xc3\xa9ns ebook today'
p332
aS'illuminati girl gang officially print'
p333
aS'edith piaf'
p334
aS'andy warhol'
p335
aS'walt disney'
p336
aS'shabby doll line issue coming march 12th'
p337
aS'line shabby doll houses spring issue announced names'
p338
aS'interview theo thimo'
p339
aS'okay imma need think'
p340
aS'published shabby doll want interviewed work want practiceknow things'
p341
aS'seems like everybody worst version website'
p342
aS'ever throw robert frost across bathroom'
p343
asS'2013_13'
p344
(lp345
S'vice talkin shit barf betrayal vice canada'
p346
ag10
aS'time rode razor scooter work wouldnt start bunch tweens laughed best'
p347
aS'theyre open time guidelines'
p348
ag10
aS'looks like lost captain walking slowly past house right'
p349
aS'niice happy'
p350
aS'wake read cassandra alba'
p351
aS'uhoh maybe learn'
p352
aS'maybe didnt find right poems'
p353
aS'poetry maybe'
p354
aS'maybe didnt find right poems'
p355
aS'spring issue'
p356
aS'glad like'
p357
aS'really maybe didnt find right poems think'
p358
aS'like'
p359
aS'like'
p360
aS'think poems'
p361
aS'reading maybe'
p362
aS'really maybe didnt find right poetry think'
p363
aS'take break read instead'
p364
aS'much cool poetry though think'
p365
aS'whoa maybe didnt find poems like think'
p366
aS'didnt find right poems think'
p367
aS'think didnt find right poems maybe reading'
p368
aS'maybe didnt find right poems think'
p369
aS'maybe didnt find right poems think'
p370
aS'reading instead maybe'
p371
aS'maybe didnt find right poems think'
p372
aS'maybe havent found write poems think'
p373
aS'really hate poetry think'
p374
aS'think'
p375
aS'take break read instead maybe'
p376
aS'reading instead maybe'
p377
aS'look mean scared'
p378
aS'like read maybe'
p379
aS'maybe would like'
p380
aS'maybe would like'
p381
aS'maybe could help'
p382
aS'might like'
p383
aS'maybe could help'
p384
aS'maybe could help'
p385
aS'maybe reading'
p386
aS'maybe could help'
p387
aS'maybe could help little'
p388
aS'maybe help'
p389
aS'something help'
p390
aS'maybe didnt find right poems'
p391
aS'maybe didnt find right poems'
p392
aS'think know feel might like'
p393
aS'poetrys fault maybe reading'
p394
aS'thats great thank much hope enjoy'
p395
aS'read spring issue'
p396
aS'maybe'
p397
aS'trying read spring issue'
p398
aS'read spring issue'
p399
aS'much love sense community makes rewarding'
p400
aS'read spring issue'
p401
aS'maybe didnt find right poems'
p402
aS'maybe youd'
p403
aS'youre welcome'
p404
aS'accept submission send piece artists creates illustration'
p405
aS'maybe'
p406
aS'share maybe'
p407
aS'maybe'
p408
aS'like'
p409
aS'maybe'
p410
ag10
aS'guys instead'
p411
aS'reading instead'
p412
aS'maybe'
p413
aS'instead maybe'
p414
aS'maybe'
p415
aS'maybe'
p416
aS'send'
p417
aS'like poetry'
p418
aS'mcdonalds play place girl girls named lavender poetry'
p419
aS'seems legit'
p420
ag10
aS'described site'
p421
aS'congratulations'
p422
aS'understand poems'
p423
aS'maybe youre reading right kind poetry'
p424
ag10
aS'shabbbbby dollhouse'
p425
aS'good friday laurens like'
p426
aS'happy good friday'
p427
aS'dropped heavy wooden menu reached caught ground said good reflexes spiderma'
p428
aS'read every poem speed'
p429
aS'crying humpty dumpty small would like'
p430
aS'carrot'
p431
ag10
aS'woke read woke sink'
p432
aS'thank writing'
p433
aS'officially first person facebook poke years didnt even know could'
p434
aS'suddenly became aware thanks short hanks'
p435
aS'museum'
p436
aS'seems like would satisfying come chicago'
p437
aS'cool people wrote less bitten'
p438
asS'2013_12'
p439
(lp440
S'listing shabby doll house fiction poetry'
p441
aS'goth flow'
p442
aS'technicolor pachyderms'
p443
aS'hetero francisco theo thimo'
p444
aS'studio fridays another shit show'
p445
aS'nothing wrong song ends minor'
p446
aS'video robert vaughan video interview response robert helped edit thunderclap helps edit'
p447
aS'unoriginal brand'
p448
aS'dont like never told'
p449
aS'bizness usual'
p450
aS'carving forehead smiling finally something life'
p451
aS'david fishkind reading mellow pages library bushwic'
p452
aS'last submit issue submit still'
p453
aS'reblogging dark trees'
p454
aS'seriously thought reblog ends earth scrolling tumblr'
p455
aS'download spring issue free'
p456
aS'save later need pick little'
p457
aS'certainly contrary enjoy great trust regularly live great life'
p458
aS'tbqh reading saturday shaw others'
p459
aS'short story illustrated'
p460
aS'theres mekhi phifer'
p461
aS'friends shop dead'
p462
aS'dying oregon trail diseases'
p463
aS'cute hell'
p464
aS'really hard sleep kanye west many albums'
p465
aS'went trance scrolling google image search keith haring'
p466
aS'photo shabbydollhouse schofield shabby doll house'
p467
aS'wrote spring issue'
p468
asS'2013_15'
p469
(lp470
S'ever nervous'
p471
aS'getting'
p472
aS'feeling person scoring goal feeling rest team feels person score'
p473
aS'youre cafe look mouth nearest person'
p474
aS'nothing says crow wearing tiny sunglasses sitting satellite dish smoking cigarette'
p475
aS'story wrote beyonc\xc3\xa9 near existential crisis published thought catalog'
p476
aS'fresh'
p477
asS'2013_14'
p478
(lp479
S'wrote book cover'
p480
aS'happy friday excited give guidebooks work cassandra gillig enjoy'
p481
aS'issue four habitat online'
p482
aS'issue four habitat live'
p483
aS'felt warmed small heater looking gmail inbox across bedroom'
p484
aS'thought dont know ends dramatic pause'
p485
aS'coworker said cant believe justin timberlake jessica biel married said married said'
p486
aS'ninety nine problems continuity person'
p487
aS'loves jeanpaul sartre loves jeanpaul sartre though people'
p488
aS'news'
p489
asS'2013_17'
p490
(lp491
S'girl asked said asked number'
p492
aS'dont want anybody hurt'
p493
aS'hello friends thing made words pictures'
p494
aS'recommend coping mechanism appropriating others criticisms whether real perceived become'
p495
aS'yall interview'
p496
aS'vegas made feel thin poker last night great never sober'
p497
aS'online journal shabby doll house editor interviewed stacey teague'
p498
aS'letters'
p499
aS'dont forget fortunate alive wonderful time letters'
p500
aS'others names website'
p501
aS'basically names people think great read'
p502
aS'ashley opheim'
p503
aS'brittany wallace'
p504
aS'mallory whitten'
p505
aS'heiko julien'
p506
aS'sarah jean alexander'
p507
aS'mike bushnell'
p508
aS'natalie chin'
p509
aS'stacey teague'
p510
aS'thing people like shabby pull smug hell face yeah okay'
p511
aS'recommend'
p512
aS'things bring huge baggy clothes riding tiny bike busy city street'
p513
aS'submissions open'
p514
asS'2013_16'
p515
(lp516
S'every fourtwenty since first teen weed drug launches mammals daily cinemag'
p517
aS'studio fridays ugly imagists'
p518
aS'retweet tweet feel like'
p519
aS'want happy soon'
p520
aS'guys experience thing unfamiliar word word appears elsewhere sorta neglig\xe2\x80\xa6'
p521
aS'submissions open info'
p522
aS'really wanted happy would deleted twitter long time already'
p523
aS'paypal stephenmichaelmcdowell gmail note specifying desired image receive personalized drawing'
p524
aS'recommend'
p525
aS'happy birthday youre already following guillaume even'
p526
aS'walter consumed guillaume'
p527
aS'live tweeted pocahontas'
p528
asS'2013_19'
p529
(lp530
S'literally cant anything love soccer thing makes happiest'
p531
aS'poised reblog'
p532
aS'mixtape also coming 15th imagine'
p533
aS'mother still consider alone dont know probably'
p534
aS'submissions summer issue close 15th wednesday week three days yeah talking'
p535
aS'dont want life wealth power want life beauty learning'
p536
aS'said nice chainsaw would hold'
p537
aS'show people understand things tell theres reason hope'
p538
aS'mixtape coming soon'
p539
aS'ebook sins omission today housefire'
p540
aS'submissions summer issue open 15th week'
p541
asS'2013_18'
p542
(lp543
S'piece'
p544
aS'five pok\xc3\xa9mon highly identify original mammal'
p545
aS'shabby doll house blog shabby doll news shabbydollhouse hello fifth month year'
p546
aS'made video poem love whole place dark nick sturm today video everyday genius'
p547
aS'shabby doll news'
p548
aS'shabby doll news feat'
p549
aS'going bunch readings summer time tell soon'
p550
aS'yall following tumblr thats offseason action mostly happens'
p551
aS'feels like summer issue going biggest ever'
p552
aS'weeks left submit summer issue'
p553
aS'know ability imagine future called autonoetic consciousness'
p554
asS'2012_35'
p555
(lp556
S'interested signing short story contract'
p557
aS'even something little frick austin islam shabby doll house september'
p558
aS'shabby doll houses september issue features work king crab stephen tully dierks mira gonz justin cart'
p559
aS'probably review shabby doll house'
p560
aS'water story'
p561
aS'shaw runs shabby doll house like cake pretty outside filled bunch'
p562
aS'happy birthday'
p563
ag10
aS'poem published issue'
p564
aS'issue three online'
p565
asS'2013_5'
p566
(lp567
S'ltstyletomorrowgtltgaygtsad 212013 flier'
p568
aS'everyone submitted released online 18th available preorder'
p569
aS'nothing like violent comedy'
p570
aS'seems like good friday read'
p571
aS'tweet characters memoriam favorite tweeter'
p572
aS'finish editing submit dont forget stop procrastinating'
p573
aS'live'
p574
aS'send'
p575
aS'rearranged things shabbydollhouse'
p576
aS'today seems like good send interesting stories'
p577
aS'walking work approaching someone away looks like head instead person head'
p578
aS'intuitively pressed microsoft word trying novel refresh updated without interventi'
p579
aS'extremely nervous walked store asking cheapest bottle vodka wearing said'
p580
aS'person dances crowd'
p581
aS'reason havent jumped cliff wouldnt able rolling'
p582
aS'theres rave forest tonight dying'
p583
aS'lips feel like kissed last night even know'
p584
aS'person said something mixing breakfast thought pouring coffee plate mashing everythin'
p585
aS'stay aware romanticizing relationship point expectations unreal'
p586
aS'roommate talks phone like shes'
p587
aS'stay home honestly seems like viable future except part'
p588
aS'excited book ohso coming year poem shabby name'
p589
aS'everyone never'
p590
aS'completely forget someone already completely forgotten'
p591
aS'interested illustration shabby doll house email examples work'
p592
aS'shabby doll house always best stories'
p593
asS'2013_4'
p594
(lp595
S'think important feel talented feel ambitious congrats'
p596
aS'biggest fear right wake tomorrow'
p597
aS'accepting insane person best career move ever made'
p598
aS'looking stuck somewhere someone'
p599
aS'dolphins want swim'
p600
aS'issue shabby doll house released march 12th interested reviewingwriting anything'
p601
aS'copies young money poetry zine still available'
p602
aS'print versions chapbooks available'
p603
aS'first poetry book available'
p604
ag10
aS'sorryhouse never beautiful enough make beautiful together mira gonzalez available'
p605
aS'photo email guidelines'
p606
ag10
aS'jesus christ'
p607
aS'issue poems brittany wallace'
p608
aS'updates shabby dolls follow tumblr'
p609
ag10
aS'highly recommend subbmiting toreading'
p610
aS'keep submissions coming email prosepoetryart pieces'
p611
aS'read magic knife story really liked'
p612
aS'shabby doll house'
p613
aS'lazzzys moores draft'
p614
aS'remembering story issue three lorrie moores first draft'
p615
aS'accepting visual submissions information'
p616
aS'submissions guidelines feel free contact questions'
p617
aS'submissions open forthcoming issues deadline spring edition february 19th'
p618
aS'cant believe life goals include mildly successful author relationship still alone long'
p619
aS'thinking anything last three hours'
p620
aS'asked making salad dressing recommended dont like nice'
p621
aS'submissions open please send prosepoetryart'
p622
asS'2013_7'
p623
(lp624
S'still room house'
p625
aS'submissions issue close tuesday'
p626
aS'shabby doll house news'
p627
aS'week submissions deadline guidelines'
p628
aS'4star review young americans amazon'
p629
aS'gabler reviewed young americans really wanted feel happy feel happy already'
p630
aS'5star review young americans amazon'
p631
aS'young money poetry zine available order'
p632
aS'eight days left submit'
p633
asS'2013_6'
p634
(lp635
S'breakdown montreals personal brand'
p636
aS'visual collection'
p637
aS'debut poetry book young americans available order amazon'
p638
aS'wake read ashley opheim'
p639
aS'redesigned website look'
p640
aS'submissions close weeks guys'
p641
aS'come case gonna something'
p642
asS'2014_18'
p643
(lp644
S'everyday genius thais benoit words ashley opheim'
p645
aS'jellyfish hearts\xe2\x80\x9d'
p646
aS'happy birthday poetry editor guardian angel sarah jean alexander'
p647
aS'grrrls guide 2014'
p648
aS'grrrls guide arrived'
p649
aS'love like water falling water underwater'
p650
aS'find spectacular talented'
p651
aS'poetry cultivating sense wonderection'
p652
aS'love like water falling water underwater'
p653
aS'shabby doll genius done thank errybody reading smart love edit things allow edit life'
p654
aS'final shabby doll genius kalliopi mathios ashley opheim'
p655
aS'turns wrote poem'
p656
aS'everyday genius jessica rowe words johnny bryan'
p657
aS'heyy brooklyn come watch panic attack front everyone'
p658
aS'shabby doll spring reading 24th'
p659
aS'feel like goodreads always taking energy'
p660
aS'today shabby doll genius jessica rowe johnny bryan'
p661
asS'2014_19'
p662
(lp663
S'dare'
p664
aS'hello reading brooklyn tonight come flesh'
p665
aS'course'
p666
aS'currently seeking external validation internal validation eternal validation'
p667
aS'last reading chicago move really amazing poets come'
p668
aS'consider excommunicated'
p669
aS'submissions summer edition open 27th guidelines'
p670
asS'2013_3'
p671
(lp672
S'submissions reopened please email works'
p673
aS'feat'
p674
aS'feat'
p675
asS'2013_2'
p676
(lp677
S'happy birthday natalie chin yall lt333'
p678
asS'2014_14'
p679
(lp680
S'didnt already today perfect wake watch allvideo issue'
p681
aS'podcast live talkin poetry ross robbins'
p682
aS'change expression nobodys perfect everyones insane make mistakes sometimes everyone\xe2\x80\xa6'
p683
aS'first thing build fort'
p684
aS'know grocery store wander around aimlessly hiding'
p685
aS'yesterday blast cage match exactly wanted find buffalo feel lucky part real'
p686
aS'apparently john mortara cooking'
p687
aS'today shabby doll genius chris muccioli alex manley'
p688
aS'today shabby doll genius halle chapmantayler words cassandra alba'
p689
aS'want come first poetry reading tmrw'
p690
aS'lucy shaw curating work month everyday genius check'
p691
aS'everyday genius sarah tuefee words chad redden'
p692
aS'friends visual artiste things'
p693
aS'today shabby doll genius sarah tuefee words chadwick redden'
p694
aS'photo \xe2\x80\x9carchipelago\xe2\x80\x9d sarah tuefee shabby doll house\xe2\x80\x99s month everyday genius'
p695
aS'poem went live plain wrap press today read feel'
p696
aS'everyday genius carabella sands words claire paquet'
p697
aS'love piece much'
p698
aS'editing everyday genius month recommend reading'
p699
aS'friends released beyonc\xc3\xa9inspired surprise video edition check'
p700
aS'brand story artwork part shabby doll genius'
p701
aS'heres explanation month'
p702
aS'shabby doll genius begun'
p703
aS'feel issue shabby doll house entered late registration period lives finally\xe2\x80\xa6'
p704
aS'real quick\xe2\x80\x94before sleep wake hell\xe2\x80\x94i want start poetry month blog going'
p705
aS'video friends doll revolution watch'
p706
aS'thank much watching'
p707
aS'doll revolution need soul favor watch brilli\xe2\x80\xa6'
p708
ag10
aS'great favorite parts getting haircut waving'
p709
aS'thankyouthankyouthankyou reminded internets truly'
p710
aS'thank making something emotionally soaked spontaneous human inspired'
p711
aS'sarah jean made video together'
p712
aS'video poem called yous poem'
p713
aS'please sure take moments enjoy show'
p714
aS'every single video issue beautiful moving completely sensational humble opinion'
p715
ag10
aS'beyonc\xc3\xa9 nothin surprise video edition'
p716
aS'yesss'
p717
aS'sensational'
p718
aS'contributed surprise allvideo issue mine'
p719
aS'secret issue online'
p720
aS'surprise'
p721
ag10
asS'2014_15'
p722
(lp723
S'life hell thats love'
p724
aS'print issue open submissions 11th right else'
p725
aS'today shabby doll genius jenn kucharczyk kristina mahler'
p726
aS'grave rest shallow leave depth unexplored artpoem collab'
p727
aS'issue illuminati girl gang available order needless looks sensational'
p728
aS'today shabby doll genius thany sanches elizabeth ellen'
p729
aS'illuminati girl gang dedicated mary maclane secretly dedicated drake'
p730
aS'wait wait insane illogical shit youll sake people love someday'
p731
aS'today shabby doll genius mitsuko brooks matthew bookin'
p732
aS'remember images poems wrote everyday genius alex manley'
p733
aS'case missed poem want published friday springtime coming'
p734
aS'basic bitch gospel mike bushnell dorothy howard everyday genius'
p735
aS'drew butts everyday genius pome'
p736
aS'today shabby doll genius dorothy howard mike bushnell'
p737
aS'imagine popping cake imagine staying cake eating without knowing vege\xe2\x80\xa6'
p738
aS'sadder look damn look damn damn look damn'
p739
asS'2014_16'
p740
(lp741
S'shabby doll genius week three recap'
p742
aS'time'
p743
aS'moon temple paul rizza rocking everyday genius'
p744
aS'everyday genius kelsea basye words paul rizza'
p745
aS'today shabby doll genius kelsea basye paul rizza'
p746
aS'today shabby doll genius jessica hayworth colin drohan'
p747
aS'beautiful movie influencers previous trend report'
p748
aS'guillaume morissette kate rudin everyday genius ballin'
p749
aS'today shabby doll genius kate rudin guillaume morissette'
p750
aS'real nice poem artwork right'
p751
aS'vicki together last'
p752
aS'today shabby doll genius shaw vicki tingle'
p753
aS'photoset shabbydollhouse shabby doll genius continues today everyday genius remember visual'
p754
aS'roomiebestie brilliant everybody else shut'
p755
aS'everyday genius schofield words chris dankland'
p756
aS'awesome cult inspiration collage matthewbookin shabbydollgenius'
p757
aS'teamed friend bring insightful scientific guide vague relationships'
p758
aS'today shabby doll genius schofield chris dankland'
p759
aS'shabby doll genius recap first weeks'
p760
asS'2014_17'
p761
(lp762
S'love roses theyre past best reviewed'
p763
aS'everyday genius ariel fintushel words oscar bruno dartois'
p764
aS'gently fckd good'
p765
aS'week four shabby doll genius recap'
p766
aS'today shabby doll genius evan bender henry greenfield'
p767
aS'iconic'
p768
aS'helpful information youre trouble understanding shabby doll genius'
p769
aS'basically yeah'
p770
aS'review poem shabby doll genius gently fckd good'
p771
aS'wonderful irish artist american writer collaboration writing samanthaconlon benjaminclancy'
p772
ag10
aS'today shabby doll genius ariel fintushel oscar bruno dartois'
p773
aS'good englands rose'
p774
aS'thinking starting turf illuminati girl gang'
p775
aS'today shabby doll genius stacey teague'
p776
aS'seeing woman holding hands thinking done sure exactly'
p777
aS'everyday genius emily horn words andrew worthington'
p778
aS'book'
p779
aS'atlanta announced first anniversary chapbook shaw'
p780
aS'today shabby doll genius emily horn andrew worthington'
p781
asS'2014_10'
p782
(lp783
S'wanna give really ludicrous interview come like kanye except talking publishing chapbooks'
p784
aS'sometime 26th birthday going completely insane'
p785
aS'rabbit eats books gifs screenshots thoughts tumblr myth artist rabbits'
p786
aS'poem'
p787
aS'forget think'
p788
aS'allfemale issue live'
p789
aS'wanna someone come morning kick shower make green smoothie strictly'
p790
aS'vote megan lent comedy jokes laugh humor comedian'
p791
aS'bros frank ohara'
p792
aS'write please'
p793
aS'discovered frank ohara poem called bros would change anything'
p794
aS'first round shipments book mailed tomorrow last chance order'
p795
aS'accidentally typed shabby doll house instead name'
p796
aS'omfg book'
p797
aS'strangers city kind words enjoyed'
p798
asS'2014_11'
p799
(lp800
S'michelle branch unfamous enough friends'
p801
aS'favorite book read year'
p802
aS'sunday service oscar bruno dartois'
p803
aS'emmie'
p804
aS'love poem'
p805
aS'shabby doll house takeover everyday genius april'
p806
aS'going covens show thursday showing work'
p807
aS'backwards'
p808
asS'2014_12'
p809
(lp810
S'shabby doll news'
p811
aS'drunk comics'
p812
aS'awesome mail gorgeous book'
p813
aS'poetry life world poetry'
p814
aS'didnt social networks come'
p815
aS'found video escape yrself hole minutes least srsly fuxked'
p816
asS'2014_13'
p817
(lp818
S'guillaume morissette thais benoit'
p819
aS'great thing'
p820
aS'week shabby doll genius begins'
p821
aS'night city'
p822
aS'reading makes happy'
p823
aS'kinda beautiful everyone never'
p824
aS'news'
p825
aS'walking arnd seat belt automatically buckles nearest wall chair tree case earth cras\xe2\x80\xa6'
p826
aS'everyone never'
p827
aS'read everyone never good'
p828
asS'2014_8'
p829
(lp830
S'everyone tired'
p831
aS'dont write poems write symphonies bitch'
p832
aS'mike youngs think wider release annotated'
p833
aS'fumbling toward shared understanding comparing notes poem'
p834
aS'submissions open volume'
p835
aS'actually surf bored surf bored pretty good description internet beyonce'
p836
aS'know sound basic feel make something make anything least read'
p837
aS'mondays february'
p838
asS'2014_9'
p839
(lp840
S'last famous intergalactic playboys zine'
p841
aS'made zine called last famous intergalactic playboys'
p842
aS'secretly videos great readings tumblr'
p843
aS'uninterrupted'
p844
aS'imaginging slathering book mayonnaise putting microwave three minutes'
p845
ag10
aS'think killed everybody game last year fuck though'
p846
asS'2014_6'
p847
(lp848
S'hope enjoyed hashtag'
p849
aS'rearranged homepage become reacquainted shabbydollclassics'
p850
aS'think'
p851
aS'wonder live somwhere uberisolation merely exist online digital prescence'
p852
aS'secretly dancing'
p853
aS'dont know everyone second collabo schofield goddamnhot\xe2\x80\xa6'
p854
aS'well schofield captured entire life drawing'
p855
aS'mike mike mike'
p856
aS'great poems adefisayo adeyeye'
p857
aS'guys ever read poem feel like 100x better kill'
p858
aS'collective girls'
p859
aS'menstrual cycles teenage feels know zine'
p860
asS'2014_7'
p861
(lp862
S'completely outrageous'
p863
aS'winter unhappy white couple towns second best thai place town thai places'
p864
aS'started bottom back sisyphus'
p865
aS'mystical magical website'
p866
aS'read gems'
p867
aS'recomendo bastante'
p868
aS'started recovered period depression lucy shaw'
p869
aS'shabby doll love stories mostly hopeful'
p870
aS'good happy love love someone'
p871
aS'happy valentines heres special love poem'
p872
aS'excerpt interview lucy shaw started shabby doll house recovered'
p873
aS'poems spring breakers poem lana poem awesome'
p874
aS'hilda magazine published poem wrote days poem wrote months'
p875
aS'listening cant hurry love supremes wondering nowpublic twitter account retweets'
p876
aS'interview writing shabby doll house life wanna know youre luck'
p877
aS'lucy shaw interview lucy shaw currently lives england founder literary'
p878
aS'chris dankland interviewed lucy shaw writing living brooklyn neeto mosquito'
p879
aS'full collection'
p880
asS'2014_4'
p881
(lp882
S'update'
p883
aS'pink going read kansas april 18th book club kansas future'
p884
aS'like birthdays reason celebrate reason also like alive'
p885
aS'utterly alone miles best'
p886
aS'three poems first issue pentimento'
p887
aS'shabby news'
p888
asS'2014_5'
p889
(lp890
S'seeking submissions special womenonly issue march apprecia\xe2\x80\xa6'
p891
aS'short interview submissions process'
p892
aS'bohemian'
p893
aS'questions shaw foundereditor shabby doll houseshabby doll house publishes prose poetry'
p894
aS'semiconsciously writing poems dark felt secret cant stop'
p895
aS'came close happiness today basically epiphany could smuggle boiled eggs breakfast everyday'
p896
aS'case havent mentioned club adamjkbrain starts next month prints objects collab projects'
p897
aS'columbus reading place tonight'
p898
asS'2014_2'
p899
(lp900
S'poem published siren'
p901
aS'drug habits destroying relationships'
p902
aS'would deeply thrilling experience take diddy high school reunion never explain'
p903
aS'probably best poem ever read'
p904
aS'schofield genius learn'
p905
aS'fucking pointless poetry covered major cultural news outlets death great tragedy'
p906
aS'cried reading title drake song'
p907
aS'portrait created someone already turned upside'
p908
aS'deep movie trailer narrator voice imagine world things good time'
p909
aS'literary magazines also started selling guns making money expand audience contributors'
p910
aS'winter issue tour head schofield'
p911
aS'collection short fiction recommended'
p912
aS'imagine flower bloom'
p913
aS'read decision'
p914
aS'need tshirt says invest creative vision'
p915
aS'fiction collection read'
p916
aS'winter issue tour head schofield'
p917
aS'ignore emails work'
p918
aS'tips reading walt whitman grinding'
p919
asS'2014_3'
p920
(lp921
S'shabby doll news january 2014 shabbydollhouse hello happy year 2014 shabby doll house'
p922
aS'jessica hayworth chose darkness favorite thing ever seen printed'
p923
aS'shabby doll news'
p924
aS'practicing evil laugh might need someday mine hehehehe'
p925
aS'good thing opinion'
p926
aS'volume noncanon quarterly online'
p927
aS'read excerpt debut novel walls coming july 2014 volume noncanon quarterly'
p928
aS'good conversation deserves hard work goodwill gets'
p929
aS'poem wrote called deal noncanon deal click thru trills'
p930
aS'laughed much alone thinking write drunk edit sassy earnest hemmingway'
p931
aS'feel like attended average amount seances'
p932
aS'girl spotlight samantha conlon'
p933
aS'world interesting place even though nothing technically matters constantly moved search'
p934
aS'filling elimae void litkid heart'
p935
aS'cant stop using phrase step casual conversation think said something like times last night\xe2\x80\xa6'
p936
aS'wish lived simultaneously toronto montreal newyork london japan mysterious remote desert island narnia'
p937
aS'6mos left collegeto figure dont back parents house'
p938
aS'find altlit writer story collection supercomputer poetry genius'
p939
aS'lose friends alienate chapter writer'
p940
aS'went walk instead sulking'
p941
asS'2014_1'
p942
(lp943
S'want forget encouraged live irresponsibly nothing feel excessively'
p944
aS'consistently pretend emojis sister sends'
p945
aS'posted excerpt thing working probably never finish anyway'
p946
aS'feed head author behind illuminati girl gang latest short story joke'
p947
aS'someone reblogged something said gabby bess important dont feel important feel worried'
p948
aS'photoset paper trail adam kurtz'
p949
aS'best things publishered online read poems want'
p950
asS'2014_29'
p951
(lp952
S'lock door night worst happen young beautiful'
p953
aS'well biggest weakness workaholocaust haha love make puns'
p954
aS'read curse part curse means peter wendy darling'
p955
aS'placer estar junto gente admiro'
p956
asS'2014_28'
p957
(lp958
S'story wrote hope like read'
p959
aS'episode guillaume morissette author'
p960
aS'altlit author guillaume morissette debut novel fresh prince belair'
p961
aS'mike youngs book stacey teagues book andrew worthingtons book mike bushnells book sensational summer shabby dolls'
p962
aS'grasped true magnitude hakuna matata broke weeping shower'
p963
aS'time newspaper said scarf'
p964
aS'strongly recommend'
p965
aS'sexually identify boymonkey jumanji'
p966
aS'repeating learn simple skill move fields calming mantra'
p967
aS'today ordered ohso'
p968
aS'want read ohso childrens section barnes noble across america'
p969
aS'simply worthington'
p970
aS'weeks podcast talk issues probably mispronounce record amount words'
p971
aS'reading mellow pages release ohso unnameable books release walls'
p972
aS'secret success drunk'
p973
aS'episode guillaume morissette'
p974
aS'handsome talented boyfriend novel today smart poignant funny stuff'
p975
aS'handsome talented roommate novel today smart poignant funny stuff'
p976
asS'2014_21'
p977
(lp978
S'thank much everybody came last night best time love'
p979
aS'shabby doll house reading mellow pages killin also margaritas'
p980
aS'lifeitself killed dave complicated cassandra gillig'
p981
aS'next dead language'
p982
aS'sooooooooo good'
p983
aS'lifeitself'
p984
aS'everyone reading lovely going read everything internet forever'
p985
aS'reading tonight submissions still open 27th youre coming come'
p986
aS'head keep tiny eiffel towers'
p987
aS'john mortara interviewed sarah jean alexander shabby doll house'
p988
aS'tonight night hello brooklyn'
p989
aS'images'
p990
aS'submissions issue five open'
p991
aS'feels like make next novel realistic ending every scene scared want home'
p992
asS'2014_20'
p993
(lp994
S'reading gabby bess oscar bruno dwhatever shane jones saturday bushwick review party come'
p995
aS'happy atlanta contest publication passion joan'
p996
aS'getting'
p997
aS'heartbreaking visions coworker tearfully googling cats fall love'
p998
aS'conversation guillaume morissette'
p999
aS'asked stuff canadian literature internet things'
p1000
aS'shabby doll house fiction poetry reopened subs'
p1001
ag10
aS'submissions closing weeks'
p1002
asS'2014_23'
p1003
(lp1004
S'spent last days pretty much exclusively crying various works'
p1005
ag10
aS'wrote love poem find'
p1006
aS'sons archimedes bookin deep dish bookin slayer bookin'
p1007
aS'tracy dimond video interview response'
p1008
asS'2014_22'
p1009
(lp1010
S'beautiful read first sentence every short story every short story collection research'
p1011
aS'reunion tour june feat'
p1012
ag10
aS'happy birthday main bitch'
p1013
aS'matt bookins reading saturday reminded read'
p1014
aS'submissions closed respond everybody submitted asap thank much sending much beauty'
p1015
aS'episode carrete author baby babe listen'
p1016
aS'poets holding taping eyes open forcing stare moon read poems loud'
p1017
aS'morning legendary white squirrel life complete'
p1018
aS'submissions close midnight'
p1019
ag10
aS'bushwick review reblogged story amplifier worship said nice things last friday'
p1020
aS'submissions shabby doll house summer issue close tomorrow midnight'
p1021
asS'2014_25'
p1022
(lp1023
S'nytml talking language'
p1024
aS'happiness never ever express emotions anyone circumstances'
p1025
aS'playlist shabby doll spring reading'
p1026
aS'sarah wrote yall know sarah important'
p1027
aS'summer issue coming july havent heard back soon'
p1028
asS'2014_24'
p1029
(lp1030
S'long interview photo shoot brooklyn magazine'
p1031
aS'profiled length including video quiet things insane accent'
p1032
aS'subtext poetry reading alone'
p1033
aS'party doubt whats best personal brand'
p1034
aS'furious cant retweet'
p1035
aS'giant orca poster peta activist tutors wall asked liked orcas said other\xe2\x80\xa6'
p1036
asS'2014_27'
p1037
(lp1038
S'frenchandenglish listentoyourheart lockedout'
p1039
aS'ready please click link thank'
p1040
aS'know best going give speech whatever name matt brought thats ruby soho'
p1041
asS'2014_26'
p1042
(lp1043
S'need fruit vegetables oral'
p1044
aS'going tommy hilfiger outlet tomorrow wants come'
p1045
aS'almost live mellow pages lucy shaw'
p1046
aS'library preserving jacobs legacy come hang'
p1047
aS'interviewed almost live mellow pages'
p1048
asS'2012_38'
p1049
(lp1050
S'excited issue tuesday'
p1051
aS'issue four coming september 25th featuring'
p1052
aS'issue four coming september 25th featuring'
p1053
aS'apartment drinking beer going baseball game showing america'
p1054
asS'2012_39'
p1055
(lp1056
S'shabby dolls rise'
p1057
aS'youre following shabby damn damn'
p1058
aS'newest issue available'
p1059
aS'brand work shabby doll four original shabby doll'
p1060
aS'brand work issue four shabby doll house jenn'
p1061
aS'brand work issue four shabby doll buttercup'
p1062
aS'brand poem issue four mallory'
p1063
aS'brand play issue four shabby doll house'
p1064
aS'poem issue four love jesus moses'
p1065
aS'love dankland'
p1066
aS'brand story shabby doll house'
p1067
aS'brand story shabby doll house love beach sloth'
p1068
aS'gchat excerpts issue'
p1069
aS'poem mike bushnell issue shabby doll house'
p1070
aS'excerpt novel available issue shabby doll house'
p1071
aS'beautiful brand poem issue shabby doll house love sarah jean alexander'
p1072
aS'shabby doll house issue four online'
p1073
aS'magazine shabby doll house know metapostmodern'
p1074
aS'shabby doll house featuring work mallory whitten beach sloth moreif like cool things like'
p1075
aS'poem shabby dollhouse'
p1076
ag10
aS'issue four'
p1077
aS'issue comes tomorrow'
p1078
aS'submit emailing'
p1079
asS'2012_49'
p1080
(lp1081
S'best youve never everyone never'
p1082
aS'oops thought lolol'
p1083
asS'2012_48'
p1084
(lp1085
S'issue coming december eighteenth'
p1086
asS'2012_45'
p1087
(lp1088
S'submissions closed thank everybody submitted working reply soon'
p1089
aS'bleu short video made starring'
p1090
asS'2012_44'
p1091
(lp1092
S'yall tuesday submit'
p1093
aS'shabby doll house featured dennis coopers blog today'
p1094
aS'going change submissions guidelines time yall know whats happening soon lt33'
p1095
aS'submissions closing foreseeable future november please email date submit thank'
p1096
aS'keep going feeling final rainer maria rilke'
p1097
aS'rereading letters young poet rilke feel like something regular'
p1098
aS'used think dying time work website'
p1099
asS'2012_47'
p1100
(lp1101
S'excited wrote nice things'
p1102
aS'recommend interview'
p1103
aS'going reply submissions today'
p1104
aS'review issue'
p1105
aS'ever think shabby doll hizzle laugh'
p1106
aS'poems shabby doll house check ones also better gtgtgt'
p1107
aS'killed'
p1108
aS'well favorites'
p1109
aS'verse collaborative shabby dollhouse'
p1110
aS'website called shabby doll house'
p1111
aS'anyone interested writing issue shabby doll house please thank'
p1112
aS'please real album'
p1113
aS'feel invincible h8rs right listening reading'
p1114
aS'janes'
p1115
aS'elephants graveyard'
p1116
ag10
aS'everyone never'
p1117
aS'typhoon'
p1118
ag10
aS'birthday shes lurv'
p1119
aS'featuring'
p1120
aS'issue online lt33333 thank everybody contributed lt3333'
p1121
aS'brand issue online feat'
p1122
aS'issue coming tomorrow lt333333'
p1123
aS'brand interview shabby doll house'
p1124
asS'2012_46'
p1125
(lp1126
S'issue coming tuesday lineup announced later today goddammit excited'
p1127
ag10
aS'lucy said short story lorrie moores first draft classic'
p1128
aS'parlor drop today feat'
p1129
asS'2012_41'
p1130
(lp1131
S'submisions close tonight midnight issue five email'
p1132
asS'2012_40'
p1133
(lp1134
S'submissions open october send stories errbody sending poems looking stories thank thank'
p1135
aS'submissions open days'
p1136
aS'poem'
p1137
asS'2012_43'
p1138
(lp1139
S'read story shabby doll house make feel better life'
p1140
aS'really good really liked superbowl'
p1141
aS'published thing wrote courtmandated thinking errors class attended'
p1142
aS'wonderful poem issue today'
p1143
aS'sweet piece issue'
p1144
aS'beautiful poems issue'
p1145
aS'link thing issue shabby doll house theyre tweets thank reading'
p1146
aS'poem wrote long time online'
p1147
aS'issue online featuring'
p1148
aS'issue five online'
p1149
aS'things next issue tuesday'
p1150
aS'tomorrow long love poem wrote everyone everything exist published'
p1151
asS'2012_42'
p1152
(lp1153
S'shabby doll five full line'
p1154
aS'shabby doll five coming tuesday feat'
p1155
aS'thank darling youve helped make happy year proudtobeshabby'
p1156
aS'happy birthday'
p1157
aS'week issue five'
p1158
aS'yall know pancho espinosa shabby doll favorite'
p1159
aS'comes october 23rd onwards'
p1160
aS'hope write good enough poems send'
p1161
asS'2014_36'
p1162
(lp1163
S'brooklyn success'
p1164
aS'want little black dress says turned around look going slit throat'
p1165
aS'beethoven movie series lord rings'
p1166
aS'whats bothering write snap throw away fave gets copy 1pageatatime'
p1167
asS'2014_37'
p1168
(lp1169
S'videopoem beijing called cool website'
p1170
aS'pray boredom farmers pray rain'
p1171
aS'aware could measure distance amount blood takes heart move'
p1172
aS'followers might like know september issue live open october subs'
p1173
aS'asked walgreens lady road maps replied like roads'
p1174
aS'sensational'
p1175
aS'matt nelson captures something true rare powering forward'
p1176
aS'thank'
p1177
aS'lying asphalt slick warm alive'
p1178
aS'aware could measure distance amount blood takes heart move'
p1179
asS'2014_34'
p1180
(lp1181
S'impulse reach inside tear things want'
p1182
aS'screaming poem honest'
p1183
asS'2014_35'
p1184
(lp1185
S'chart'
p1186
aS'comfort food comfort beers comfort drugs comfort procrastination comfort petting animals affectionately nonstop'
p1187
aS'cant take minutes late dont deserve minutes late make effort'
p1188
aS'glanced date august 2014 desktops calendar briefly wondered computer exaggerating'
p1189
aS'feels like building perspective life exactly like summer tried build deck'
p1190
aS'showers still steadiest reliable borderline miraculous source comfort intellectual wisdom'
p1191
aS'cope challenge really loved catyou would free'
p1192
aS'like talk dogs find ghost want know became'
p1193
asS'2014_32'
p1194
(lp1195
S'reading montreal friday'
p1196
aS'boyfriend told butterfly today described butterfly felt jealous'
p1197
aS'happy brings stick excited dude stop trying make fetch happen'
p1198
aS'truth anything plain cheese pizza reveal deathbed ignores sext hologra\xe2\x80\xa6'
p1199
aS'received angry text telling live life like bret easton ellis novel choking trail lesst\xe2\x80\xa6'
p1200
asS'2014_33'
p1201
(lp1202
S'enough trees become forest whether mean'
p1203
aS'someone gave three mangos never owned mango scared googling look mango'
p1204
aS'station know sweetheart'
p1205
aS'preorder book read happy alcoholic drug addict'
p1206
aS'send macbook photo booth video drinking alcohol malwhitatgmaildotcom want appear\xe2\x80\xa6'
p1207
aS'cant wait submit every unsolicited dick ever recieved'
p1208
aS'learning shabby doll house'
p1209
aS'feel intensely protective people post thanks someone accepts friend request fbook'
p1210
asS'2014_30'
p1211
(lp1212
S'reading tonite unnameable books book release'
p1213
aS'sudden urgent craving taco bell feel like could make delivered dont'
p1214
aS'think next time north brooklyn walk stop taco bell flushing hour'
p1215
aS'dont need getrichquick scheme anyone knows makealivingwagequick scheme thatd great'
p1216
aS'felt like recycling think good'
p1217
aS'method making friends find people weird think cool also what\xe2\x80\xa6'
p1218
aS'vogue wrote want meet person give'
p1219
aS'whos taking ferry librarians reading dare'
p1220
aS'love grocery stores feel like fucking'
p1221
aS'getting back baby back tattooed back'
p1222
aS'metamovements point'
p1223
aS'quit worked years life autopilot feels like pokemon evolution'
p1224
aS'american writers neeeeeeeed read year dazedstates'
p1225
aS'moved paris study pigeons theory different every pigeon wrong'
p1226
aS'skate lakes summer dont mind theres youve swans skates'
p1227
aS'thought talking rambo favorite movies time talking rimbaud'
p1228
aS'halfway idiot spoiled ending idiot'
p1229
aS'line poetry fish crawls ocean punches writing'
p1230
aS'greater beauty world youtube lyric video'
p1231
aS'attn males fuck cant'
p1232
aS'writing poetry mcdonalds course'
p1233
aS'literally'
p1234
aS'tube tattoo says knows struggle'
p1235
aS'years help understand brain works said father russian funerals family would'
p1236
aS'matter time mcdonalds starts selling hummus thought dark clouds crested mountain'
p1237
aS'little ahead cafeteria tells cook name dylan mohammad come grilled cheese'
p1238
aS'asked thought would baked potato sisters wedding said fuck outside pack'
p1239
aS'would like enjoy quiet soupcentric lunch inside restaurant made resemble surface moon'
p1240
aS'realize people literally died volcanoes like upset organic raspberries human beings'
p1241
aS'think fairly traditional storyteller like schizophrenic lives woods television'
p1242
aS'wake clanking indistinct machinery outside window young voice shouting forgot much sucks'
p1243
aS'literature changed forever probably worse'
p1244
aS'youre berlin sunday great poets info'
p1245
aS'preorder copy takah\xc4\x93 today'
p1246
aS'episode almost live hang mighty'
p1247
asS'2014_31'
p1248
(lp1249
S'deadline submit womens issue tonight'
p1250
aS'read beach sunset goodbye city proper'
p1251
aS'hitting perfection doubt today poetry'
p1252
aS'good poem'
p1253
aS'every maine wearing white polo flip flops yelling wife denise across street like'
p1254
aS'episode mike author magnificent ohso'
p1255
asS'2014_38'
p1256
(lp1257
S'furious eminem didnt mile noted playing credits'
p1258
aS'feel inclined every work interaction tell girl gone november fired'
p1259
aS'internet people various sized groups getting fucked drug called audience'
p1260
aS'shit talk period always afraid shell forget visit next month'
p1261
aS'reading friends writers weeks come'
p1262
ag10
aS'literary heroes lana kardashian anna nicole smith nicole richie tracey emin jennifer lopez beyonce'
p1263
aS'literally sitting alone thinking rappers tweeting incoherently freaking adderall'
p1264
aS'cant wait elegant worldly year great posture'
p1265
aS'whenever listen kanye feel like sunshine'
p1266
aS'changing work email signature sorry making interview feminism'
p1267
asS'2014_39'
p1268
(lp1269
S'spirit animal depressed kardashian brother'
p1270
aS'anyone auckland want friend'
p1271
aS'carrying wine said party time said normal every time'
p1272
aS'envision playing candy crush club later tonight'
p1273
aS'whenever drunk bully boys fine'
p1274
aS'hungover alone raining snacks perfect scenario'
p1275
aS'insult telling suck lemon personally like lemons though'
p1276
aS'imso smug opinion'
p1277
aS'nzausukeurope people want book minimal shipping costs'
p1278
aS'want life girl friends reenact name video'
p1279
asS'2012_32'
p1280
(lp1281
S'days submissions close september'
p1282
aS'submissions closing august 14th email pieces date thank'
p1283
aS'check gangstas currently accepting submissions tres bashy'
p1284
asS'2012_33'
p1285
(lp1286
S'shabby doll three coming august 28th'
p1287
aS'last call submissions email midnight tonight august 28th issue thank'
p1288
asS'2013_51'
p1289
(lp1290
S'highlights year'
p1291
aS'physical impossibility death mind someone fricking'
p1292
aS'could hang window looking hours wouldnt mind actually would feel indulgent'
p1293
aS'baroqueass bitches also lifestyle'
p1294
aS'talk talk'
p1295
aS'made blog post thing work liked year friends'
p1296
aS'sometimes think would salinger something awful'
p1297
aS'looked mirror unable think anything uhhuh honey'
p1298
aS'submissions close exciting issue surprises store'
p1299
aS'winter edition amplifier worship'
p1300
aS'great poems adefisayo adeyeye latest'
p1301
aS'winter issue karen green lover'
p1302
aS'seems incredibly bleak theres like escape inside head even youre like successful'
p1303
aS'writeup latest featuring'
p1304
aS'wonderful time year'
p1305
aS'adamjkintern guest post writes experience learned'
p1306
aS'issue nice things'
p1307
aS'love poem'
p1308
aS'poems things cool shabby doll'
p1309
aS'cool poem shabby doll house emmie'
p1310
aS'poem'
p1311
aS'passion crust pizza themed retelling bible'
p1312
aS'felt sure haruki murakami hanging duane reade parking suburban york'
p1313
aS'year online poetry'
p1314
aS'museum cancers entre versos favoritos 2013 mark cugini html giant'
p1315
aS'always read whenever eyes arent bleeding swollen shut currently'
p1316
aS'letting world become boundless labyrinth broken junctures pretty profound stuff'
p1317
aS'feel like winter issue shabby doll house extremely good important recommend'
p1318
aS'paper trail'
p1319
aS'outer space'
p1320
aS'album charge poetry magazine fuck country'
p1321
aS'haters still follow look shit'
p1322
aS'portraits paypal stephenmichaelmcdowell gmail draw anything'
p1323
aS'deadline submission 31st janaury 2014 please send literary inquiriessubmissions'
p1324
aS'facebook page download full brief issue'
p1325
aS'everyone happy announce galavant magazine open call visualliterary submissions'
p1326
aS'excellent poetry winter issue'
p1327
aS'icymi wrote future plagued personal friends named sistine yoloadobe'
p1328
aS'work jessica hayworth poem outer space issue'
p1329
aS'also highly recommend vicki tingle mike young crispin best'
p1330
aS'poems named prominent auteurs winter issue shabby dollhouse'
p1331
aS'like poem ridiculous every single simile metaphor'
p1332
aS'broke shabby dollhouse warm'
p1333
aS'liked poems'
p1334
aS'reading winter issue'
p1335
aS'think think best issue ever'
p1336
aS'feel compelled send mass text contacts reads read fucking storyread everyone elses storyslanging'
p1337
aS'bitches'
p1338
aS'poem latest many good things'
p1339
aS'poems make forthcoming lucks books'
p1340
aS'issue awesome'
p1341
aS'wrote long poem love'
p1342
aS'thank everybody happy'
p1343
aS'story featuring artwork thany sanches winter edition shabby doll house'
p1344
aS'work included winter issue released today alongside awesome poem carolyndecarlo'
p1345
aS'help cant stop checking'
p1346
aS'winter edition shabby doll house online'
p1347
aS'thing latest issue shabby doll house pictures'
p1348
aS'latest issue good poems'
p1349
aS'ummm poems latest fucking kidding'
p1350
aS'winter edition shabby doll house online'
p1351
aS'trying kill'
p1352
asS'2013_50'
p1353
(lp1354
S'indie press books zines give lover life giftguide'
p1355
aS'winter edition coming tuesday december 17th merry winter edition\xe2\x80\xa6'
p1356
aS'winter edition coming tuesday december 17th'
p1357
aS'said tonight dine mexico brought tostitos margarita room'
p1358
aS'tribe everyone every role ends left aesthetics'
p1359
aS'ashley opheim interviewed fanzine'
p1360
aS'going unless know lyrics beautiful dark twisted fantasy'
p1361
aS'much kale stories ernest hemingway'
p1362
aS'somebody want cover winter edition majorminor publication somebody wanna interview'
p1363
aS'common thoughts working shabby doll enough females submit prose bitches'
p1364
aS'sale xmas sale merry xmasliterature'
p1365
asS'2013_52'
p1366
(lp1367
S'website sensational'
p1368
aS'wrote guide short stories'
p1369
aS'untitled word documents open coherent novel aint'
p1370
aS'james ganas reading poems riviere winter issue'
p1371
asS'2012_52'
p1372
(lp1373
S'seen mountaintop reading short stories'
p1374
aS'young money poetry tonight 730pm microscopes gallery'
p1375
aS'haha lt33333'
p1376
aS'going write haiku draw satanic stuff body sharpie shabby'
p1377
aS'doll house isnt going together shouted particular slurring badly'
p1378
aS'young money poetry feature author'
p1379
aS'young money poetry feature author'
p1380
aS'young money poetry feature author'
p1381
aS'young money poetry feature author'
p1382
aS'young money poetry feature author'
p1383
aS'young money poetry feature author'
p1384
aS'never many shabby dolls room'
p1385
aS'youre 30th yall come young money poetry hosted'
p1386
aS'young money poetry 30th'
p1387
asS'2012_50'
p1388
(lp1389
S'issue coming december 18th'
p1390
aS'issue coming december 18th'
p1391
aS'issue coming december 18th'
p1392
aS'gurl loved poem truely wonderful'
p1393
asS'2012_51'
p1394
(lp1395
S'issue online'
p1396
aS'issue feature coming tomorrow'
p1397
aS'issue feature tomorrow december 18th'
p1398
aS'issue coming tomorrow lt3333'
p1399
asS'2014_43'
p1400
(lp1401
S'feel like women forced write stories basic uninteresting'
p1402
aS'like boring must write renee zellwegers plastic surgery impossible standards'
p1403
aS'like trying live life explain beyonce people never going'
p1404
aS'really tired explainy feminist justification thinkpiece everything women public'
p1405
asS'2014_42'
p1406
(lp1407
S'conceptidea isnt going away needs evolve believe potential grow blossoms'
p1408
aS'theres person thats accidentally texting years thinking mothers phone best'
p1409
aS'feeling self destructive drinking soda'
p1410
aS'feel like reality potatoes'
p1411
aS'catch wandering thru williamsburgs parks apple cider like basic bitch thinking love everything'
p1412
aS'nicki minaj songs great dealing problem ever full stop'
p1413
aS'chock full inspiration good humor talent really guys'
p1414
aS'accidentally unfollowed trying retweet please forgive'
p1415
aS'refuse believe work money'
p1416
aS'playing house still favorite game drunk'
p1417
aS'made book staff pick small press section dead'
p1418
aS'someone publish poem'
p1419
aS'accidentally tried order french starbucks seattle barista looked like wasnt sure whether'
p1420
aS'tipping generously usual trip feel like wealthy benefactor like creating jobs'
p1421
aS'sneak peak essay watching beethoven movie adult viewing vaguely buddhist perspective'
p1422
aS'lets obsessed lindsay lohans 8part oprah documentary'
p1423
aS'fame poison'
p1424
aS'world uncertainty collective moment feel gratitude towards water always bein\xe2\x80\xa6'
p1425
aS'imagined spirit twerking'
p1426
asS'2014_41'
p1427
(lp1428
S'wake every trying give something back rock proud'
p1429
aS'reaction jolted awake nightmare dark still stare suspiciously closet pass'
p1430
aS'american measure height feet moons tears gallons weight regret carry'
p1431
aS'also also obama goddam weather swear'
p1432
aS'thinking someone wont know dumb someone thinking wont'
p1433
aS'party every nostalgic thing gotta things'
p1434
aS'trying back time unbless every sneeze ever blessed save dying loved single'
p1435
aS'type baby seal brushes dirt shoulder spits blood walks back club'
p1436
aS'digging past memories order write poem burying real quick friends dont'
p1437
aS'tried talking squirrel away lost touch'
p1438
aS'always summer bedstuy'
p1439
aS'friends idiots biggest idiot'
p1440
aS'parallel earth descended bears beards drink beer'
p1441
aS'writing poem like winning argument universe'
p1442
aS'essential thoughts rape allegations abuse sexual assault misogyny'
p1443
aS'ethical display mummified bodies museums remains seen'
p1444
aS'instinctively feel must time didnt every time dont remember'
p1445
aS'losing tiny mind'
p1446
aS'gettin strong'
p1447
aS'remember ello'
p1448
aS'reading friday mass gallery come'
p1449
asS'2014_40'
p1450
(lp1451
S'wknd time drink wine room alone'
p1452
aS'period goth'
p1453
aS'think important focus issue hand legalizing caffeinated four loko'
p1454
aS'training video began stepping behind shadowy pillar said french novelist nobel prize winner\xe2\x80\xa6'
p1455
aS'bringing phone charger club'
p1456
asS'2014_44'
p1457
(lp1458
S'burrito halloween mean shouldve burritoed covers night'
p1459
aS'carve pineapple year'
p1460
aS'jackson interviewed wgtn zinefest'
p1461
aS'white boys fall asleep night dreaming things theyre going loudly explain someone next'
p1462
aS'sorry shabby doll house'
p1463
aS'feels like spirit quest started bingeeating cereal reddit forum listing photos'
p1464
asS'2013_42'
p1465
(lp1466
S'matt damon best friends affleck nothing ever break strong bond'
p1467
ag10
aS'favorite part fall zine read whole zine forever'
p1468
asS'2013_43'
p1469
(lp1470
S'ever look think damn lucky alive period literary history'
p1471
aS'good thing time year internet'
p1472
aS'poems walt whitman'
p1473
aS'shit going know'
p1474
aS'always bring backup beanie case spill beer'
p1475
aS'wait best outrageously create illusion thats system everyone\xe2\x80\xa6'
p1476
aS'girl crushing indifference universe cant stop thinking'
p1477
aS'guys poetry collection titled takah\xc4\x93 coming 2014'
p1478
aS'screaming girl stacey teague book coming'
p1479
aS'selfpromotion stresses going listen kanye next hours'
p1480
aS'forthcoming 2014 takah\xc4\x93 poetry book stacey teague'
p1481
aS'submissions open guidelines'
p1482
aS'submissions open winter issue'
p1483
aS'todays 2014 unsolicited advice weekly planner journal treats kickstarter'
p1484
aS'turned corner group receptionists wearing witch hats legitimately panicked several fear packed seconds'
p1485
aS'mike salisbury bushnell internet'
p1486
aS'made website friend sarah jean'
p1487
aS'stranger everyone cared deeply brittany wallace latest poems'
p1488
aS'next dead language'
p1489
ag10
aS'benefit sisters black matthew bookin'
p1490
aS'first poem reminds poetic take safety netfalling poem weeks'
p1491
aS'yelp literature altlit'
p1492
aS'lunas brilliant long poem museum cancers read translated form 89plus'
p1493
asS'2013_40'
p1494
(lp1495
S'watched girl approach park indiscreet drug transaction began furiously make'
p1496
ag10
aS'buying tostitos okay'
p1497
aS'matt singing prince simultaneously reading poetry stop witness'
p1498
aS'poetry question love shabby doll house'
p1499
aS'hollerpresents words'
p1500
aS'favorite writing'
p1501
aS'subtweet'
p1502
aS'would feel ridiculous addressed canada like american poets address america'
p1503
aS'favourite website'
p1504
ag10
ag10
aS'face among various attractive screaming faces'
p1505
aS'press quarterly work abandon hope enter'
p1506
aS'zine shabby doll house fall edition'
p1507
aS'smash autumn'
p1508
aS'tender online'
p1509
aS'someone else please find'
p1510
ag10
asS'2013_41'
p1511
(lp1512
S'relax tonight curl laptop glass fine water'
p1513
aS'goal next collection make readers personally dislike first story somehow forgiven'
p1514
aS'partly sunny chance existential horror'
p1515
aS'please share fundraiser'
p1516
aS'shabby doll house posted story swag swag swag swag happy right'
p1517
aS'short story shabby doll house issue'
p1518
aS'since moving paris life gotten kafkaesque'
p1519
aS'know call satisfries commercial sounds like saddestfries sadistfries basicall\xe2\x80\xa6'
p1520
aS'ever ready scream'
p1521
aS'feel like said character character times past weeks entire life'
p1522
aS'roll club like bitchesget lvldont lifes absurd secretly knowing basic\xe2\x80\xa6'
p1523
aS'words maori mean night dream'
p1524
aS'screaming'
p1525
aS'always available specific type loneliness'
p1526
aS'came closet entire extended family told move blocking wasn\xe2\x80\xa6'
p1527
aS'stop telling need toilet youre real bladder anyway punchline step bladder'
p1528
asS'2013_46'
p1529
(lp1530
S'estoy gritando noticias'
p1531
aS'shabby doll news'
p1532
aS'want fame fortune countless adventures immortality power sleep anyone want death enemie\xe2\x80\xa6'
p1533
aS'cant stop perceiving humanitarian person eats people'
p1534
ag10
aS'okay heres something help life'
p1535
aS'dont think theyre available ebooks find work authors'
p1536
aS'update number love poet world right love poet'
p1537
aS'number billy collins numbers thats fair'
p1538
aS'submissions winter issue close days'
p1539
aS'number love poet world right book'
p1540
aS'hours left 2014 unsolicited advice weekly planner journal kickstarter'
p1541
aS'made chapbook published funny read ordered'
p1542
aS'today bright stupid confetti shaw joins authors artists series beautiful piece meggie green'
p1543
aS'wrote something meggie green bright stupid confetti'
p1544
aS'reading museum cancers'
p1545
aS'eight hours left donate mellow pages library'
p1546
aS'peter told websites visits gmail twitter screaming tumblr'
p1547
ag10
aS'excerpt collection'
p1548
aS'another tbqh reading later month'
p1549
aS'photo shabbydollhouse submissions shabby doll house open please email work'
p1550
aS'dazed guide'
p1551
asS'2013_47'
p1552
(lp1553
S'shabby dolls named favorite book read year'
p1554
aS'submissions close days november 26th midnight'
p1555
aS'favorite book read year quotes previous contributors'
p1556
aS'posted contributor list books read year check read books christmas'
p1557
aS'shabby doll favorite books'
p1558
aS'shabby dolls favorite books year coming soon'
p1559
aS'feels like sort mediocre buddah goes around teaching pronounce first name instead'
p1560
aS'wrote track track analysis kanye album lucy'
p1561
asS'2013_44'
p1562
(lp1563
S'dennis cooper transgressive writer simple poetry complicated porn philosophy'
p1564
aS'poetry thing'
p1565
aS'yall late mike bushnell special still give spare cash mellow pages library'
p1566
aS'book title changed called polymath 21414'
p1567
aS'number hang sometime basically like people theory practice'
p1568
aS'dont know help send screaming snapchats mouths wide open'
p1569
aS'pretty intense conversation moccasins last night drinking pumpkin beer might allergic cant keep\xe2\x80\xa6'
p1570
aS'started laughing couldnt stop looking selfie around pineapple'
p1571
aS'\xe2\x80\x9cwitches\xe2\x80\x9d poem chad redden flashback'
p1572
aS'happy halloween needless best celebrate stay home watch hocus pocus'
p1573
aS'2014 unsolicited advice planner journal full sarcasm nagging'
p1574
aS'bought copy kadian jordan castro last year included empty blunt wrapper condom chapbooks'
p1575
aS'appreciated bohemyth submit'
p1576
aS'submissions winter edition open november 26th'
p1577
aS'like legs feel legs'
p1578
aS'cant imagine situation telling someone youre good girl know would casual nonthreatening'
p1579
aS'coworker bunch temps helping project look sortof like imagine every grows'
p1580
aS'sleep till brooklyn situation people excited funerals murder trials biblical reenactment\xe2\x80\xa6'
p1581
aS'usually dont advocate anything general recommend donating retweet'
p1582
aS'help fund help give amazing small press books permanent place live'
p1583
aS'help friends fundraise stay free open public'
p1584
aS'recommend parable deathlifewhateversomethingetc shabbylife'
p1585
aS'help good people keep unique library space open time reading'
p1586
asS'2013_45'
p1587
(lp1588
S'submissions open volume'
p1589
aS'things today went walk rain cried nicki minaj documentary'
p1590
aS'trying think good sneak 2014 edition last year listed birthday'
p1591
aS'whenever read piece writing love think tell person much loved'
p1592
aS'made goodreads account vote book please'
p1593
aS'party people like introduce project mine'
p1594
aS'three weeks submissions close'
p1595
aS'didnt realize writing'
p1596
aS'imagine much money andy warhol made morning ebook find accident'
p1597
aS'dont forget submit issue november 15th'
p1598
aS'believe anything'
p1599
asS'2013_48'
p1600
(lp1601
S'video reading tbqh london last night'
p1602
aS'finna mogul emotional'
p1603
aS'submissions closed winter issue thank everybody submitted back asap'
p1604
aS'like congratulate beginning beautiful career suicide'
p1605
aS'heres list compiled people saying books 2013'
p1606
aS'list favorite books republished'
p1607
aS'writers favorite books year'
p1608
aS'submissions close tomorrow'
p1609
asS'2013_49'
p1610
(lp1611
S'issue coming december 17th line announced later week'
p1612
aS'everyone sitting around feeling pain'
p1613
aS'quietus published poems wrote thank quietus'
p1614
aS'good thing alive view'
p1615
aS'published shabby doll house'
p1616
aS'gabby gabby writes lucy shaw kanye west persons sense place'
p1617
aS'lucy shaw collected poetry place great'
p1618
aS'favorite book read year shabby doll house dankland kind'
p1619
aS'want text come downstairs sleep'
p1620
aS'prose submissions females whats girls'
p1621
aS'failed movie reviewessay wrote fanzine today'
p1622
aS'photos tbqh reading london'
p1623
asS'2012_29'
p1624
(lp1625
S'workin next level shabby'
p1626
aS'dont famous shabby doll genius'
p1627
aS'love fellow shabby dolls'
p1628
aS'shot opportunity'
p1629
aS'interested human experience interested human experience'
p1630
aS'shabby doll house releasing pieces july 31st accepting submissions ongoing basis point'
p1631
aS'sherby derl'
p1632
aS'would interested read feel free send poems little collection work together'
p1633
aS'really enjoyed story felt street level familiar'
p1634
asS'2012_28'
p1635
(lp1636
S'shabby doll revolution'
p1637
aS'damn lots great submissions shabby'
p1638
aS'eating cream wherever shabby'
p1639
aS'million partially successful handshakes shabby'
p1640
aS'thousand lonely fathers shabby'
p1641
aS'shabby'
p1642
aS'reading submissions tomorrow keep coming'
p1643
asS'2012_27'
p1644
(lp1645
S'going submit shabby doll house'
p1646
aS'want'
p1647
ag10
ag10
aS'love'
p1648
aS'live'
p1649
aS'incredible beach sloth review shabby doll house'
p1650
aS'life slow know sloth'
p1651
aS'email'
p1652
aS'friend'
p1653
aS'shabby doll accepting submissions next generation shabby dolls'
p1654
ag10
aS'looking storespoemsessaysillustrationsemailschats basically anything seems shabby doll'
p1655
aS'read half feel really happy later going dead prez happy abou'
p1656
aS'shabby doll'
p1657
ag10
ag10
ag10
ag10
aS'shabby doll'
p1658
aS'shabby'
p1659
ag10
aS'shabby doll'
p1660
asS'2012_26'
p1661
(lp1662
S'shabby doll house coming july'
p1663
asS'2012_25'
p1664
(lp1665
S'interested publishing great examples human behaviour'
p1666
aS'shabby shabby shabby'
p1667
aS'people making'
p1668
asS'2012_24'
p1669
(lp1670
S'want walter mackey shabby doll'
p1671
aS'interested storiespoetryemailsillustrations'
p1672
aS'issue coming soon'
p1673
aS'please send submissions issue'
p1674
asS'2012_22'
p1675
(lp1676
S'youre disco disco think'
p1677
aS'youre bank sitting pensive trying discern best make shabby doll house something great'
p1678
aS'youre eating dinner rebranding lifestyle'
p1679
aS'youre work writing another story'
p1680
aS'youre editing story'
p1681
aS'youre sleeping writing story'
p1682
aS'feels like perfect work'
p1683
aS'wait almost'
p1684
aS'shes right always shabby doll time'
p1685
aS'almost shabby doll time'
p1686
aS'much hype surrounding youngest shabby doll right'
p1687
asS'2012_21'
p1688
(lp1689
S'shabby dolls'
p1690
aS'pablo neruda'
p1691
aS'jayz'
p1692
aS'diane prima'
p1693
aS'william burroughs'
p1694
aS'ella fitgerald'
p1695
aS'fiona apple'
p1696
aS'joyce johnson'
p1697
aS'oscar wilde'
p1698
aS'jack kerouac'
p1699
aS'frank ohara'
p1700
aS'elvis costello'
p1701
aS'courtney love'
p1702
aS'charlie parker'
p1703
aS'jeanmichel baquiat'
p1704
asS'2012_20'
p1705
(lp1706
S'shabby dolls come alive night time'
p1707
aS'thinking today email piece'
p1708
aS'youre shabby doll'
p1709
aS'shes shabby doll'
p1710
aS'shabby doll'
p1711
aS'shabby dolls river side stop waiting break'
p1712
aS'shabby dolls pace balcony'
p1713
aS'shabby dolls walk woodlands hide underneath rocks'
p1714
aS'shabby dolls wander financial district alone night time listening anthemic songs'
p1715
aS'beautiful shabby dolls dance fountains afternoon'
p1716
aS'lonely shabby dolls kept alive laptop lights'
p1717
aS'circle shabby dolls holding hands stretches around planet earth'
p1718
aS'things beautiful circle shabby dolls holding hands'
p1719
aS'real life lets friends shabby dolls holding hands'
p1720
aS'lets friends every possible social media platform'
p1721
aS'followers shabby doll house friend facebook'
p1722
aS'happened'
p1723
aS'shabby doll generation'
p1724
aS'acting dignified'
p1725
aS'thats name issue strange things thinking'
p1726
aS'accepting submissions shabby doll issue generation shabby class college years revenge shabby doll house'
p1727
aS'shabby doll mean something diferent every shabby doll thats fact'
p1728
aS'shhhhhhhhh shabby dolls work'
p1729
ag10
aS'feels like shabby today meant great'
p1730
aS'shabby doll currently followers lets realistic 10000 time next year'
p1731
aS'shabby dolls live forever'
p1732
aS'still chance become original shabby doll creative genius send submission'
p1733
aS'shabby dolls twitter doesnt make less shabby'
p1734
aS'shabby doll hysteria featuring'
p1735
aS'shabby doll mania featuring'
p1736
aS'original shabby dolls damn think'
p1737
aS'damn looking shabby today'
p1738
aS'shabby doll house online publishing house like stories poems kinds writing also like paintings'
p1739
aS'reason youre following shabby doll house sick head'
p1740
aS'shabbier average doll house perhaps'
p1741
aS'good good shabby doll house sweet'
p1742
aS'shabby doll always shabby doll'
p1743
aS'heard shabby doll house seems like something would'
p1744
aS'jayz reason youre following shabby doll house'
p1745
aS'almost everybody associated shabby doll house emotional wreck interest spread shabby doll word'
p1746
aS'best become shabby doll simply remove traces dignity personalitylifestyle'
p1747
aS'shabby doll house coming soon truly mean shabby doll house alive sound music'
p1748
aS'good idea must spread shabby doll word people planet earth'
p1749
aS'please tweet'
p1750
asS'2013_37'
p1751
(lp1752
S'name sarah nalexander'
p1753
aS'feels good suddenly remember reading exists'
p1754
aS'issue coming september 24th'
p1755
aS'read summer issue shabby doll house seemed good'
p1756
aS'cold feelings feelings variations tired'
p1757
aS'soon opinion anything anyone else fucking'
p1758
asS'2013_36'
p1759
(lp1760
S'brought tweet'
p1761
aS'says dont give face says literally gave face'
p1762
aS'know anybody writing anything even vaguely interesting please'
p1763
aS'many coincidences know'
p1764
aS'roommate sees laughing twitter asks laughing tweets time'
p1765
aS'submissions closed thank everybody submitted'
p1766
aS'killed duck biggest regret'
p1767
aS'told someone write actually going play candy crush saga'
p1768
aS'submissions fall issue close tonight midnight'
p1769
aS'submissions fave online journals close today accepting poetry'
p1770
asS'2013_35'
p1771
(lp1772
S'submissions fall issue close september time running'
p1773
aS'jdafhsdf oi3ruqio gamv adsjkfadfjkl j3kqj close jazz well keyboards today'
p1774
asS'2013_34'
p1775
(lp1776
S'still screaming last night'
p1777
aS'home shabbydollhouse reading bushwick ladies throw party'
p1778
aS'photos last nights reading'
p1779
aS'reading spreecast happening'
p1780
aS'turning look matts notes reading tonight guys'
p1781
aS'excited reading tomorrow'
p1782
aS'tomorrow summer reading meggie'
p1783
aS'shabby doll summer reading tomorrow night brooklyn'
p1784
aS'chart somewhere titled books written goes social anxiety spends time alone'
p1785
aS'john mortara social construct'
p1786
aS'excited thursday night'
p1787
aS'drinking beer listening etta james fire escape sarah jean submit shabby doll house'
p1788
asS'2013_33'
p1789
(lp1790
S'shabby doll summer reading next thursday feat'
p1791
aS'show'
p1792
aS'started business meeting playing illest motherfucker alive'
p1793
aS'sarah jean wrote beautifully accident'
p1794
aS'reading simone beauvoir thanks'
p1795
aS'reminder submissions fall issue close september'
p1796
aS'somebody likes face looks theyre going away would didnt'
p1797
aS'friend request complete stranger mutual friends friend request relative mutual friend'
p1798
aS'whoa kanye named wild wild fuck smith'
p1799
aS'phrase meaningful relationship seems bullshit never relationship duration consider meani\xe2\x80\xa6'
p1800
aS'dropped pack twizzlers thought cant hold liquorice'
p1801
asS'2013_32'
p1802
(lp1803
S'make spinoff shabby doll house zine shabby house'
p1804
aS'parlor issue featuring'
p1805
aS'issue wsweet poem part starts shifting ends'
p1806
aS'today good summer check summer issue'
p1807
asS'2013_31'
p1808
(lp1809
S'bites prettier'
p1810
aS'talked tumblr selfies women writers annnd book girls'
p1811
aS'thought straight face well storys gonna write bent glasses fell'
p1812
aS'working factory'
p1813
aS'accepting submissions prose poetry visual information'
p1814
aS'submissions open fall issue guidelines'
p1815
aS'patient kind'
p1816
ag10
asS'2013_30'
p1817
(lp1818
S'wrote poem'
p1819
aS'sell novel based outline female friendships male relationships tone \xe2\x80\x98gross male arrogance\xe2\x80\x99 dicks'
p1820
asS'2012_34'
p1821
(lp1822
S'days'
p1823
asS'2013_1'
p1824
(lp1825
S'thank coming last night'
p1826
asS'2012_36'
p1827
(lp1828
S'reminder submissions issue close september 11th'
p1829
asS'2012_37'
p1830
(lp1831
S'submissions closed contact everyone asap thank sending wonderful things'
p1832
aS'interviewed'
p1833
aS'know dont tell submissions close midnight tonight email thank everybody'
p1834
aS'thank noticing'
p1835
aS'original shabby dolls'
p1836
aS'love poems'
p1837
aS'walter mackey wrote thriller shabby doll house also'
p1838
aS'guys know frank jackson wrote heartbreaking story truly shabby doll'
p1839
aS'shabby doll wrote beautiful poem'
p1840
aS'favourite female writers internet'
p1841
aS'editor beautiful wrote wonderful piece'
p1842
aS'seems impossible sufficient amount nice things makes really happy'
p1843
aS'wrote funny story seems like read'
p1844
aS'feel interested stories music playing music listening music writing music dancing music yeah enjoy music'
p1845
aS'feel interested stories places people speak another language'
p1846
aS'submissions cats dont know'
p1847
aS'decided approx pieces issue point think emailing everyone back next days'
p1848
aS'rereading austin islams piece like well amazing'
p1849
aS'remember used tweet like things never anymore imma start maybe'
p1850
aS'submissions issue four close tomorrow midnight email submit thank'
p1851
asS'2012_30'
p1852
(lp1853
S'youre already friends facebook friends facebook'
p1854
aS'almost show time'
p1855
aS'last call submissions july 31st shabby midnight tonight email lkshowbiz gmail'
p1856
asS'2012_31'
p1857
(lp1858
S'reading submissions guys good'
p1859
aS'everyone welcome shabby doll house'
p1860
aS'feeling cosmically boosted pieces hope guys enjoying thank everyone contributedsubmittedread'
p1861
aS'poetry collection titled bodies wont bodies point published'
p1862
aS'shabby doll house published poem titled cigarettes'
p1863
aS'welcome shabby doll house everyone'
p1864
aS'story'
p1865
aS'story murdoch lamarche'
p1866
aS'gchat'
p1867
aS'poems'
p1868
aS'story'
p1869
aS'story'
p1870
aS'story'
p1871
aS'poem'
p1872
aS'shabby doll house featuring'
p1873
aS'nine pieces online'
p1874
asS'2013_39'
p1875
(lp1876
S'anybody wants cover fall issue popular websitepublicationtelevision show'
p1877
aS'people submit poems illustrate best ones'
p1878
aS'bedbased artist'
p1879
aS'saved snap come shouldnt'
p1880
aS'poems poem good poem good'
p1881
aS'congratulations geniuses cant compete'
p1882
aS'issues shabby doll house'
p1883
aS'illustrations fall edition shabby doll house heres'
p1884
ag10
aS'photo shabbydollhouse fall edition online'
p1885
aS'squirrels mccarren park apples squirrels washington square park wont'
p1886
aS'theres story issue shabby doll house involving chronic googler strongly identify'
p1887
aS'really happy bark collage next benjamin clancy poem fall issue'
p1888
aS'poems theyre better gatorade theyre better gatorade made real gators'
p1889
aS'wonderful time year'
p1890
aS'collaboration boys'
p1891
aS'fall edition features'
p1892
aS'really glad adderall released fall issue'
p1893
aS'congrats fall edition online poetry journals\xe2\x80\xa6'
p1894
aS'fall edition online'
p1895
aS'fall'
p1896
aS'next tremble like complicated bone flute'
p1897
aS'made video poem'
p1898
aS'cant figure cool alone even alive'
p1899
aS'thing wrote poop republished today'
p1900
aS'call taylor swift could went breakup'
p1901
aS'boyfriend computer dont really know else happening'
p1902
aS'currently playing show people plus staff tweeting playing'
p1903
aS'need morning'
p1904
aS'going need kanye today drake quite strong enough'
p1905
asS'2013_38'
p1906
(lp1907
S'sarah suggested name shabby doll house anthology sheezus'
p1908
aS'line fall issue coming tuesday'
p1909
aS'line announcement coming later today'
p1910
aS'week issue drops'
p1911
as.