(dp0
S'2013_42'
p1
(lp2
S''
p3
aS'thats frfr'
p4
ag3
aS'today'
p5
aS'irri'
p6
aS'didnt want first place'
p7
ag3
aS'ctfu damn strawberries anyway'
p8
aS'shared yogurt smoothie'
p9
aS'boyfriend'
p10
aS'ctfu'
p11
aS'ctfu life fucked'
p12
aS'fucked'
p13
aS'thing loved card really came heart'
p14
aS'still like'
p15
aS'love destinee'
p16
aS'goodnight'
p17
aS'love'
p18
aS'bout amin'
p19
aS'hope'
p20
aS'spent'
p21
aS'well twitter'
p22
aS'busy'
p23
aS'bout tired'
p24
aS'much'
p25
ag3
ag3
aS'hope like today'
p26
aS'lovemy baby'
p27
aS'night gtgtgtgt'
p28
aS'today'
p29
aS'miss'
p30
ag3
aS'staying today seem make everybody'
p31
aS'irritated'
p32
aS'none'
p33
aS'mixed emotions'
p34
aS'lmfao'
p35
aS'told raina gayiest bitch twitter lmao'
p36
ag3
aS'yalll twitter'
p37
aS'relationship talk good morning goodnight never bored'
p38
ag3
aS'sitting shoulders mean face dummys'
p39
aS'never'
p40
aS'well mins'
p41
aS'nigga'
p42
aS'shoulders mean'
p43
aS'gabe stfu slap'
p44
aS'ctfu'
p45
aS'party today'
p46
aS'ctfu gabe'
p47
aS'ctfu daughter tryed'
p48
aS'love'
p49
aS'love tooooo'
p50
aS'ctfu yall chill tell milan stfu lame michigan'
p51
ag3
aS'ctfu found ronell gabe cousin'
p52
aS'gabe ugly'
p53
aS'said princess nelson ctfu'
p54
aS'1118 love'
p55
ag3
aS'hurt'
p56
aS'couples breaking throwing love away'
p57
aS'fuck gabe'
p58
aS'destinee life short'
p59
aS'gabe thot'
p60
aS'ctfu love sister called'
p61
aS'love'
p62
aS'igly back\xe2\x80\x9ddamn bitch ugly\xe2\x80\xa6'
p63
aS'ctfu life gabe'
p64
aS'destinee punk'
p65
aS'ctfu gabe subtweeting shit'
p66
aS'destinne hating ugly'
p67
aS'igly back'
p68
aS'ctfu gabe aruging bout smoking ctfu life short'
p69
aS'bout'
p70
aS'leslie hurt feeling'
p71
aS'mean'
p72
aS'leslie hater cute'
p73
aS'nigga like'
p74
aS'bout leave class'
p75
aS'beautyful'
p76
aS'shit ctfu'
p77
aS'gabe ugly'
p78
aS'daughter miss ugly tail'
p79
aS'hows texas tell auntie'
p80
aS'computer bored'
p81
aS'sisterrrrrrrrrrrrrrrrrrrrrrr'
p82
aS'bored'
p83
aS'boutto sleep'
p84
aS'tired'
p85
aS'shut make'
p86
aS'stupid'
p87
aS'think called'
p88
aS'didnt back bout turn phone'
p89
aS'bored anit'
p90
aS'moved bffl'
p91
aS'class boring hell'
p92
aS'jessica bout turn'
p93
aS'ctfu class protesting'
p94
ag3
aS'sellin tmobile phone'
p95
aS'uhhh'
p96
aS'pisces fall beautiful woman scope walks'
p97
aS'pisces please spontaneous disappear quicker snap finger'
p98
aS'play games remember pisces menwoman skilled pulling rose covered glass'
p99
aS'pisces\xe2\x80\x99 best choices friends taurus cancer scorpio capricorn\xe2\x80\x9d'
p100
aS'sign aries gemini libra scorpio\xe2\x99\x8f sagittarius capricorn pisces cancer'
p101
aS'shit hurting'
p102
aS'idnt feel good'
p103
aS'body feel different everyday'
p104
aS'ijust wanna'
p105
aS'tonight night'
p106
aS'going early goodnight\xf0\x9f\x91\x8c'
p107
aS'coldddd dudeee'
p108
aS'cold house'
p109
aS'body feelin right'
p110
aS'somthing wrong'
p111
aS'cant tell'
p112
aS'feeling type'
p113
aS'would beautiful child together'
p114
aS'thinking sweetest'
p115
ag3
ag3
aS'feelings never change'
p116
aS'mentions irri'
p117
aS'dimples gtgtgtgtgtgt'
p118
aS'1111 relationship last'
p119
aS'want head'
p120
aS'stop'
p121
aS'1111 need stress'
p122
aS'1111 cant deal'
p123
aS'1111 fuck'
p124
aS'right'
p125
aS'titties growning lol\xe2\x80\x9dshut'
p126
aS'titties growning'
p127
aS'body hurt feel like gotta thrown'
p128
aS'jaylen funny'
p129
aS'eyes hurt'
p130
aS'wanna talk fall asleep'
p131
aS'thursday need tomorrow'
p132
aS'wanna'
p133
aS'niggas anit shit'
p134
aS'hoes aint blessing'
p135
aS'always callin sombody open open person ever'
p136
aS'never deep'
p137
aS'wannnnaaa make love'
p138
aS'istand alone'
p139
aS'hate irrelevant people irrelevant stuff falls back'
p140
ag3
aS'istand alone'
p141
ag3
aS'moved enough'
p142
aS'think bout nights'
p143
aS'confused'
p144
aS'dont even wanna talk'
p145
aS'want'
p146
aS'shit havent feeling lately'
p147
aS'thinking hard'
p148
aS'till call'
p149
ag3
aS'somebody call asap'
p150
aS'wayne shit gtgtgtgt'
p151
aS'changed dont notice'
p152
aS'guess still busy goodnight'
p153
aS'well goodnight bouta find sombody talk'
p154
aS'miss boyfriend onna reals'
p155
aS'thats song tweeting'
p156
aS'thats song gtgtgt'
p157
aS'round round'
p158
aS'cant wait bodg'
p159
aS'idnt think doin'
p160
aS'shit'
p161
aS'feela'
p162
aS'back back'
p163
aS'make body left right side side'
p164
aS'holding hope always lady'
p165
aS'make love feel like world'
p166
aS'wanna body body body'
p167
ag3
aS'shawty make body left right side side behind make body right'
p168
aS'lips lips take rocketship'
p169
aS'cant cant deni came'
p170
aS'iwanna body'
p171
ag3
aS'causemine changed owell'
p172
aS'uhhh hechanged name'
p173
aS'love'
p174
aS'homecoming'
p175
aS'ready weekend gtgtgtgtgt'
p176
aS'might school tomorrow'
p177
aS'shit better'
p178
aS'love irri'
p179
aS'said thats nice'
p180
aS'tellin bout plans weekend'
p181
aS'sitting talkin mama bout'
p182
aS'sombody call'
p183
aS'123456678788you real cool love'
p184
aS'cute'
p185
aS'yalll show baby love stepmom'
p186
aS'5678 miss girly miss number'
p187
aS'school naps gtgtgtgtgtgtgt'
p188
aS'changing'
p189
aS'1205 need closer forget find phone love'
p190
aS'miss'
p191
aS'5678 miss girly'
p192
aS'bored wont wake'
p193
ag3
aS'nigga miss havnt seen'
p194
aS'ctfu mama funny'
p195
aS'direct message numbers'
p196
aS'bored'
p197
aS'bored'
p198
aS'sombody call'
p199
aS'wanna'
p200
ag3
ag3
aS'skeem'
p201
aS'goodnight'
p202
aS'hungry hell dont know make'
p203
aS'aint nothing life better somebody cares'
p204
aS'haha dont play'
p205
aS'nobody'
p206
aS'must wanna fucked'
p207
aS'nope'
p208
aS'love'
p209
ag3
aS'gives'
p210
aS'twitter'
p211
aS'dumb'
p212
aS'fuck'
p213
aS'oooooh'
p214
aS'stfu'
p215
aS'made standards even higher'
p216
aS'anyone'
p217
aS'love'
p218
aS'sexy'
p219
aS'love finna fade thoe'
p220
aS'ctfu petty'
p221
aS'lips'
p222
aS'love sexy'
p223
aS'ctfu shit'
p224
aS'dirty playing self'
p225
aS'nasty'
p226
aS'ctfu playing self horny'
p227
aS'retweet awake'
p228
aS'name fred really'
p229
aS'meaning cracking'
p230
aS'dont fight fair'
p231
aS'ctfu'
p232
aS'ctfu'
p233
aS'fucking hungry dawg'
p234
ag3
aS'1202'
p235
aS'ctfu everybody knowing said look like mook ctfu'
p236
aS'cant believe another'
p237
aS'stay bastrop'
p238
aS'like dead serious stay bastrop yesterday'
p239
aS'another'
p240
aS'guess yall'
p241
ag3
aS'ctfu shame'
p242
aS'nigga'
p243
aS'crazy'
p244
aS'ctfu probably didnt wanna whole time'
p245
aS'whole time might comebck christmas'
p246
aS'seems'
p247
aS'like happened'
p248
aS'feel back call somthing wrong crazy'
p249
aS'yall neva understand'
p250
aS'meaning'
p251
ag3
ag3
aS'would leave'
p252
aS'still atlanta'
p253
ag3
aS'well txting'
p254
aS'punk'
p255
aS'relationships'
p256
aS'actually text back'
p257
aS'number long 2482123404'
p258
aS'need chill stomach starting hurt real'
p259
aS'keidren'
p260
aS'text 8708144153'
p261
aS'sister'
p262
aS'much shit going find peace'
p263
aS'dntneed stressinglike'
p264
aS'trying best'
p265
aS'hurt frfr'
p266
aS'hurt frfr'
p267
aS'1111maybei leave'
p268
aS'1111 fuck'
p269
aS'goin well'
p270
aS'peace twitter'
p271
aS'goin sleep bout deal tonight'
p272
aS'ctfu'
p273
aS'getting thoe imchillin'
p274
aS'come shit'
p275
aS'quiet'
p276
ag3
ag3
ag3
aS'working'
p277
aS'mine'
p278
aS'dekiya nigga telin'
p279
aS'talk gotta everyday'
p280
aS'shower'
p281
aS'chocolate miss already ipromise3'
p282
aS'back pontiac'
p283
aS'home'
p284
aS'boyfriend mean hell'
p285
aS'lady fuckin irri'
p286
aS'need hurry'
p287
aS'byetwitter irritated'
p288
aS'talkin'
p289
aS'iswear irritates shit outta'
p290
ag3
aS'txting'
p291
aS'indiana'
p292
aS'ctfu mentions dissmissed'
p293
aS'ummm'
p294
aS'imean chicken strips'
p295
aS'bout finish chicken nuggets'
p296
aS'mention bout nosey'
p297
aS'love'
p298
aS'love'
p299
aS'home goin shower'
p300
aS'deep sleeps reason'
p301
aS'ctfu lost lastnight'
p302
aS'stomach hurt'
p303
aS'must dead world didnt smell food'
p304
aS'mama stopped mcdonalds didnt wake hoes'
p305
aS'life'
p306
ag3
aS'foget'
p307
aS'wonder wats wrong'
p308
aS'txtin'
p309
aS'imean'
p310
aS'mins'
p311
aS'catch'
p312
aS'woke ibeen sleep whole'
p313
aS'ctfu jalen tell'
p314
aS'yesi couldnt find goob'
p315
aS'sister'
p316
aS'found long lost brother'
p317
aS'baby'
p318
aS'gotta game today'
p319
aS'going farmeeville probably december'
p320
aS'wanna pontiac'
p321
aS'wanna'
p322
aS'worked spots'
p323
aS'fone working farmerville'
p324
aS'morning\xf0\x9f\x91\x8c\xf0\x9f\x92\xab'
p325
aS'weekend'
p326
aS'miss first cousin already'
p327
ag3
aS'didnt'
p328
aS'bouta lomg ride home'
p329
aS'goodmorning'
p330
aS'home'
p331
aS'lousiana'
p332
ag3
aS'cousin whole wide world love girl much miss xxriahhhhhh'
p333
aS'cute sexy love enjoy'
p334
ag3
aS'cousin louisana'
p335
aS'happy louisana'
p336
aS'guard hotel'
p337
ag3
aS'baby kade'
p338
aS'posted photo'
p339
ag3
aS'mama'
p340
aS'mama cousin'
p341
ag3
aS'mama auntie uncle texas'
p342
aS'cousin texas'
p343
asS'2013_43'
p344
(lp345
S'call'
p346
aS'finn warm chilli sick dint feel good'
p347
aS'love'
p348
aS'took care today'
p349
aS'hate fact woke everytime went sleep'
p350
aS'nice'
p351
aS'laid'
p352
aS'dropped'
p353
aS'well'
p354
aS'love forever'
p355
aS'cold'
p356
ag3
aS'party'
p357
aS'goin party'
p358
aS'bout leave computer'
p359
aS'tweet bout nigga'
p360
aS'throat hurt'
p361
aS'crazy'
p362
aS'called crazy today'
p363
aS'erin ugly'
p364
aS'shut nigga'
p365
aS'think changed'
p366
aS'bored'
p367
aS'take everything said bout never sent message'
p368
aS'stfu'
p369
aS'bout sleep'
p370
aS'irritated angry'
p371
aS'head twitter txting back'
p372
aS'soon getting punched damn throat'
p373
aS'shit aint'
p374
aS'1118 princess nelson love'
p375
aS'orange juice'
p376
aS'feeling'
p377
aS'gabe farting class shit stank booty'
p378
aS'hungry lunch need hurry'
p379
aS'fuck gtlt'
p380
aS'better fuckin peanut head twitter shit turing'
p381
aS'might party gtlt'
p382
aS'asshole'
p383
aS'feel horrible bestfriend trying'
p384
aS'teacher coya leslie ctfu'
p385
aS'idnt wanna work'
p386
aS'ijust wanna'
p387
aS'sick'
p388
aS'tyrus irritating'
p389
aS'irritated'
p390
aS'skip school'
p391
ag3
aS'sick'
p392
aS'chilling'
p393
aS'ctfu'
p394
ag3
aS'awww mannn swiper voice'
p395
aS'well'
p396
aS'pose ride gettin money'
p397
aS'leslie'
p398
aS'wasnt mama would'
p399
aS'pick money coney'
p400
ag3
aS'didnt phone'
p401
aS'wanna transfer schools'
p402
aS'rashawn ugly'
p403
aS'class bored'
p404
aS'computer class chillin'
p405
ag3
aS'good morning'
p406
aS'chillin class'
p407
aS'bitch'
p408
aS'bored bored bored'
p409
aS'baeee gone problems like suppose think needa stop'
p410
aS'baeee gone problems like suppose think needa stop'
p411
aS'bored'
p412
aS'goodmorning'
p413
aS'bored'
p414
aS'talk'
p415
aS'bomb head need gtgtgt'
p416
aS'goodnight'
p417
aS'stomach hurt irritated goodnight'
p418
aS'first love first kiss first sight first date want last'
p419
aS'relationship killers insecurity trust issues jealousy lack communication assumptions expectations broken promises'
p420
aS'arent perfect gonna fight sometimes never going stop loving matter much fight fight'
p421
aS'couldnt even explain good feels look across room standing'
p422
aS'means anyone else always thought ghetto word babe'
p423
aS'like boys taller smell good give great hugs'
p424
aS'want someone stay matter hard'
p425
aS'dont talk dont show dont promise prove'
p426
aS'retweet'
p427
aS'officially pissed'
p428
aS'honest find hard believe theres someone would able spend rest life'
p429
aS'really really really really really really really really really really really really really really need leave'
p430
aS'worst feelings cheated replaced overthinking lied appreciated cared left ignored worrying'
p431
aS'want sleep skinny look pretty wear yoga pants boyfriend'
p432
aS'guys \xef\xbf\xbdbros hoes\xef\xbf\xbd girls \xef\xbf\xbdchicks dicks\xef\xbf\xbd \xef\xbf\xbdwhoever back fake people'
p433
aS'last time loving everything'
p434
aS'love never love another'
p435
aS'regretting'
p436
aS'roses violets blue said love thing didnt'
p437
aS'mean shit'
p438
aS'relationships turn hate love half time'
p439
aS'shut'
p440
aS'still chilling'
p441
aS'high school shit real girls pregnant niggas locked didnt graduate couples broke bestfriends\xe2\x80\xa6'
p442
aS'regret everything said'
p443
aS'thats'
p444
aS'said'
p445
aS'life thats'
p446
aS'gone time'
p447
aS'stubborn girls ltltlt'
p448
ag3
aS'think bout'
p449
aS'really wanna lock bathroom'
p450
aS'like really'
p451
aS'love life'
p452
aS'feel alone life'
p453
aS'frustrated'
p454
aS'wanna'
p455
aS'bout'
p456
ag3
aS'much angry right'
p457
aS'feel like stabbing shit'
p458
aS'fuck fuck fuck fuck'
p459
aS'dont fucks nobody'
p460
aS'fool\xf0\x9f\x98\x9d gullible\xf0\x9f\x98\x85 sucka\xf0\x9f\x98\x98 naive\xf0\x9f\x98\x8a chump\xf0\x9f\x98\x90 stupid\xf0\x9f\x98\x8b through\xe2\x80\xa6'
p461
aS'nahh'
p462
aS'uhhh mama might pull'
p463
aS'want'
p464
aS'liessssssssstfu'
p465
aS'liessssssss'
p466
aS'checkers'
p467
aS'leslie made laugh tweet'
p468
aS'ctfu irri'
p469
aS'ctfu'
p470
aS'bipolar relationship ltlt love hate \xf0\x9f\x98\x8dlove youuu \xf0\x9f\x98\xa4hmmph \xf0\x9f\x98\x98what pack\xe2\x80\xa6'
p471
aS'staying tomorrow talking nobody'
p472
aS'wanna move always everything away'
p473
ag3
aS'left'
p474
aS'chillen'
p475
aS'damn aint talk'
p476
aS'miss'
p477
aS'wanna spend time tonight'
p478
aS'swear hate happened'
p479
ag3
aS'makes feel type'
p480
aS'sleep'
p481
aS'sleep'
p482
aS'cold'
p483
aS'well goin sleep goodnight'
p484
aS'shit aint dont think ever ltltlt'
p485
aS'miss night'
p486
aS'miss night'
p487
aS'sleepy'
p488
aS'feet cold'
p489
aS'sleepy'
p490
aS'wonder goin'
p491
aS'leave every night'
p492
aS'mama gone night'
p493
aS'phone irrirating'
p494
aS'need phone asap'
p495
aS'bored wanna'
p496
ag3
aS'playing roles'
p497
aS'boyfriend'
p498
aS'want somthing'
p499
ag3
aS'roses nuts round skirts panties belly belly skin skin stiff stick'
p500
aS'robmitch07nobody fucking liking'
p501
aS'ctfu'
p502
ag3
aS'need money homecoming lolcan like gold diggger'
p503
aS'school horny ltltlt helpyo freak'
p504
aS'goin home goin nowhere today'
p505
aS'stupid bastard'
p506
aS'nerves miss nomore'
p507
aS'said wassup'
p508
aS'shid lollol stfu'
p509
aS'lost battery'
p510
aS'anyways bout mess gabe tyrus'
p511
aS'well guess convo'
p512
aS'stop lien frim lien truth'
p513
aS'thoecause know shit stupid'
p514
aS'punch face'
p515
aS'nose nastymf nose liar'
p516
aS'yall baby assi'
p517
aS'tomorrow morning wayne started cryinglol bout miss'
p518
aS'goin\xe2\x80\x9dcoming pontiac thursday morning\xf0\x9f\x98\x8doh'
p519
aS'miss boyfriend'
p520
aS'almost time switch'
p521
aS'goin'
p522
aS'class bored'
p523
ag3
aS'blck'
p524
aS'rishonda'
p525
aS'good'
p526
aS'back'
p527
aS'fell asleep last night'
p528
aS'miss bored class messing'
p529
aS'wait time yall leaven'
p530
aS'ugly'
p531
aS'well shouldnt lost battery'
p532
aS'sister'
p533
aS'lost battery yesterday'
p534
aS'nigga talkin'
p535
aS'hungry'
p536
aS'bored'
p537
aS'shower gtgtgtgtgtgt'
p538
aS'great'
p539
aS'well kiking'
p540
aS'texting'
p541
aS'watchin'
p542
aS'mama killin part look like left'
p543
ag3
aS'tmobile fone'
p544
aS'irritated fone'
p545
aS'gone room'
p546
aS'ctfu feel like'
p547
aS'irritated easily'
p548
aS'seem'
p549
aS'thatd said'
p550
aS'irritated'
p551
aS'honestly dont wanna school'
p552
ag3
aS'tomuch twitter'
p553
aS'want'
p554
aS'1118'
p555
aS'cant'
p556
aS'ugly ugly look like'
p557
aS'tiredddddddddddd'
p558
aS'honest tweet'
p559
aS'thinking'
p560
aS'ctfu youngest ugliest'
p561
aS'yall subtweetin'
p562
aS'number'
p563
aS'nonigga middle child always ugliest ctfu'
p564
aS'nigga nigga'
p565
aS'well'
p566
aS'ctfu oldest look better'
p567
ag3
aS'oomf want care'
p568
aS'ctfu look better cause oldest'
p569
ag3
aS'wnna yall ugly asses'
p570
aS'thanks'
p571
aS'destinee cute'
p572
aS'charger stupid'
p573
aS'lets three'
p574
aS'pose'
p575
aS'atmy'
p576
ag3
aS'ctfu kedrien'
p577
aS'iwanna three'
p578
aS'ctfu yall asses'
p579
ag3
aS'hahahaha'
p580
aS'finallyseen thugg today'
p581
aS'tired'
p582
aS'lovemy twiin sister'
p583
aS'ctfu'
p584
aS'name'
p585
aS'kedrien'
p586
aS'walk yall toco bell'
p587
aS'love girl need stop damn sneakywho'
p588
ag3
aS'nigga'
p589
aS'youre ugly'
p590
aS'phone dryltltlt'
p591
aS'wanna talk person'
p592
aS'oomf calledme ididnt wanna talk'
p593
aS'thoe'
p594
aS'ctfu'
p595
ag3
aS'shii'
p596
aS'ctfu'
p597
aS'finna listen music'
p598
aS'living'
p599
aS'ctfu ahhh eating mcdonalds'
p600
aS'cant hold dont wanna held'
p601
aS'yall hungry'
p602
aS'call destinee feel lonly'
p603
aS'eating bored'
p604
aS'talking tonight'
p605
aS'irritated'
p606
aS'dont nobody'
p607
aS'tryna clear mind'
p608
aS'threw'
p609
aS'diamond freak lmaoo'
p610
aS'diamond freak'
p611
aS'2482123404'
p612
ag3
aS'circle small'
p613
aS'2482133404 right'
p614
aS'wanna talk'
p615
aS'feel unloved right'
p616
aS'like wanna talk'
p617
aS'guess wont talkin'
p618
asS'2013_40'
p619
(lp620
S'picture anyway'
p621
aS'btcs real funny'
p622
aS'lmao sound real angry bestfriend'
p623
ag3
aS'bitch irritated txtin bck\xe2\x80\x9dctfu stfu'
p624
aS'ctfu gitl'
p625
aS'irritated txtin'
p626
ag3
aS'ithink thats nice'
p627
aS'awww gavd money'
p628
aS'oomf woke somthing'
p629
aS'think might chill everything today'
p630
aS'hoes silliest shittt'
p631
aS'iwas twitter jail lastnight'
p632
aS'goodafternoon'
p633
aS'twin fell today ltltlt smfh'
p634
aS'problem'
p635
ag3
aS'smmfh ltltltlt'
p636
aS'want life'
p637
aS'bring fone tomorrow swear would best'
p638
aS'oomf happy relationship relationship good cause girl center'
p639
aS'message true'
p640
aS'listen bout'
p641
aS'type shit'
p642
aS'miss already'
p643
aS'thats true'
p644
aS'ctfu oomf said boys listen girlfriend world would happy place'
p645
aS'like really'
p646
aS'wats point someone fuckin listen thoe'
p647
aS'goin sleep'
p648
aS'never fails wasnt ment cool'
p649
aS'still'
p650
aS'lmao relationship never fuckin work'
p651
aS'lmao feeling type bout right'
p652
aS'sweet'
p653
aS'phone talking really'
p654
aS'smfh'
p655
aS'ctfu'
p656
aS'whaaaa'
p657
aS'dont stress next pretend never'
p658
ag3
aS'iwas best fuckkn mood tonight fuck'
p659
aS'happy wanted talk'
p660
aS'moods ihave'
p661
aS'cant deal'
p662
aS'done oomf hunnit lyingg'
p663
aS'goin sleep'
p664
aS'fuckin listen'
p665
aS'irritated'
p666
aS'going sleep'
p667
aS'good'
p668
aS'good girl'
p669
aS'idnt smoke'
p670
aS'come high'
p671
aS'well high'
p672
aS'dick hard'
p673
aS'hell nahlol'
p674
ag3
aS'bored thoughme sleep'
p675
aS'virgin pussy regular pussy oomf pussy'
p676
ag3
aS'soft atat home damn crybaby'
p677
aS'betdajon bestfriend'
p678
aS'ctfu'
p679
aS'telling thatim'
p680
aS'ctfu jealous'
p681
aS'dajon cause cousin bestfriend'
p682
aS'want toook fake'
p683
aS'stfu'
p684
aS'shit sadikn wanna bestfriend'
p685
aS'wanna'
p686
aS'shidd cant find onedang none yall shame'
p687
aS'maaaaaaaaaango find nigga'
p688
aS'ctfu stalker 2482123404'
p689
aS'wanna girlfriendso'
p690
aS'phone like nobody texting calling well'
p691
aS'comin right live emerson'
p692
aS'bored'
p693
aS'ctfu finnatie granny mean hell'
p694
aS'leona'
p695
ag3
aS'call gtlt'
p696
aS'thumper ctfu'
p697
aS'hung'
p698
aS'talkin bout talk tomorrow'
p699
aS'hung kidd ctfu'
p700
aS'nawl give cause friend help'
p701
aS'awww cheer'
p702
aS'dats wassupnd dajon sneak dissin right'
p703
aS'igot'
p704
aS'blue griffeysoh'
p705
aS'bought shoes today beddah like deese muthafuckaswat kind'
p706
aS'guess isdestinee'
p707
aS'ungrateful'
p708
aS'goodnight \xe2\x99\xa5goodnight friend'
p709
aS'ctfu thats thought liar cheater come crying somtimes'
p710
aS'goodnight'
p711
aS'going sleep'
p712
aS'bored'
p713
ag3
aS'bastard'
p714
aS'mannnnn'
p715
aS'booty bitch projects love shake profit'
p716
aS'lmao stay lurkin'
p717
aS'anit nobody lurkin'
p718
aS'1111 better days'
p719
aS'friend'
p720
aS'awww dumb talk sombody else thoe'
p721
aS'lmao oomf lurking hard'
p722
aS'ctfu yall mess thoe'
p723
aS'oomf relationship gtgtgtgtltltgtgt'
p724
aS'thanks'
p725
aS'ctfu slap'
p726
aS'1105 nauti'
p727
aS'1104 lana'
p728
aS'stuff'
p729
ag3
aS'itld knew talkin bout ummm idnt shit girl said like liar'
p730
aS'maybe wnna'
p731
aS'ctfu thoe'
p732
aS'wowww fucking'
p733
aS'str8 whoi called'
p734
aS'homecoming\xe2\x99\xa5\xe2\x99\xa5 cute'
p735
aS'nigga tryna smart'
p736
aS'nigga retweet'
p737
aS'seen first time'
p738
aS'rate'
p739
ag3
aS'sombody call makeme happy'
p740
aS'layin irritated'
p741
aS'irritated fast'
p742
aS'ayeee wanna cedar point'
p743
aS'ayeee wanna cedar point'
p744
aS'goodmorning bring food'
p745
aS'things'
p746
aS'uhhh alrr street name stupid'
p747
aS'1111 building something real'
p748
aS'1111 find special'
p749
aS'bring rellos tooim enough street'
p750
aS'goodmorning hope smoov today'
p751
aS'bout come yall food'
p752
aS'business business keep like'
p753
aS'east well shit house'
p754
aS'1104 righthand'
p755
aS'seen kashshay'
p756
aS'movie date need'
p757
aS'shania making breakfast \xee\x90\x82\xee\x90\x82\xee\x81\x96were yall'
p758
aS'goodmorning mentions side note'
p759
aS'alone'
p760
aS'goin sleep'
p761
aS'really miss'
p762
aS'realize deserve better letting best decision ever'
p763
aS'woke'
p764
aS'wanna talk nobody'
p765
aS'miss loml'
p766
aS'aaliyah miss'
p767
aS'pandora flow feelings'
p768
aS'mama still'
p769
aS'mikenever answer fonelike gtlt'
p770
aS'middle laughing bitches'
p771
aS'fuck'
p772
aS'fuckin irritated'
p773
aS'probably happen'
p774
aS'cool'
p775
aS'never deep'
p776
aS'chill'
p777
aS'pettiest shit'
p778
aS'switching stuff aint work'
p779
aS'thoe'
p780
aS'feeling type'
p781
aS'word thoe'
p782
aS'imean'
p783
aS'keep calling gabe'
p784
aS'ctfu asked dajon wanna friend bestfriend'
p785
aS'ctfu love'
p786
aS'1111 things better'
p787
aS'1111'
p788
aS'lana ctfu'
p789
aS'twitter'
p790
aS'destinee called cause bored'
p791
aS'guess talk night'
p792
aS'bouta fade seem wanna talk dajon'
p793
aS'goodnight thoo yall'
p794
aS'biogtgtgt'
p795
aS'nobody love right doawwww'
p796
aS'nobody love right'
p797
aS'feel alone world'
p798
aS'nobody love right'
p799
aS'bout haang'
p800
aS'oomf right'
p801
aS'1104'
p802
aS'bout stressing'
p803
ag3
aS'call'
p804
aS'andre righthand ltltltlt'
p805
aS'didnt goin sleep'
p806
aS'clearing head'
p807
aS'callingme right'
p808
aS'circle small talk'
p809
aS'home eating spicey buffalo wings cheese cake'
p810
aS'bored wish could went house'
p811
aS'ready eatmy wings'
p812
aS'need hurry home hungry'
p813
aS'treat good treat better'
p814
aS'bout'
p815
aS'omwhome'
p816
aS'home bored'
p817
aS'laying'
p818
aS'gettin somthing'
p819
aS'home'
p820
ag3
aS'tired'
p821
aS'ride'
p822
aS'aint keeping rolling afctfu'
p823
aS'always need something never fuckin fail'
p824
aS'irritating meso'
p825
aS'ride'
p826
aS'pose house'
p827
aS'mature people youre gonna tell everybody happened shouldnt'
p828
aS'done everybody everything'
p829
aS'spending night better text call fucking phone everything thats mean'
p830
aS'spending night'
p831
aS'relationship yall aint shit arguing'
p832
aS'company needed'
p833
aS'someeeoneee called baeeeee'
p834
aS'nomore'
p835
aS'erin fake'
p836
aS'frienda jusf'
p837
aS'frfr time thinking'
p838
aS'take somwhere tomorrow probably mall hunted house'
p839
aS'feel'
p840
aS'hell'
p841
aS'lmao mama friends real didnt invite game like'
p842
aS'starting think niggas'
p843
aS'calls'
p844
aS'bout'
p845
aS'bout delete numbers nobody noway'
p846
aS'need friends things'
p847
aS'stay house damn'
p848
aS'nobody invite nowere'
p849
aS'friends'
p850
aS'somebody'
p851
aS'ctfu bouta oomf'
p852
aS'lastnight gtgtgtgt'
p853
aS'well plan messed'
p854
ag3
aS'real cute'
p855
aS'activists leaning'
p856
aS'oomf header gtgtgtgt'
p857
aS'lmao'
p858
aS'gotta tell something'
p859
aS'yeah stupid'
p860
aS'stupid'
p861
aS'called conversation'
p862
ag3
aS'thought header'
p863
aS'caught left today'
p864
aS'miss dessipooh'
p865
aS'still'
p866
aS'lmao'
p867
aS'dont miss thoe'
p868
ag3
aS'hope come back'
p869
aS'aweeee hope'
p870
aS'gtgtgtgtgtgtlt'
p871
aS'going'
p872
aS'back room'
p873
aS'asked said ugghh face shitty'
p874
aS'mean'
p875
ag3
aS'sorry already left'
p876
aS'take back'
p877
ag3
ag3
aS'stupid'
p878
aS'stupidddd'
p879
aS'retweeted everything childish'
p880
aS'finna bump'
p881
aS'texted siss goodnight'
p882
aS'retweet shit thoe'
p883
aS'well'
p884
aS'really left'
p885
aS'work bout everything'
p886
aS'honest retweet'
p887
aS'awww message sweet oomf nomore'
p888
aS'sorry already left \xee\x80\x91nope'
p889
aS'tryna shit'
p890
aS'totf leave first'
p891
ag3
aS'leave come back whats going'
p892
aS'meanctfu'
p893
aS'omfg wanna stay'
p894
aS'back roomno'
p895
aS'gettin sleepy'
p896
aS'hell back'
p897
aS'goingto couch'
p898
aS'welp'
p899
aS'bored'
p900
aS'gotta bandz'
p901
ag3
aS'uhhh'
p902
aS'fuck'
p903
aS'omggg\xf0\x9f\x98\xb3'
p904
aS'omfg nobody wont give dollar smhbring money back nigga'
p905
aS'baby love love english class'
p906
aS'question always'
p907
aS'come back'
p908
aS'mike damn clueless'
p909
ag3
aS'playa playa'
p910
aS'another nigga mike right'
p911
aS'ctfu mama doin mike wrong'
p912
aS'made kinda'
p913
aS'ctfu awwww thats'
p914
aS'thats kept saying awww'
p915
aS'still stupid'
p916
aS'omfg nobody wont give dollar smhbring money back nigga lolnope'
p917
aS'caught left'
p918
aS'awwww seen hour'
p919
aS'keep callin stupid stupid side damn head'
p920
aS'stfu stupid fuck'
p921
aS'getting phone tomorrow'
p922
aS'ctfu thoughy mike'
p923
aS'omfg nobody wont give dollar'
p924
aS'goin work tonight'
p925
aS'realized name said deadbeat ctfu'
p926
ag3
ag3
aS'forever ever well always together'
p927
aS'getting phone soon'
p928
aS'talkin mother'
p929
aS'stop dang head'
p930
aS'dajon call hang thoe'
p931
aS'tweet'
p932
aS'bout work'
p933
aS'nothing shawtyk'
p934
aS'mama nasty punk'
p935
aS'oomf tryed keep outside'
p936
aS'silly mannhow'
p937
aS'ctfu gave stale face'
p938
aS'stop stealing shit'
p939
ag3
aS'nigga knees today thoe'
p940
aS'destinee rockera dead today dawg\xf0\x9f\x98\x82\xf0\x9f\x98\x82\xf0\x9f\x98\x82\xf0\x9f\x98\x82\xf0\x9f\x98\x82\xf0\x9f\x98\x82'
p941
aS'really like know sometimes mess things make seem like dont care trust youre'
p942
aS'somebody dont care dont deserve love'
p943
aS'actually work tomorrow'
p944
ag3
aS'shitted flew'
p945
aS'miss talking oomf chilling'
p946
aS'hmltxt'
p947
aS'ithink bout oomf beat'
p948
aS'feel like whoopin'
p949
aS'bout house'
p950
aS'ididnt mention ctfu'
p951
aS'mentions'
p952
aS'damn ctfu angry'
p953
aS'ctfu bout petty pick'
p954
aS'angry much'
p955
aS'lmao dajon hung ctfu'
p956
aS'mite cause want follower takeme'
p957
aS'hate hoes call baby love like bitch gtfo'
p958
aS'done fucking oomf hunnit'
p959
aS'oomf tryna take huntes house tonight'
p960
aS'made oomf knees apologize'
p961
aS'real everything'
p962
aS'buggs'
p963
aS'howyou'
p964
aS'sitting outside friend'
p965
aS'leslie ugly never answer phone'
p966
aS'home chillin'
p967
aS'dead tryed'
p968
aS'lmao oomf cant smoke shit ctfu'
p969
aS'left sombody house'
p970
aS'home'
p971
aS'thecrew real'
p972
aS'friend havent txted'
p973
aS'talkin situation'
p974
aS'somebody bless food'
p975
aS'twittwr shit'
p976
aS'gabe childish'
p977
aS'miss'
p978
ag3
ag3
aS'ightt'
p979
aS'cute ctfu'
p980
aS'oomf txtin jess jess'
p981
aS'cousin gotta wanna cedar point hollow weekend 26th'
p982
aS'gabe txted ltltlt'
p983
aS'oomf thoe'
p984
aS'lmao gabe said oomf killhis self dose cause treat'
p985
aS'fake everything'
p986
aS'stressed confused aint nothin'
p987
aS'somebody'
p988
aS'heard word slip'
p989
aS'hard walk away'
p990
aS'shit hard'
p991
aS'gotta happen'
p992
ag3
aS'goodnight'
p993
aS'home'
p994
aS'hospital'
p995
aS'dont need perfect relationship need someone wont give'
p996
aS'load'
p997
aS'single know exactly want'
p998
aS'fucking irritating never said done'
p999
aS'skool'
p1000
aS'arts technology'
p1001
aS'spelled destinee'
p1002
ag3
aS'tell'
p1003
aS'ways name'
p1004
ag3
aS'crying doesnt mean bruising everybodys losing okay okay'
p1005
aS'sometimes hard follow heart'
p1006
aS'love honey'
p1007
aS'gettin shit gone sport'
p1008
aS'never stuff\xf0\x9f\x98\xab\xf0\x9f\x98\x92'
p1009
aS'gotcha'
p1010
aS'dawg didnt even gone fight herdwag next time idnt fuckin like'
p1011
aS'shareffyou called'
p1012
aS'wassupwhich fauly'
p1013
aS'holding moving'
p1014
aS'damn fuckparis'
p1015
aS'business anything'
p1016
aS'imiss oomf frfr'
p1017
aS'fool shame fool twice shame kickin motherfuckin throat first time'
p1018
asS'2013_41'
p1019
(lp1020
S'fightin'
p1021
ag3
aS'party'
p1022
aS'cant sleep without'
p1023
aS'cant sleep without otp\xe2\x80\x9dawwww'
p1024
aS'stupid'
p1025
aS'bout movie'
p1026
aS'cause'
p1027
aS'love even stupid'
p1028
aS'awwwww subtweets'
p1029
aS'ctfu cousin stole word stupid callin everybody'
p1030
aS'wanna waiting'
p1031
aS'oooh need hurry home'
p1032
aS'ctfu cousin fuck'
p1033
aS'thought cute'
p1034
aS'felt like princess today'
p1035
aS'well since gettin'
p1036
aS'wish'
p1037
aS'wish'
p1038
aS'nachos mampms ivey'
p1039
aS'wish'
p1040
aS'missing'
p1041
aS'missing'
p1042
ag3
aS'better back'
p1043
aS'fucked'
p1044
aS'scard movie'
p1045
ag3
ag3
aS'havin'
p1046
aS'talk damn funny'
p1047
aS'louisiana funny hell movies'
p1048
aS'movies cousin friends'
p1049
aS'said sent'
p1050
aS'goin homecoming cousin'
p1051
ag3
aS'irri'
p1052
aS'punk'
p1053
aS'best boyfriend ever'
p1054
aS'punk answering'
p1055
aS'punch'
p1056
aS'ctfu cousin funny'
p1057
ag3
aS'talked today'
p1058
aS'cousin ruston'
p1059
ag3
aS'fone workin'
p1060
aS'lousiana'
p1061
aS'goodmorning'
p1062
aS'love'
p1063
aS'louisana'
p1064
aS'daddy finally'
p1065
ag3
aS'work'
p1066
aS'sleep'
p1067
aS'hell'
p1068
aS'mook look like'
p1069
aS'daddy'
p1070
aS'seen'
p1071
aS'daddy'
p1072
ag3
aS'woke'
p1073
ag3
aS'iswear irritating'
p1074
aS'irritating'
p1075
aS'gotta book think'
p1076
aS'bout make callss'
p1077
aS'short coming nahh'
p1078
aS'ctfu life short'
p1079
aS'ctfu leslie love goob'
p1080
aS'went louisiana fight gooob'
p1081
ag3
ag3
aS'ctfu waiting daddy'
p1082
aS'ctfu qunnicy keywan irri'
p1083
aS'qunnicy funny'
p1084
aS'ctfu said miss short self qunnicy said ugly'
p1085
aS'lmao still memphis cribbs'
p1086
aS'guess'
p1087
aS'lmao play'
p1088
aS'lmao play'
p1089
aS'touching shit'
p1090
aS'ready'
p1091
aS'damn country'
p1092
aS'ctfu cousins funny'
p1093
ag3
aS'ctfu family house'
p1094
aS'bout'
p1095
aS'strip club called pony'
p1096
aS'cheap'
p1097
aS'mall'
p1098
aS'talked'
p1099
aS'hope move'
p1100
aS'cant stay nomore'
p1101
aS'daddy need hurry come'
p1102
aS'thats damn headphones'
p1103
aS'swear fuckin irritating'
p1104
aS'answering'
p1105
aS'woke'
p1106
aS'idnt feel good'
p1107
aS'oomf txted blue saying miss'
p1108
aS'wish home party'
p1109
aS'sombody call bored'
p1110
aS'wanna speaker meeting'
p1111
aS'home call me\xe2\x80\x9doh like dont thatlol call meeting'
p1112
aS'iknew time jumped 1005'
p1113
aS'1104'
p1114
aS'home call'
p1115
aS'boys dance oweeeeeeeeeeeeee yasssss'
p1116
aS'time pontiac'
p1117
aS'oomf dajon like'
p1118
ag3
ag3
aS'sleep'
p1119
aS'listen music'
p1120
aS'ctfu playing roles'
p1121
aS'driving highway scard'
p1122
aS'ctfu fucked'
p1123
aS'ctfu mama tryna make drive'
p1124
aS'called bipolar'
p1125
aS'goodmorning twitter'
p1126
ag3
aS'wish never born sthpid family'
p1127
aS'fuckin family'
p1128
aS'fuckin irritated'
p1129
aS'twitter'
p1130
aS'lowkey wanna date homecoming'
p1131
aS'destinee deniise'
p1132
aS'ctfu jordain funny miss'
p1133
aS'thought staying goodimight mama'
p1134
aS'confused'
p1135
aS'serious'
p1136
aS'goin week something'
p1137
aS'anybody still'
p1138
aS'must really tired snoring'
p1139
aS'jordain childish'
p1140
aS'ranned skunckit stank'
p1141
aS'ctfu mams like yall fart'
p1142
aS'sleep'
p1143
aS'everybody care leave'
p1144
aS'haveent even left north ctfu'
p1145
aS'laying seat'
p1146
aS'didnt even left sisima come'
p1147
aS'destineee'
p1148
aS'aint even come left lasr mite come back'
p1149
aS'going cause last'
p1150
aS'long'
p1151
aS'long'
p1152
aS'going louisiana'
p1153
aS'pontiac\xe2\x80\x9d going lousiana'
p1154
aS'pontiacwere going lousiana'
p1155
aS'pontiac'
p1156
aS'well bout finally leave'
p1157
aS'bout sleep'
p1158
aS'well'
p1159
aS'irritated'
p1160
aS'shit'
p1161
ag3
aS'cause didnt wanna nomore'
p1162
aS'leslie house'
p1163
aS'thoe'
p1164
aS'rude'
p1165
aS'even wanna nomore'
p1166
aS'bout fuck sleep'
p1167
aS'nothad pack pose earlier jerry still fuckin ready'
p1168
aS'camei couldnt'
p1169
aS'nolol'
p1170
aS'convo'
p1171
aS'leslie save wings nigga'
p1172
aS'mama thinking bout changing mind'
p1173
aS'need hurry'
p1174
aS'jerry fucking irri'
p1175
aS'miss'
p1176
aS'think wannaleave anymore'
p1177
aS'damn borec'
p1178
aS'leslie save chicken'
p1179
aS'irri'
p1180
aS'came fromfin house'
p1181
aS'guess mins'
p1182
aS'walk away damn'
p1183
aS'lazy'
p1184
aS'come'
p1185
aS'leave'
p1186
aS'bout mama'
p1187
aS'think bout leave talkin'
p1188
aS'coolin'
p1189
aS'sitting'
p1190
aS'mistake everyone judges'
p1191
aS'ugly blck'
p1192
aS'thats want'
p1193
aS'hope damn daddy'
p1194
aS'leave gtgtgt'
p1195
aS'gets irritating'
p1196
aS'love like never'
p1197
aS'love'
p1198
aS'every single part love constanly'
p1199
aS'wont stop oonh'
p1200
aS'boss'
p1201
aS'need stop eating'
p1202
aS'stomach hurt'
p1203
aS'need somthing tonight'
p1204
aS'bored'
p1205
aS'continue'
p1206
aS'good'
p1207
aS'well need make today'
p1208
aS'need head'
p1209
aS'pick want'
p1210
aS'idnt time'
p1211
aS'seen fone hurted feelings'
p1212
aS'fuckin irritating'
p1213
aS'irritated'
p1214
aS'granny hands feet'
p1215
aS'ctfi really didnt want tryna didnt want'
p1216
aS'friends blood brothers'
p1217
aS'love infinty'
p1218
aS'wont'
p1219
aS'everyrging feeling type'
p1220
aS'need bitch'
p1221
aS'hell nawl would thought nightmare ctfu'
p1222
aS'hooked loveing twisted cuddling'
p1223
aS'like friend nomore'
p1224
aS'1111 mines\xf0\x9f\x91\xab'
p1225
aS'1111'
p1226
aS'would woke would went fuckin crazy'
p1227
aS'sleep'
p1228
aS'1111 love'
p1229
aS'shit shit mama shit'
p1230
aS'went skool'
p1231
ag3
aS'went destinee house yesterday'
p1232
aS'tired'
p1233
aS'tires pontiac'
p1234
aS'leave later tonight happy'
p1235
aS'gotta granny damn'
p1236
aS'isweae dawg'
p1237
aS'fuckin like lady'
p1238
aS'ctfu granny headphones ignored'
p1239
aS'destinee retweeted earlier'
p1240
aS'sittin'
p1241
aS'like mean shit'
p1242
aS'iswear hate tell thing another'
p1243
aS'lady irri'
p1244
aS'irritated'
p1245
aS'leave follow mention follow'
p1246
aS'wanna thats gone take keep whatever takes forever swear'
p1247
aS'cant wait phone'
p1248
aS'laying eating'
p1249
aS'txtin mama'
p1250
aS'dont worry itctfu mentions'
p1251
aS'yall'
p1252
aS'goin skool'
p1253
aS'make'
p1254
aS'yall worrying people'
p1255
aS'goodnight'
p1256
aS'1105'
p1257
aS'1104'
p1258
aS'ctfu'
p1259
aS'sleep'
p1260
aS'called like'
p1261
aS'sister funny'
p1262
aS'dimples sexy'
p1263
aS'goodnight'
p1264
aS'laying bored lonelyyyy'
p1265
aS'bout sleep'
p1266
aS'uhhh damn'
p1267
aS'stomach hurt'
p1268
aS'saying nobody'
p1269
aS'thishard'
p1270
aS'tall girls cutest'
p1271
ag3
aS'tweet'
p1272
aS'goin sleep'
p1273
ag3
aS'leave tomorrow wanna leave'
p1274
aS'think bout home'
p1275
aS'feel good txting back'
p1276
aS'talking bffl'
p1277
aS'computer'
p1278
aS'today gone'
p1279
aS'feel alone right'
p1280
aS'cause feeling good'
p1281
aS'today staying wanna make nobody'
p1282
aS'much pain right'
p1283
aS'fuck wast'
p1284
aS'thinking'
p1285
aS'still layin'
p1286
aS'even care nomore might skool'
p1287
aS'irritated already'
p1288
aS'goin sleep'
p1289
aS'miss'
p1290
aS'dajon subtweeting'
p1291
aS'feel like crying'
p1292
aS'ever since oomf forgot'
p1293
aS'free childs father love lipsmy child'
p1294
aS'bout call'
p1295
aS'goin sleep mind'
p1296
aS'night went gtgtgtltlt'
p1297
aS'call 3136753822ok'
p1298
aS'come meok'
p1299
aS'still going'
p1300
aS'ayywassup'
p1301
aS'think oomf much'
p1302
aS'beautiful girlfriend reverse'
p1303
ag3
aS'well cant stuff nomore'
p1304
aS'destinee eating chicken'
p1305
aS'cause slumpediwasnot'
p1306
aS'missing lastnight'
p1307
aS'knocked lastnightidnt remeber'
p1308
aS'goodmorming'
p1309
aS'wont take answer'
p1310
aS'cant hangfuck'
p1311
aS'cant hang'
p1312
aS'sleep awee'
p1313
aS'want damn much'
p1314
aS'poor baby'
p1315
aS'shes angry'
p1316
aS'chillen'
p1317
aS'phone dead boyfriendtweet'
p1318
aS'getting nails done boyfriend tweet'
p1319
aS'need fuckin fone'
p1320
aS'twiin real'
p1321
aS'mobile iphone'
p1322
aS'miss'
p1323
aS'wanna open'
p1324
aS'jealousy problem'
p1325
aS'goin sleep'
p1326
aS'need wake irritated'
p1327
aS'omfg wont'
p1328
aS'texted backiphonne messages wont come fone broke iphone'
p1329
aS'texted meyea'
p1330
aS'happy school dont start till change'
p1331
aS'goodmorning'
p1332
aS'bout dress'
p1333
aS'snoring'
p1334
aS'awww baesleep'
p1335
aS'goodnight'
p1336
aS'gtgtgtgtgtgtgtgtgtgt'
p1337
aS'destinee lowkey leslieetweet'
p1338
aS'ctfu'
p1339
aS'food'
p1340
aS'leslie damn make sincd'
p1341
aS'guess fuck'
p1342
aS'tell sombody beat'
p1343
aS'gtfo'
p1344
aS'never told'
p1345
aS'seems real fuckin'
p1346
aS'head would perfect right gtgtgtgtgtgt'
p1347
aS'stop fuckin shit fuckin playin witu'
p1348
aS'irritated'
p1349
aS'skin'
p1350
aS'love skim'
p1351
aS'lmao throwbackgoodbye'
p1352
aS'like'
p1353
aS'omfg'
p1354
aS'life short'
p1355
aS'need fuckin life'
p1356
aS'nose somewhere else pleaseronell jerk somewhere'
p1357
aS'really boyfriend'
p1358
aS'mine first'
p1359
aS'childish floor theres'
p1360
aS'wanna childish everything floor'
p1361
aS'destinee purped'
p1362
aS'ctfu purped'
p1363
aS'damn really since ctfu pickin thoe'
p1364
aS'didnt want going'
p1365
aS'stop stuff\xe2\x80\x9d nameidgaf bout name'
p1366
aS'ctfu petty much'
p1367
aS'stop stuff'
p1368
aS'leslie like tell nomore'
p1369
aS'lmao shit'
p1370
aS'irritated everybody soul'
p1371
aS'ctfu'
p1372
aS'destinee irritates soul'
p1373
aS'anit stressing like thoehe anit nobody'
p1374
aS'nigga like'
p1375
aS'shouldnt never'
p1376
aS'ctfu oomf'
p1377
aS'ctfu'
p1378
aS'gettin sleepy'
p1379
aS'want high school relationship ends marriage'
p1380
aS'much going'
p1381
aS'boyfriends still hold bags open doors tell girlfriends theyre beautiful show respect real'
p1382
aS'miss'
p1383
aS'sweet fuck fucking adolf hitler wanted depends person show'
p1384
aS'would great right'
p1385
aS'want theplug witmy niqua cute'
p1386
aS'stupid seen mentiom'
p1387
aS'broke couple years agodang'
p1388
aS'miss sister'
p1389
aS'every girl goes back heartbreak heartbreak\xe2\x80\x9d'
p1390
aS'slipped place back'
p1391
aS'love honeygtgt'
p1392
aS'drop tears somebody really care'
p1393
aS'mite tothehospital'
p1394
aS'goodbye twiterr'
p1395
aS'headace throwin'
p1396
aS'crying'
p1397
aS'omfg tryna figure talkin bout responding'
p1398
ag3
aS'feel like gotta throw'
p1399
aS'idnt feel good'
p1400
aS'want babyyyyyyyy'
p1401
aS'think could understand feels love girl swear better'
p1402
aS'wonder hard'
p1403
aS'fuckin roll fuckin slowly'
p1404
aS'idgaf swear hate regret every fucking thing'
p1405
aS'want text'
p1406
aS'want flaws mistakes imperfections want'
p1407
aS'dont fuck someone probably till dont'
p1408
aS'hope real happy together'
p1409
aS'time leave real fuckin talk'
p1410
aS'irritated'
p1411
aS'gtfo'
p1412
aS'funny somthing problem bffl anit shit'
p1413
aS'good mood dgaf mood'
p1414
aS'retweet want ightt'
p1415
aS'need friends'
p1416
aS'weekend straight guess'
p1417
aS'talkin'
p1418
aS'mama really nerves dawg'
p1419
aS'cause dont need nobody'
p1420
aS'goodlol'
p1421
aS'fine either'
p1422
aS'twitter talkin bout idnt need nobody'
p1423
aS'hdms retweet'
p1424
aS'niggas stupid'
p1425
aS'bout fone call night\xe2\x80\x9dsolol stfu'
p1426
aS'bout fone call night'
p1427
aS'twitter trouble'
p1428
aS'fuxk feelings feeling'
p1429
aS'ctfu niggas like'
p1430
aS'oomf pose callin'
p1431
aS'getting tired people quick'
p1432
aS'guess fade away'
p1433
ag3
aS'ctfu'
p1434
aS'niggas wanna talk bunch girls talk niggasyou cant'
p1435
aS'thats real'
p1436
aS'chillin thoe'
p1437
aS'life short'
p1438
aS'shruggs well'
p1439
aS'goin another night talkin'
p1440
ag3
aS'gotta wash clothes thoe'
p1441
aS'packin shit early'
p1442
aS'sweetest damn'
p1443
aS'mean everybody'
p1444
aS'everythinh'
p1445
aS'cant wait till thursday'
p1446
aS'ctfu dajon bought somthing'
p1447
aS'everybody fuckin irri even boyfriend'
p1448
asS'2013_46'
p1449
(lp1450
S'cause cheater'
p1451
aS'beat basketball yesterday even cheated'
p1452
aS'wanna home'
p1453
aS'text back texted daddy\xe2\x80\x9d\xe2\x80\x9dstfu'
p1454
aS'texted daddy'
p1455
aS'ricky ass\xe2\x80\x9dlmao damn'
p1456
aS'ready home'
p1457
aS'dumped ctfu\xe2\x80\x9dby'
p1458
aS'wish never stayed'
p1459
ag3
aS'fuck life fuck everything'
p1460
aS'tired everything'
p1461
aS'crying'
p1462
aS'irritated'
p1463
aS'person aint giving matter'
p1464
ag3
aS'chill cousin cousin'
p1465
aS'idgaf want'
p1466
aS'chill cousin mama fucking irri af\xe2\x80\x9d\xe2\x80\x9dman fuck'
p1467
aS'irritated ready move'
p1468
aS'mama fucking irri'
p1469
aS'polar girls always something'
p1470
aS'ready thanksgiving christmas'
p1471
aS'waiting'
p1472
aS'dont\xf0\x9f\x98\xa1\xf0\x9f\x98\xa4\xf0\x9f\x94\xab\xf0\x9f\x94\xaa play comes family\xf0\x9f\x91\xaa best friends\xf0\x9f\x99\x8b money\xf0\x9f\x92\xb5 crush\xf0\x9f\x98\x8d feelings\xe2\x9d\xa4'
p1473
aS'damn shit really'
p1474
ag3
aS'somebody call 2489177985'
p1475
aS'shit never happens'
p1476
aS'nerves'
p1477
aS'talk tonight'
p1478
ag3
aS'goodnight robert'
p1479
aS'leslie plans crushed'
p1480
aS'tell call me\xe2\x80\x9ddid call'
p1481
aS'call me\xe2\x80\x9dim'
p1482
aS'skeemmm\xe2\x80\x9dhow'
p1483
aS'lmfaoooooooo telling parents \xf0\x9f\x98\x96\xf0\x9f\x98\x85\xf0\x9f\x98\x85\xf0\x9f\x98\x85funny niggasbelike momma'
p1484
aS'destinee reading book'
p1485
aS'bout blow pack'
p1486
aS'facetime'
p1487
aS'tell sister destinee home sleep'
p1488
aS'lmao dead'
p1489
aS'wont'
p1490
aS'mean'
p1491
aS'childish'
p1492
aS'want head'
p1493
aS'texting friend'
p1494
aS'sleepy'
p1495
aS'forreal'
p1496
aS'might tell'
p1497
aS'riding'
p1498
ag3
ag3
aS'gotta pick bestfriend'
p1499
aS'wyd\xe2\x80\x9dchill bored'
p1500
aS'inlove\xf0\x9f\x98\x8d lmfao'
p1501
aS'wanna ride novi'
p1502
aS'\xe2\x80\x9dwassup'
p1503
aS'1111 less stress'
p1504
aS'1111me baby'
p1505
aS'1111 move'
p1506
aS'1111 damn love'
p1507
ag3
aS'thought wasnt talkin'
p1508
aS'anybody wanna damn'
p1509
aS'tired'
p1510
aS'need home'
p1511
aS'chillin right'
p1512
ag3
aS'nigga'
p1513
aS'cannot complain cannot'
p1514
ag3
aS'something'
p1515
aS'ctfu really jealous goin places relationship'
p1516
aS'think'
p1517
aS'irritated tonight'
p1518
aS'irritated amphungry'
p1519
aS'gawd damn'
p1520
aS'cant wait leave'
p1521
aS'wanna snap somebody'
p1522
aS'always fucking attitude'
p1523
aS'fuck everything'
p1524
aS'gone aint said wanna'
p1525
aS'cause idgaf dont give might well fuck huh\xe2\x80\x9dif want'
p1526
ag3
aS'everything started cool'
p1527
aS'ctfu oomf said never relationship like'
p1528
ag3
aS'night couldnt better'
p1529
aS'cause idgaf'
p1530
aS'anit shit'
p1531
aS'stuck train'
p1532
aS'bout fight mcdonalds'
p1533
aS'well'
p1534
aS'mcdonalds'
p1535
aS'want chill since boyfriend'
p1536
aS'bouta chill sombody'
p1537
aS'fuckin irritated'
p1538
aS'yess trying leave\xe2\x80\x9dlol house right'
p1539
aS'left zone'
p1540
aS'posted photo'
p1541
aS'zone'
p1542
aS'leslie need need'
p1543
aS'house come'
p1544
aS'irritated'
p1545
aS'theres nothing'
p1546
aS'work bored hell'
p1547
aS'woke'
p1548
ag3
aS'kikin destineedeniise'
p1549
aS'listen music chillin everything till somebody call'
p1550
aS'fall asleep'
p1551
aS'call'
p1552
aS'guess boyfriend wanna talk tonight'
p1553
aS'facetime keep callin'
p1554
aS'bored facetime likeforlike bored 2489177985'
p1555
aS'mugg'
p1556
aS'deuces'
p1557
aS'lets play hide seek'
p1558
aS'posted photo'
p1559
ag3
aS'kisses'
p1560
ag3
aS'bored'
p1561
aS'posted photo'
p1562
aS'deon knocked'
p1563
aS'need something'
p1564
aS'bored'
p1565
aS'wanna move damn tralor'
p1566
aS'ctfu mama tryna live trailor'
p1567
aS'call'
p1568
aS'wanna'
p1569
aS'left bout'
p1570
aS'deon irri'
p1571
aS'bored ready'
p1572
aS'posted photo'
p1573
aS'work eating candy bored'
p1574
ag3
ag3
aS'conceited filter'
p1575
aS'muawwhhhh'
p1576
ag3
aS'cute'
p1577
aS'meeeeeee'
p1578
ag3
aS'niggas'
p1579
aS'class'
p1580
aS'sleeping'
p1581
aS'behind girls love'
p1582
aS'walmart'
p1583
aS'never comin back'
p1584
aS'something really snapped head'
p1585
aS'shit irritated'
p1586
aS'irritated'
p1587
aS'damn hate sober chilling'
p1588
ag3
aS'blame continuously giving chances chances good'
p1589
aS'4everwhitney facetime dentist'
p1590
aS'dentist bored'
p1591
aS'finally back'
p1592
aS'place full since dead still havent called name stupid'
p1593
ag3
aS'sooo irritated cramping ready'
p1594
aS'gotta day\xe2\x80\x9dwow dominique'
p1595
aS'ughh going nowhere weekend'
p1596
aS'gotta square crib waiting\xe2\x80\x9dbad'
p1597
aS'gone look negative'
p1598
ag3
aS'girl gonna tell whole wide world gonna love best'
p1599
aS'fight'
p1600
aS'nobody wants alone touched word song'
p1601
aS'depressed'
p1602
aS'room'
p1603
aS'need horse saddle give dick ride'
p1604
aS'nigga'
p1605
aS'welcome room'
p1606
aS'1202'
p1607
aS'need sign anger management'
p1608
aS'lose carmex find lostltltltltltltltlt'
p1609
aS'booty hurt'
p1610
ag3
aS'like'
p1611
aS'fuck 1111 wishes never come true'
p1612
aS'much crazy shit start goin threw head'
p1613
aS'really need consoling'
p1614
aS'frfr'
p1615
aS'need help deft'
p1616
aS'wassup'
p1617
aS'twitter bullshit'
p1618
aS'mood place'
p1619
aS'lmao wowwwwwwwwwwwwwwwwwwwwwwwwwwwwwwwwwwwwwwwwwwwwwwwwwwwwwwwwwwwwwwwwwwwwwwwwwwwwwwwwwwwwwwwwwwwwwwwwwwwwwwwwwwwww\xe2\x80\xa6'
p1620
aS'fuckin care shit'
p1621
ag3
aS'whatever happens happens'
p1622
aS'love anyone else love'
p1623
aS'need stop mind stuff focus towards school'
p1624
aS'life take sudden turn'
p1625
aS'irritated'
p1626
aS'kinda irritated'
p1627
aS'texting irritating'
p1628
aS'told'
p1629
aS'lady dentist'
p1630
aS'mann chilling'
p1631
aS'retweet basketball football volleyball baseball hockey soccer tennis golf cheer track dance'
p1632
aS'dentist packed'
p1633
aS'today'
p1634
aS'punch throat'
p1635
aS'irri'
p1636
aS'never irritated\xe2\x80\x9d'
p1637
aS'wanna held right'
p1638
aS'irri'
p1639
aS'ooomf gtgtgtgt'
p1640
aS'feel like getting going dentist'
p1641
aS'spend thanksgiving sighs'
p1642
aS'never irritated'
p1643
aS'fuckin questions'
p1644
aS'fuck friends aint good'
p1645
aS'bout ready dentist'
p1646
aS'swear dawg damn'
p1647
aS'yall keep name yall mouth'
p1648
aS'waking bullshit'
p1649
aS'fucking irritated'
p1650
aS'pontiac high messy'
p1651
aS'never picture day\xe2\x80\x9dlol important'
p1652
aS'never picture day\xe2\x80\x9dfr'
p1653
aS'home'
p1654
ag3
aS'nigga'
p1655
aS'comin money'
p1656
aS'nahh even'
p1657
aS'needa grab shoes'
p1658
ag3
aS'cause made come west money'
p1659
aS'irritated'
p1660
aS'4everwhitney fighting'
p1661
aS'deon'
p1662
aS'chillin deon today'
p1663
aS'lmfao little girl said lmfaoo'
p1664
aS'miss'
p1665
aS'love lady heart might dwns love'
p1666
aS'beautiful mother love'
p1667
aS'look raina'
p1668
aS'officially irritated today'
p1669
aS'irritating always tryna funny play'
p1670
aS'hung dajon'
p1671
ag3
aS'bout head phones give care bout world'
p1672
aS'idea callin'
p1673
aS'tyrus irri'
p1674
ag3
aS'goodmorning'
p1675
aS'already late dont give'
p1676
aS'crispy lmao'
p1677
aS'leslie made like princess'
p1678
aS'love'
p1679
aS'dont like yall'
p1680
aS'told biggest ever'
p1681
aS'destinee need shut up\xe2\x80\x9dctfu girl hell drive'
p1682
aS'ctfu dead lies'
p1683
aS'lmaooo drive girl\xe2\x80\x9dctfu lies twitter tell'
p1684
aS'lmaooooo thats real life\xe2\x80\x9dikn funny'
p1685
aS'later listen music'
p1686
aS'didnt work today'
p1687
aS'twitter gonna solve relationship problems'
p1688
aS'ctfu leslie sent'
p1689
ag3
aS'close eyes fantasize grab hold'
p1690
aS'anit nobody cant nobody body like wanna'
p1691
aS'much'
p1692
ag3
aS'body body'
p1693
aS'1202 love love'
p1694
ag3
ag3
aS'nahh onelmmfao'
p1695
aS'nahh'
p1696
aS'petty ugly says petty pretty'
p1697
aS'purped'
p1698
aS'petty'
p1699
ag3
aS'hope tweets'
p1700
aS'didnt wanna talk lied'
p1701
aS'ctfu oomf called'
p1702
aS'need somebody talk'
p1703
aS'1202 best lifewhere meet loml hope spend every second love'
p1704
aS'still dreams still still love deeply think sing'
p1705
aS'lover babys farther lifetime partner friend'
p1706
aS'threw problems like everybody else really mind cause makes keep fresh'
p1707
aS'love never gonna fire'
p1708
aS'never gonna break well always make long stick together well climb higher ride'
p1709
aS'every thing still keep holdin'
p1710
aS'worth waiting'
p1711
aS'question everybody make last tell still still still'
p1712
aS'still writes letters send flower every'
p1713
aS'still talk phone house away'
p1714
aS'marry kids'
p1715
aS'still feels like first time wemet kissed told love still around like teenager even though grown'
p1716
aS'still love eyes still love soul'
p1717
aS'love gets better everyday excited inside every time alone'
p1718
aS'usually love together long time things seem change'
p1719
aS'think doin'
p1720
aS'shot'
p1721
aS'jealous cause girl look like niggas rich like'
p1722
aS'take take nice slow'
p1723
aS'back back'
p1724
ag3
aS'shawty'
p1725
aS'holding hope always baby must admit doin goin insane popin drop'
p1726
aS'theres much wanna tryna keep composure'
p1727
aS'body'
p1728
aS'making love feel like world'
p1729
aS'shawty make body left right side side behind make thing ride'
p1730
aS'mhmmm good lovin'
p1731
aS'lips lips take rocket ship'
p1732
aS'rats thouge'
p1733
aS'girl cant cant deni girl cant'
p1734
aS'wanna body body body'
p1735
aS'sitting thinking times share'
p1736
aS'long lost'
p1737
aS'come back feel hear callin'
p1738
aS'maaaan shit crazy'
p1739
aS'somebody text call'
p1740
aS'anit better love'
p1741
aS'feel feel good'
p1742
aS'love'
p1743
aS'btcs come dozen none compare'
p1744
aS'anit better love'
p1745
aS'love'
p1746
aS'heres heart'
p1747
aS'love constantly'
p1748
aS'every thing feeling type'
p1749
aS'always makes back'
p1750
aS'wont stop'
p1751
aS'love'
p1752
aS'like ayyyye looking spaaaace baaaee feel amazzingg ooooooh'
p1753
aS'streets'
p1754
aS'pulled jeep bumping beats shades bring something'
p1755
aS'ctfu'
p1756
aS'take time'
p1757
aS'tellin nigga deeper deeper tellin nigga harder harder'
p1758
aS'somebody'
p1759
aS'like bout world'
p1760
aS'always father mother'
p1761
aS'think dream always'
p1762
aS'1111'
p1763
aS'1111 happy birthda curt'
p1764
aS'1111 love'
p1765
aS'1111'
p1766
aS'gonna worth time'
p1767
aS'want something loyal real unbreakable bond'
p1768
aS'oomf havent today'
p1769
aS'cover'
p1770
aS'pandora flow kikin txtin'
p1771
aS'left thousand times'
p1772
aS'shed tears cause worth tears'
p1773
aS'oomf texted blue saying comin home'
p1774
aS'sleepy'
p1775
aS'havent talked person'
p1776
aS'kikin oomf'
p1777
aS'line free'
p1778
aS'dumb bitch\xf0\x9f\x98\x92'
p1779
aS'ctfuuu'
p1780
ag3
aS'rude'
p1781
aS'ctfu hung'
p1782
aS'real boyfriend knows girl like back hand knows shes aggravated happy hurt beca\xe2\x80\xa6'
p1783
aS'sleepy'
p1784
aS'sleepy'
p1785
ag3
aS'jealous worried curious thats love much dont wanna'
p1786
aS'idek mane'
p1787
aS'real shit'
p1788
aS'come day\xe2\x80\x9dalr bullet irri'
p1789
aS'af\xe2\x80\x9dill trade'
p1790
aS'bullet fucking irri'
p1791
aS'important'
p1792
aS'busy finna read book fade\xe2\x80\x9dyea nomore'
p1793
aS'maybe busy'
p1794
aS'yeah texting back think'
p1795
aS'call till fade'
p1796
aS'thats message'
p1797
ag3
aS'least help'
p1798
aS'bout help homework'
p1799
aS'erin help test love'
p1800
aS'going sleep irritated'
p1801
aS'sexy love'
p1802
aS'almost pontiac bout swing house'
p1803
ag3
aS'snowing'
p1804
aS'eatin taco bout common'
p1805
aS'wonder irritating'
p1806
aS'literally watching vine minutes'
p1807
aS'grown face'
p1808
aS'toco bell'
p1809
aS'filling apps'
p1810
aS'frozen yogurt'
p1811
aS'gotta drop homework leave mall'
p1812
aS'ctfu finally'
p1813
aS'told'
p1814
aS'ctfu boys mall want'
p1815
aS'love'
p1816
aS'love hope feel better'
p1817
aS'okay'
p1818
aS'cause home work'
p1819
aS'hope think'
p1820
aS'hospital dont want leave\xe2\x80\x9doh ever come'
p1821
aS'want one\xe2\x80\x9dwhen come home'
p1822
aS'common place'
p1823
ag3
ag3
aS'birthdays coming'
p1824
aS'thought said no\xe2\x80\x9dyou runnin mouth much'
p1825
aS'stfu sleep'
p1826
aS'said'
p1827
aS'happy birthday'
p1828
aS'finna take nap\xe2\x80\x9dno'
p1829
aS'makeup gtgtgtgt'
p1830
aS'help you\xe2\x80\x9dok'
p1831
aS'ctfu stupid struggle math'
p1832
aS'correcting test'
p1833
aS'dirty'
p1834
aS'better suck dick'
p1835
aS'gone fucked'
p1836
aS'cant stand'
p1837
aS'shut'
p1838
aS'idol'
p1839
aS'love'
p1840
ag3
ag3
aS'pinch throatfor what\xe2\x80\x9dyou txtin'
p1841
aS'vine'
p1842
aS'pinch throat'
p1843
aS'happy birthday curt'
p1844
aS'love'
p1845
aS'poem'
p1846
aS'cant handle worst sure hell dont deserve best'
p1847
aS'selfish impatient little insecure make mistakes control times hard handle cant handle'
p1848
asS'2013_47'
p1849
(lp1850
S'cant sleep'
p1851
aS'gone'
p1852
aS'texting oomf'
p1853
aS'lies'
p1854
aS'fake'
p1855
aS'life complicated'
p1856
aS'oomfs asked last time cried seem like cold hearted dgaf nothing\xe2\x80\x9dfakeeeeeeeeeeeeeeeeeeeee'
p1857
aS'lmao'
p1858
aS'lightskin girls sooo fucking sexy swear'
p1859
aS'cant regret someone deeply love'
p1860
aS'punk'
p1861
aS'lmao'
p1862
aS'dont time eveverything time'
p1863
aS'wonder whats going'
p1864
aS'dont qanna bothered gone mess'
p1865
aS'mane'
p1866
aS'allow help dont well thats'
p1867
aS'lmao irritating'
p1868
aS'tryna petty wasnt even fuck'
p1869
aS'single caan want \xe2\x80\x9dlmao right'
p1870
aS'want people life people temporary\xee\x90\x83\xee\x81\x98\xee\x90\x81'
p1871
aS'hate love'
p1872
aS'really wasting time'
p1873
aS'life aint easy'
p1874
aS'dont feel like talking nobody frfr'
p1875
ag3
aS'wanna cant'
p1876
aS'really wanna give life'
p1877
aS'like feeling like'
p1878
aS'wanna talk nobody today wanna tweet'
p1879
aS'wonder dajon'
p1880
aS'maintaining'
p1881
ag3
aS'thoe'
p1882
aS'reason feel'
p1883
aS'hungry'
p1884
aS'sleepy'
p1885
aS'feeling nothing right'
p1886
aS'hurt'
p1887
aS'went skool'
p1888
aS'somebody'
p1889
aS'bored'
p1890
aS'feeling alone'
p1891
aS'wish talk right'
p1892
aS'daddy later early'
p1893
aS'happy birthday coya'
p1894
aS'wanna stuff'
p1895
aS'listen music thinking'
p1896
aS'irritated'
p1897
aS'bored wanna talk'
p1898
aS'lmao denote blew tsidemademe'
p1899
aS'ctfu whooped denote tsidemademe'
p1900
aS'629cash blowing follow'
p1901
aS'nephew'
p1902
aS'cheater cheated'
p1903
aS'finally beat mama'
p1904
aS'dang mama beat twice'
p1905
aS'punk liken pics follow'
p1906
aS'whooped'
p1907
asS'2013_44'
p1908
(lp1909
S'getting sleepy'
p1910
aS'number'
p1911
aS'waitin leslie'
p1912
aS'work bored'
p1913
aS'nationaltellagirlsheisbeautifulday beautiful girlfriend half love'
p1914
aS'1202 love'
p1915
aS'tryna play early damn morning'
p1916
aS'need home phone dead'
p1917
aS'idnt want damn waffles'
p1918
aS'irri tryna make'
p1919
aS'goodmorning'
p1920
aS'goodmorning'
p1921
aS'love'
p1922
aS'chillin sisters love pretty'
p1923
aS'wanna baby kiss'
p1924
aS'surprised'
p1925
aS'seen oomf mall'
p1926
ag3
aS'listen music texting'
p1927
aS'chillin sisters'
p1928
aS'goodbye'
p1929
aS'love life'
p1930
ag3
aS'irritated'
p1931
aS'bouts leave'
p1932
aS'nigga'
p1933
aS'feeling type'
p1934
aS'irritated'
p1935
ag3
aS'shit boring'
p1936
ag3
aS'lonely home'
p1937
aS'comin'
p1938
aS'hungry'
p1939
aS'aint today staying'
p1940
aS'going haunted house tonight'
p1941
aS'confused'
p1942
ag3
aS'bring yall cannnnny yall cheer'
p1943
aS'fuck skool'
p1944
aS'really school mood happy friday'
p1945
aS'love love different things'
p1946
aS'crying told shhhh looked like walked away'
p1947
aS'missing nomore days starting monday'
p1948
aS'leslie destinee twerking ugly'
p1949
aS'stfu'
p1950
aS'damn nobody'
p1951
aS'swear thinking many ways kill them\xf0\x9f\x92\xaf'
p1952
aS'watching'
p1953
aS'calmed'
p1954
aS'back'
p1955
aS'getting'
p1956
aS'blow'
p1957
aS'seniors want beat'
p1958
aS'pissed'
p1959
aS'done robert'
p1960
aS'think take everything hunted house today birthday'
p1961
aS'woke late'
p1962
aS'damn gotta take kids skool damn'
p1963
ag3
aS'awww shit'
p1964
aS'swear nobody went school today foreal'
p1965
aS'mean stomach started hurting'
p1966
aS'pygmy stomach started hurting'
p1967
aS'realized thought plan stay home today'
p1968
aS'going school never'
p1969
aS'late schoool'
p1970
aS'life mane'
p1971
aS'well'
p1972
aS'might wanna talk'
p1973
aS'would'
p1974
aS'unnecessary'
p1975
aS'pregnant people bellys gtgtgtgtgt'
p1976
aS'think skill bout goin today'
p1977
aS'wonder whats wrong'
p1978
aS'today everything birthday happy birthday love'
p1979
aS'feel special'
p1980
aS'blue message never'
p1981
aS'barely talk'
p1982
aS'realized goodmorning boyfriend sweet long goodmorning paragraph oomf thats funny'
p1983
aS'haunted house today'
p1984
aS'skool'
p1985
aS'think goin skill today'
p1986
aS'uhhh well'
p1987
aS'woahhhh irritated goin'
p1988
aS'laying couch'
p1989
aS'goodmorning'
p1990
aS'good mood guess school'
p1991
aS'made smile'
p1992
aS'message read'
p1993
aS'changing avii'
p1994
aS'bored sitting'
p1995
aS'bout start back person talk night frfr'
p1996
aS'irritated thought gone work talk'
p1997
aS'love'
p1998
aS'goin'
p1999
aS'goin nowhere'
p2000
aS'tomorrow talking nobody'
p2001
aS'took food'
p2002
aS'lowkey miss havent talked'
p2003
aS'well bout call mike ugly tail'
p2004
aS'think sleep answering'
p2005
aS'halloweens better younger'
p2006
aS'dajon'
p2007
aS'well talkin fall asleep'
p2008
aS'sleepy'
p2009
aS'waiting'
p2010
aS'stuipid'
p2011
aS'txter'
p2012
aS'boring'
p2013
aS'ewwwwwwwwww'
p2014
aS'work'
p2015
aS'teacher tryed godbless'
p2016
aS'destinee arguing teacher'
p2017
aS'arguing teacher disagreement'
p2018
aS'class bored'
p2019
aS'class getting hair sewed yall ghetto lmao'
p2020
aS'class getting hair sewed'
p2021
aS'destinee forreal leslie hair'
p2022
aS'ghetto'
p2023
aS'finished tighting hair'
p2024
aS'cold'
p2025
ag3
aS'home watching'
p2026
aS'high school made realize people change'
p2027
aS'didnt'
p2028
ag3
ag3
aS'honest goodnight'
p2029
ag3
aS'going sleep'
p2030
aS'well dough punching leaving seen walk tothe east'
p2031
ag3
ag3
aS'fear fuck everything'
p2032
aS'regret would probably'
p2033
aS'well leslie wont irritating tomorrow'
p2034
ag3
aS'whyyyyyyyyyyyyy'
p2035
aS'really wanted break would already'
p2036
aS'wanna talk'
p2037
aS'somebody call vent'
p2038
aS'miss'
p2039
ag3
aS'mind confused'
p2040
aS'bout punch'
p2041
aS'keep picking'
p2042
aS'still babysitting'
p2043
aS'thing another'
p2044
aS'threw shit everyday'
p2045
aS'swear'
p2046
aS'sweat'
p2047
aS'goodbye'
p2048
ag3
aS'feel like crying'
p2049
aS'gone first'
p2050
aS'fucking irritated'
p2051
aS'stupid'
p2052
aS'hoke home dummy'
p2053
ag3
ag3
aS'goin pick'
p2054
aS'today skool goin goin home goin sleep'
p2055
aS'shut'
p2056
aS'thats cute bestfriend'
p2057
aS'start working going back together'
p2058
aS'said life thats cute'
p2059
aS'miss'
p2060
aS'damn called gabe mind much'
p2061
aS'hungry'
p2062
ag3
aS'swear wanna beat outta everything make'
p2063
aS'1202 baby'
p2064
aS'need somthing today skool'
p2065
aS'hell'
p2066
aS'lunch time'
p2067
aS'find something weekend'
p2068
aS'judt wanna tell'
p2069
aS'worried'
p2070
aS'talk next hour'
p2071
aS'talk bffl bout life'
p2072
aS'ctfu want beat'
p2073
aS'ratched'
p2074
aS'farting shit nasty asses'
p2075
aS'leslie jessica bout make another twerking video'
p2076
aS'never seen erin talk back teacher'
p2077
aS'ctfu subtweeting teacher'
p2078
ag3
aS'erin pissed'
p2079
aS'trouble nigga leave alone'
p2080
aS'said wright idgaf'
p2081
aS'erin trouble'
p2082
aS'leslie erin ugly short bastard'
p2083
aS'mama'
p2084
aS'destinee ugly'
p2085
aS'bout pick'
p2086
aS'havent talk bffl'
p2087
aS'erin farted kashyia'
p2088
aS'special person never leave gtgtgtgtgt'
p2089
aS'wassup miss text phone'
p2090
aS'erin'
p2091
aS'feel dumb'
p2092
aS'slapped erin'
p2093
aS'ctfu leslie'
p2094
aS'water good cold'
p2095
aS'woahhhhh'
p2096
aS'nose runny'
p2097
aS'wish somebody talk tooooo'
p2098
aS'erin keep touching'
p2099
aS'erin irri'
p2100
aS'much cost'
p2101
aS'real'
p2102
aS'twatch'
p2103
aS'oomf twatchin better gtfo punch throat'
p2104
aS'goin'
p2105
aS'fool'
p2106
aS'lmfaooo used faithfully'
p2107
aS'think shruggs'
p2108
aS'havent talked'
p2109
aS'hope close'
p2110
aS'wanna hunted house'
p2111
aS'miss punk'
p2112
aS'ctfu said need rehab ctfu dead'
p2113
aS'lmaoo class omegle remember'
p2114
aS'lmao'
p2115
aS'skool right'
p2116
aS'well'
p2117
aS'said addict'
p2118
aS'ctfu sister nasty'
p2119
aS'goin nowere'
p2120
aS'ctfu erin tryna'
p2121
aS'seen quae party miss'
p2122
aS'ctfu omegle'
p2123
aS'erin caught cheating online class'
p2124
aS'class borimg finished work'
p2125
aS'bout turn'
p2126
aS'weekedn sister'
p2127
aS'awww poor'
p2128
aS'bestfriend sick'
p2129
aS'ltltltltlt'
p2130
aS'ctfu jessica irri'
p2131
aS'computer class'
p2132
ag3
aS'bout sleep'
p2133
aS'history boring'
p2134
aS'miss'
p2135
aS'stayed home today'
p2136
aS'phone today left home'
p2137
aS'everybody crzy today'
p2138
aS'class bored'
p2139
aS'ctfu funny'
p2140
aS'talkin rayshawn'
p2141
aS'wasnt bout come'
p2142
aS'skool late'
p2143
aS'goodmorning'
p2144
aS'dint phone goodnight'
p2145
aS'female love loves fullest\xf0\x9f\x98\x8d person mess'
p2146
aS'goodnight'
p2147
aS'well probably lastnight'
p2148
aS'never fails argue every night'
p2149
aS'real irritated'
p2150
aS'love funny thing better watch'
p2151
aS'purpose'
p2152
aS'okay decide tomorrow'
p2153
aS'called dirty'
p2154
aS'lmao side todont matter'
p2155
aS'blowing'
p2156
aS'sing'
p2157
ag3
aS'destinee tomorrow'
p2158
aS'drop destinee keep'
p2159
aS'destinee need phone'
p2160
aS'wanna sing gotta song'
p2161
aS'happen mama phone'
p2162
ag3
aS'coya called destinee'
p2163
aS'destinee ugly'
p2164
aS'thank'
p2165
aS'wondering wondering mind'
p2166
aS'ready home'
p2167
ag3
aS'today great'
p2168
aS'baby'
p2169
aS'message sent'
p2170
aS'cant sleep mind'
p2171
aS'hung'
p2172
aS'going sleep time'
p2173
aS'goodnight'
p2174
aS'well goodnight didnt back'
p2175
aS'mind since earlier'
p2176
aS'thinking bout'
p2177
aS'brooooooo need hurry call'
p2178
aS'guess iwont falling asleep'
p2179
aS'tonight ltltltltltlt'
p2180
aS'feeling nobody right'
p2181
aS'hung face wasnt finish talking rude'
p2182
aS'goodnight'
p2183
aS'irritated life'
p2184
aS'hung face'
p2185
aS'thank 2482123404'
p2186
aS'thats mean'
p2187
aS'home chilling eating'
p2188
aS'slow'
p2189
ag3
aS'work'
p2190
aS'home'
p2191
aS'well somebody call work'
p2192
aS'well irritated'
p2193
aS'real'
p2194
asS'2013_45'
p2195
(lp2196
S'happens stays'
p2197
aS'special anyone cool'
p2198
aS'church chilling'
p2199
aS'posted photo'
p2200
ag3
aS'church flow'
p2201
aS'church'
p2202
aS'goodmorning'
p2203
ag3
aS'oomf checking boyfriend thought bout'
p2204
aS'phone bout'
p2205
aS'love suppose never want leave'
p2206
aS'dreaming time cans kisses mind'
p2207
aS'wanna talk'
p2208
aS'need sleep'
p2209
ag3
aS'sugar daddy candy girl'
p2210
aS'take always another hear girl cant never wanna'
p2211
aS'never nobody like things'
p2212
aS'song made'
p2213
aS'ok\xe2\x80\x9dyup'
p2214
aS'welcome'
p2215
ag3
aS'everyday thing'
p2216
aS'text love'
p2217
aS'dont deserve u\xe2\x80\x9drob song'
p2218
aS'thanks destiny asking'
p2219
aS'niggas girls talk people think fine'
p2220
aS'tell talkin bout'
p2221
aS'relationship fading wanna talk'
p2222
ag3
aS'talkin bout'
p2223
aS'really cant sleep'
p2224
aS'gone answer me\xe2\x80\x9dwym'
p2225
ag3
aS'baby baby deserve'
p2226
aS'idnt deserve feel touch deserve feel lips kids'
p2227
aS'away pain deserve'
p2228
aS'deserve'
p2229
aS'deserve many night waited'
p2230
aS'tired life'
p2231
aS'damn person'
p2232
aS'never fiiiinnndddd'
p2233
aS'still feel heart next mine'
p2234
aS'could'
p2235
aS'shouldnt never time realize'
p2236
aS'want somebody kissing lips'
p2237
aS'baby cause never find nobody like cause loved'
p2238
ag3
aS'finna night'
p2239
aS'fuck'
p2240
aS'people choose lose something good'
p2241
aS'sleepy either wide awoke'
p2242
aS'super bored'
p2243
aS'wanna call'
p2244
aS'nobody'
p2245
aS'keeping phone tomorrow'
p2246
aS'trying keep together falling apart'
p2247
aS'cant sleep night mind'
p2248
aS'cause baby left lost part still hard believe'
p2249
aS'didnt mean said didnt love held'
p2250
aS'night'
p2251
aS'goin sleep'
p2252
aS'sending page letter enclosed kiss'
p2253
aS'wished loved'
p2254
aS'wanna cuddle'
p2255
aS'dont tell show meee'
p2256
aS'oomfs mine long time'
p2257
aS'words dont mean shit'
p2258
aS'actions speak louder wordss'
p2259
aS'levels shii never money'
p2260
aS'decide youll mine inside'
p2261
aS'still'
p2262
aS'starting phone cause'
p2263
aS'feeling kinda strang lately'
p2264
aS'brandy broken hearted ltlt'
p2265
aS'wanna youuuuuuuuuuuuuuuuuuuujj'
p2266
aS'hear'
p2267
aS'cant life'
p2268
aS'probably wont even able sleep tonight'
p2269
aS'figured wasnt'
p2270
ag3
aS'sometimes wanna kill'
p2271
aS'mind fucked'
p2272
aS'thinking'
p2273
ag3
aS'still dreams still still love deeply deeply'
p2274
aS'lover baby farther'
p2275
aS'threw problems like everybody else'
p2276
aS'never gonna break always make ride long love climb higher'
p2277
aS'still feels like first time kissed itll loved'
p2278
aS'tamia still gtgtgt'
p2279
aS'swear either wanna dont'
p2280
aS'swear either wanna dont'
p2281
aS'somebody called facetime'
p2282
aS'boyfriend right ltltlt'
p2283
aS'night like tonight sweet good morning text would perfect wake morning'
p2284
aS'irritating'
p2285
ag3
aS'loml'
p2286
aS'might well stop'
p2287
aS'wanna bothered nomore'
p2288
aS'really aint talking whole weekend gtlt'
p2289
aS'didnt shit'
p2290
aS'wonder gone stop acting like ltlt'
p2291
aS'mind right'
p2292
aS'feel'
p2293
aS'tired shit'
p2294
aS'hate everything'
p2295
aS'fucking crazy'
p2296
aS'thing'
p2297
aS'today cool'
p2298
aS'need away'
p2299
aS'everything aint foreverybody'
p2300
aS'fuck face\xe2\x9c\x8b'
p2301
aS'call'
p2302
aS'thats retweet'
p2303
ag3
aS'ctfu'
p2304
aS'ever deserve'
p2305
ag3
aS'question'
p2306
ag3
aS'songs pandora playing ltltltlt'
p2307
aS'head hurting'
p2308
aS'first gotta talk'
p2309
aS'think move birthday come'
p2310
aS'love loving someone else'
p2311
aS'words love loyalty'
p2312
aS'everybody better leave alone'
p2313
aS'love like like'
p2314
aS'went gtgtgtgtgt\xe2\x99\xa5'
p2315
ag3
aS'thinking bout like five mins'
p2316
aS'think bout tell'
p2317
aS'time hoes'
p2318
aS'would date could'
p2319
aS'ctfu retweet'
p2320
aS'even pointless'
p2321
aS'thats felt shouldnt never answered texted'
p2322
aS'damn going'
p2323
aS'goodnight'
p2324
aS'threw'
p2325
aS'relationship last gettin another'
p2326
aS'final last time'
p2327
aS'pandora songz'
p2328
aS'already knowing nigga'
p2329
aS'much'
p2330
aS'hate fallin love'
p2331
aS'glade brother love'
p2332
aS'love twiin'
p2333
aS'everything idnt feel loved nomore love'
p2334
aS'nobody call rest night tomorrow dgaf'
p2335
aS'everything idnt feel loved nomore'
p2336
aS'wanna always everything'
p2337
aS'hate teenager'
p2338
aS'life right nomore'
p2339
aS'nomore'
p2340
ag3
aS'need somebody talk'
p2341
aS'feelings tonight'
p2342
aS'letting pandora play'
p2343
aS'wanna irritated'
p2344
aS'never irritated'
p2345
aS'swear born irritated'
p2346
aS'life living hell'
p2347
aS'life living hell'
p2348
aS'nice till'
p2349
aS'tired shit'
p2350
ag3
aS'seem like every time talk argue'
p2351
ag3
aS'diamond'
p2352
ag3
aS'diamond'
p2353
aS'diamond riley downtown'
p2354
aS'kids'
p2355
aS'greektown'
p2356
aS'greektown hotel'
p2357
aS'happy birthday hope enjoy beautygirllauren'
p2358
aS'diamond cheese cake'
p2359
aS'people mover'
p2360
aS'beautygirllauren hello kitty party'
p2361
aS'happy birthday beautygirllauren'
p2362
aS'lauren'
p2363
aS'kids'
p2364
aS'people mover'
p2365
aS'forever'
p2366
aS'pizza place'
p2367
aS'wanna oovoo call rt\xe2\x80\x9dnobody'
p2368
aS'turn time'
p2369
ag3
aS'irritated'
p2370
aS'said acting funny'
p2371
aS'hope nobody ruin'
p2372
aS'goodmorning message made'
p2373
aS'1204 kidd'
p2374
aS'going stress something thats even worth stressing'
p2375
aS'bae\xe2\x80\x9dyea'
p2376
aS'sleepy'
p2377
aS'need'
p2378
aS'call cause always'
p2379
aS'havent texted'
p2380
aS'till fade'
p2381
aS'sleep'
p2382
aS'idnt half time'
p2383
aS'person really every basis oomf'
p2384
aS'feeling lonely'
p2385
aS'idnt never attention'
p2386
aS'bored somebody'
p2387
aS'anymore hdms retweeeeeet'
p2388
aS'happy birthday'
p2389
ag3
aS'fuck wanna'
p2390
aS'gotta essay'
p2391
aS'damn hurt\xe2\x80\x9dctfu real home'
p2392
aS'leslie didnt even check home\xe2\x80\x9dyou home ditch'
p2393
aS'relationship want oomfs\xf0\x9f\x92\x95\xf0\x9f\x99\x88\xee\x90\x94\xee\x84\x86\xee\x90\x98'
p2394
aS'leslie didnt even check home'
p2395
aS'blowing follow cutayyyyy'
p2396
aS'posted photo'
p2397
aS'leslie villa'
p2398
aS'tryna essay'
p2399
aS'mama'
p2400
aS'phone working tomorrow yall gotta facetime'
p2401
aS'wendys eating'
p2402
aS'lmao somebody wrote left granny'
p2403
aS'iight tell hurry\xe2\x80\x9dightt'
p2404
aS'didnt look leslie said call'
p2405
aS'welcome'
p2406
aS'okay thanks'
p2407
aS'villa'
p2408
aS'still mall'
p2409
aS'thats'
p2410
aS'ctfu shampoo packet granny wats rubbers'
p2411
aS'wanna cuddle'
p2412
aS'frfr'
p2413
aS'1202 world'
p2414
aS'wont stop'
p2415
aS'looking spaaaace mean baeeee feel amaaaze thats part song'
p2416
aS'really wanna talk'
p2417
aS'wants girl girls'
p2418
aS'paints pretty picture picture twist paintbrush razor canvas wrist'
p2419
aS'every girl wants good'
p2420
aS'cares'
p2421
aS'dajon eating yogurt popcorn together ltltltltltltltlt\xe2\x80\x9dtell dirty'
p2422
aS'more\xe2\x80\x9dis goin'
p2423
ag3
aS'ummm twitter'
p2424
aS'crying'
p2425
aS'love strong minds weak temptation strong shall fall'
p2426
aS'give matter hard gets'
p2427
aS'head hurt like shit'
p2428
aS'hurting'
p2429
aS'need fucking phone'
p2430
aS'head banging like shit'
p2431
aS'said happy like wanna time said happy'
p2432
aS'tweets wasnt happy think'
p2433
aS'changed cause already knew'
p2434
aS'wish didnt worries'
p2435
aS'well change never happy like wanna'
p2436
aS'never happy frfr'
p2437
aS'trying mind right\xf0\x9f\x98\x87'
p2438
aS'need helpnim trapped'
p2439
aS'everything'
p2440
aS'problems blessing gone come'
p2441
ag3
aS'meanwhile think happening'
p2442
aS'miss soul'
p2443
aS'fuck fuck fuck fuck fuck fuck fuck fuck'
p2444
aS'bout'
p2445
aS'head banging'
p2446
ag3
aS'take'
p2447
aS'worried body'
p2448
aS'well need nobody talkin right anyway'
p2449
aS'seriously phone'
p2450
aS'gotta talk letting leave early think wait'
p2451
aS'talk mama whenever home'
p2452
aS'ready move away problems'
p2453
ag3
aS'want thats thats show attention drop everything'
p2454
aS'head hurting'
p2455
aS'hard cant keep'
p2456
aS'dint wana fall love'
p2457
aS'need somewhere clear head'
p2458
aS'much stress right'
p2459
aS'wanna nomore'
p2460
aS'confused'
p2461
aS'feel right'
p2462
aS'idnt even phone'
p2463
aS'bout leave talk nobody'
p2464
aS'bout thoe'
p2465
aS'wish never people'
p2466
aS'nobody worry bout'
p2467
aS'well'
p2468
aS'think starting care'
p2469
aS'feel'
p2470
aS'yall miss'
p2471
aS'gone goodbye'
p2472
aS'feeling ending like past relationship'
p2473
ag3
aS'swear nobody understands'
p2474
aS'miss love twiin'
p2475
aS'gotta make'
p2476
ag3
aS'liken pics follow cute pretty hair'
p2477
aS'cant find find destineedeniise'
p2478
aS'outta breath putt lord want'
p2479
aS'said like squeeze anit felt hear beat head watch move hips back left right'
p2480
aS'want wanna give evey tease'
p2481
aS'love strip'
p2482
aS'name'
p2483
aS'hate shit'
p2484
aS'somebody time'
p2485
aS'didnt work class'
p2486
ag3
aS'miss'
p2487
aS'wanna freak need'
p2488
aS'tell sound turn around proud'
p2489
ag3
aS'didnt'
p2490
ag3
aS'oomf always callin'
p2491
aS'call oovoo facetime'
p2492
aS'facetime friend morning'
p2493
aS'girls like watch sponge work'
p2494
aS'ahhhhhhhh'
p2495
aS'class bored snapping pics'
p2496
aS'ctfu popped'
p2497
aS'leslie doin work'
p2498
aS'class listen trey songs'
p2499
aS'shit aint'
p2500
aS'wanna stuff hard'
p2501
aS'bout mess today wanna start'
p2502
aS'wanna thats cool'
p2503
aS'seen'
p2504
aS'havent talked since morning'
p2505
aS'cute'
p2506
aS'posted photo'
p2507
aS'posted photo'
p2508
aS'posted photo'
p2509
aS'filter natural'
p2510
aS'class silly'
p2511
aS'bfffl love nomatter come anything'
p2512
aS'chiquan'
p2513
aS'rishonda'
p2514
ag3
aS'savanna'
p2515
aS'rollie'
p2516
aS'rollie jaiden'
p2517
aS'jaiden'
p2518
ag3
aS'nephew tyree'
p2519
aS'posted photo'
p2520
ag3
aS'jessica'
p2521
ag3
ag3
aS'erin arionne'
p2522
aS'color hair'
p2523
aS'coya agin'
p2524
aS'coya'
p2525
aS'class leslie'
p2526
aS'hatin mane look like ratatouille'
p2527
aS'getting'
p2528
aS'might skool'
p2529
aS'look like brand nikki minaj'
p2530
aS'goodmorning stop texting'
p2531
aS'talkin nobody'
p2532
aS'goodmorning'
p2533
aS'need'
p2534
ag3
aS'honestdms'
p2535
ag3
aS'till fade'
p2536
aS'eatin bagel apples sleep'
p2537
aS'nahh'
p2538
ag3
aS'friday work saturday goin lauren party'
p2539
aS'fill tomorrow'
p2540
aS'tripping yall swear'
p2541
aS'need month vacation twice year'
p2542
aS'duduright here\xe2\x80\x9dtell seen'
p2543
aS'guess guess \xe2\x80\x9dhump'
p2544
aS'without talking obviously dont mean shit'
p2545
ag3
aS'sleepy hungry'
p2546
aS'wonder homework'
p2547
aS'goin night night mentions slut'
p2548
aS'dudu'
p2549
aS'nooo busy damn'
p2550
aS'robert chill word straight snitching'
p2551
aS'goodnight'
p2552
aS'home leslie carill come home'
p2553
ag3
ag3
aS'home leslie'
p2554
aS'tryna drop corner leslie'
p2555
aS'damn\xe2\x80\x9d4 damn\xe2\x80\x9dctfu damn'
p2556
aS'woah'
p2557
aS'damn'
p2558
aS'ctfu'
p2559
aS'time'
p2560
aS'watch pull yall hoes really gone hate me\xe2\x80\x9dstfu'
p2561
aS'talkin different things'
p2562
aS'never'
p2563
aS'funny'
p2564
aS'jamel granny nice light'
p2565
aS'lmao jameel ganny called player'
p2566
aS'suck mean dick'
p2567
ag3
aS'stfu'
p2568
aS'whoo gone call'
p2569
aS'imessage retweet'
p2570
aS'robert vincent mitchell forever callin tell daddy'
p2571
aS'chillin crib'
p2572
aS'monster ahhhhhhhh'
p2573
aS'bored'
p2574
aS'talkin tonight seem like busy talk'
p2575
aS'maybe tripping cant figure'
p2576
aS'fuckery real'
p2577
aS'bounce bouncen'
p2578
aS'fuck'
p2579
aS'others jealous you\xe2\x80\x99re something right'
p2580
aS'thats'
p2581
aS'diamond said tweeting lord'
p2582
aS'playing'
p2583
aS'mean'
p2584
aS'greek town weekend \xf0\x9f\x92\xaf\xe2\x80\x9dturn up\xe2\x80\x9dright gotta bottle lauren\xe2\x80\x9dtry'
p2585
aS'wont stop'
p2586
aS'weekend'
p2587
aS'anit nobody love like'
p2588
aS'haleluyer'
p2589
aS'real boyfriend tell girls happy sarcastic period even lying thats'
p2590
aS'twitter dryyyy'
p2591
aS'love'
p2592
aS'boyfriend stresses'
p2593
aS'life'
p2594
ag3
aS'oovoo punk'
p2595
aS'stop cussing sister'
p2596
aS'bitches like love'
p2597
aS'church'
p2598
aS'bout fuckin'
p2599
aS'irritated need help homolework nobody wanna help'
p2600
aS'acting real funny'
p2601
ag3
ag3
aS'come friday'
p2602
ag3
ag3
aS'wont entertain'
p2603
ag3
aS'hate texting first time'
p2604
ag3
aS'wish lonely\xe2\x80\x9dstay lonely lonely'
p2605
ag3
ag3
ag3
aS'irri like really really wanna fight'
p2606
aS'fuckin irri'
p2607
aS'miss tony'
p2608
aS'swear niggas nerves especially boyfriends'
p2609
aS'thats mine'
p2610
aS'last nerve'
p2611
aS'stupid fuck'
p2612
aS'mines'
p2613
aS'really wanna fight like everything'
p2614
aS'duhh irri'
p2615
aS'greek town weekend \xf0\x9f\x92\xaf\xe2\x80\x9dturn'
p2616
ag3
aS'always irritated hang sitting table busy'
p2617
aS'hung face'
p2618
aS'well wanna call facetime'
p2619
aS'wont care appreciate gone'
p2620
aS'damnnn'
p2621
aS'need'
p2622
aS'well'
p2623
ag3
aS'called boyfriend pose help acting stupid'
p2624
aS'need somebody help home homework'
p2625
aS'chillin'
p2626
ag3
aS'nobody wanna talk'
p2627
aS'good mood thoe kilt shit'
p2628
aS'doin'
p2629
aS'even trip'
p2630
ag3
ag3
aS'imessage retweet'
p2631
ag3
aS'phone'
p2632
aS'work levi store'
p2633
aS'twin'
p2634
aS'like comment'
p2635
aS'take'
p2636
aS'oomf said homework'
p2637
aS'irritated'
p2638
aS'damn excluded'
p2639
aS'wanna real homework'
p2640
ag3
aS'bored nobody talkin'
p2641
aS'kissing lips neck belly toes make body'
p2642
aS'lips land wherever'
p2643
aS'dream gone much'
p2644
aS'close eyes fantasize grab hold'
p2645
aS'aint nobody cant nobody body like'
p2646
aS'give hand wanna feel hand mine'
p2647
aS'close eyes fantasize much'
p2648
aS'listen music'
p2649
aS'wanna call class'
p2650
aS'like pics follow'
p2651
aS'shit gutted'
p2652
aS'leslie punch'
p2653
aS'digital photography bored call facetime'
p2654
aS'miss'
p2655
ag3
aS'hall'
p2656
aS'dimples'
p2657
aS'posted photo'
p2658
aS'bored bout flow yall'
p2659
aS'life'
p2660
aS'background'
p2661
aS'1010'
p2662
aS'project working'
p2663
aS'think'
p2664
aS'kikin everything'
p2665
aS'class'
p2666
aS'love'
p2667
aS'love pretty lady \xe2\x80\x9dlove'
p2668
aS'goodnight sleep might well'
p2669
aS'lonely'
p2670
ag3
aS'never dropped even'
p2671
aS'bout shower'
p2672
aS'dropped everything'
p2673
ag3
ag3
aS'mean gotta download'
p2674
aS'facetime'
p2675
aS'brother'
p2676
aS'calling texting shortly'
p2677
aS'getting hair redone'
p2678
aS'finna lock'
p2679
aS'stupid thoe'
p2680
aS'relationships nigga phone\xf0\x9f\x93\xb2 like'
p2681
aS'niggas like kiss make happy'
p2682
aS'simple play played'
p2683
aS'fucked time'
p2684
aS'chillin till talk'
p2685
aS'childish'
p2686
aS'mama always talt'
p2687
aS'thats bullshit'
p2688
aS'always wrong'
p2689
aS'well cant nowhere'
p2690
aS'even dark'
p2691
aS'silent'
p2692
aS'ctfu'
p2693
aS'hope'
p2694
aS'bout spit'
p2695
ag3
aS'even'
p2696
aS'well'
p2697
aS'chillin'
p2698
aS'damn'
p2699
aS'boyfriend'
p2700
aS'disrespect'
p2701
aS'called'
p2702
aS'jagged edge promise gtgtgtgtgt'
p2703
aS'love someone gotta love first'
p2704
aS'half better take skating'
p2705
ag3
aS'yeah'
p2706
aS'sitting computer bored\xe2\x80\x9dis'
p2707
ag3
aS'moment boyfriend room twitter ltltltltltltlt'
p2708
aS'wanna'
p2709
aS'need like people skating birthday'
p2710
aS'ctfu'
p2711
aS'much pain wanna'
p2712
aS'like nobody house cause cant home'
p2713
aS'cold'
p2714
aS'1111 things better'
p2715
aS'feel like crying'
p2716
aS'wish home'
p2717
aS'stomach hurt'
p2718
aS'irritated upset'
p2719
aS'wish didnt'
p2720
aS'irritated'
p2721
aS'bored'
p2722
aS'woke'
p2723
ag3
aS'ctfu keep callin'
p2724
aS'goin house'
p2725
aS'ctfu said'
p2726
aS'leslie dumb'
p2727
aS'2489177985'
p2728
ag3
aS'bout call calm'
p2729
aS'cant stay nomore'
p2730
ag3
aS'ready fuckin move everything'
p2731
aS'swear cant fuckin stand'
p2732
aS'fucking irritated'
p2733
ag3
aS'cant'
p2734
aS'bored'
p2735
aS'wanna face time'
p2736
aS'conceited'
p2737
ag3
aS'computer class bored'
p2738
aS'tyrus'
p2739
aS'jess best'
p2740
aS'love'
p2741
aS'\xe2\x9a\xa0\xef\xb8\x8f\xe2\x9a\xa0\xef\xb8\x8feverybody\xe2\x9a\xa0\xef\xb8\x8f\xe2\x9a\xa0\xef\xb8\x8f follow sister'
p2742
aS'good morning everyone'
p2743
aS'morning starting good sweetest good morning today'
p2744
aS'didnt lady probably sprite'
p2745
aS'goodnight'
p2746
ag3
aS'goodnight'
p2747
aS'never fails'
p2748
aS'argue every fuckin night'
p2749
aS'shit nerves'
p2750
aS'damn goin good'
p2751
aS'irritated'
p2752
aS'chillin'
p2753
aS'need call goin night night'
p2754
aS'driving'
p2755
aS'somebody'
p2756
aS'ready'
p2757
aS'waterford'
p2758
aS'bored wanna talk'
p2759
aS'cold'
p2760
ag3
aS'punk'
p2761
aS'driving'
p2762
aS'dead'
p2763
aS'ctfu sydney damn funny'
p2764
as.