(dp0
S'2013_42'
p1
(lp2
S'cant wait windows81 sure good broadband patient download take'
p3
aS'future cybersecurity sharing become negatively affect children'
p4
aS'square offers simple send money email comfortable still prefer check'
p5
aS'free vonage looks great windowsphone version largest phone'
p6
aS'windows phone update support hardware driving mode features'
p7
asS'2013_43'
p8
(lp9
S'internet everything companies adapt ubiquitous connected devices workplace'
p10
aS'children indulge highly risky behavior online parents action gentle guided direction esetp\xe2\x80\xa6'
p11
aS'service update we\xe2\x80\x99ve experienced incident network solutions we\xe2\x80\x99re process restoring services'
p12
aS'much know ediscovery heres good introduction'
p13
asS'2013_40'
p14
(lp15
S'adobe products major attack vector along java sometime suspect much'
p16
aS'certainly looks also recommend customers blackberry review'
p17
asS'2013_41'
p18
(lp19
S'good reminder still ongoing scam likely call remotely'
p20
aS'shared link'
p21
aS'recognize logo techie square eyes'
p22
aS'much facebook cost month'
p23
asS'2013_46'
p24
(lp25
S'care employees devices work think byod'
p26
aS'thanks following'
p27
aS'chairman wants carriers start unlocking phones pronto'
p28
aS'number customers uses surface windowstablet effectively space'
p29
asS'2013_47'
p30
(lp31
S'join today ribbon cutting 6001 cornhusker sinclairsapp bros travel lodge'
p32
aS'feel telecommuting heres shinders take subject'
p33
aS'cost amazonworkspaces make sense lack control choice software'
p34
asS'2013_44'
p35
(lp36
S'daylightsavings sunday make sure dated idea doesnt mess reminders calendars devices'
p37
aS'great basic webdesign advise owners ready site contact'
p38
aS'windowsphone rise lumias exclusively great smart phone'
p39
asS'2013_45'
p40
(lp41
S'years windows really long'
p42
aS'people fired tweets interesting article'
p43
aS'faster better stronger ie11 win7 also benefit users improved speed security features'
p44
aS'hope support windowsphone soon'
p45
aS'great guide good sleep habits techies might genetic problem implementing'
p46
aS'need reasons drop windowsxp'
p47
aS'cryptolocker malware evolving make sure backups place critical files'
p48
asS'2012_44'
p49
(lp50
S'well livetweeting windowsphone launch event starting tune live join'
p51
asS'2012_40'
p52
(lp53
S'fallback plan favorite cloud service axed business'
p54
asS'2012_42'
p55
(lp56
S'usiwireless lesson learned days paid minneapolis public wifi able connect'
p57
asS'2013_22'
p58
(lp59
S'apples cook hints wearable devices impact wearable devices business user'
p60
asS'2013_23'
p61
(lp62
S'expect version works windowsphone missing favorite stations lumia'
p63
asS'2012_27'
p64
(lp65
S'hopefully solid backup disaster recovery strategy never need tips'
p66
aS'cloud goes dark call'
p67
asS'2012_26'
p68
(lp69
S'still wonder theres reason secure wifi network'
p70
aS'twofactor authentication need fixed'
p71
asS'2012_25'
p72
(lp73
S'still browser plugins cause stability even worse security issues'
p74
aS'stopthe petting'
p75
aS'family nebraska'
p76
asS'2012_24'
p77
(lp78
S'owners covered hackers wipe business bank account'
p79
asS'2013_29'
p80
(lp81
S'email business tool necessary evil learn love email azen make work better'
p82
asS'2013_5'
p83
(lp84
S'government warns hack threat upnp really surprised azen disabling years'
p85
asS'2013_1'
p86
(lp87
S'thats great news making users happy looking forward recommending corporate clients 2013'
p88
asS'2012_8'
p89
(lp90
S'tool alerted increasing driver errors clients pulled drive almost done cloning dead server monday'
p91
aS'iphone android phones vulnerable chinese malware program hackers could record calls'
p92
aS'revealed plug cable right every time simple know'
p93
aS'essential cloud apps smbs using cloud really always better'
p94
aS'blog post google privacy updates information google hold'
p95
aS'online computer security resources protect kids computer mspartner'
p96
asS'2012_9'
p97
(lp98
S'malware hacking common attacks 2011 report smaller smbs immune back azentech'
p99
aS'byod security problem less tablet owners autolock rsac'
p100
aS'whole world interacting office coming release'
p101
aS'microsoft account good news number microsoft services'
p102
asS'2012_4'
p103
(lp104
S'microsoft provides tips help protect online image infographic mspartner'
p105
aS'good passwords really test msft basicsecurity'
p106
aS'build nearly hackproof password system like roboform password management video'
p107
aS'beware latest facebook scam'
p108
aS'nudge\xe2\x80\xa6ever seen apps phone stuff like smarter'
p109
aS'recharge work style home office makeover entry rules'
p110
asS'2012_5'
p111
(lp112
S'heavy snow causing power issues customer locations good thing servers protected'
p113
aS'midwest snowstorm hits employees work seamlessly home'
p114
aS'android adware story windowsphone lesson overlook mobile security business'
p115
aS'iphones siri doesnt seem smart scotland scottish voice commands windowsphone works'
p116
asS'2012_6'
p117
(lp118
S'still think iphone droid fast time smokedbywindowsphone windowsphone work'
p119
aS'everything need survive losing laptop video losing corporate data pose huge security risk'
p120
aS'found brand malware submit samples vendors eset vipre'
p121
aS'protecting phishing scams ebrochure mspartner safety'
p122
asS'2012_7'
p123
(lp124
S'official ways speed'
p125
aS'apple didn\xe2\x80\x99t include siri mountain lion wont asking macbook questions anytime soon'
p126
aS'blog post listing missing apps would like good challenge devs'
p127
aS'thanks review link frustration lack quickbooks time billing come intuit'
p128
aS'time switch windowsphone speech native smokedbywindowspone works even accent'
p129
aS'hope name include suite many products means useless features admins disable'
p130
aS'firefox windows metro build works know expect windows8 azentech help'
p131
aS'could valentine\xe2\x80\x99s cost business'
p132
asS'2012_3'
p133
(lp134
S'correct testing many solutions settled chartec product soon released excellent support'
p135
aS'celebrating years malware security history nothing like oldfashioned boot sector virus'
p136
aS'outdated software across estate could risk security vulnerable applications'
p137
aS'last time reviewed backup disaster recovery plan dont contact downtime impact business'
p138
asS'2012_16'
p139
(lp140
S'recover microsoft office file closed saving mspartner'
p141
asS'2012_17'
p142
(lp143
S'love using roboform years windowsphone'
p144
aS'congrats launch looking forward availability facilities'
p145
asS'2012_14'
p146
(lp147
S'flashback trojan java time patch'
p148
aS'threat business security beware apps bearing unwanted gifts'
p149
asS'2012_15'
p150
(lp151
S'123abc strong password weak passwords still downfall enterprise security'
p152
asS'2012_12'
p153
(lp154
S'2012 news announcements creatorsazen technology solutions'
p155
aS'insurance cover cybercrime damages business'
p156
asS'2012_10'
p157
(lp158
S'bother daylight saving time anymore interesting amusing video looking'
p159
aS'alien code researchers stumped'
p160
aS'early praise windows8 metro'
p161
asS'2012_11'
p162
(lp163
S'custom build quiet windows 64bit'
p164
aS'somebody posting nasty things arent'
p165
aS'nod32 stopped fake variant dead tracks reboot helps user running local admin winxp'
p166
aS'ever watched star trek know universal translator imagine'
p167
asS'2012_52'
p168
(lp169
S'would love refer friends using roboform years still 2013 year'
p170
asS'2012_18'
p171
(lp172
S'systems used cyberattack gateways symantec says help secure small setup'
p173
asS'2012_19'
p174
(lp175
S'phishing attacks increasing azentech help protect network'
p176
asS'2013_37'
p177
(lp178
S'still waiting months later still missing must'
p179
aS'users personal devices poses whole security challenge smbs'
p180
asS'2013_12'
p181
(lp182
S'praise windows desktop enjoy using win8 dont negativity'
p183
asS'2013_14'
p184
(lp185
S'still relying windows time seriously look upgrade paths'
p186
asS'2012_34'
p187
(lp188
S'next frontier hacking time invest tinfoil'
p189
aS'sine seen destructive malware'
p190
asS'2012_36'
p191
(lp192
S'dont underestimate flash drives malware carriers azen managed antivirus frequently detects stops'
p193
asS'2012_37'
p194
(lp195
S'malvertising hidden threats behind banners talktechtometv video infosec advertising'
p196
aS'thanks waiting windowsphone'
p197
asS'2012_30'
p198
(lp199
S'using cloud services problematic many smaller companies needs comply regulatory requirements'
p200
aS'windows phone coming november'
p201
aS'much started original cloud webhosting cloud still good many customers'
p202
aS'much expensive users shortage things sell progress'
p203
asS'2012_31'
p204
(lp205
S'another reminder backups matter'
p206
asS'2012_33'
p207
(lp208
S'tesla greatest time maybe communicate look confiscated documents'
p209
asS'2008_50'
p210
(lp211
S'setting'
p212
asS'2012_39'
p213
(lp214
S'hack attack energy giant highlights threat critical infrastructure'
p215
as.