(dp0
S'2013_42'
p1
(lp2
S'prince'
p3
asS'2013_43'
p4
(lp5
S'days hair looks like hagrids harry potter'
p6
aS'life blessing treat everyday gift grateful'
p7
asS'2013_40'
p8
(lp9
S'thanku girlylets leave another years'
p10
aS''
p11
aS'gawjus girly'
p12
aS'enroute coventry night girly bringonthedrinks'
p13
aS'happy birthday princess'
p14
asS'2013_46'
p15
(lp16
S'girly nearly years howtimeflies'
p17
ag11
asS'2013_47'
p18
(lp19
S'year today since yorkwanna back'
p20
asS'2013_44'
p21
(lp22
S'gawjus nephew lucas \xe2\x9d\xa4\xef\xb8\x8fproudauntie'
p23
aS'pussycats'
p24
aS'congrats brother safe arrival baby lucas'
p25
asS'2012_47'
p26
(lp27
S'thanx cant wait'
p28
aS'days york'
p29
aS'babe tryin could take'
p30
ag11
asS'2013_16'
p31
(lp32
S'funny'
p33
aS'wheres baby gone whydotheyhavetogrowup'
p34
aS'thanku'
p35
aS'happy birthday princess'
p36
ag11
aS'happy 30th birthday girly hope'
p37
asS'2013_24'
p38
(lp39
S'worries babe hope nite'
p40
aS'gorgeous princesses lovethem'
p41
aS'happy 18th birthday sweetie'
p42
ag11
ag11
ag11
aS'prince winning darts tournament'
p43
aS'proud'
p44
ag11
ag11
aS'pool'
p45
asS'2013_26'
p46
(lp47
S'laurengoodgerofficials photo'
p48
asS'2013_27'
p49
(lp50
S'booked princesss first horse riding lesson'
p51
aS'mummys lovesummertime'
p52
aS'happy birthday brother'
p53
aS'defo sort soon'
p54
aS'brilliant thanx quick hows phoebe'
p55
aS'still look beautiful'
p56
asS'2013_20'
p57
(lp58
g11
aS'happy birthday gawjus niece lailla loveher'
p59
asS'2013_21'
p60
(lp61
S'utter sick sick individuals poor soldier servant country murdered brutally'
p62
asS'2013_23'
p63
(lp64
S'princesses excited bout goin holiday'
p65
aS'bless glad good time'
p66
aS'thanx nice time away laila peppa'
p67
aS'12hrs sipping cocktails spain cantwait'
p68
aS'prince stones roses amazingtime'
p69
aS'havin cuddles nephew proudauntie'
p70
aS'pair seven jeans brand tags charity shop loveabargain'
p71
aS'congratulations gawjus sister lauren angelo safe arrival baby antonio verilli cant wait meet nephew'
p72
aS'awaiting exciting news cantwait'
p73
asS'2012_49'
p74
(lp75
S'love'
p76
asS'2013_28'
p77
(lp78
g11
asS'2013_29'
p79
(lp80
S'aliyah horse pepperx'
p81
aS'princesss first horse riding lesson'
p82
asS'2013_5'
p83
(lp84
S'notinamillionyears'
p85
aS'guess thats exactly gonna wearing cant wait'
p86
asS'2013_7'
p87
(lp88
S'cactus expert know prick'
p89
aS'makes feel better'
p90
aS'eldest children families tend develop higher siblings\xe2\x80\x9d explains'
p91
aS'thanks'
p92
aS'vodka made potatoes potatoes vegetables vegetables good youre welcome'
p93
aS'tell definitely come stay soon loveher'
p94
aS'tell laila come round auntie lisas house need wakin'
p95
aS'uncle getting queen veryproud'
p96
aS'girlies 15yrs wheredoesthetimego'
p97
aS'happy 30th birthday gawjus girly ellen'
p98
asS'2013_6'
p99
(lp100
S'ellens 30th gettintipsy'
p101
asS'2013_1'
p102
(lp103
S'know rang holiday brilliant news proud keep newspaper tuesday'
p104
aS'know caught good mood'
p105
aS'missed cant wait tues'
p106
aS'resemblance'
p107
aS'princess'
p108
aS'princess jungle park'
p109
aS'happy times tenerife'
p110
aS'cant believe time home already dont want leave sunny tenerife'
p111
asS'2013_3'
p112
(lp113
S'asked first time since turning 30that made'
p114
asS'2013_2'
p115
(lp116
g11
aS'mate'
p117
aS'wish cant afford make sure take lots pics show'
p118
aS'wish could'
p119
aS'hope sisters night 2nite'
p120
aS'happy birthday lovely sisters sian lauren'
p121
asS'2013_8'
p122
(lp123
S'aunties course'
p124
aS'must laila awesome auntie lisa'
p125
asS'2013_17'
p126
(lp127
S'happy birthday gawjus sister'
p128
asS'2012_51'
p129
(lp130
S'thanku'
p131
aS'thanks love'
p132
aS'defo next time'
p133
aS'knowcant wait partytime'
p134
asS'2013_37'
p135
(lp136
S'worst best'
p137
aS'happy wedding anniversary hope lovely'
p138
aS'booked weds october 10am brows wondering could rearrange 23rd september'
p139
aS'rock star'
p140
aS'thanx'
p141
aS'princesss first school sogrownup emotional'
p142
asS'2013_36'
p143
(lp144
S'best feeling world realizing youre perfectly happy without things thought needed'
p145
aS'thats thanku'
p146
aS'true'
p147
aS'everybody meant stay life learn'
p148
aS'sorry meant weds rearrange 23rd sept 1030 poss'
p149
aS'weds 1000 wondering change 23rd sept 1030'
p150
aS'ecardsdailyposts photo'
p151
asS'2013_13'
p152
(lp153
S'happy birthday happy birthday happy birthday connor happy birthday happy 18th hope'
p154
aS'happy 18th birthday'
p155
ag11
ag11
ag11
ag11
aS'prince'
p156
asS'2013_12'
p157
(lp158
S'really good nite nice catch family aint seen years'
p159
aS'know think bretts gettin avnt stopped goin amazing cake'
p160
ag11
aS'happy 60th diamond wedding anniversary auntie nell uncle pete amazing achievement'
p161
asS'2013_33'
p162
(lp163
S'brett avin first taste amsterdam cheese'
p164
aS'famous grasshopper'
p165
aS'first drink amsterdam firstofmany'
p166
aS'well daughter genius'
p167
aS'dunno mustve lily phone'
p168
aS'lashes collection look lovely want'
p169
aS'piglet spell love\xe2\x80\x9d pooh don\xe2\x80\x99t spell feel'
p170
aS'girly'
p171
aS'wanna girly'
p172
aS'shes angel \xf0\x9f\x91\xbcthey slept night full beens ready come nanny debs'
p173
aS'thanku avin cant wait proper night'
p174
aS'ecards49s photo'
p175
asS'2013_32'
p176
(lp177
S'good thanx hope well'
p178
aS'happy birthday chloe kacie hope lovely'
p179
aS'getting summer ready follow brands bikini'
p180
aS'happy birthday gorgeous prince'
p181
asS'2013_31'
p182
(lp183
S'love necklace wheres'
p184
aS'princesses'
p185
aS'officially less months wedding soexcited'
p186
aS'come home gradual arrived speedy delivery thanku'
p187
asS'2013_30'
p188
(lp189
S'congrats matt engagement wonderful news happy'
p190
aS'well done babe'
p191
aS'babyme thanks evianbabyandme'
p192
aS'gorgeous nephew'
p193
aS'angels'
p194
aS'time nice something absolutely loves'
p195
asS'2013_19'
p196
(lp197
S'lily princess party'
p198
aS'must stone thing'
p199
aS'dont blame baby fletcher like fell pregnant'
p200
aS'important world'
p201
asS'2013_18'
p202
(lp203
S'prince york last'
p204
aS'prince york last'
p205
asS'2013_39'
p206
(lp207
S'excited long'
p208
ag11
aS'think gonna bring siutcase bring shoes stuff next hope gonna coach'
p209
aS'neither woohoo\xf0\x9f\x98\x84'
p210
aS'least feeling like crap next sunday know weve good night'
p211
aS'determined thanku'
p212
aS'detox woke starving feeling weak hope worth'
p213
aS'essex glamour lashes arrived thanku speedy service'
p214
aS'thanku detox arrived'
p215
asS'2013_38'
p216
(lp217
S'ordered detox cant start weds'
p218
asS'2013_11'
p219
(lp220
S'congrats passing driving test'
p221
asS'2013_10'
p222
(lp223
S'drunk floors need hugs'
p224
aS'forget flowers bring shoes'
p225
aS'show pick next dont worry party'
p226
aS'bought mine party cantwait'
p227
aS'booked appointment wedding dresses soexcited'
p228
asS'2013_15'
p229
(lp230
S'karma menu served deserve\xe2\x80\x9d'
p231
aS'sister scan seen niece nephew amazing'
p232
asS'2013_14'
p233
(lp234
S'back appointment trying wedding dresses found sohappy'
p235
ag11
ag11
ag11
aS'bowling family'
p236
as.