(dp0
S'2013_42'
p1
(lp2
S'watched senna great film'
p3
aS'seen pawn shop chronicles'
p4
aS'haahaa thought ment rockband ooops'
p5
aS'mate billy blue video gary barlow justin bieber hollyoaks look material coming soon'
p6
aS'ship come'
p7
aS'blackpool'
p8
aS''
p9
ag9
aS'clownass osborne giving power communist china literally letting build nuclear power stations axis evil'
p10
aS'dont sweat youll rock house'
p11
aS'would great really wanna play live'
p12
aS'elvis boss'
p13
aS'darlin'
p14
aS'happy birthday bruddah great'
p15
aS'mmmmm sounds familiar haahaa thats'
p16
aS'stands dont involve'
p17
aS'killer track killer band things come'
p18
aS'check manashs band peep views amazin\xe2\x80\xa6'
p19
aS'banksy opened stall street selling artwork sold pieces redditch market next week please banksy'
p20
asS'2013_43'
p21
(lp22
S'joolz holland show marmite'
p23
aS'paul mccartney joolz holland shadow former shadow runnin empty tank'
p24
aS'good bruddah'
p25
aS'probably pt751 haahaa difference time'
p26
asS'2013_40'
p27
(lp28
g9
aS'boys drop today look itunes'
p29
aS'last breaking fuck happen'
p30
aS'signed teevin bastard'
p31
asS'2013_41'
p32
(lp33
S'another firesale countrys fixtures fittings caring sharing conservative cunts laurel hardy cameron osborne'
p34
aS'sweet haahaa'
p35
aS'chris case wouldnt grounded apples would fall'
p36
asS'2013_46'
p37
(lp38
S'rock rock'
p39
aS'clint eastwood visits smallbrook queensway 1967'
p40
aS'another couple month'
p41
aS'lottery didnt mean'
p42
aS'wowe fuck pissflaptwatfaceshit'
p43
aS'bathroom'
p44
aS'keep comin'
p45
aS'help philippines disaster text help 70000 youll donating lady godiver fiver goes fund'
p46
aS'king king rotunda brum'
p47
aS'02academy'
p48
aS'beresford like'
p49
asS'2013_47'
p50
(lp51
S'cross keys endell dutty dutty london'
p52
aS'little london cross keys endell sticks proper bitter nice nice'
p53
aS'tell much love dutty london much love punch cock iron fist'
p54
aS'friend loyal desecrate confidant even fall never taken fool'
p55
aS'better last week'
p56
aS'unfortunately'
p57
aS'curtains like living real house'
p58
aS'george osborn lets special lady night'
p59
aS'atkinson spotted town centre'
p60
aS'native americans outside tepee perry barr part buffalo bill\xe2\x80\x99s wild west show 1903'
p61
asS'2013_44'
p62
(lp63
S'cale died july year fuck thats listening naturally really albums serious memorys'
p64
aS'killer'
p65
aS'half live rebekah brooks andy coulson affair lasting years phonehacking trial hears'
p66
aS'photo find excuses back death valley shoot sunrise'
p67
aS'cant believe reed died hope walking wild side'
p68
asS'2013_45'
p69
(lp70
S'plough harborne date unkown'
p71
aS'missing pensioner seen aiden mccaffrey last seen tree lane bournville'
p72
aS'hawkwind silver machine class'
p73
aS'rout nearly looks'
p74
aS'ugly shite double whammy enema'
p75
aS'good friend mine obviously invested property glasgow hasnt mentioned itfucker'
p76
aS'double rainbow good luck sign toldmy hole camera mins later fuckmyluck'
p77
aS'seen curry house delivery sign saying currys left overnight class'
p78
aS'bridport eddi reader sgunna great night'
p79
asS'2012_45'
p80
(lp81
S'true blue cockstick jerk master'
p82
aS'couple golden ball wobbly brighton'
p83
aS'seen breaking series fuckin stunning'
p84
aS'building little nestegg years dont worry'
p85
aS'darlin wassup'
p86
aS'haopy birthday good'
p87
aS'back legs wellingtonboots best ride tswhat camilla'
p88
aS'doctors need'
p89
aS'lord mcalpine derek george henry laud peter lilley michael portillo'
p90
aS'cover planet earth third final midlands love single release'
p91
aS'dear theresa freemasons turn blind investigating freemasons'
p92
aS'check link'
p93
aS'simple answer dont'
p94
aS'depends space angles ones temper'
p95
asS'2012_44'
p96
(lp97
S'hammer rash'
p98
aS'receive message link dont open sent someone hacked genuin tell'
p99
aS'doin impression micheal cane italian nanana'
p100
aS'piss trotter'
p101
aS'supposed blow bloody doors'
p102
asS'2012_47'
p103
(lp104
S'look dollops oooerrr misses'
p105
aS'rebekah brooks andy coulsons trials public david camerons arse repeatedly going half crown sixpence'
p106
aS'sorry news thinking take care'
p107
asS'2012_46'
p108
(lp109
S'seen anasshole talking click must huge anus able whole head'
p110
aS'waiting tomorrow life'
p111
aS'went peter hook light last night best gigs long power favorite warsaw special'
p112
aS'love shots took newport pure action shot'
p113
aS'wonder stuff added another warm show dates pwei jesus jones december ones'
p114
aS'life leaf seasons tare condemn bind love green stem'
p115
aS'stories streets mine lean windowsill hotel chose'
p116
aS'sittin drinkin thinkin thats human thing'
p117
aS'worra cunt'
p118
asS'2012_41'
p119
(lp120
S'softlad whiteglove nowadays haahaa'
p121
aS'right'
p122
aS'awesomized wilko johnson'
p123
aS'pleased hear back bond movie'
p124
aS'theres word'
p125
aS'pleased meet hope guess name whats puzzling nature game'
p126
aS'awesomized mmmmmm lazers'
p127
aS'maybe maybe'
p128
aS'savile accused molesting young girls hospitals volunteered serial offender'
p129
aS'always rumors jimmy saville always thought boys heard anything freddie starr'
p130
aS'stills recent video shoot'
p131
aS'bath putting northern accent either saying bath bath pissin'
p132
aS'follow cunt good'
p133
aS'following'
p134
aS'following'
p135
aS'awesomized iconic'
p136
aS'wheres followers aint following anyone'
p137
aS'poor little april testing another sick fuck prays innocent guilty used medical testing'
p138
asS'2012_40'
p139
(lp140
S'lovin profile'
p141
aS'awesomized ceiling went thanks good friend beresford'
p142
aS'awesomized ceiling fell'
p143
aS'serch follow checkthiscunt'
p144
aS'missing line seen kestrel manoeuvre dark'
p145
aS'behind'
p146
aS'actually true bath shower'
p147
aS'bathroom progress still cant bathe luckily working bath tomorrowso shower'
p148
aS'missing april seen playing bike machynlleth1930hrs getting light coloured'
p149
asS'2012_43'
p150
(lp151
S'order'
p152
aS'sheeran'
p153
aS'stout called entire pint'
p154
aS'awesomizedtakes back pint'
p155
aS'rise well done'
p156
aS'question time keep going acronym disease talking desease politician desease'
p157
aS'dream dreamed full sail foolish boat leaning broken lovelorn rocks'
p158
aS'power people'
p159
aS'whats drivers name'
p160
aS'kicked asses play maybe haahaa'
p161
aS'didnt need invit working'
p162
aS'woooopeee goody goody wales'
p163
aS'thats funny'
p164
aS'play init'
p165
aS'playin anymore youve upset jockey manrod'
p166
aS'know next time gavin chips round piss heehee'
p167
aS'ooohh handbag'
p168
aS'girls girls stop periodpain yacking kiss make'
p169
asS'2012_42'
p170
(lp171
g9
aS'money bruver lovin stuff prod bangin stuff outa apple init'
p172
aS'hipster hired drive borrowed yellow socks pink cravat nothing lardydar'
p173
aS'left testical diameter talked limp would point'
p174
aS'shit sherlock'
p175
aS'song hush mout bredrin sell pound ting dare'
p176
aS'cheeky monkey scratching junk'
p177
aS'golf lost shit default'
p178
aS'legs stuck drain little boys kicking arse fucking shocker'
p179
asS'2013_24'
p180
(lp181
S'arise baldrick'
p182
aS'take note'
p183
asS'2013_25'
p184
(lp185
S'luke bday bash'
p186
aS'worra fuckin birthday bash great friends family entertainment great master'
p187
aS'thanks'
p188
aS'hair'
p189
aS'hair'
p190
aS'struggling explain haahaa diamond'
p191
aS'pint please'
p192
aS'lukes back ditch partys'
p193
aS'bugger double cool'
p194
aS'partys'
p195
aS'shoulda said round producer'
p196
aS'bass player around producer'
p197
aS'school proper money like shrapnel today worth toss'
p198
aS'fount great picture untouchables better days'
p199
aS'well'
p200
aS'thats birthday party sorted haahaa'
p201
aS'birthday party sorted tunes alcohol perfect'
p202
aS'waggamamam birthday dinner mmmmmm'
p203
aS'look knob'
p204
aS'well never sure knock birthday treat'
p205
aS'house points stick stick'
p206
aS'could tell'
p207
aS'today like beside seaside like beside'
p208
aS'going buxton thats miles house thats good enjoy'
p209
aS'defo check hooky fronted order missed youll kick dont'
p210
aS'support tonights show holly williams hanks granddaughter lineage awhat'
p211
aS'sexsmith bham town hall'
p212
asS'2013_26'
p213
(lp214
S'opposed ones without crazzzzzzy init said'
p215
aS'drinking birthday presents honey jack cheers'
p216
aS'sounds like haahaa'
p217
aS'voila vuala'
p218
aS'treefellers grinding stumps'
p219
aS'thats proper mens tools'
p220
aS'gunna fuckin break something'
p221
aS'three days shit hope never buried alive'
p222
aS'think root problem'
p223
aS'rattle bottles thank'
p224
aS'berresford hush askin miracles luke'
p225
asS'2013_27'
p226
(lp227
S'darlin'
p228
aS'shows never know shits coming till hits'
p229
aS'lash misses'
p230
aS'blue grass'
p231
asS'2013_20'
p232
(lp233
S'looks good'
p234
aS'dont think ever seen photo great'
p235
aS'quiet words virgin mary come'
p236
ag9
asS'2013_21'
p237
(lp238
S'well great tomorrow'
p239
aS'mins nana'
p240
aS'well nearly happy birthday'
p241
ag9
asS'2013_22'
p242
(lp243
S'great photo'
p244
aS'mmmmm stolen property'
p245
aS'mmmmm aint long long time'
p246
ag9
aS'word dutty dutty london turpitude'
p247
aS'realised irony fish bath'
p248
aS'people acronyms stop asap'
p249
aS'know'
p250
aS'word rambunctious particular favorite lukes party going'
p251
aS'made frase years never remember word napoo fitted nice nice prob rejected'
p252
aS'word napoo full stop dito period nothing comment napoo'
p253
aS'dutty dutty london'
p254
aS'word sarsaparilla'
p255
aS'guys bright future'
p256
aS'mark mark harelip mate'
p257
aS'fish'
p258
asS'2013_23'
p259
(lp260
S'isnt haahaa'
p261
aS'thats class mike haahaa'
p262
aS'stigmata fuckin'
p263
aS'pleasure'
p264
aS'blue plaque next wheres feckin name'
p265
aS'find'
p266
aS'home town quite small influences mine came super stoked'
p267
aS'paper time boys daring football'
p268
aS'found spare bedroom wpaper rather worrying kids bedroom smiling colonic'
p269
ag9
aS'account hacked dont open anything starts'
p270
asS'2012_49'
p271
(lp272
S'betcha bruver'
p273
aS'travelling aberystwyth back home tonight hope weather dont turn dont wanna stuck snowdrift valley night'
p274
aS'know dont matter thing'
p275
aS'spending special building home future memory years today lost aged'
p276
aS'post whats local paper'
p277
aS'dont bother wrapping keys pillow'
p278
asS'2013_28'
p279
(lp280
S'class movie whack version nuts'
p281
aS'druids round beer cant leave stones alone'
p282
aS'usual hammer rash outch'
p283
aS'build something else outta bricks slabs itll fine'
p284
ag9
asS'2013_29'
p285
(lp286
S'could offers upward \xc2\xa39999 anything right picture jokers'
p287
aS'another brick wall wall'
p288
aS'know jealous ones jokes aint juice rock like power'
p289
aS'serious fantastic cant wait'
p290
aS'thank blur bowler'
p291
aS'first bricks steps downhill'
p292
aS'level'
p293
aS'three sections concrete little blood sweat hardly tears throw bricks next'
p294
aS'looks like proper builder working garden looks deceptive'
p295
aS'well gone back concrete time'
p296
aS'word rapscallion weve'
p297
aS'footing concrete mixing pouring tomorrow'
p298
asS'2012_21'
p299
(lp300
S'great band great songs wages haahaa'
p301
aS'road sign redditch'
p302
asS'2012_48'
p303
(lp304
S'candy floss wobbly course lots shell suits haahaa'
p305
aS'shell suit suit shells itll never catch'
p306
aS'king thought could hold back tide'
p307
aS'given choice take time consider options long term might come back foreal'
p308
aS'fuck neptune'
p309
aS'general public doesnt understand need press regulation right average reader read pictures'
p310
aS'gorra worth punt haahaa'
p311
aS'beeta good preordered good luck endeavours brother'
p312
asS'2013_5'
p313
(lp314
S'thought bells tough haahaa'
p315
ag9
aS'bramely cottage ditch cast eastenders sitting next table think fuck parallel universe'
p316
aS'fuck budapest march reschedule haahaa good'
p317
aS'haahaa would given half chance'
p318
asS'2013_4'
p319
(lp320
S'certainly marcus'
p321
aS'picframe home tomorrow hong kong kinda town hope back sometime'
p322
aS'first time played private party blast home tomorrow good soon'
p323
aS'purchased adio version cant wait tell story good luck endoviours bruver'
p324
aS'thats skyline life kong'
p325
aS'stack high hong kong'
p326
aS'outta winda hong king kong worra blast'
p327
aS'crew kong'
p328
aS'talent dear talent'
p329
aS'twwwwwwat'
p330
aS'think john beijing honky kong'
p331
aS'hong kong already'
p332
aS'inbound honky kong'
p333
aS'maybe 5300 members armed forces thatll lose jobs year could form militia needed overthr'
p334
aS'good idea death valley photo shoot temps idea give ideas stuntman'
p335
aS'smashing zildjians middle badwater basin death valley'
p336
asS'2013_7'
p337
(lp338
S'bloody good book better read congrats'
p339
ag9
aS'friday mind'
p340
aS'continuity really self filling whisky glasses'
p341
aS'lookin bottle wine earlier remembered cellar house fuck wine cellar thats step'
p342
aS'sold tonightif youre'
p343
aS'sick love love makes sick even love sick cynic haahaa'
p344
aS'play wonder stuffs single part landed feature leave'
p345
asS'2013_6'
p346
(lp347
S'plus hits video brother nice'
p348
aS'getto blaster wondered tshirt went haahaa'
p349
ag9
asS'2013_1'
p350
(lp351
S'drunk honey jack year bootifull'
p352
aS'bash people gang style whatever freaky sure people would bother'
p353
aS'yall hope 2013 brings need want lasting health gawd bless fuckin'
p354
aS'havin quiet 2013 different race gorra'
p355
asS'2013_3'
p356
(lp357
S'fare weather fans needs bunch flatfeet'
p358
aS'much ship good luck'
p359
aS'sand bags outside door hotel ominous like beside seaside'
p360
aS'know great little place hong kong haahaa'
p361
aS'caravan good band nice guys'
p362
aS'years farting business music never seen rock band play spoons live'
p363
aS'seaside bugger mind'
p364
aS'simply stunning'
p365
aS'jimmy havin riddle 1956'
p366
aS'thing happnin fast roof complete snow rain send pics later'
p367
aS'snow people would rather dump rather park properly folks'
p368
aS'ugly face mcdonalds clean bastards'
p369
aS'sunny redditch'
p370
asS'2013_2'
p371
(lp372
S'rockin toons audio books traveling made happy gorra love'
p373
aS'shudda gone 8trak would need hole dash size dose ipod dock'
p374
aS'fuck cold time builder back house back'
p375
ag9
aS'hope goes great'
p376
asS'2013_9'
p377
(lp378
S'hours keep silly wanker lads cant lift'
p379
aS'stop think religion abused killed today'
p380
aS'cover dont gently haha'
p381
asS'2012_36'
p382
(lp383
S'cash prise haahaa'
p384
ag9
aS'thats nice guitar dont sell take hands'
p385
aS'know goin think'
p386
aS'gunna make round possy'
p387
aS'getting still enjoying built tower yesterday work front house dont like heights'
p388
aS'hope goes good tonight'
p389
aS'haahaa'
p390
aS'gorra love tool hire shop heehee'
p391
aS'level'
p392
ag9
aS'next mcdonalds disguised roman amphitheater'
p393
aS'yeah spare change'
p394
asS'2012_9'
p395
(lp396
S'thanks need figure'
p397
aS'first twat'
p398
aS'twat interested'
p399
asS'2013_17'
p400
(lp401
S'much water would like turned wine haahaa'
p402
aS'tour throne'
p403
aS'discounts friends haahaa'
p404
aS'privilege pleasure look tour great noddy holder fantastic mark radcliffe acoustic guitar'
p405
aS'haaaa came tweet text shit load haahaa'
p406
aS'long narrow parks'
p407
aS'bastard'
p408
asS'2012_35'
p409
(lp410
S'nice guitar nice gordon smith cant play bugger take care'
p411
aS'gizzz goooooo good friend used'
p412
aS'dealin anyone intelligent mate haahaa'
p413
aS'enough said'
p414
aS'officially worst hair ever seen'
p415
asS'2012_28'
p416
(lp417
S'join donate brick scheme brick leave southern buggers holiday'
p418
aS'news lostprophets offer free download \xe2\x80\x9cbring down\xe2\x80\x9d remix'
p419
aS'looks like explosion smartie factory'
p420
aS'thats nice'
p421
aS'proof need'
p422
ag9
aS'good heve listen'
p423
aS'managing grew realised hero zero best ride planet'
p424
aS'good yerself'
p425
aS'modern pensioner punk'
p426
aS'listening smiths'
p427
aS'working bath eric johnson play guitar tell'
p428
asS'2012_52'
p429
(lp430
S'dont miss hooky light 17th movement power corruption lies live'
p431
aS'bring birmingham'
p432
aS'june soon come'
p433
aS'class album enjoy'
p434
aS'lost thats spending much time haahaa always export stuff'
p435
aS'reggae reggae crimbo bredrin beat'
p436
aS'gotcha wears visits kids late night dodgy game'
p437
aS'give hunter rock legend'
p438
aS'bollocks sorry stevie happy birthday'
p439
aS'misses bike nave home address dont long love merry crimbo greg'
p440
aS'yall great christmas hear'
p441
aS'morning every fucker giving every fucker presents missed'
p442
aS'great song fantastic video'
p443
aS'well wrong link wonder stuff video last night filmed george'
p444
asS'2012_50'
p445
(lp446
S'sent dont'
p447
aS'didnt mention haahaa'
p448
aS'carrot gold kick\xc2\xa3250'
p449
aS'inspirational want proves'
p450
ag9
asS'2012_51'
p451
(lp452
S'stevie dicing death fuckin tell'
p453
aS'hoverin prod office'
p454
aS'playin \xc2\xa31999 prod hope band dont find'
p455
aS'thast taste'
p456
ag9
aS'friend greg geezer'
p457
aS'bush kickin'
p458
aS'ahead'
p459
asS'2013_37'
p460
(lp461
S'george osbornes haircut cockfacescuntfucker insidious'
p462
aS'watching hitlers rise astonished find hugo boss designed uniform thats advertising guff'
p463
asS'2013_36'
p464
(lp465
S'goes show facebook dose great story'
p466
aS'cant help shape cant sing aint pretty legs thin dont think might give answer want'
p467
aS'haahaa mabe thats sleep'
p468
aS'things life enough cause trichotillomania'
p469
aS'vodafone wont \xc2\xa360bn sale part company thanks fuckwit george osborne worra tossa'
p470
asS'2013_35'
p471
(lp472
S'mate admit award buying worst beer ever'
p473
aS'officially worst beer ever fair beer'
p474
aS'yeah clean rust piss'
p475
aS'hear david frosts death great journalist'
p476
aS'worst publicity photo ever'
p477
aS'well real'
p478
aS'inbound'
p479
aS'speedos'
p480
aS'youll convinced'
p481
asS'2013_34'
p482
(lp483
S'haha good days scary excited telly though'
p484
asS'2013_15'
p485
(lp486
S'cheated number spot fixed'
p487
aS'well either number number'
p488
aS'stuart charted haahaa'
p489
aS'theres hole chart song theres hole ground witch gunna'
p490
aS'maybe number today dont'
p491
aS'poof'
p492
aS'putting snipers roofs lining funeral route whats point cant kill twice'
p493
aS'class isolationliveinleedsfreemp3'
p494
aS'haahaa power spinal size'
p495
aS'straight number fuckin ironic'
p496
aS'thatcher back called nelson mandela terrorist dose make miners terrorists default worra cunt'
p497
aS'ding dong witch dead witch witch wicked witch ding dong wicked witch dead different strokes different folks'
p498
asS'2012_39'
p499
(lp500
S'couple bruisers hope alls good'
p501
aS'awesomized toads hole rock hard place ribbit ribbit'
p502
aS'jamie great film'
p503
aS'great name'
p504
aS'piers morgan lamentable twat appears jeremy kyle blist celebritys'
p505
aS'hope goes good brum gotta agin great night'
p506
aS'joke shop looks like mend'
p507
aS'ripped muscle yard undoing bolt dont know strength haahaa'
p508
aS'sprained trumps'
p509
aS'agree also gary barlow dull minded'
p510
asS'2013_31'
p511
(lp512
S'instruction bottom picture overstating'
p513
asS'2013_30'
p514
(lp515
S'typical combo'
p516
aS'cockneys t43192'
p517
aS'kinda dollar'
p518
aS'last night buxton love place great play movementpcampl altho maybe invited back afte\xe2\x80\xa6'
p519
aS'royals decide copy likes beckhams name conceived vagina third inline thrown'
p520
aS'sound formed vacuum seem waste time always hearing breathing movement lyrics nothing'
p521
asS'2013_19'
p522
(lp523
S'land'
p524
aS'sure connect'
p525
aS'send contact number phoner'
p526
asS'2013_18'
p527
(lp528
S'love xxxx'
p529
aS'fuck jonathan woss haahaa'
p530
aS'guns show knives prop'
p531
aS'tried never aston'
p532
asS'2013_16'
p533
(lp534
S'like daggs'
p535
aS'like daggs'
p536
aS'hope didnt forget wooden stake heart betta safe sorry'
p537
asS'2012_37'
p538
(lp539
S'show take pack lunch goes hours joking hours'
p540
aS'jimmy fuckface carr certainly fuckrightoff cockonastick'
p541
asS'2012_30'
p542
(lp543
g9
aS'called pisstakinripoff waighedin wold scrap value pauls quoted take away'
p544
aS'must dress code'
p545
aS'crazy genius acting miss'
p546
aS'haahaa'
p547
aS'year girl terminal cancer made bucket list wishes trend twitter'
p548
asS'2012_31'
p549
(lp550
S'awesomized lookin'
p551
aS'awesomized pack cigarett packet'
p552
asS'2012_32'
p553
(lp554
S'shaun'
p555
asS'2013_38'
p556
(lp557
S'please share everyone helen clark year missing last seen mowbray park 530pm'
p558
asS'2013_11'
p559
(lp560
S'hanging outside hotel room folkestone aint folk fuck'
p561
aS'corduroy pillow still making headlines'
p562
aS'cant trees'
p563
aS'haahaa think peter cushion'
p564
aS'ever feeling someone behind'
p565
aS'london ever mention hate town fucked'
p566
aS'well aint figured drive'
p567
aS'haahaa chinese takeaway figure'
p568
aS'months kitchen arrives whats dinner'
p569
aS'tommy emmanuel martin taylor taking stage said good martin replayed dont tell class'
p570
aS'ever looked good'
p571
aS'made world'
p572
aS'sickness like needs well'
p573
aS'milliband asks cameron question time anything organise brewry class heart matter'
p574
aS'happens'
p575
aS'done getting press feckin lights shut goin home'
p576
aS'fucker knew comin'
p577
aS'fukien itchin tell'
p578
aS'fuckin tempted'
p579
aS'ponda world pissin spelcheckkkkkkkkkkkk'
p580
aS'pinda world darlin givin large'
p581
aS'mission control'
p582
aS'wanna hotel horizontal fookin bored'
p583
aS'tommy emmanuel queens theatre great guitarist round nice'
p584
aS'wonder stuff kindly asked video telford lycra youre welcome'
p585
aS'wonder stuffs video featuring greg davies youtube'
p586
aS'thats class milo spoke main today sounds happy chappy'
p587
asS'2013_39'
p588
(lp589
S'know theses tits errol know tits guvnor dont know quite fuckin stupid theses'
p590
aS'need talk bout darlin dont bottle take care'
p591
aS'life make depends ingredients hand dose'
p592
ag9
aS'please share song song4syria'
p593
asS'2013_10'
p594
(lp595
S'friends'
p596
aS'right years nice said dope business business criminal today'
p597
asS'2013_13'
p598
(lp599
S'farewell monty terrible'
p600
aS'dont make like richard griffith aint watch withnail youll mean actings great loss'
p601
aS'1938 motor manufacturers 1946 exported 98000 cars imported 2013 manufactures thanks margriet thatcher'
p602
aS'goin anywhere nice'
p603
aS'didnt google genius handy looks like'
p604
aS'think turned corner square designe'
p605
aS'square corners'
p606
aS'great shot bass thing malc cardiff'
p607
aS'recockuless school canvey island triangular flapjack dangerous sell square ones jackasssessss'
p608
asS'2012_29'
p609
(lp610
S'twatter still figuring works'
p611
aS'joined jedwood haahaa'
p612
aS'nice boots'
p613
aS'interested parties breaking season episode available download cant wait gunna prep watch last episode season'
p614
asS'2013_12'
p615
(lp616
S'havin pint genesis road crew turn'
p617
aS'please come'
p618
aS'dont remember puttin'
p619
aS'yall gentle reminder wonder stuffs upcoming tour april port talbot princess'
p620
aS'give give give save bottle'
p621
aS'rubbish monkey bananas'
p622
aS'well bloody happy birthday schooner sherry celebrate'
p623
aS'agree'
p624
aS'mouth'
p625
aS'tommy emmanuel colonel martin taylor governor amazingly talented guys gents boot'
p626
aS'chillin meself aint chilli face whoisjew youisjew'
p627
aS'dont want anyway haahaa soon come food'
p628
aS'bring crawle'
p629
aS'make mine large'
p630
aS'keep thing perspective'
p631
aS'funny haahaa'
p632
asS'2012_38'
p633
(lp634
S'track sums whole bollocks xfactor dear dreary dreary deary send slyman clown'
p635
aS'testing times'
p636
aS'problem bruver'
p637
aS'twitter twatt haahaa'
p638
aS'awesomized respect piers'
p639
aS'awesomized bumped babcombe jess'
p640
aS'awesomized friggin riggin brixham'
p641
aS'awesomized wobberly torquay'
p642
aS'high torquay'
p643
asS'2013_32'
p644
(lp645
S'horses courses dummys babies cycles cyclists birckfuckinlaying fuckinbricklayers'
p646
aS'heres made earlier'
p647
aS'celebs tweet info free gifts cash indian firms create fake users boost likes followers companies unfollow'
p648
asS'2013_14'
p649
(lp650
S'haahaa never seen movie'
p651
aS'time travel cracked'
p652
aS'monkey brighton havin beer'
p653
aS'meet shifty hell sell'
p654
aS'sunset brighton sometimes surprises'
p655
aS'erica kicking concord2 brighton'
p656
aS'gannin booze cruze'
p657
aS'like jamjar'
p658
aS'angela likes demis roussos tone likes demis roussos like demis roussos would like hear demis roussos please play demis roussos'
p659
as.