(dp0
S'2013_5'
p1
(lp2
S'years johnny cash hope steve jobs cash hope jobs please dont'
p3
aS'talents speed texting procrastination sarcasm'
p4
aS'awkward moment someone asks whats wrong theyre problem'
p5
aS''
p6
aS'disney channel throwback week'
p7
aS'attitude changes seconds flat sweetheart bitch suggest dont test'
p8
aS'youre loose lady counting'
p9
aS'admit'
p10
aS'cold tears warm heart hide pain dont realize fake smile push'
p11
aS'school full fake bitches'
p12
aS'lmfao laughed hard peter always flying neverlands'
p13
aS'tell dont want talk dont continue text talk school processing'
p14
aS'awkward moment stare text five minutes figure reply'
p15
aS'bitch shit dont like sorrynotsorry'
p16
ag6
asS'2013_4'
p17
(lp18
S'dear iphone typed hahaha like million times continually give hagaha bahaha gagaha'
p19
aS'concert'
p20
ag6
aS'boys monthly period give birth deal female population youre strong think girls'
p21
aS'hakuna matata pgrated version dont give fuck'
p22
aS'cute gtlt'
p23
aS'sorry cant hangout uncles cousins sister laws best friends insurance agents roommates rock'
p24
aS'words letters easy hard prove'
p25
aS'time hated'
p26
aS'amen'
p27
aS'need talk sentence power make remember every thing youve ever done'
p28
ag6
aS'wish depression never existed supposed happy life fucks everyone sowhy anymore'
p29
aS'dying wish daughter would make twerk videoso twerk belt across'
p30
aS'wish cute laugh instead sound like dying seal'
p31
aS'annoying moment cant find long side blanket'
p32
ag6
aS'honey dont call boyfriend like stfu'
p33
aS'aliens'
p34
aS'disappears drop right dropped feet away another'
p35
aS'hate awkward conversations like gtlt'
p36
aS'motivational tweet dont douche'
p37
aS'person getting complicated time unicorn'
p38
aS'momma know'
p39
aS'realize arent important someone thought'
p40
aS'dont know everything mood'
p41
aS'social networking become club twitter dance floor instagram facebook people'
p42
aS'midnight bathroom trip eyes forward avoid mirrors happy thoughts'
p43
aS'amen'
p44
aS'want kill help hole'
p45
aS'worlds smallest dancing kitty carry'
p46
aS'maybe head hard enough desk'
p47
aS'love alarm clock wont together'
p48
aS'dear internet feel special always choosing sleep'
p49
aS'majored procrastinationology'
p50
aS'forever alone fucking years'
p51
aS'hate listening music really loud keep pausing think someones shouting'
p52
aS'omfg someone pleasssseeeeeee text something bored even funny gtlt'
p53
aS'procrastinating olympic sport gold medalist'
p54
aS'every tear eyes precious dont waste something worth'
p55
aS'want learn long board baddddd'
p56
aS'fuking awesome'
p57
aS'done'
p58
aS'youre damn special'
p59
ag6
aS'awwww'
p60
aS'know youre supposed favorites definitely favorite people sorry'
p61
aS'youre special like'
p62
aS'want someone talk becausewell loner text snapchat'
p63
aS'order shitttt'
p64
aS'school tomorrow shit fake people annoying teachers ratchet hoes fake thugs unnecessary drama annoyi'
p65
aS'cant sleep night cant morning'
p66
aS'could like twenty pounds food right'
p67
aS'shave legs'
p68
aS'wanna know free time ohokumm sleep andddd listen music'
p69
aS'knew trouble walked fuck room'
p70
aS'society wonders fakes smile cries sleep wonders happen'
p71
aS'days feel like tomato fruit basket technically belong doesnt feel right'
p72
aS'pinky promise'
p73
aS'simply\xf0\x9f\x91\x8c time'
p74
aS'please dont know love youre calm dont love anyone except family best friends'
p75
aS'brother messed knees disease nerves knees swollen'
p76
aS'hate people pour cereal dont know much want dont know life dont know'
p77
aS'tried normal worst minutes life'
p78
aS'cold houseeee'
p79
aS'salmonella still eating fucking cookie dough'
p80
ag6
aS'blehhh'
p81
aS'going smile like nothing wrong talk like everything perfect like dream pretend'
p82
aS'slowly drifting apart friends worst feeling ever'
p83
aS'youre happy enjoy music youre understand lyrics'
p84
aS'want dairy queenor jeremiahsbleh'
p85
aS'every time homework completes problem checks messages instagram twitter'
p86
aS'dont judge situation youve never'
p87
aS'make happy laugh smile depressed youre'
p88
aS'music makes forget world around'
p89
aS'moment youre like fuck took'
p90
ag6
aS'whatever dont fucking care anymore'
p91
asS'2013_7'
p92
(lp93
S'golden corral step moms birthday'
p94
aS'thank much making feel like worthless bitch'
p95
asS'2013_41'
p96
(lp97
S'wearing mine tomorrow caps idgaf'
p98
asS'2013_1'
p99
(lp100
S'made cake frosting scratch proud'
p101
aS'teacher youre learn student'
p102
asS'2013_3'
p103
(lp104
S'uhtheres wifi wont connect'
p105
ag6
aS'thank'
p106
aS'used depressed'
p107
aS'reply word texts must really really really really really really really really really'
p108
aS'gonna okay yeah happening fucktard'
p109
ag6
aS'ohok fuck'
p110
aS'jehovahs witnesss dont celebrate halloween guess dont appreciate random strangers coming'
p111
aS'true hahaha'
p112
aS'conceded love compliments thats moment feel important'
p113
aS'pizza people\xe2\x80\x9d right'
p114
aS'take leave never perfect worth'
p115
aS'feels good made someone smile'
p116
aS'know tired alarm doesnt wake right away instead blends dream'
p117
aS'awkward moment feel like youll great test fail'
p118
aS'used care realized giving fuck 100x better'
p119
aS'moody like squidward sometimes selfish like crabs dumb like patrick like'
p120
aS'awkward moment dont know armrest movie theater'
p121
aS'dont care anymore tell dont like felling like something make feel'
p122
aS'dont mention tweet wasnt shoe fits lace bitch wear'
p123
aS'text chance need talk'
p124
aS'doesnt matter beautiful personality sucks youre ugly'
p125
aS'first person poisonous berry allergic missing delicious berry'
p126
aS'anyone else wake middle night thirsty hell water tastes like came gods personal pond'
p127
aS'awwww'
p128
aS'tell care much everyone else prove dont believe'
p129
aS'keep shit reality nobody really gives fuck'
p130
aS'hate good mood suddenly something happens ruins everything'
p131
aS'depressed reason fuck brain'
p132
aS'sucks come'
p133
aS'people hates strong word love throw around like nothing'
p134
aS'bitch back moms uterus please'
p135
ag6
aS'things'
p136
aS'uggghhh confusing'
p137
aS'confusedddd'
p138
aS'want sleep don\xe2\x80\x99t want sleep'
p139
asS'2013_2'
p140
(lp141
S'karma doesnt gladly'
p142
aS'hard realize damn much hurts'
p143
aS'really really really really wanted broncos damn'
p144
aS'amen meek mill perfection'
p145
aS'dont hate never mind hate'
p146
aS'million commercials starving kids cant feed'
p147
aS'twitter last year obsessed'
p148
aS'everything happens reason punch face bitch remember reason'
p149
asS'2013_13'
p150
(lp151
S'youre pain dont fight youll exhausted remember shakespeare said feel pain'
p152
aS'couldnt wait grow grown wish'
p153
aS'female referee throws flag player whatd well dont know telling'
p154
aS'crying alone room wiping tears face faking smile like nothing happened ltlt'
p155
aS'yeah made feel special faded away replaced favor leave'
p156
asS'2013_24'
p157
(lp158
S'sorry friend dont bullshit anymore thats good right'
p159
aS'sleep less tired sleep tired life impossible'
p160
aS'holy cramps'
p161
asS'2013_10'
p162
(lp163
S'twitter'
p164
asS'2013_26'
p165
(lp166
S'bitch deserve'
p167
asS'2013_12'
p168
(lp169
S'dont hate hate'
p170
aS'dont able forget changeda'
p171
aS'fast'
p172
aS'bitch always make world revolve around'
p173
aS'fuckin problems rocky gtgtgt'
p174
asS'2013_25'
p175
(lp176
S'singlesinglesinglesingle'
p177
asS'2013_6'
p178
(lp179
S'moms always nosey know shes would like privacy'
p180
aS'sorry didnt realize expert life live please continue take'
p181
aS'text saying beautiful trust itll make whole'
p182
aS'awkward youre randomly looking around person happens look right eyes'
p183
aS'need'
p184
aS'dont remember ever agreeing school thing probably terms conditions'
p185
aS'first stupidest random shit comfortable someone'
p186
aS'headphones listening music think funny personally escort'
p187
aS'nice someone dislike doesnt mean youre fake means youre mature enough tolerate'
p188
aS'stop posting pictures boobs pouring shorts shouldnt look like underwear disgusting'
p189
aS'hahaha'
p190
aS'gtlt walked stay room start romantic'
p191
aS'wish could live inside dreams'
p192
aS'lmao'
p193
aS'know scream bloody marry times mirror tell shut'
p194
aS'watch mean girls backwards girl unpopular moved africa'
p195
aS'don\xe2\x80\x99t like morning people mornings people'
p196
aS'find extremely awkward hear boyfriend making outi dont even know whyits justew weirddd'
p197
aS'someone sits watches order scary movies omfg'
p198
aS'can\xe2\x80\x99t blankets accepted leave might lose trust'
p199
aS'bitch dont interrupt watching order'
p200
ag6
aS'dont full depressed'
p201
asS'2013_17'
p202
(lp203
S'miss close girl'
p204
asS'2013_23'
p205
(lp206
S'wanna jealous'
p207
asS'2013_27'
p208
(lp209
S'problems would solved stopped overthinking everything calmed fuck stopped'
p210
aS'think bitch soon know realize first impressions right bitch'
p211
asS'2013_14'
p212
(lp213
S'awkward moment three times still idea person said agree'
p214
aS'ooooooohhhhhhhhh lives spongebob'
p215
aS'take shop ahead dont keep going spot woah'
p216
aS'ever eyes hard start entering galaxy swirls patterns\xf0\x9f\x91\x80\xf0\x9f\x92\xab\xf0\x9f\x8c\x9f\xf0\x9f\x8c\x8c'
p217
aS'fucken swear hate feelings'
p218
aS'diet'
p219
aS'monday shoe would crocs'
p220
aS'want call weird crazy diagnosed depression didnt choose thanks bitch'
p221
aS'would like tampon midol text moody bitch'
p222
aS'shouldnt stay still like gtlt haha'
p223
as.