(dp0
S'2013_42'
p1
(lp2
S'malalahaters resent even hate independent women dawn column'
p3
aS'abbas nasir brilliant piece malaise afflicting pakistanis narrative discarded'
p4
asS'2013_40'
p5
(lp6
S'circular debt crossed billion within months clearing 500bn load shedding willl worse'
p7
asS'2013_46'
p8
(lp9
S'insaan bedar leney doharr qaum pukarey hamarey hain hussain'
p10
aS'imam hussain represents truth peace sacrifice tolerance whereas yazid represents terrorism oppression evil'
p11
aS'muslims capable committing heinous crimes slaughtered prophets grandson family paraded female\xe2\x80\xa6'
p12
asS'2013_44'
p13
(lp14
S'people pakistan want ttps mass killers families dont hold american passports like'
p15
asS'2013_45'
p16
(lp17
S'ehsasekarbala tujhay jaye tanha kisi aziz mayyat utha dekh yahussain'
p18
asS'2012_46'
p19
(lp20
S'muharram moon sighted adopt hussainayat fight defeat yazeedi tyranny'
p21
asS'2012_41'
p22
(lp23
S'column thoughts inspirational malala'
p24
asS'2012_40'
p25
(lp26
S'peace march huge success warm welcome people area huge participation plus global awareness creat'
p27
aS'went past namal university amazing acgievement quality institution remote area'
p28
aS'crowds enthusiastic people greeting along heart warming response'
p29
aS'huge reception balkasar'
p30
aS'want financiallyfree need become different person today whatever'
p31
aS'congratulations team pakistan fighting victory given good chance qualify semis'
p32
aS'partisan indiasouth africa matchwe willl simply good sportmans spirit best afric'
p33
asS'2012_42'
p34
(lp35
S'passion powerful force passion properly directed unstoppable'
p36
asS'2012_34'
p37
(lp38
S'special thanks critiqued hope learn make improvements follow'
p39
aS'mashallah bohat mubarak'
p40
aS'saddens lost essence spirit great religion islam sense justice'
p41
aS'killing innocent spirit islam loss essence faith visible brut'
p42
aS'year spends destruction entire planet spends healthcare googl'
p43
aS'unable unwell childs illegal imprisonment request take suomotto notice'
p44
asS'2012_26'
p45
(lp46
S'thoughts inspiring makes think start business'
p47
asS'2013_3'
p48
(lp49
S'breaking news nawaz sharif zaire sadarat pmln aala satah ijlaas lunch main nehari khane ittefaq kiya gaya'
p50
asS'2013_2'
p51
(lp52
S'level patience mother sits bodies young sons others could saved similar fate'
p53
aS'another view karachi protest happening karachi right'
p54
aS'want help families shiagenocide contribute shaheed foundation please'
p55
asS'2013_9'
p56
(lp57
S'youngest victim abbastownblast fewmonths haider long live talibanistan pakistan shia'
p58
aS'community pakistan suffered massively shias cream eliminated doctorsprofessionalsintellectu'
p59
aS'least support shaheed foundation donations done excellent work welfare'
p60
aS'terrorists detained month onlyamp bomb blasts continue need hanged actionagain'
p61
aS'khakis lurking shadows blood hands letting'
p62
aS'wake pakistan engulfed flames nothing left'
p63
aS'whattay journey raja rental raja candle'
p64
asS'2013_8'
p65
(lp66
S'received money several persian gulf countries including saudi arabia united arab emirates'
p67
aS'lashkarejhangvi part ussaudi terror network'
p68
aS'bravo waseem badami guts name malik ishaq lashkarejhangvi responsible shiagenocide'
p69
aS'dead women childrenwhy coverage hazaratown sitin'
p70
asS'2013_10'
p71
(lp72
S'also strongly voiced condemnation targeting shias gave commitment would sectarian'
p73
aS'condemned attack christian community reminded alameen rabul musalmeen'
p74
aS'good message condemning attack christians allah subka heyrabbul alameen sirf rabbul'
p75
aS'toot jatey hain ghar bananey main taras nahin khatey bastiean jalaney main'
p76
aS'islam jaanay darr itna kisi kaafir musalman nahin honay detay faiz saturdaysher'
p77
aS'malik ishaq members house fire murtaza haider killed lahore series'
p78
aS'lahori never safeheavens fire1000kg explosives bought lahore kill quetta'
p79
asS'2013_12'
p80
(lp81
S'massive beyond description truly amazing overwhelming tsunami taken'
p82
aS'sense anticipationexcitement going 1992 world back 2day intensity move change'
p83
aS'wishing pakistanis happy republic dayhope mark beginning peaceful prosperous'
p84
asS'2013_15'
p85
(lp86
S''
p87
asS'2013_32'
p88
(lp89
S'kpks charge armys disinterest stopping jailbreak damning army high command explain positi\xe2\x80\xa6'
p90
asS'2013_30'
p91
(lp92
S'normal country people died bombings prime minister telling people'
p93
asS'2013_19'
p94
(lp95
S'incredible privilege work amazing quest build country nation dreams'
p96
asS'2012_35'
p97
(lp98
S'rabbe kaaba qasm hadd guzar jati jabsholae mashriq khak jati shaballama iqbal'
p99
asS'2012_36'
p100
(lp101
S'still keeping hope alive ajmal turn things around exciting match'
p102
aS'congratulations team pakistan well played australia electrifying match indeed glad able boys'
p103
aS'pakistani health success children missed finally polio measles penta vaccines endpolio'
p104
aS'visited astore families slain shias visited mosque prayed terrorism victims alongside'
p105
asS'2012_37'
p106
(lp107
S'said rs5b firm concept health safety responsibility care poor workers corpo'
p108
asS'2012_33'
p109
(lp110
S'pakistan zindabaad'
p111
asS'2012_38'
p112
(lp113
S'friends wrote today pakistan mess destroy teach lesson'
p114
aS'saba phir zindaan akey dastak sehr qareeb kahoo ghabraiey faiz ahmed faiz'
p115
aS'salman butt flight todaytook power restrain asking felt'
p116
asS'2012_39'
p117
(lp118
g87
as.