(dp0
S'2014_29'
p1
(lp2
S'recent stats followers unfollowers statistics'
p3
aS'video floyd mayweather planning prepare fighter maidana'
p4
aS'sergey kovalev pressure defend title'
p5
aS'carlos molina says true champion already beat lara'
p6
aS'sergio martinez decides continue boxing career'
p7
aS'didnt train would become flabulous indeed'
p8
aS'today fast paced looking forward shower food couch believe couch potato'
p9
aS'recent stats followers unfollowers statistics'
p10
aS'thank'
p11
aS'thank'
p12
aS'thank crespo'
p13
aS'could caught robbers opinion couldnt wonder away well'
p14
aS'thank'
p15
aS'thank reece'
p16
aS'witnessed restaurant robbed today police came woodwork robbers believe escaped woodsoh well'
p17
aS'today woman picking noses professor griff says unsanitary tissue picking winner'
p18
aS'time back training'
p19
aS'back teacher would show enough punching'
p20
aS'training classical gung fuwing chini extra work doors dreadful heatmartial arts lifes work'
p21
aS'thank good weekend'
p22
aS'thank'
p23
aS'thanks shout good weekend'
p24
aS'thanks shout good weekend'
p25
aS'thanks shout good weekend'
p26
aS'thanks shout good weekend'
p27
aS'thanks shout good weekend'
p28
aS'thanks shout good weekend'
p29
aS'thanks shout good weekend'
p30
aS'thankful count blessings matter matter small thankful read message could worse'
p31
aS'thank brotherhave good weekend'
p32
aS'yesterday vultures atop polls1 left right significance ready times'
p33
aS'like know kind interference encountercircumvention become life'
p34
aS'freearturo aims depressed polar bear argentine'
p35
aS'ufcs holly holm rushing fight ronda rousey'
p36
aS'passenger posted joke plane disappearing boarded'
p37
aS'ukraine rebels plane recorders'
p38
aS'recent stats followers unfollowers statistics'
p39
aS'love grandson much'
p40
aS'marcosindiomaidana intends fighting dirtyso thee recourse fight dirtier roberto duran 135lb belt groin shot'
p41
aS'robert griffin says players dont like playing thursday games'
p42
aS'blues legend johnny winter dies zurich'
p43
aS'student debt companies charging vulnerable borrowers services free'
p44
aS'gunmen attack airport afghan capital'
p45
aS'malaysia airlines plane carrying people shot missile strike near ukrainerussia borde'
p46
aS'dead bank robbery shootout stockton police'
p47
aS'israel invades gaza hamas rejects truce'
p48
aS'hate crime investigation grows mississippi'
p49
aS'good although lifes problem persists adversity builds character'
p50
aS'senate blocks bill contraception coverage'
p51
aS'died years today'
p52
aS'secs next star drawing comparisons adrian peterson michael jordan'
p53
aS'weird friends drinking coffee summer'
p54
aS'breaking ball pitch baseball glory live yahoo screen'
p55
aS'boehners right wrong moment'
p56
aS'recent stats followers unfollowers statistics'
p57
aS'mayweather says preparing fighter boxer'
p58
aS'photos capture stunning lightning strike spiral'
p59
aS'today went thee underground fight promoter threatened goons guns wristbands goof ball'
p60
aS'celebrity gossip entertainment news insider'
p61
aS'obama race eric holders words stirred anger'
p62
aS'israel warns 100000 gazans flee strikes intensify'
p63
aS'recent stats followers unfollowers statistics'
p64
aS'best revenge success'
p65
aS'today ended like startedshook rust gymwork koolhomework even bettertomorrow promised days'
p66
aS'dave matthews band'
p67
aS'love doesnt take holiday send waycause tomorrows'
p68
aS'floyd mayweather marcos maidana press conference mayhem'
p69
aS'ways deal oily face'
p70
aS'world smashes facebook twitter records'
p71
aS'things life insurance agents won\xe2\x80\x99t'
p72
aS'americas stressed cities'
p73
aS'chrissy teigen reveals fired forever'
p74
aS'tracy morgan returns home feeling strong accident'
p75
aS'killed suicide blast east afghanistan'
p76
aS'russian beachgoers surprised deadly sudden hailstorm'
p77
aS'hamas rejects egypt truce offer fires rockets'
p78
aS'recent stats followers unfollowers statistics'
p79
aS'people think want marcosindiomaidana dirty fighterkicking headbuttshitting behind head dirtydirty dirty'
p80
aS'lebron james homecoming good cavaliers cleveland'
p81
aS'israel shoots hamas first combat drone missile'
p82
aS'ukrainian forces advance putin plays double game'
p83
aS'lebron james homecoming good cavaliers cleveland'
p84
aS'north korea missiles rockets message time'
p85
aS'david bowie classics covered'
p86
aS'rash ipad devices might cause'
p87
aS'samsung\xe2\x80\x99s galaxy tablet great hardware marred much software'
p88
aS'apes misbehavin zoologist explains would happen bigscreen animals attacked'
p89
aS'church england votes favor women bishops'
p90
aS'bowe bergdahl returns regular army duty'
p91
aS'fisherman describes reeling 482pound halibut'
p92
aS'perrypaul launch foreign policy words'
p93
aS'iran jails eight youths facebook posts'
p94
aS'brooklyn eighthgraders sony record deal'
p95
aS'facebook friends city pays officer'
p96
aS'giant african snails seized angeles airport'
p97
aS'don\xe2\x80\x99t forget peel'
p98
aS'around pseudo serious folks'
p99
aS'raining lightning folks struck quite often house live struck last year'
p100
aS'matter fact stabbed walmarts parking totally obliterated muggermy witnessed incident'
p101
aS'walmart security notch parking every woman'
p102
aS'walmart cool home tiredsomething spoiled back exchange'
p103
aS'weathers gone crazylightening strikes hitting ground split even though inside isnt better'
p104
aS'shit outta walmart times take stuff back spoiled brokenget well brother'
p105
aS'tell indioboxing time'
p106
aS'bernard hopkins eyes adonis stevenson sergey kovalev'
p107
aS'video andre berto looks like gonna back september'
p108
aS'ufcs rashad evans talks switch wrestling'
p109
aS'report cavaliers talking allen mike miller'
p110
aS'lamar odom unable meet phil jackson\xe2\x80\x99s standards waived knicks'
p111
aS'eric holder stands controversial \xe2\x80\x98nation cowards\xe2\x80\x99 speech'
p112
aS'report kevin garnetts decision contingent paul pierce'
p113
aS'neverbeforeseen wwii document offers inside account elite nazi combat units collapse'
p114
aS'phil jackson tweets emotions free agent gasol chooses chicago bulls'
p115
aS'snapped epic celebrity selfie'
p116
aS'spice girls reunion'
p117
aS'katie couric world minutes'
p118
aS'germany keep world'
p119
aS'police seek took selfie running bulls'
p120
aS'israel says shoots gaza drone calls truce mount'
p121
aS'argentine world celebration marred violence'
p122
aS'captain phillips strikes back horn africa pirates byebye'
p123
aS'recent stats followers unfollowers statistics'
p124
asS'2014_28'
p125
(lp126
S'canelo lara boring fightsays mayweather'
p127
aS'canelo alvarezs split decision prompts cries investigation erislandy laras camp'
p128
aS'teen hurt doubledecker starline died coroner confirms'
p129
aS'deserves endless retweets'
p130
aS'welcome brother'
p131
aS'gasol leaving lakers bulls'
p132
aS'russia threatens ukraine shell crosses border'
p133
aS'warns widespread conflict libya'
p134
aS'five shoes skip summer feet thank yahoo shine'
p135
aS'palestinians flee north gaza israel warning'
p136
aS'watch phones highest radiation'
p137
aS'kell brook says porter underestimating hasnt'
p138
aS'video canelo says power made lara pressured'
p139
aS'video mayweather talks says stop maidanas tactics'
p140
aS'video erislandy lara \xe2\x80\x9coscar canelo know robbed\xe2\x80\x9d'
p141
aS'ronda rousey cyborg justino closer ever'
p142
aS'dana white sign gina carano next week'
p143
aS'canelo alvarezs split decision prompts cries investigation erislandy laras camp'
p144
aS'canelo alvarez beats erislandy lara split decision'
p145
aS'recent stats followers unfollowers statistics'
p146
aS'lebron wants teammates maximum effort stand around watch'
p147
aS'good morning everyone work deal hope nice weekendfor everyday good matter'
p148
aS'recent stats followers unfollowers statistics'
p149
aS'ronda rousey cyborg justino closer ever'
p150
aS'brothers leonard gerard dennis circa somethingwe took picture york subway'
p151
aS'good home worki complaints'
p152
aS'whilst woods frolicking waspsbeesyellow jacketsthey stung smartim hurting little'
p153
aS'rusev didnt crush'
p154
aS'well'
p155
aS'whats name last song'
p156
aS''
p157
aS'torn wweon right'
p158
aS'ronda rousey another contender world champion boxer holly holm signs'
p159
aS'recent stats followers unfollowers statistics'
p160
aS'show heart'
p161
aS'earth wind fire thinking'
p162
aS'fall love'
p163
aS'earth wind fire fall love'
p164
aS'baby'
p165
aS'earth wind fire live concert brasil 1980 part'
p166
aS'family sisters brothers even mothers'
p167
aS'today strangebut smootheverything straight dealt'
p168
aS'cant'
p169
aS'tension dissipates'
p170
aS'time'
p171
ag157
aS'learned ballet childcontrol muscle flowspeedshock power'
p172
aS'ampjohn beautiful guitar playersharmoniesverdine rhythm king ralph johnsonandrew woolfolkjames whitethe phenix horns'
p173
aS'larry dunn pianosynthesizerhammond b3any board instrument'
p174
aS'earth wind fire cant live 1980 brazil hornsthe group moreese'
p175
aS'lightning almost roof last year lightning hole roofthe next snake'
p176
aS'rain rain rain'
p177
aS'undefeated star frankie gomez face hardhitting vernon paris'
p178
aS'dierry jean crawford would good fight'
p179
aS'mayweather maidana mayhem officially done deal september'
p180
aS'virgil hunter breaks canelo lara going good fight'
p181
aS'doctor documentation said surgery never surgery also asked want'
p182
aS'pardon saying doctor asshe specialist special kind'
p183
aS'went skeletal specialist today find didnt receive mris thee accompanying diagnosis hours wasted'
p184
aS'life'
p185
aS'froch going feast young guys watch froch looks easy thee outside'
p186
aS'lara good ring generalship canelos footwork works lesser opponents problem'
p187
aS'tough fight pick'
p188
aS'indiomaidana fights dirtyheadbutts elbows shouldersetcthis time give dish food'
p189
aS'cant wait fight showtime porterthee experts evenly matched'
p190
aS'super early impromptu workoutshake condensed maximum version advanced practitioners'
p191
aS'watch phones highest radiation'
p192
aS'argentina defeats netherlands penalty shootout advance world final'
p193
aS'tangles physicist claims solved headphone knot problem'
p194
aS'alcohols effects brain body business insider yahoo screen'
p195
aS'improper payments federal government 100b'
p196
aS'bestpaying jobs work home'
p197
aS'brazil germany 2014 world semifinal'
p198
aS'alleged gunmans daughter stopped killings'
p199
aS'north korea complains film starring rogen franco'
p200
aS'recent stats followers unfollowers statistics'
p201
aS'want thank bless'
p202
aS'love twitter family love people brother passed away 7yrs didnt talk boxing army'
p203
aS'lara talking belief system isyou never encourage opponent getting gives edge'
p204
aS'welcome nice'
p205
aS'happy birthday ralph johnson 55ive come realize dont older better many blessings'
p206
aS'thank mention'
p207
aS'thank mention'
p208
aS'thank mention'
p209
aS'quality fighters fighting recognition thee lara good feetcanelo power'
p210
aS'chris algieri offered manny pacquiao showdown november china'
p211
aS'canelo alvarez erislandy lara insulted methis fight'
p212
ag157
aS'attorney magomed abdusalamov \xe2\x80\x98definitely improving\xe2\x80\x99'
p213
aS'brandon rios knows tough diego chaves'
p214
aS'sergey kovalev would ring bernard hopkins right'
p215
aS'devastating loss might benefit boxer abner mares'
p216
aS'longo vitor belfort dont'
p217
aS'video zingano wins flying'
p218
aS'dominick cruz returns faces takeya mizugaki'
p219
aS'iraq says terrorists seize chemical weapons site'
p220
aS'video david letterman walks joan rivers interview'
p221
aS'heres hamas might getting latest escalation gaza'
p222
aS'coach says ronda rousey knocks cyborg justino'
p223
aS'jose aldochad mendes title fight rescheduled'
p224
aS'fitness blogger takes standards task healthy living yahoo shine'
p225
aS'putin outmaneuvered resupplying iraqi military'
p226
aS'recent stats followers unfollowers statistics'
p227
aS'youre haterwill catch later youre loveryoure sister brother word'
p228
aS'republicans made sure happy hour went everyday without hitch government shut'
p229
aS'never angry purposeful raping robbingstealing killing list goes republicans shut government'
p230
aS'truthfully ephesians commanded godpick truck punkyou better pray convicts spirit'
p231
aS'pick truck punk called ugly nigger independence daythe julyusarmy veterans dont swallow shit'
p232
aS'waited till going miles hour yards away countingyoure real mana real tough'
p233
aS'punk pick truck calling niggerim cause said uglybe face face'
p234
aS'punk pick truck called ugly niggerbe advisedwhen assyou apologizeyou home'
p235
aS'wayid toting ladysampgentlemen front line nearest warthen stand ground'
p236
aS'militantnor racisti professor liferaise minimum wagefolks wont need foodstamps'
p237
aS'former vice president dick cheney talks badly president obamaricharddickcheneyyou made billion iraqi warwhats'
p238
aS'youre going hate micheal jacksonthen hate elvis presley wellhe without cast stone'
p239
aS'music insane clown posse loses gang lawsuit'
p240
aS'buck ambassador jookin madonnas favorite dancer'
p241
aS'chef freedom riders queen creole cuisine civil rights movement'
p242
aS'bronson arroyo tried elbow injury tommy john surgery'
p243
aS'former bucks owner herb kohl still sending employees checks worth thousands dollars'
p244
aS'happened drove mercedes pick food stamps'
p245
aS'mans ravaging lyme disease eludes doctors year'
p246
aS'instead shooting children defend country'
p247
aS'know terrorists ready attack know division ununited states'
p248
aS'give homeless people money time guys short arms deep pockets take good look mirror'
p249
aS'people street take home human walk right pass themgo figure'
p250
aS'forgive wont forget'
p251
aS'country honorable discharge usarmyi standwhos country country'
p252
aS'time kkki went right face face witness'
p253
aS'father told chased friend river caught friend tarred feathered himthen hung'
p254
aS'gopfilibuster shenanigans close government john buddys didnt close happy hour'
p255
aS'ahead america sweep rest incidentsby want greatgrandfathers acres mule'
p256
aS'shoots child says ptsdi ptsd army shooting children excuse'
p257
aS'gentleman attacked every intention killing stood ground bruce well'
p258
aS'rules learn class rooms dont apply streets kingdom knuckleversethe rules arethere rules'
p259
aS'racist idiots jumped lady friend park whippin gentleman received probation'
p260
aS'idiots shot boysim buying imminent threat stand ground premeditated murder'
p261
aS'business running confrontation shooting people always ready chinese boxing'
p262
aS'kill bees wasps yellow jackets distress phermones family comes'
p263
aS'thanks shout'
p264
aS'stung wasp like contact sportthe wasp stop stingso catch shoot wont sting'
p265
aS'think look like tupac wanna play role upcoming movie'
p266
aS'thank mention'
p267
aS'underground fighting dirty world complete steroids holds barred daughter would corner'
p268
aS'would speed lateral movement switch hitting worked effectively always fought injured still'
p269
aS'many ramifications beat house fighters people dont like lose money'
p270
aS'wasnt house fighter promoters would lose money would beat guysthey wanted contract refused'
p271
aS'actively fighting opponents always bigger taller'
p272
aS'dangers underground fighting opponent behemoth weighing 300lbsthe promoters make money'
p273
aS'really enjoy teaching training folksprize fighting desire longer although retired undefeated'
p274
aS'contacted underground fight contest month offered substantial speaking master said'
p275
aS'told multi tasking mess brains cognitive behaviors unfortunately multi tasking naturally built ways'
p276
aS'biorhythm temporarily syncl believe reason tendency think situations'
p277
aS'thank brother good week'
p278
aS'riders evacuated stalled california coaster'
p279
aS'bahrain ejects diplomat shiites'
p280
aS'novelty twitter accounts make'
p281
aS'competition left ronda rousey'
p282
aS'police officer killed family raped wife'
p283
aS'americans america'
p284
aS'dead powerful typhoon hits japans okinawa'
p285
aS'german leader reports serious true'
p286
aS'florida teenager center escalating israelipalestinian conflict'
p287
aS'israel launches military offensive gaza'
p288
aS'meet venus majestic twotonedfaced'
p289
aS'world lionel messis'
p290
aS'loss states raised minimum wage'
p291
aS'watch robotic hand feel\xe2\x80\x99 assess grip'
p292
aS'condiments'
p293
aS'paul walkers daughter meadow shares beaming beach'
p294
aS'recent stats followers unfollowers statistics'
p295
aS'deal rigorous training shown take holistic bathsthen showers really work'
p296
aS'would would lightweight champion world'
p297
aS'love life'
p298
aS'laughing hard tell women blasted mouth student'
p299
aS'store lady said meyou poor babyyou need find someone elsethat women shouldnt punching mouthi laughed'
p300
aS'already pretty healthy soup coolerslipswhen ever anyone inquired busted lipsi would lady friend'
p301
aS'mitts girlsampshe missed mitt right cross proceeded bust lipssplitting lips'
p302
aS'know advent admirer stalkerso rest easei appreciate craftampprofessionalism'
p303
aS'ladyswhen talking shortcomingsi laugh hard cryampalmost sick'
p304
aS'ladys train exceptionalthey never complainthey work hardampthey resultsthey love love themwere martial family'
p305
aS'honestly worked hard blazing minute brakes every hourwe worked straight hours today'
p306
aS'finished today mile almost speed runnow crime takes holidayso shall'
p307
aS'terence crawford\xe2\x80\x99s highrisk highreward move pays title'
p308
aS'highrisk highreward move pays title trboxin\xe2\x80\xa6'
p309
aS'catch instudio guest weeks edition friday night fights live espn2'
p310
aS'thank goodness thrive energy'
p311
aS'lords prayer strength matter fact communion everyday'
p312
aS'dont morningsit ruins'
p313
aS'todays days thinking workout pain middle pain either stop practicing crime stops'
p314
aS'winners race'
p315
aS'choices problems heaven fight another hellwhats gonna babe'
p316
aS'healing starts throw rock thee pick truck called'
p317
aS'racist grandfathers americalets heal wound together know'
p318
aS'says brothers sisters suneveryone except cultural differences'
p319
aS'truly united states example world terrorists division'
p320
aS'thee pick truck called ugly nigger distance forgive heal wound'
p321
aS'fight like better thanbelieve limitgods limitless universe awaits'
p322
aS'started martial artswing chun 1967but officially 1968so brother lover form hand hand combat'
p323
aS'fighter love losesemotionally lose respect fight blow life'
p324
aS'personally appreciate done foundation martial arts kudos penn'
p325
aS'many years ahead canelo alvarez could possibly become richest boxers ever'
p326
aS'here\xe2\x80\x99s real reason russia iraq'
p327
aS'competition left ronda rousey'
p328
aS'vietnam robbed crescentville home invasion'
p329
aS'california swimmer describes fighting great white shark'
p330
aS'newspaper runs headline referring president obama nigger'
p331
aS'ronda rousey spot fight'
p332
aS'clinton says russias putin dangerous'
p333
aS'pope hold first meeting sexual abuse victims'
p334
aS'novak djokovic beats roger federer epic fiveset wimbledon final'
p335
aS'learn something every hard days night beatles classic turns'
p336
aS'arthur hits eastern canada causes power outages'
p337
aS'2014 allstar rosters announced'
p338
aS'four hospitalized first pamplona bull'
p339
aS'billy cyrus calls slain nevada teacher hero news'
p340
aS'needs right immigrant children official'
p341
aS'shevardnaze former georgian president dies'
p342
aS'super typhoon takes japan'
p343
aS'replay review overturns ramon santiagos insidethepark home'
p344
aS'penn suffers inglorious brilliant career brutal defeat frankie edgar'
p345
aS'hamas vows revenge members killed'
p346
aS'israels netanyahu phones father murdered palestinian teen'
p347
aS'news vietnam military helicopter crash kills'
p348
aS'recent stats followers unfollowers statistics'
p349
aS'differentiation 5000 punchesamp2500 kicks legs naturally stronger feet time'
p350
aS'tomorrow class throw 5000 punches synchronicitytuesday 2500 kickswednesdaythrowsflipsampsweepsthursday hours cardio'
p351
aS'austin trout predicts lara beat canelo says footwork defense'
p352
aS'totally agree flip side rolling stone gathers mossproverbs chinese dead correct'
p353
aS'grows tired standing still chinese proverbs'
p354
aS'terence crawford says gamboa performance proves boring'
p355
aS'gaethje fitch bollingerguillard victorious world series fighting'
p356
aS'well heck'
p357
aS'also arms extremely longyou could call knuckle dragger hands almost touch ground standing'
p358
aS'goofuss tallanother words would best interest goofuss verbally'
p359
aS'folks pointingstaringampwondering goofuss high drunkampone lady said nohes drunk highshe said naturally'
p360
aS'earlier today whilst store light shopping goofusshe walkedamptalkedamphis body language screamed goofuss'
p361
asS'2014_38'
p362
(lp363
S'disabled veteran great attitude'
p364
aS'frank waln lakota nation peoplesclimate march indigenousrising indigenousrights'
p365
aS'train healthamplongevity fountain youthive fountain upon timei love decadesthe wisdom'
p366
aS'tested physicalitydid push pull upsran milesbendingampsquattingamptwisting theres problem thereotherwise life good'
p367
aS'conor mcgregor dustin poirier doesnt impress'
p368
aS'vikings players bodyslammed drew brees wasnt happy'
p369
aS'isley brothers harvest world'
p370
aS'heatwave always forever original version'
p371
aS'earth wind fire'
p372
aS'earth wind fire wanna'
p373
aS'earth wind fire fall love 1982\xe2\x80\xa6'
p374
aS'earth wind fire loves holiday thee word'
p375
aS'earth wind fire sunday morning'
p376
aS'good morning everyonehave safeampjoyous still hurt happy ampcontent loves'
p377
aS'garbage scarecam'
p378
aS'states rudest drivers states hate'
p379
aS'earth wind fire anything want'
p380
aS'earth wind fire daydreamin'
p381
aS'countdown ufc178 johnson cariaso sunday sept 96pm etpt'
p382
aS'kool gang chocolate buttermilk live'
p383
aS'ever lose faith live york'
p384
aS'sting love somebody free'
p385
aS'phil collins another paradise'
p386
aS'nothing beats failure least best'
p387
aS'thats right'
p388
aS'raining acting upim painbut contentactually peachyi know could always worse'
p389
aS'telling story friends trying make interesting'
p390
aS'tyler bryan shaun parker classic double'
p391
aS'although must admit cafeteria food smelled good always brought ownbut drink coffee'
p392
aS'sounds crazy sometimes little crazy'
p393
aS'glad next chapter entitledthe'
p394
aS'elocution turned friday morning thee apollo made ridiculous comments hard worked well'
p395
aS'food thought graduated school today proffessor stand esteemed colleagues give eulogy'
p396
aS'training dieti maintained usarmy weight 175lbs 1980 2014i recently bulked proportionately'
p397
aS'mineexcuse dine'
p398
aS'round'
p399
aS'smile wasnt'
p400
aS'plagiarized womans fragrance commercial anjulee'
p401
aS'bring home steak pannever never forget woooman'
p402
aS'love cookfishchicken etcwhat ever never never'
p403
aS'ladys said great make sure late'
p404
aS'batch always match'
p405
aS'life cant trick pony'
p406
aS'white rice nice'
p407
aS'black peas made please'
p408
aS'batch done ladys converged smiles plentiful chuck steaks'
p409
aS'ronda rousey think cyborg strong people dont realize strong actually'
p410
aS'cris cyborg fires back uneducated ronda rousey tells rowdy grow'
p411
aS'sportsnation poll'
p412
aS'mayweather could punished antics told explain nsac boxin'
p413
aS'changes team mayweather'
p414
aS'gabriel rosadojames kirkland bernard hopkinssergey kovalev card'
p415
aS'floyd mayweather comes aroundill totally team'
p416
aS'goodell much wrong starts'
p417
aS'seeing gimp statusits time cook steakschef'
p418
aS'always incredible things'
p419
aS'poor little fellahe cried heart'
p420
aS'today little flying back bushis mother grandmother watching could killed'
p421
aS'unfortunately still wounded hipabdominal lower back gung spirits uppraise thee almighty'
p422
aS'earth wind fire cant live 1980 best band land'
p423
aS'andre berto blasts victor ortiz mayweather would destroy'
p424
aS'grandmother lived to106im going make marki problem creamampcake'
p425
aS'taper workouts whatyou live earth'
p426
aS'doctor explained repetitive motion injuriesthis aware studying human anatomy'
p427
aS'young work outkeep keepin onwatch dietdrink plenty waterthe premise move bodydont stagnant'
p428
aS'facts high blood pressure cholesterol goodhdlldldiabetes nothe martial arts kept healthy'
p429
aS'doctor said abdominalhip flexorlower back strainhe said insane many repshe shot medosed mescripted good'
p430
aS'problem solved temporary solution long term problem could getting oldoh well enjoy time'
p431
aS'punished taking life child'
p432
aS'peacethe holy spirit'
p433
aS'thee edification'
p434
aS'priest told ephesians said bring souls christ'
p435
aS'throughout trialsamptribulations well thats surly believed'
p436
aS'brother gerard taught never take thee answertruthfully didnt even upset meantime time groovy'
p437
aS'doctor wouldnt help dont records thats kool cause going civilian hospital'
p438
aS'thanks twitter followers pushing 2000 mark live central check good'
p439
aS'lord thessalonians please retweet'
p440
aS'andre berto blasts victor ortiz mayweather would destroy'
p441
aS'news morning said orlando florida dangerous citythis know many encounters stay alertstay alive'
p442
aS'crescent'
p443
aS'back 70samp80s would continue train broken handsampbroken feeti even sparred show must'
p444
aS'popped back getting hurt jazz birds already paid classes absences'
p445
aS'2015 year haters already shape november fight hardwork worldchampion'
p446
aS'hard work hours onefocusonemind'
p447
aS'party house support first step back welterweight elite'
p448
aS'class tonight back side type classi hope teacher boring'
p449
aS'need take todayamptomorrow offim sore overi usually thisthen train anywaybut listen body'
p450
aS'video alex ariza talks floyd mayweather experience different'
p451
aS'christy mack posts images recovery assault'
p452
aS'want better search founder bobby built shows'
p453
aS'zimmerman said going kill motorist cops'
p454
aS'police zimmerman accused threatening driver road rage dispute'
p455
aS'zimmerman accused threatening driver florida road rage dispute'
p456
aS'motivationmonday'
p457
aS'keanu stands kool'
p458
aS'yeah back watch keanu reeves return full glory official trailer johnwick theaters 1024'
p459
aS'thing sure really like around veterans understand coming'
p460
aS'pessimist happens life realist facts'
p461
aS'monday mystery begins everyone number unfortunate life circumstance lottery hope numbers dont picked'
p462
aS'mercy peace love increasingly jude'
p463
aS'youve seen movie'
p464
aS'floyd wants ties arum deal exclusively another maximum'
p465
aS'want stay theyre pretty stressedso stay never enough time well'
p466
aS'received call2 ladys hearing noisessounds around house thing search perimeter nothing'
p467
aS'first learned martial arts master hong taught back sense thee ability sense intrusion thisampmany others work'
p468
asS'2014_37'
p469
(lp470
S'coincidence live thoroughbred drive'
p471
aS'agree'
p472
aS'never doubted youif dont mindi like nickname pretty floydwith respecti love dadamproger'
p473
aS'time thurman going rule welterweight division'
p474
aS'dont care pretty floyd fightsincluding pacquiaothe pretty retires undefeatedbe look kiethone timethurman'
p475
aS'like marcosindiomaidanaif wasnt concentrating much fighting dirtyroberthe could done betterrobert'
p476
aS'hope everyone good dayim tiredbut feel peachyno complaintsno worries mate'
p477
aS'next weeks crucialincluding 30th septemberi worry notconcerned yeswill succeed'
p478
aS'thats sweeping left hookvery nicehe wont bully'
p479
aS'robert garcia needs change name robert garcias street fighting academyseriously robert marcos wasnt dirty till'
p480
aS'want marcosindiomaidana kiethone timethurmanone time stand rough stuffone time indio'
p481
aS'hometurned tview vincent jackson buccaneers make catch defender himkudos vjay'
p482
aS'today body telling overload classic signsmy problem start training dont know stop well'
p483
aS'jazzfunk pioneer sample dies'
p484
aS'young rtruth tupac'
p485
aS'tough days make pleasant nights'
p486
aS'good morningtoday kicksamppunch day10 mile runamp5000 puncheswere going outother thatbe safe great'
p487
aS'rumor daniel bryan fake extent injuries'
p488
aS'videoweighin part marcos maidana arrives reunites alex ariza'
p489
aS'video anthony dirrell carl froch ityou gotta come'
p490
aS'five biggest contradictions rice scandal thats dogging roger goodell'
p491
aS'irans president delivered pledges freedom'
p492
aS'selflocking bike impossible steal yahoo small business advisor'
p493
aS'state police trooper shot dead outside barracks'
p494
aS'michael bisping luke rockhold heated face'
p495
aS'gentleman could purchase woman even woman dont want themso shootstab fight real winners'
p496
aS'theyre certain amount gentleman know cant woman theyre objective shoot stab fight'
p497
aS'folks feel threatened blast away'
p498
aS'friday daughterampher friend headed discothey wearing kevlar carrying roscoglock'
p499
aS'slowly running'
p500
aS'thank'
p501
aS'thank'
p502
aS'thank'
p503
aS'thank martial brethren'
p504
aS'sorry bodallas called thee hamnegger'
p505
aS'encephalitischikungunyawest nile virus carrying mosquitoes made cushion mebut immune system gold baby'
p506
aS'completed mile unfortunately without police accompanimenti feel secure thereim spoiled'
p507
aS'seriously worry perro angulo takes many head shots'
p508
aS'ladys traintheir ready like yesterday'
p509
aS'could please wait minute call 50but dont work like'
p510
aS'somebody rolls street wont hesitate give uppercut crownsthats'
p511
aS'dirty fighting streetnot prizefighting'
p512
aS'believe much respect indiobut gotta fight clean'
p513
aS'sorry indio fights dirty gotta back'
p514
aS'floyds uncle trains fighters floyd dont indiomanhandle arse'
p515
aS'military surprises school serving months iraq'
p516
aS'lovely home sweet homecalmkoolampcollected 1stampforemost didnt anyone disturb groove frydaylets'
p517
aS'thank'
p518
aS'taking sbklive thee crushed emotionally'
p519
aS'love life love anyone thats different culturedanyways starbucks filling high test'
p520
aS'like negro running running scene crimeive dealt racism years'
p521
aS'show drivers license sayyou live live better home'
p522
aS'ever running someone always seems call policeampthey seem prontoim accustomed'
p523
aS'king dove fight head first'
p524
aS'video robert garcia telling maidana fight dirty'
p525
aS'video floyd mayweather freddie roach roach piece shit'
p526
aS'video stiverne laughs wilder take skills knock somebody'
p527
aS'videomayweather floyd maidana good fighter'
p528
aS'videogarcia maidana bothered presence alex ariza mayweather camp'
p529
aS'video mayweather maidana final press conference highlights'
p530
aS'video floyd mayweather reflects worked camp rematch'
p531
aS'video floyd mayweather going knockout'
p532
aS'rick ross prince royce perform mayweather maidana weighin'
p533
aS'video access mayweather maidana episode'
p534
aS'video roger mayweather recalls loss julio cesar chavez'
p535
aS'video cortez influence fighter instructions'
p536
aS'video roger mayweather concerned maidana fighting dirty'
p537
aS'video roger mayweather explains nickname black mamba'
p538
aS'video roger mayweather recalls loss chavez regret'
p539
aS'welcome'
p540
aS'thank'
p541
aS'thank'
p542
aS'thank'
p543
aS'thank'
p544
aS'samuel peter face aubrey september'
p545
aS'roger mayweather pacquiao floydis gonna grill'
p546
aS'video roger freddie roach fuck know boxing'
p547
aS'video roger mayweather pacquiao couldnt'
p548
aS'video cortez thoughts kenny bayless refereeing mayweather maidana'
p549
aS'video roger boxing harder takes time'
p550
aS'video roger questions maidana wanted certain gloves thats dirty'
p551
aS'video roger mayweather says maidana gonna whooped worse'
p552
aS'video roger mayweather explains thinks boxing harder'
p553
aS'listening news last hour managed depress safe today dont become statistic'
p554
aS'good morning friday sohave great school class session'
p555
aS'business meeting evening everthing went well great'
p556
aS'bout pits savate stylist thai boxer going interesting status consiensus objector'
p557
aS'emotions running high wife walked'
p558
aS'asked referee grudge match fight fight woman guys wife slept opponent'
p559
aS'display superb handampfoot speed accompanied displacemen ring generalshipamprapid fire combinations staccato riffs'
p560
aS'matter happens today lord loves youampdont forget stay prayed thee holy spirit'
p561
aS'mayweather working ariza'
p562
aS'felice herrig bullied unprofessional cast grew balls recent media tour'
p563
aS'askren money respect drugs head stomps'
p564
aS'rory mcilroy tiger phil last holes career'
p565
aS'legendary rebound marleys classic album enters three decades release'
p566
aS'watching yahoolive'
p567
ag157
aS'watch wherever genesis 2815'
p568
aS'married children reunion picture youve waiting'
p569
aS'chauncey billups retires time'
p570
aS'season ultimate fighter might can\xe2\x80\x99tmiss'
p571
aS'colorado woman latest american admit attempt join islamist militants'
p572
aS'former wrestler sean ohaire dies apparent suicide'
p573
aS'relatives keep watch illfated trial'
p574
aS'touch furry caterpillar'
p575
aS'daughter wants mayweather maidana fight hope floyd prepared foul infested brawl'
p576
aS'afternoon headed boxing ring minute roundsim feeling sharpso'
p577
aS'facility'
p578
aS'around life time make count'
p579
aS'school great teacher asked questions took everyone taski everyone hysterics answer everything'
p580
aS'sharon tateto bruce wasnt charles mansons devils death committed murderous attrocitys'
p581
aS'moon strength prevalent'
p582
aS'martial arts sacred years practice life liberty pursuit understanding'
p583
aS'tried stone wall sidekicki told students teachers pretending novices dont intentionally hurt folks'
p584
aS'remarkablemy student brings friendjudoblackbelt class insisted holding thee airshield broken ribs'
p585
aS'woman name hearts lips children'
p586
aS'father married mother 62yrsdaddio never hands mother thats example'
p587
aS'imagine born 1950syou think future going great look around things worse horse blindsear plugs'
p588
aS'school amthis activity insure become better robotyou know preprogrammed'
p589
aS'earth wind fire cant hide love 1975gratitude'
p590
aS'earth wind fire loves holiday 1977'
p591
aS'julian williams aims hopkins gonzalez boxing news'
p592
aS'tuesday going great complaints although hotter victorias secret runway model'
p593
aS'admit really angry work straighten twitter account yesterday'
p594
aS'today hour days thats course back thee army prepared thee unforeseeable'
p595
aS'yesterdays last part workout believe strained back possibly mile thats breaksyesterday gone'
p596
aS'video access mayweather maidana episode'
p597
aS'video floyd mayweather discusses rematch maidana'
p598
aS'dont believe hype pacquiao using mayweathers name sell algieri fight'
p599
aS'dont tumbler hopefully'
p600
aS'whip rhonda rouseys'
p601
aS'cambodian fighters take ancient skills cage'
p602
aS'aerosmith rock today'
p603
aS'chicago bulls stars'
p604
aS'nike unveils kevin durant easy money sneaker invokes spirit franklin'
p605
aS'unfunded african troops raped vulnerable somalis'
p606
aS'women need hydrate differently'
p607
aS'data buying personal information'
p608
aS'coffee'
p609
aS'eating highprotein diet linked lower blood pressure'
p610
aS'summer break mustdo tasks await congress'
p611
aS'scared horse leaps'
p612
aS'53yearold intern back workforce'
p613
aS'denzel washington recalls experiences discrimination nword insults'
p614
aS'actually sister name barbaraits small world'
p615
aS'todays training went welli finished workout mile boots'
p616
aS'hackerlife 360you definitely yourswhen least expect itill taping shoulder'
p617
aS'took forever account correctedoh well'
p618
aS'lovely people follow someone hacked account please proceed caution'
p619
aS'post'
p620
aS'individual hacked accountyou hear doorbell ring knockit meim coming yoube ready'
p621
aS'twitter security provision prevents going malicious content'
p622
aS'account invaded troubled soul nothing better'
p623
aS'yesterday tried access tumblerno success'
p624
aS'thank thee info'
p625
aS'thank telling meill look'
p626
aS'everyday wake knees thank grace mercy'
p627
aS'dont like driving others carelessnessalso rehab industry money'
p628
aS'accident occurred textingthe rehabilitation long roadyogaamptak instrumental'
p629
aS'times would think thee accident start cryingit phsycologocall physical'
p630
aS'injuries besieged directly related head collisioncar feb26 2013'
p631
aS'adrien broner emmanuel taylor reflect entertaining fight'
p632
aS'video fathers adrien broner emmanuel taylor debate performances post'
p633
aS'video dave chappelle breaks mayweather maidana'
p634
aS'andre berto rusty successful comeback fight showtime'
p635
aS'coach father says mayweather distracted first maidana fight'
p636
aS'four things send resume trash'
p637
aS'pacquiao indicates mayweather negotiations already taking place'
p638
aS'invicta free fight waterson schuckman'
p639
aS'askren dana white flip flopper'
p640
aS'askren explains root desire fight johny hendricks'
p641
aS'floyd mayweather read blog black america'
p642
aS'rice elevator knockout fiancee takes crushing punch video'
p643
aS'film flashback aerosmith kicks butt pepper'
p644
aS'shoe style that\xe2\x80\x99s flattering everyone'
p645
aS'serena williams wins third straight open'
p646
aS'tourist captures moment volcano erupts\xe2\x80\x94wow'
p647
aS'watt shows 100m lineman bigger impact'
p648
aS'police agencies racially balanced'
p649
aS'stand cancer raises million'
p650
aS'arab league chief confront islamic state group'
p651
aS'doug martins high school principal referee sunday'
p652
aS'week winners losers really buccaneers'
p653
aS'chicago actress dies struck tree'
p654
aS'fastest shed garcinia lose weeks'
p655
aS'recent stats followers unfollowers statistics'
p656
aS'yung kwon seminar outstanding defense offense combat techniques sensational youre always welcome'
p657
asS'2014_31'
p658
(lp659
S'amazing would brucelee'
p660
aS'think wins'
p661
aS'last great bronco simpson superbowl'
p662
aS'years today idol friend muhammad become heavyweight champ still greatest muhammadali goat'
p663
aS'novokov vargasmy observations 6rds novokov 5rds vargas even winner novokov novokov strong armed robbed'
p664
aS'honestly doesnt matter debtinstead finger pointingjust thats grandstandingjust'
p665
aS'reagan george bush united states debt presidents combined'
p666
aS'currently watching vargas novokovso 8rds3rds vargus4rds novokov1rd even volume offno biasjust truth'
p667
aS'middleeast crisis 3112 rockets fired 4600 terror sites 1800 palestinians dead 9320 wounded israeli fatalities\xe2\x80\xa6'
p668
aS'amber alert issued mexico girls traveling white dodge challenger plates number 116sph share'
p669
aS'sexual battery suspect subdued young victims father wftv'
p670
aS'thinking draculich paid advance arum paying customers rematch'
p671
aS'wont angry depressed dqfightsfighters especially refs unpredictableas says well'
p672
aS'recent stats followers unfollowers statistics'
p673
aS'fighters train hardsacrifice away familys weight interviewscountlessfinally fight come'
p674
aS'good money subscription screws fight marcosindiomaidana fouled money night qcome'
p675
aS'commission needs quick talk refhis constant badgering mess fight'
p676
aS'trying screw fight'
p677
aS'dont know excessive whats chaves supposed dolet brandon wail'
p678
aS'chaves hung tough keithonetimethurmanholding part manual defensetaking points screws close even fight'
p679
aS'kovalev ultimate warrior bhop tricks diversified tool masters degree pugilismkovalevs gonna'
p680
aS'18yrs agomy daughter brittany right brandon left legacy love life'
p681
aS'dont blame vargasthe blame politicalampfinancial strength promoterbob arum want work fightsvote guys'
p682
aS'vargas wellsometimes gift give false sense security'
p683
aS'hear brotherno matter thee long gives self protection well self preservationits good'
p684
aS'opinion vargas lost joseito lopezbut promoterarum wields great deal powerful influence'
p685
aS'truthfully deal sorenesshandsampfeet etcbut pain course pugilistic arena'
p686
aS'guarantold thee martial arts started youre young keep majority ailments common aging'
p687
aS'likes diversified martial arts techniquesampmy 46yr resume pugilistic catalogampmultiple martial inventory'
p688
aS'work parkin heatadrian hard corei love kidyouve techniquehe showed picture himamppacman'
p689
aS'adrian favors manny pacquiaobut dead ringer bruce leethis filipino young tough nails martial artist'
p690
aS'filipino gentlemen astounded seeing demonstrationi also showed penjak silatwhich uncommon diversity wise'
p691
aS'incidentallyim working wonderful 22yr filipino gentlemeni impromptu escrima demonstration'
p692
aS'hear folks want jump plane bucket listdont make death wishbe cognizantbe diligent'
p693
aS'usarmy parachutistit involved pride undertaking become airborne qualified others accomplish'
p694
aS'always pack parachutealways belly packparachute secondaryalways prepared land treei'
p695
aS'airborne almost exiting procreationtake seriouslypay attentionampremember life line jump'
p696
aS'lady currently multiple injuriesso please prepare physicallymentallyampspiritually jump plane'
p697
aS'parachutist able tuck rolletc landingsa lady florida landed treeunhooked harnessampfell 40ft'
p698
aS'decide become parachutist must ultimately physically fitpush upspull upssit ups510 mile runsampbungee cord training'
p699
aS'noticed latelycivilians jumping record numbersampgetting seriously injuredampkilled well'
p700
aS'whilst serving thee usarmy decided airborne wings involve rigorous trainingi successfully completed school'
p701
aS'welli know programed thirsty around 330430ish'
p702
aS'friend lives cwashington told government recently shut downthe gops happy hourwent without hitch'
p703
aS'history filled much enrichment hold real truth'
p704
aS'school taught powers wanted know truth really wasnt truth'
p705
aS'real name countryamerica tribal manifests original people populated landthats factdig'
p706
aS'columbuserikson vespucciwere said discovered americahow discover country folks already living'
p707
aS'diego chaves learned thurman fight boxing ability'
p708
aS'brandon rios quality fighterdiego chaves text book brandon comes forward diego move'
p709
aS'daughter listening lady'
p710
aS'today great hotter angela bassett outside looking forward thee fights tonight'
p711
aS'retweet help raise states surgery help walk\xe2\x80\xa6'
p712
aS'opinions always count others observations wether good right wrong attention respect full spectrum'
p713
aS'rios chaves chaves good solid boxer picks spotsrios technobox remember keith thurman'
p714
aS'heres inspirational bible verse bibleverses'
p715
aS'street muggingsno tape watchno cornerno refno helprelying totally 46yrs stored mental trainingevery shot packs chitnt'
p716
aS'danny garcia guarantees exciting fight vows knockout salka'
p717
aS'kell brook vows lion coming take title'
p718
aS'shawn porter hints technicalfight kell brookno rushing'
p719
aS'video sergey kovalev blake caparello final press conference'
p720
aS'lucas browne cant rudenko stand world title shot'
p721
aS'lightheavyweight champ bernard hopkins fight titleholder sergey kovalev november'
p722
aS'percent people exercise'
p723
aS'texas aampms renovated football complex extremely impressive videophotos'
p724
aS'hacks thatll improve life buzzfeed yahoo screen'
p725
aS'recent stats followers unfollowers statistics'
p726
aS'unfortunatelyworld crisisinfluences governs thee economy especially stock marketnasdaqetcdeal'
p727
aS'ayatollah khamenei netanyahu sides coin'
p728
aS'reasons longer shaving underarms best decision ever'
p729
aS'food assistance programs help seniors need'
p730
ag157
aS'limbaugh republicans tightrope\xe2\x80\x99 donors voters amnesty'
p731
aS'party outmuscles boehner bordersecurity funding'
p732
aS'weird delay pain brown recluse spider bite explained'
p733
aS'berkshire profit soars record investment gains'
p734
aS'anderson silva comeback fight excellent fans nick diaz'
p735
aS'bill oreilly took poll legalizing weed youll never guess happened next'
p736
aS'champ jones unconcerned sustained'
p737
aS'umpteenth degree judo black belt stopped byim retired today especially tonighthe accompanied high level students'
p738
aS'bill clinton hours attacks could killed osama laden'
p739
aS'defends stretch marks calls bullies facebook'
p740
aS'ebola spread human human'
p741
aS'house leaders trade blame inaction'
p742
aS'official police chokehold caused mans death'
p743
aS'writes comical obituary'
p744
aS'crack trick silk corn'
p745
aS'exposed children really look like'
p746
aS'tribe emerges brazilian jungle possibly first time'
p747
aS'father rewarding learn much offspring'
p748
aS'today days dream showerdinner couch'
p749
aS'saved lady child suvto glory'
p750
aS'back tell others whats said give negativety words powerdont bearer'
p751
aS'started today knees praying savior lord sheppardi shall want holy spirit protects'
p752
aS'also disconnected buttons switches anyone evoke priceless emotions'
p753
aS'todays episode entitled perfection kool thorough better'
p754
aS'thank enjoy weekend'
p755
aS'thank ghave great weekend'
p756
aS'many thanks great weekend'
p757
aS'always welcome'
p758
aS'government still wont twitter share details national security requests'
p759
aS'study best work biceps according science'
p760
aS'ready host podcast looking interested contact'
p761
aS'congressional republicans rail legalization marijuana'
p762
aS'sean hannity wants educate \xe2\x80\x98dumb ignorant\xe2\x80\x99 russell brand israelgaza conflict video'
p763
aS'stock tremendous firepower selling cheap'
p764
aS'video shannon briggs storms challenges wladimir klitschko'
p765
aS'lies republican party spreads poverty food stamp program'
p766
aS'welterweight brandon rios demeanor doesnt match tough words'
p767
aS'coach chael sonnen \xe2\x80\x98refuses\xe2\x80\x99 fight like brendan schaub metamoris'
p768
aS'news vince mcmahon announces layoffs'
p769
aS'warren buffetts dividend stocks'
p770
aS'things dont miss wall street extrader'
p771
aS'cruz riles republican leaders house pizza party sinks bill'
p772
aS'adrian broner going home bout'
p773
aS'cesar gracie anderson silvas chin isnt'
p774
aS'news muhammad gloves worn frazier clash sold 400000'
p775
aS'gopro captures mans crazy jump rooftop real'
p776
aS'virgin mobile offers unlimited data favorite social media'
p777
aS'roll playertracking system realtime onfield stats'
p778
aS'dick smith \xe2\x80\x98godfather makeup\xe2\x80\x99 dies'
p779
aS'manny machado channels brooks robinson amazing stop throw'
p780
aS'hammerhead shark spooks swimmers florida beach'
p781
aS'hammerhead shark spooks swimmers florida beach'
p782
aS'house border plan blew face'
p783
aS'immigration issue produces congressional disarray'
p784
aS'fire cash overwhelmed gaza crisis'
p785
aS'bull gives 10monthold baby giggles'
p786
aS'beauty refreshers hiding fridge'
p787
aS'infants life saved cannabis claims'
p788
aS'recent stats followers unfollowers statistics'
p789
aS'lifei never ever yelled derogatory comment anyone whilst moving going away thats chicken shit'
p790
aS'morning allowed outside influences rent space penthousemy headi calmed evicted everythings kool'
p791
aS'erdogans reassuring words turkeys jews anything'
p792
aS'tennessee teen bitten scared brown recluse spiders'
p793
aS'bank america ordered billion hustle fraud'
p794
aS'inside colorado\xe2\x80\x99s flourishing segregated black market'
p795
aS'signs you\xe2\x80\x99re fired'
p796
aS'company needs uptodate marijuana policy yahoo small business advisor'
p797
aS'charles barkley says real jobs world explains never'
p798
aS'prepare next bear market'
p799
aS'superfoods youve never heard'
p800
aS'biotech earnings etfs focus'
p801
aS'harry reids assistance diego chaves gets visa face brandon rios'
p802
aS'blonde gogetter fined million bank america fraud case'
p803
aS'homeless tearfully watches police destroy shelter'
p804
aS'johny hendricks enjoy fighting lawler arms'
p805
aS'medical suspensions matt brown months'
p806
aS'filipina nurse kidnapped raped libyas tripoli'
p807
aS'dmxs wild ride watch rappers amusementpark freakout'
p808
aS'2015 dodge charger hellcat coming complete horsepower'
p809
aS'bugatti veyron super sport hits public road video'
p810
aS'marshawn lynch fined gale sayers made year'
p811
aS'drew brees shows accuracy pegging frisbee football'
p812
aS'manny pacquiao next fight chris algieri\xe2\x80\x99s speed \xe2\x80\x98surprise\xe2\x80\x99 pacman says matchmaker'
p813
aS'beauty duty really happened'
p814
aS'archbishop says didnt mismanage abuse scandal'
p815
aS'emmanuel mudiays jump china start trend recruits'
p816
aS'cowboys sign left tackle tyron smith jawdropping contract extension'
p817
aS'states legalize next'
p818
aS'hacks every driver know'
p819
aS'heres numbers credit card really mean'
p820
aS'israel calls another 16000 reserves'
p821
aS'exclusive ruth bader ginsburg hobby lobby dissent'
p822
aS'recent stats followers unfollowers statistics'
p823
aS'rice jamaican beans potatoes corn stewed chicken'
p824
aS'viscous dogsbe responsible secure themthere traverses neighborhoodif necessaryill'
p825
aS'arrived long agoits folks slow realize brillianceyour fire cant extinguishedits algeri time'
p826
aS'must take time thank godfor thee creator increased me1st spiritually2nd mentally physically4th financially'
p827
aS'donate 20000 help back workforce giveasuit'
p828
aS'wednesday blue crew ready service'
p829
aS'twitter surges amex gains report'
p830
aS'republicans dismiss impeachment democratic ploy still face dilemma'
p831
aS'venus advances serena return stanford'
p832
aS'flight attendant warns travelers flush drugs landing'
p833
aS'mixed martial arts champion jumps action stop wouldbe robbers'
p834
aS'army\xe2\x80\x99s handgun weapon criminals'
p835
aS'asia\xe2\x80\x99s ashares market differs'
p836
aS'things never someone cancer healthy living yahoo shine'
p837
aS'pressure sergey kovalev deliver memorable saturday'
p838
aS'john boehner unloads embarrassed deceitful cynical harry reid'
p839
aS'five dead feared trapped india monsoon landslide'
p840
aS'generation tanners spike deadly melanoma'
p841
aS'monster pingpong rally blow mind least make smile'
p842
aS'appeals court blocks mississippi abortion'
p843
aS'saints\xe2\x80\x99 brandin cooks offensive rookie year'
p844
aS'darvish cant stop brett gardner blames gardners parents'
p845
aS'blast gaza live shot sends reporter crew ducking cover'
p846
aS'special report ukraines separatists weapons'
p847
aS'urban meyer still dont tebow'
p848
aS'need bedtime snack'
p849
aS'anderson silva return faces nick diaz vegas'
p850
aS'shelling school kills gaza rages'
p851
aS'recent stats followers unfollowers statistics'
p852
aS'afghan presidents cousin killed turban bomb attack'
p853
aS'iraqs mosul radicals unleash vision'
p854
aS'lightning strike feels like cooked microwave survivor says'
p855
aS'edward norton\xe2\x80\x99s mission help raise money good cause'
p856
aS'melky cabrera breaks windshield hitting home green monster'
p857
aS'beck heart drum vevo yahoo screen'
p858
aS'radical polaris slingshot part part motorcycle excitement'
p859
aS'horrifying moment women realize freight train'
p860
aS'humpback whales come within feet shore monterey onlookers stunned'
p861
aS'raining lightening crazeeee'
p862
aS'retweet love marley bobmarley legend'
p863
aS'great article rashad evans'
p864
aS'love read article twitter page refreshes search'
p865
aS'rumblejohnson scary stuff'
p866
aS'presently regurgitating throwing lightning bolt uppercutsmuch like anthonyrumblejohnson'
p867
aS'thee mmaboxing fitness especially longevity gained muscle help thee injuries working'
p868
aS'gained 25lbs proportioned muscle peoplemy mothertold didnt like says slow'
p869
aS'goodcrazy soundsi function high level tiredweariness forces maximum brain concentrationgeeeeez'
p870
aS'folks dont grouchi smile clenched teethanother words fake till make'
p871
aS'againfell sleep minutesup nightmy brain turns cant shut offso today tank well'
p872
aS'spurs deny manu ginobili permission play world'
p873
aS'hall famer dusty rhodes showing ropes superstar'
p874
aS'hardy diego sanchez whats wrong'
p875
aS'probiotics three reasons'
p876
aS'steps bulletproof retirement portfolio'
p877
aS'stocks spiking volume'
p878
aS'florida poll back legal marijuana'
p879
aS'sees profound cultural shift marijuana legalization'
p880
aS'estimates differ marijuana revenues'
p881
aS'legalization activists stoked york times went mainstream'
p882
aS'marijuana legalization gets boost congress bill aims legalize medical strains'
p883
aS'recent stats followers unfollowers statistics'
p884
aS'unbelievably upset dean ambrose nowhere found tonight'
p885
aS'today raining burned brightly well powerless thee elements'
p886
aS'andre dirrell parts ways cent eyes august return'
p887
aS'talk folks dont really know much less whats going world'
p888
aS'relevant keep local national international news true thats question'
p889
aS'dana white negotiations gina carano complicated'
p890
aS'incredible punching power keeps gennady golovkin headline attraction'
p891
aS'fighter salaries robbie lawler payroll route another title shot'
p892
aS'pakistan kills woman girls blasphemous facebook post'
p893
aS'egypt army destroys gaza tunnels'
p894
aS'wrecked costa concordia enters italian port scrapped'
p895
aS'401k plan wish'
p896
aS'money dumping stocks'
p897
aS'astros players upset mark appels promotion special bullpen session'
p898
aS'fury road teaser hardy likes cars boom'
p899
aS'congos insect cuisine nutritious delicious'
p900
aS'chinese police remove church cross amid crackdown'
p901
aS'subban drinks beer stanley seth rogen video'
p902
aS'florida father killed daughter critically injured beach plane crash'
p903
aS'analysis clinton drama hangs lawsuit'
p904
aS'recent stats followers unfollowers statistics'
p905
aS'sneak preview movie codename falcon favela santa monica list early'
p906
aS'bangkok representing stay ready tshirts brother'
p907
aS'actionmartial arts raised bolted shut theraid2 class beautality'
p908
aS'time goes fast everyday something future live moment cause youll never'
p909
aS'martial arts dads bill wallace lewis fighter wanted combination'
p910
aS'kicking dhabi'
p911
aS'double trouble tony'
p912
aS'back mini vacay time hard begin next project soon coach freddy roach tony'
p913
aS'late next early hvywt champ bernard executioner hopkins nothing respect bhop'
p914
aS'last night current olympia phil heath multifaceted credit bodybuilding world'
p915
aS'good answer\xe2\x80\x9d'
p916
aS'checking dvri boxing havent seen'
p917
asS'2014_34'
p918
(lp919
S'tall grassim actively wind sprintsampthats exactly wind memy wind sprinting awaynext setsee'
p920
aS'americas military officer explained isis problem sentence'
p921
aS'arrests thousands rally chokehold death'
p922
aS'orlando jones puts powerful twist bucket challenge'
p923
aS'rafael anjos henderson knockout video shows controversial stoppage fight night'
p924
aS'michael bisping cung full fight video highlights fight night macau'
p925
aS'cung face destroyed four rounds michael bisping'
p926
aS'fight night results live stream bisping discussion'
p927
aS'texas police chief shot dead traffic stop'
p928
aS'says chinese flew within meters\xe2\x80\x99 american'
p929
aS'harry reid apologizes asian comments'
p930
aS'sierra leone hero doctors death exposes slow ebola response'
p931
aS'strong northern california quake causes injuries damage'
p932
aS'moves need make stock market correction'
p933
aS'recent stats followers unfollowers statistics'
p934
aS'heyi betcha chapman goes machine wont film'
p935
aS'saturday night gettin mine'
p936
aS'onebravo brother'
p937
aS'anything eati make better'
p938
aS'home cookingby nutritionisttheres reason weight maintaining regiment'
p939
aS'phil collins take home live'
p940
ag157
aS'tomorrow ramprwell sort class teach 12pm'
p941
aS'robampi pull push upsampa mile boots onthen sparring soft sand'
p942
aS'training buddy veteran heat nothing whooota'
p943
aS'fight night weighin video'
p944
aS'recent stats followers unfollowers statistics'
p945
aS'admit doubted youcongratulationsyour mixyoure strong welterweightno doubts'
p946
aS'life getting ugly'
p947
aS'many situations going worldwhich attach'
p948
aS'whats trout'
p949
aS'guys take guns disco cause know going meet woman theyre afraid take whipping'
p950
aS'friday night daughter going discoshe knows dangers stay glued couchrest important'
p951
aS'never hate definitely dislike'
p952
aS'training today local football team threw bottle water kicked thee airfascination unknown'
p953
aS'training could think father miss presence'
p954
aS'father gift'
p955
aS'young broke right hand times right foot times continued train sparso today another chapter'
p956
aS'cant base days yesterdays pain amplified todayso forward gothe show must'
p957
aS'middleweight michael bisping\xe2\x80\x99s career crossroads'
p958
aS'zink lands worldrecord mountain bike backflip'
p959
aS'andrei arlovski overeem injured jones simply injures everyone trains'
p960
aS'daniel cormier oneups jones fourth place finish joke'
p961
aS'floyd manny pacquiao floyd fight anticipated victory maidana international business times'
p962
aS'recent stats followers unfollowers statistics'
p963
aS'sitting thinking life alone inside mind thee answers right front slow read knowledge'
p964
aS'would train'
p965
aS'lose stubborn belly'
p966
aS'know diligence done sore body sore hands feet'
p967
aS'phone bugged hear hear feedback whomever wasting time nothing illegal float boat'
p968
aS'note come'
p969
aS'dont overwhelmingly concerned body image concerned inner beauty inner beauty outshines outer beauty'
p970
aS'todays heat index predicted beat still grooves'
p971
aS'mone davis strikes allows three runs tough vegas team'
p972
aS'motorcyclist pulls miraculous recovery collision'
p973
aS'subway yoga newest health craze hitting'
p974
aS'pizza mistakes dont want make'
p975
aS'mike tyson jones playfully spar instagram video'
p976
aS'fantasy spin brian hoyer start johnny manziel bench'
p977
aS'young poets light hollywood'
p978
aS'tony gonzalez denver broncos undefeated super bowl'
p979
aS'carmelo anthony smith dominate pickup game exclusive venue'
p980
aS'recent stats followers unfollowers statistics'
p981
aS'today gasfrom school workout finished strongmy ladies gentlemen plan abcdetc'
p982
aS'roasting taking half hour break'
p983
aS'days like cant wait condition said done'
p984
aS'todays workout outside degree heat'
p985
aS'goals dreams deadlines make time'
p986
aS'class really good today afternoon back'
p987
aS'door sore yesterday complaints folks wont take easy wont take easy either'
p988
aS'plank ultimate sculptor'
p989
aS'officials video shows americans beheading'
p990
aS'recent stats followers unfollowers statistics'
p991
aS'world masquerade'
p992
aS'anthony joshua camp sparring super heavyweight olympic gold medalists ring that\xe2\x80\x99s unique'
p993
aS'lucas browne gavern fight wilder people'
p994
aS'recent stats followers unfollowers statistics'
p995
aS'really enjoyed todays workout walk eggshells thinking right thigh would give didnt'
p996
aS'mean time time life continue normal slow motion herky jerky paceif necessary ride'
p997
aS'class negative thinking sounds like life well readings today mates lazy sleepy'
p998
aS'classsomeone cuts loud excrement thee ladys look apologized language'
p999
aS'today allall glory'
p1000
aS'jackie chan says time slow'
p1001
aS'recent stats followers unfollowers statistics'
p1002
asS'2014_27'
p1003
(lp1004
S'sharks procreatepoop make little sharkswith sharkits personalthee ocean houseyou deliver dinneryou'
p1005
aS'news reporter asked shark bite recipient kind look great white eyes'
p1006
aS'human beings swim give movement wounded sealso sharks sensory leads directly youyour tasty treat'
p1007
aS'beachthe fisherman chumming waterchumming fish headsgutsampbloodso sharks come inland'
p1008
aS'class heavyweightsso stay feel long'
p1009
aS'cruiserweight iwith proper weight exercisesmy goal 225lbs solid corded musclethe extra weight prevented injuries'
p1010
aS'light heavyweight divisioni formerly weighed 175lbsim weighing even 195lbsno loss speed'
p1011
aS'love nattie'
p1012
aS'tightens security electronics overseas airports'
p1013
ag157
aS'father brother baby'
p1014
aS'humbleexcuse'
p1015
aS'received autographed picture jones 11181994mr jones gracious friendly humbe'
p1016
ag157
ag157
ag157
ag157
aS'studysstudents arrived glamed upthey want take dinnerid rather cook themit tastes better anyway'
p1017
aS'weeks episode entitledone minute timemondayspecificallyall glitter gold'
p1018
aS'lightening thundering outside something fierce'
p1019
aS'today repetitive motion although stretched like reed richards fantastic four'
p1020
asS'2014_43'
p1021
(lp1022
S'four ways parents ruin love life'
p1023
aS'roadwork plus hours'
p1024
aS'jarreaui keep callin'
p1025
aS'fabulous 82yr gentleman watches train broke bricks iron palm techniquebe careful'
p1026
aS'move 168even know cant compete youfight andresogward particular'
p1027
aS'master hung taughtthee thing worst fear fear itselfthrough life learned shift gearsampmash'
p1028
aS'share'
p1029
aS'foods avoid high blood pressure'
p1030
aS'greg cosells film review dallas game helping tony romo'
p1031
aS'inside story billion acquisition caused cisco divorce closest partner'
p1032
aS'floyd mayweather manny pacquiao \xe2\x80\x98even'
p1033
aS'timothy bradley says floyd mayweather manny pacquiao \xe2\x80\x98even'
p1034
aS'retirement invented'
p1035
aS'study gaming makes angrier gaming'
p1036
aS'heels gone good'
p1037
aS'data usage'
p1038
aS'hoverboard real we\xe2\x80\x99ve video prove'
p1039
aS'moves need rocksolid core'
p1040
aS'parents giving teens life death warning ecstasy'
p1041
aS'chad mendes connor mcgregor aldomendes says smash mcgregortrash talk title fight make'
p1042
ag157
aS'jose aldo game hardfought victory chad mendes'
p1043
aS'eagle golf course steals ball'
p1044
aS'gorilla scares children routine'
p1045
aS'marine dies noncombat incident campaign news'
p1046
aS'shutting afternoon relaxing daystaysafe'
p1047
ag157
aS'case standard issue surviving streets flabetter prepared scared'
p1048
aS'truth proud'
p1049
aS'times alone deal crowded mind'
p1050
aS'love'
p1051
aS'thank'
p1052
aS'john mcclane john rambo watch clip toughest action movie names'
p1053
aS'cream bassist jack bruce dead'
p1054
aS'coldplay'
p1055
aS'saltiest foods america'
p1056
aS'best cornbread recipe ever'
p1057
aS'real estate mistakes retirees make'
p1058
aS'bodytoning treadmill trick\xe2\x80\x94no running necessary'
p1059
aS'muhammad instructed floyd mayweather arrange fight manny pacquiao'
p1060
aS'complex investigation follows killing deputies'
p1061
aS'youve seen aerialperformance game sanjosest navy check aerialperformance'
p1062
aS'iree munstop bumba clot cryineverybody must deadits turn moma lose'
p1063
ag157
ag157
ag157
ag157
ag157
ag157
ag157
ag157
ag157
ag157
ag157
ag157
ag157
ag157
ag157
ag157
aS'close personal wild horses sanctuary santa barbara'
p1064
aS'foods every'
p1065
aS'remains belong missing virginia student'
p1066
aS'401k investors dumb\xe2\x80\x99 says'
p1067
aS'favorite southern fried chicken recipes'
p1068
aS'bruce classic twofinger pushup'
p1069
aS'greatest punch ever compilationpart'
p1070
aS'abraham abie highlight video'
p1071
aS'take good shot dont defense call radaryou know opponent stance move side weakness turn'
p1072
aS'never know body response getting chin happens glass jaws given'
p1073
aS'brandon finnegan makes history pitching world series college world series year'
p1074
aS'police commissioner hatchet attack terror'
p1075
aS'battle 145lb title watch weighin highlight think ufc179 make history'
p1076
aS'jesse owens'
p1077
aS'dads paralysis changed family forever'
p1078
aS'lava flow edging toward hawaiian town'
p1079
aS'epic mullet migration epic feeding frenzy'
p1080
aS'stronger faster benchpress tweaks'
p1081
aS'week johnny manziel football week'
p1082
aS'peyton manning happy broncos scoreboard operator'
p1083
aS'truth women alcoholism'
p1084
aS'transgender teachers transition announced school robocalls'
p1085
aS'modern horror classics scariest movies since 2000'
p1086
aS'\xe2\x80\x98soul\xe2\x80\x99 civil rights movement james brown brought power music politics'
p1087
aS'chuck norris punches vote abbott ketk east texas news weather sports tyler longview jacksonville'
p1088
aS'earth wind fire live serpentine firehorn heavy'
p1089
aS'conor mcgregor headline fight night boston'
p1090
aS'conor mcgregor headline special sunday fight night boston'
p1091
aS'flowers beautifultheir differentdiversitygods colors'
p1092
aS'wash dishes lotits good handsas move forward marvel part music 1900sthe musiclightening'
p1093
aS'bobby lashley separating fact fiction'
p1094
aS'oops anthony weiner'
p1095
aS'today manage roadwork'
p1096
aS'todaybeing room armynavyair force marinesi love real gang joined'
p1097
aS'thank'
p1098
aS'thank'
p1099
aS'thank'
p1100
aS'thank'
p1101
aS'boltsampnuts tightened'
p1102
aS'remember must always make time time'
p1103
aS'careful trust stomach'
p1104
aS'since today marathon sack foodi packed myselfincluding coffee feeding'
p1105
aS'secret longevity throw worry window tear insides make pharmaceutical companies profit'
p1106
aS'thank brother great weekend'
p1107
aS'thanks shout brother great weekend'
p1108
aS'chad mendes says jose aldo calculated fights move brazil'
p1109
aS'medical marijuana solve opioid addiction problem'
p1110
aS'chris algieri works weapons face manny pacquiao newsday'
p1111
aS'manny pacquiaos trainer disrespects huntingtons chris algieri newsday'
p1112
aS'fatal mistakes youre making work today'
p1113
aS'ripken commercial refinancing good'
p1114
aS'top1stsargent watched gamethis usarmy football game viciousi took bombs'
p1115
aS'played full tackle football thee armyno equipmenti lotnever went downthese dudes would cobber youlots shots'
p1116
aS'come think itive seen blood whole lotseeing blood spurs'
p1117
aS'drop clown like kmart tent'
p1118
aS'politically correct indeedyi daddiobut hate racismits loving sisterampyour brotherbeing kind'
p1119
aS'pooty'
p1120
aS'take education assyou cant beat common sense'
p1121
aS'tyyour dumb mother fucker cause think'
p1122
aS'meyou would like kool shit cook'
p1123
aS'lady saidyour dogs year years oldthe second year years oldi dont know believei dont believe'
p1124
aS'phone tapped'
p1125
aS'thing certainwhat goes around come back full circleif nasty peopleit come back youive seen'
p1126
aS'dont liestealcheat love family unconditionally dont bear false witnesshelp peopledont talk'
p1127
aS'always look aroundyou must carefulnot paranoid'
p1128
aS'living'
p1129
aS'ebola shiti wonti cant worry diseasesthere many'
p1130
aS'life needs inspirationthe never limitit starting point'
p1131
aS'didnt killed thee armywere killed'
p1132
aS'greasy'
p1133
aS'easy'
p1134
aS'drop pound shot'
p1135
aS'hold barred fighting style'
p1136
aS'brake bones'
p1137
aS'engaged street fighting martial'
p1138
aS'mother dutchshe sweetheart petes'
p1139
aS'fransisco cubaand panamanian petehis dutchhis father panamanianfrancisco vietnam vethandsomebuiltwe artists'
p1140
aS'dont give fuck anyone says five decades yearsi lived lifenever hiding'
p1141
aS'always people think smarter'
p1142
aS'race better racesome modernizedall deeply strongsome harder'
p1143
aS'dont like niggers eitherno matter color areyou better learn differentiate'
p1144
aS'president lincolnthe emancipation proclamationbut long know people walking around want shoot meim free'
p1145
aS'funky dude drawn firedill throat'
p1146
aS'stupid mother fucker wanted shoot meim grandfather stupid mother fuckeri posture'
p1147
aS'know someone says whateverthat really means'
p1148
aS'kills meare serious'
p1149
aS'sophisticated deck couple times sessionhe gets himthis holds barred'
p1150
aS'arrogant mother'
p1151
aS'theres stylist sparring beats hell everybodyi chinese boxing himi counter every step'
p1152
aS'remember painemotionsdont make mistake twice'
p1153
aS'dont make mistakesyoull never grow'
p1154
aS'dirty bathrooms large crowds food worlds worst airports'
p1155
aS'makeup artists amazing celebrity transformations fixyourfaces'
p1156
aS'penn threatens break mike dolces glass following twitter spat'
p1157
aS'types english surnames'
p1158
aS'contaminated sushi caused parasites take mans body'
p1159
aS'autopsy reveals surprises king'
p1160
aS'autopsy reveals surprises king'
p1161
aS'teen dies heart stops haunted house'
p1162
aS'woman allegedly sets ablaze throws spaghetti'
p1163
aS'conservatives liberals still split media source trust'
p1164
aS'coulter shut sean hannity'
p1165
aS'babies births deaths police'
p1166
aS'pocket puppy rescued drug bust'
p1167
aS'creepy abandoned islands definitely suitable next vacation'
p1168
aS'teacher charged counts statutory rape'
p1169
aS'bristol palin says attacked reported brawl called slut'
p1170
aS'marijuana industry would worth fortune full legalization'
p1171
aS'pretty pink gifts give back breast cancer awareness efforts'
p1172
aS'watch yahoo tech interviews smart cuff puls'
p1173
aS'face transgender youth'
p1174
aS'bethe correia says miesha tate needs better mouth piece'
p1175
aS'georges pierre humiliated training following nonufc talk dana white lorenzo fertitta'
p1176
aS'well made home piece florida gamble every time door personally dont gamble'
p1177
aS'thank heart'
p1178
aS'hall oatessara smile'
p1179
aS'people come advice dont like giving especially back original problem figure'
p1180
aS'crochet infinity scarf cowl brown olive green handmade fashion ebay winter'
p1181
aS'lineage comes ireland panamacubaampjamaica explains martial disposition'
p1182
aS'said come home schoolwell gymif anymore gyms gonna start hitting back'
p1183
aS'today nice degrees mile hour wind'
p1184
aS'jarreau alonzo'
p1185
aS'walking bythis eyeballing methen back confederate flag'
p1186
aS'hopkins kovalev full episode boxing'
p1187
aS'takata shares drop report probe'
p1188
aS'control toldim boldhumble abusedampbullied stopped turn page eyes open widei taught pride'
p1189
aS'motivation'
p1190
aS'strangest airports'
p1191
aS'respect elders thats gets'
p1192
aS'thepeopleschamp thepeopleschamp thepeopleschamp letsgochamp'
p1193
aS'wwii ships found deep graveyard atlantic'
p1194
aS'nato intercepts russian jets baltic'
p1195
aS'agency warns owners bags fixed'
p1196
aS'stephanie mcmahon qampa love play'
p1197
aS'purple heart found playground returned'
p1198
aS'ziggy marley live concert'
p1199
aS'manziel take starting soon'
p1200
aS'museum shows louis armstrong photos friend'
p1201
aS'much wait giants quiet royals world series party'
p1202
aS'amir khan face devon alexander vegas showtime'
p1203
aS'jose aldo says fighters deserve better'
p1204
aS'manny pacman pacquiao favored boxing fans loved'
p1205
aS'auto correct must stopped busta rhymes'
p1206
aS'song sounded like vista rhymes'
p1207
aS'finally going ride along'
p1208
aS'follow ring gave'
p1209
aS'guys love dresses'
p1210
aS'hope well cant wait temperance admire'
p1211
aS'note rhino dont mess giraffe'
p1212
aS'excuse spelling disrespect intended'
p1213
aS'want nicholas walters lomachenko'
p1214
aS'watch raise awareness inaccessibility solution pulled pork bbq4merica'
p1215
aS'accurate train'
p1216
aS'cant imagine life without children'
p1217
aS'posted photo'
p1218
aS'sparring never intended hurt brethren thats place learning hall'
p1219
aS'bruce legend'
p1220
aS'sleep many lifes failures people realize close success gave'
p1221
aS'thats beautiful work'
p1222
aS'amazing experience kick music royalty tito marlon jackson their\xe2\x80\xa6'
p1223
aS'jarreau'
p1224
aS'father always ampwill forever personal herohis benchmarks goals'
p1225
aS'happymonday'
p1226
aS'saturday training laced thee today thats training life things happen'
p1227
aS'still seger launching tour album'
p1228
aS'golovkin canelo respect good'
p1229
aS'iggy says music shouldn\xe2\x80\x99t money'
p1230
aS'peyton manning throws sets record career passing touchdowns'
p1231
aS'brief profiles exnazis getting benefits'
p1232
aS'questions every monday morning yahoo small business advisor'
p1233
aS'little mistakes sink retirement'
p1234
aS'review breeze bluetooth breathalyzer home style'
p1235
aS'spillers chance buffalo lasts less quarter fred jackson injury'
p1236
aS'since good chocolate milk'
p1237
aS'seas like come back really appreciate good'
p1238
aS'even problems country might still love'
p1239
aS'john kennedy saidask country youask countryi stand'
p1240
asS'2014_42'
p1241
(lp1242
S'isisam scared themnoam sick themdefinitely'
p1243
aS'government needs hire veteransif isis know suicide squad comingthere going worriedim willing country'
p1244
aS'older veterans compensation must extremely attractive familyscause planning come back'
p1245
aS'look like thisthey dont want peaceso would like give wanta thorough kickin'
p1246
aS'theres group veterans part vietnam gulf erawe personally want fight isisright'
p1247
aS'hamas resumes rocket fire israel claims \xe2\x80\x98false alarms\xe2\x80\x99 alleged coverup'
p1248
aS'hazards lambeau leap getting smothered condiments'
p1249
aS'grapples delicate issue returning jihadists'
p1250
aS'cant stop thinking homeless family street yesterday babylord help help'
p1251
aS'goliath encounter puppysized spider surprises scientist rainforest'
p1252
aS'journalist steps away knock video'
p1253
aS'times different know sugar leonard would fought gggbut know certainly wont'
p1254
aS'rock returns attacks rusev raw2014 full segment'
p1255
aS'powerful nicholas walters tkos nonito donaire sensational battle'
p1256
aS'nonito donaire nicholas walters highlights world championship'
p1257
aS'former american idol contestant joanne borgella dies cancer'
p1258
ag157
aS'want knowledge miller'
p1259
aS'people want real fight'
p1260
aS'today phone reading 4gbut malfunctioning royaly well'
p1261
aS'since away school forced troubleshoot learning steady goes'
p1262
aS'going take classes computer phone notebook gigsthe whole yardsthese devices malfunction high rate'
p1263
aS'doesnt dodge bring back style charger since others decided'
p1264
aS'besides everything elsemayweather fight pacquiao story'
p1265
aS'unfortunately gyms across world gladiator fights uncommon prepared'
p1266
aS'thank'
p1267
aS'thank'
p1268
aS'thank'
p1269
aS'thank'
p1270
aS'thanks shout brother'
p1271
aS'keep mind dont think forced gunpoint'
p1272
aS'seedy smokersunderground fights cant quit story believable'
p1273
aS'shouldnt homelessness hunger christopher columbuss america prosperity'
p1274
aS'roadwork morning passed family wifehusband3 children including babyhomeless sitting curb'
p1275
aS'furthermore people forgotten vietnam veterans support vietnam vetsthese brothers paid dues'
p1276
aS'yesterday veterans meetings theres depression angerampso forththese problems addressed'
p1277
aS'kelly slaters never gets lands'
p1278
aS'look peyton mannings record beyond'
p1279
aS'kevin hart makes plea save drivers'
p1280
aS'ohio girl bullied cutting hair cancer charity'
p1281
aS'freddie roach challenged floyd mayweather fight manny pacquiao weight'
p1282
aS'welterweight neil magny cusp historic year'
p1283
aS'turns hurricane coast hawaii'
p1284
aS'twitter like seeing tweets people dont follow ready'
p1285
aS'justin bieber gets ring floyd mayweather'
p1286
aS'report ferguson officer says feared life'
p1287
aS'golovkin eager extend streak rubio'
p1288
aS'chris algieri already promising hell beat pacquiao'
p1289
aS'floyd mayweather sued alleged 31minute sparring round'
p1290
aS'tomorrows promisedjust thinkyou made thee days werent promised eitherkeep faith'
p1291
aS'wire reunion paleyfest nearly quit nearly killed fans'
p1292
aS'jose aldo conor mcgregor nothing stands'
p1293
aS'gets life prison loud music killing'
p1294
aS'nicholas walters gives nonito donaire 5rds topshes going knocked'
p1295
aS'robert garcia says adrien broner would knocked cold rematch'
p1296
aS'amir khan stephen smithim faster better pacquiao'
p1297
aS'shut fight floyd says pacquiao 925000 buys ducking manny'
p1298
aS'mayweather explains refers manny pacquiao dude'
p1299
aS'anderson silva warning nick diaz disrespect things going happen'
p1300
aS'chael sonnen drugtest failures going apologize sorry'
p1301
aS'cramer says pull trigger bofa share'
p1302
aS'news host makes extremely racist comment democratic party'
p1303
aS'stocks keep plunging nowkiplinger'
p1304
aS'emanuel augustus could crip walk ring would still applaud true entertainer'
p1305
aS'emanuel augustus shot louisiana life support boxing news boxing crazy'
p1306
ag157
aS'you\xe2\x80\x99re listening final level podcast homie'
p1307
aS'yoke pleasant burden light matthew 1130 please retweet'
p1308
aS'kevin durant choose course treatment frightening foot injury'
p1309
aS'bono apologizes putting album everyones icloud library'
p1310
aS'custommade laptop cost 1400'
p1311
aS'gennady golovkin marco antonio rubio boxing preview harold lederman newsday'
p1312
aS'living dollar lives faces worlds'
p1313
aS'level could signal selling grasso'
p1314
aS'dropping serious ordnance slow isis kobani'
p1315
aS'hate fire like furnace time appearing psalm'
p1316
aS'clearing rumors kawasaki ninja'
p1317
aS'lakers look poised jeremy starting lineup steve nash permanently'
p1318
aS'aaron rodgers criticism going play play'
p1319
aS'punkturnedlecturer iggy take money music'
p1320
aS'tough enough exercises elite athletes perform'
p1321
aS'gordon hayward claims best player leaguewould crush lebron james league'
p1322
aS'video sergey kovalev hopkins number'
p1323
aS'netherlands says biker gangs fight islamic state'
p1324
aS'qampa marco antonio rubio'
p1325
aS'chris algieri skills beat manny pacquiao'
p1326
aS'cris cyborg track leaving ronda rousey nowhere'
p1327
aS'marvin gaye whats going full album vinyl original'
p1328
aS'video mmainfused rugby player fight results'
p1329
aS'aaron rodgers spike play actually terrible idea lucky away'
p1330
aS'isaiah \xe2\x80\x98ikey\xe2\x80\x99 owens keyboardist jack white dies tour'
p1331
aS'meet bank employee asked 10000 raise 200000 colleagues'
p1332
aS'going experiment radical change could make games even exciting'
p1333
aS'crabzilla crapzilla decide'
p1334
aS'perfect response people muslims violent tweet'
p1335
aS'mystery creature appears arms'
p1336
aS'bizarre alien creature caught singapore'
p1337
aS'perfect time marijuana stocks'
p1338
aS'profiled disc golfing watch'
p1339
aS'people phones film police'
p1340
aS'jerry jones told stop talking johnny manziel'
p1341
aS'take dangerous statins cholesterol drugs'
p1342
aS'legend norman lear even experience'
p1343
aS'giant dogtooth tuna becomes shark bait'
p1344
aS'bruce master master'
p1345
aS'fight thats almost inevitable wins retweet anthony joshua david price'
p1346
aS'chris algieri \xe2\x80\x98going beat legend\xe2\x80\x99 ferrall bench sports radio'
p1347
aS'jumbo squids attack greenpeace submarine'
p1348
aS'leandro damiao pulls shirt bizarre attempt deceive referee'
p1349
aS'prosthetic singing vietnam stolen eagles found'
p1350
aS'elizabeth warren obamas economic team chose wall street families'
p1351
aS'title loans financial drug many americans cant quit'
p1352
aS'ebola things never plane'
p1353
aS'watching live yahoolive'
p1354
aS'dayton kicker scores touchdown kickoff video'
p1355
aS'airline apologizes flight attendants treatment soldier'
p1356
aS'inside bashar assads torture chambers'
p1357
aS'exclusive years prison murder didnt commit'
p1358
aS'exciting join alex busansky meet mjsawards'
p1359
aS'gentleman asked today race told coloredi told colored tooi told everybody different'
p1360
aS'lady much better paige think weloveaj ajfansforever ajlee teamaj mainevent'
p1361
aS'girl backstage love girl definitely want keep'
p1362
aS'anthony joshua stops denis bakhtov round'
p1363
aS'floyd mayweather aint seen best mickey'
p1364
aS'paulie malignaggi discusses future fighting career'
p1365
aS'champ anthony pettis stop gilbert melendez'
p1366
aS'holly holm draws raquel pennington debut'
p1367
aS'jose aldo says conor mcgregor talk disrespectful'
p1368
aS'mcnamee tech stocks long term'
p1369
aS'signs floyd mayweather scared manny pacquiao wont sign contract'
p1370
aS'kickboxing results video buakaw loses forfeit kharitonov anderson silva'
p1371
aS'today fridayim days guarantold youill working family crests'
p1372
aS'love dream hooks'
p1373
aS'billy eichner blasts burger king \xe2\x80\x98stealing\xe2\x80\x99 \xe2\x80\x98billy street\xe2\x80\x99 video'
p1374
aS'ways stay safe kitchen'
p1375
aS'loudest head kick youll ever hear'
p1376
aS'jump'
p1377
aS'cellphone casually avoids disaster'
p1378
aS'last night daughter asked belt didnt answer heri smiledive practicing yearsthats'
p1379
aS'street survival seminar arvanitis mentioned jeetkunedo pankration'
p1380
aS'souvenirs brucelee weekend seattle october 2014 jeetkunedo martialarts'
p1381
aS'first wrapping chris algieri fight manny pacquiao great person better fighter'
p1382
aS'today kick life'
p1383
aS'peachy thinking lord thankful grace'
p1384
aS'real name country found folks indigenous parts land'
p1385
aS'columbus didnt discover america cant discover placeland country folks already late party'
p1386
aS'slip makes fall'
p1387
aS'better watch behind every skirt theres slip'
p1388
aS'time moving right along'
p1389
aS'make sure good kind others finer points character shine make home piece'
p1390
aS'sons coming home fake like cant something theyll popit works every time paid dues'
p1391
aS'monday feeling groovytranslation youngins swag thing goin'
p1392
aS'remember 19yrs oldit 70si thee armyamphaving time life stay sane back every nowampthen'
p1393
aS'daughter took last night presented said dont worryi know like'
p1394
ag157
aS'lets funk roll'
p1395
aS'strengthening gonzalo takes caribbean'
p1396
aS'build million retirement fund'
p1397
aS'floyd mayweather mark oscar hoya criticism'
p1398
aS'best coolerweather workouts'
p1399
aS'daughter loves birthday'
p1400
aS'welcome wonderful week well'
p1401
asS'2014_41'
p1402
(lp1403
S'damn feels good knowing lightening bolts feetamphands'
p1404
aS'found source vulnerability'
p1405
aS'definitely time'
p1406
aS'foot sits fountain youth mountain longevitygod calling'
p1407
aS'usually days offbut days busier work days'
p1408
aS'bestyou think secondlyampget firstthats badbut dont trip stone twicemanifest destiny coming'
p1409
aS'come folks afraid himhe wont make contact dont time play'
p1410
aS'thinking getting battery equipped hand cart cell phone'
p1411
aS'taking breakbeen going hours'
p1412
aS'train hard everyday fridays train dropi leave stone unturned next tries'
p1413
aS'study break fightersi know weaponry'
p1414
aS'student gameim master game'
p1415
aS'respect give right fighter beat mayweather adjustments round necessary'
p1416
aS'degrees hotdown workout sweat stay healthy times'
p1417
aS'thanks thee aracnid today name lefty cause right'
p1418
aS'bite wont last hand partially immobilized well'
p1419
aS'nothing respect tiny little spider fridayit hell whole pain little'
p1420
aS'feeling like todays task akin going rounds beltnot 12thats right rounds'
p1421
aS'always brother'
p1422
aS'board'
p1423
aS'high level professionalism gods gift humble gracious keep'
p1424
aS'today already started catching everything fargoing accordingly pace clean'
p1425
aS'video john david jackson shares insight bernard hopkins'
p1426
aS'ring magazine \xe2\x80\x98rumble jungle\xe2\x80\x99 years later'
p1427
aS'cornelius bundrage drops decisions carlos molina regains jrtitle'
p1428
aS'video former champ paul williams hits heavy'
p1429
aS'lovesweet love'
p1430
aS'hope everyone chance exercise thoughts today'
p1431
aS'communion'
p1432
aS'timesyou goyou better 1stalwaysyou better knees pray morning night'
p1433
aS'wastime moved ongot better lovewalked walk4 short assgrandmother lived'
p1434
aS'thats smooth'
p1435
aS'listen ever wonderful live rotterndampart611audio onlyat worknow homethis music'
p1436
aS'earth wind fire live rotterdam 1979 ever wonderfulaudio long'
p1437
aS'wait actually mistake rake leaves'
p1438
aS'noticed women pink shirts riding motorcycles today'
p1439
aS'today gave bums rush caught started fall apart regrouped adjusted groove'
p1440
aS'trouble distress find commandments still delight psalm 119143 please retweet'
p1441
aS'degrees possible thunderstorms rather coathatampgloves breakfast bowloff work'
p1442
aS'find guruto make'
p1443
aS'able back time mind remember timesthe future came fast'
p1444
aS'peaceblessedhumblejesus name'
p1445
aS'long days'
p1446
aS'love'
p1447
aS'earth wind fire live rotterdam 1979 ever wonderfulaudio'
p1448
aS'massive albino catfish landed spain'
p1449
aS'signs youre running wrong'
p1450
aS'workday sleep'
p1451
aS'stretches everyone getting'
p1452
aS'truth food additive'
p1453
aS'secret holding plank longer'
p1454
aS'ways flatten belly'
p1455
aS'quickie cardio ways jumping jacks'
p1456
aS'military moves transformed working'
p1457
aS'deal pain training'
p1458
aS'handstands health benefits knew'
p1459
aS'want banish back'
p1460
aS'right germs spreading office like wildfire'
p1461
aS'surprising signs might need detox fall'
p1462
aS'foods break immune system'
p1463
aS'best workout prevention'
p1464
aS'easy ways sneak workout office'
p1465
aS'kill'
p1466
aS'fruit vegetable washes'
p1467
aS'vegetables save life'
p1468
aS'fiveminute meals blast'
p1469
aS'shouldnt drink warm bottled water'
p1470
aS'moves breakfast'
p1471
aS'active sitting'
p1472
aS'planks probably arent'
p1473
aS'build home'
p1474
aS'worlds greatest stretch'
p1475
aS'getting bitten become life next'
p1476
aS'hospital dont play around bites'
p1477
aS'sick couple days'
p1478
aS'brown recluse spiderit hurts like hell'
p1479
aS'bless great weekend'
p1480
aS'forget bounce mind today'
p1481
aS'weather person says 79feels like 88ill'
p1482
aS'many thanks great weekend'
p1483
aS'time crawled 100yard storm drain florida fact realized could eaten'
p1484
aS'forgive weve forgiven matthew please retweet'
p1485
aS'rigondeauxs copromoter lashes manager hyde boxing news'
p1486
aS'women name hearts lips children'
p1487
aS'always funny come clothes wearing said dressed like tourist'
p1488
aS'love girls'
p1489
aS'theyre really funny'
p1490
aS'women taught much life'
p1491
aS'best moments ladys brutally honest husbands boyfriends'
p1492
aS'ladys trainwhen show film training purposes beat girls incomparable tool boxes'
p1493
aS'technique store gray matter duplicate ease'
p1494
aS'would never thought martial arts started 6768would relevant 2014not million years'
p1495
aS'trunks mornings shake body finally coming lifei could tell woke felt like civilian'
p1496
aS'floyd mayweather budden room push record minute show'
p1497
aS'taking little longer warm morning well golfthats course'
p1498
aS'andre dirrell stops nick brinson fifth straight'
p1499
aS'gilberto ramirez surpass canelo alvarez julio cesar chavez'
p1500
aS'floyd mayweather laughs warns amir khanfloyds gonna punish'
p1501
aS'chris bosh explains hard play lebron james superteam'
p1502
aS'purple brock lesnar dying'
p1503
aS'dominick cruz dillashaw team alpha fail head another keeps popping'
p1504
aS'ronda rousey cris \xe2\x80\x98cyborg\xe2\x80\x99 justino deserves international business times'
p1505
aS'dear white people theaters october'
p1506
aS'\xe2\x80\x98dear white people sundance raises questions continued racism \xe2\x80\x98postracial\xe2\x80\x99 america'
p1507
aS'marlon brando pacino francis ford coppola'
p1508
aS'friday kool closer monday'
p1509
ag157
aS'experiences make brilliant minds'
p1510
aS'yesboots asses'
p1511
aS'kicking folk boots mister chuck norris'
p1512
aS'also usarmy airborne stranger'
p1513
aS'timberlandsbest constructed bootsi lived combat jumpboots yearsnothing better comfortable boots'
p1514
aS'street record lossesthese many times people tried memy witnesss become students'
p1515
aS'timberlands always peoples blood themi throw wicked kicks boots magical power'
p1516
aS'truth work dark brown boot professional front shoe timberlandsthese babys perfectly balanced'
p1517
aS'comes head'
p1518
aS'feels lovely alive'
p1519
aS'earth wind fire live rotterdam 1979'
p1520
aS'floyd mayweather warns amir khan floyds gonna punish'
p1521
aS'mayweather rafael garcia retirerafael saved sons hands'
p1522
aS'paulie malignaggi explains khan might tough fight mayweather'
p1523
aS'floyd mayweather insists pacquiao happen'
p1524
aS'floyd mayweather talks pacquiao algieri'
p1525
aS'next manufacturers dateoctober 22ndoh yeahhappy birthday thomashitmanhearns division champion'
p1526
aS'mother daughter born october 14th respectfully 89amp20i love life'
p1527
aS'started faster caught passed behind keeping distance'
p1528
aS'time management tough'
p1529
aS'residual effect yesterday class full folks opposed hearing really cant take studys'
p1530
aS'biotech stocks near 52week lows worth buying exel npsp orex'
p1531
aS'downey tells letterman iron movie'
p1532
aS'breast pain stop worrying cancer'
p1533
aS'floyd mayweather gonna train michael jacksons fight'
p1534
aS'ronda rousey thinks cris santos embarrassed brazil'
p1535
aS'ronda rousey thinks cris cyborg santos embarrassed brazil'
p1536
aS'floyd mayweather puts pressure pacquiao make fight happen'
p1537
aS'sides somewhere youll'
p1538
aS'save'
p1539
aS'floyd mayweather puts pressure manny pacquiao make fight happen'
p1540
aS'throw words float verbs'
p1541
ag157
aS'tonight reserved rmaybe'
p1542
aS'students witnessed true application gentleman helped'
p1543
aS'personal recognition comes others successes shinethat means done diligence'
p1544
aS'nervous confident work hard dont corners students love cause leave stone unturned'
p1545
aS'minutes seconds better train certainty stand opponent apprehension'
p1546
aS'trim bushfor reason resonates head although time funny'
p1547
ag157
ag157
aS'heatwave always forever original version'
p1548
aS'still havent eaten anything today feel good looking forward tomorrow cant wait'
p1549
aS'student glen lbsfor reason people afraid himhes mild mannered nice young'
p1550
aS'today station gentleman harassing female studentshe stopped held sidekick head walked away'
p1551
aS'could take restaurant better experience skills'
p1552
aS'come house feeding good'
p1553
aS'request'
p1554
aS'plantains good natural food source know shouldnt frybut'
p1555
aS'thank crew stretched completely'
p1556
aS'aidaeyedaive known forever shes puerto rican princessshes nychigschool franklin lane'
p1557
aS'peacefulness spreads even serotonin activated gods love brings serenity baby girl epitome'
p1558
ag157
aS'yoga'
p1559
aS'anyone interested attending tomorrows bout must meet home thoroughbred drive'
p1560
aS'treating like outta control fireim putting'
p1561
aS'tomorrows outfit blackampwhite addidas leather trunks addidas shoes gloves kempo kenpo 10ozmatching mouthpiece lets'
p1562
aS'keep mind business prepared case switch opponents last minute like'
p1563
aS'today stretch meditate bringing 239th fighter squadron case boys upset tomorrow well'
p1564
aS'take good look tomorrow eggs going scrambled gaurentold done'
p1565
aS'heavy boots 100lb weight vestno fight harder training'
p1566
aS'plan styles along speedpowergeneralship lateral movement training times harder fight'
p1567
aS'tomorrows boutno holds barred time limit opponent seen outta less minutesguaranteed'
p1568
aS'overall todays peachy havent eaten strength maximumtomorrow underground fight opponent worries'
p1569
aS'midst martial arts greatness therefore todays episode entitled show yoursampill show mine'
p1570
aS'stocks decline second forecast cuts'
p1571
aS'admittedly wasnt great night sweden fight night nelson story event ericsson'
p1572
aS'fight schedule october 81011 fights'
p1573
aS'responsibilities tasked must find make enjoyable wise youll going motions'
p1574
aS'getting ready leave residence pick dead presidentsthe grass needs weededdomestic items needed'
p1575
aS'homeless talking like talking thought talking'
p1576
aS'alfonso ribeiro brought back carlton dance \xe2\x80\x98dwts\xe2\x80\x99'
p1577
aS'first takes drink drink takes drink drink takes japanese proverb'
p1578
aS'calm night prevails else'
p1579
aS'next unscheduled mugging occurs kronki become thomashitmanhearnstranslation right hand crazy'
p1580
aS'rickthe horrorstoryi love fight keep good work'
p1581
aS'home start relax thee energy starts dissipate'
p1582
aS'part great sense humor make gauntlet call life'
p1583
aS'daughter wanted switch company record programs onceso outta'
p1584
aS'cable mistake thisthey breakwhen gotta goyou gotta returning thee equipment'
p1585
ag157
aS'rather earth wind fire featurin\xe2\x80\xa6'
p1586
aS'meyou benitez duranleonard hearnsmy soul objective make sure opposition left horizontal immobilized'
p1587
aS'truthfully workouts always done extreme conditions uncomfortable better'
p1588
aS'must admit todays pace uncomfortable handling easy training prepares lifes workout outta monents'
p1589
aS'today gone tomorrow beckons ready shall bebeing victorious already afterthought gods shine thee'
p1590
aS'thank anita making pleasant much appreciated'
p1591
asS'2014_40'
p1592
(lp1593
S'video mosley says like mayweather face faster opponents'
p1594
aS'barthelemy dominates saucedo karpency shocks dawson'
p1595
aS'road work'
p1596
aS'todays workout done time mile'
p1597
aS'many many thanks doctor avala treatments gave wednesday today pain free ready another innings'
p1598
aS'last days havent slept hours today functioning high level today phsycally mentally'
p1599
aS'certainly challenging schedulei sure miss sbklive'
p1600
aS'today definitely feeling peachy already saturday fits like good pair briefs'
p1601
aS'thank'
p1602
aS'thank'
p1603
aS'thank'
p1604
aS'good morningonce surely missed morningsoh wellthats goes guesshave nice'
p1605
aS'face failed test ufcs cung denies'
p1606
aS'dana white conor mcgregor next line title shot'
p1607
aS'barthelemy puts belt line saucedo'
p1608
aS'soliman jermain taylors size issue'
p1609
aS'king liable canceled title fight boxers drug test'
p1610
aS'still years later anniversary floyd mayweathers first world title'
p1611
aS'morning reportjoe rogan comments stoolgate believes yoel romero disqualified'
p1612
aS'lebron james already instructing cavaliers coach david blatts offense'
p1613
aS'drink ingestibles'
p1614
aS'sports supplements actually work'
p1615
aS'poker says preys casinos legal means'
p1616
aS'unfortunately snakes deceased drew bloodwhat reflexive retaliatory well smart survive'
p1617
aS'snake twice since living florida time southeast coral snakethe time water mocosin'
p1618
aS'beginning animals florida overwhelming became thus moniker alligator allee'
p1619
aS'butterfly landed went sleep never woke upso creations possession'
p1620
aS'bird nest attacked hawk left unattended moma bird attempted fight larger hawk'
p1621
aS'condolences familymay rest peace bless family time lossgod bless hisamphim'
p1622
aS'although raining outside still lovely night enjoy safetonights episode entitled thee beginning'
p1623
aS'daughter friend disco'
p1624
aS'training woman observed martial expertise wrote kind letterit heart felt'
p1625
aS'intended chucky annabelle frightening butterfly'
p1626
aS'really cant anyone defeating jose aldo jrthis young tool fighters envy'
p1627
aS'conor mcgregor going 155lbs tells knows jose aldo walk parka loss would crush mcgregor momentumno'
p1628
aS'thee inscription says'
p1629
aS'shower time'
p1630
aS'guys woman name hearts lips childrenremember anything stupid'
p1631
aS'clint eastwoods characterdirty harry saida mans know limitations least shut motor'
p1632
aS'many many thanks sisterhave great couple daysthink working saturdayampsunday smile'
p1633
aS'going strong since 630amso shift gears shut eveningthe workoutamprun completed'
p1634
aS'thing grass homeowners association wants properties kept totally concur thisbut tonight'
p1635
aS'supposed grass 711pm mosquitos laying wait meso therefore operation grass'
p1636
aS'koolcarefulampcollected make home pieceyou family least much'
p1637
aS'dorothy saida matter fact said timestheres place like home'
p1638
aS'many thanks brotherhave good night great weekend'
p1639
ag157
aS'jarreau singing'
p1640
aS'funny function better sleep sleep figure besides today really good hope'
p1641
aS'mother daughter born october 14th'
p1642
aS'loves holiday'
p1643
aS'hoping today days requires minamal skill input output depending circumstances'
p1644
aS'life days maze complete speared gauntlet walls holesyou watch supposed protect'
p1645
aS'would entitled socio economically depressed miscreant deviant deserves life prison'
p1646
aS'theyre good people made decisions'
p1647
aS'completed miles 100lb weight vest today friday think thats good'
p1648
aS'watch huge container ships crash'
p1649
aS'meet medical student wants bring'
p1650
aS'officer darren wilson shooting michael brown msnbcdiscuss'
p1651
aS'nugent slams ferguson thugs plague black violence'
p1652
aS'antonio rodrigo nogueira wants frank next'
p1653
aS'mayweathers bugatti pulls'
p1654
aS'locker room rosie perez'
p1655
aS'boxing need sugar leonard answers'
p1656
aS'chewing teeth dnews'
p1657
aS'stan galiev scores amazing betweenthelegs goal video'
p1658
aS'sheheen calls confederate flag come myrtle beachflorence weather'
p1659
aS'republicans lack courage jobs planpresident obama'
p1660
aS'hong kong leaders daughter bragged fabulous taxpayerfunded life social media'
p1661
aS'feet health diabetes'
p1662
aS'greta president obama petty childish mocking news'
p1663
aS'conor mcgregor wants diego sanchez mexico title shot instead'
p1664
aS'live lives worthy lord pleasing every colossians please retweet'
p1665
aS'jesus bread life come unto hungry thirsty righteousness'
p1666
aS'voxsports road roaroftigers stephan langdown watch'
p1667
aS'dear past thanks lessons dear future ready'
p1668
aS'fitness isnt better someone else better'
p1669
aS'open eyes look within satisfied life youre living'
p1670
aS'thursday workout jumping jacks vertical crunches squats pushups russian twists plank\xe2\x80\xa6'
p1671
aS'lord you\xe2\x80\x99ll surround shouts victory psalm please retweet'
p1672
aS'restless situps lunges jumping jacks'
p1673
aS'years difference makes'
p1674
aS'good brother'
p1675
aS'best fight time'
p1676
aS'video champ randy couture excellent dancing'
p1677
aS'video champ randy couture dancing stars'
p1678
aS'rashad evans wants alexander gustafsson upon return'
p1679
aS'holly holm likely make debut vegas'
p1680
aS'anthony pettis playboy champion'
p1681
aS'bethe correia ronda rousey isnt best'
p1682
aS'conor mcgregor warns lightweights'
p1683
aS'conor mcgregor suggests jose aldo renan barao weak minded nova uniao'
p1684
aS'face failed test ufcs cung denies'
p1685
aS'quadriplegic texas woman defies odds walks becomes pregnant'
p1686
aS'seattlearea grocery clerk chases stabs suspected shoplifter'
p1687
aS'watch take isis compound \xe2\x80\x98sniper\xe2\x80\x99 weapon'
p1688
aS'king liable canceled title fight boxers drug test'
p1689
aS'crawfordbeltran potential foty'
p1690
aS'haymons ultimate power move could take bigtime boxing back network'
p1691
aS'hassan ndam title shot rout curtis stevens'
p1692
aS'consideration canelo alvarez'
p1693
aS'mayor killed wife lyvette crespo victim domestic violence daniel crespo'
p1694
aS'manny pacquiao provoked floyd mayweather'
p1695
aS'michael koncz answered floyd mayweathers challenge manny pacquiao'
p1696
aS'p90x guru helps 7eleven serve'
p1697
aS'maroon animals video blasted sexual assault group'
p1698
aS'million mecca start hajj'
p1699
aS'saudi arabia million mecca start hajj'
p1700
aS'lebron james dunks betweenthelegs pass kyrie irving cavaliers open scrimmage'
p1701
aS'three snowsports legends killed south american avalanches'
p1702
aS'shopping plussize model denise bidot made face body issues'
p1703
aS'north korea prepares launch site longerrange rockets report'
p1704
aS'watch wasp scare meteorologist live'
p1705
aS'robert duvall robert downey make family affair judge premiere'
p1706
aS'earth wind fire concert live oakland colis\xe2\x80\xa6 special enjoy'
p1707
aS'chicago cant original name chicago transit authority sued transit authority'
p1708
aS'asked economy movement took ballet improved balance coordinationlateral movement spinning'
p1709
aS'karate chop looks like slow motion'
p1710
aS'frank stallone believes floyd mayweather fight manny pacquiao'
p1711
aS'isley brothers harvest world'
p1712
aS'outside distractions coming fast take tasks core always better priests chirespected'
p1713
aS'nights groovin mind improving souls desire collective fire love soulbetter told'
p1714
aS'joes decorfamily friendly'
p1715
aS'come joes pizza best pizza side wacoits actually gotha florida blocks home'
p1716
aS'youngest daughter going love life'
p1717
aS'body 55blood pressure medications nonelike said attributed bruce lees jest june'
p1718
aS'limit universe beyond dont fall prey everyday brainwashing tactics'
p1719
aS'faith love enemies unconditionally rent space penthouseyour head'
p1720
aS'people disparaging things including cant cant best revenge success'
p1721
aS'looks right time right'
p1722
aS'cant around sayingtbe best ever dont fight every championsamp contendersyou asterisk'
p1723
aS'rampage arona powerbomb'
p1724
aS'60s70s fighters champions fought claim boxing supremacy'
p1725
aS'think thinking pacquiao chance taking'
p1726
aS'knowmr'
p1727
aS'claim bestthen step fight manotherwise legacy defined didnt fight'
p1728
aS'theres nothing wrong moniker certified'
p1729
aS'make time exercise youll making time doctors visits'
p1730
aS'andropov weighing 255lbshe speed middleweight'
p1731
aS'weighing today 195lbs standing 10indidnt lose pound rounds sparring goodthe muscle solid'
p1732
aS'feel pretty goodnot gassed allactually wind muscle structure recovering really wellearlier miles boots'
p1733
aS'sparred minute rounds russian studenthes 255lbseverything went wella contusions hereampthere'
p1734
aS'life lesson live within bounds scripture power christ change world'
p1735
aS'pacquiaomayweather fear'
p1736
aS'chris weidman want make mockery vitor belfort'
p1737
aS'kennedy john mccarthy fucked majorly fight\xe2\x80\x99'
p1738
aS'hibbert texted duncan learn spurs'
p1739
aS'images make cringe'
p1740
aS'gorgeous photos teenager getting arrested trespassing'
p1741
aS'unhealthiest fall comfort foods'
p1742
aS'oscar hoya canelo alvarez back fighter wanted'
p1743
aS'fight night prelims preview predictions macdonald saffiedine halifax'
p1744
aS'sugar leonard pacquiaomayweather needs happen'
p1745
aS'pedro martinez rips yost royals wildcard'
p1746
aS'shark shark giant great white attacks another great white'
p1747
aS'fiveairbus formation flight beautiful crazy sounds'
p1748
aS'stocks double include dryships nasdaq drysread wall'
p1749
aS'conor mcgregor unhappy featherweight open eventual move pounds'
p1750
aS'mikey garcia talks promotional issues possible fight manny pacquiao'
p1751
aS'aint nothin work'
p1752
aS'floyd mayweather pick amir khan manny pacquiaouncle jeff international business times'
p1753
aS'prince 3rdeyegirl bear gifts kendrick lamar appearance rita snippet exclusive paisley'
p1754
aS'watching live yahoolive'
p1755
aS'\xe2\x80\x9cbeauty gladiator\xe2\x80\x9d jodie patterson mission'
p1756
aS'germs office often found keyboards coffee stations'
p1757
aS'boston marathon bombing suspects sister appears court alleged bomb threat'
p1758
aS'mothers ultimate sacrifice newborn'
p1759
aS'cung tests positive receives ninemonth'
p1760
aS'dont worry bout ting'
p1761
aS'life would pretty boring nothing responsibilities would like figure'
p1762
aS'please support susan komen cure breast cancer'
p1763
aS'rigo'
p1764
aS'happy birthday best year life happybirthdaymax send wish'
p1765
aS'todays pugilistic tune impromptu consolidated advised kind injury wear tear'
p1766
aS'music review robin gibb shines final album news'
p1767
aS'sugar leonard appealed manny pacquiao floyd mayweather'
p1768
aS'morning brings prayer good coffee'
p1769
aS'aretha franklin takes adele sings rolling deep listen'
p1770
aS'aretha franklin covered adeles rolling deep also autotune'
p1771
aS'alqaida leader warns revenge airstrikes'
p1772
aS'bodies found japan volcano toll'
p1773
aS'police many minors site nightclub shooting'
p1774
aS'university virginia student hannah graham'
p1775
aS'interview militants syria'
p1776
aS'845000 porsche spyder burns ground canadian station'
p1777
aS'sheila talks relationships prince santana wants turn memoir movie'
p1778
aS'hail prince king fashion'
p1779
aS'skillthe plan must economy movement make reach algeri time done'
p1780
aS'beat siberian broken rhythm turn leftit enulify power well movement'
p1781
aS'seth rollins faster jack rabbit rawchicago'
p1782
aS'love rawchicago'
p1783
aS'dean ambrose rawchicago'
p1784
aS'punk rawchicago'
p1785
aS'really didnt want drive placeoh well'
p1786
aS'came back dealer dealer insisted test drive muscle car4speedi feel badly took sick back seat'
p1787
aS'phone actually believes home field advantage'
p1788
aS'phones persona isat home always winsworkstake different arenasometimes losesdoesnt work'
p1789
aS'joseph diaz raul hidalgo tonight 10pmet boxing goldenboylive'
p1790
aS'episode afraid available free download'
p1791
aS'nonsense show'
p1792
aS'aloha matty available'
p1793
aS'follow show retweet others follow enjoy well okaythanksloveyoubye'
p1794
aS'follow cohost drewster cogburn'
p1795
aS'brilliant pictures beatles'
p1796
aS'artur beterbiev tavoris cloud'
p1797
aS'artur beterbiev favorite fighter'
p1798
aS'jones hany atiyo full fight 26092014'
p1799
aS'video jones works russia'
p1800
aS'pacquiao pities mayweather'
p1801
aS'prince 3rdeyegirls plectrumelectrumartofficialage release party stream yahoo tuesday'
p1802
aS'floyd mayweather declares belt vacant avoid manny pacquiao'
p1803
aS'manny pacquiao saul canelo alvarez unimpressed floyd mayweather'
p1804
aS'juan manuel lopez regrets career goes'
p1805
aS'anything pugilism right alley cant enough'
p1806
aS'time favorite belt poster wall living room'
p1807
aS'great teaching class right join'
p1808
aS'miss broke desperate payperview numbers joke'
p1809
ag157
aS'upright people god\xe2\x80\x99s face psalm please retweet'
p1810
aS'donovan finale episode season next year hooked showsexcellent acting class actors'
p1811
aS'trish stratus went legend yoga icon boston'
p1812
aS'trish stratus current state wwes divas division ribs actor danny glover'
p1813
aS'news hope solo domestic abuse double standard'
p1814
aS'understand risk heart attack'
p1815
aS'brian ebersole thinks conor mcgregor acted like jackass fight week'
p1816
aS'held north korea describes life prison camp'
p1817
aS'qaeda isis spectacular falling heres happened'
p1818
aS'nicholas kristof sheryl wudunn path appears'
p1819
aS'sore workout isnt always good thing'
p1820
aS'outrageous shoes milan fashion week'
p1821
aS'dancing traffic cops'
p1822
aS'watch ohio state strength coach anthony schlegel bodyslams runs field'
p1823
aS'real bantamweight champ dominick cruz dillashaw find'
p1824
aS'cent sees photo marquise jackson floyd mayweather'
p1825
aS'yoel romero unhappy kennedy exchange words backstage'
p1826
aS'beware cobra effect incentives backfire badly'
p1827
asS'2014_32'
p1828
(lp1829
S'arch'
p1830
aS'want shoot people plenty guess shoot whomever please businesses usual'
p1831
aS'never going worth innocent life wanna fight coming kick assthis damn america'
p1832
aS'thinking whats korea vietnam love everyonethere world peace starving'
p1833
aS'thing tell snakes everywhere'
p1834
aS'friday remove weird creator backcreator dont books'
p1835
aS'believe theres snake housethats biggiethe confrontation starts otheri cant snake sliding'
p1836
aS'heardwitnessed isis coming americasome play secret agentterrorist notim former armyim willing right'
p1837
aS'daniel cormier says brawl proud moment would react jones'
p1838
aS'lion snaps wing mirror twig'
p1839
aS'iranian plane crashes killing'
p1840
aS'iranian plane crashes takeoff killing'
p1841
aS'missouri crowd shooting kill police'
p1842
aS'searching alligator attacked boyafter first taste human flesh alligator addicted taste smell'
p1843
aS'panel pops information exactly find later'
p1844
aS'early coffees good news thats world'
p1845
aS'phil collins something happened'
p1846
aS'phil collins saturday night sunday morning'
p1847
aS'father'
p1848
aS'phil collins find heart well'
p1849
aS'recent stats followers unfollowers statistics'
p1850
aS'wasnt'
p1851
aS'intensity cheese omelet afterburnwheeeeewwwwwweeeee'
p1852
aS'call help'
p1853
aS'gave graceim still goodthose around goodthe fatherthe sonthe holy ghost'
p1854
aS'indonesians hope find lost tsunami reunion daughter'
p1855
aS'kurdish pleas weapons finally heard'
p1856
aS'worlds shark attack hotspots discovery channel yahoo screen'
p1857
aS'reading adorable newborn baby rumble yahoo screen'
p1858
aS'years later charles manson still draws attention national news wgal home'
p1859
aS'iraq official militants hold 100s yazidi women'
p1860
aS'tracy morgan gets well wishes cool busta rhymes president obama'
p1861
aS'paul heyman brock lesnar fought'
p1862
aS'coffee good2nd'
p1863
aS'ebola doctor kent brantly growing stronger every'
p1864
aS'floyd mayweather posts instagram sponge bath video'
p1865
aS'russiaroaming closer airspace'
p1866
aS'russian nuclear bombers keep roaming closer airspace'
p1867
aS'josh koshceck announced television broadcaster'
p1868
aS'video evander holyfield says mayweather running boxing'
p1869
aS'recent stats followers unfollowers statistics'
p1870
aS'dont rush gravy'
p1871
aS'finish turn pass joint meditate gopalates time thats needed'
p1872
aS'switching gears'
p1873
aS'idris elba thats call wire'
p1874
aS'seen close'
p1875
aS'bird killsampeats snakes'
p1876
aS'bird ground reddish grey dark moroon shes ampf22big beautiful eyes fast catches squirrels everyday'
p1877
aS'400lb bearsamp10ft alligators show front yard'
p1878
aS'took classes snakesand classes knife fighting'
p1879
aS'hearyou laundry room5 snake welcome youvery fast'
p1880
aS'snake bite went bonei could hearampfeel crunch'
p1881
aS'spider pass mach speedi previously bitten snakesthat shit hurts'
p1882
aS'outta'
p1883
aS'standing spideron handbefroe could reflex goneup armhes going bite shit'
p1884
aS'watch competitive mmaboxingampobserve certain important small nuances handsampfeeti secret'
p1885
aS'trayvon martin cartoon compares efforts impeach president obama george zimmerman'
p1886
ag157
aS'killed hoodie national news wgal home'
p1887
aS'holly holm knows came target back'
p1888
aS'geraldo trayvon martin killed hoodie national news wgal home'
p1889
aS'things need know today august 2014'
p1890
aS'lies supporting israels gaza'
p1891
aS'california could power using nothing renewables'
p1892
aS'pain regret tattooing jiminy cricket breast'
p1893
aS'would usrussia look like'
p1894
aS'grammar rules really attention'
p1895
aS'party became corrupt beltway loathes'
p1896
aS'ebola drug firm shares bonkers announcement'
p1897
aS'stewart takes rand paul task israel hypocrisy video'
p1898
aS'lamar alexander fends party tenn'
p1899
aS'paige vanzant become youngest woman'
p1900
aS'airstrikes undertaken reengages iraq'
p1901
aS'wwelet alberto riodel never brokehe lookscharmsampcharismadel gets billing prof griff'
p1902
aS'next wants pioneer mental farts thru thats kool'
p1903
aS'recent stats followers unfollowers statistics'
p1904
aS'wesley snipes prison'
p1905
aS'wesley snipes prison can\xe2\x80\x99t take life seriously\xe2\x80\x99'
p1906
aS'fighter captures towering fire clouds california photos'
p1907
aS'clear link found vitamin deficiency alzheimers disease'
p1908
aS'well gopain management followed neurosurgeon somewhere along journeymaybe maybe find whats wrong'
p1909
aS'welcome beautiful'
p1910
aS'fine fine fine fine'
p1911
aS'dont need make uptheres outstanding things instance love terrific legs'
p1912
aS'still gorgeousstriking actuallyfrom head toeyour thee reason wished youngeryour beautiful young lady'
p1913
aS'hello still geourgius'
p1914
aS'bomb'
p1915
aS'earth wind fire fantasy 1977 hornsthe pianothe guitars drumscanvasthe bassbackground vocals'
p1916
aS'ebola sparks states emergency across west africa'
p1917
aS'facebook tracking'
p1918
aS'launches questioning expow bergdahl'
p1919
aS'russia bans western food ukraine sanctions'
p1920
aS'obama sanctions straining russian economy'
p1921
aS'obama weighs airstrikes help trapped iraqis officials'
p1922
aS'realjust cock head left right'
p1923
aS'middle ground causes longevity unnecessary suffering ones demise based suffocation'
p1924
aS'wrestingjudojujitsuaikido something common wing chun'
p1925
aS'hayward nishiokai knew judo shortly started martial arts 1968'
p1926
aS'gene bell ever mixed martial arts championhe regularly guest starred green hornet bruce'
p1927
aS'folks walked touched shoulderbowfist clenchhand knuckle pass onyou many different styles'
p1928
aS'armsamplegs brokenblood stain wallseveryday couple people knocked regular basis'
p1929
aS'franciscohe came house time cubanand student petepanamanianpeople place sparring'
p1930
aS'1973my brother lenny came home marines handed gloves glove'
p1931
aS'brother leonard broke record thousand periodhe walked hands'
p1932
aS'brother gerard didnt like kicking said girlsi beat mastershe brutalized weapons tech'
p1933
aS'brothermarineleonard super athletehe walked rail story buildinghe could wheelys moneythis 1969'
p1934
aS'talking dont want hear besides good morning'
p1935
aS'emergency responders break window free doll seat'
p1936
aS'commuters band together rescue trapped train platform'
p1937
aS'brutus giant crocodile attacks shark australia'
p1938
aS'5htmlsocsrcmediacontentstory'
p1939
aS'monkey selfie'
p1940
aS'monkey selfie sparks intellectual property debate'
p1941
aS'recent stats followers unfollowers statistics'
p1942
aS'wish could make bloody crashes'
p1943
aS'thee economy good bottomfolks deserve live goodclass struggle alwaysnevermind'
p1944
aS'send folks trip luggage includedfly wigcrop crop topreal skullian'
p1945
aS'back yard energy came hands'
p1946
aS'received floridai wanna thank stick kids'
p1947
aS'compounded arrow points directions'
p1948
aS'136etc'
p1949
aS'wing chunthe four cornerschi saosticky handsi logged million wing chun miles'
p1950
aS'throw better'
p1951
aS'young showoffthee pretty'
p1952
aS'could tell something definitely cooked 1971i started busting folks fought parksparking lotsthe ladys love winners'
p1953
aS'kicked went back next daygot kicked moremy blood wall'
p1954
aS'earlier studio work used kicked sessions60sblack eyes busted nosesbusted shins'
p1955
aS'sockets render useless thats gung'
p1956
aS'droping people easyfoot work puts positioni grab kick punch yank socketviscous shit'
p1957
aS'could always crowdgot witness bonnie'
p1958
aS'yeah jumped never beaten crowd easyi push handspeople flyingone handdouble hand horse stance'
p1959
aS'bone breaking shot contusionspeed knot shit'
p1960
aS'kinda love makes knees like eats cheese'
p1961
aS'apartments stuck together called apartments'
p1962
aS'feel sorry little richardhe windshe says elvis stole moves'
p1963
aS'arthur prysock'
p1964
aS'culture heavenly influenced koolshaftsuperfly'
p1965
aS'groovin long cats swaggin soul'
p1966
aS'children created synchronicityit comes love baby come love'
p1967
aS'earth wind fire cant live 1980 brazillisten soul sexy love'
p1968
aS'video hank lundy might trouble beltran'
p1969
aS'anthony johnson nobody call outim going champ'
p1970
aS'knowing various styles advantages still defend'
p1971
aS'shelf'
p1972
aS'injured psychically demanding sport coursewhatever wrong thigh serioustheres painampburn'
p1973
aS'several judoampjujitsu black belts came techsunbeknownst meive learned says nono means'
p1974
aS'packednew faces everywhereall could watchconscientious objector status idoc tomorrowneurosurgeon friday'
p1975
aS'except getting oldbut life physically things happen control'
p1976
aS'today trickydealing body malfunction something going right thighit gets numb weak periodically'
p1977
aS'times hear eyes ears circumvent ready'
p1978
aS'growing learned self defense need self defense bullet proof vestkevlar firearm world ghetto'
p1979
aS'getting ready listening news hearing folks shot'
p1980
aS'health professionals warn serious risks related thigh trend'
p1981
aS'goldman sachs knows whats going happen starts raising interest rates'
p1982
aS'scottie pippen greatest chicago bulls player ever mind'
p1983
aS'fugitive bankers life included drug trafficking fake'
p1984
aS'grandmother saves grandson rare otter attack'
p1985
aS'party lose final battles kansas tennessee'
p1986
aS'brutus giant crocodile attacks shark australia'
p1987
aS'brooks charges whites democrats'
p1988
aS'recent stats followers unfollowers statistics'
p1989
aS'limits beginning universe awaits'
p1990
aS'cancer survivor daniel jacobs world title'
p1991
aS'hitler mustache else learned world wars\xe2\x80\x99'
p1992
ag157
aS'last night doctors office puerto rican nurse fine forgot paini aint ashamed fell love'
p1993
aS'heat spicy food world championship'
p1994
aS'afghan soldier kills general wounds'
p1995
aS'dogs sausages look jazzy'
p1996
ag157
ag157
aS'thing admired went forwardive always admired depositionampyour faithim rooting youyouve already'
p1997
aS'sylvester stallone brings entourage expendables world premiere'
p1998
aS'shelf thursday neurosurgeon friday peachy well roadthe scenery'
p1999
aS'absolute gentleman well notch professional boxer gold medal pedigree'
p2000
aS'told last night restthis time choice'
p2001
aS'child father would always better enjoy cause older time always witnesses thee folks'
p2002
aS'night hurting really good seems pain somewhat different could worse'
p2003
aS'jones cormier speak following media inciden'
p2004
aS'jonesdaniel cormier brawl shows dangerous side fight game'
p2005
aS'given spirit fear power love sound mind 2timothy'
p2006
aS'recent stats followers unfollowers statistics'
p2007
ag157
aS'soul trust well soul'
p2008
aS'think girls tough wait smash skulls theaters'
p2009
aS'getting treatment friend pain'
p2010
aS'sbkangelmatti really miss cats know folks miss sbklive especially racists enjoyed hearing speak'
p2011
aS'truly miss sbkliveto much much entertainment radio show cats voice reason'
p2012
aS'always reminded never complain others subjected glory'
p2013
ag157
ag157
ag157
aS'female students thats want'
p2014
aS'good morning everyone hope everyone blessed'
p2015
aS'scholars know shown taughtno attempt reach knowledgetimeenergy precious'
p2016
aS'yesterday several socalled scholars tried bait racially charged debateargumentnoas would solved nothing'
p2017
aS'eight things starting letter didn\xe2\x80\x99t know racist'
p2018
aS'basic marinade time also best'
p2019
aS'bolt steals show take commonwealth gold'
p2020
aS'jones\xe2\x80\x99 social media foray give daniel cormier target'
p2021
aS'manny pacquiao purchases stake asian promotion'
p2022
aS'nate diaz\xe2\x80\x99s manager says trying client fight biting'
p2023
aS'fedor emelianenko prime want fight cain velasquez'
p2024
aS'klitschkobriggs wild restaurant showdown'
p2025
aS'shannon briggsis excitement heavyweight boxing seen years'
p2026
aS'recent stats followers unfollowers statistics'
p2027
asS'2014_33'
p2028
(lp2029
S'beat dcbe ready youve never train leave nothing'
p2030
aS'types sparring today street attack'
p2031
aS'sister rosemary'
p2032
aS'2to31y9our'
p2033
aS'recent stats followers unfollowers statistics'
p2034
aS'special'
p2035
aS'nigel benn'
p2036
ag157
aS'gets break'
p2037
aS'bring back 15rds'
p2038
aS'soul'
p2039
aS'omar without wire'
p2040
aS'fuck nine shit'
p2041
aS'fightyou love'
p2042
aS'special nottingham says lets'
p2043
ag157
aS'likes fight work body needs'
p2044
aS'love'
p2045
aS'love life'
p2046
aS'advanced children read'
p2047
aS'early lifei weakyour childrenpush upschin upspull upswith love'
p2048
aS'could know jeet kune dobut dowing chun start'
p2049
aS'punches missed'
p2050
aS'without dprepare pain short career'
p2051
aS'timing figured 9out'
p2052
aS'fire would emotion'
p2053
aS'tonight warrior nightthe ones tonight ones colorsomar walk fire'
p2054
aS'showtime sports onlets'
p2055
aS'bill clinton meeting kennedy high school'
p2056
aS'gathered comparison'
p2057
aS'healthy influence horns well horn sections staccato riffs janis joplin'
p2058
aS'listening news typei thank giving grace protection holy spirit'
p2059
aS'vast music collection need particular mood revivali 50s60s especially'
p2060
aS'delilah jones original 1968'
p2061
aS'kell brook verge quitting wants show porter'
p2062
aS'love fact father soulampjazzmy listening nightversatility thee'
p2063
aS'shawn porter kell brook full weigh face video backstage'
p2064
aS'best songs ever written imagi\xe2\x80\xa6'
p2065
aS'wonderful world louis armstrong'
p2066
aS'recent stats followers unfollowers statistics'
p2067
aS'estrada still mourning fights title'
p2068
aS'paul heyman talks brocks schedule ronda rousey tons wrestling news'
p2069
aS'police identify officer allege teen robbed store'
p2070
aS'observations todays agenda accomplishedtimes early theres doneor throw towel'
p2071
aS'seems gets wallonly mountain wonder cold ocean feel ocean breeze'
p2072
aS'kell brook says welterweight fight champion shawn porter help time'
p2073
aS'class overtime errands friday dayfriday justs closer monday little break break'
p2074
aS'sharing knowledge lifes particularitys truly live'
p2075
aS'porter brook final presser quotes everybody better stay'
p2076
aS'early showered ready classes preservation restoration anything else throw'
p2077
aS'recent stats followers unfollowers statistics'
p2078
aS'role recall dolph lundgren rocky heman'
p2079
aS'rare opah catch might world record'
p2080
aS'showtime shawn porterhe slug wrestlelets whats special'
p2081
aS'floyd mayweather indio fight slug'
p2082
aS'iraq strikes obama says broke siege'
p2083
aS'omar figueroa hands registered weaponsi love'
p2084
aS'anthony dirrell bika knows last fighthe cant touch'
p2085
aS'omar figueroa daniel estrada clash punched'
p2086
aS'sakio bika anthony dirrell much stronger'
p2087
aS'kell brook shawn porter showdown refuse loseget popcorn'
p2088
aS'sakio bika anthony dirrell clash want attack relentlessly'
p2089
aS'recent stats followers unfollowers statistics'
p2090
aS'robin williams fans turn toward visions heaven dreams come'
p2091
aS'vitor belfort chris weidman would crazy stand'
p2092
aS'ronda rousey gets rave reviews expendables costars'
p2093
aS'zelda williams suspends social media wake fathers death'
p2094
aS'dust couple alligators creek'
p2095
aS'ladys lets beachi nolater daythat beachshark attack'
p2096
aS'typically gets nervous taking adversary story done maximise entire experience'
p2097
aS'shawn porter kell brook theres nothing style'
p2098
aS'amir mansour igot business fighting damn like deontay wilder'
p2099
aS'recent stats followers unfollowers statistics'
p2100
aS'todays events fair unkool'
p2101
aS'coming port side 321you look wonderful'
p2102
aS'find much money made mistakes buzzfeed yahoo screen'
p2103
aS'bike theft victim leaves thief hilarious note'
p2104
aS'someone found unbeatable goomba super mario'
p2105
aS'onerepublic onerepublic'
p2106
aS'robin williams daughter zelda tweets love miss keep looking'
p2107
aS'anthony dirrell sakio bika going fighter'
p2108
aS'watching crew awesome sparring ladys point conscientious objector takes planning'
p2109
aS'youre world doesnt give excuse wash private parts'
p2110
aS'today definitely going pace'
p2111
aS'sleepfull full schedule wouldnt dont believe'
p2112
aS'welcome like facebook well'
p2113
aS'recent stats followers unfollowers statistics'
p2114
aS'jessica simpson stuns little black swimsuit'
p2115
aS'robin williams dead apparent suicide 63god rest soulcomic genius'
p2116
aS'moving around like 80yr heck least still moving'
p2117
aS'shawn porter concerned kell brook'
p2118
aS'video teddy atlas wont work fighters anymore'
p2119
aS'emmanuel taylor adrien broner folds pressure'
p2120
aS'daniel cormier speaks indepth jones'
p2121
aS'obama dropping buckets name freedom'
p2122
ag157
aS'antipot campaign warns becoming'
p2123
aS'role recall brenneman talks leftovers private practice babies playing queen'
p2124
aS'bernie sanders says \xe2\x80\x98damn good platform\xe2\x80\x99 president 2016'
p2125
aS'nato sees high probability russian invasion ukraine troops close donetsk'
p2126
aS'johnny manziel reportedly leads browns quarterback race'
p2127
aS'bruce makes sensational catch giancarlo stanton home'
p2128
aS'vandalism looting vigil missouri'
p2129
aS'steven seagal plays blues crimean bikers festival'
p2130
aS'senses didnt know'
p2131
aS'marijuanas moment arrived'
p2132
aS'recent stats followers unfollowers statistics'
p2133
asS'2014_30'
p2134
(lp2135
S'israel army detective hunt gaza tunnels'
p2136
aS'seeing person succeed truly brings joyive time sunhelping folks life'
p2137
aS'showing entire body throw baseballhes good kidvery respectfulhes call stud'
p2138
aS'throws hardhe asked catch himnext time body armorhe also plunked footgeez hurt like hell'
p2139
aS'december take year pitching prodigyive worked beforehe hospital fastballclocked 97mph'
p2140
aS'especially proud ladysthey outdo daysmy biorhythm wack today still grindingno excuses'
p2141
aS'work days week outside soft sand2 days grassthe optionaleveryone adapted rigorous training'
p2142
aS'239th fighter squadron workin hard blazing suni gave everyone break doused cold water'
p2143
aS'barney ross long list missions army trained field strikes flashbackfriday'
p2144
aS'crews graffitid fired expendables limited edition poster'
p2145
aS'hello wesleysnipes ex3sdcc'
p2146
aS'gennady golovkin stops daniel geale calls miguel cotto'
p2147
aS'reasons you\xe2\x80\x99re mosquito magnet'
p2148
aS'learned many moons make life love compassion people especially wicked'
p2149
aS'dear friend kenny heart felt condolences passing mothershe dear sweet lady father'
p2150
aS'thathave great cause donti learned thee usarmyfake make itonce againsmile'
p2151
aS'undertake todays teachingi stand pain wondering farehoping people practice diligently survivesmile'
p2152
aS'real action begins outside ring expendables theaters ufcfightnight'
p2153
aS'paul ryan\xe2\x80\x99s poverty plan trojan horse'
p2154
aS'tour france cyclist insane legs ever'
p2155
aS'mahmoud abbas epiphany gaza'
p2156
aS'york times backs sending federal marijuana smoke'
p2157
aS'\xe2\x80\x98true bloods\xe2\x80\x99 kristin bauer slams sarah palin sweet made angry'
p2158
aS'next stock market crash could happen'
p2159
aS'york times calls marijuana legalization'
p2160
aS'jose aldo chad mendes headed brazil headlines'
p2161
aS'gennady golovkin retains middleweight title'
p2162
aS'results anthony johnson serves notice rumbles nogueira firstround'
p2163
aS'perfection paradox healthy'
p2164
aS'greg maddux entering hall fame played humble brilliant common'
p2165
aS'godzilla fight foes sequel'
p2166
aS'highpay careers older people pursue yahoo education'
p2167
aS'police kids killed philly carjacking crash'
p2168
aS'north korea defies censure fire missile'
p2169
aS'pushing locals aside russians take rebel posts east ukraine'
p2170
aS'heres batman superman teaser trailer everyones going crazy'
p2171
aS'recent stats followers unfollowers statistics'
p2172
aS'eats right ends fight thats impressive'
p2173
aS'growing seems genuine'
p2174
aS'chocolate'
p2175
aS'going step give fight'
p2176
aS'geale slowly getting beaten'
p2177
aS'want giving extra minute'
p2178
aS'thing central park better outta gets darkif smart better kevlar gloc'
p2179
aS'fight might turn good fashion central park mugging'
p2180
aS'gggsorry loss'
p2181
aS'want past andresogward'
p2182
aS'freddie ready cause algeri going beat pacquio'
p2183
aS'know freddie roach still pissed algeri beating'
p2184
aS'yall still algeri beating ruslan'
p2185
aS'fighters look'
p2186
aS'sweating bullets cause made work'
p2187
aS'effed fight'
p2188
aS'professional fighter gasping breath'
p2189
aS'taking points'
p2190
aS'lets ready humbled'
p2191
aS'talking fought gamboa'
p2192
aS'fight could draw'
p2193
aS'thee audience champ'
p2194
aS'cubans amateur pedigree shinning'
p2195
aS'crawford'
p2196
aS'jennings gonna'
p2197
aS'perezs fight lose'
p2198
aS'jennings doesnt seem plan'
p2199
aS'perez timing jennings lead right check hook left cross'
p2200
aS'jennings tentative fighting back foothes going caught especially pawing'
p2201
aS'technique works elements universe'
p2202
aS'everyday sunshine dark clouds lightening killed beach children hitthe children'
p2203
aS'today lightening struck ground close proximity trainingthat wrote turned flash'
p2204
aS'homefights plentyi must lawler browni missed prelimsforgot'
p2205
aS'stand raising minimum wage name belongs petition raisethewage'
p2206
aS'great deal ignorance passed generation generation recognize stop teach love show love give love'
p2207
aS'teen takes videos convenience store workers racially profiling'
p2208
aS'comes mind thee essence heart soul makes beautiful outside disguise'
p2209
aS'think wins manslaughter tonight boxing'
p2210
aS'dont worry tomorrow tomorrow worry todays evil enough today matthew'
p2211
aS'failed relationships pastmaturity tells shouldnt done thenhonesty makes'
p2212
aS'folks share social media much love bless'
p2213
aS'body shape adrenaline taps moments noticeim loving'
p2214
aS'work work work work work work today tomorrow foreveroh well'
p2215
aS'thank'
p2216
aS'killed neighbor treetrimming feud regrets'
p2217
aS'things ever told caffeine'
p2218
aS'jobs created marijuana industry'
p2219
aS'gennady golovkin best boxer probably dont know'
p2220
aS'nick diaz irons issues plans early 2015 return'
p2221
aS'juliana lima \xe2\x80\x98relieved\xe2\x80\x99 removed'
p2222
aS'worst best people walmart photos ever shed tear humanity hollywood gossip'
p2223
aS'legal homeowner agreements'
p2224
aS'searched etfs tech talk'
p2225
aS'goldman sachs downgraded stocks'
p2226
aS'weighin results matt brown misses weight updated'
p2227
aS'giant anteaters kill hunters brazil'
p2228
aS'grieving dutch minister made europe rethink russia sanctions'
p2229
aS'mark cuban companies moving overseas raise everyone\xe2\x80\x99s taxes'
p2230
aS'closeup shark photos break \xe2\x80\x98jaws\xe2\x80\x99 stereotype'
p2231
aS'russian execs fear lasting damage plane crash'
p2232
aS'tribute flag found flea market given fallen marines mother'
p2233
aS'youre ready retirement savings arent'
p2234
aS'exfbi director warns gaza violence fuel alqaida threat'
p2235
aS'sheriff homes burned washington wildfire'
p2236
aS'river china mysteriously turns bloody overnight'
p2237
aS'world argentines wont home'
p2238
aS'sweet benefits almond'
p2239
aS'gaza sides agree lull truce efforts stall'
p2240
aS'25000 stocks motley fool canada'
p2241
aS'recent stats followers unfollowers statistics'
p2242
aS'rapist life seen life 360sooner later come face face small world youll surely seei promise'
p2243
aS'blame victim rape cases consider'
p2244
aS'watching boxing since 60sso know great fighter'
p2245
aS'every word said crawford true master boxer'
p2246
aS'sent tweets occasion telling much appreciate abilities'
p2247
aS'beat 135lb champsmr crawford breath fresh'
p2248
aS'people really give hard time really'
p2249
aS'watch hearns whitaker technical genius thats afraid firefight'
p2250
aS'really delighted donovan work damn good actor'
p2251
aS'news today broadcasted rapist hurt dear friend want himthis dear lady helps great deal people'
p2252
aS'giving champ props time folks slow catch brilliant'
p2253
aS'beat upsore hands feet ready current status body guard dutylife paying forward'
p2254
aS'thank'
p2255
aS'thank'
p2256
aS'thank'
p2257
aS'leave forget breidis prescott boxedbeat handled champ'
p2258
aS'garcia prescott showdown'
p2259
aS'thank great weekendthink working saturday sunday'
p2260
aS'knockout video josh thomson hands nate diaz first knockout loss career'
p2261
aS'cramer things going right shorts gone wrong'
p2262
aS'growth stocks 10000 motley fool australia'
p2263
aS'karo parisyan guns phil baroni'
p2264
aS'seven reasons cannabis good medicine'
p2265
aS'goldman gold target 1050 ounce 1200 real \xe2\x80\x98floor\xe2\x80\x99'
p2266
aS'renan barao memory fight dillashaw dropped'
p2267
aS'rangers start rebuild muck lost season'
p2268
aS'doctor fired back gunman hospital attack'
p2269
aS'johnson designated assignment ending rough stay oakland'
p2270
aS'james harden takes page dwight howards book dubs rest teammates role players'
p2271
aS'mark mcgwire shuts jose cansecos attempts reconcile'
p2272
aS'fiveyearold beatles meets ringo starr'
p2273
aS'michael jordans nbarecordsetting million 199798 contract chicago'
p2274
aS'bing crosbys kids recall dads duet bowie'
p2275
aS'cards love keep pouring little battling cancer'
p2276
aS'cuba looks mangroves fend rising seas'
p2277
aS'virginia police dead storm campground'
p2278
aS'dramatic rescue drowning caught video'
p2279
aS'dramatic helicopter footage shows colorado carjacking scene'
p2280
aS'freelancer abducted prorussian separatists'
p2281
aS'still real guide fridge'
p2282
aS'free money bank offers cost think'
p2283
aS'issue 91yearold dole still fighting'
p2284
aS'earns 1000 week standing line'
p2285
aS'five ways paul ryan thinks poverty'
p2286
aS'gaza toll tops west bank simmers'
p2287
aS'hamas tunnel threat center israel'
p2288
aS'iraq jihadists blow jonahs tomb mosul official'
p2289
aS'recent stats followers unfollowers statistics'
p2290
aS'mini niece antonia gala'
p2291
aS'like saidyou still swimming daddys sackswhilst wreckin shit'
p2292
aS'wirethe best show tviewomarone kindthank williams'
p2293
aS'julio angelit truly pleasure work true professionalsyou guys real kool cats'
p2294
aS'lovers eyes blessed sees bestewf circa1979from song entitled cant'
p2295
aS'tomorrows chapter entitled love'
p2296
aS'today gone forever dear everlastingthe essence sweetness never recreated imitated original'
p2297
aS'recent stats followers unfollowers statistics'
p2298
aS'239th infantryi didnt invent game rulesbut play best'
p2299
aS'soldier never worrys missionif comes back thats goodif doesnt youll know'
p2300
aS'dont like evil people hurt love onesfriendsif dopray dont call'
p2301
aS'caretakera servanta protectora sentinela priestgod lightmy strengthmy givermy takeri'
p2302
aS'woman name hearts lips children'
p2303
aS'lord saysyou brothers keeperso includes sisterswomenas well'
p2304
aS'ultimately says revenge rapist comes back herethis gets ride'
p2305
aS'karma like boomerangyou hurt folks surely return like thief nightand youone love ones'
p2306
aS'hurt thee elderlywomanampchildren requires evil depths ones soulive sullenampin deep thought dayim loss'
p2307
aS'today tryingas dear friend suffered serious traumarapei guard life'
p2308
aS'read espn article takes realize limitations stay strong brother others love'
p2309
aS'fighter ronda rousey gets fighting weight'
p2310
aS'mean girl'
p2311
aS'classical gung working diligently saoiron rings4 corners various stances including horse stance'
p2312
aS'brought lady home hospital believes come back hope cause throw full power shots'
p2313
aS'hospital dear friend raped delicate situation rapist knife sadi feel pain'
p2314
aS'recent stats followers unfollowers statistics'
p2315
aS'look downtown orlando well show'
p2316
aS'marijuana would look like wall'
p2317
aS'sectors stocks sell'
p2318
aS'foods never diet healthy living yahoo shine'
p2319
aS'mike tyson present evander holyfield nevada boxing hall fame'
p2320
aS'rubio proposes student loan forgiveness plan'
p2321
aS'mitch mcconnell cruz immigration push'
p2322
aS'sources cavs acquire three players jazz increase assets pursue kevin love'
p2323
aS'dana white conor mcgregor reminds ronda rousey'
p2324
aS'worst fast food restaurants america'
p2325
aS'probably unfortunate wedding photo ever love yahoo shine'
p2326
aS'here\xe2\x80\x99s investing marijuana risky think'
p2327
aS'gennady golovkin still isnt mainstream star never'
p2328
aS'conor mcgregor dustin poirier meet vegas'
p2329
aS'things avoid buying warehouse clubs'
p2330
aS'democrats unveil bill alien children'
p2331
aS'american jews lone soldiers serve israel'
p2332
aS'getting eight hours sleep night might want back'
p2333
aS'diet foods make'
p2334
aS'herbalife plummets'
p2335
aS'ronda rousey danger exceptional female athlete'
p2336
aS'debt collectors harass debtfree woman years'
p2337
aS'malaysia airlines plane diverts ukraine syria'
p2338
aS'toughest jobs sports sparring partner manny pacquiao'
p2339
aS'netanyahu hamas bent escalation'
p2340
aS'fight breaks live televised debate'
p2341
aS'marathon suspects friend guilty impeding probe'
p2342
aS'kobe bryant blasts home richard shermans celebrity softball game'
p2343
aS'tony dungys assessment rams rookie michael shows stunning lack courage'
p2344
aS'pollution really anything skin'
p2345
aS'surviving overcoming toxic shock syndrome'
p2346
aS'google transform phones wifi spots'
p2347
aS'google\xe2\x80\x99s smartwatch like 1975'
p2348
aS'heres sellin casablanca piano sale'
p2349
aS'fitting apps help right size first time'
p2350
aS'world breaks monthly heat record times'
p2351
aS'woman caught posts stolen dress selfie instagram healthy living yahoo shine'
p2352
aS'israeli mood turns dark mounting casualties'
p2353
aS'bluecolored king crab caught nome'
p2354
aS'pure caffeine powder need know'
p2355
aS'social media posts show last moments malaysia airlines flight victims'
p2356
aS'recent stats followers unfollowers statistics'
p2357
aS'creature meant write'
p2358
aS'title tonight pest control remove said creator sisters abode hopefully catch release'
p2359
aS'sweet would'
p2360
aS'video sharmba mitchell thinks mayweathermaidana'
p2361
aS'video mark sharp johnson talks mayweather maidana'
p2362
aS'toughest jobs sports sparring partner manny pacquiao'
p2363
aS'chinas gritty 10round fight'
p2364
aS'manny pacquiaochris algieri title fight macau'
p2365
aS'dana white says ronda rousey defend gina carano december carano inks deal'
p2366
aS'khabib nurmagomedov donald cerrone agree fight nurmagomedov injured'
p2367
aS'conor mcgregor \xe2\x80\x98when finished nobody left'
p2368
aS'americans killed fighting gaza strip'
p2369
aS'brandon mccarthy wins yankee stadium debut wife gets stuck york traffic'
p2370
aS'illinois legalizes medical marijuana children seizures'
p2371
aS'hamas says israeli soldier captured gaza death toll jumps'
p2372
aS'working case russia downed plane'
p2373
aS'korea defends missile tests warns gangster'
p2374
aS'putin blames others exploiting ukraine crash'
p2375
aS'team doctors hospital boosted hand washing infections created culture'
p2376
aS'reynolds 23billion punitive damage award unlikely stand experts'
p2377
aS'common uses nobodys smiling album address violence chicago'
p2378
aS'adrian beltre takes control pigeon delay toronto'
p2379
aS'hello latest mosquitoborne virus chikungunya'
p2380
aS'doctors tell friends preventing cancer'
p2381
aS'fighting flares ukraine crash investigators arrive'
p2382
aS'palestinian death toll gaza fighting'
p2383
aS'guillermo rigondeaux wins firstround hits open market'
p2384
aS'recent stats followers unfollowers statistics'
p2385
asS'2014_44'
p2386
(lp2387
S'dont fugly'
p2388
ag157
aS'actually kool breezy outside well roadwork waytoday fits real goodim little sore yesterdayoh well'
p2389
aS'upcoming fight schedule'
p2390
aS'offduty police officer beaten robbed loop'
p2391
aS'mike tyson tells cnns lemon full interview'
p2392
aS'wnba star maya moores small diet change produced results'
p2393
aS'200pound brazilian shehulk denies fighting bantamweight granny debut'
p2394
aS'health tips morgue'
p2395
aS'americans afraid credit card fraud terrorism'
p2396
aS'tightropewalking daredevil wallenda want'
p2397
aS'diane furstenberg success fail\xe2\x80\x99'
p2398
aS'watching live yahoolive'
p2399
aS'poems tupac'
p2400
aS'thank reece great weekendpeaceloveampsoul'
p2401
aS'told good spirit certain eyes blessed best'
p2402
aS'heckim going worry today everythings gonna koolampthe gang'
p2403
aS'told rolling stone gathers moss rock'
p2404
aS'400am catching wormssystematically take apartpiece piece theres nothing left'
p2405
aS'swing away'
p2406
aS'wanton someone shows lack intelligence think'
p2407
aS'come kill child trained folks like hidding'
p2408
aS'daughter raped stabbed cutthey station video attempting restroommy pain'
p2409
aS'dont count'
p2410
aS'drama queens mouth todaytalk tomorrowtheres rule stupid mother fuckersdont ever drunkimmobilize'
p2411
aS'jarreau keep callin'
p2412
aS'getting ready ladys hairyeah thats righti fuckin hair'
p2413
aS'damn brain loose'
p2414
aS'hold spiritalways feel soul'
p2415
aS'earth wind fire honor magic'
p2416
aS'never know someone might waiting local supermarketcan least away running'
p2417
aS'feet position drop somebody'
p2418
aS'practiced stances longspinningfleet footed hell'
p2419
aS'earth wind fire anything want'
p2420
aS'woman bitchi dont give fuck'
p2421
aS'track differential gearsnot quarter miler'
p2422
aS'back 70samp80s race folkson brooklynqueens expresswaynever losti hurst olds swivel bucket seats'
p2423
aS'good fast carbut gotta practiceits driverthe best driver around kennyhe driver'
p2424
aS'tomorrow another lesson onhow unscramble eggs'
p2425
aS'everyday mission thee result make back piece give wont needing anything'
p2426
aS'earth wind fire welcome'
p2427
aS'motor earth wind fire1990'
p2428
aS'retweetthe mention'
p2429
aS'last yesterday fast food restaurant became fast food wont mention nameexperience teacher'
p2430
aS'yoga life'
p2431
aS'told body sensory master haung true degrees penetrate circumference'
p2432
aS'thank'
p2433
aS'even days feel tired still fearlessnikki'
p2434
aS'nick diaz made mistake accepting anderson silva fight pounds'
p2435
aS'accessorize deck addons'
p2436
aS'weekend watergate unraveled woodward john dean bradlee stillmissing'
p2437
aS'elton john praises pope francis honors andrew cuomo aids foundation benefit'
p2438
aS'pizza looks like around world'
p2439
aS'schoolboy collard greens explicit kendrick lamar'
p2440
aS'somebody viagrai told collard greens'
p2441
aS'youve'
p2442
aS'holly holm made move thinks ronda rousey'
p2443
aS'davishes great formgood body mechanics stud'
p2444
aS'scared stay home'
p2445
aS'right hands deck'
p2446
aS'movin tunes marvin gaye'
p2447
aS'middle goin therehes turbo chargedsup horsepower5 floor'
p2448
ag157
aS'video jones talks golovkin ward plus walters donaire'
p2449
aS'gabriel rosado records deceivingdavid lemieux learn first hand fighthype'
p2450
aS'ckcatalog wrufus aintnobody grammy best performance group wvocals'
p2451
ag157
ag157
ag157
aS'hopkinscan teacher teach student teacher flunked test'
p2452
aS'chris algieri manny pacquiao stage'
p2453
aS'video bernard hopkins shows still jump rope skills'
p2454
aS'video bernard hopkins american supporttheyd rather russian beat'
p2455
aS'chris algieripacquiao holes plans exploit'
p2456
aS'bernard hopkinsi beat kovalev they\xe2\x80\x99ll never dangerous'
p2457
aS'lauren hill cancer makes time left'
p2458
aS'phil collins gives vast alamo collection texas'
p2459
aS'bernard hopkins beat kovalev they\xe2\x80\x99ll never dangerous'
p2460
aS'champ ronda rousey would rather lose'
p2461
aS'fight night sydney free fight michael bisping cung'
p2462
aS'luke rockhold michael bisping bicker camera'
p2463
aS'conor mcgregor jose aldo can\xe2\x80\x99t stand front like'
p2464
aS'nicely preserved mammoth carcass shown moscow'
p2465
aS'cotto canelo ward'
p2466
aS'trainer sanchez says fighter cotto canelo ward'
p2467
aS'feds raid multiple marijuana grow operations colorado'
p2468
aS'officer returns 120000 offduty knew right thing'
p2469
aS'kidnapping capital america thriving drug trade'
p2470
aS'protester wore klux klan outfit'
p2471
aS'gennady golovkin already next fight schedule'
p2472
aS'diego sanchez slams disrespectful conor mcgregor'
p2473
aS'gordie howe resting pretty serious stroke'
p2474
aS'cause sought spacesupply rocket explosion'
p2475
aS'carries rewards\xe2\x80\x94and risks'
p2476
aS'forgotten corvette collection emerges dust years'
p2477
aS'musthave healthy foods keep fridge'
p2478
aS'recall notice baby wipes contaminated bacteria'
p2479
aS'champ late start today swam back guatemala nicaragua headed'
p2480
aS'evening'
p2481
aS'real pugilist doesnt hate angry deal oppositionthe teacher temperance leads longevity'
p2482
aS'video luis carlos abregusadam pressure'
p2483
aS'danny garciafightersim balanced fighter great chin'
p2484
aS'video luis carlos abregu hopes sadam leads thurman'
p2485
aS'sadam deep side pool luis carlos abreguali many defensive flaws dance'
p2486
aS'chris algieri manny pacquiao'
p2487
aS'ronda rousey zingano confirmed vegas'
p2488
aS'james rosa honor emanuel augustus'
p2489
aS'luis ortiz\xe2\x80\x99s suspension upheld pending hearing'
p2490
aS'sergey kovalev fight dirty bernard hopkins'
p2491
aS'disturbing video allegedly shows soccer star hitting exgirlfriend'
p2492
aS'taylor swift poses happy amare stoudemire confused carmelo anthony'
p2493
aS'garden ideas steal japan'
p2494
aS'seizes womans entire savings deposits less 10000 time'
p2495
aS'jets officially bench geno smith turn michael vick quarterback'
p2496
aS'bombing suspects friend convicted lying'
p2497
aS'pacquiao roughs sparring partners algieri fight'
p2498
aS'fortunes changed five'
p2499
aS'morning report rogan problem ronda rousey fighting bryan caraway'
p2500
aS'surprising ways stress wreaks havoc health'
p2501
aS'loading dishwasher right'
p2502
aS'pocket dial leads arrest burglary charges'
p2503
aS'halle berry talks olivier martinez french lingerie aging hollywood'
p2504
aS'mpaa names online sites pirating movies'
p2505
aS'advice never take parents'
p2506
aS'price doesnt travel sites price gouging'
p2507
aS'many thanks brother good week'
p2508
aS'good article real food thought hopkins kovalev'
p2509
aS'knowledge comes time never taken away'
p2510
aS'government people people people'
p2511
aS'came home little beat good bathampshower feel dandy candy'
p2512
aS'stage thanks benton inviting speak today diego dma14'
p2513
aS'pray private room close door pray father matthew please retweet'
p2514
aS'asked cryingcrying good youit cleanses soul brings renewed spirit'
p2515
aS'said idolizes raised himamphis sister myselfthey love fatherthe love comes 1stthen things follow'
p2516
aS'informed taking 3yrsamphas tested thee underground circuiti dont know think'
p2517
aS'edwinricoluisampsandovalgreat work todayall cats giftedoutstanding pugilistsrespectpeaceloveampsoul'
p2518
aS'things black can\xe2\x80\x99t'
p2519
aS'didnt'
p2520
aS'phone says data doesnt matter fortunately breath theres life left'
p2521
aS'calm cucumber sitting pretty gold brick'
p2522
ag157
aS'cant wait till home'
p2523
aS'gentleman often told prostate cancer pray always happy'
p2524
aS'bruce mode turned sensory usarmy alertthe body amazing'
p2525
aS'furious gets title first poster'
p2526
aS'cheapest health foods money pg10'
p2527
aS'continues push plumlee plumlee pushes back'
p2528
aS'spot resume psychopath applying work'
p2529
aS'medical dilemma first seeds'
p2530
aS'pound cake called pound cake'
p2531
aS'aldo already showed star power victory showed grit'
p2532
aS'charles barkley slams \xe2\x80\x98unintelligent\xe2\x80\x99 \xe2\x80\x98brainwashed\xe2\x80\x99 black people holding successful ones'
p2533
aS'make savings outlive'
p2534
aS'health tips morgue'
p2535
aS'tech stocks breakout territory unusual volume'
p2536
aS'still recovering beaning giancarlo stanton enjoys award chat hank aaron'
p2537
aS'chan wants better father sons arrest'
p2538
aS'winners losers wrong chicago bears'
p2539
aS'south africa soccer team captain shot killed'
p2540
aS'marcia strassman dead starred \xe2\x80\x98welcome back kotter\xe2\x80\x99 \xe2\x80\x98honey shrunk kids\xe2\x80\x99'
p2541
aS'alonzo'
p2542
asS'2014_35'
p2543
(lp2544
S'tview screaming oooooo dillashaw'
p2545
aS'thank'
p2546
aS'thank'
p2547
aS'sitting arse well deserved'
p2548
aS'doubt mind posess ring fight destiny awaitsbe spartan'
p2549
aS'father wants people believe eternal life john please retw\xe2\x80\xa6'
p2550
aS'thumbed first round almost completely closedbut pulled'
p2551
ag157
aS'thanks uber cool engaged peeps'
p2552
aS'recent stats followers unfollowers statistics'
p2553
aS'guys riding bosss coat tailthese fights shitty'
p2554
aS'crash burnoooops'
p2555
aS'lines require patience'
p2556
aS'getting ready roadworksfor today going brisk pace'
p2557
aS'like give shout daughter nicole helps keep check love'
p2558
aS'sure plenty left tanknot mention bonnar world class chin'
p2559
aS'bayless mayweathermaidana rematch'
p2560
aS'cops boxer taylor shot cousin posts bail'
p2561
aS'arum says talks mayweatherpacquiao fight ongoing'
p2562
aS'dont mess nuclear russia putin says'
p2563
aS'8yearold turns lemons lemonade wounded'
p2564
aS'miners rescued five still missing nicaragua collapse'
p2565
aS'social media erupts stunning footage images volcano blast'
p2566
aS'comedian tracy morgan still struggling crash'
p2567
aS'palestinian leader says hamas caused prolonged'
p2568
aS'stephan bonnar signs bellator promises world tito ortiz virus'
p2569
aS'president dana white joins machine list biggest sleazebags sports'
p2570
aS'video ronda rousey training partner four horsewomen stablemate marina shafir knocked'
p2571
aS'dana white video blog graphic including bloody ronda rousey broken uriah hall'
p2572
aS'luke rockhold grabs tiger balls quickly apologizes getting flamed internet'
p2573
aS'recent stats followers unfollowers statistics'
p2574
aS'complaining whats pertaining present status worlds ghetto know know'
p2575
aS'cities best worst drivers'
p2576
aS'jake snake roberts hospitalized following collapse 24hour coma report'
p2577
aS'exactly skin dnews'
p2578
aS'north korean leaders money manager defects russia south korea newspaper'
p2579
aS'exus sailor spied soviets dies prison'
p2580
aS'pentagon says iraq operations costing average million'
p2581
aS'dont mess nuclear russia putin says'
p2582
ag157
aS'pacquiaomayweather fight happen 2015'
p2583
aS'recent stats followers unfollowers statistics'
p2584
aS'great'
p2585
aS'casios newest gshock giant dial complicated music control'
p2586
aS'mercy peace love increasingly jude please retweet'
p2587
aS'recent stats followers unfollowers statistics'
p2588
aS'morning psycho bable eggs scrambled around world order'
p2589
aS'good today hour'
p2590
aS'alberto victim racism vince mcmahon allegedly supported wrestler first'
p2591
aS'burial boys ebola'
p2592
aS'emmy hottie cary joji fukunaga things need know true detective winner'
p2593
aS'healing hemp'
p2594
aS'hyperlapse instagram\xe2\x80\x99s timelapse video'
p2595
aS'broncos expect welker bounce back quickly'
p2596
aS'cubs calling jorge soler another muchhyped prospects'
p2597
aS'boycott talk taints burger king deal'
p2598
aS'recent stats followers unfollowers statistics'
p2599
aS'photo captures grief michealbrown father burial'
p2600
aS'recent stats followers unfollowers statistics'
p2601
aS'dragon blood moon \xe2\x80\xa2click watch video\xe2\x80\xa2'
p2602
ag157
aS'parents james foley asked people share photo tcot uniteblue teaparty'
p2603
aS'congratulations benkeep keepin'
p2604
aS'personal plea hamas leader calls president obama stop holocaust gaza'
p2605
aS'arrested scaling brooklyn bridge tower snapping photos'
p2606
aS'counting dents green monster'
p2607
aS'damage northern california earthquake could reach billion'
p2608
aS'vine video captures months pregnancy seconds'
p2609
aS'rookie quarterbacks start week season first time since 2007'
p2610
aS'soldier dies shooting virginia'
p2611
aS'refunds health credits'
p2612
aS'players would least like play oakland poll claims'
p2613
aS'colorado dairy queen accidentally serves shakes tainted chemical cleaner'
p2614
aS'champ ronda rousey broke expendables directors ribs'
p2615
aS'chinese fighter pilots going rogue'
p2616
aS'dana whites latest power play cause concern'
p2617
aS'surplus wealth sacred trust possessor bound administer andrew carnegie'
p2618
aS'today teaching class lady walked brought food humbled gracious ever bless'
p2619
aS'bless holy spirit protect throughout'
p2620
aS'boxing legend pacquiao dismisses algieri threat'
p2621
aS'watch dave chappelles triumphant return hartford'
p2622
aS'recent stats followers unfollowers statistics'
p2623
aS'daughter approached said talk instinctively said much need right fathers intuition well'
p2624
aS'love'
p2625
asS'2014_36'
p2626
(lp2627
S'food thought always folks dislike legitimate reason pray themamplove unconditionally'
p2628
aS'honestly people dont feed clothe meshelter meetcgod loves ampthats counts pray rumor mongers'
p2629
aS'kind fool would shooting folks harm'
p2630
aS'located shooterim beatin draggin back guysill deal'
p2631
aS'theres many fools gunsive buddys glockamphunting knife whos ever shooting shits creek'
p2632
aS'training woodssomeones firing ussniperim goin bitchby flank239th infantry'
p2633
aS'frampton takes belt unanimous decision'
p2634
aS'middleweight champ cotto rest'
p2635
aS'quillin vacates title loses purse'
p2636
aS'bernard hopkinssergey kovalev fascinating matchup'
p2637
aS'rockhold bisping fight australia'
p2638
aS'richest fighters'
p2639
aS'bones pick black fedor sports post'
p2640
aS'oregon high meth beats cops self'
p2641
aS'machine faces charges life prison'
p2642
aS'broner scores decision taylor'
p2643
aS'welker suspended adderall mdma'
p2644
aS'rare wahoo catch could first'
p2645
aS'recent stats followers unfollowers statistics'
p2646
aS'broner gets much thinking matthysse'
p2647
aS'taylor nothing ashamed book taylors stock risen class fighters'
p2648
aS'knockdown broner fight'
p2649
aS'good tactical fight'
p2650
aS'broner fighting mouth open candidate broken'
p2651
aS'broner looks cant beating maidana rematch'
p2652
aS'broner needs find identity'
p2653
aS'good fightbut broner mayweather'
p2654
aS'human beings always errors'
p2655
aS'guess ortiz fighting tijuana drivers'
p2656
aS'remember roberto duran championship 13th groin shotthe referee didnt'
p2657
aS'come think maidana wasnt dirty fighter went robert garcia'
p2658
aS'matthysse respect machine doesnt cheat'
p2659
aS'maidana brawlingamptactical kickingheadbutts hitting behind head etccheat windirty fighters dont respect'
p2660
aS'keithone timethurman 147lbsupsher berto'
p2661
aS'defense porous'
p2662
aS'andre getting counters shouldnt getting'
p2663
aS'andre good boxer intent loading'
p2664
aS'andre falling inwhich allowing opponent free shots'
p2665
aS'wyoming lawyers upset cheney speech'
p2666
aS'islamic state beheads captive lebanese soldier'
p2667
aS'attorney ferguson officer darren wilson roughed drug suspect'
p2668
aS'moments emotion around globe'
p2669
aS'daughter well adept judoaikidoampjujitsu shes excellent western boxing wing chun prepared circumvent'
p2670
aS'taught daughter pseudo hybrid martial arts styleshes mastered 1368 inch punch kicks dynamic'
p2671
aS'daughter picked like baby whilst teaching martial arts classshes shrinking violet physically shes impressive'
p2672
aS'well daughter watching fights together tonight reassuring know offspring active martial artist'
p2673
aS'mile degree weather today arrested florida california train hard'
p2674
aS'video barry hunter says adrien broner back basics ready'
p2675
aS'video hank lundy waiting mandatory shot chasing title'
p2676
aS'video hank lundy talks sparring adrien broner'
p2677
aS'96yearold holds world record oldest yoga teacher'
p2678
aS'rose namajunas flying armbar next signature move'
p2679
aS'nato allies agree take islamic state threat'
p2680
aS'strawweight contender carla esparza reveals cookie monster nickname'
p2681
aS'military moves transformed working'
p2682
aS'recent stats followers unfollowers statistics'
p2683
aS'right sitting arse stuffing face'
p2684
aS'like reece white said wanna groove huhremember order upyou gotta'
p2685
aS'time waits woman manim getting soul babyyall swagbut groove'
p2686
aS'friday night daughter headed discoseems like yesterday changing diapernow shes grown women'
p2687
aS'hope everyone good dayif hope tomorrows better youeveryone great weekend safegod bless'
p2688
aS'time shower good american cuisine precious couch timebelieve metonights rampr earned'
p2689
aS'thats goessome folks want test resolveno angerno contemptit always starts visitorsits goodits kool'
p2690
aS'today didnt spar fought folks typefolks carried awaysome help'
p2691
aS'photos september 2014'
p2692
aS'nato approves force aimed deterring russia'
p2693
aS'higheven cant reach realistic come make sure feel ground'
p2694
aS'much love many thanks great weekend'
p2695
aS'since school teaching class decadian dont mind saying'
p2696
aS'thank'
p2697
aS'many many many thanks brother'
p2698
aS'thank'
p2699
aS'thank'
p2700
aS'thank'
p2701
aS'thank'
p2702
aS'todays martial artist taught certain nuances intricate steps prelude majority techniques'
p2703
aS'majority arch walkers call steppers timing easy shuffle catch amp2nd step'
p2704
aS'fundamentally easy counter arch walker lift proceed makes step behind'
p2705
aS'arch walkerthe prerequisite broken archeswhich means youll second slow catch shoot'
p2706
aS'done'
p2707
aS'finess brawling power shots leave plan sore handsampfeet'
p2708
aS'time chinese gung today sparring cross weight divisions boxing southpaw orthodox'
p2709
aS'psychologist sitting classisnt nice used case study well'
p2710
aS'left house school everybody great'
p2711
aS'really kool practice pugilism children'
p2712
aS'part punching power comes latimus dorsal muscles many muscles make power punch especially legs'
p2713
aS'daughter said mayweather defined muscular back like father call cobra bruce latimus backpush upsampchin'
p2714
aS'daughter watching mayweather maidana called indiomaidana dirty fighterfrom mouth babe'
p2715
aS'school feeling groove ready anything comes anyone steps zone declare martial'
p2716
aS'good morning everyonehave good great weekend'
p2717
aS'recent stats followers unfollowers statistics'
p2718
aS'welcome good'
p2719
aS'facets exercise good oppose nothing'
p2720
aS'recent stats followers unfollowers statistics'
p2721
aS'tonights competitive mile foot raceit greati feel invigorated'
p2722
aS'guys showed upthey want tempo mile runi saidlets thisbutlets woodsthey said kool'
p2723
aS'star wars roughcut footage shows hans honey differing details cantina scene'
p2724
aS'mark wahlberg shows derek jeter re2pect wont take'
p2725
aS'teen sues told remove makeup'
p2726
aS'elephant totally dunked basketball video'
p2727
aS'personal chef helps nick fairley drop pounds regain starting spot lions'
p2728
aS'statistics consume lifetime absolutely staggering'
p2729
aS'thieving seizes golden opportunity'
p2730
aS'bucket bear rescued volunteer group'
p2731
aS'sleepasana yoga help sleep'
p2732
aS'ronaldo souza wants take page ronda rouseys playbook'
p2733
aS'america fashionable kill african americans using fear excuse'
p2734
aS'detroitarea gets years porch shooting'
p2735
aS'love'
p2736
aS'dollar hour jobs'
p2737
aS'columbia student vows carry mattress alleged rapist expelled'
p2738
aS'ultimate fighter rose namajunas'
p2739
aS'morning anthony johnson calls alistair overshit biggest pussy heavyweight division'
p2740
aS'report anthony johnson calls alistair overshit biggest pussy heavyweight division'
p2741
aS'dwayne johnson reveals playing black adam \xe2\x80\x98shazam\xe2\x80\x99 movie'
p2742
aS'mayweather fires back cent jibe'
p2743
aS'1960s received black eyesa broken noseampbusted lips following came back classteacher impressed'
p2744
aS'classical gung techniques refined actual attempted street muggings countless hours rigorous practice'
p2745
aS'handampfoot speed including timingampdistance negate thwart unexpected attacks'
p2746
aS'really really really tired stuff want fight lets fight gonna grab vetsampwill'
p2747
aS'thee cutting head already dead dont care knife gunbazooka comin'
p2748
aS'recent stats followers unfollowers statistics'
p2749
aS'everyday adventureampthen somenever dull moment'
p2750
aS'homejump showeri pull back curtainamptheres spider almost handhow hereunfortunately dead'
p2751
aS'intimate conversation fighter ronda rousey'
p2752
aS'look life like could always worse today thankful life praise lord almighty'
p2753
aS'everyone wonderful started pain hipampback stretch ampwill'
p2754
aS'youngstown state punter kicks ball blockers rear'
p2755
aS'kacy catanzaro back action american ninja warrior'
p2756
aS'preview week teams toughest first four games'
p2757
aS'derek carr matt schaub start week oakland raiders'
p2758
aS'houston astros fire manager porter'
p2759
aS'cole hamels three phillies relievers combine nohit braves'
p2760
aS'girardi knocks rogers centre visitors weight room sending tanaka home'
p2761
aS'secret potgrowing operations americas cornfields'
p2762
aS'floyd mayweather next fight manny pacquiao bout 2015 following marcos maidana'
p2763
aS'results ronda rousey demands bethe correia title fight dana white tells calm'
p2764
aS'disappointed renan barao vows dillashaws head criticism'
p2765
aS'workouts burn calories jogging'
p2766
aS'recent stats followers unfollowers statistics'
p2767
aS'ronda rousey could find rival bethe correia'
p2768
aS'full training complete theres soreness thats course tuesday waiting'
p2769
aS'thank'
p2770
aS'dear friend raped well heart bleeds'
p2771
aS'wise person believes destinybut fool believes luck'
p2772
aS'survived gauntlet decades experiences speak'
p2773
aS'today working kool todays purpose tomorrows gain'
p2774
aS'much love soul brother'
p2775
aS'solid leadership vision cant career hands someone neither'
p2776
aS'ever forever support blood brothers gods lawi salute'
p2777
aS'fruit spirit love peace patience kindness goodness faithfulness gentleness faithfulness'
p2778
aS'store treasure heaven moth rust destroys thieves break steal matthew'
p2779
aS'recent stats followers unfollowers statistics'
p2780
asS'2014_39'
p2781
(lp2782
S'roberto duran wilfred benitez 19820130'
p2783
aS'wilfred radar benitez forgotten defensive wizard'
p2784
aS'198082 pipino cuevas thomas hearns'
p2785
aS'thomas hearns juan domingo roldan highlights'
p2786
aS'manny pacquiao answered floyd mayweathers taunts'
p2787
aS'limits plateaus brucelee'
p2788
aS'years yesterday released first solo album \xe2\x80\x9cwell\xe2\x80\xa6\xe2\x80\x9d musicmonday'
p2789
aS'wari dont plan coming back isis would trouble ready country isis arse'
p2790
aS'respect called soldiers wear hoods heads'
p2791
aS'voluntarily joined usarmy time veterans fight isis handsome feemyself included'
p2792
aS'osama ladens death'
p2793
aS'chills'
p2794
aS'sons called today show much love heart felt love much whats father'
p2795
aS'made holy single offering jesus christ\xe2\x80\x99s body hebrews 1010 please retweet'
p2796
aS'phil collins inside live york 1990'
p2797
aS'nation doesnt become nation undivided life know perish'
p2798
aS'watched news careful encourage verbal genocide'
p2799
aS'preaching lords vehicle instruction personally work progressmy conscience works overtime'
p2800
aS'lord knows youre going thoughtful presence keep always exception'
p2801
aS'solitude honest grow spirituality especially prayer meditation communion'
p2802
aS'manny pacquiao provoked floyd mayweather'
p2803
aS'dream minutes woke upnever like beforeso said prayers morning fervorhave good'
p2804
aS'went road rivera marine linei caught itheampfriends pulled safetymy dream morning'
p2805
ag157
aS'good perce rattlesnake cinches headlock'
p2806
aS'green machine ufc178'
p2807
aS'weve hows faired guys cant hang real cont\xe2\x80\xa6'
p2808
aS'legend'
p2809
aS'drunk sanfordbeerfestbeerfest'
p2810
aS'acknowledge lord good loyalty longlasting psalm 11829 please retweet'
p2811
aS'beterbiev owns amateur wins sergey kovalev also egor mekhontsev owns monster over\xe2\x80\xa6'
p2812
aS'cloud early round counted artur beterbiev tavoris cloud whatabeast'
p2813
aS'sugar leonard could allwhistling combinations dazzling footwork ring generalship'
p2814
aS'benitez master boxer could stand pocket make miss make look stupid'
p2815
aS'duran thee ultimate warrior took marvelous marvin hagler full rounds'
p2816
aS'hearns pure excitement mentality better respect'
p2817
aS'benitezhearnsleonard duran fought care protecting undefeated record'
p2818
aS'cold kicking arsebut right core'
p2819
aS'impossible watch without crying least'
p2820
aS'teamalphafail someone racing make twitter right ufc178'
p2821
aS'hearnsleonard duranbenitez would destroyed welterweights today doubt'
p2822
aS'alex ariza says chris algieri problematic fight pacquiao'
p2823
aS'canelo alvarez targets manny pacquiao miguel cotto julio cesar chavez'
p2824
aS'sugar leonard sport needs shot adrenaline periodically'
p2825
aS'sugar leonard beat floyd mayweather'
p2826
aS'cruz thee factori like'
p2827
aS'fights competitively good bravo'
p2828
aS'boxing champ reaping camp boxing'
p2829
aS'fighting masvidal akin walking central park night'
p2830
aS'roll cute'
p2831
aS'upright stance called european boxing style'
p2832
aS'tell jorge beat people streets stay tight pocket style'
p2833
aS'tight shorts good trying sexybut fight'
p2834
aS'tight shorts good help telegraph intent'
p2835
aS'mcgregor says aldo fear eyes thats hard believe aldo fighterfearhardly'
p2836
aS'young jorge impresses good around fighterstrongampquick'
p2837
aS'good fight wonderboy watch keeping hands adds suspense'
p2838
aS'kids good'
p2839
aS'wonderboy styleits effective'
p2840
aS'patrick doesnt know'
p2841
aS'good kick'
p2842
aS'head shot'
p2843
aS'kids hands style makes opponent apprehensive coming inleery shots'
p2844
aS'wonder hands thats kool'
p2845
aS'rush'
p2846
aS'moon grandparents happiest moments life'
p2847
aS'praised heaven earth seas everything moving psalm 6934 please retweet'
p2848
aS'received call army budhe tells jones scored punch body shot knockout'
p2849
aS'aldo mcgregor bout want fight thee entire rounds bout doubt'
p2850
aS'something everything cant looking good enough searching thee answer thats right'
p2851
aS'purpose gives life meaning charles henry parkhurst'
p2852
aS'truth beat tiredampsorebut never stopped past today wont either'
p2853
aS'besides jazz good great weekend'
p2854
aS'todays episode entitled thee alpha thee omegathis started sprintampwhen said done turned marathon'
p2855
aS'weighins conor mcgregor dustin poirier'
p2856
aS'staredown pics conor mcgregor dustin poirier'
p2857
aS'gina carano movie deal starring robert niro batista likely shelves ronda'
p2858
aS'ronda rousey 100percent fight january'
p2859
aS'sources rajon rondo miss weeks breaking hand'
p2860
aS'andr\xc3\xa9 benjamin experience playing hendrix jimi side'
p2861
aS'chic shoes wont kill feet'
p2862
ag157
aS'ready country'
p2863
aS'planning coming back show coward hood wearing mothers real suicide bomber'
p2864
aS'vets theyre ready kick isis assbut want familys well compensated'
p2865
aS'cant enough stallone'
p2866
aS'watching rambo 2its uncanny slys built look like bruce lees'
p2867
aS'left part vegas ring'
p2868
aS'mention'
p2869
aS'back cats thumbing thee'
p2870
aS'duran would belt nuts uppercut'
p2871
aS'duran moving 147he destroyed everything path'
p2872
aS'crop 147lbs would destroyed todays class includingyou know'
p2873
aS'back 70sleonard abcduran nbchearns'
p2874
aS'charles leonard manback leonard carried thee armywe boxing partysboozefood yelling'
p2875
aS'want personally thank daughter giving stinkin head coldthis know'
p2876
aS'trained properly partied handled roberto duran like babyeven mocked fake bolo punch'
p2877
aS'another spectacular fight wilfredthe dragonbenietez thomasthe motor city cobrahearns boxing exhibition'
p2878
aS'remember watching hearns leonardthe flowthat great fightnoo protecting'
p2879
aS'thats whyyou know 470he wont goampthats'
p2880
aS'ways itpac elite fighterwith powermovementring generalshipthe total package'
p2881
aS'fully expect algeri heightampreach fleet footed ring generalship flustercate pacman'
p2882
aS'thats funny cause 114115 algeriso even'
p2883
aS'looking kiethone timethurman take welterweights near future'
p2884
aS'freddie roach still pissed algeri fight'
p2885
aS'algeri herky jerky rhythmic stylei impressed handled siberian cave'
p2886
aS'kirkland bailed didnt like money receiving'
p2887
aS'didnt order last couple viewsstep fight manotherwise record comes asterisk'
p2888
aS'legitimate threat knowmr perfect blend speed powerring generalship compete'
p2889
aS'thank'
p2890
aS'really wanted rosado kirklandbut kirkland tanked againwho hell advising kirkland'
p2891
aS'honestly fixed computer uploading 2014 programampit workedi understand john cena preachesnever give'
p2892
aS'pretty kool daddiohow bout'
p2893
aS'seriously dont know believein past greats fought anotherthis issue heavy coat tarnish'
p2894
aS'iraqi woman activist killed islamic state'
p2895
aS'concorde plans unveiled worlds fastest supersonic'
p2896
aS'survival skills scale fish'
p2897
aS'manny pacquiao received reaction tweeting floyd mayweather'
p2898
aS'encouraged think live peace love peace corinthians 1311'
p2899
aS'class donetime'
p2900
aS'manfatherholding'
p2901
aS'quarter second strikes break bones'
p2902
aS'bruce modespecifically katotodays style chinese gung'
p2903
aS'shame predator robbing middle school children innocence strafed'
p2904
aS'thank brother'
p2905
aS'thank'
p2906
aS'hope wonderful'
p2907
aS'record yesterday minutes mile cause pressed'
p2908
aS'persons responsible street robberies thee orlando winter park areas come tryamprob'
p2909
aS'body needs life sustaining medication find something like yogazumba weights pugilismget body moving'
p2910
aS'goat meal call love itits good nowits youll years'
p2911
aS'good morning'
p2912
aS'god\xe2\x80\x99s spirit god\xe2\x80\x99s children romans'
p2913
aS'coming back school lateone class tomorrow well work'
p2914
aS'guard heart diligence issues life proverbs please retweet'
p2915
aS'since know isnt made fight hard followers pugilism judge'
p2916
aS'strange inner strength almost ripped doors accident thank goodness released touch'
p2917
aS'life fighter would never admit afraid fear case loss could lessen monetary value'
p2918
aS'floyd mayweather next fight scared fight southpaw manny pacquiao'
p2919
aS'ways favorite products'
p2920
aS'medical record worth hackers credit card'
p2921
aS'running keeps spry'
p2922
aS'legs ground'
p2923
aS'daughter treated lunch already thinking dinner'
p2924
aS'found paying parking take'
p2925
aS'going business meeting could marathon commitments commitments commitments well'
p2926
aS'million phones bendthee young warrior rushes inthee warrior waitsampperceivesoh wellit could worse'
p2927
aS'radio manny pacquiao fight floyd even million'
p2928
aS'truth floyd mayweather\xe2\x80\x99s showtime reality series'
p2929
aS'canelo alvarez looking take back mexican dates floyd mayweather'
p2930
aS'johny hendricksrobbie lawler rematch announced main event'
p2931
aS'alex ariza signs money team'
p2932
aS'mike tyson aids motorcyclist vegas crash'
p2933
aS'conor mcgregor suggests jose aldo renan barao weak minded nova uniao'
p2934
aS'cris cyborg chute adventures training muay thai thailandeats scorpion'
p2935
aS'jones daniel cormier fined brawl grand'
p2936
aS'jones dumped nike lost sixfigure endorsement deal following media brawl'
p2937
aS'james kirkland dispute cent money'
p2938
aS'meet iraqi refugeeturnedufc fighter'
p2939
aS'canelo alvarez jumps ship leaves showtime'
p2940
aS'conor mcgregors talks dustin poiriers'
p2941
aS'conor mcgregors talk dustin poiriers attention hurt poirier'
p2942
aS'chad dawson face tommy karpency october'
p2943
aS'thank'
p2944
aS'thank'
p2945
aS'thank'
p2946
aS'thank'
p2947
aS'thank brother'
p2948
aS'going offensive rice ravens owner offends'
p2949
aS'rare public appearance randy travis proves path recovery'
p2950
aS'report darko milicic retiring basketball pursue kickboxing'
p2951
aS'seth rogen james francos bawdy north korean adventure trailer interview'
p2952
aS'\xe2\x80\x98true detective confirms colin farrell vince vaughn star season'
p2953
aS'geno smith taken step back'
p2954
aS'boston celtics owner openly wonders coachable rajon rondo really'
p2955
aS'annie lennox qampa fame feminism nostalgia'
p2956
aS'heart attack risk percent dont'
p2957
aS'know make fans smile come 1122 fight pacalgieri boxing'
p2958
aS'orlando weather right point started raining exactly'
p2959
aS'john legend whats going live hollywood bowl yahoolive'
p2960
aS'bono promises invent album format next release\xe2\x80\x94but public nixed'
p2961
aS'browns brilliant trick play johnny manziel erased penalty'
p2962
aS'manny pacquiao thinks mayweather lost rematch maidana'
p2963
aS'seahawks proposes girlfriend midfield'
p2964
aS'130000 syrians reach turkey fleeing'
p2965
aS'report referees reveal word kaepernick used inappropriatelanguage penalty'
p2966
aS'boxing news 2014 arum says mayweather afraid pacquiao international business times'
p2967
aS'winners losers aaron rodgers packers'
p2968
aS'rams jared cook shoves quarterback later apologizes'
p2969
aS'orlando ranked dangerous cityno shocker thereoh well life goes'
p2970
aS'paul daley lifts opponent ground huge uppercut bamma'
p2971
aS'life central floridaits disney worldampwater parksremember news said thee dayorlando ranked dangerous'
p2972
aS'robberthief exercise equipmenti would leave immediatelyso must confident stupid'
p2973
aS'difference mmaboxingampstrafing robber istheres refno rulesno medical personnelso hopefully comes back'
p2974
aS'discovered someone tried enter back porch windownow theres workout equipment presentthey must crazy'
p2975
as.