(dp0
S'2009_43'
p1
(lp2
S'chatted'
p3
asS'2012_46'
p4
(lp5
S'twitter account even know account alone social networking site'
p6
aS'twitter account even know account alone social networking site'
p7
aS'twitter account even know signed alone social networking site'
p8
aS'twitter even know signed alone social networking site'
p9
asS'2013_45'
p10
(lp11
S'cant stand deliberately unstoppable show smartness intelligence within arms reach wont arms'
p12
aS'lawmakers discretionary funding powers abolishing pdaf means giving president authority spending pick poison'
p13
aS'know followings minions'
p14
aS'lets pdaf shitcanned still system dedicated constituent funding system disbursement change'
p15
aS'thinking spend reno south lake tahoe'
p16
aS'eddie garcia making sense even lick'
p17
aS'draconian rule case would misery suffer life ugly mofo'
p18
aS'come elaborately stunning outfit guess right still'
p19
aS'scared bejesus thought mouth teerh'
p20
aS'pork barrel cant abolished always system constituent funding'
p21
aS'yeah write anything even remotely intelligible'
p22
aS'ironic pork barrel system snuffed existence marcos brought life 1986 cory aquino'
p23
aS'yeah professor probably clue talking'
p24
aS'settle people dont even know pork barrel appropriation differs earmark differnce'
p25
aS'five year write better english english jibberish'
p26
aS'always problem comes liberally leaning government spending always augmented infused'
p27
aS'biggest problem people keep electing representatives total dumb asses'
p28
aS'seems dont know engage critical thinking cant agree disagree issues'
p29
aS'confusing pressing issue legislative body much power disbursements'
p30
aS'plain english like reserve accounts checking account cover account transfer funds'
p31
aS'biggest casualty constitution freakin serious taxpayers ever cross mind'
p32
aS'talking pdaf proper nomenclature pork barrel anybody home'
p33
aS'foolproof please pick brains enlighten academically'
p34
aS'problem philippine politics much power inherently afforded lawmakers deep endless funds'
p35
aS'dont know fuss like kinds corruptions anomalies never happened'
p36
aS'thing foolproof proverbial word called loophole every flaws'
p37
aS'santiago dumber rocks wonder could hear talk'
p38
aS'wanted know cable channel turn wont'
p39
aS'consider cold live northen nevada today degrees degrees celsius using system'
p40
aS'dont know talking'
p41
aS'frustrating talking abolition process funding makng sense'
p42
aS'taking total moron'
p43
aS'crap senator suffers exponentially irreversible episodes delusions snows blame johnny'
p44
aS'philippine politicians properties homeland shows incredibly dumb voters'
p45
aS'pdaf dedicated hard projects like local infrastructure projects terminate funding ngos make sense'
p46
aS'funding senator pdaf back 2006 million bank vault'
p47
aS'appropriation words funding approved executive government'
p48
aS'media morons appropriation problem process disbursing funds checks balance'
p49
aS'snow coming cant wait insanely huge dump anyone heading boreal within next weeks tmcc'
p50
aS'cant wait huge dump snow falling anyone heading boreal within next weeks'
p51
aS'many ways funding approved central govt works better know like china everything handled'
p52
aS'dont connection looks like infinite moron'
p53
aS'bottom line lack checks balances executive commission monitors disbursement lawmakers'
p54
aS'sounds confusing reality pdaf proper name nomenclature pork barrel'
p55
aS'nothing wrong kind appropriation unchecked discretionary funding lawmakers problem'
p56
aS'rethink role congress disbursement local funding come directly executive branch correct'
p57
aS'problem pork barrel appropriation virtually unmonitored discretionary funding pdaf philippines'
p58
aS'means lousy cook'
p59
aS'anyone tmcc want skiing season'
p60
aS'missing point perhaps total moron pork barrel discretionary funds'
p61
aS'pork barrel politics insanely delusional senator thieves anything philippine political landscape'
p62
aS'problem pork barrel mainly budgetary process lawmakers unfettered discretion disbursement'
p63
aS'scrap without funding local government projects would exist'
p64
aS'damn skinny look like walked concentration camp'
p65
aS'issue pork barrel important pork barrel even issue idiot pdaf issue'
p66
aS'must total idiot stop pork barrel funding local projects come'
p67
aS'incredibly moronic media people problem soft funding nonexistent projects abolish pdaf anybody home'
p68
aS'hell senator seems suffering exponentially irreversible episodes delusion philippines'
p69
aS'problem pork barrel virtually unmonitored discretionary funding pdaf philippines'
p70
aS'problem pork barrel appropriation virtually unmonitored discretionary funding pdaf philippines'
p71
as.