(dp0
S'2013_42'
p1
(lp2
S'many blue things\xf0\x9f\x98\x95'
p3
asS'2013_40'
p4
(lp5
S'unexpected curls'
p6
aS'cant preorder midnight memories like avril lavignes'
p7
aS'another ordinary'
p8
asS'2013_41'
p9
(lp10
S'dont like wearing tight clothing'
p11
asS'2013_46'
p12
(lp13
S'cuddle'
p14
aS'keep running people know'
p15
aS'fear'
p16
aS'cant wait give birthday present'
p17
aS'think heart attaaaaaaaaccckkk dead soexcited'
p18
aS'never'
p19
aS'haha'
p20
aS'girl silent dangerous shes either'
p21
aS'lmao'
p22
aS'true'
p23
aS'stole friend'
p24
aS'sounds good'
p25
aS'wish'
p26
aS'need'
p27
aS'dont'
p28
aS'would'
p29
aS'love'
p30
aS''
p31
aS'basically'
p32
aS'every morning'
p33
asS'2013_47'
p34
(lp35
S'mtvstars direction mtvstars direction mtvstars direction mtvstars direction mtvstars direction'
p36
aS'sitting class like'
p37
aS'1dday dct3 storyofmylife rightthere letitgo'
p38
aS'wanna play twister someone really oops fell touched whole body'
p39
aS'really worry selfie family would news ever went missing'
p40
aS'lets play rude realize dont like'
p41
aS'parents want outgoing stuff friends also want home high meth like c\xe2\x80\x99mon'
p42
aS'storyofmylifefollowparty \xf0\x9f\x92\x84follow follow back \xf0\x9f\x92\x84follow \xf0\x9f\x92\x84gain \xf0\x9f\x92\x84followtrick'
p43
aS'miley pretty'
p44
aS'someone keeps looking'
p45
aS'know youre attached'
p46
aS'sick think need doctor'
p47
aS'haters'
p48
aS'happy friday tgif happyfriday'
p49
aS'midnightmemoriesfollowparty storyofmylifefollowparty \xf0\x9f\x8d\xacfollow \xf0\x9f\x8d\xacfollow everyone gain \xf0\x9f\x8d\xachelp'
p50
aS'direction awesome perfumer'
p51
aS'harry styles justin bieber harry justin'
p52
aS'direction jonas brothers best photoshoot jonas'
p53
aS'niall horan harry styles harry niall'
p54
aS'harry styles demi lovato harry demi'
p55
aS'justin bieber harry styles harry justin'
p56
aS'ariana grande mitchel musso best holding heart ariana mitchel'
p57
aS'miley cyrus victoria justice best photoshoot miley victoria'
p58
aS'miley cyrus george best wink miley'
p59
aS'harry styles nathan sykes best singer harry nathan'
p60
aS'miley cyrus taylor swift best touching hair miley taylor'
p61
aS'little victoria justice best shoot candies little victoria'
p62
asS'2012_10'
p63
(lp64
S'whats peeps rock news cast premiers saturday dont'
p65
ag31
ag31
aS'welcome'
p66
aS'video want subject person control someone else'
p67
ag31
aS'loves selena gfans1'
p68
aS'selena gomez'
p69
aS'ustream want askinglol'
p70
asS'2013_45'
p71
(lp72
S'love baby picture'
p73
aS'love hello kittyby avrillavigneonitunesnow'
p74
asS'2013_48'
p75
(lp76
S'hate nice someone really want throw brick'
p77
aS'parents problems friends fakes love crush dating responsibility drama heartache failures stress happiness'
p78
asS'2012_11'
p79
(lp80
S'cece prettier totes pretts'
p81
aS'loved guys funny yeah'
p82
aS'would thing bellarinaamp39s wants thing'
p83
aS'stevie molly time actually getting along like vanilla dark chocolate'
p84
aS'night'
p85
aS'could could dating'
p86
aS'sure'
p87
aS'agree guys vest rockinamp39 couple course guys know hold'
p88
aS'ttylxox'
p89
aS'seriously want would anything seriously'
p90
aS'heyyyy'
p91
ag31
aS'thatamp39s news come along'
p92
aS'bellaamp39s amplt3 broken'
p93
aS'bellaamp39s amplt3 broken'
p94
ag31
aS'cool'
p95
ag31
aS'first want tell guys friend like friends best friends itamp39s weird worth'
p96
aS'guys like hanging time friend thing'
p97
aS'really game guys talking'
p98
aS'little rude'
p99
aS'good night guys'
p100
ag31
aS'game guys talking reply'
p101
aS'sweet love'
p102
ag31
aS'winner'
p103
aS'friend'
p104
aS'emmaamp39s best friend would tell fashionable clothes pretty face want best'
p105
aS'perf power amp39poseamp39'
p106
aS'channel'
p107
aS'bella thorne schneider lulu antariksa selena gomez reply'
p108
aS'like rafa alyssa alyssa tweeter'
p109
aS'vote selena gomez kids choice'
p110
aS'thing jhoana doesnt like rafael loves proof school tomorrow'
p111
aS'peeps ttylxox rocks'
p112
aS'wish friends tweeter relationship josiah alyssa said'
p113
aS'knows sign'
p114
aS'yeah bbkof means quotbest kind friendquot'
p115
aS'frenemy became best friend alyssa frenemy became bbkof'
p116
aS'what39s 39schneider monkeys39 39lulu fans39'
p117
aS'york would lucky enough best characters rock'
p118
aS'guys like best friends'
p119
aS'loved ttylxox something dance mashup friend someone else loved'
p120
aS'really york right friend could possibly'
p121
aS'love tweeter cool'
p122
asS'2012_14'
p123
(lp124
S'changed username'
p125
aS'followers friend'
p126
asS'2013_35'
p127
(lp128
S'like cant believe'
p129
asS'2013_34'
p130
(lp131
S'voteonedirection'
p132
asS'2013_6'
p133
(lp134
S'cute little nialler'
p135
aS'honor roll school'
p136
asS'2013_16'
p137
(lp138
S'idea wear picture mood grumpy'
p139
asS'2012_35'
p140
(lp141
S'week follows follow another hundred random people wants'
p142
asS'2012_12'
p143
(lp144
S'ohnot friend'
p145
aS'gonna watch hunger games tomorrow hope love perf power sleep matanee 1120'
p146
aS'loved yeah awesome'
p147
ag31
aS'hilarious barbies eagle pigeon'
p148
aS'loved best come'
p149
aS'things funny awesome loved like always'
p150
aS'today rock going watch tomorrow shake going'
p151
aS'joyand rocky rafael keeps staring'
p152
aS'likes loves aksquared grow'
p153
aS'rock prank night'
p154
aS'rock best show nick explain'
p155
aS'best hottest nickelodeon star sibuna mysteries appear mystericly nick'
p156
aS'making game want play tweet someone answers'
p157
aS'girl love smile love eyes think'
p158
aS'heydo want play game'
p159
aS'bella thorne shake watching disney channel read voice'
p160
aS'guys want play starts minutes'
p161
aS'anybody want play game'
p162
aS'hunger games'
p163
aS'making game wants play mean'
p164
aS'hope amazing saturday excited rock'
p165
aS'good night perf power schneider monkey lulu bellarina zswaggers things want called'
p166
ag31
aS'friend loves song'
p167
aS'followers'
p168
aS'perf power ready prank night'
p169
aS'sorry friend havent long time busy friend mine'
p170
asS'2012_13'
p171
(lp172
S'ttylxoxxoxoxoxo'
p173
aS'happy early bday jhoana biggest'
p174
aS'followers follow back'
p175
aS'grace perf love pose gtlt could look like'
p176
aS'caption tshirt'
p177
as.