(dp0
S'2013_43'
p1
(lp2
S'salman fair gauhar best contestant wish wins'
p3
aS'nigaar really like gauhar playing well wish wins'
p4
aS'salmaan bigg boss team clearly favouring tanisha kushal gauhar rock'
p5
aS'clearly yessss'
p6
aS'salman wots wrong supporting tanisha even wrong bigg boss house'
p7
aS'salmank clearly supportin tanisha comes kajol familyso salman spoiling image kushal'
p8
asS'2013_46'
p9
(lp10
S'ofcourse arman changed mind'
p11
aS'ofcourse'
p12
aS'robert vadra onion tomato ends joinaapindelhi december'
p13
aS'joinaapindelhi'
p14
aS'evry1 responsible'
p15
aS'uncensored elli protective bodyguard'
p16
aS'aap4transparency congress funding ticket distribution dynasty peopleschoice'
p17
aS'aap4transparency congress funding ticket distribution dynasty ihopefor'
p18
aS'candy think right decision'
p19
aS'people country right know rule aap4transparency'
p20
aS'started trend honest politics india honesty prevail vote vote better future'
p21
aS'right candy tanisha followed'
p22
aS'classic twitter praise debate govt targeting criticism raising modis history gaffes'
p23
aS'despite real power arvind kejriwal much better opposition bjp4delhi'
p24
aS'done almst evr1 house'
p25
aS'salman watching exclusive videos contestants says aloud playing right indeed'
p26
aS'want support arvind tell'
p27
aS'look sangram doung'
p28
aS'uncensored sangram bitches gauahar think losing cool'
p29
aS'support crucial time election visit website direct link'
p30
aS'following twitter donate money frens also donate money'
p31
aS'bb7we support gauhar'
p32
aS'clearly targeting gauhar'
p33
aS'retweet show support birthday todat dont'
p34
aS'know support'
p35
aS'aapsweepingdelhi cleanmoney4aap'
p36
aS'dont worry strong girl'
p37
aS'agree'
p38
aS'votee gauhar fans love vote gauhar common shud highest votes vote'
p39
aS'bcoz salman doesnt likes kushal gauhar friend simple'
p40
aS'still clear supprt tanisha pushd kushalif rght kushal wrng'
p41
aS'bigg boss chosen anymore'
p42
aS'angry kajol family ignored tanisha diwali sends greetings messages requested'
p43
aS'name weekend salman saath replaced weekend badla gauhar kushal'
p44
aS'seriously dont like dont watch even family member like rest shld respect chan\xe2\x80\xa6'
p45
aS'humorous side watch time unfair contestans show know'
p46
asS'2013_47'
p47
(lp48
S'sooo cute'
p49
aS'person like tanisha armaan'
p50
aS'actually lost ellie apni haar chupane liye kuch story bolega'
p51
aS'never'
p52
aS'sangram shud nominated'
p53
aS'kushal gauhar reunited gauhar cant seem control happiness seeing kushal'
p54
aS'kushals entry course house'
p55
aS'spoiler kushalisback cant wait watch'
p56
aS'kushal back cant wait till today'
p57
aS'shame tanishaif true tanisha proved class'
p58
aS'waiting enter house'
p59
aS'breaking news kushal entry pushed thursday'
p60
aS'ofcourse shouldnt sold gauhar targeted'
p61
aS'guess joke'
p62
aS'tanisha armaans chamchi armaans tanishas chamchalolso wtevr arman alwys justified'
p63
aS'gauhar doubt'
p64
aS'ajaz andy'
p65
asS'2013_44'
p66
(lp67
S'tanisha looser'
p68
aS'nothing expected tanisha'
p69
aS'rubbish explanation gave still hvnt tanisha askd leave house pushing kushal'
p70
aS'allsalman talking sense stuff'
p71
aS'salman want thing tanisha sent house pushed kushal'
p72
aS'dont lucknow house plzzzz'
p73
aS'elena elena'
p74
aS'salman still biased towards tanisha sorry waiting matter'
p75
aS'andy wrong sirf rahi hain agar tanisha ghar nahi nikala kushal nikala'
p76
aS'gauhar'
p77
aS'ghar bahar nikala nahi yehi partiality'
p78
aS'counted'
p79
aS'andy lost izzat'
p80
aS'wots wrong'
p81
aS'want kushal house'
p82
aS'want kushal house plzzzzzz'
p83
aS'glad gauhar housekushal shud'
p84
aS'kushal shud house othrwise decision biased'
p85
aS'ofcourse absolutely wrong'
p86
aS'comming condition kushal also'
p87
aS'salman declare tanisha winner'
p88
aS'tanisha doin house salman deserves host show'
p89
aS'proud evry word spoken evry action taken house justified'
p90
aS'biased showing kissing scene betwn arman tanisha'
p91
aS'whoevr enters show boring widout kushal gauhar'
p92
aS'respect gauharwhtevr said absolutely rght happd tanisha last wkhow unfair'
p93
aS'andy also arman also'
p94
aS'kushal leaving tanisha also fair'
p95
aS'gauhar leave kushal'
p96
aS'gauhar drama queen rubbish best contestant show'
p97
aS'sould back house along gauhar'
p98
aS'support kushal gauhar'
p99
aS'tanisha punished pushing kushal shouldnt kushalsimple'
p100
aS'fair kushal asked leave holds andys neck tanisha supported pushing kushal'
p101
aS'sorry andyno vote andy'
p102
aS'yess absolutely classless andy'
p103
aS'absolutely pratyusha thaali baingan'
p104
aS'pratyusha gone'
p105
asS'2013_45'
p106
(lp107
S''
p108
aS'any1'
p109
aS'thsshe hrself pushd kushal thrice house'
p110
aS'bcoz gauhar supports kushal salman targeting gauharhow unfair'
p111
aS'loosing respect salmankdont biased hindustan raha haiomg'
p112
aS'gauhar right remain decision return house absolutely right'
p113
aS'kushals return house tight slap tanishas facewill love'
p114
aS'tanisha reactd picks fight evry1 gauhars side'
p115
aS'ellie spineless sophia brainless'
p116
aS'andysphiaellie realise soon wrng compnytanisha playin game'
p117
aS'best joke'
p118
aS'going house true'
p119
aS'best person house'
p120
aS'gauhar always tries understand solve everyone issues makes sure partial'
p121
aS'never lies'
p122
aS'like manmohan singh'
p123
ag108
aS'ajan khan shud stay'
p124
aS'want team salman happen partial 2wards tanisha'
p125
aS'right'
p126
aS'wewantkushalback'
p127
aS'wtevr happend unfairtanisha askd leave house violence kushal'
p128
aS'really read tweets saying entering house'
p129
aS'true'
p130
aS'done fair shud house'
p131
aS'else arman shout scream abuse'
p132
aS'good'
p133
aS'even think good frens'
p134
aS'apoorva right kushals decision stand decision absolutely right'
p135
aS'bcoz salman wrong apologised appreciate step'
p136
aS'rght many othr celebrities'
p137
aS'kushal want house'
p138
aS'tanisha jealous andy kushal comes'
p139
aS'kushal house prove biased'
p140
aS'absolutely right'
p141
aS'tanisha wisest decision house'
p142
ag108
aS'joke century'
p143
as.