(dp0
S'2014_6'
p1
(lp2
S'want formula healthy relationship'
p3
aS'want know opinions tattoos okay replytweet'
p4
aS'fire soul cant contain cant control want'
p5
aS'yall wanna laugh butts look gary owen amendment youtube welcome'
p6
aS'changed guys thoughts smile'
p7
aS'hard christian gods reward much greater human take away'
p8
aS'love things'
p9
aS'wait youll realize plans'
p10
aS'self harmed since accepted christ savior realized skin wont solve problems'
p11
aS'scars wrists'
p12
aS'might well guys know'
p13
aS'jesus pray'
p14
aS'wrapped arms around changed greatest possible'
p15
asS'2014_7'
p16
(lp17
S'nights like break'
p18
aS'please pray guys real rough night tonight'
p19
aS'sorry havent lately caught school life ridiculous'
p20
aS'always away'
p21
asS'2014_5'
p22
(lp23
S'smile never know whos falling love'
p24
aS'jesus would proud today'
p25
aS'wish accomplish account smile persons face would make happy'
p26
aS'soon house'
p27
aS'every single beautiful handsome even said'
p28
aS'hope yall awesome made'
p29
aS'seriously like little girl christmas find someones christian'
p30
aS'find someone loves jesus'
p31
aS'simply retweet bell donate towards mental illness programs could help save someones life bell\xe2\x80\xa6'
p32
aS'dont look left right guidance terrible times look bible raise head'
p33
aS'guys express love jesus openly attractive'
p34
aS'guys love jesus gtgt'
p35
aS'ladies gents chase fast people keep ones need life'
p36
aS'ridiculous'
p37
aS'compliment people itll make make feel times better'
p38
aS'odds ylgame'
p39
aS'antarctica weather back ohio doesnt want anymore'
p40
aS'surprise'
p41
aS'dont follow heart bible says heart deceitful things jeremiah follow jesus'
p42
aS'forreal wasnt grammys couldve easily beat macklemore'
p43
aS'daily reminder followers'
p44
aS'itll okay okay'
p45
aS'perfect date paintballing pizza ambitious guys surprise'
p46
aS'knowyouranon ahead open book'
p47
aS'actually cant wait married going together love'
p48
aS'love music shuffles tenth avenue north maroon perfect'
p49
aS'remember jesus prayer away'
p50
aS''
p51
aS'dear single christians'
p52
aS'jesus loved enough sins praise worship like'
p53
aS'holy spirit burning inside christianpickuplines'
p54
aS'john jesus sassy'
p55
aS'satan tryna involved life like'
p56
aS'alright followers favorites smile picslip'
p57
aS'ummm heard jesus called mind'
p58
aS'never ashamed faith jesus dois peers'
p59
ag51
aS'find person made youll finally realize previous relationships didnt work'
p60
aS'ifwedate youll love jesus much center relationship'
p61
aS'snow cream delish make'
p62
aS'anything praise jesus idol dont idols'
p63
aS'great'
p64
aS'jesus save anybody includes homosexuals compulsive liars murderors thieves head'
p65
aS'jesus break heart'
p66
aS'always love good worship'
p67
aS'knew born dont ever think life mess youre exactly wants'
p68
aS'amazing story'
p69
aS'yourgodiswithyou hewillguideyou hewillprotectyou'
p70
aS'truth thought haha'
p71
aS'lord pray unsaved repent become saved ready heaven jesus name amen teamprayer'
p72
aS'need flannels scarves cardigans right'
p73
aS'friends brother cancer isnt expected make much longer please pray'
p74
aS'second best feeling reborn best feeling knowing jesus loves everyday'
p75
aS'speaks'
p76
aS'ifwedate center relationship\xe2\x9d\xa4\xef\xb8\x8f'
p77
aS'curious followers involved countys younglife'
p78
aS'love everyone even mean nasty people pray people really need gods undying love'
p79
aS'ever wearing purity ring heart would melt'
p80
aS'whenihaveafamily want kids know always priority besides christ always'
p81
aS'youre sons daughters king royalty thats mood changer dont know'
p82
aS'relationship christ important relationship significant'
p83
aS'lord savior jesus christ'
p84
aS'knowyouranon actively involved younglife changed life much'
p85
aS'bless lord soul soul'
p86
aS'love never fails never gives never runs'
p87
aS'agreed whole heartily'
p88
aS'mighty save'
p89
aS'came pandora'
p90
aS'aboard christianfollowtrain train bound glory jesus conductor retweet follow christian'
p91
aS'guys lately wanna know followers replytweet'
p92
aS'give take apart well take apart'
p93
aS'pray everything nothing small'
p94
aS'never alone sees crying struggling still holding arms promise'
p95
aS'download flappy bird retweet save life'
p96
aS'heart sing name jesus jesus'
p97
aS'yall give follow amazing account getting started\xf0\x9f\x92\x9e\xf0\x9f\x92\x9e'
p98
aS'guys inspired tweet thoughts spread jesus corners world followers'
p99
asS'2014_8'
p100
(lp101
S'thank much'
p102
aS'pray release everything lord gives peace passeth understanding gives'
p103
aS'stressing school life general finally'
p104
aS'well broke tonight please pray'
p105
aS'boys frustrating feel'
p106
asS'2014_9'
p107
(lp108
S'thank much'
p109
aS'thank'
p110
aS'thank much'
p111
aS'sorry havent lately news diagnosed depression started medication road recovery'
p112
as.