(dp0
S'2013_42'
p1
(lp2
S'corn maze'
p3
aS'going pumpkin patch today'
p4
aS'brings back hilarious middle school memories'
p5
aS'tgif'
p6
aS'give good friend follow brilliant'
p7
aS'worried quite time figured youd grown tired twitter glad back'
p8
aS'korean dictionary compared mini hershey small'
p9
asS'2013_43'
p10
(lp11
S'safe nowthe door shut wouldnt move pressed door open button free bizarre well'
p12
aS'stuck elevator coming save would happen'
p13
aS'happy sunday busy need motivation'
p14
aS'happy friend twila told listen ukiss'
p15
aS'happy friday yanasty happyfriday tgif'
p16
aS'makeup skills stagecraft class first time ever applying makeup someone kind proud'
p17
aS'youre welcome good'
p18
aS'chilly'
p19
aS'fire drill damn missing today really freezing'
p20
aS'dylan hunter know peoples name connie know'
p21
aS'theres chance snow today isthisreallife'
p22
aS'infect please seats today'
p23
aS'truly saddening many rude commentslooks someone carrying korean language learning book southkoreaisamazing'
p24
aS'lots corn'
p25
asS'2013_40'
p26
(lp27
S'amazing sisteract whoopigoldberg legendary'
p28
aS'movie night'
p29
aS'cute month getting around using'
p30
aS'happening autumn fall october'
p31
aS'animal school today spiritweek homecoming'
p32
aS'still love tomorrow lovelovelove'
p33
aS'government shutdown measured beyonce'
p34
aS'considered country music love'
p35
aS'happy october'
p36
aS'goodnight'
p37
asS'2013_41'
p38
(lp39
S'love'
p40
aS'dream walt disney believe'
p41
aS'needed spicing'
p42
aS'thats funny thought looked really pretty today'
p43
aS'bored decided costume'
p44
asS'2013_46'
p45
(lp46
S'today abbys birthday'
p47
aS'state snow tornadoes like week feel like back missouri'
p48
aS'literally dont know drizzling thedevilwearsprada illinoistornados'
p49
aS'apparently quite oblivious severity weather conditions right tornado watch eeek thanks info'
p50
aS'quite dreary weather today loving'
p51
aS'thoughts philippines please help support typhoon haiyan relief'
p52
aS'guilty 163849027361518304746 tweets snow'
p53
aS'snowing hooray'
p54
asS'2013_47'
p55
(lp56
S''
p57
aS'love'
p58
aS'dont anything meyer'
p59
ag57
aS'facebook convo became miley might well sold soul ginger dont lmao gingers'
p60
aS'downright ignorance people disturbing'
p61
aS'nasty whether aids nobody wants dirty blood flowing veins plain gross'
p62
aS'researching sexually active homosexuals cant donate blood someones answer continued'
p63
aS'havent listened song ageslove'
p64
aS'proud friends donated blood today ever need blood calling'
p65
aS'ended going doctor finding pregnantdreams themysteriesofdreams whatdoesitsymbolize'
p66
aS'interesting dream last night started backyard worshiping fire cussing'
p67
aS'loving 2ne1s song missing'
p68
asS'2013_44'
p69
(lp70
S'wake nastyy thatssoraven yanasty loveit'
p71
aS'feel like middle school converse'
p72
aS'dont forget extra hour beauty sleep tonight daylightsavings'
p73
aS'meow'
p74
aS'think want mana sama halloween next year itll expensive perfect'
p75
aS'harrypotter fans understand reference'
p76
aS'talking slave asked socks gave said justin free away hehe'
p77
aS'iphone year 4000 beyond calendar iphone apple pondering'
p78
ag57
aS'wish golden girls halloween episode could watch tonight'
p79
aS'disappointing halloween didnt trickortreat rain theres always next year guess halloween2013'
p80
asS'2013_45'
p81
(lp82
S'nostalgia middleschoolmemories thecampus comprehend amount nostalgia'
p83
aS'heading schools play amidsummernightsdream break'
p84
aS'mariah careys long straight hair video beautiful'
p85
aS'took oath serve solemnly accepted hope succeeded everlasting president'
p86
aS'watch'
p87
aS'gurl well guess eligible show told chusid dedication'
p88
ag57
aS'ermahgerd gerd'
p89
aS'substitute teacher video talking math'
p90
aS'giving much sass picture nophotosplease paparazzi'
p91
aS'silly abby trying door'
p92
aS'hallelujah makes proud live illinois loveislove gaymarriage illinois'
p93
ag57
asS'2013_48'
p94
(lp95
S'tree'
p96
aS'color mirror'
p97
aS'live life like invincible live life like vulnerable deepthoughts'
p98
aS'hate theres death close home puts life frightening perspective good thing sure'
p99
aS'havent fake short wear high heels practice walking love much'
p100
aS'funny'
p101
ag57
aS'nails'
p102
ag57
aS'thanksgiving break begun'
p103
aS'people america adult virgins virgins minority'
p104
aS'crazy foundation concealer eyeliner make feel'
p105
aS'gives life'
p106
aS'brrr'
p107
aS'sometimes would oprah'
p108
ag57
asS'2013_49'
p109
(lp110
S'slowest growing hair ever depressing thank much'
p111
aS'dont want christmas'
p112
aS'good morning facetime like week'
p113
aS'good head good heart always formidable combination ripnelsonmandela'
p114
aS'excited thanks reminding mobwives tonight newblood'
p115
aS'know'
p116
aS'front morning'
p117
aS'favorites christmas songs mariah carey faith hill'
p118
aS'love always whipping newspaper telling everyone news'
p119
aS'spice girls kind evening'
p120
aS'dont talk often always read tweets gorgeous funny randomshoutout'
p121
aS'flawless issue guest edited today'
p122
asS'2014_36'
p123
(lp124
S'happy birthday sister happy birthday grandmother'
p125
aS'never purple nails love sinfulshine nouveau purple'
p126
aS'huzzah'
p127
aS'abby scared'
p128
aS'test deciding bigger size later'
p129
aS'good morning'
p130
aS'riprise ripeunb'
p131
aS'rest peace rise kpop girl group ladiescode young'
p132
aS'taurus you\xe2\x80\x99d rather figure something fail instead getting help'
p133
aS'follow love'
p134
aS'found baby mouse still alive depressed might happen'
p135
aS'snapchat'
p136
aS'tgif hello'
p137
aS'ripjoanrivers'
p138
aS'thank dear'
p139
aS'working snapchat'
p140
aS'ripeunb despite fact never listened music beautiful thoughts kpop'
p141
ag57
aS'ellen serving face'
p142
aS'cheer'
p143
aS'snapchat picture bitch'
p144
aS'snapchat paparazzi picture'
p145
aS'huomenta'
p146
aS'american detained korea look like oliver wood harry potter'
p147
aS'thoughts'
p148
asS'2014_37'
p149
(lp150
S'autumn cleaning'
p151
aS'watching obama speak'
p152
ag57
aS'liquid eyeliner anything'
p153
aS'good times talking tonight usual congrats making callbacks fisforfriends'
p154
asS'2014_34'
p155
(lp156
S'looks amazing'
p157
aS'victoria beckhams alsicebucketchallenge favorite'
p158
aS'brightens mood mood ring matches nails'
p159
aS'disneyremixsongs'
p160
ag57
ag57
aS'first senior year'
p161
asS'2014_35'
p162
(lp163
S'sneeze front look like you\xe2\x80\x99ve offended great ancestors'
p164
aS'2015 months away make rest year count'
p165
aS'beautiful'
p166
aS'thinking snapchat wonder'
p167
aS'humidity today needisaymore death'
p168
asS'2014_32'
p169
(lp170
g57
aS'great faire bristol renaissance faire'
p171
aS'renaissance fair today bristol renaissance faire'
p172
aS'korean first time'
p173
aS'shes hungry'
p174
asS'2014_33'
p175
(lp176
S'parents foreign language class taking year math'
p177
aS'laying trying learn roll rswelcometomylife'
p178
aS'happy birthday'
p179
aS'anyone wanna meet rusty anchor happy hour'
p180
aS'finished summer reading book assignment help'
p181
aS'book read'
p182
aS'cute papermask'
p183
aS'busy el\xc3\xa4m\xc3\xa4jatkuu'
p184
aS'tarja turunen finnish goddessi love'
p185
aS'nice meet'
p186
aS'bristol wisconsin xoxo'
p187
asS'2014_30'
p188
(lp189
S'remembering winehouse today years'
p190
aS'cousins rivals queens'
p191
aS'kills nuest'
p192
aS'eyes'
p193
aS'guess cream really needed stop harleydavidson store'
p194
aS'love book cover always judge book cover elizabethi virginqueen gloriana'
p195
aS'still think homosexuality sinful'
p196
asS'2014_31'
p197
(lp198
S'havent even watched oitnb dying'
p199
ag57
aS'eyes look different today'
p200
aS'best thing going back school'
p201
aS'friend first school'
p202
aS'gets better'
p203
aS'remember'
p204
aS'happy birthday'
p205
asS'2014_38'
p206
(lp207
S'love watching live wild bird cameras lately relaxing'
p208
aS'nail finished'
p209
aS'sinful shine'
p210
aS'tgif'
p211
aS'american arrested attempting swim north korea meet jong'
p212
aS'thank'
p213
ag57
aS'cant nobody hold 2ne1'
p214
aS'pretty'
p215
aS'love tarjaturunen'
p216
aS'friends taurus never always come need someone'
p217
aS'pisces taurus love first sight'
p218
asS'2014_39'
p219
(lp220
S'love energy'
p221
aS'good night elizabeththegoldenage film sparked love fashion'
p222
aS'dafaq'
p223
aS'beautiful morning'
p224
ag57
ag57
asS'2014_19'
p225
(lp226
S'whats snapchat username'
p227
aS'blanche must homosexuals date women sophia yeah theyre called lesbians'
p228
aS'series finale golden girls aired years tonight'
p229
aS'karma'
p230
asS'2014_14'
p231
(lp232
S'taurus mediocre edge today lose patience must understand'
p233
aS'myrtle favorites love blindness'
p234
aS'loved winehouse girl'
p235
aS'ooooh trust know sass pessimistic'
p236
aS'sometimes gotta like dont care'
p237
aS'pretty good'
p238
aS'great look great well'
p239
aS'excited favorite group 2ne1 angeles times kpop 2ne1'
p240
aS'love'
p241
aS'mating season'
p242
ag57
aS'panic idea happened north south korea yikes stay safe innocent koreans ally troops'
p243
aS'lounging gagapose paparazzi snapchat justinmhughes'
p244
aS'like things organized order doesnt mean mental disorder'
p245
ag57
aS'love thatface aintnobodygottimeforthat sassy'
p246
asS'2014_15'
p247
(lp248
S'kind darling'
p249
aS'need serious motivation gatsby essay done mrsdaisybuchanan hervoiceisfullofmoney'
p250
aS'love nail'
p251
asS'2014_16'
p252
(lp253
S'filter perfection'
p254
aS'highness'
p255
asS'2014_17'
p256
(lp257
S'thank much'
p258
aS'grandfather robert ritter rest peace january 1941 april 2014'
p259
asS'2014_10'
p260
(lp261
S'gives life scream 2ne1 japanese'
p262
aS'isnt cute anymore'
p263
aS'goodnight'
p264
aS'good time mall today stay fabulous gurl thanks including appointments insidejokes tehee'
p265
aS'perfection'
p266
asS'2014_11'
p267
(lp268
S'shady pines'
p269
aS'everyone told'
p270
aS'simple understand history'
p271
aS'good luck friend performance howtosucceedinbusinesswithoutreallytrying break honey child'
p272
aS'amen'
p273
aS'obvs'
p274
aS'reading matt roloff littlepeoplebigworld separated study hall trying burst tears sadness'
p275
ag57
ag57
aS'stood legs minutes lock downs'
p276
aS'loved spending last minutes pushed wall legs schoollockdowns hooray'
p277
aS'watching lindsayonown skyping monumentalmoment love'
p278
asS'2014_12'
p279
(lp280
S'happy birthday love'
p281
aS'terminally worker gets goodbye kiss giraffe'
p282
aS'apples apples class'
p283
aS'bosworth character hills'
p284
aS'youre sassy know clap hands'
p285
aS'duct tape bracelets'
p286
aS'math quiz'
p287
aS'people emotional great gatsby'
p288
aS'forgot tweet yesterday natasha richardson 4years'
p289
aS'guilty pleasure'
p290
aS'knew middle schoolim sorry'
p291
aS'homework'
p292
aS'taurus someone really cares even cant appreciate won\xe2\x80\x99t'
p293
aS'officially like black better'
p294
aS'like purple white best'
p295
aS'looks like something youd married love anyway'
p296
aS'love like'
p297
aS'love nuest'
p298
asS'2014_13'
p299
(lp300
S'prize skype details wait tomorrow morning'
p301
aS'enjoy color color make feel would wear color'
p302
aS'life finally complete'
p303
aS'life needs frosting'
p304
aS'thank much following videos great 2ne1 fighting'
p305
aS'spice girls lose stylish asset'
p306
aS'jealous want squirrel come'
p307
aS'happy birthday love goldenbirthday major'
p308
aS'ready'
p309
aS'hairflip'
p310
aS'feel school dazed'
p311
aS'iwanttoobeprettytoo nuest'
p312
aS'raining first time 2014 believe scared'
p313
aS'stay safe honey child missouri torandostorm heaven right'
p314
aS'whatmomssaytogaysons'
p315
aS'goodnight friends'
p316
aS'hair flip'
p317
aS'tell difference'
p318
aS'scream'
p319
ag57
ag57
aS'stay cute'
p320
asS'2013_51'
p321
(lp322
S'view outside airplane window kansas city come blizzard'
p323
aS'think tehee workit polarexpress christmas'
p324
aS'don\xe2\x80\x99t care idontcare'
p325
aS'winter break commence missouri bound sunday morning christmas years'
p326
ag57
aS'perspective'
p327
aS'call wonderwoman oneofmyfavorites'
p328
aS'gorgeous morning'
p329
aS'school house made food since stayed home school'
p330
aS'tiffani want make sure dont bury awful outfit wanna glamorous'
p331
aS'walmart sliding like crazy love badweather'
p332
aS'finals week'
p333
asS'2013_50'
p334
(lp335
S'fabulous'
p336
ag57
aS'good enough anyone nobody good enough'
p337
aS'heres article youre interested whatdoesenglishsoundliketoforeigners'
p338
aS'wondering english sounds like foreigners long time nowi love accurate'
p339
aS'wrath mama justin pregnant dying'
p340
aS'learn time young grasshopper twittervirgin socute'
p341
aS'read facebook status thought said anyone baby theyre getting really said baby swing readeverywordjustin'
p342
aS'distracted vinesnapped like living room dark thesunwasupaminuteago'
p343
aS'asteroid killed dinosaurs aliens'
p344
aS'hands cold numb miserable ouch frostbite'
p345
aS'twila twitter everybody follow'
p346
asS'2014_8'
p347
(lp348
S'miss'
p349
aS'awake'
p350
aS'know'
p351
aS'happy birthday good gurl'
p352
aS'tgif'
p353
aS'happy birthday'
p354
aS'help'
p355
asS'2013_52'
p356
(lp357
S'missouri beauty'
p358
aS'happy birthday maggie smith woman diagnosed breast cancer said show must continue\xe2\x80\xa6'
p359
aS'snap'
p360
aS'love polar bears every year cocacola'
p361
ag57
aS'merry christmas friends friends twitter grateful life'
p362
aS'thank much hope marvelous'
p363
aS'today never without grandma 92413'
p364
asS'2014_6'
p365
(lp366
S'loving steel magnolias posts tumblr'
p367
aS'baby love rough isnt'
p368
ag57
aS'excited hopeitsgood thegreatgatsby'
p369
aS'cant cutefunny bompark parkbom'
p370
asS'2014_7'
p371
(lp372
S'2ne1 sounds amazing'
p373
aS'boring saturday'
p374
aS'cute'
p375
aS'happy valentines stagecraft materials'
p376
aS'virginitys lost today'
p377
aS'text sometime 8162061066'
p378
aS'makeup honey thank'
p379
ag57
ag57
aS'cant play flappy bird listening music want flap beat firstworldproblems'
p380
aS'think good laugh christian group says golden girls turns boys'
p381
aS'english history lovers like letmeloveyou'
p382
asS'2014_4'
p383
(lp384
S'youre welcome girl stay fabulous'
p385
aS'well personally dont like dramatic colored lipsticks something neutralpink'
p386
aS'ummmm'
p387
ag57
aS'missed thou'
p388
ag57
aS'skyping avec attendant retour'
p389
aS'faced fact never beautiful'
p390
aS'young grasshopper behave wont need life lessons'
p391
asS'2014_5'
p392
(lp393
S'welcome'
p394
ag57
aS'tgif followfriday'
p395
aS'means youre boss'
p396
aS'took stylebistros devil wears prada personality quiz emily stylebistroquiz'
p397
aS'making ipads iphones musical emily brooklyn'
p398
aS'happy birthday'
p399
aS'south korea known occasionally blast kpop music north korea'
p400
aS'skype photo credit'
p401
ag57
aS'nothing better bottle besttopcoatever sechevite nailart'
p402
aS'tell pregnant reply'
p403
aS'cause meanie replying'
p404
aS'click'
p405
aS'better problem bunch gays doorstep pitchforks torches'
p406
aS'school cancelled tomorrow tuesday going'
p407
asS'2014_2'
p408
(lp409
S'coming home walmart think believed northern lights apparently might'
p410
aS'playing webcam thing nursejustin'
p411
aS'slap upside head'
p412
aS'cleaningorganizing watching favorite movies happysunday thehelp makesmeemotional'
p413
aS'minzy never looked better'
p414
aS'cold weather remember many animals take shelter'
p415
aS'chicagos historic deep freeze captured polarvortex'
p416
aS'baby read lips freak nature loved song came chriscrocker'
p417
aS'happy birthday'
p418
aS'happy birthday snape thanks reminding oftentimes things arent seem always'
p419
aS'could consider'
p420
aS'theres starving children africa dont want spend hardearned movie theatre money'
p421
aS'dont anything'
p422
aS'wheres ring'
p423
ag57
aS'love good straight sleek high ponytail dont work gurl'
p424
aS'samesex marriage legal illinois starting june 2014'
p425
aS'sorry sorry'
p426
ag57
aS'turn fire never performance amazing baddestfemale'
p427
asS'2014_3'
p428
(lp429
S'feeling lost without cuteness days'
p430
aS'happy 92nd birthday bring life much every time watch thegoldengirls staygolden iloveyou'
p431
aS'south korea restaurants fast motorcyclists food time delivery comes back'
p432
aS'feels like grade minutes growingup signed senior classes omgim ready'
p433
aS'psych teacher today would continue talking alcohol theres adult outside lets talk meth loveher'
p434
aS'another beautiful morning'
p435
aS'gorgeous morning marvelousmonday'
p436
aS'skyping'
p437
asS'2014_1'
p438
(lp439
g57
aS'school cancelled tomorrow temperature supposed around degrees windchill could feel like ouch'
p440
aS'korean think chinese really cool'
p441
aS'delayed twice airplane crowded claustrophobia good'
p442
aS'guuuurl'
p443
aS'mall'
p444
aS'snow'
p445
aS'speechless amazing'
p446
aS'leave happy home'
p447
aS'line people check bags front line flight soon yayme imspecial'
p448
aS'going back home visiting stepmom thanks airport absolute hell keep getting delayed'
p449
aS'flight already delayed justmyluck'
p450
aS'went tonight last night kansas city brother girlfriend ilooklikehell'
p451
aS'happy year stay fabulous 2014'
p452
aS'child notreally'
p453
aS'happy 2014 christina 2014 newyear'
p454
aS'happy year kansas city missouri cnnnye'
p455
aS'miley cyrus rides ball midnight cameinlikeawreckingball'
p456
aS'years appletoapples'
p457
aS'feel like need spend clutch xmasmoney ialwaysspenditsounwisely'
p458
asS'2014_43'
p459
(lp460
S'fortune cookie breakfast'
p461
aS'northern white rhinos left earth'
p462
asS'2014_42'
p463
(lp464
S'cake'
p465
aS'pisces taurus unbreakable bond'
p466
aS'stars shine'
p467
ag57
ag57
aS'wear makeup newsworthy pharrell williams stepped paris wearing eyeliner'
p468
aS'thank inspiring watch diary black woman'
p469
aS'today'
p470
asS'2014_41'
p471
(lp472
g57
aS'pretty'
p473
aS'great makeup love blog'
p474
aS'north south korea exchange fire propaganda balloons south korean activists'
p475
aS'theres typhoon comin'
p476
aS'looking like girl problems'
p477
aS'love dame angelina jolie'
p478
aS'glad amanda bynes safe mental illness paired addiction fame joke amandabynes'
p479
aS'nowplaying ghost love score nightwish spotify'
p480
aS'northkorea southkorea propaganda balloons'
p481
aS'french vanilla biscotti coffee golden girls'
p482
ag57
aS'taurus reserved around people dont know'
p483
aS'peacock kind bird'
p484
aS'peacock justin need'
p485
aS'refuse settle something less great takes lifetime that\xe2\x80\x99s long wait'
p486
aS'retweet youre proud supporter marriage equality loveislove'
p487
aS'2ne1iamthebest100million'
p488
asS'2014_40'
p489
(lp490
S'prettier'
p491
aS'cooks fried chicken'
p492
aS'taurus could excitedsadpissed insidebut you\xe2\x80\x99d never know unless wanted know'
p493
aS'never know whats going taurus dont share downfalls true feelings anyo\xe2\x80\xa6'
p494
ag57
aS'beat face award'
p495
aS'ariana grande sounds like font make essay look longer'
p496
asS'2014_44'
p497
(lp498
S'hair makeup looks amazing kpop diplo 2ne1'
p499
aS'str8 trans equality tshirts follow'
p500
aS'1981 harry rescued hagrid godrics hollow taken dursleys begins'
p501
aS'hufflepuff'
p502
aS'1981 voldemort murdered lily james potter raise wands'
p503
ag57
aS'typical white bitch halloween'
p504
aS'makeup wound yesterday'
p505
aS'weezy kitty photo bombing cute hoodie'
p506
aS'amazing today'
p507
asS'2014_9'
p508
(lp509
S'love'
p510
aS'blasting love 2ne1s album crush'
p511
asS'2014_29'
p512
(lp513
S'nuest song'
p514
aS'nuest good'
p515
asS'2014_28'
p516
(lp517
S'apparently megan dont think proud'
p518
aS'birthday janet jackson'
p519
aS'weirdest thing ever read'
p520
aS'spice girls'
p521
aS'transgender women claim officials called asked remove hair makeup'
p522
asS'2014_21'
p523
(lp524
S'playing paparazzo watching element today'
p525
aS'everyone vote 2ne1 gotta kpop music mondays'
p526
asS'2014_20'
p527
(lp528
S'2ne1'
p529
ag57
ag57
aS'went flags today many others great 18th birthday'
p530
aS'xviii'
p531
aS'posted photo'
p532
aS'posted photo'
p533
aS'posted photo'
p534
ag57
ag57
asS'2014_23'
p535
(lp536
S'pissed face'
p537
aS'cant count family hell count'
p538
aS'lucky bamboo'
p539
aS'excited something entertaining watch summer cmtdogandbeth'
p540
aS'gatsby gatsby'
p541
aS'gatsby gatsby'
p542
aS'sunrise'
p543
aS'love seems like hair makes eyes even usual'
p544
aS'heard \xe2\x80\x98open season cover\xe2\x80\x99 soundcloud'
p545
aS'thankfully full moon otherwise really freaking'
p546
aS'strange living forest sounded like pack wolves howling outside window freaky'
p547
aS'throwbackthursday still like song 2005'
p548
aS'thanks cherise'
p549
aS'good'
p550
aS'good math final'
p551
aS'thank'
p552
aS'thank much'
p553
aS'done junior year hell time'
p554
aS'embracing semicurly hair'
p555
aS'finals couple hours approaching quickly'
p556
asS'2014_22'
p557
(lp558
S'take trifling lowclass bitch house oprah forever inspiring'
p559
aS'park everything'
p560
aS'thank much approval truly matters hugs'
p561
aS'nails'
p562
aS'love'
p563
ag57
aS'dont care'
p564
aS'good evening main probably stay night stuff done dont care'
p565
aS'rain fall'
p566
aS'enjoying fire familys house'
p567
asS'2014_25'
p568
(lp569
S'enjoy show'
p570
aS'amazing talented lady favorite episodes thank sending'
p571
aS'looks like rusty anchor golden girls dorothy blanche piano'
p572
aS'ready mothers birthday dinner hello daisy buchanan'
p573
aS'love jpop sometimes'
p574
aS'happy birthday mother jolene shehatesthissong summerbaby dollyparton'
p575
aS'thank standing equality even bachelorette party lgbt'
p576
aS'continue praise male enjoy'
p577
aS'thoroughly enjoy tamagotchi picture'
p578
ag57
aS'love taeyang'
p579
aS'thanks nostalgic tokio hotel mood'
p580
aS'retweet think every american treated dignity\xe2\x80\x94regardless sexual orientation gender identi\xe2\x80\xa6'
p581
asS'2014_24'
p582
(lp583
S'feel like kissing nonexistent husband work decade today pinnedcurls'
p584
aS'watching cmtdogandbeth'
p585
aS'tomorrow friday 13th full moon'
p586
aS'could escape gwenstefani beautiful'
p587
aS'youre much youre welcome'
p588
aS'look watch youre still super female ticktockticktockticktock'
p589
aS'facetiming'
p590
asS'2014_27'
p591
(lp592
S'loving maybelline nudes palette'
p593
aS'mariah carey amazing'
p594
aS'pretty today'
p595
aS'interesting thing read love reading foreigners think america'
p596
aS'happy birthday'
p597
aS'happy birthday princess diana'
p598
aS'lightning strike literally knocked desk chair swear fightorflight mode hatestorms'
p599
aS'rightbesideyou\xeb\xb0\x95\xeb\xb4\x84'
p600
asS'2014_26'
p601
(lp602
S'watching harry potter gypsy goodnight'
p603
as.