(dp0
S'2012_49'
p1
(lp2
S'come conclusion seeing single miss partner'
p3
aS'seem sign today saying dont worry looking going walk'
p4
aS'terrible xmas shopper always buying'
p5
asS'2012_28'
p6
(lp7
S'lying topless'
p8
aS'sounds like heaven'
p9
aS'really stop lusting women cant'
p10
asS'2012_27'
p11
(lp12
S'know think ready'
p13
asS'2012_26'
p14
(lp15
S'service record'
p16
aS'found word reruns'
p17
asS'2012_25'
p18
(lp19
S'psycho case'
p20
aS'shes place moment dont want anything happen regret equally could without'
p21
aS'friend fancied like years havin goin evening note self must confess undying lust'
p22
aS'proud best friend degree'
p23
asS'2012_24'
p24
(lp25
S'love brighton'
p26
aS'havent stopped recently exhausted'
p27
asS'2012_23'
p28
(lp29
S'best team whoop'
p30
aS'good reading backwards seems'
p31
aS'thought everyone hacked'
p32
aS'awkward moment youre friend always gives relationship advice still single'
p33
aS'love hoping stays'
p34
aS'going brighton tomorrow whooooop'
p35
aS'ouch thats horrid feeling takes days grow back'
p36
aS'looks like wants microphone'
p37
aS'girl chatting ages asked date said shes caught stuff take'
p38
aS'loadofshit\xe2\x80\x9d agreed'
p39
aS'watching horses makes miss riding allergic'
p40
aS'butcher'
p41
aS'wasnt massively fussed jubilee admit charles speech last night give lump throat'
p42
aS'gutted didnt'
p43
aS'haha quickly'
p44
aS'haha conditions apply'
p45
aS'haha thats true'
p46
aS'dont think could sadly'
p47
aS'seems case tonight'
p48
aS'women like busses wait come along'
p49
aS'king queen princess diamondjubilee'
p50
aS'oooh girl asked date returned holiday'
p51
aS'noisy neighbours home crying newborn stomping year love living'
p52
aS''
p53
ag53
aS'shes hell jessie totally type'
p54
aS'perform jubilee concert would tuned'
p55
aS'cant decide weather next lower trouser line hehe'
p56
aS'already'
p57
aS'beautiful many congratulations'
p58
asS'2012_22'
p59
(lp60
S'toying position next couple tattoos hmmm'
p61
aS'think decided next tattoo'
p62
aS'ooooh'
p63
aS'cant believe deleted lipservice accident bugger'
p64
aS'wrist'
p65
aS'anyone know tattoo frankies wrist means'
p66
aS'word look soaked hope soon'
p67
aS'think know better deal'
p68
aS'makes little less cute doggy smell'
p69
aS'beautiful'
p70
aS'thats pretty cool'
p71
aS'watching voice watched mins across whole series'
p72
aS'good luck hope goes wonderfully'
p73
aS'profile picture'
p74
aS'bloody hell defo gonna naughty dreams'
p75
aS'sleep gonna make dirty dreams'
p76
aS'awesome song'
p77
aS'night belongs aquarius thats things clearly'
p78
aS'shows sold'
p79
aS'mental picture taken'
p80
aS'showing photos came accident wasnt complaining'
p81
aS'tons want dont cash'
p82
aS'doesnt help showed tits'
p83
aS'thinking crush mate long gets occasionally'
p84
aS'driving along dreaming lesbian friend smitten another woman idea like fail'
p85
aS'funny looks'
p86
aS'moment friend posts bikini instagram start thinking naughty things'
p87
aS'diagnose depression self esteem first make sure fact youre surrounded'
p88
aS'sounds complex'
p89
aS'haha comfortable middle name thats certainty'
p90
aS'good luck hope sleep sure youll'
p91
aS'\xe2\x80\x9cjust caterpillar thought world became butterfly\xe2\x80\xa6\xe2\x80\x9d'
p92
aS'mine going look like soon'
p93
asS'2012_21'
p94
(lp95
S'baked starfish across cool'
p96
aS'mean temperature wise'
p97
aS'aquarius hates thought friend sometimes apologize even know theyre'
p98
aS'nerve keeps twitching annoying'
p99
aS'though cheer glasshalffull'
p100
aS'sunburnt shoulder brown'
p101
aS'thanks going watch thinks'
p102
aS'rooney never presenter tense socceraid'
p103
aS'none house nuts'
p104
aS'haha ummm cake none'
p105
aS'mood dont even know'
p106
aS'makes sense maybe legs'
p107
aS'yeah thats tough long never fast'
p108
aS'haha said every year years kept year killer isnt'
p109
aS'easily arms shoulders always white legs'
p110
aS'guys need followers whos gonna help whoever followers gets'
p111
aS'heading home sneaky minutes time river'
p112
aS'thought looked familiar friend lives marina'
p113
aS'brighton marina'
p114
aS'ride'
p115
aS'guess watching'
p116
aS'want lipservice back beautiful return tess needs happy ending'
p117
aS'neighbours good luck done time times'
p118
aS'defo sounds like need park flat avec balcony'
p119
aS'needs bikini'
p120
aS'balcony'
p121
aS'lipservice finished really must watch last series word'
p122
aS'glad lipservice watch'
p123
aS'well yeah bloody wasnt keen wanted lexy tess'
p124
ag53
aS'pansy'
p125
aS'terrible ending'
p126
aS'cooool'
p127
aS'ohhh good point maybe shall naked'
p128
aS'yeah kind expected showed stil walkin ages alas'
p129
aS'sleeping naked tonight cooled skimpy shorts though'
p130
ag53
aS'neither'
p131
aS'hell frankie lipservice without'
p132
aS'however even though overall found dissappointing lexy fucking'
p133
aS'logged pause times felt right anti climax lipservice'
p134
aS'series gone quick'
p135
aS'gorgeous'
p136
aS'looks like gonna busy night'
p137
aS'bugger'
p138
aS'shes gorgeous'
p139
aS'frankie doesnt return tonights lipservice episode service without'
p140
aS'tonight last'
p141
aS'glad'
p142
aS'thats gorgeous photo'
p143
aS'cant sleep without anything'
p144
aS'person cant sleep naked sheet'
p145
aS'another naked night tonight'
p146
aS'choked nearly died jammie dodger melodramatic'
p147
aS'could come warm'
p148
aS'sooooooooo tonight talking'
p149
aS'naked sleeping'
p150
aS'naked sleeping tonight'
p151
aS'done best make clear would dont think shes picked'
p152
aS'sheet duvet'
p153
aS'wish shes still hung probably wont much longer'
p154
aS'torture even word couldve jumped mmmmm'
p155
aS'friend fancied years showing pics phone came across boobs dream'
p156
asS'2012_20'
p157
(lp158
S'thats true didnt think like'
p159
aS'make roast never good makes'
p160
aS'trying mates keeps messaging said night like times'
p161
aS'nice favourite meal veggie lasagne'
p162
aS'please'
p163
aS'didnt like much till last nights episode'
p164
aS'admit tonight first time lipservice though lexy quite hasnt really done'
p165
aS'managed completely miss caught grieving'
p166
aS'yeah light hearted amongst rest serious stuff'
p167
aS'fact killed mega peed frankie watxh'
p168
aS'blah liked troublemaker'
p169
aS'oooh missed without part gang'
p170
aS'unimpressed whole series'
p171
aS'couldnt tweet lipservice phone room whats happened architect worked'
p172
aS'said arrange'
p173
aS'roses redish violets blueish dont foreskin youre probably jewish'
p174
aS'gotta love harvester'
p175
aS'lipservice tonight keep forgetting frankie gone interest diminished'
p176
aS'said said eeeeeeek'
p177
aS'based london'
p178
aS'many homophobes take change light bulb none fear change even make world'
p179
aS'dont approaching people even internet struggle although'
p180
aS'sure comfortable strike convo'
p181
aS'well thought messaged shed like dinner sometime'
p182
aS'doesnt quite cover asking'
p183
aS'angry birds africa style'
p184
aS'love peacocks'
p185
aS'shocked upset'
p186
aS'kenny dalglish leaves liverpool\xe2\x80\x9d sobs'
p187
aS'havent'
p188
aS'never ever asked someone always'
p189
aS'reworded date message like times'
p190
aS'long leave asking actual date really busy'
p191
aS'dinner'
p192
aS'nice lady drinks dinner'
p193
aS'chatting lovely lady like messages okcupid think drink tomorrow'
p194
asS'2013_5'
p195
(lp196
S'anyone know word season netflix'
p197
aS'ladies want meet ladies youre single follow othe'
p198
asS'2013_4'
p199
(lp200
S'grieving fact service wont returning'
p201
asS'2012_16'
p202
(lp203
S'maybe straight'
p204
aS'annoying'
p205
aS'wont going marathon tomorrow sweaty girls'
p206
aS'think watch lipservice iplayer tonight'
p207
aS'great summary'
p208
aS'cute'
p209
aS'makes special right'
p210
aS'theres team cool'
p211
aS'absolutely love frankie'
p212
aS'think could kind coming though hehe'
p213
aS'dont wish would together properly'
p214
aS'bloody excellent loved roll next week lipservice'
p215
aS'catastrophe lipservice'
p216
aS'frankie frankie frankie make commit lipservice'
p217
aS'please tell episode frankie lipservice'
p218
aS'cute frankie lipservice'
p219
aS'absolutely loving lipservice'
p220
aS'know feeling'
p221
aS'knew lipservice'
p222
aS'dont reckon frankie sleep lipservice'
p223
aS'best girl another lipservice'
p224
aS'frankie lexi seem alike lipservice'
p225
aS'funny lipservice'
p226
aS'screw lipservice'
p227
aS'oooooh showing feisty side like lipservice'
p228
aS'wonder long tess together lipservice'
p229
aS'oooh wouldnt mind seeing frankie lexie together lipservice'
p230
aS'much trouble ever lipservice'
p231
aS'miss sensible stoned hysterical'
p232
aS'lexiiiiiiie lipservice\xe2\x80\x9d loving accent'
p233
aS'love divide weather people like frankie love lipservice'
p234
aS'frankie hooooot lipservice\xe2\x80\x9d totally'
p235
aS'flatmate frankie lipservice\xe2\x80\x9d think shell long queue'
p236
aS'frankie looking lipservice'
p237
aS'still lipservice'
p238
aS'tess cute ever lipservice'
p239
aS'frankie annoys lipservice\xe2\x80\x9d noooo shes best'
p240
aS'love lipservice gets straight point'
p241
aS'glad kept opening credits lipservice'
p242
aS'lipservice whoooooooooohoooooooo'
p243
aS'tweeted excited lipservice tonight thank'
p244
aS'remember days petrol cost less quid litre'
p245
aS'youch thought quid'
p246
aS'well totally bored frankie keeps nice dreams'
p247
aS'missed much cant wait series starting bored watching series'
p248
aS'service good addiction'
p249
aS'love timeline filled tweets'
p250
aS'sounds like great reason stop'
p251
aS'wish service party'
p252
aS'praying theyll gone time grab soon iplayer'
p253
aS'noooo realised family tonight whats betting past shit'
p254
aS'bugger forgot watch'
p255
aS'actually cant wait tomorrow hope next hours goes quickly'
p256
aS'first auditioned part frankie heather peace playing lipservice friday'
p257
aS'service tomorrow woooooohooooo'
p258
aS'great nights sleep still tired'
p259
aS'sooooo tired know feeling zzzzzzz'
p260
aS'love glasses'
p261
aS'would love know going wrong dating sites'
p262
aS'boooo friend cancelled london tonight'
p263
aS'mates cancelled doesnt look likely'
p264
aS'london evening trying find nice chill'
p265
asS'2012_17'
p266
(lp267
S'really wembly ones'
p268
aS'email olympic football separate ticketing system'
p269
aS'jesus christ mother tested brakes following going massive puddle like send windscreen'
p270
aS'lonely lesbians club'
p271
aS'would lovely found dont know happen'
p272
aS'sick single want someone snuggle like today'
p273
aS'tonight quite possibly going make huge mistake someone slap fast'
p274
aS'would like read blog post explaining last nights storyline came'
p275
aS'totally know feeling'
p276
aS'best luck ladies'
p277
aS'good luck hope wonderfully stomach churning experience'
p278
aS'theres predictably lexy appear date'
p279
aS'really dont know weather right trailer next week nothing entice'
p280
aS'blog post lipservice writer harriet braun explaining tonights storyline came'
p281
aS'couldnt postponed filming till available'
p282
aS'frankie likely come together loss askhp'
p283
aS'physically jumped'
p284
aS'gutted actually fussed watching next weeks norm addicted'
p285
aS'horrid wasnt foreworning'
p286
aS'thought'
p287
aS'really really happy killing seriously think huge mistake like word dana lipservice'
p288
aS'hate seeing frankie hurting especially cant tell anyone'
p289
aS'really'
p290
aS'frankie getting rejected lipservice'
p291
aS'crying lipservice'
p292
aS'acting'
p293
aS'great another characters leaving like final episode word lipservice'
p294
aS'really rushing whole death thing arent lipservice'
p295
aS'crying angry killed character storyline lipservice'
p296
aS'seriously think theyve made huge mistake'
p297
aS'episode rocked digging episode style done lipservice'
p298
aS'character whole frankie thing like main storyline'
p299
aS'heck acting normal lipservice'
p300
aS'think sure secure series'
p301
aS'looking like pissed lipservice fans included'
p302
aS'actually going watch frankie arent gonna lipservice'
p303
aS'dont believe lipservice'
p304
aS'cant dream right lipservice'
p305
ag53
ag53
aS'fuck left sofa lipservice'
p306
aS'frankie lipservice'
p307
ag53
aS'tess split lipservice'
p308
aS'shes shes naughty cheating'
p309
aS'dont normally fancy looks running gear'
p310
aS'lipservice'
p311
aS'right fonna fill next hour till lipservice studying alarm'
p312
aS'yeah dont'
p313
aS'wish someone watch lipservice'
p314
ag53
aS'mwah'
p315
aS'hurry time want lipservice'
p316
aS'countdown lipservice tonight cant bloody wait'
p317
aS'frankie sadie dirty behind scenes tonights lipservice bbc3'
p318
aS'maybe frequented garden days would right disappeared'
p319
aS'cats choose owners'
p320
aS'follower'
p321
aS'mega excited lipservice tomorrow night'
p322
aS'really dedicated good'
p323
aS'cute feel sweet sexy'
p324
aS'near live mins'
p325
asS'2012_14'
p326
(lp327
S'jessie hysterical'
p328
aS'sitting watch trashy rarely'
p329
aS'favourite song weeks waterloo road'
p330
aS'defo time mobile'
p331
ag53
aS'sounds like great night'
p332
aS'thanks follow'
p333
aS'dont understand whole internet dating thing like pitching'
p334
aS'check service trailer excited frankie looking hotter ever'
p335
aS'cute american accent train'
p336
aS'able talk another woman would start'
p337
aS'london surrounded lesbians idea fail'
p338
aS'made hearing date service starts'
p339
aS'breaking news lipservice returns friday 20th april find'
p340
aS'followers feeling pressure'
p341
aS'reading service interview diva wish theyd announce series already'
p342
ag53
asS'2012_15'
p343
(lp344
S'hear lipservants official lipservice convention london featuring cast crew june'
p345
aS'squeal'
p346
aS'people damn scary'
p347
aS'sounds familiar story'
p348
aS'exhausted could shouldnt allowed late nights'
p349
aS'jeeeeezzzzz blue skies hail thunder lightening minutes'
p350
aS'oooh addicted watch hours time massive crush shane'
p351
aS'oooh jealous season need order actually'
p352
aS'live mins away hadnt years'
p353
aS'lucozade friend today'
p354
aS'terrible know time morning never sleep early enough'
p355
aS'thats true friends similar hours come home sleep afternoon'
p356
aS'know feeling thorpe park yesterday whacked hope relaxing'
p357
aS'ouch early envy'
p358
aS'jealous enough'
p359
aS'keep everything crossed today better'
p360
aS'morrrning early liking'
p361
aS'exactly tweet'
p362
aS'wish knew start also feel tackling wrong dont want life pass'
p363
aS'dont girl ticks like message doesnt reply'
p364
aS'youre teamlesbian want followers list'
p365
aS'look freaky dont'
p366
aS'idea dont know good'
p367
aS'incase didnt fancy read started blog'
p368
aS'sending massive hugs'
p369
aS'terrible play scream telly'
p370
aS'thanks'
p371
aS'fingers crossed'
p372
aS'well learn something everyday theres club town near idea'
p373
aS'started blog many thoughts head makes sense'
p374
aS'need learn difference friendly flirting women'
p375
aS'occurred year whole time thats wrong surely'
p376
aS'music channels could focus reading distracted except drooling gorgeous ladies hotpants'
p377
aS'first teenage crushes'
p378
aS'totally checked girl today caught never embarrassed'
p379
asS'2012_13'
p380
(lp381
S'well earned lazy enjoyed'
p382
aS'watching last nights casualty whatshername word'
p383
aS'well reached milestone followers waves'
p384
aS'good thank nice weekend'
p385
aS'wish knew talk women going wrong'
p386
aS'never know talk women dating sites'
p387
aS'time arse something feelings'
p388
asS'2012_18'
p389
(lp390
S'used thats clever'
p391
aS'walked didnt'
p392
aS'argument could inside side post thus'
p393
aS'really need stop feeling frustrated something'
p394
aS'still frustrated goal wasnt given'
p395
aS'jenny mega shes whole gets annoying think love shane though'
p396
aS'really disappointing ending'
p397
aS'finished season isnt'
p398
aS'finished word season disciplined download last season till next essay done'
p399
aS'moons always side flat bedroom'
p400
aS'classic like came think'
p401
aS'might look'
p402
aS'havent listened busted long'
p403
aS'pissed word'
p404
aS'arghhhhhhhh'
p405
aS'lets'
p406
aS'whoooooopooooooo'
p407
aS'rectangle called goal'
p408
aS'nearly threw something'
p409
ag53
aS'girls blouse period pain facup'
p410
aS'good'
p411
aS'left'
p412
aS'weve beaten time year'
p413
aS'precisely till whistles'
p414
aS'came watch footie arse told home unless shuts'
p415
aS'yeah agreed like feeling going happen'
p416
aS'early days could change'
p417
aS'refuse believe theyve written frankie well taking piss really think theyll struggle series'
p418
aS'early days early days'
p419
aS'come reds lucky bear'
p420
aS'would happen'
p421
aS'dream'
p422
aS'seen amazing cover things possible days hope find like'
p423
aS'lipservice dream panned last night'
p424
aS'pretty sure weve done point'
p425
aS'tried finding someone design custom'
p426
aS'chelsea stickers'
p427
aS'bumped chelsea neighbour could lots screaming coming block flats today'
p428
aS'lets hope seeing future'
p429
aS'cant wait hurry'
p430
aS'lucky thing already boys cant wait'
p431
aS'going game lucky enjoy screaming come reds'
p432
aS'cant wait footie later'
p433
ag53
aS'elaborate lipservice dream blog later'
p434
aS'iphone correct'
p435
aS'nope'
p436
aS'waiting hear back company dont contact groupon annoying'
p437
aS'exact problem today'
p438
aS'pondered pairing last week'
p439
aS'askminto prefer theatre tele'
p440
aS'askminto prefer theatre'
p441
aS'know mean actually cute sexy'
p442
aS'seems happen tess'
p443
aS'mega annoying funny feeling thats happen'
p444
aS'lexy bloody girl lipservice'
p445
aS'together think'
p446
aS'would said lexy tess'
p447
aS'shes soft spot tess reckon'
p448
aS'equally annoyed shes whole series appears'
p449
aS'lexy lexy tess going lipservice'
p450
aS'nice lipservice really feel tess'
p451
aS'lipservice really hate bitch tess acting group\xe2\x80\x9d'
p452
aS'program suicide left good parts'
p453
aS'better'
p454
aS'cats death really struggling enjoy series frankie lipservice'
p455
aS'house shagathon rahahaha poor tess though'
p456
aS'insane characters weeks'
p457
aS'someone going leave episode gone series lipservice'
p458
aS'taking piss lipservice frankie going well come'
p459
aS'tweet thing'
p460
aS'must taste nice'
p461
aS'doubt blocked hopefully'
p462
aS'lipservice tonight admit excited cats dead catfrankie storyline killed literally'
p463
aS'hadnt come across figured know think even believe'
p464
aS'weekend whoooooop'
p465
aS'except idea mean liverpool south'
p466
aS'yeah twitter last night friendly initially suddenly involve mate like know'
p467
aS'seems accused someone wronged someone except live opposite country jeez'
p468
aS'went idea live west london kids'
p469
aS'never appeal staying watch vote results like watching paint surely'
p470
aS'ouch'
p471
aS'least showers better right temperature easier'
p472
aS'earlier made feel'
p473
aS'exactly'
p474
aS'reckon manage another episodes word tonight'
p475
aS'last night watching self defence instructor smacks alices hard'
p476
aS'downloaded season last night good giggle shanes celibacy'
p477
aS'time word'
p478
aS'cant decide weather nose pierced thing stopping fact wimp dont want alone'
p479
aS'tomorrow give lucozade finished bottle left'
p480
aS'already watched first episodes season word dangerously addictive'
p481
aS'nope especially shane shes seriously'
p482
aS'addictive'
p483
aS'yeah done halloween mazes nearly strangled person front never'
p484
aS'ride thorpe park inside part scares crap'
p485
aS'season watched 1234 since'
p486
aS'find final destination films scary wimp'
p487
aS'haha yeah exactly'
p488
aS'watching season totally agree'
p489
aS'films scare silly'
p490
aS'thousands heartbroken ladies shes left behind'
p491
aS'taking guess paige burnt shanes business'
p492
aS'thought half money'
p493
aS'word season whys helena jail'
p494
aS'trouble could stay hours watching'
p495
aS'shit downloaded word season itunes cheer'
p496
aS'rearrange'
p497
aS'missed dive'
p498
aS'whats best email address contact'
p499
aS'heaven plate'
p500
aS'vegemite cheese toast lovely'
p501
aS'straight site'
p502
aS'cant remember know seeing semi final'
p503
aS'daft isnt managed tickets today couple games wembly'
p504
aS'would make life easy'
p505
aS'blog need internet dating help'
p506
aS'improve gaydar'
p507
asS'2012_19'
p508
(lp509
S'thank tired'
p510
aS'hehe thanks'
p511
aS'need right legs ache turns miles isnt easy seems'
p512
aS'aching much moonwalk last night need sexy lady massage'
p513
aS'thanks ladies completed 4hrs need massage though aching much'
p514
ag53
aS'enjoying sight lots lovely beautiful ladies boobs moonwalk'
p515
aS'moonwalk'
p516
aS'find weird haircut sharp fierce'
p517
aS'moral episode dont cheese handbag right'
p518
aS'ouch lipservice'
p519
aS'really sadie find creepy lipservice'
p520
aS'watching without frankie like completely different program dislike'
p521
aS'trying watch whilst sewing isnt working keep stabbing'
p522
aS'totally like start series since killed sent frankie packing lipservice'
p523
aS'lipservice tonight although cutting characters sure want tonight tess next'
p524
aS'service tonight writing worse'
p525
aS'hate someone like text home dont reply'
p526
aS'haha jenny rudely interupts phoning'
p527
aS'american reunion tonight hysterical stuff'
p528
aS'kitchen dress'
p529
aS'lovely lady chatting replied even mentioned kids first woman ignore'
p530
aS'wonder many people saying marriage unnatural aeroplane'
p531
aS'nice chat lovely lady'
p532
aS'rolo cream sadly disappointing'
p533
aS'cant seen enjoy watching behind cushion'
p534
aS'another film terrifies think cause could real petrifies'
p535
aS'havent watched'
p536
aS'dunno film terrifies'
p537
ag53
aS'time'
p538
aS'hate accounts retweet others posts replies'
p539
aS'yeah foul mood plans fall tonight never fails piss'
p540
aS'never offer figured'
p541
ag53
aS'pack'
p542
aS'rolo cream'
p543
aS'brought raspberry cheesecake chocolate tarts'
p544
aS'love working shouldnt'
p545
aS'whathurtsthemost explains look onthebrightside life goes'
p546
asS'2012_34'
p547
(lp548
S'funnily enough watching right'
p549
aS'wifi bonus gone insane otherwise'
p550
aS'exciting'
p551
aS'dream still terrible gaydar family many opportunities'
p552
aS'seeing'
p553
aS'holiday forest arrived already miss havin someone share yearning started'
p554
aS'talking really nice girl downside lives york live london'
p555
aS'asleep ages going cranky bitch tomorrow'
p556
aS'watch last season hasnt quite ended'
p557
aS'season sucked awesome character couldnt believe killed'
p558
aS'refresh memory happens season'
p559
aS'hugs'
p560
aS'sexually assaulted mosquito\xe2\x80\x9d ummmmmm'
p561
aS'miss acct'
p562
asS'2012_37'
p563
(lp564
S'drink lesbian champions'
p565
aS'girl fancied like decades going tonight drink currently single must resist'
p566
asS'2012_30'
p567
(lp568
S'beatles'
p569
aS'oops sods'
p570
aS'cried ceremony mainly work related feelings lying naked cause fucking'
p571
as.