(dp0
S'2013_42'
p1
(lp2
S''
p3
aS'maybe shud stop eating much'
p4
aS'okay dont respond'
p5
aS'always middle things'
p6
asS'2013_43'
p7
(lp8
S'hate equally'
p9
aS'welcome'
p10
aS'bring phone tomorrow charge ales charger'
p11
aS'straightening hair'
p12
aS'feel like getting sick'
p13
aS'using damn sucks'
p14
ag3
aS'finally home'
p15
aS'ride still doesnt'
p16
aS'thank'
p17
aS'happy birthday'
p18
aS'thanks'
p19
aS'happy birthday hope good'
p20
aS'wake early tomorrow'
p21
aS'feet hurt'
p22
aS'whole ride home kaylas sister honking screaming windows lmfao'
p23
aS'tonight much girls'
p24
aS'ride gtgtgt'
p25
aS'good night babys kayla'
p26
aS'happen'
p27
aS'hell'
p28
aS'alrightyyy'
p29
aS'snap okay well shes picking starts like'
p30
aS'yeah'
p31
aS'waiting waiting'
p32
aS'bored'
p33
aS'gonna tonight maaatttta'
p34
aS'straightening hair legit struggle'
p35
aS'okay'
p36
ag3
aS'thing'
p37
aS'period today'
p38
aS'supporting kaylas nieces tomorrow night'
p39
aS'people take school joke like gonna joke people successful dont even'
p40
aS'wish skinnier'
p41
aS'dont relationship anytime soon'
p42
aS'wanna haunted house'
p43
aS'yeah'
p44
aS'lmfao finally unlocked right'
p45
aS'point like even point'
p46
aS'hour'
p47
aS'finally'
p48
aS'trips littlest things'
p49
aS'hate'
p50
aS'literally telling anyone anything anymore fake goodbye'
p51
asS'2013_40'
p52
(lp53
S'thank pretty'
p54
aS'happy birthday beautiful'
p55
aS'happy birthday'
p56
aS'babes twitterless kaykay'
p57
aS'wish could'
p58
aS'absolutely nothing treated like shit story life'
p59
aS'really good hoping really good night'
p60
aS'game later'
p61
aS'guys know dance salsa bachata \xf0\x9f\x98\x8d\xf0\x9f\x98\x8d\xf0\x9f\x98\x9bgtgt'
p62
aS'people always assuming'
p63
aS'whatd tell'
p64
aS'yeah'
p65
ag3
aS'going game tomorrow'
p66
aS'good lier'
p67
aS'wish someone running'
p68
ag3
aS'texted back dont even reply'
p69
aS'lmao still cant remember gonna tell'
p70
aS'convo today something eles'
p71
aS'seriously wanna back sleep'
p72
aS'face'
p73
aS'thank dont beautiful'
p74
aS'literally gourgous jelaous okay seem cool'
p75
aS'would cute together'
p76
aS'yess'
p77
aS'thank'
p78
aS'beautiful cool people around sometimes'
p79
aS'thank ily2 deff going game friday'
p80
aS'booty gorgeous defiantly need hangout'
p81
aS'practice'
p82
aS'still tired'
p83
aS'wish hair would stay straight'
p84
aS'good'
p85
aS'sisters dancing gtgtgt'
p86
aS'wanna real spanish party'
p87
aS'thats good'
p88
aS'much'
p89
asS'2013_41'
p90
(lp91
S'thanks'
p92
aS'aviii point'
p93
aS'offfffff work'
p94
aS'practice'
p95
aS'annoyed easily'
p96
aS'faves'
p97
aS'school bestieee'
p98
aS'hungry'
p99
aS'kayla needs hurry finish test'
p100
aS'still school'
p101
aS'keep things'
p102
aS'feel'
p103
aS'homework'
p104
aS'practice soon'
p105
aS'thanks'
p106
aS'happy birthday beautiful'
p107
aS'thanks'
p108
aS'happy birthday gorgeous'
p109
asS'2013_46'
p110
(lp111
S'earlier shawty'
p112
aS'wish'
p113
aS'thats'
p114
aS'cant wait home'
p115
aS'wanna home'
p116
aS'done nothing whole period'
p117
aS'never'
p118
aS'stop yall cute'
p119
aS'even'
p120
aS'stop'
p121
asS'2013_47'
p122
(lp123
S'thats wierd'
p124
aS'best'
p125
aS'best'
p126
ag3
ag3
aS'like guys tall'
p127
aS'never'
p128
aS'aint type'
p129
aS'though'
p130
aS'even like'
p131
aS'text'
p132
aS'seriously aint special'
p133
aS'hold tell'
p134
aS'rather special'
p135
aS'tired'
p136
aS'week needs'
p137
aS'need finish'
p138
aS'barley text anyone'
p139
aS'actually texted'
p140
aS'gunna cold'
p141
aS'basically time'
p142
aS'never mind gotta take care mario'
p143
aS'begged'
p144
asS'2013_44'
p145
(lp146
S'yess'
p147
aS'house'
p148
ag3
aS'lmao conceded better shopping weekend'
p149
aS'know'
p150
ag3
aS'okay left shes coming back'
p151
aS'damn really left'
p152
aS'gonna pick'
p153
aS'come please'
p154
aS'wheres money'
p155
aS'used inlove nick jonas\xf0\x9f\x98\x82\xf0\x9f\x98\x8d\xe2\x80\x9d'
p156
aS'gonna stay home going'
p157
aS'sadly'
p158
aS'better going school today'
p159
aS'know gotta reunite'
p160
aS'miss much'
p161
aS'bring'
p162
aS'pizzas'
p163
aS'aint nothing better spanish music'
p164
aS'best friend live minutes away \xee\x90\x84\xee\x90\x84\xee\x90\x84gtgtgtgt\xe2\x80\x9d'
p165
aS'running late'
p166
asS'2013_45'
p167
(lp168
S'okay nope staying home'
p169
aS'come'
p170
aS'feet killing'
p171
aS'danced night'
p172
aS'quince really'
p173
aS'ready'
p174
aS'less hour ready'
p175
aS'curling hair'
p176
ag3
aS'miguel went didnt shoulda went right'
p177
aS'cute'
p178
aS'remember lots things'
p179
aS'good memory'
p180
aS'lots tomorrow'
p181
aS'love dance'
p182
aS'tomorrow night good'
p183
aS'course'
p184
aS'excited'
p185
aS'tomorrow'
p186
aS'want rome santos concerts'
p187
aS'extraaa annoying today holy shit\xe2\x80\x9d'
p188
aS'awhile'
p189
aS'goodmorning text wait dont'
p190
aS'mall today'
p191
aS'sister cries ltltlt'
p192
aS'someone always make'
p193
aS'need eyebrows done today'
p194
aS'whats cause phone takes forever send pics'
p195
aS'anabellx3'
p196
aS'text good'
p197
aS'still need shoes quince tomorrow'
p198
aS'send pictures dresses'
p199
aS'school boring theres nobody look forward seeing everyday'
p200
aS'eyebrows need done weekend'
p201
aS'probably look mean swear nice'
p202
aS'always tired'
p203
aS'sympathy'
p204
aS'okay wont'
p205
aS'might'
p206
aS'deff'
p207
aS'maybe later'
p208
aS'melissa likes'
p209
aS'someone adopt'
p210
aS'understands much actually hate school'
p211
ag3
aS'goooo'
p212
aS'swear dont'
p213
aS'better going'
p214
aS'knew'
p215
ag3
aS'okay'
p216
aS'name'
p217
aS'know dont worry'
p218
aS'youve tried'
p219
aS'type girl gets annoyed quick'
p220
aS'know love'
p221
aS'didnt anything'
p222
aS'okay'
p223
aS'know'
p224
ag3
aS'read later'
p225
aS'hell later'
p226
aS'yall would cute together'
p227
aS'know mean'
p228
aS'find sooner later'
p229
aS'probably know'
p230
aS'follow'
p231
aS'mention melissas crush'
p232
aS'dont crush'
p233
asS'2013_37'
p234
(lp235
S'nobody knows business wouldnt wanna lowkey shit'
p236
aS'insidious actually really good movie'
p237
aS'seen chico next baby'
p238
aS'funny swear'
p239
aS'truu nice chilling iyou though'
p240
aS'even though dont love'
p241
aS'know gotta bestfriends side'
p242
aS'insidious good also confusing'
p243
aS'well coulda better'
p244
aS'night hellla good'
p245
aS'great night everyone'
p246
aS'gotchuu'
p247
aS'took many pictures'
p248
aS'tonight good'
p249
aS'love guys nice eyes'
p250
aS'boys'
p251
aS'waiting'
p252
aS'ready'
p253
aS'cant wait tonight'
p254
aS'think cause shes picking'
p255
aS'tonight good youre hanging'
p256
aS'course already know'
p257
aS'getting readyy'
p258
aS'mall familia'
p259
aS'tonight good'
p260
aS'havent gone longest'
p261
aS'prince royce aventura station pandora comes know feeelllssss'
p262
aS'long'
p263
aS'bestfriends coming tomorrow'
p264
aS'much'
p265
aS'quince practice soon'
p266
aS'always wanted double date'
p267
aS'thanks baby girl miss'
p268
aS'happy birthday gorgeous miss'
p269
aS'right'
p270
asS'2013_36'
p271
(lp272
S'really bitch daaamn right'
p273
aS'tall guys gtgtgtgtgt yaaas'
p274
aS'hackingggg yaaaaaa'
p275
aS'need already'
p276
aS'hugs best'
p277
aS'messed friends talk'
p278
aS'tell miss soon'
p279
aS'tell said happy birthday'
p280
aS'gunna scroll life away tumblr'
p281
aS'romeo santos voice literally'
p282
aS'bright side tomorrow'
p283
aS'want long lasting faithful relationship\xf0\x9f\x92\x8f\xf0\x9f\x92\x8d\xf0\x9f\x92\x8e\xe2\x9d\xa4'
p284
aS'really dont want school tomorrow'
p285
aS'chris brown just\xf0\x9f\x98\x8d\xf0\x9f\x98\x8d\xf0\x9f\x98\x8d\xf0\x9f\x98\x8d\xf0\x9f\x91\x85\xf0\x9f\x92\xa6\xf0\x9f\x92\xa6'
p286
aS'thank beautiful miss talking'
p287
aS'hairgtgtgt miss talking gorgeous'
p288
asS'2013_35'
p289
(lp290
S'knew good mood going fucked'
p291
aS'people willing downn'
p292
aS'needa hurry'
p293
aS'thanks jailene'
p294
aS'relieved'
p295
aS'good thank shes alright'
p296
aS'cant wait'
p297
aS'orlando weekend'
p298
aS'packing'
p299
aS'finally heard bestfriend shes better'
p300
aS'pictures kayla planning posting twitter personally slap'
p301
aS'praying baby girl kayla okay'
p302
aS'hope kayla okay'
p303
aS'weekends gunna suck rains whole time'
p304
aS'today'
p305
aS'hate things people like'
p306
aS'weekend good last'
p307
ag3
aS'maybe going football game tomorrow'
p308
aS'happy tomorrow friday'
p309
aS'cant wait weekend'
p310
aS'picked little brother'
p311
aS'senior already\xf0\x9f\x92\x81'
p312
aS'boys'
p313
aS'making life goal meet'
p314
aS'honestly funniest person know bestfriend'
p315
aS'gonna need future husband athletic'
p316
aS'math homework'
p317
asS'2013_34'
p318
(lp319
S'weekend good'
p320
aS'back'
p321
aS'dont lose found somebody'
p322
aS'worry'
p323
aS'hour ride'
p324
aS'headed home'
p325
aS'brother lost game'
p326
ag3
aS'dont mean bone body takes something offensive mean'
p327
aS'shower time'
p328
aS'swimming night gtgt'
p329
aS'brother scored goals today'
p330
ag3
aS'brothers soccer game soon'
p331
aS'left'
p332
aS'happy birthday'
p333
aS'pour'
p334
aS'miromar outlets'
p335
aS'well least good time'
p336
aS'away sister ltltlt'
p337
aS'miss'
p338
aS'single getting tbfh'
p339
aS'gunna good weekend'
p340
aS'plans weekend'
p341
aS'well tomorrows'
p342
aS'feeling today'
p343
aS'looking forward weekend'
p344
aS'last block bestfriend gtgt'
p345
aS'hungry'
p346
aS'like much'
p347
aS'head hurts'
p348
asS'2013_33'
p349
(lp350
S'mexico december'
p351
ag3
ag3
aS'dont wanna wake early'
p352
aS'looking forward tomorrow'
p353
aS'wearing ripped jeans first someone something'
p354
aS'sister always fighting'
p355
aS'wont home weekend'
p356
aS'needs come home like'
p357
aS'miss sister'
p358
aS'nothing'
p359
aS'classes literally scattered across campus year shape'
p360
aS'looking forward year time cause aint make friends focusing\xe2\x80\xa6'
p361
aS'feeling gonna like anyone classes'
p362
aS'cousinsgtgtgtgt'
p363
aS'well year'
p364
aS'friends needs betteroffalone'
p365
aS'tell'
p366
aS'snap whoo'
p367
aS'thank youu'
p368
ag3
ag3
aS'twitter'
p369
asS'2013_39'
p370
(lp371
S'love welcome'
p372
aS'like thank'
p373
ag3
aS'gtgtgt'
p374
aS'know'
p375
aS'uhhhh going'
p376
aS'homework dont feel like'
p377
aS'really dont wanna school tomorrow'
p378
aS'wish homecoming could like every month love dancing everyone seeing dressed'
p379
aS'tight'
p380
aS'wand'
p381
aS'curl'
p382
aS'beach'
p383
aS'bestfriend'
p384
aS'kayla needs hurry leave'
p385
aS'ready'
p386
aS'answer phone'
p387
aS'finally getting hair done'
p388
aS'really wish right'
p389
aS'thanks beautiful'
p390
aS'youre gorgeous\xf0\x9f\x98\x8d invite right'
p391
aS'alrighty later'
p392
aS'tonight'
p393
aS'yess'
p394
aS'course baby going homecoming right'
p395
aS'sorry thank gorgeous'
p396
aS'seriously aint football game didnt school happy birthday'
p397
aS'thankss'
p398
aS'happy birthday'
p399
aS'welcome'
p400
aS'thank'
p401
aS'think going football game'
p402
aS'well better hope school soon'
p403
aS'well least better dont school'
p404
aS'thank better'
p405
aS'happy birthday'
p406
aS'tonight even better'
p407
aS'really good'
p408
aS'thank'
p409
aS'happy birthday'
p410
aS'thank'
p411
aS'happy birthday'
p412
aS'thankyouu gorgeous'
p413
aS'happy birthday beautiful'
p414
aS'gonna front today good'
p415
aS'thank'
p416
aS'happy birthday'
p417
aS'thanks'
p418
aS'happy birthday'
p419
aS'thank gorgeous'
p420
aS'happy birthday beautiful'
p421
aS'thankyouuuu'
p422
aS'thank beautiful'
p423
aS'happy birthday gorgeous'
p424
aS'thank gorgeous'
p425
aS'happy birthday beautiful'
p426
aS'happy birthday cutie good'
p427
aS'thank'
p428
aS'thank youalreadyknow'
p429
aS'happy birthday turrrnnupppp good'
p430
aS'thank course'
p431
aS'thanks pretty'
p432
aS'happy birthday beautiful'
p433
aS'thank love'
p434
aS'thanks gorgeous'
p435
aS'happy birthday pretty'
p436
aS'thankyouu'
p437
aS'happy birthday'
p438
aS'thanks gorgeous'
p439
aS'happy birthday beautiful'
p440
aS'thank'
p441
aS'happy birthday'
p442
aS'thank love yess'
p443
aS'happy birthday baby love later'
p444
aS'thanks'
p445
aS'happy birthday'
p446
aS'wanna forever'
p447
aS'thank yess'
p448
aS'happy birthday cutie booty soon babygirl'
p449
aS'dont wanna school'
p450
aS'happy birthday'
p451
aS'birthday tomorrow'
p452
ag3
aS'thingsigetalot'
p453
aS'hate hair much'
p454
aS'practice good'
p455
aS'never wearing leggings school again\xe2\x80\x9d'
p456
aS'cutest twin thus many compliments'
p457
aS'still dont dress homecoming woooop'
p458
aS'havent laughed like forever'
p459
aS'always laughing'
p460
aS'week gonna busy'
p461
aS'bestfriend'
p462
aS'jersey'
p463
asS'2013_38'
p464
(lp465
g3
aS'thank'
p466
aS'happy birthday'
p467
aS'need'
p468
aS'closet know'
p469
aS'mario'
p470
aS'miami'
p471
aS'goodnight text bestfriend sent gtgt'
p472
aS'miami tomorrow'
p473
aS'sore'
p474
aS'want oomf text know wont happen'
p475
ag3
aS'jogging wbestfriend'
p476
aS'sportsmans'
p477
aS'whats oomfs problem\xe2\x80\x9d'
p478
aS'matching'
p479
aS'tomorrow finally friday'
p480
aS'malo aventuraaa gtgtgt'
p481
aS'best taken'
p482
aS'dont like upset turn frown upside back pretty smile'
p483
ag3
aS'love'
p484
aS'cheer'
p485
aS'really good'
p486
aS'free period'
p487
aS'hate'
p488
aS'beyond excited weekend'
p489
aS'need'
p490
aS'worst headache'
p491
aS'today straight'
p492
ag3
aS'biiiihhh better school today'
p493
aS'detention'
p494
aS'going detention'
p495
aS'reached point shit dont matter'
p496
aS'time homework'
p497
aS'detention'
p498
aS'older sister never wanted lmao thanks ride'
p499
aS'lmao thanks ride'
p500
aS'uhhhhhhh stay home'
p501
aS'stay home'
p502
aS'missed'
p503
as.