(dp0
S'2013_51'
p1
(lp2
S'miss'
p3
aS'literally watching hour cant breathe'
p4
asS'2014_8'
p5
(lp6
S'cover already existing tattoo hunt draw sharpie thank love'
p7
aS'swear larry doesnt come closet soon going scream cute hide'
p8
aS'live stream link brits tonight timer screen'
p9
aS'everyone yeah'
p10
asS'2014_9'
p11
(lp12
S'love'
p13
aS'hair gawd'
p14
aS'look waking late crack dawn work'
p15
aS'years increasingly worse symptoms diagnosed severe depression'
p16
aS'perfect sthap'
p17
asS'2014_6'
p18
(lp19
S'even spell elounor right know dont even care'
p20
aS'elounor fanfics make want vomit like like would even'
p21
aS'wish possible marry cartoon characters goooood'
p22
aS'yass'
p23
aS'bruises errrywhere damn'
p24
aS'curves'
p25
aS'louis boyfriend drowning tears smsmzma holy shitjjdc'
p26
aS'harrys laugh'
p27
aS'little lous tattoooooo'
p28
aS'sunshine'
p29
aS'harry slave louis master'
p30
aS'yeah done winter year'
p31
aS'inches youre getting easy supposed least thats told'
p32
aS'really seems like'
p33
aS'really really cold'
p34
asS'2014_7'
p35
(lp36
S'back sleep time wooork'
p37
aS'dominant harry addictcan satan damn'
p38
aS'shit mother shit shit cant breathe cries addict chokes louis hell'
p39
aS'beautiful angel niall kinda cryin right baifiwkan gwudjjaifbw'
p40
aS'understand fuck think everyone needs thank satan omdg'
p41
aS'keegan allen troian bellisario ship hard like'
p42
aS'louis'
p43
aS'management better find make work perfect'
p44
aS'unbreakable bond brothers becomes little twincest louisonlouis ouch'
p45
asS'2013_52'
p46
(lp47
S'heres punch face twink louis'
p48
asS'2014_10'
p49
(lp50
S'young louis happy springy delicate precious back'
p51
aS'iiiiiiiiiiiight whos copying'
p52
asS'2014_11'
p53
(lp54
S'cute'
p55
asS'2014_12'
p56
(lp57
S'holy thirst fuck'
p58
aS'nouis cant stop watching tomvajjd'
p59
aS'listen'
p60
aS'imagine moufs'
p61
asS'2014_1'
p62
(lp63
S'louis cant sleep neither bridge'
p64
as.