(dp0
S'2013_42'
p1
(lp2
S'diego'
p3
aS''
p4
ag4
aS'nice you\xe2\x80\x99ll like'
p5
aS'creative class general cottage industry around'
p6
aS'ignore linkbait title'
p7
ag4
aS'determines \xe2\x80\x9ccreativity\xe2\x80\x9d words faction supposedly rebelling established expertise'
p8
aS'greatest villains life complete strangers wrote things class thought catalog'
p9
aS'people looking cried took picture bookshopmozarmy'
p10
aS'omfgooooodd morrissey imdead mozarmy cute drinking'
p11
aS'coolguy'
p12
aS'think pretty unambiguous saying'
p13
aS'mmmmmmmmmmmmmmm'
p14
aS'obama crack team crooks watching shit scooting backwards dick doesnt touch thuis'
p15
aS'like wasnt going order anyway'
p16
aS'reading reviews need order'
p17
aS'tried hard culture'
p18
aS'would recommended last samurai'
p19
aS'single late godard list turn nose'
p20
aS'thank clarified slavery'
p21
aS'feel white liberal guilt slowly fading away listening soothing voice'
p22
ag4
aS'thinks whole world hands stood urinal gonna kill'
p23
ag4
aS'2014 banks fuck police commercial 2015 latest'
p24
asS'2013_43'
p25
(lp26
S'movement toward blended learning great teachers important ever inacol13'
p27
aS'whend'
p28
aS'learning types super smart people inacol13'
p29
aS'inacol13'
p30
aS'legendary rocker reed dies'
p31
aS'world exclusive interview edward snowden cheech chong'
p32
aS'amen lady'
p33
aS'anthroporphizing animals shouldnt argument deserve good treatment conservation wild'
p34
aS'reach peak septum piercings'
p35
aS'filmed louis risd documentary student'
p36
aS'news thats tweet'
p37
aS'introduced class chinese children dude brothers today enjoy'
p38
aS'mark dying heroin corner advert drugs fine everyone agrees'
p39
aS'done'
p40
aS'every time educator calls test something common core child abuse lose little faith profes\xe2\x80\xa6'
p41
aS'start noise rock band dictatescream rants music'
p42
aS'lollll'
p43
aS'feels bart striketechbro fiasco'
p44
aS'outraged morrissey raised electric bills something'
p45
asS'2013_40'
p46
(lp47
S'sexts texts'
p48
aS'daughters jumped chained gates park obama locked whole familesmassive civil disobedi\xe2\x80\xa6'
p49
aS'weve reached peak bullshit'
p50
aS'behind trend'
p51
aS'youre trend'
p52
ag4
aS'oooooo'
p53
ag4
aS'find slut never cooler right'
p54
aS'people pointing peep show years yesterday makes feel quite also help when\xe2\x80\xa6'
p55
aS'bond'
p56
aS'upcoming trip montreal photoclearing frenzy'
p57
aS'world turns axis works another relaxes'
p58
aS'shouldnt working'
p59
aS'stupid'
p60
aS'sweet jesus'
p61
aS'shit'
p62
aS'thoughts feels ratio'
p63
ag4
aS'small eastern'
p64
aS'commodify dissent occupy money cooperatives visasanctioned debit card'
p65
aS'undergrad last time news sent troll many friends made'
p66
aS'white girl walked nicest ever lawddd'
p67
aS'feelbird please take away'
p68
ag4
aS'eloquence'
p69
aS'tweets getting topical'
p70
ag4
aS'students enjoying math teacher didnt write anything'
p71
aS'nice circle jerk going'
p72
aS'lack excitement nothing cuaron'
p73
aS'level excitement movie'
p74
aS'nods'
p75
aS'american story year unpaid intern feeling lucky factcheck failing newspapers story calling'
p76
aS'perksofdatingme'
p77
ag4
aS'entertain'
p78
ag4
asS'2013_41'
p79
(lp80
S'soon well pound gansetts together'
p81
aS'thats bingo'
p82
ag4
ag4
ag4
aS'oatmeal generations howard zinn'
p83
aS'backlash funny gravity complaints depressing'
p84
aS'scared tweet'
p85
aS'theyre different things'
p86
asS'2013_46'
p87
(lp88
S'every youngearth creationist climatescience denieropponent stemcell gmoprotester'
p89
aS'received polite communiqu\xc3\xa9 torontonians still approve ford'
p90
aS'daily mail'
p91
aS'friends show popular happen thats'
p92
aS'excited fafsa completion project kids resources didn\xe2\x80\x99t toward elimina\xe2\x80\xa6'
p93
aS'nation symposium shouting kelly contribution'
p94
aS'manufacture course dont care'
p95
aS'tryin bread'
p96
aS'morrissey reed fans rejoice'
p97
aS'better dead live without'
p98
aS'happy veterans heroes traditional wars also printdigital wars'
p99
ag4
aS'elaborate reasons'
p100
aS'somehow plan poverty never \xe2\x80\x9cstop wasting money teacher salaries give poor\xe2\x80\xa6'
p101
aS'poverty perfect scapegoat schools antireformers know never going away'
p102
aS'scientists know fuck we\xe2\x80\x99re supposed feel artists havent fucking clue'
p103
asS'2013_47'
p104
(lp105
S'bitcoin best performance project times'
p106
aS'terry gilliam revives unlucky quixote movie project time'
p107
aS'even lift'
p108
aS'required reading evidence \xe2\x80\x9cmere facts\xe2\x80\x9d'
p109
aS'someone minutes history violence'
p110
aS'four ways really education'
p111
aS'double salon definitely best thing'
p112
aS'want core knowledgeinfluenced response blog post'
p113
aS'sarcasm agreement'
p114
aS'classic 18th century thinking'
p115
asS'2013_44'
p116
(lp117
S'classic'
p118
aS'whats google teacher essay extols virtues memorization edchat'
p119
aS'food movement ally pleads stop spouting nonsense gmos'
p120
ag4
aS'team yankees world series'
p121
aS'team yankees world series'
p122
aS'night remember'
p123
aS'kill last four years absolute time fing life dudei don\xe2\x80\x99t want graduate dude\xe2\x80\x9d'
p124
aS'tomorrow'
p125
aS'good'
p126
ag4
aS'friendship'
p127
aS'someone answer'
p128
aS'also'
p129
aS'okcall'
p130
aS'ideological triumvirate'
p131
aS'8comics maybe might need aisr work'
p132
aS'yeah'
p133
aS'homework cultural violence sigh'
p134
ag4
aS'need discuss'
p135
aS'either youre going going done inacol13 blackmirror'
p136
aS'lets honest closest ever come taking walk wild side violating company policy'
p137
aS'stop common core movement point tiltingatwindmills quality repeal obamacare movement'
p138
aS'avail remain staunchly uncultured'
p139
aS'design form activism inacol13'
p140
aS'experiencing digital content inacol13'
p141
aS'made sure cultured'
p142
aS'learning collaboration blended models inacol13'
p143
aS'sitting jampacked session planning designing online learning lets inacol13'
p144
asS'2013_45'
p145
(lp146
S'videodrome'
p147
aS'lets constantly play game figuring side everyone whos progressive'
p148
aS'banksy'
p149
aS'ambience hipster'
p150
aS'mars'
p151
aS'used'
p152
aS'yeah hope wasnt loud actually'
p153
aS'bloody valentine perform interlude noise excessive feedbackwhich would last half hour often reached 130db'
p154
aS'loud like sensory deprivation liked fact could change audience certain point'
p155
aS'bloody valentine tomorrow'
p156
aS'followers nice'
p157
aS'tweet'
p158
aS'moratorium references jurassic park'
p159
aS'chaos reigns'
p160
aS'movie documentary'
p161
aS'movie present hunts tiger wants footage actual though'
p162
aS'power associates'
p163
aS'gawker'
p164
aS'movie hunter netflix uses plot point'
p165
ag4
aS'going thursday'
p166
aS'debate debate debate consciously contemplate theres debate debate'
p167
aS'enjoy'
p168
aS'blackmirror'
p169
aS'neoliberalism neoliberalism neoliberalism'
p170
aS'1993 week wrote last action hero'
p171
aS'appropriately ravenous features alltimegreat credits cues'
p172
aS'never seen band hard'
p173
aS'basically'
p174
aS'teamtwitter'
p175
aS'exciting updates fingertips'
p176
aS'pulitzer worthy analysis'
p177
aS'forprofit herring education'
p178
aS'easy knowbut whatever'
p179
aS'shocked learn industry based unregulated pseudoscience also rife fraud'
p180
aS'soon brother stops hanging merry pranksters throwback team hell smarten'
p181
aS'forprofit always herring except hospitals oldjoke ratfink'
p182
aS'sorry forprofit herring education topic'
p183
aS'communism herring'
p184
ag4
aS'whatever fomo opposite'
p185
aS'brother describing campaign infowars frontline thing came organically'
p186
aS'like instantly rewrote history regarding event'
p187
aS'preposterous'
p188
aS'truefacts'
p189
aS'isnt like spittin numbers night'
p190
asS'2013_24'
p191
(lp192
g4
aS'sorry cant date love newsroom'
p193
ag4
aS'friends don\xe2\x80\x99t understand depressed'
p194
aS'monocle'
p195
aS'relevant schmelevant britains childrens laureate wants encourage reading giving mino'
p196
aS'note teaching content teaching reading'
p197
ag4
aS'hotter times square rolex'
p198
aS'twitter feed crackling like hickory fire'
p199
aS'yoga beard grooming ectraining leggings whole apartments filled regretsy\xe2\x80\xa6 wouldn\xe2\x80\x99t'
p200
aS'david brooks really wanted call edward snowden jumpedup pantry never knew place didnt'
p201
aS'convinced student watch blackmirror today'
p202
aS'snowden none instead speaks conscience lulz'
p203
aS'sarcasm michelle'
p204
aS'bold heroic extremely worthwhile opinion piece'
p205
aS'philly mayor wont along chris hayes simplistic indignation budgets charters'
p206
ag4
aS'announcing program called jism adult sites hoping first sign'
p207
aS'things spite love'
p208
aS'know windswept mystical means like underwear'
p209
aS'remember time listened troops phone loved ones back home trust\xe2\x80\xa6'
p210
aS'else pumped google glass'
p211
aS'youd told months would care finals said right'
p212
aS'want nobody runs like cruise'
p213
asS'2013_25'
p214
(lp215
S'humblebrag'
p216
aS'forever near stereo saying \xe2\x80\x98what fuck garbage\xe2\x80\x99 answer always chili peppers\xe2\x80\x9d'
p217
aS'entire history'
p218
aS'thirsty feel like grabbing something right hand'
p219
aS'pozole better'
p220
aS'race wars start wanna side'
p221
aS'truly bold statement'
p222
aS'liberal fascism amirite'
p223
aS'truly disgusting'
p224
aS'raacciisttt'
p225
aS'actually believe'
p226
aS'east coast cosmopolitan liberal elite intellectual scum apologize'
p227
aS'watching black mirror'
p228
aS'hate subtle style scorsese using'
p229
aS'vice edgy manage keep world state perpetual shock great stuff'
p230
ag4
ag4
aS'cannot judge'
p231
aS'cannot judge'
p232
asS'2013_26'
p233
(lp234
S'thoughts feels'
p235
aS'yeomans work tonight killed centipede'
p236
aS'epic mustache legislature right'
p237
asS'2013_27'
p238
(lp239
g4
asS'2013_20'
p240
(lp241
S'americans love junk junk bothers love'
p242
aS'also love internet'
p243
aS'lisa simple bart youve defined rebel absence repressive milieu societal natures coopted'
p244
aS'watching delirious room realized worst thing happening movies empowerment'
p245
asS'2013_21'
p246
(lp247
S'watch videos titles alone broke heart incredibly nsfw'
p248
aS'greenwalds blindness savagery heart salafism hard understand alone forgive'
p249
aS'california judge cites star trek delivers perhaps greatest rebuke copyright trolls ever'
p250
aS'could xboxone feature change videogames forever'
p251
aS'blackmirror harakiri'
p252
aS'ready'
p253
ag4
aS'next time forget flush cite aggression drone strikes reasons forgive'
p254
aS'remember videodrome condemned make reality'
p255
aS'shita15yearoldliberalsays'
p256
aS'ahead insult internet tough guys youll wish hadnt'
p257
aS'happens give poor california kids computers almost nothing'
p258
aS'google glass retina minds'
p259
aS'weirdest square mile ocean earth'
p260
aS'cant tell serious'
p261
aS'number times word \xe2\x80\x9cfuck\xe2\x80\x9d uttered film last scout march harpersindex'
p262
aS'much better live memory rather reality least memory everyone love still alive'
p263
aS'space gonna thrill space could even kill space never love like'
p264
aS'three reasons michael bays armageddon'
p265
aS'watch ronin'
p266
aS'jodorowskis dune wouldve featured dali mick jagger orson welles insane even imagine'
p267
aS'fetishizing nature prevents dominant wing environmentalism modernizing'
p268
aS'violence serious films pisses older'
p269
aS'vulgarian'
p270
aS'fuck atampt media fellow youknowwhatgoeshere'
p271
aS'kantian sense duty'
p272
aS'whenever smiles faces wish class 2013 commencement address'
p273
aS'graduated high school seven years wasn\xe2\x80\x99t held accountable turned missingthepoint'
p274
aS'blackmirror printers print printers surely theyll take'
p275
aS'hegemony another word nothing left'
p276
ag4
aS'whatever someone needs reconcile tired infighting despite common goals'
p277
aS'response relevant discussion intraleft conflict'
p278
aS'charlie brooker scripts series blackmirror radio times'
p279
ag4
ag4
aS'would please'
p280
aS'every quote makes little'
p281
aS'blackmirror'
p282
aS'thats happens drop truth bombs'
p283
aS'ever right anything blackmirror'
p284
aS'life smile people much rather kick'
p285
aS'dont think sunday night weekend beginning inevitable demise'
p286
aS'truly golden dumbing bottom'
p287
ag4
asS'2013_22'
p288
(lp289
S'prissss'
p290
aS'inevitable sigh'
p291
aS'gentlemen'
p292
aS'link relevant clip high fidelity'
p293
aS'hopewhere breaks thayer right next thete'
p294
aS'definition failureman'
p295
aS'hope emasculated many failuremen today moving shirtless'
p296
aS'hang blessed music constantly play says nothing life'
p297
aS'talking state music'
p298
aS'every part body disagrees title'
p299
aS'unfortunate michael davis whose cartoonish shoot total blast hasnt made film since'
p300
aS'nothing vulgar sophisticated kitsch'
p301
aS'someone makes preferring original captain kirk that\xe2\x80\x99s called shat shaming'
p302
aS'okay best friends didnt make'
p303
aS'\xe2\x80\x9c\xe2\x80\x98smoke show\xe2\x80\x99 shorthand attractive young woman\xe2\x80\x9d vocabulary'
p304
aS'dance music refuge mentally deficient made dull people dull people'
p305
aS'remember time bingewatched heimat'
p306
asS'2013_23'
p307
(lp308
S'cant wait fuck races'
p309
aS'tattooed ribs viva hate'
p310
aS'adult trolling'
p311
aS'author decide piece worth writing'
p312
ag4
aS'student graduating next week told cant numbers together without calculator good times roll patourselvesontheback'
p313
aS'whats joke'
p314
aS'could said youd wanted could said youd wanted'
p315
aS'preferable lightningfast tweeting science news makes sense text chat edifyme'
p316
aS'hippie'
p317
aS'wrote year rejection science unique climate change'
p318
aS'agreed depending test obviously'
p319
aS'agreed'
p320
aS'right wish better stuff student assessment vague nods critical thinking'
p321
aS'dont know missed article offer real alternatives assessing students'
p322
aS'shhhhhocking'
p323
aS'welp time burn high line lasted'
p324
aS'even worse articles attacking millennials'
p325
ag4
aS'rate disappointment future increasing superexponential rate rapidly approaching singul\xe2\x80\xa6'
p326
aS'glad watched link thought conservative crank tenaciously attack totalitarians'
p327
aS'keep pickin hangin fruit gawker'
p328
aS'based amount furious mental masturbation frances assume terrible'
p329
aS'invoking freire current climate like kids dude ever heard communist manifesto'
p330
aS'vomit everywhere'
p331
aS'declaration classic status slipped list safe onesvery pussy'
p332
asS'2013_28'
p333
(lp334
S'hipsters'
p335
aS'identity overrated'
p336
aS'endure'
p337
asS'2013_29'
p338
(lp339
S'please explain didnt take plea deal insane'
p340
aS'restaurants taco bell'
p341
ag4
aS'providence'
p342
aS'speaking hair bird right'
p343
aS'avoid barber wayland square costs'
p344
aS'brass paedogeddon 2001 trust'
p345
aS'wanna home dont want stay give education mistake'
p346
aS'someone write worried trend piece college kids monogamousbutclearlydoomed campus relations\xe2\x80\xa6'
p347
asS'2013_37'
p348
(lp349
S'always'
p350
aS'boom'
p351
ag4
aS'stop twitter bonding'
p352
aS'class today undergrad chastised valuing teenage motherhood viable life option'
p353
aS'much twitter followers'
p354
aS'concerned referencing tinder leslieswatching'
p355
aS'curse houses'
p356
aS'hard walk tall youre small'
p357
aS'gunna need analysis subtext miley licking sledgehammer video'
p358
ag4
aS'deserve followers'
p359
aS'never thought would miss less hipsters'
p360
asS'2013_36'
p361
(lp362
S'terrible'
p363
aS'shockingly caught'
p364
aS'sorry quoting ridiculous line newsroom season'
p365
aS'twitter attempt round time real'
p366
aS'used sarin'
p367
aS'classic jeter eating pitches even behind base spot'
p368
aS'dont know'
p369
asS'2013_35'
p370
(lp371
S'cyrus apparently said last months'
p372
asS'2013_33'
p373
(lp374
S'hear created flawed funding formula'
p375
ag4
aS'point every piece entrance exam determining gets move elysium'
p376
aS'onion knows compromise weak call jews arabs alike stand ground'
p377
ag4
aS'life struggle'
p378
asS'2013_32'
p379
(lp380
S'safe pussy'
p381
aS'jack reacher director christopher mcquarrie accepts mission impossible'
p382
asS'2013_31'
p383
(lp384
S'sample elysium dialogue wanna come fucking house play lets play'
p385
aS'fans hipster enough werent pretending like'
p386
ag4
asS'2013_30'
p387
(lp388
S'finally heard scene dialogue pacific radioyoure fucking kidding right'
p389
ag4
ag4
ag4
aS'wasted summer spent money strippers robsays'
p390
aS'preferences held sway none would tattoos facebook accounts live jesus chris\xe2\x80\xa6'
p391
asS'2013_39'
p392
(lp393
S'hirschs call contentrich curriculum taking root says'
p394
aS'love shark'
p395
aS'definitely type privilege involved'
p396
aS'wouldnt problems herman cain president'
p397
aS'mans soul internet history become intertwined starts porn'
p398
aS'bleak dystopian future google become dangerous disease aids cancer young orphan bing'
p399
aS'people contrarian consider like moses descending mountain list'
p400
aS'russian issue ironically racist tattoos steal corpse vladivostoks hated dotcom millionaire'
p401
aS'need start filming hipster rooftop farming getting ground'
p402
aS'jery anyone playing grand theft auto interesting word choice grand theft grand realy camera zoom jery'
p403
aS'truth bomb going style substance'
p404
aS'enjoying much'
p405
ag4
aS'went crowded walked went system instead'
p406
aS'also look like need iphone laid'
p407
aS'surprising nonexcuse michelle innnnnnteresting'
p408
aS'tinder'
p409
ag4
aS'well richard dawkins talks talk actually walk walkwith actual piss dawktalk'
p410
aS'scientific literature starship troopers'
p411
aS'know nothing matters anymore saying science writing doesnt need separate nobel'
p412
aS'food come'
p413
aS'food writing'
p414
aS'saying idea science good candidate nobel literature'
p415
aS'wonder many neckbeards talk tonight dawktalk'
p416
aS'look inside heart hate hate solid stone'
p417
aS'hating hashtag'
p418
ag4
aS'hate taboos love breaking'
p419
ag4
asS'2013_38'
p420
(lp421
S'paedophiles nebraska cutting limbs huffed glue omaha street kids find'
p422
aS'took talked breakbeat beiruts angriest barber'
p423
aS'miss entire point essay'
p424
aS'gets used'
p425
aS'pretty telling poster plugs machete kills director city rather direct\xe2\x80\xa6'
p426
as.