(dp0
S'2013_46'
p1
(lp2
S'help raise money philippines donate guys worth'
p3
aS'really wish theatre class like glee'
p4
aS'kurtblaine chemistry peopleschoice wheeeee'
p5
aS'kurtblaine chemistry peopleschoice lalala'
p6
aS'kurtblaine chemistry peopleschoice'
p7
aS'kurtblaine chemistry peopleschoice lets'
p8
aS'kurtblaine chemistry peopleschoice cmon guys'
p9
aS'kurtblaine chemistry peopleschoice cmon guys'
p10
aS'kurtblaine chemistry peopleschoice well guys keep'
p11
aS'kurtblaine chemistry peopleschoice doig great guys'
p12
aS'kurtblaine chemistry peopleschoice'
p13
aS'kurtblaine chemistry peopleschoice homophobic delena fans make want even aholes'
p14
aS'kurtblaine chemistry peopleschoice'
p15
aS'kurtblaine chemistry peopleschoice come guys'
p16
aS'voted kurtblaine chemistry peopleschoice please'
p17
aS'kurtblaine chemistry peopleschoice'
p18
aS'voted chris colfer comedictvactor peopleschoice retweet vote'
p19
asS'2011_50'
p20
(lp21
S'maybe ryan take look'
p22
asS'2011_13'
p23
(lp24
S'dont wanna study maths dont fail fail icant spring break dont springb'
p25
asS'2011_12'
p26
(lp27
S'icet vanilla pregnant theyd give birth baby'
p28
asS'2011_11'
p29
(lp30
S''
p31
asS'2011_10'
p32
(lp33
S'supportjapan every retweet give japan quake victims 100k'
p34
aS'europewantscody europewantscody europewantscody europewantscody europewantscody europewantscody europewantscody europewantscody'
p35
aS'started seeing gossip girl think love'
p36
aS'arent'
p37
aS'charlie sheen winning chuck norris isnt playing happy birthday chucknorris'
p38
aS'like school holidays'
p39
aS'hours full turn earth around axis days blend others remember rest lives'
p40
ag31
aS'hear willows wanna hear selenas think imma skip'
p41
ag31
aS'srsly actually made song docta bieba docta bieba lmao'
p42
aS'gtlt guess cant cure kinda sickness'
p43
aS'poor kiddie anyway'
p44
aS'would'
p45
aS'friday movieees'
p46
aS'hair refuses cooperate today gtlt'
p47
aS'makeup nailzz'
p48
aS'bakin cake'
p49
aS'wanna back sleep'
p50
aS'gymnastics'
p51
aS'course pinky swear'
p52
ag31
aS'wouldnt like know still noninfected'
p53
aS'backyard trampolines first time since last summer'
p54
aS'allright youre alone fear'
p55
aS'says girl posting thousand imagine ujustin tweets'
p56
aS'reading vamire diaries addicted'
p57
aS'life like chocolates least sense empty feel guilty thanks forest gump'
p58
asS'2011_17'
p59
(lp60
S'school tomorrow best vacation evva'
p61
asS'2011_15'
p62
(lp63
S'going week friends'
p64
asS'2013_26'
p65
(lp66
S'sister leaving miss already'
p67
asS'2011_9'
p68
(lp69
S'doesnt text meeeeeeeee'
p70
aS'kweegeeet mjah beter dinge doen youtube'
p71
asS'2013_4'
p72
(lp73
S'twitition warbler spinoff'
p74
aS'twitition darrencriss role aladdin aladdinbroadway'
p75
asS'2011_35'
p76
(lp77
S'chriscolferisatwillionaire chriscolferisatwillionaire chriscolferisatwillionaire chriscolferisatwillionaire'
p78
aS'chriscolferisatwillionaire chriscolferisatwillionaire chriscolferisatwillionaire chriscolferisatwillionaire lets trending guys'
p79
aS'chriscolferisatwillionaire chriscolferisatwillionaire chriscolferisatwillionaire chriscolferisatwillionaire chriscolferisatwillionaire'
p80
asS'2013_9'
p81
(lp82
S'still pondering lifelong question'
p83
aS'gurl belgians mean sarcastic hungry come think'
p84
aS'nolan gerard funk funk anytime glee season4rewatchparty'
p85
aS'want read nietsche bumpy couch dingy apartment dance cereal aisle supermarket stupiddreams'
p86
aS'home sick school yaaaaaaaaaaaaaay thatwassarcasm'
p87
aS'dont trust people smell like ketchup school nosrsly ifyouregonnamakemesmellketchup atleastgetmefries'
p88
asS'2013_8'
p89
(lp90
S'glow dark condoms remind star wars'
p91
asS'2011_23'
p92
(lp93
S'like glee songs'
p94
aS'syncin bros ipod itunes'
p95
asS'2011_26'
p96
(lp97
S'chilling tumblr love enjoying next weeks wont internets'
p98
asS'2012_6'
p99
(lp100
S'blaineandkurttopcouple please'
p101
asS'2011_45'
p102
(lp103
S'whenblainemetkurt smiledhe smiled backand slowmotion halway running ensuedthen kisses laterhappy anniversary klaine'
p104
aS'whenblainemetkurt whenblainemetkurt whenblainemetkurt whenblainemetkurt whenblainemetkurt whenblainemetkurt whenblainemetkurt lalalaa'
p105
aS'whenblainemetkurt whenblainemetkurt whenblainemetkurt whenblainemetkurt whenblainemetkurt whenblainemetkurt whenblainemetkurt come'
p106
aS'whenblainemetkurt whenblainemetkurt whenblainemetkurt whenblainemetkurt whenblainemetkurt whenblainemetkurt whenblainemetkurt'
p107
aS'congratsonklainehavingsex congratsonklainehavingsex congratsonklainehavingsex congratsonklainehavingsex congratsonklainehavingsex'
p108
aS'congratsonklainehavingsex congratsonklainehavingsex congratsonklainehavingsex congratsonklainehavingsex'
p109
aS'congratsonklainehavingsex congratsonklainehavingsex congratsonklainehavingsex congratsonklainehavingsex congratsonklainehavingsex'
p110
asS'2011_48'
p111
(lp112
S'chris pretty pretty please don\xe2\x80\x99t ever ever feel like you\xe2\x80\x99re less less perfect hugs4chris'
p113
asS'2013_11'
p114
(lp115
S'thanks accepting college program'
p116
aS'back candidate weekend excited love people wheeee yfuflanders yfuusa'
p117
aS'long distance high five crumple ground pain'
p118
aS'uterus quite literally committing suicide'
p119
asS'2013_10'
p120
(lp121
S'feel like marathon siberia finish line ribbon iron curtain history intended whatflufeelslike ohjoy'
p122
aS'hashtagging facebook like wearing sunglasses winter completely unnecessary makes look like douche facebook'
p123
asS'2013_13'
p124
(lp125
S'friends birthday coming ginger jokes could send ginger jokes thatd nice ginger'
p126
aS'peel face masks like ultimate school glue experience'
p127
aS'shining well rested first time ages gonna good'
p128
asS'2013_12'
p129
(lp130
S'everything went better expected still deep shit guess says something depth shit begin'
p131
aS'royally completely fucked andnotinthefunway'
p132
asS'2013_15'
p133
(lp134
S'creep'
p135
asS'2013_14'
p136
(lp137
S'shoe shoppin awww yissss'
p138
aS'false alarm also incorporating fanfiction final paper good idea rolls around academic'
p139
aS'tumblr repeat tumblr drill'
p140
ag31
aS'klainebut seblaine kurtbastianbut sebklaine multishipperproblems'
p141
aS'longdistancekiss shins dude made'
p142
aS'baby cupcake come kiss better mwah'
p143
aS'gaat tweetroman altijd door'
p144
aS'reminder spring action become host family'
p145
asS'2013_16'
p146
(lp147
S'news fucked killme'
p148
aS'please stop tweeting actors incredibly disrespectful ship want knows please keep'
p149
asS'2013_19'
p150
(lp151
S'trying real hard funny'
p152
aS'tired'
p153
asS'2013_18'
p154
(lp155
S'told jehovas witness house actually like satan better family friend thanks anyways'
p156
aS'broke boyfriend today freedom'
p157
asS'2012_31'
p158
(lp159
S'shameless selfpromotion'
p160
aS'somewhere salonga burst tears'
p161
aS'think release want back featuring'
p162
aS'chris colfer giveaway signed copy land stories chriscolfer thelandofstories'
p163
aS'little adorable strong perfectly proportioned gymnasts kidding usaolympicawesomeness'
p164
asS'2013_39'
p165
(lp166
S'gleeeeeeeeeeeeeeeeeeeeeeeeeeeeeeeeeeeeeeeeeeeeeeeeeeeeeeeeeeeeeeeeeeeeeeeeeeeeeeeeeeeeeeeeeeeeeeeeeeeeeeeeeeeeeeeeeeeeeeeeeeee'
p167
asS'2013_38'
p168
(lp169
S'celebrate hogwarts collection daily five prizes'
p170
aS'really cool'
p171
aS'celebrate hogwarts collection enter daily five prizes'
p172
aS'celebrate hogwarts collection enter daily five prizes'
p173
asS'2010_10'
p174
(lp175
S'luckily parents arent twitter else would killing'
p176
aS'wondering shouldnt studying greek'
p177
aS'watching youtubee'
p178
asS'2011_34'
p179
(lp180
S'actual fuck hate thechris colfer tumblr counteract luurve guys chriscolferlove'
p181
asS'2011_37'
p182
(lp183
S'emmyforchris emmyforchris emmyforchris emmyforchris emmyforchris emmyforchris emmyforchris emmyforchris emmyforchris emmyforchris'
p184
asS'2011_31'
p185
(lp186
S'voted twitter lovers vote'
p187
aS'voted twitter lovers vote'
p188
aS'voted twitter lovers vote'
p189
aS'please vote twitter lovers'
p190
aS'vote twitter lovers'
p191
aS'please vote twitter lovers'
p192
asS'2011_30'
p193
(lp194
S'voted twitter lovers vote'
p195
aS'voted twitter lovers vote'
p196
aS'voted twitter lovers vote'
p197
aS'voted twitter lovers vote'
p198
aS'vote twitter lovers'
p199
aS'please vote twitter lovers'
p200
asS'2011_38'
p201
(lp202
S'vote twitter lovers'
p203
aS'blaine junior senior'
p204
as.