(dp0
S'2013_42'
p1
(lp2
S''
p3
aS'thats funny hahahaha'
p4
aS'hahahahahahah'
p5
aS'bengals lose game'
p6
aS'wellsup megatron'
p7
aS'hahaha serious detentions'
p8
aS'girl said gode myth'
p9
aS'raccoonsi hate muchthey trash trash gotta clean itreally'
p10
aS'news highschool football godbless'
p11
aS'night glad'
p12
aS'come back hhahahahaha'
p13
aS'woahgetting vibe'
p14
aS'didnt turn wait'
p15
aS'dont hahahahahahahaha'
p16
aS'hahahahahaha night missed girl thoughbut great night right turnt right'
p17
aS'sheeshreallyhahaha'
p18
aS'kiddingright'
p19
aS'eatin'
p20
aS'thank happy bday song game yesterday fans haha gotta love indians'
p21
aS'aint bday shout coool'
p22
aS'know much wanted'
p23
aS'goodnightnow today best bday ever'
p24
aS'ummmcan uhhere'
p25
aS'hhahahahah'
p26
aS'happy birthday'
p27
aS'expect everyone call morning tell happy bday tomorrow'
p28
aS'uhwho said better peyton'
p29
aS'hahah thank youso much beeeeeessst dohhh haha'
p30
aS'thank much best birthday present ever'
p31
aS'hahaha'
p32
aS'game tomorrow ready yall better ready'
p33
aS'wont look promise haha'
p34
aS'know look though'
p35
aS'wont know look though'
p36
aS'look moms phone keep talking hahaha'
p37
aS'tells bday present girlgtgtgtgtgt girl'
p38
aS'nothing going stop need friday negative feelings herewego gottadome'
p39
aS'loved historyuntil says watch thirty minute video answer pages questionswhen still need study vocab greaaatt'
p40
aS'bout time hahaha'
p41
aS'fakehuh'
p42
aS'every bodyplease stop listening drake tonightyall alright haha anddddd leave drake alone'
p43
aS'better hyped dreams nightmares'
p44
aS'better ready week'
p45
aS'football playerswe gotta focused whole week'
p46
aS'iamboreddo judge judging like'
p47
aS'iamboreddo judge'
p48
ag3
ag3
aS'hahahahaha makes since'
p49
aS'remind'
p50
aS'hahano'
p51
aS'bored used'
p52
ag3
ag3
aS'thanks calling love hahaha'
p53
aS'nonot thing'
p54
aS'manwhat dayand even'
p55
asS'2013_43'
p56
(lp57
S'cousin bentley driving november school yeah'
p58
ag3
aS'possibleits receiving single handedly beat yards'
p59
aS'dont even know even possiblereceiving yard short record'
p60
aS'good whatever happened past past heading future'
p61
aS'happened tonight'
p62
aS'like'
p63
aS'mansummit made'
p64
aS'know play think summit'
p65
aS'broke ankles didnt'
p66
aS'know named asean riggins'
p67
aS'school'
p68
aS'good'
p69
aS'wondering didnt know hooped'
p70
aS'mean baseball right'
p71
aS'house hour'
p72
aS'hopefully next week break thousand yards mark130 needed'
p73
aS'manwhat going days'
p74
aS'well guess gonna wait'
p75
aS'plus cant hurt playoffs'
p76
aS'prolly aint gonna play fahreal dunn aint gonna score'
p77
ag3
ag3
aS'text worth losing life phone'
p78
aS'sister talking cant play knockout recess bubble coat thatmotivationthough'
p79
ag3
ag3
aS'trying hardest everything'
p80
aS'dear'
p81
aS'night'
p82
aS'reallyyou know aint uscome'
p83
aS'happy bday triplets'
p84
aS'idea'
p85
aS'guess wallsannoy'
p86
aS'confidence'
p87
aS'soim going wait'
p88
aS'assassins creed commercial started bottom song looks like striding specific crowd'
p89
ag3
aS'ohnow going beinterestingvery'
p90
aS'great trustworthy person people know'
p91
aS'shes gotta point'
p92
asS'2013_40'
p93
(lp94
S'good'
p95
aS'hhahahahaha never agreed'
p96
aS'haven calls someone know real'
p97
aS'cant argue'
p98
ag3
aS'haven says power nottrue'
p99
aS'jerk'
p100
aS'hahaha well foreveralone'
p101
aS'best friends ever hahaha'
p102
aS'hahaha party'
p103
aS'hahaha good'
p104
aS'davis combined haha right'
p105
aS'going stupid game'
p106
aS'pauses game text backbest believe important'
p107
ag3
aS'sorryjust early call'
p108
aS'night'
p109
ag3
aS'please'
p110
aS'please'
p111
aS'wake'
p112
aS'wake'
p113
aS'able friends life care good girl great'
p114
aS'sleep good'
p115
aS'prolly thought'
p116
ag3
aS'wrist worst feelings'
p117
aS'weekend'
p118
aS'hhahahahaha uhyeah'
p119
aS'miss hugs kisses make feel irreplaceable'
p120
aS'cant wait older test quizzes study'
p121
aS'time bring pink socks loved ones lost'
p122
aS'true'
p123
aS'missing like never going'
p124
ag3
ag3
ag3
aS'siblings times'
p125
aS'mhmyeah steelers pretty good'
p126
aS'tothey better'
p127
ag3
asS'2013_41'
p128
(lp129
S'past'
p130
aS'sorry calling idiot told apologize seeing pass snap'
p131
aS'somethings never understand emotions hard things read'
p132
ag3
ag3
aS'shaq rappernever knew'
p133
aS'really dude'
p134
aS'hahahahahahaha weak still'
p135
aS'pray lost'
p136
aS'momma knows lantanas momand never told'
p137
aS'hhahahahah smhomg'
p138
ag3
aS'ohawesome haha'
p139
ag3
ag3
aS'waitiphonelemme enter drawing hahaha'
p140
aS'sorry cant help'
p141
aS'picking emotions good thing know youll tell something bothering cause best friend'
p142
aS'omgwhy true statement'
p143
ag3
aS'since'
p144
aS'tony gonzalezs wife'
p145
aS'famous people instagram like hate fans 10000 likes 3728 retweets'
p146
aS'thats something would youon dailyjust stupid'
p147
aS'hahaha uses things public'
p148
aS'iraq cause wana baghdad ashhh haah'
p149
aS'terrible'
p150
aS'terribleim glad didnt pick using tennessee 10ic'
p151
aS'knew looked weirdoh well'
p152
aS'lets lets vamanos'
p153
aS'stop hashing becomes thing'
p154
aS'dont laugh hahaha'
p155
aS'stop hhahahahaha terrible bullying'
p156
aS'manim verysaltylikelikewhats something saltyuh salt'
p157
aS'hhahahahaha hhahahahaha funny'
p158
aS'hahayoure prolly jokingyou guys prolly talking finding ways bully'
p159
aS'hathis bullying'
p160
aS'hahaha fine done'
p161
aS'thatwassmoothe'
p162
aS'hahaha well guess haha'
p163
aS'actually though salty inyahdangface'
p164
aS'youd kill mefor catch phrase'
p165
aS'violence'
p166
aS'hahaha trying going time sleep'
p167
aS'girl steps dirty work needed gtgtgtgt'
p168
aS'hahah genius'
p169
aS'saying'
p170
aS'waitwhat'
p171
aS'wipe move next'
p172
aS'follow back vogt'
p173
aS'ariana grande haha gtgtgtgtgt soooo funny'
p174
aS'know great song hahaha'
p175
aS'goes'
p176
aS'spongebob squarepants funny jokes'
p177
aS'bday already know'
p178
aS'days'
p179
ag3
aS'still though'
p180
ag3
aS'good hahah tomorrow'
p181
aS'failure retweet accident failure essay'
p182
aS'gotchu'
p183
aS'writing essay music starts play pandora sign hahaha'
p184
aS'writing essay music starts play pandora sign'
p185
ag3
aS'dang girl turning fullest everyday'
p186
asS'2013_46'
p187
(lp188
S'youll'
p189
aS'sleepagain'
p190
aS'need back school'
p191
aS'exactly hahaha'
p192
aS'super soar'
p193
ag3
ag3
aS'expired credit cardno madden online'
p194
aS'scrimmage tomorrowperfect start weekend'
p195
aS'youve gotta point hahaha'
p196
aS'hahahaha cant athlete though'
p197
aS'constantly thisevery timeevery yearwhen going learn'
p198
aS'liessssss'
p199
aS'good advice please text'
p200
aS'dont guard'
p201
aS'manim taking tomorrow'
p202
aS'today'
p203
aS'friends tomorrow practice besides ones team gotta different color jerseybest luck'
p204
ag3
aS'waita long timehahaha'
p205
aS'like'
p206
aS'fact decent practice today haha sike'
p207
aS'sacrifices constantly make'
p208
asS'2013_47'
p209
(lp210
S'football banquet tonight'
p211
aS'hhahahahahhahahahaha'
p212
aS'thought 2but things justwent wrongwe might able build back gonna take communication'
p213
aS'dont think gonna work outits meits'
p214
aS'dollsi thinking along line offood'
p215
aS'hahaha waitwhatno'
p216
ag3
aS'black friday anyone'
p217
ag3
aS'gotta gameboy advace'
p218
ag3
aS'miss football muchand thinking next yearits time ready starting'
p219
aS'brian trent older bros miss bums'
p220
aS'waitress gold starshelooks familiar'
p221
aS'apparently 195lbs'
p222
aS'really school walk thing tomorrow'
p223
ag3
aS'wannah bail'
p224
aS'inspiration though'
p225
aS'couldnt even beat brian offense like overall people running'
p226
aS'thats'
p227
aS'gotta wait till senior year hahah senior year'
p228
aS'state'
p229
aS'wait till track'
p230
aS'trouble text'
p231
aS'respect make mistakes hardest correct'
p232
aS'watching first lady park great inspiration'
p233
aS'sometimes hate cant stand herbut times realize little lucky life'
p234
aS'hahahaha done haha twitter think problems'
p235
aS'going berserk'
p236
aS'pegasaurus roamingeh cant tamed'
p237
aS'dont'
p238
asS'2013_44'
p239
(lp240
S'better'
p241
aS'cause good team'
p242
aS'think'
p243
aS'last night perfect memory'
p244
aS'hhahahahaha welcome'
p245
ag3
aS'bball growing huge high fades'
p246
aS'hahahah idgaf right'
p247
aS'yeah thank love'
p248
aS'hayeah front'
p249
aS'thousand yard bros chill hahaha'
p250
aS'thousands yards think'
p251
aS'hahah want certain person shuttup'
p252
aS'noooooooo'
p253
aS'hhahahahaha know hhahahahaha truth sets free'
p254
aS'hhahah laughed dont make sound like type criminal plus said depending time'
p255
aS'hahahahahahah'
p256
aS'yeah'
p257
ag3
aS'twitter'
p258
aS'follow back'
p259
aS'hhahahahah playing madden overtime yard kick return game hahaha'
p260
aS'well prolly quick wasoh wellthe master crossover'
p261
aS'hmmyeah retiring'
p262
aS'pretty sure seas'
p263
aS'yeah'
p264
aS'sheesh take shower peace'
p265
ag3
ag3
aS'talk sleep'
p266
aS'theycantthough'
p267
aS'look eachother automatically start laughing eachother reason hatinonthatfriendship'
p268
aS'dont understand parents lateyou cant anything lateyou hour talk late'
p269
aS'moment late practice ride aint hereyou feel like left'
p270
aS'looks like'
p271
aS'done'
p272
aS'whipped'
p273
aS'yall dont stfu'
p274
aS'need help'
p275
aS'hahahahah going take pride thatreally'
p276
aS'hahaha terrible'
p277
aS'smartno judging'
p278
aS'thats theory'
p279
aS'ccds football team game'
p280
asS'2013_45'
p281
(lp282
S'yeahhhhhhhhh gucci voice'
p283
aS'yeah work'
p284
aS'basketballwoohoo'
p285
ag3
ag3
aS'changed much became child extremely sneaky'
p286
aS'take care'
p287
aS'better hoop season ahead take care'
p288
ag3
aS'thanks'
p289
aS'awwand hungry'
p290
aS'jumping football game smart ideamy back gone'
p291
aS'waking thinking film tomorrowbut rememberinwe dont great season yall'
p292
aS'lets'
p293
aS'know whatlets season work'
p294
aS'hahaha hyfr'
p295
aS'liar'
p296
aS'ccds fans lets need yall behind tonight gethyped turnuportransferschools letsgoindians'
p297
aS'prolly going best game play high school career time best lights friday nights'
p298
aS'shewhatnoif back thanwow younger generation easy'
p299
aS'best believe back come'
p300
aS'haha'
p301
aS'wife going name simba thurman'
p302
aS'really'
p303
aS'today national athlete'
p304
aS'love taking people storm'
p305
aS'idiots hahaha'
p306
aS'hahaha basketballwhat happened matt'
p307
aS'licensed driver'
p308
aS'meanhes point'
p309
aS'like last person talk'
p310
aS'getting something else holding going give later'
p311
aS'even tell'
p312
aS'understanding fact baby sister isnt baby anymore'
p313
aS'lanier biology bell tomorrow'
p314
aS'play another week football godisgood'
p315
asS'2013_48'
p316
(lp317
S'someone google type happy puppies click first linkwhat happens'
p318
asS'2013_37'
p319
(lp320
S'haha gurrrl already know hahah iight'
p321
aS'back back partys really make weekend'
p322
aS'finna'
p323
aS'wait bday'
p324
aS'dont haveeeeeee hahaha'
p325
aS'hhahahahaha well cares love'
p326
aS'kayla hahaha'
p327
aS'welcome'
p328
aS'awful'
p329
aS'hahaha good'
p330
aS'checking knew iight right'
p331
aS'winning chips'
p332
aS'breaking records graduate'
p333
aS'month'
p334
ag3
aS'welcometoday going awfulim exhausted study'
p335
aS'waking thinking today going'
p336
aS'free bells test tomorrowughgoodnight world'
p337
aS'studying thursday football gameits part everyday grine'
p338
aS'hahahahahahahaha'
p339
aS'sweet cheeks'
p340
ag3
ag3
aS'true'
p341
aS'wellidk kinda'
p342
ag3
aS'gotten carries games'
p343
aS'jogging zone touchdowns last game'
p344
ag3
aS'going hate homecoming'
p345
aS'ohwellthat kinda hurt'
p346
asS'2013_36'
p347
(lp348
S'candy black white'
p349
aS'possibly'
p350
aS'thats something going judge'
p351
aS'adam haahahahahahahah'
p352
aS'shuttup stop whining'
p353
aS'turtle'
p354
aS'hershey doesnt make women waitdo'
p355
aS'kjudging judging judging judging'
p356
aS'lies'
p357
aS'hhahahahaha'
p358
aS'thats amazing'
p359
aS'apologize apologiseis'
p360
ag3
aS'yeah royal'
p361
aS'blackieman thatthat kinda hurtsi joined thought friends'
p362
aS'like'
p363
ag3
aS'else know miley cyrus real name destiny'
p364
aS'omgjerome simpson putting workwhy world'
p365
aS'ohhhhh'
p366
ag3
aS'thoughno ears pierced dimples stuff'
p367
aS'omgwhyanother person'
p368
aS'turn numbers lock'
p369
aS'must best friends'
p370
aS'hhahahahah like madea'
p371
aS'hahahahahahahaha likebruh dont wanna'
p372
aS'light skin dimples ears pierced wouldnt doubt'
p373
aS'pretty wanna player'
p374
aS'sadlypretty much'
p375
aS'hhahahahaha would peed pants probably going funniest thing works'
p376
aS'hhahahahaha fact'
p377
aS'hhahahahaha failure'
p378
aS'joking'
p379
asS'2013_35'
p380
(lp381
S'text'
p382
aS'hahahahahah hush text'
p383
aS'anyone know bucks'
p384
aS'knew person life much power feelings heartbeat'
p385
aS'alright thanks'
p386
ag3
aS'little hahaha'
p387
aS'name weight room'
p388
aS'thought meant make well late haha like well thought byehahaha'
p389
aS'hahah thats harsh'
p390
aS'hahaha random dude gave girl number like tell wrong number hhahahahah'
p391
aS'always need helping hand never letting need help best believe gonna'
p392
aS'driving school almost'
p393
aS'thank godi lightphew'
p394
aS'love know kiddingdont meim surry'
p395
aS'haha watch'
p396
aS'brown hahaha brown'
p397
aS'hhahahahah dont worry done'
p398
asS'2013_34'
p399
(lp400
S'yeahim definitively chris brown brown'
p401
ag3
aS'last night bonding time random citizens party'
p402
aS'hahah dont even worry hahah'
p403
aS'hahah never left trust'
p404
ag3
ag3
aS'honest havent pushed self beyond limits worked hard hard enough starting things going different'
p405
aS'futurehonest'
p406
aS'whooooooo tryna hang'
p407
aS'football scrimmage soon'
p408
aS'driving school'
p409
asS'2013_33'
p410
(lp411
S'think going gaff great surprise people first school'
p412
aS'text'
p413
aS'dont push'
p414
aS'hhahahahah alright maybe funny'
p415
ag3
aS'football season starting cook'
p416
ag3
aS'dylan though'
p417
aS'pulled purse'
p418
aS'school starts soon'
p419
aS'dont know'
p420
aS'greatthats great know'
p421
aS'lucky'
p422
aS'alright remind'
p423
aS'right ready haha confidence'
p424
aS'haha thanks ready think though'
p425
aS'mariemont williamsburg mariemont'
p426
aS'driving school starts mondaysmh'
p427
aS'scrimmage todaylil nervous'
p428
aS'doesnt'
p429
aS'gave today possibl strep throat'
p430
aS'morning morning'
p431
aS'hearing voice probablyyyyyyyy made'
p432
aS'days messed head reason'
p433
aS'scared thus mariemont scrimmage'
p434
aS'upnow gotta work'
p435
ag3
aS'hahaha thats trent'
p436
aS'offtomorrow back'
p437
asS'2013_32'
p438
(lp439
g3
aS'miss like crazy minutes talk every'
p440
aS'shouldnt right'
p441
aS'finished itim reading'
p442
aS'cant turn practice saturday morning'
p443
aS'haha finally finished whered bernadettestupid bookone book gofml'
p444
aS'hahaha well football morning tell moms pops said wassup heyor whatever tell parents'
p445
aS'hahahahahahahaha kidding kiddingish'
p446
aS'around'
p447
aS'madden xbox 360hmm'
p448
aS'hhahahahah already know'
p449
aS'turnup hahaha'
p450
aS'hahaha trueeeee worked today good'
p451
aS'yeah right right time work'
p452
aS'hahah about2 weeks blame kayla'
p453
aS'would hahaha'
p454
aS'adays reallystarting kick'
p455
aS'reading days ltltltlt'
p456
aS'text'
p457
aS'hhahahahah quit tripping'
p458
aS'neither true okay'
p459
aS'young kyriewhere'
p460
aS'kanye laugh hahaha'
p461
aS'eiasa jayr thing spelling'
p462
aS'okay stop struggling nowlol'
p463
aS'royal women like'
p464
aS'stalker type uhidk werent informeduh couple weeks andyeah'
p465
aS'hahaha royal throwing kitchen shoot making omlets warm oatmeal 5starbuffet'
p466
aS'stalker typeish hear pancakes'
p467
aS'hhahahahah guess nick name aint going time soon hhahahahah'
p468
aS'hahaha havent seen forever half mile hhahahahah'
p469
aS'working cream truck coolnot since'
p470
aS'hhahahahah sure miss momo'
p471
asS'2013_31'
p472
(lp473
S'hahaha cuzns came back drunk hahaha'
p474
ag3
aS'cuzns come back clubs hahaha'
p475
asS'2013_30'
p476
(lp477
S'hahaha even using twitter'
p478
aS'social networks'
p479
aS'time work work'
p480
asS'2013_39'
p481
(lp482
S'cant wait johnny football'
p483
aS'understands good detroit kansas city denver year gotta super bowl'
p484
ag3
aS'roles completely switched mutual itll happen'
p485
aS'always'
p486
aS'last night second halfwait called back'
p487
ag3
aS'sorry annnnyyytthhhing wrong hurt'
p488
ag3
aS'lucky drawers'
p489
aS'game tomorrow'
p490
aS'world gone'
p491
ag3
aS'girllllll true'
p492
aS'hollywooddddddddd'
p493
aS'thatsuh'
p494
aS'agree going snake group'
p495
aS'text even text'
p496
ag3
aS'true youngin dont need grow'
p497
aS'diss chick'
p498
aS'people probably dont care birthday'
p499
aS'well thanbut lucky play haha'
p500
aS'football players'
p501
aS'wanna know'
p502
aS'definitely kidding'
p503
aS'forgot tomorrow hahah'
p504
aS'free bells tomorrow monday'
p505
ag3
asS'2013_38'
p506
(lp507
S'baby wisdom teeth talking hahah cute funny hahaha'
p508
aS'hahaha would offer'
p509
aS'hahaha dollars wear hour'
p510
aS'nice dress jordan'
p511
aS'kamryn tries back bendlands right head'
p512
aS'hahaha yeahi amthis sounds wrong admitting'
p513
aS'guess yeahhhhh'
p514
ag3
aS'yeah hahah family dohwait royal'
p515
ag3
aS'tweets match emotions ggggggggggggggg'
p516
ag3
aS'model status thanks feel left moriah'
p517
ag3
ag3
ag3
aS'take michigan hard feelings'
p518
aS'cant wait till next game season'
p519
ag3
aS'game dayyyyyyyyy lets'
p520
aS'yeahthe struggle person life never wanna gobut miss personso much'
p521
aS'tellingi felt assaulted'
p522
aS'told'
p523
aS'months still going'
p524
aS'gunnar going'
p525
aS'addicted stupidest song'
p526
aS'funnyi downloaded ios7 android teamandroid'
p527
aS'liveeeeee'
p528
aS'fallwait moriah sumni gotta feeling shes heading house nowim'
p529
ag3
ag3
aS'pick thing apologize better looking yeahsureeeeeeok'
p530
aS'nowthat cold heartedyou broke codeand girlsits cause chose thenice'
p531
aS'football track picks yeahhhhhh face bishhhh face alrightalright alright'
p532
aS'come name first kind sorcery'
p533
aS'dont butyour getting curious'
p534
aS'dont call crazy'
p535
aS'liaryou bully everyday'
p536
aS'hyfr tonight moriah might kill sleepso kinda gotta stay stage longer'
p537
aS'dont kill sleep sorry crazy'
p538
aS'ornot'
p539
aS'hahaha kiddingkiddingoo'
p540
ag3
ag3
aS'thank godwe idea crosses peoples mind days'
p541
aS'interims tomorrowsee yall year drops walks theycallmeroyalthurman'
p542
ag3
ag3
aS'thanks momo'
p543
ag3
ag3
aS'wanna shady mccoy'
p544
aS'gucci'
p545
aS'better yetim going help someone score great block'
p546
aS'many touchdowns itll week'
p547
aS'time plead'
p548
aS'ughhhh lord please thoughts head'
p549
aS'well played friend'
p550
ag3
aS'fall'
p551
ag3
aS'nope 915hmm lets seelets seelets seeoh gotta gotta turn happy bday young buck'
p552
aS'bday month'
p553
aS'ohkid'
p554
aS'worry'
p555
ag3
aS'hahaha text'
p556
aS'youve followed haha'
p557
ag3
as.