(dp0
S'2013_42'
p1
(lp2
S'time addams family come plzzzz ilovehalloween'
p3
aS'mind forgets remind youre idea'
p4
aS'pretty little liars halloween special tuesday waiting since august 27th'
p5
aS'says babyyy must lonely mb20'
p6
aS'love mother'
p7
aS'many halloween movies watch someone come'
p8
aS'really likes holding someone\xe2\x80\x99s hand thumb across'
p9
aS''
p10
aS'hear getting fatter'
p11
aS'love'
p12
aS'good call'
p13
aS'talk classy nasty'
p14
aS'somebody take ihop'
p15
aS'icant deal friends they\xe2\x80\x99re busy make time hang people'
p16
aS'could totally morning person\xe2\x80\xa6 really rather stay watching'
p17
aS'sisters voicemailgtgt'
p18
aS'gonna cook'
p19
aS'waitress wouldnt know sorrynotsorry'
p20
aS'sarcasm'
p21
aS'awesome hour lunch today'
p22
aS'creep'
p23
aS'house almost clean yayayayay thank txcountry motivation'
p24
aS'love even tonight happy show loved every second'
p25
aS'enjoying night'
p26
aS'sitting across real life'
p27
aS'carlywisdom'
p28
aS'find right'
p29
aS'really give fuckkk'
p30
aS'getting sooooo excited muletime'
p31
aS'blown'
p32
aS'pray please\xf0\x9f\x99\x8f\xe2\x98\xba\xef\xb8\x8f'
p33
aS'quit lying time really stupid'
p34
aS'always favorite sins'
p35
aS'tonight toooo long takemyhearttour'
p36
aS'finally gta5'
p37
aS'hoodie underwear really need wear'
p38
aS'better fart wont took dump turds wont honking dead'
p39
aS'daughter beautiful'
p40
aS'major booooo'
p41
ag10
aS'could didnt class'
p42
aS'know perfect weather movies heater chocolate halloween cookies popcorn'
p43
ag10
aS'come watch halloween movies'
p44
aS'remember bumble bees halloween'
p45
aS'cameron called peace treaty'
p46
aS'people watch language shit sorry\xe2\x80\x9d life'
p47
aS'make wanna drink'
p48
aS'sorry dont feel sorry'
p49
aS'love view front porch'
p50
aS'cleaning house dinner ribeyes squash sweet potato fries marshmallow sauce'
p51
aS'song good call live itunes amazing'
p52
aS'song point favorite purchases'
p53
aS'cant wait thursdayyyy'
p54
aS'coming thursday muletime'
p55
aS'retweet'
p56
aS'change alignment tires swear mileage better increased'
p57
aS'tomorrow might hell night loving better never hold youre gone'
p58
aS'thursday night\xe2\x80\x9d cant waitttt'
p59
aS'wish mini whales like inch whales could tank pets like look whale'
p60
asS'2013_43'
p61
(lp62
S'life every'
p63
aS'someone text save'
p64
aS'fool'
p65
aS'hate text someone dont respond tweet post'
p66
aS'awkward moment isnt gingerand neither gingerproblems\xe2\x80\x9d life'
p67
aS'single enjoy senior year'
p68
aS'pizza wings pizza maybe today good'
p69
aS'forever alone'
p70
aS'runaway bitch never come back could'
p71
aS'dick pretty decent better retarded dudes greater east texas area'
p72
aS'wanna'
p73
aS'electricity went'
p74
aS'swear ghul reminds taken'
p75
aS'hocus pocus addams family'
p76
aS'want cuddle\xf0\x9f\x9a\xb6'
p77
ag10
aS'someone come cuddle watch halloween movies okay\xe2\x80\x9d\xf0\x9f\x99\x8b\xf0\x9f\x99\x8b\xf0\x9f\x99\x8b'
p78
aS'someone come cuddle watch halloween movies okay'
p79
aS'prayforal'
p80
aS'juan pablos always good idea'
p81
aS'good cute paid'
p82
ag10
aS'happy mommas girl'
p83
aS'could wear tights every rest life probably would'
p84
aS'notice whats gone'
p85
aS'want clothes like mine buckle forever freakin closet'
p86
aS'awesome brand jeans missing havent even wear'
p87
aS'havent fixed hair long forgot parted whaaa'
p88
aS'cause thats life plus pretty ugly haha'
p89
aS'total hotties'
p90
aS'grow'
p91
aS'people listen genre music tend smarter creative open minded honest'
p92
aS'look like creep love tweets'
p93
aS'pics made wanted know youre always gonna sweet little bubby'
p94
aS'love much'
p95
ag10
aS'whats point makeup'
p96
aS'spending last months thinking love ever break burn'
p97
aS'kinda miss blackberry'
p98
ag10
aS'wear twinning'
p99
aS'hated think onetreehill'
p100
aS'sucks love someone much youd willing anything dont feel'
p101
aS'sounds like plan'
p102
aS'highlight vacuum started working days without made crazy momproblems'
p103
aS'doesnt matter'
p104
aS'need play date'
p105
aS'morning starting good\xf0\x9f\x91\x8e'
p106
aS'motivation'
p107
aS'favorite tweets follow people drama unnecessary'
p108
aS'said didnt think damn'
p109
aS'dont money clothes people keep shop'
p110
aS'wasnt talking bout people'
p111
aS'anyways went closet done letting people borrow things clothes missing'
p112
aS'watching cinderella munchkin read fairytales morning'
p113
aS'love favoriting stuff know'
p114
aS'keep moving forward dont give shit anyone thinks johnny depp'
p115
aS'people feel better crying'
p116
aS'fairytales full shit fuckin love song sick maroon'
p117
aS'feels like starting last three years pretend'
p118
aS'october almost'
p119
aS'think little sister cute\xe2\x80\x9d'
p120
aS'thanks texting back loser face'
p121
aS'shes beautiful best thing thats ever happened life'
p122
aS'could beer jesus heaven knows nice slow'
p123
aS'blind third line doctor blurry whyyyy'
p124
aS'happy tuesday waiting since august 27th'
p125
aS'rich otoole iphone released next week'
p126
aS'tree hill makes much cant even'
p127
aS'snap'
p128
aS'lyricsthatneedtobeshouted'
p129
aS'need right also five hundred thousand dollars cash'
p130
aS'deep cleaning room worst idea ever felt like cinderella'
p131
aS'already counted'
p132
aS'organizing dvds finally realizing problem'
p133
aS'thank makes world spin'
p134
aS'gave birth little best friend best'
p135
aS'asked youuu dying right'
p136
aS'friends dont make theyre really friends\xe2\x80\x9d'
p137
aS'cant'
p138
ag10
aS'isnt taco emoji'
p139
aS'woke wanting willys nelsons peach cobbler cream\xf0\x9f\x98\xad'
p140
aS'wife didnt mean kluh cause shes baaabe'
p141
asS'2013_40'
p142
(lp143
S'kourtney kardashian voice literally you\xe2\x80\x99re rude\xe2\x80\x9d'
p144
aS'dont know true love youve child'
p145
aS'pretty little liars fans deserve award patient fans earth'
p146
aS'soda eating healthy gained pounds total weight gain pounds'
p147
aS'miss'
p148
aS'texted'
p149
aS'turned background refresh'
p150
aS'love sweetest'
p151
aS'whos brother'
p152
aS'weather right gtgtgt love cool breezy cloudy stormy'
p153
aS'second cover cuteeee'
p154
aS'really wanna move savannah room snuggle want sleep tonight kicks much forever alone'
p155
aS'love'
p156
aS'hope feel special'
p157
aS'well hope night gets better'
p158
aS'people number twitter asking raped'
p159
aS'dont respond'
p160
ag10
aS'done caregiving'
p161
ag10
ag10
aS'life hate works sometimes'
p162
aS'like notttt worry thankssss\xf0\x9f\x98\x81'
p163
aS'wanna hair done'
p164
aS'sometimes wish could save takes forever want know'
p165
aS'wait follow backkkk'
p166
aS'volunteers help give bath'
p167
aS'last year high school youll regret later quit promise'
p168
aS'today dedicating funniest sweetest sexiest coolest person'
p169
aS'happy cause today found friends theyre head nirvana'
p170
aS'vanilla goes amish favorite twitter trend ever'
p171
aS'reason going hinder concert love hinder favvvvv'
p172
aS'cant'
p173
aS'dont jeans'
p174
aS'thankful family even everyone isnt blood related'
p175
aS'family doesnt care mistakes youve made matter family'
p176
aS'blood thicker water doesnt always mean anything family always'
p177
aS'feel right'
p178
aS'sounds right'
p179
aS'weeks left main squeeze'
p180
aS'drugs tacos\xe2\x80\x9d'
p181
aS'girl dropped something'
p182
aS'deep cleaning house second dont friends'
p183
aS'reason know hunter thompson texascountry'
p184
aS'haha'
p185
aS'take headphones'
p186
aS'love little brother'
p187
aS'older salt water fish tank house every single nemo character'
p188
aS'seriously shut'
p189
aS'love baby'
p190
aS'cameron baby'
p191
aS'miss'
p192
aS'thanks saying'
p193
aS'everyone dies famous small town'
p194
aS'theres troopers sheriffs 2874 lately'
p195
aS'cant wait till gavin degraw comes'
p196
aS'still hasnt seen music video stuckonyou havent check best'
p197
aS'really need friend doesnt care much'
p198
ag10
aS'baking muffins toddlers today'
p199
aS'everyone sane start really like someone\xe2\x80\x9d'
p200
aS'pizza rolls ranch'
p201
aS'want giving time'
p202
aS'okay part'
p203
aS'pepper official drink texas'
p204
aS'find friends'
p205
aS'dallas saturday ages tickets teamtyler'
p206
aS'love wanna'
p207
aS'gonna teddy geiger ryan cabrera'
p208
aS'\xe2\x80\x9cthere handful moments life know happening youre gonna remember rest'
p209
aS'since spend roughly years asleep dreams technically considered alternate reality'
p210
aS'october hell come'
p211
aS'favorite month'
p212
aS'used christina barbie pressed belly button sang girl wants thevoice'
p213
aS'friends come play monopoly like monopoly'
p214
ag10
aS'really content could shoot guns everyday'
p215
aS'excited theblacklist tonight'
p216
asS'2013_41'
p217
(lp218
S'could want'
p219
aS'adrian peterson respect'
p220
aS'cute self thursday'
p221
aS'need pack seasons yesterday overcast sunny rainy cold'
p222
ag10
aS'didnt feel good couldnt sleep fresh much good'
p223
aS'believe karma'
p224
aS'form window every business seen missing eight days reward 70000'
p225
aS'tell'
p226
aS'degrees think gonna heat stroke leggings sweater'
p227
aS'forever love food'
p228
aS'sprint sulphur springs cant phone call roaming searching draining battery'
p229
aS'want someone back mexican food'
p230
aS'tgif thank ginger friday gingersolutions'
p231
aS'back'
p232
aS'cameron worst attitude anyone ever seriously'
p233
ag10
aS'waited long'
p234
aS'gonna tomorrow ruined'
p235
aS'came like wrecking ball'
p236
aS'always think skipping cleaning alright comes time clean hours still nowhere near done'
p237
ag10
aS'happy removed handful people life definitely missing much'
p238
aS'wish could erase memory cause didnt give damn cassadeepope'
p239
aS'patiently waiting everyone dont like become'
p240
aS'text'
p241
aS'cant wait'
p242
aS'believe miracles thank lord'
p243
aS'goes nothing'
p244
ag10
aS'praying miracle'
p245
aS'hate people life months promised always theyre gone'
p246
aS'degrading someone doesnt make better'
p247
aS'time blacklist yayayay'
p248
aS'load crap rigged paid someone turn chair back around watchingblinds'
p249
aS'next order business\xe2\x80\xa6 belt buckles bigsexy'
p250
aS'correction paid someone remove chair completely don\xe2\x80\x99t know happened'
p251
aS'love'
p252
aS'shut'
p253
aS'prayers'
p254
aS'need freakin'
p255
aS'quiet walked know awesome'
p256
ag10
aS'time gonna'
p257
aS'okay'
p258
aS'thats voice comes lets like gets cold'
p259
aS'actually need earlier voice blacklist come tonight'
p260
aS'savannah'
p261
aS'sure'
p262
aS'looked fine'
p263
aS'thank music'
p264
aS'need caffeine going weather intense potty training'
p265
aS'replacemovietitlewithratchet dark ratchet rises\xe2\x80\x9d'
p266
aS'beautiful voice making'
p267
aS'helena bonham carter flawless'
p268
aS'theres place like london sweeneytodd'
p269
aS'sweeney todd love musicals'
p270
aS'running cold hurts'
p271
asS'2013_46'
p272
(lp273
S'scientifically proven texas country regular country'
p274
aS'november becauseimtexan'
p275
aS'pale'
p276
aS'last time asking break heart blink'
p277
aS'could really manipedi right'
p278
ag10
aS'come sister'
p279
aS'love'
p280
aS'time dustin perkins'
p281
aS'good annoyed hungry'
p282
aS'tequila make crazy'
p283
aS'internet addiction started'
p284
aS'dear middle finger thanks always standing'
p285
aS'took bottles bath soap clean'
p286
aS'spent last hour half bathing child thought painting desitin important waking mommy'
p287
aS'move soul like hurricane wind weve lost long dont know back'
p288
aS'remain promise unfulfilled push away'
p289
aS'awake night blue eyes never remember feel'
p290
aS'cussed prayed said goodbye shook fist asked'
p291
aS'stronger know dont wanna person needs help feel alone'
p292
aS'dont know want anymore close somebody leave onetreehill'
p293
aS'spend lives searching answers dont know loving people dont love back onetreehill'
p294
aS'hurts meaning nothing someone means everything onetreehill'
p295
aS'nothing cant break broken heart'
p296
aS'know talkin find'
p297
aS'tomyfuturegirlfriend stay niked shes lucky'
p298
aS'much tonight great ending shitty'
p299
aS'tonight gtgt'
p300
aS'know youre back town'
p301
aS'keep reminding everythings going okay'
p302
aS'rain check'
p303
aS'bright side addicted cocaine'
p304
aS'come brucey back want'
p305
ag10
aS'drinking'
p306
aS'amen'
p307
aS'cant wash away memories things never said'
p308
aS'leggings pants'
p309
aS'ordered shirts weeks theyre still'
p310
aS'wanna stay home'
p311
aS'lights left even serious problem'
p312
ag10
aS'thats perfect'
p313
aS'love things tried make believe dark lies empty things disguised'
p314
aS'sick tired sick tired'
p315
aS'feel silence dolls seriously story life'
p316
aS'lies werent enough keep'
p317
aS'thought lost somewhere never really ever'
p318
aS'okay walk someones life dont feel like belong anymore'
p319
aS'youre ever believed'
p320
aS'youre everything said youd never'
p321
aS'dont think today could worse'
p322
aS'never owned pair converse vans youre missing'
p323
aS'wanted need somehow gone'
p324
aS'done today done tomorrow already\xe2\x80\x9d'
p325
aS'going great fucking'
p326
aS'beer makes remember much hate people'
p327
ag10
aS'call'
p328
aS'remix ignition fresh kitchen momma rolling body every wishing'
p329
aS'feel alone friday night make feel like home tell youre mine'
p330
aS'want alcohol'
p331
aS'commerce'
p332
aS'side'
p333
aS'fuck forsaken town already nothing anymore'
p334
aS'friday friday gotta wine friday diamonddiploma'
p335
aS'glass half empty half full youve done wrong clearly need wine'
p336
aS'could stay commerce'
p337
aS'tell homeboy said'
p338
aS'look today'
p339
ag10
aS'aint time kids'
p340
ag10
aS'guess means ally favorite\xe2\x80\x9d gimme money bring food'
p341
aS'juan pablos'
p342
aS'sorry sorry told nice week'
p343
aS'youre missing good lunch'
p344
aS'noooo\xf0\x9f\x98\xad youre game buddy class today'
p345
aS'child naked shes dancing around living room bubble guppies'
p346
aS'takes leap faith'
p347
aS'gonna come watch cheer'
p348
aS'thinking sleeping naked weekend'
p349
aS'house clean dont know life right'
p350
aS'pizza rolls ranch everything'
p351
aS'hope disney girl meets world airing 2014'
p352
aS'vodka'
p353
aS'really want bottle wine right'
p354
aS'said would kill half sleeve tattoos'
p355
aS'made think appropriate thing'
p356
aS'perfect'
p357
ag10
aS'never ceases amaze mothers thats glad boys talking teen pregnancy bitch'
p358
aS'braces'
p359
aS'youre lucky youre luckiest person entire planet person love decides love back'
p360
aS'someone tells dont like country music'
p361
aS'theres 1000 chance rude today'
p362
ag10
aS'come miss face'
p363
aS'waking bottle jack hand sign good night'
p364
aS'forgot pack lunch today supposed starve hungry\xe2\x80\x9d'
p365
aS'teachers give sign'
p366
aS'whats crime'
p367
aS'retweet could save lives'
p368
aS'love much knows'
p369
aS'somebody puts conway tpain sentence teeth knocked'
p370
aS'taught forgiveness giving love back'
p371
aS'happiness taking sweet time'
p372
aS'zoey101memories dream ride sushi drink blix find like'
p373
aS'1000 blankets antarctica'
p374
aS'dont justify past mistakes insecurities learning live\xf0\x9f\x92\x9c'
p375
ag10
aS'evening officially amazing couldnt asked better past days'
p376
aS'sentence sayin really mean fuck right sayin'
p377
aS'juan pablos delivered world would better place'
p378
aS'wanna rewind time'
p379
aS'forever wanting someone bring whataburger breakfast fattyprobz'
p380
aS'boobs'
p381
ag10
aS'yall make tweets'
p382
aS'exactly first choice like least wants like momma'
p383
aS'savvy found belly rings tried belly button drew tattoos like mommy love'
p384
aS'inside youre ugly ugly like real'
p385
aS'live albums favorite staind'
p386
aS'well night made'
p387
aS'know'
p388
aS'well lying bitch'
p389
aS'promise forever soul take'
p390
aS'cant even remember last time wore jeans love leggings yoga pants much'
p391
aS'chips salsa queso'
p392
aS'favorite part treasureplanet johnny rzezniks song comes'
p393
aS'every girls eyes light sees'
p394
ag10
aS'believe youre theyll never forgive things weve done'
p395
aS'swear bitter gonna last ones standing'
p396
aS'beautiful criminal could mine'
p397
aS'\xe2\x80\x98north\xe2\x80\x99 part music collection'
p398
ag10
aS'high youre around feet dont touch ground'
p399
asS'2013_47'
p400
(lp401
S'wanted good hearted woman forgives imperfection loves'
p402
aS'need work'
p403
aS'tell'
p404
ag10
aS'right'
p405
aS'someone beer please'
p406
aS'grandma kept entertained today always laugh hard spending time beyond blessed'
p407
aS'finally home longest ever didnt take shes extra cranky early time tonight'
p408
aS'finally found youve given heart find wont give heart'
p409
aS'tshirts scarfs leggings boots winter wardrobe consist'
p410
aS'miss'
p411
aS'next time'
p412
aS'fastest route texans heart stomach'
p413
aS'posados finally getting food'
p414
aS'school nurse years okay'
p415
aS'itll probably later still drive back hours arent close done'
p416
aS'cant stop laughing'
p417
aS'talked said shit savannah knocked thing table'
p418
aS'cant even memorized line repeated even though couldnt'
p419
aS'tell school'
p420
aS'kinds shit cant stop laughing'
p421
aS'thank finally called back waiting room million years'
p422
aS'listening lady thick polish accent talk always falls done'
p423
aS'butts tacos life'
p424
aS'wanna walk next door posados body weight tacos queso'
p425
aS'least grandma funny'
p426
aS'theres even fucking snack machine'
p427
aS'asking puts horrible life break heart'
p428
aS'doctor grandma hungry starving theres sight appointment'
p429
aS'going wear yoga pants make sure wear thongs\xe2\x80\x9d'
p430
aS'already today hopefully grandma take shopping'
p431
aS'called hooker'
p432
aS'hitting snooze times guess need ready'
p433
aS'kinda night'
p434
aS'grossed'
p435
ag10
aS'want beer wine'
p436
aS'gonna long drive tyler morning'
p437
ag10
aS'really sleep buuuuut insomnia wins'
p438
ag10
aS'really good call really give fuck'
p439
ag10
aS'seriously worried'
p440
aS'dont know think right hope everything okay'
p441
aS'worried'
p442
aS'needs turn fucking phone worrying people'
p443
aS'anyone heard past'
p444
aS'rich people china hire body doubles serve prison sentences\xe2\x80\x9d dumbest shit ever heard'
p445
aS'realized didnt dinner'
p446
aS'miss kinsler texas'
p447
aS'snaps right'
p448
aS'gets worse youre older'
p449
aS'seeing broken girl behind pretty smile'
p450
aS'desperate times call desperate measures'
p451
aS'took leaving realize theres good goodbye jasonmichaelcarroll\xe2\x80\x9d'
p452
aS'need know soon'
p453
aS'well class need find someone else watch'
p454
aS'back okay'
p455
aS'well want come figured would easier bring'
p456
aS'drop around 1030 back pick school'
p457
ag10
aS'womancrushwednesday even question'
p458
aS'hearing many people losing babies breaking heart thankful baby girl'
p459
aS'sagittarius likes walking around house naked'
p460
aS'gonna able watch niece tomorrow'
p461
aS'wake take hand give reason start'
p462
aS'maybe well wake thisll dream'
p463
ag10
aS'thanks sharing'
p464
aS'eminem wrote recorded real slim shady hours album'
p465
aS'much work watches movie writes novel backpacks europe damn sleep\xe2\x80\xa6'
p466
aS'rippin farts breakin hearts wafflehouse\xe2\x80\x9d'
p467
aS'well guess want high tops'
p468
aS'cause love much'
p469
aS'everyone keeps asking want birthday christmas dont know'
p470
aS'congrats voted sexiest planet take clooney'
p471
aS'love texas'
p472
aS'boobs wear sweatshirts winter time usually away'
p473
aS'sagittarius seeks life experiences teach valuable lessons proud'
p474
aS'somethings meant happen happenright time right person best reason'
p475
aS'eminem came oyah turnup'
p476
aS'done'
p477
aS'still dont know want christmas\xe2\x80\x9d'
p478
aS'header'
p479
aS'like people joke around much deep conversation'
p480
aS'pizza pregnant'
p481
aS'\xe2\x80\x9cbuttload\xe2\x80\x9d actual measurement volume equal gallons'
p482
ag10
aS'havent heard feel lost'
p483
aS'theres'
p484
aS'miracle actually words'
p485
aS'next text says'
p486
aS'going saturday alone'
p487
ag10
aS'thursday hurry'
p488
aS'know doesnt mean cant'
p489
aS'ever talk someone feel really happy matter shit conversation'
p490
aS'life'
p491
aS'cant pass'
p492
aS'everyone pick tune meet vegas dude busts music fans realartist\xe2\x80\xa6'
p493
aS'want okay'
p494
aS'gonna catching fire saturday'
p495
aS'savannah attitude tonight driving insane'
p496
aS'savannah stop calling kayla'
p497
aS'parent absolutely nothing worse someone trying make feel like youre good enough'
p498
aS'pizza needs involved'
p499
aS'well currently feeling like skin burning minutes'
p500
aS'people would probably think lesbians heard conversations'
p501
aS'remembering hate nair'
p502
aS'needta'
p503
aS'sleep stupid tshirts hold dumb hand piece shit'
p504
aS'people fucking rude judgmental ridiculous'
p505
aS'feel completely opposite feelings'
p506
aS'shine bright like'
p507
aS'know matter many nails others backs well others backs cause lucky'
p508
aS'tell ugly youll always love'
p509
aS'want juan pablos'
p510
aS'babys black balloon makes'
p511
aS'well super productive today started googling make prison wine went downhill'
p512
aS'dublin pepper sounds fabulous right'
p513
aS'said'
p514
aS'long dirt road bottle wine wrapped arms knew mine'
p515
aS'cant finish west philadelphia theyre young'
p516
aS'hate shady people hate'
p517
ag10
aS'still watch strangers'
p518
aS'think bring purge watch daytime'
p519
aS'sleep pillows sleep'
p520
aS'know well'
p521
aS'tooth tunes commercial direction playing reminded'
p522
aS'already made'
p523
aS'sleep'
p524
aS'yessss cause thats woke 72829495316 texts okay still'
p525
aS'nightmares gotta stop would love night peaceful sleep'
p526
ag10
aS'texted like times last hour'
p527
aS'thanks texting back'
p528
aS'talking parents birth control better telling youre pregnant said good night'
p529
aS'want christmas littlebluebox'
p530
aS'pregnancy preventable teen isnt easy especially werent planning getting pregnant'
p531
aS'watching teenmom3 special tonight makes want everyone isnt practicing abstinence birth control'
p532
aS'think twitter'
p533
ag10
ag10
ag10
aS'hero'
p534
aS'please safe'
p535
ag10
aS'next time'
p536
aS'wine'
p537
aS'youre favorite love'
p538
aS'holy shit intense'
p539
aS'guess'
p540
aS'keep getting chunkier chunkier like season pumpkin eggnog'
p541
ag10
aS'seriously never enough country music'
p542
aS'relationships involving teen pregnancy enda baby going save relationship'
p543
aS'least youre heartless asshole'
p544
aS'knew past would still willing part future'
p545
aS'peoples lack swearing makes uncomfortable'
p546
aS'oneofmyfavoritemoviesis walk remember'
p547
aS'call love parachute'
p548
aS'love'
p549
aS'cartoon network glass wine perffffff'
p550
aS'resist little blue eyes says momma pwease take bath wiff heart melted'
p551
aS'currently enjoying daily fruit well grapes fermented grapes fine drinking wine'
p552
aS'might still heartit might little hidden bitch'
p553
aS'even wrong words seem rhyme'
p554
aS'leggings best thing girl'
p555
aS'really like food'
p556
aS'always someones page follows thing takes like seconds little heart broken'
p557
aS'life'
p558
aS'first thing said youre nippin headlights showing'
p559
aS'difference youre hard understand many people freaking stupid'
p560
aS'dont expect much might'
p561
aS'ever first sentence text message think fuck time shit\xe2\x80\x9d'
p562
aS'heeeey jealousy'
p563
aS'meet vegasitunestomorrowlets thisyahtzeedownload download mans song yall'
p564
aS'hungry'
p565
aS'loooovvvvee tooooo'
p566
ag10
aS'swerve'
p567
aS'scared'
p568
aS'love handshake meeting father love walk hands pockets'
p569
aS'roll eyes pull much dancing'
p570
aS'person'
p571
aS'want lolly'
p572
aS'realizes cant retweet delacis tweets cries deletes twitter'
p573
aS'fries guys'
p574
aS'biggest thrill life tell'
p575
aS'like'
p576
aS'hobby lobby'
p577
aS'move skinny jeans yoga pants probably best make'
p578
aS'alwayssssss'
p579
aS'upon time falling love falling apart nothing total eclipse heart'
p580
aS'guess means nyctophiliac'
p581
aS'well maybe blind optimism blame maybe sick need give love take away'
p582
aS'ugly'
p583
aS'dont think young played dark twisted games loved'
p584
aS'eats snack eats dinner eats everything fridge eats eats family eats'
p585
aS'polite devil needs ride angel ride aint hanging tonight'
p586
aS'sell soul face'
p587
aS'love like loved loved didnt'
p588
aS'cant cake sayin'
p589
aS'weve texted since march deep shit buzzzzzkill'
p590
aS'twerking face'
p591
aS'really shoes'
p592
aS'dont ever walked away always want'
p593
aS'apps shut music open fucking important think'
p594
ag10
aS'nice'
p595
aS'life aint always beautiful sometimes plain hard life knock break heart'
p596
aS'love'
p597
aS'phone love'
p598
aS'dont make know life'
p599
aS'pull'
p600
aS'anything ever dream complete'
p601
aS'arms around feel beautiful'
p602
aS'wanna wake wont anything'
p603
aS'shoes'
p604
aS'beautiful front porch eatin favs'
p605
aS'pretty awesome bigbutts'
p606
aS'grills'
p607
aS'best friend said'
p608
aS'seriously considering cocktail waitress babydolls done'
p609
ag10
aS'youre crawling broken glass thats stay'
p610
aS'waiting life finally find push away'
p611
aS'dont even love'
p612
aS'waaait december'
p613
aS'cant even deal right'
p614
aS'white trash finest walmart classy'
p615
aS'fucking mood today'
p616
aS'redhead wildest dream worst nightmare gingerproblems'
p617
aS'really dont believe love fairytales happy ever huge crock shit'
p618
ag10
aS'good friends talk goes bedroom best friends talk goes bathroom\xe2\x80\x9d'
p619
aS'forever waiting'
p620
aS'wish iphone would stop correcting shocked'
p621
aS'time great'
p622
ag10
aS'1111'
p623
aS'dont person needs someone person someone needs'
p624
aS'text'
p625
aS'text'
p626
aS'perfect song wake'
p627
aS'accept love think deserve'
p628
aS'like cowboy'
p629
aS'dear baby jesus please dont savannah find anything paint morning amen goodnight'
p630
aS'fast furious going something'
p631
aS'insomnia worst'
p632
aS'realized left tiffanys ring moms house'
p633
aS'asleep'
p634
aS'forever hating morning'
p635
aS'sorrynotsorry'
p636
aS'real amazing someone understands life thankful'
p637
aS'sometimes post pics point across delete'
p638
aS'drove home record timing took minutes drifted driveway'
p639
aS'well feelin million times better lmfao'
p640
aS'love kiss love sounds baby make world round wanted sorry'
p641
ag10
aS'cant wait whiskey'
p642
aS'douche kabob'
p643
aS'thats brother'
p644
aS'wiff'
p645
aS'finally text back'
p646
aS'open snap dont snap text back'
p647
aS'buys milk cause need lose weightfuck'
p648
aS'cant'
p649
aS'madison sleep cause hasnt tweeted'
p650
aS'talk best friend cause love much'
p651
aS'done'
p652
aS'madison'
p653
aS'fact cant delaci ltlt'
p654
ag10
aS'madison'
p655
aS'wanna'
p656
aS'sure first'
p657
aS'bring'
p658
ag10
aS'foreveralone'
p659
aS'love bubba'
p660
aS'yessssss need tickets like tomorrow drive'
p661
aS'love youre seriously best friend couldve ever asked'
p662
aS'words'
p663
aS'thank brig love much'
p664
aS'jordan brandon cutest\xf0\x9f\x98\x82\xf0\x9f\x98\x82'
p665
aS'spend weekend gone'
p666
aS'wanted fight tell would rather alone anyone else wanted someone worth fighting'
p667
aS'never thought give youre pushing without'
p668
aS'going straight hell'
p669
aS'idiot'
p670
aS'whaaaaa'
p671
aS'always good thanks always loving idiot'
p672
aS'want different things'
p673
aS'habit throwing away best things life shittiest people youd think learn lesson'
p674
aS'maybe high ever understand maybe victims foolish plans began devise'
p675
aS'read junie jones books'
p676
aS'know regrets hardest lessons learned'
p677
aS'moment silence whoever came pumpkinsweet potato'
p678
aS'cant even deal cameronstrait mirrorselfies sunday selfiesunday'
p679
aS'dinner sisters'
p680
aS'long lose right person\xe2\x80\x9d know goes life'
p681
aS'wanna lose control afraid lose'
p682
aS'seriously best thing ever'
p683
aS'still'
p684
aS'duck commander wine walmart needs menu tomorrow'
p685
aS'okay maybe something spaghetti'
p686
aS'karma'
p687
aS'shouldnt total fuckin douchelord'
p688
aS'lmfao bruce talking shit last night hahahaha'
p689
aS'long noodles havent floor sorrynotsorry'
p690
aS'fuck cook spaghetti'
p691
aS'gonna'
p692
aS'lookin forward lunch catchin'
p693
aS'lmao still coming tomorrow'
p694
aS'thought knew enough know whats right'
p695
aS'cant believe youre liking natty days'
p696
aS'love moon back hate deal moose knuckle'
p697
asS'2013_44'
p698
(lp699
S'sunday means chicken green bean casserole night'
p700
aS'someone shows really remember first time'
p701
aS'leggings shirts best'
p702
aS'thought trying sleep'
p703
aS'america'
p704
aS'crack whore barrel'
p705
aS'never seen harry potter'
p706
aS'shoulda heard mama calls baby daddy calls friends call craaazy'
p707
aS'listening pattinson sing makes wanna marry'
p708
aS'dreams head fortune teller said free thats came'
p709
aS'happy birthday'
p710
aS'amused'
p711
aS'harry potter fans wanna hogwarts narnia fans wanna narnia hunger games fans nope good'
p712
aS'crying'
p713
aS'salute fucking love'
p714
aS'grandma drug dealer'
p715
aS'take back belong favorite song'
p716
ag10
aS'spending eating savannahs halloween candy'
p717
aS'need friend loves harry potter much'
p718
aS'lmao thanks'
p719
aS'love cute'
p720
aS'thank think made awesome minion'
p721
ag10
ag10
aS'tell fall shooting star without permanent scar'
p722
aS'okay faroeislands thousands innocent pilot whales slaughtered grinds year'
p723
aS'shame place beautiful faroeislands something barbaric innocent pilot whales'
p724
aS'honey boos family dressed kardashians dead'
p725
aS'wish would text back'
p726
aS'kill light right'
p727
aS'dear crazy lady please stop following around square\xe2\x80\x9d'
p728
aS'extra chips expect original extra half'
p729
aS'returned united statesinterpol notice costa rica droppedwill challenge japan notice'
p730
aS'movie scares'
p731
aS'hero glad back states love everything oceans seashepherd'
p732
aS'everyone please retweet share little brother missing'
p733
ag10
aS'know cant wait shes cutie'
p734
aS'cute baby whos gonna minion'
p735
aS'overwhelmed every time netflix cant decide wanna watch list like things'
p736
aS'miss getting nails done every week'
p737
aS'season'
p738
aS'hates'
p739
aS'already'
p740
aS'dark gloomy outside love favorite kind weather'
p741
aS'otters known drown baby seals rape them\xe2\x80\x9d'
p742
aS'everyone past shouldnt judged live people change'
p743
aS'life business dont anyone explanation decisions content'
p744
aS'dont worry missed nationalbestfriendday literally happens times year'
p745
aS'dont judge someone hear youll never know whats heart'
p746
aS'really feel like dont belong anymore commerce offer anyway'
p747
aS'people always eating'
p748
aS'sister hero'
p749
ag10
aS'need take head home'
p750
aS'short girl problems'
p751
aS'every time lucas calls lose onetreehill'
p752
aS'youre welcome'
p753
aS'someone come hang cook lunch everything'
p754
ag10
aS'would anything chicken green bean casserole right'
p755
aS'really hope know much mean love'
p756
aS'squidbillies'
p757
aS'guys theblacklist'
p758
aS'buying crap theblacklist'
p759
aS'favorite shes phenomenal theblacklist'
p760
aS'best shows ever watched good'
p761
aS'havent seen tonights every episode kills'
p762
aS'theblacklist makes crazy dont know think'
p763
aS'feel conflicted theblacklist'
p764
aS'bond bond theblacklist'
p765
aS'great things store life even youre dont forget'
p766
ag10
aS'thanks snack'
p767
aS'universal iphone rule person lowest battery percentage gets charger\xe2\x80\x9d'
p768
aS'excited thevoice theblacklist tonight'
p769
aS'people nosey swear'
p770
aS'preach'
p771
aS'people question something pertains life sisters thanks'
p772
aS'furthermore going life none business wanted know would tell thanks'
p773
aS'texas country kicks'
p774
aS'finally time year hair matches leaves gingerproblems'
p775
aS'adult today'
p776
aS'cant remember weekend means good'
p777
aS'dora bumblebee'
p778
aS'seven billion people planet like friends real life'
p779
aS'thank seriously reason world spins'
p780
aS'okay hate living like cause look sweet'
p781
aS'look hate like'
p782
aS'probably hate going sleep specifically nightmares'
p783
aS'every night nightmares make sure princess okay\xf0\x9f\x98\x94'
p784
aS'thats really lucky mine always something happening baby scares'
p785
aS'extremely nightmares every single night without meds even sleep hour nightmare'
p786
aS'sleeping pills dont even help tells insomnia hate sleeping'
p787
aS'welcome world every night thing'
p788
aS'life'
p789
aS'wake morning well sure jaaail using phone call remind hell'
p790
aS'bannah calls kayla'
p791
aS'badgrandpa'
p792
asS'2013_45'
p793
(lp794
S'taking munchkin donuts morning'
p795
aS'phone clue savannah charger toddlerproblems'
p796
ag10
aS'sucks cant make someone love technically speaking made love'
p797
aS'wanting wont stop wanting'
p798
aS'bodys exhausted mind wont sleep'
p799
aS'pissed didnt eybhouseparty'
p800
aS'thank amazing lyrics goodnight world'
p801
aS'least pounds'
p802
aS'text struggle real'
p803
aS'life future everything'
p804
aS'conserve water drink texas beer\xe2\x80\x9d shinerbock'
p805
aS'suicide hotline 18002738255 simple retweet might save someones life'
p806
aS'absolutely love'
p807
aS'ahhh many close friends either parents expecting soon driving crazyyyy babyfever'
p808
aS'cant believe bubbas senior night tonight'
p809
aS'whale warsreturns animal planet twohour television event chronicling shepherds toughest campaign'
p810
aS'dolls leno tonight'
p811
aS'faith humanity restored'
p812
aS'wear leggings everyday really could care less anyone thinks theyre comfy'
p813
aS'terms instant relief canceling plans like heroin'
p814
aS'could famous ginger would gingerquestionnaire\xe2\x80\x9d'
p815
aS'perfect night grilling dont anyone share'
p816
aS'things make life long dont like remove dont make change'
p817
aS'sorry didnt want life begin dont tell cant talk music cant listen'
p818
aS'annoying people invite life make change everything'
p819
aS'tonight andy samberg music tonightshow'
p820
aS'hate lied'
p821
aS'seriously hate driving town hate plans fall hate shady people'
p822
aS'crying hard right show makes freakin emotional'
p823
aS'hell yeah don\xe2\x80\x99t know you\xe2\x80\x99re life don\xe2\x80\x99t enough'
p824
aS'look accidentally front camera angle feel inside'
p825
aS'first crush benny rodriguez'
p826
aS'maybe need'
p827
aS'always wish things know never sadly things want'
p828
aS'greatest thing george winning isnt person longlivetheking'
p829
aS'obviously doctor emails tell glasses said theyll call'
p830
aS'waiting glasses weeks called lady said emailed 25th tell emails'
p831
aS'happy birthday love'
p832
aS'holy shit stuck beside anti people debate behind ihop please stop yall sound like idiots'
p833
aS'weather makes happy lazy'
p834
aS'talkin cameron'
p835
aS'place mind\xe2\x80\x9d busted little bubble didnt'
p836
aS'love dont exist youre around friends'
p837
aS'definitely'
p838
aS'gonna jealous'
p839
ag10
aS'paid little take'
p840
aS'brand gta5 game literally played minutes anyone wanna'
p841
aS'middle finger emoji would perfect'
p842
aS'could shake head forget things said maybe feel better bout lettin fallin apart'
p843
aS'took words right outta mouth'
p844
aS'already ruined wake'
p845
aS'love waking drunk voicemails hole'
p846
aS'cant believe baby going months like time wish life rewind button please dont grow'
p847
aS'profile'
p848
aS'think lizzy adopted biological father explains cares much theblacklist'
p849
aS'really excited theblacklist tonight cause cutieeee'
p850
aS'hate scott much cant wait karma catch onetreehill'
p851
aS'time savannah wants anything knows really interested show become jungle'
p852
aS'youre girl boys wanna dance using many chances classic fall'
p853
aS'texans american americans lucky enough texans'
p854
aS'twilightforeverph hangin cullen kids first gets'
p855
aS'people talking shit'
p856
aS'getting ready tasty tunes planethollywood twilightfo\xe2\x80\xa6'
p857
aS'time'
p858
aS'know hide alone know things make'
p859
aS'mine would'
p860
aS'drove miles miles wound door many times somehow want moree\xf0\x9f\x98\xab\xf0\x9f\x8e\xa7'
p861
aS'love thank'
p862
aS'seriously blown proportion grip come back reality bullshit'
p863
aS'tell hell already living'
p864
aS'lasttweet'
p865
asS'2013_16'
p866
(lp867
S'hello grand slam belts center dist 431ft rangers mariners letsgorangers'
p868
aS'martin sends solo shot wall right tied piece letsgorangers'
p869
aS'time watch titanic'
p870
aS'wish knew retainer teeth moved much cant even tell braces'
p871
aS'hear music coming inside house across street surround sound loud'
p872
aS'girl scout cookies coffee baby girl'
p873
aS'laying listening rain work take'
p874
aS'rain'
p875
aS'many people saying prayfortexas like trending topic really aint praying take'
p876
aS'insane prayfortexas'
p877
aS'wake morning well sure jail using phone call remind hell'
p878
aS'perfect'
p879
aS'life bunch seemed like good idea time moments'
p880
aS'listening album morning musical perfection'
p881
aS'wish didnt love anymore'
p882
aS'wish could wonderful much deserve'
p883
asS'2013_24'
p884
(lp885
S'happyfathersday'
p886
aS'sending love thanks amazing fathers crazy love best ever'
p887
aS'like damn disney movie every time animal want frolick around talk solves'
p888
aS'jimmy neutron machine styles hair please'
p889
aS'trying drink mind take whiskey time'
p890
aS'everything dont make sense makes sense'
p891
aS'well love miss weirdo need life'
p892
aS'case forgot much loved missed weirdo worth'
p893
aS'silly'
p894
asS'2013_25'
p895
(lp896
S'parents town clean laundry food talk apparently'
p897
aS'tell want tell take farther ever'
p898
aS'migraines every single ltltltlt'
p899
aS'every important sentence starts yall'
p900
aS'worstlies love'
p901
aS'spray went look like egyptian oompa loompa'
p902
aS'steak cold drinks good friends awesome summer night'
p903
aS'babys black balloon makes'
p904
aS'make kardashian\xe2\x80\x99s name choice north west want baby going straight slig\xe2\x80\xa6'
p905
aS'spray cant shower hours gonna hardest life'
p906
aS'hate missing'
p907
aS'shes home girl'
p908
aS'miley cyrus music video made throw mouth'
p909
aS'best shitty falling asleep album'
p910
aS'finally open someone shit guess back heartless'
p911
aS'dont understand guys think okay play girls emotions'
p912
aS'either want someone dont dont drag heart youre trying figure want'
p913
aS'annoyed overthisshit'
p914
aS'babysat cutie today shes sweetheart'
p915
aS'nickelodeon plays shows night think disney channel needs'
p916
aS'tired'
p917
aS'girl never many panties'
p918
aS'yall need come soon'
p919
aS'miss'
p920
aS'pretty little liars makes crazy'
p921
aS'fuck aria aria ezra perfect couple need back together'
p922
aS'working'
p923
aS'want free live life'
p924
aS'town people'
p925
asS'2013_26'
p926
(lp927
S'love walking people talking shit family'
p928
aS'yall rocked tonight always love catching show'
p929
aS'nauseous'
p930
aS'lord pray first star tonight never lose thing found'
p931
aS'nigga raaaannnn'
p932
aS'well turned different thought would'
p933
aS'needless terrified'
p934
aS'balled texted tell tattoo back almost year'
p935
aS'really need haircut split ends dont want hair shorter'
p936
aS'want people throw trash trash dishes dishwasher simple'
p937
aS'clean house least hours every single always trashed time home work'
p938
aS'always favorite sins'
p939
aS'still gotta ranger ticket field pass sale youll ride'
p940
aS'good night little shit'
p941
aS'hate mosquitos'
p942
aS'sorry dropped potatoes love'
p943
aS'taking break'
p944
aS'theres like people'
p945
aS'probably'
p946
aS'blowing shit'
p947
ag10
aS'pretty sure monday'
p948
aS'body weeks without food dear youll live'
p949
aS'spray power'
p950
aS'bills next week bought tickets broke'
p951
aS'drinking shit'
p952
aS'potato driving back town midnight take food'
p953
aS'drink vodka never talk brother loves'
p954
aS'dont rude'
p955
aS'wanna extra ranger ticket'
p956
aS'please shooting potato dontcha wish cool like'
p957
aS'bitchhhh'
p958
aS'vodka mixes really well everything except decisions'
p959
aS'sagittarius easily tempered gets quick'
p960
aS'sagittarius missing brain mouth filter sometimes things better left unsaid'
p961
aS'ranger ticket casey donahew concert field pass sale saturday contact youre interested ride included'
p962
aS'dont wanna work'
p963
aS'page'
p964
aS'river'
p965
aS'first time caught ilovetocreep'
p966
aS'haha looked date thought creeperstatus'
p967
aS'yeah realized would think creep favorited'
p968
aS'saturday already ready'
p969
aS'stoked'
p970
aS'redhead wife girl'
p971
aS'everyone generation loves making gingers hair gingerproblems'
p972
aS'icantlivewithout sweet thang'
p973
aS'almost shootin potato firstclasswhitetrash'
p974
aS'july hurry please tickets excited'
p975
aS'gtgt'
p976
aS'excited spaghetti night house favoritesss'
p977
aS'thanks saying last night'
p978
aS'awkward'
p979
aS'boyfriend isnt allowed swim without floaties tryna drown escape relationship today\xe2\x80\x9d'
p980
aS'want ranch lone star'
p981
aS'awesome night love life'
p982
aS'field pass game concert'
p983
aS'going ranger game saturday'
p984
aS'girl meets world official premiere 2014'
p985
aS'happy'
p986
aS'conversation right gtgtgt'
p987
aS'omfg catfish later today\xf0\x9f\x98\x8a\xf0\x9f\x98\x8a\xf0\x9f\x98\x8a\xf0\x9f\x98\x8a\xf0\x9f\x98\x8a\xf0\x9f\x98\x8a\xf0\x9f\x98\x8a\xf0\x9f\x98\x8a'
p988
aS'wish rung neck caught cigarettes reminds last pack jakeowen'
p989
aS'don\xe2\x80\x99t want don\xe2\x80\x99t miss later'
p990
aS'embarrassing admit actually like miley cyrus song cant stop music video trash like'
p991
aS'breathe nigga made across'
p992
aS'bird'
p993
aS'made skywire'
p994
aS'looked'
p995
aS'shit almost skywire'
p996
aS'least dude praising jesus props'
p997
aS'jesus name skywire'
p998
aS'dont tell long wire geez'
p999
aS'wind still tripping'
p1000
aS'skywire'
p1001
aS'tell others christ walk across grand canyon wire'
p1002
aS'gonna fall holy shit keep praying good fella'
p1003
aS'probably someone tonight'
p1004
aS'discovery'
p1005
aS'skywire shit crazy thinking'
p1006
asS'2013_27'
p1007
(lp1008
S'gave savannah mohawk'
p1009
aS'ginger jokes almost shitty hair color stop jealous gingerproblems'
p1010
aS'whether come back page screen hogwarts always welcome home\xe2\x80\x9d rowlin\xe2\x80\xa6'
p1011
aS'thou shalt float river'
p1012
ag10
aS'well night sucked'
p1013
aS'earlier work'
p1014
aS'daughter smacked guys lone star'
p1015
aS'love youu\xf0\x9f\x98\x8d'
p1016
aS'baby crash party time'
p1017
aS'another heart break'
p1018
aS'love sister'
p1019
aS'three bottles lets serious need whole case drpepper blood veins\xe2\x80\xa6'
p1020
aS'dont rude'
p1021
aS'like seconds'
p1022
aS'desperate point'
p1023
aS'miss'
p1024
aS'someone bring bottles pepper love forever'
p1025
aS'broken promises finally broke heart'
p1026
aS'didnt sleep savannah didnt wake early'
p1027
aS'heeeeyy mama rock'
p1028
asS'2013_20'
p1029
(lp1030
S'wish guys respectful didnt randomly send gross pictures keep classy please'
p1031
aS'youre closest heaven ever dont wanna home right'
p1032
aS'ranch dressing goes everything everything sorryimtexan'
p1033
aS'lips face smile stay'
p1034
ag10
aS'rant'
p1035
aS'caught doesnt mean crooked goes officer grow pair'
p1036
aS'always along know well enough know honest damn good officer'
p1037
aS'stupid caught isnt officers fault trouble fault dumb'
p1038
aS'nothing pisses seeing people talking saying crooked'
p1039
aS'every daisy needs gatsby'
p1040
aS'irisgtgtgt'
p1041
aS'loved seeing today'
p1042
aS'dont understand people crazy'
p1043
asS'2013_21'
p1044
(lp1045
S'weve playing games weeks ready play keeps'
p1046
aS'dont know girl'
p1047
aS'people pull middle part gave gift'
p1048
aS'excited taylor swift'
p1049
aS'hate'
p1050
aS'hope wraps arms fall asleep'
p1051
aS'baby youre buzzkill'
p1052
aS'recurring migraines getting tired pain everyday'
p1053
aS'great gatsby soundtrack meaning perfection'
p1054
aS'sagittarius speak mind cant handle thats problem'
p1055
aS'caillous bitchass snitched recess smoking bowl bout jump fuck outta tomorrow\xe2\x80\x9d'
p1056
aS'back jeweler sold make every karat oops'
p1057
aS'improvised started singing eminem bird dont sing ring dont shine imma break birdies neck'
p1058
aS'trying sing hush little baby whatever called savannah dont know words past diamond ring'
p1059
aS'really wish girl friends hate girl every night'
p1060
asS'2013_22'
p1061
(lp1062
S'accept love think deserve'
p1063
aS'wanna fishin'
p1064
aS'kiss tattoosgtgtgtgt\xe2\x80\x9d'
p1065
aS'tweetyourfirst7emojis'
p1066
aS'pride shes'
p1067
asS'2013_23'
p1068
(lp1069
S'hate creeping someones facebook youre friends accidentally friend'
p1070
aS'sick faced people removing equation asap'
p1071
aS'much easier said done'
p1072
aS'yoga pantsgtgtgt young'
p1073
aS'doubt fills mind finally find collide'
p1074
aS'listening sweeney todd soundtrack brothers beats headphones perfection'
p1075
aS'still really pissed missing graduation even though requested opened back'
p1076
aS'thingsiwillteachmychild love whoever want wont judge'
p1077
aS'didnt like triple helix piercing took looks much better'
p1078
aS'starting remember never people burned'
p1079
asS'2013_28'
p1080
(lp1081
S'heath ledger good dark knight root joker instead batman'
p1082
aS'never trouble getting want comes never good enough\xe2\x80\x9d'
p1083
aS'hate watching drive away'
p1084
aS'mouth want wecantstop'
p1085
aS'kurt cobain'
p1086
aS'1111\xe2\x9c\xa8'
p1087
aS'never irate life'
p1088
aS'entirely much brother sister'
p1089
ag10
aS'imessage facebook something'
p1090
ag10
aS'money'
p1091
aS'youuu'
p1092
ag10
aS'work'
p1093
aS'spinach feta artisan pizza'
p1094
ag10
aS'cried little'
p1095
ag10
aS'heat wave weekend please remember dress body body want fatbastard\xe2\x80\x9d'
p1096
aS'means anyone else thinking ghetto word babebaby'
p1097
aS'despicable gibberish minions speak actual language called minionese created film director'
p1098
aS'forget friends know theyre gonna aint good anyone else'
p1099
aS'done always easier'
p1100
aS'house play'
p1101
aS'waiting little girl wake plaaaaaay'
p1102
aS'life every entitled fall madly love gorgeous redhead lucille ball'
p1103
aS'agree also sexy\xe2\x80\x9d heard ladies'
p1104
aS'think parents grounded could watch wanted geniuses'
p1105
aS'tweets entertainment pretty awesome'
p1106
aS'dont communist taketanner'
p1107
aS'shut mouth know everything'
p1108
aS'john mayer always favorite songs'
p1109
aS'randy travis surgery playing forever ever amen right'
p1110
aS'lyricsthatmustbeshouted youre ready come'
p1111
aS'cant wait done moving chapter life'
p1112
aS'anyone else wish minions real'
p1113
ag10
aS'poor baby woke hours normally today begging night night hour'
p1114
aS'sagittarius flirt thats natural dont ever doubt loyalty'
p1115
aS'sagittarius dont like someone telling universes freethinkers'
p1116
aS'even life still much thankful theres need complain everything'
p1117
aS'days eating better without soda lost pounds'
p1118
aS'whys gotta complicated really love someone'
p1119
aS'highways broken hearts late nights guitars wonderin youre away'
p1120
aS'songsthatmakemecry imagine mercyme'
p1121
aS'give forever touch cause know feel somehow'
p1122
aS'holy fuck someone swarm bees would would kill right'
p1123
aS'wish minion'
p1124
aS'hell dont taco emoji'
p1125
aS'unexpected phone calls'
p1126
aS'youd probably problem gained pounds none clothes fatkidproblems'
p1127
aS'need workout partner asap'
p1128
aS'maybe someday dont even wanna'
p1129
aS'terrible migraine wanna stay asleep work kody cant savannah today'
p1130
aS'lying\xe2\x80\xa6 parents surveyed would drink alcohol served'
p1131
aS'someone wears cologne want bury face chest sniff smell'
p1132
ag10
aS'wish would quit acting like dumb little restaurant'
p1133
aS'gets 250000 retweets chemotherapy please help dream'
p1134
aS'loved'
p1135
aS'love made lights kiss cheek good night lift high heel lock doors steel'
p1136
aS'halfway done season charmed almost finished rewatching series'
p1137
aS'seriously girl code brilliant'
p1138
asS'2013_29'
p1139
(lp1140
S'drinking problems\xe2\x80\x9d'
p1141
aS'could wants know true best keep keep wanting bradpaisley'
p1142
aS'happy birthday love youuu'
p1143
aS'jeans wouldnt button'
p1144
aS'miss'
p1145
aS'stranger'
p1146
aS'idea congrats'
p1147
aS'herman chef texas right never excited life imtheworst'
p1148
aS'americanidiot probably best album ever owned'
p1149
aS'takes real handle redhead gingerproblems'
p1150
aS'walk empty street boulevard broken dreams'
p1151
aS'started tweaking elevator twerking'
p1152
aS'maam 2011'
p1153
aS'haha hate mine good luck'
p1154
aS'everyone check awesome music'
p1155
aS'tonight freakin excited'
p1156
aS'dont know fine cause dont know make feeling stop'
p1157
aS'much want relationship actually terrify prove youre worth keeping around know\xe2\x80\x9d preach\xf0\x9f\x99\x8c'
p1158
aS'level mayneeee'
p1159
aS'baldgirlemoji'
p1160
aS'wings soda ranch dressing like'
p1161
aS'pretty youre theyre'
p1162
aS'sometimes strong urge smack people upside head dictionary english textbook ilovegrammar'
p1163
aS'tellagirlsheisbeautifulday basically sister'
p1164
aS'love sweet thang'
p1165
aS'black church crunk guycode hell yeah'
p1166
aS'look perfect face sings dream right wishes came true'
p1167
aS'know broke pucker cant walk words watched'
p1168
aS'migraine finally went away though gotta fever vomiting'
p1169
aS'betch'
p1170
aS'someone bring soup babysitter maybe back'
p1171
aS'much pain tried getting fresh super bath migraine pills nothing make stop hurts nauseous\xf0\x9f\x98\xad'
p1172
aS'hobby\xf0\x9f\x98\x92'
p1173
aS'shes still alive'
p1174
aS'always nice girl matter bitchy still love'
p1175
aS'things life time change'
p1176
aS'called nice girl better called bitch'
p1177
aS'school starts'
p1178
aS'sound rain roof right gtgtgt'
p1179
ag10
aS'hate nice someone really want throw brick like every single'
p1180
aS'corrupted willingly watching cartoon network'
p1181
aS'hope engaged stage catfish'
p1182
ag10
aS'standard follow'
p1183
aS'moment found disney making brave movie filled redheads gingersolutions'
p1184
aS'hate accidentally snap chat wrong person horrid picture'
p1185
aS'devastated hear news keep swimming heaven beautiful girl gained amazing angel toda\xe2\x80\xa6'
p1186
aS'wanna healthy like dont wanna stop living junk food watching shows sleeping until\xe2\x80\xa6'
p1187
aS'need minion emoji'
p1188
aS'wanna swim'
p1189
aS'girl earth thinks elite socks even look good'
p1190
aS'also answering work related calls liam neeson taken voice today'
p1191
aS'woke early house cleaned time normally wake accomplished productive'
p1192
aS'cause another heard break'
p1193
aS'might gettin truth fall right back love'
p1194
asS'2013_5'
p1195
(lp1196
S'truth gave heart away long time whole heart never really back sweet home alabama'
p1197
aS'mine hate'
p1198
aS'fighting sleep barely keep eyes open'
p1199
aS'dying tired cant sleep'
p1200
aS'cant sleep even yawn'
p1201
aS'best thing world baby fall asleep arms'
p1202
ag10
aS'world becoming place chriskyle americanhero didnt know america lost hero today'
p1203
aS'lyricseveryoneknows lyricsthatmeanalottome near wherever believe heart'
p1204
aS'moved stinky shes gonna sleep momma'
p1205
aS'bribed brothers food drinks cash neither would spend night'
p1206
aS'scariest thing distance dont know whether theyll miss forget notebook'
p1207
aS'know feel little well'
p1208
aS'want'
p1209
aS'happened'
p1210
aS'hate arent talking'
p1211
aS'wait hear'
p1212
aS'like supposed entire class twitter lecture move lecture twitter'
p1213
aS'elmo puppet nonhuman ever testify congress\xe2\x80\x9d seriously'
p1214
aS'wont'
p1215
aS'sick miserable cant even pick baby without getting dizzy'
p1216
aS'sagittarius emotional'
p1217
aS'retweet youre emotionally invested prettylittleliars'
p1218
aS'think think'
p1219
aS'find friends'
p1220
aS'spaghetti dinner mmmm'
p1221
aS'kilted monkey'
p1222
aS'tips today'
p1223
aS'twitter dumbbb'
p1224
aS'cant determine someone knocking side door construction crew hammering lazy check'
p1225
aS'smile beautiful itll okay'
p1226
aS'cant determine someone knocking side door construction crew hammering lazy check'
p1227
aS'toothache kept night going miserable work'
p1228
aS'problems completely made scenarios head stressing absolut'
p1229
aS'youll always hero even though youve lost mind'
p1230
aS'hate forget take makeup shower come looking like joker'
p1231
aS'hate forget take makeup shower come looking like joker'
p1232
aS'love never even heard even sound offends \xe2\x80\x93peter peter'
p1233
aS'texas weather ridiculous'
p1234
aS'another long studio todayalbum coming april'
p1235
aS'lyricsweallknow remix igintion fresh kitchen momma rollin body every'
p1236
aS'someday somehow gonna make alright right'
p1237
aS'sagittarius must discuss thoughts find opinion others important problems heeding'
p1238
ag10
aS'accepted already\xe2\x98\xba'
p1239
ag10
aS'youll never able satisfy someone doesnt know want\xe2\x80\x9d truth'
p1240
aS'bring around 1130 good word'
p1241
aS'motivation whatsoever working monkey making gain weight theyre hiring'
p1242
aS'need workout partner'
p1243
aS'maybe thats happens tornado meets volcano know love much walk away though eminem'
p1244
aS'youre gonna pull front least give'
p1245
aS'beautiful daughter welcome family girlmeetsworld\xe2\x80\x9d'
p1246
ag10
aS'package today'
p1247
aS'happen finally sent second order keep'
p1248
aS'really need start tanning working again\xe2\x98\x80\xf0\x9f\x92\xaa toowhite outofshape looklikeaghost'
p1249
aS'lucky still transparent usual haha'
p1250
aS'agreeeed start tanning march'
p1251
aS'apicturethatdescribesyourlife'
p1252
aS'okay baby next week altar'
p1253
aS'guess ready work come monkey'
p1254
aS'swear weirdest dreams'
p1255
aS'shouldnt slept noon laid'
p1256
aS'nice everyone meet theyre fighting battle know nothing about\xe2\x80\x9d'
p1257
aS'dont believe anybody feels'
p1258
ag10
asS'2013_4'
p1259
(lp1260
S'teamnoah'
p1261
aS'sagittarius sign perception higher mind search wisdom comes experience'
p1262
aS'making todo list always write things already done cross feel little accomplished'
p1263
aS'dear weasley family thanks making cool sincerely gingers everywhere gingersolutions teamweasley'
p1264
aS'happy birthday pretty girl'
p1265
aS'matter wreckless soul takes baby save'
p1266
aS'finally baby sleeps wild maybe mommy rest'
p1267
ag10
aS'thankfully'
p1268
aS'sarcasm'
p1269
aS'folding 5039194901048292176 loads laundry watching'
p1270
aS'ladies wear leggings pants sorrynotsorry'
p1271
aS'always working\xf0\x9f\x99\x8f\xf0\x9f\x99\x8c\xf0\x9f\x91\x8d'
p1272
aS'hearts lucky sometimes sounds like wise person might sing song like'
p1273
aS'found missing clothes parents garage'
p1274
aS'movie night siblingbonding'
p1275
aS'sometimes hero'
p1276
aS'stuffed face hours work shift ended today full miserable'
p1277
aS'story life'
p1278
aS'stupid people really think seriously'
p1279
aS'free many yall retweet'
p1280
aS'dont people park like backwards cant even back driveway'
p1281
aS'thats heart'
p1282
aS'went wide awake'
p1283
aS'love'
p1284
aS'sagittarius accomplish others sign action\xe2\x80\x9d'
p1285
aS'promise okay'
p1286
aS'many cheeseburgers'
p1287
aS'kesha song\xf0\x9f\x91\x8c\xf0\x9f\x98\x83\xe2\x80\x9d'
p1288
aS'love emoji'
p1289
aS'loveeee'
p1290
aS'work today come'
p1291
aS'tested discover become true life right opened eyes'
p1292
aS'started season tonight addicted season laguna ordered tomorrow along season'
p1293
aS'mexican food sounds really good right'
p1294
aS'honestly emotionally invested lives reality stars judgeme'
p1295
aS'love means giving chances theres chances left give tree hill'
p1296
aS'pregnant happy ampamp lamar'
p1297
aS'kilted monkey'
p1298
aS'lesson literally always pissing somebody matter hope'
p1299
aS'tips lunch'
p1300
aS'always wait till last possible second alwaysrushing'
p1301
aS'watched whole first season laguna beach tonight needed asleep'
p1302
aS'actually love character prettylittleliars badboy'
p1303
aS'sorry going keep head beautiful'
p1304
aS'cant wait watch prettylittleliars tomorrow everyone freaking'
p1305
aS'found season laguna beach half price books winning'
p1306
aS'song earlier called please dont leave fits life perfectly'
p1307
aS'times hard yeah theyre makin crazy dont give babyyy'
p1308
aS'wanna thank thank bottom heart sleepless nights tearing apart'
p1309
aS'wonderful appointment today feeling happy'
p1310
aS'definitely sign right need'
p1311
aS'found doctor seeing christian uses biblical approaches practices also prays'
p1312
aS'headed rockwall'
p1313
ag10
aS'this\xf0\x9f\x99\x8c'
p1314
aS'accident finding'
p1315
ag10
aS'bedroom rearranged kitchen front bathroom savannahs room closet clean organized laundry done accomplished'
p1316
aS'sagittarius woman feisty\xe2\x80\x9d'
p1317
aS'head cant break heart'
p1318
aS'ghetto'
p1319
aS'grown woman calls work child provide'
p1320
aS'doesnt lasttweet'
p1321
aS'someones mother dont know called boss happened last week said fault'
p1322
aS'funny people call work fired something nothing youfailed hilarious dumb'
p1323
aS'love time year wanna know girl scout cookies diamonddiploma'
p1324
aS'flawed cleaning well seeing things swore'
p1325
aS'life aint always beautiful beautiful ride'
p1326
aS'battle colbie caillat'
p1327
asS'2013_7'
p1328
(lp1329
g10
aS'wish someone would kill buffet'
p1330
aS'time moving church morning'
p1331
aS'love theyre everywhere'
p1332
aS'benihana'
p1333
aS'cleaning house start chicken alfredo since work today'
p1334
aS'amazing'
p1335
aS'wearing whitegirlproblems\xe2\x80\x9d'
p1336
aS'almost positive lying'
p1337
aS'weighed scale said clue happened'
p1338
aS'hang'
p1339
aS'matter side savannah always ends needacaliking'
p1340
aS'loved thousand years love thousand'
p1341
aS'tired missing want right side'
p1342
aS'chinese takeout munchkin'
p1343
aS'didnt send flowers today'
p1344
aS'happy valentines favorite texan love bannah'
p1345
aS'love'
p1346
aS'you\xe2\x80\x99ll know you\xe2\x80\x99re grownup keep fifteen unnecessary pillows'
p1347
aS'girl scout cookies today whole minutes samoas fattweet'
p1348
aS'like music real loud real loud'
p1349
aS'cant wait forever much tell'
p1350
aS'miss'
p1351
aS'albino gross going healthy glow commerce valentines special gives free lotion'
p1352
aS'mardi gras party commerce tonight kilted monkey lots beer specials'
p1353
aS'bought mineee today'
p1354
aS'didnt hang first times asked chances answers changing\xf0\x9f\x98\x92 leavemealone'
p1355
aS'youre brave good luck barely without'
p1356
aS'anything sister'
p1357
aS'okay give savannah bath come'
p1358
aS'havent cant rent late fees peter savannah also cinderella movies'
p1359
aS'wanna share pizza movies want'
p1360
aS'bring lunch movies want'
p1361
aS'mardi gras parrrrty tonight monkey crawfish beer prizes'
p1362
aS'savior bless startedfromthebottom'
p1363
aS'love rain'
p1364
aS'forgot left work groceries baby asleep cant taco bell starving'
p1365
aS'specials food beer'
p1366
aS'mardi gras party tomorrow night kilted monkey mardi gras bock back well fresh crawfish live music'
p1367
aS'little brothers taller baby sister catching fast'
p1368
aS'watching peter stinky great double shift absolutely love daughter'
p1369
aS'racist people somewhere'
p1370
aS'early savannah tried jump didnt land quite wanted shes wiiiide awake \xf0\x9f\x98\xb3disney movie'
p1371
aS'roooonzzzzzo'
p1372
aS'worked double today work another tomorrow come monkey'
p1373
asS'2013_6'
p1374
(lp1375
S'good night work gonna rest tomorrow morning'
p1376
aS'people followed people unfollowed automatically checked'
p1377
aS'hate bored keep going instagram twitter facebook'
p1378
aS'shooting guns today mostly american'
p1379
aS'swear youre questioning existence music stores answer'
p1380
aS'move life time girl girls dont'
p1381
aS'days'
p1382
aS'sagittarius love freedom\xe2\x80\x9d'
p1383
aS'thanks drinking sleepy time wiff mommy savannah finally asleep love precious baby'
p1384
aS'wish someone would bring pepper'
p1385
aS'sagittarius bummed realize everyone open loving heart'
p1386
aS'crave pizza average times'
p1387
aS'next year like request justin timberlake perform bring nsync dirtypop superbowl'
p1388
aS'watching season laguna still love reminds much'
p1389
aS'dont know schedule doctors appointments wait wayyyyy later appointment time lobby'
p1390
aS'loving weather forecast next days'
p1391
aS'gosh thats crazy getting silhouettes flying savannahs name represent never grow'
p1392
aS'faaavvvvv disney movie ever'
p1393
aS'hearing something kills like fine'
p1394
aS'thankful bestfriend alwaysthere blessed hasmyback loyal real'
p1395
aS'cast anxiety cares peter blessed hecares verseoftheday'
p1396
aS'good\xf0\x9f\x92\x9e\xf0\x9f\x91\x8c'
p1397
aS'fought sleep morning shes fighting time shes screaming hour headache'
p1398
aS'hawaiian punch originally created cream topping'
p1399
aS'really need getting bathing baby rockwall kept'
p1400
aS'icantgoonedaywithout pepper'
p1401
aS'snuggling precious angel'
p1402
aS'episode watching'
p1403
aS'youre important fight keep life plain simple'
p1404
aS'thinkin\xe2\x80\x99 that\xe2\x80\x99s time dierksbentley'
p1405
aS'gentleman never goes style\xf0\x9f\x98\x98'
p1406
aS'realized forgot left work hungry'
p1407
aS'wanna mavs'
p1408
aS'chicken broth stuff canned section'
p1409
aS'always loved beyonce super bowl performance literally worship beyonceisgod'
p1410
aS'trust'
p1411
aS'beyonce boss walk everywhere'
p1412
aS'dude fresh prince going black along carlton'
p1413
aS'brain cant make faces everyone dreams youve seen real life point real'
p1414
aS'cause youre everywhere close eyes'
p1415
aS'need work tomorrow'
p1416
aS'download store deleted updated'
p1417
ag10
aS'taco bell commercial gtgtgtgtgt'
p1418
aS'heart dont want else dont want guess'
p1419
asS'2013_1'
p1420
(lp1421
S'good part waking read text msgs sent unconscious\xf0\x9f\x98\xb3\xf0\x9f\x98\x81\xf0\x9f\x98\x82'
p1422
aS'help right though'
p1423
aS'triple word double word tiles together thats'
p1424
aS'girrrrrl'
p1425
aS'people feelings people yoga relieve stress watch twilight'
p1426
aS'need right'
p1427
aS'retweet like pepper straight'
p1428
aS'spending cleaning house matter much never stays clean'
p1429
aS'followed'
p1430
aS'tonight baltimore soundstage'
p1431
aS'houses hogwarts taken elements earth fire water'
p1432
aS'falling even though know youre playing heart tomorrow might hell blakeshelton'
p1433
aS'girls immature little whinebuckets doiknowyou'
p1434
aS'awkward moment explain someone sarcastic'
p1435
aS'theres nothing hate waking freezing cold\xf0\x9f\x98\x95\xe2\x9d\x84'
p1436
aS'awkward moment hear something absolutely kills inside like youre fine'
p1437
aS'pretty sure dont believe shouldnt telling people hates church proven wrong'
p1438
ag10
ag10
aS'girl breaks someone truly loves doesnt make slut makes honest'
p1439
ag10
aS'love thanks coming'
p1440
aS'asleep\xf0\x9f\x98\x9e\xf0\x9f\x98\xa9 notokay'
p1441
aS'anything ever dream complete'
p1442
aS'nobody else level'
p1443
aS'howtoloseaguyin10days name penis lovethismovie'
p1444
ag10
aS'still coming tomorrow going sisters game'
p1445
aS'always forget tattoos happen'
p1446
aS'strawberries gtgt cherries'
p1447
aS'cant wait'
p1448
aS'zero dark thirty last night whoacrazy good spectacular performances brilliant director'
p1449
aS'someone play ruzzle meee kaylacs'
p1450
aS'costco meals worth food samples sorrynotsorry'
p1451
aS'answer every prayer offered notebook'
p1452
aS'sincewebeinghonest think lived past life sometime 1800s sure laura ingalls'
p1453
aS'beat ruzzle username kaylacs'
p1454
aS'ihaveseeneveryepisodeof charmed heaven bounty hunter duck dynasty walker texas ranger hills kuwtk secret life'
p1455
aS'ones love never really leave harry potter'
p1456
aS'like soul mates'
p1457
aS'ihaveseeneveryepisodeof meets world'
p1458
aS'george feeny greater aspiration loved lives matthews boymeetsworld'
p1459
aS'ihaveseeneveryepisodeof laguna beach'
p1460
ag10
aS'shes pounds ounces inches'
p1461
aS'year pounds ounces inches long'
p1462
aS'year'
p1463
aS'happy first birthday beautiful daughter savannah fayelynn mommy loves'
p1464
aS'youre college still start drama like youre high school wecantbefriends growup'
p1465
aS'youre always like name someone talks probably youre talking someone'
p1466
ag10
aS'coming savannahs party saturday'
p1467
aS'lonestarrrrrr cutie'
p1468
aS'bought target'
p1469
aS'agreed watched everyday week'
p1470
aS'guess rent sometime batman'
p1471
aS'never seen'
p1472
aS'funny burned hahaha'
p1473
aS'purple turbanltltltltltlt'
p1474
aS'told'
p1475
aS'cute'
p1476
aS'creepy professor purple head wrap'
p1477
aS'haha'
p1478
aS'lmao favorite'
p1479
aS'watching'
p1480
aS'harry potter goes pretty hard boredaf'
p1481
aS'hate seeing people eating alone'
p1482
aS'thought real'
p1483
aS'know livid'
p1484
aS'snows tonight might shoot'
p1485
aS'girlfriend dont tell clean house youre messing irritated'
p1486
aS'living room remodeled doesnt mean spit dips floor wish youd leave'
p1487
aS'hair today femalepains'
p1488
aS'someone come play hair love forever\xf0\x9f\x98\x8c\xe2\x9d\xa4'
p1489
aS'woke stomach growling like grizzly bear hungry'
p1490
aS'hate'
p1491
aS'chocolate covered strawberries would perfect right soyummy myfave'
p1492
aS'come meet tell sorry dont know lovely find tell need tell apart'
p1493
aS'tweetyourfear missed calls'
p1494
aS'storybehindmyscar shot pretty freak accident lived tell story imasurvivor destiny'
p1495
aS'think tape worm always hungry fatasstweet'
p1496
aS'juan pablos never'
p1497
aS'emojis emotions'
p1498
aS'storybehindmyscar wrestled bear naked'
p1499
aS'hello'
p1500
aS'miss sweet girl\xe2\x98\xba\xf0\x9f\x98\x98'
p1501
aS'miss'
p1502
aS'come conclusion impossible look attractive sickly'
p1503
ag10
aS'drive greenville worst'
p1504
aS'storybehindmyscar years accident seatbelt ruptured small intestines'
p1505
aS'watch'
p1506
aS'sooo dreams would come true would follow'
p1507
aS'twitter annoying addicting time sadday'
p1508
aS'would forget world'
p1509
aS'drop ocean change weather praying might together\xf0\x9f\x92\xa6\xf0\x9f\x92\x98\xf0\x9f\x8e\xb5'
p1510
aS'hahaha hahaha'
p1511
aS'queso proof loves'
p1512
aS'know youre talking wanted clarify people hurt someone doesnt text back'
p1513
aS'sorry texting back birthday shopping baby'
p1514
aS'slow textersltltltlt annoyingthings'
p1515
aS'world kept spinning youre long forgiven youre living back heart'
p1516
aS'tears reached part live deep inside heart timmcgraw'
p1517
ag10
aS'sucks wanna sleep body never lets came home hours every intention sleeping'
p1518
aS'insomniac'
p1519
aS'ever sleep love youre always online'
p1520
ag10
aS'aaaannnndddd hate shaving'
p1521
aS'hatedddd'
p1522
aS'cant together expect dress twice week thats pushing'
p1523
aS'larret duffer singing never getting back togethergtgt'
p1524
aS'full house still legit show'
p1525
aS'well sucked'
p1526
aS'know need plan trip soon'
p1527
aS'guess kanye finish'
p1528
aS'waiting flat fixed impatient hungry'
p1529
aS'dear cousin married family acceptable holiday dress like whore halloween time'
p1530
ag10
aS'commerce policedont fuck'
p1531
aS'wait 2013'
p1532
aS'booking flights dallas'
p1533
aS'watching addams family thats missing'
p1534
aS'fuck bitch'
p1535
aS'give great advice comes situations'
p1536
aS'first thing going years fake people life goodbye haveagoodlife'
p1537
aS'keep moving forward dont give shit anybody thinks johnny depp 2012hastaughtme'
p1538
aS'mind blowing amazing'
p1539
aS'cause dont love youll ocean front property arizona'
p1540
aS'doesnt make mistakes trust someone ends past theyre reason'
p1541
aS'loved'
p1542
aS'remember going divorce'
p1543
aS'hate wearing socks step floor thats nobueno'
p1544
aS'know best texter hate waiting text doesnt come'
p1545
aS'maybe blind optimism blame school'
p1546
aS'ilearnedin2012 leggings sweaters comfy clothes wear'
p1547
aS'must learn limits something none everything blaise pascal'
p1548
aS'words bentley real years laughs uncontrollable'
p1549
aS'dollar every bobby lost rich bitch\xe2\x80\x9d\xf0\x9f\x98\x82\xf0\x9f\x98\x82\xf0\x9f\x98\x82'
p1550
ag10
aS'doctor lawyer senator\xe2\x80\x99s brad pitts brother kennychesney'
p1551
aS'affliction'
p1552
aS'eminem goes hard wish white baller status level'
p1553
aS'payed medical bill'
p1554
aS'tweetyourrecentemojis'
p1555
aS'bentley going make noise midnight'
p1556
aS'reserve seat tickets tonight billy bobs texasthe last wants first respond'
p1557
aS'tomyex happy year'
p1558
aS'people followed people unfollowed automatically checked'
p1559
aS'everything coming maybe means theres beginning'
p1560
aS'in2013 damn make lifestyle changes'
p1561
aS'parents said know made good argument'
p1562
aS'something doesnt need said'
p1563
aS'lakefork everyday tats piercings'
p1564
aS'said beyond blue neon cause gone girl outta blue clear shed gotten good goodbye'
p1565
aS'eric really know baby showers cory never even heard boymeetsworld'
p1566
aS'dear wine thank never disappointing like tony romo'
p1567
aS'plans years guess stay night long'
p1568
aS'christmas life'
p1569
aS'maybe maci'
p1570
aS'4000th tweet shout favorite teen ginger love definitely look'
p1571
aS'dont know grown dont timmcgraw'
p1572
aS'inching around square million stop signs sstxprobs'
p1573
aS'haha sounds like blast'
p1574
aS'deallllll'
p1575
aS'best2012memories kayne tweeted deleted right'
p1576
aS'ifihadamillion would definitely rides flags'
p1577
aS'real shit 2012 year opened eyes never trust anyone'
p1578
aS'want yeahs booty'
p1579
aS'ready duckdynastyseason3'
p1580
asS'2013_3'
p1581
(lp1582
S'looking song thats radio download heaven labelmate'
p1583
aS'faith belief something know thats good book said'
p1584
aS'hate letting things best'
p1585
ag10
aS'prayers prayers prayers'
p1586
aS'risk always take'
p1587
aS'champions make happen'
p1588
aS'believe gave'
p1589
ag10
aS'hobby lobby jordan bannah'
p1590
aS'selfish last days realized much need grow change life never appreciated enough'
p1591
aS'works provide home family pays bills puts school full time'
p1592
aS'looking back never gave kody enough credit done busy focusing negative honestly lucky'
p1593
aS'maybe work things maybe dont least look baby girl eyes tried'
p1594
aS'people stupid dont care anymore nothing comes easy life work hard something believe'
p1595
aS'said wanna everything last years brought love kody miles heart'
p1596
aS'found truth knowing never know much depend someone theyre gone never take anyone love granted ever'
p1597
aS'wrong tonight gonna city lights cause sure hell beats lying wishin mind'
p1598
aS'zerodarkthirty'
p1599
aS'hard time finally found real friends exerting useless people anymore'
p1600
aS'gods hands'
p1601
aS'tonight'
p1602
aS'people spell definitely like defiantly defiantly complete different word'
p1603
aS'love'
p1604
aS'need lots lots prayers send message facebook'
p1605
aS'thinking thats thats time'
p1606
aS'please continue praying angel'
p1607
aS'without baby youre still lonely mind think baby dream time'
p1608
aS'drive truck roll every window burn every back road town idriveyourtruck'
p1609
aS'dozens people followed people unfollowed automatically checked'
p1610
aS'good hard time finding love every second please continue praying'
p1611
aS'guns roses story life'
p1612
aS'eating first time days feeling less nauseated'
p1613
aS'gotta clear conscience beef resentment thing forgive'
p1614
aS'lifeeee'
p1615
aS'love'
p1616
aS'work hour half lord help'
p1617
aS'youre grammarpolice'
p1618
aS'happy birthday madalyne kate mommy loves much babygirl\xe2\x9d\xa4\xf0\x9f\x8e\x89\xf0\x9f\x8e\x8a\xf0\x9f\x8e\x81\xf0\x9f\x8e\x88 birthdaygirl'
p1619
aS'thank everyone sweet messages phone calls last night helped please continue pray bannah'
p1620
aS'please keep praying savannah isnt going easy deal'
p1621
aS'night finally fell asleep night'
p1622
aS'whathurtsthemost watching someone walk life able anything'
p1623
aS'thanks love'
p1624
aS'thank hard strong tonight'
p1625
aS'need someone come spend night tell gonna okay'
p1626
aS'prayers whatever need'
p1627
aS'love sweetheart'
p1628
aS'please pray sweet baby girl evening tonight rough night'
p1629
aS'kids keep going back forth crying soon stops another starts time rough today'
p1630
aS'really need start getting house nolife homebody'
p1631
ag10
aS'dont youre sorry wont told love song'
p1632
aS'halter thuglife'
p1633
aS'dear future husband fight wanna dramatic throw plate cute sincerely future physco wife'
p1634
aS'live constant fear belly button ring getting ripped option'
p1635
aS'tiny stand cold'
p1636
aS'always hungry love food annoying'
p1637
aS'part django couldnt masks ampamp arguing dude'
p1638
aS'want cream'
p1639
aS'hoping semester away junior'
p1640
aS'scared wont back better caring failing everything needed break semester'
p1641
aS'take break cause sick'
p1642
aS'remember vividly'
p1643
aS'loser'
p1644
ag10
aS'lmao'
p1645
aS'love talking people understand'
p1646
aS'always miracle makes life complete long theres breath make'
p1647
aS'tweetadateyouwontforget january 2012'
p1648
aS'watched last nights episode fatalencounters murdered emotional'
p1649
aS'thought know tried best dont want gotta know'
p1650
aS'dont know fine cause dont know make feeling stop'
p1651
aS'always good kids'
p1652
aS'shotgun rider back'
p1653
aS'dime every time stater asked rode horse school sorryimtexan'
p1654
aS'teamcurtis\xe2\x9d\xa4\xf0\x9f\x98\x98'
p1655
aS'team dirty curtiee\xf0\x9f\x98\x98\xe2\x9d\xa4'
p1656
aS'dont emojis hard time texting'
p1657
aS'school semester bittersweet'
p1658
aS'jake missing hours jumped fence thunderstorms praying someone found cold'
p1659
aS'kiss youre drunk'
p1660
aS'ever wish second chance meet someone first time'
p1661
aS'need another tattoo again\xf0\x9f\x98\x81 addicted'
p1662
aS'dont text back least decide reply even though really want'
p1663
aS'pisses people tweet dont text'
p1664
aS'wanna talk'
p1665
aS'easy caught materialistic thinking focus humanitarian collect'
p1666
aS'confused right heart hurts honesttweet'
p1667
aS'ihaveathingfor sweatpants messy hair makeup'
p1668
aS'dream become rich dads hospital bills parents debt'
p1669
aS'bouta watch looper lonesome'
p1670
aS'awkward moment make harry potter reference none muggle friends'
p1671
aS'would change everything happy ever caught beautiful disaster needs someone take home'
p1672
asS'2013_2'
p1673
(lp1674
S'dipping nasty personally think opinion though'
p1675
aS'dear oomf lets date never break'
p1676
aS'swear ryan gosling carved angels'
p1677
aS'efron could punch face would thank'
p1678
aS'either lived farm wished jesus always walked close side lukebryan'
p1679
aS'awake going back love'
p1680
aS'play turn dangit'
p1681
aS'food would definitely make dance right sohungry'
p1682
aS'happy'
p1683
aS'lmao girl crack'
p1684
aS'keep head girl breathe'
p1685
aS'heres letter real world dont expect youll reply anything youre gonna tell another'
p1686
aS'shes waving saying'
p1687
aS'realized dallas last night freakin missed'
p1688
aS'work made first days waitressing ever pretty proud'
p1689
aS'another early morning another work'
p1690
aS'yeah like dayum baby dayum baby dayum yeah wanna take home turn know cause swear'
p1691
aS'sometimes remember ones wrong long'
p1692
aS'mommys home work'
p1693
aS'grits gingers raised south'
p1694
aS'degrees take'
p1695
aS'great first work'
p1696
aS'thank'
p1697
aS'first work super nervous'
p1698
aS'know lies always told love never knew blackballoon'
p1699
aS'youtube watch iris live buffalo best live performance ever'
p1700
aS'excuse tweets perfectly'
p1701
aS'dont want world cause dont think theyd understand\xf0\x9f\x8e\xb5\xf0\x9f\x8e\xb6\xf0\x9f\x8e\xb5 googoodolls happyfriday'
p1702
aS'taught hiding desk would save nuclear explosions'
p1703
aS'head tonightomg'
p1704
aS'dont wanna miss tonight'
p1705
aS'first work tomorrow'
p1706
aS'long drive tofrom dallas today mias last minute visit blessed miss going'
p1707
aS'tried midnight turned laying staring thinking lookin twittaaa'
p1708
aS'exactly feel people'
p1709
aS'maybe make soul would prettier thats highly doubtful'
p1710
aS'awesome going juan blows'
p1711
aS'going sleep'
p1712
aS'lmao boring'
p1713
aS'going sleep spent hours braking concrete fence posts funaf tired'
p1714
aS'going'
p1715
aS'paid belly button ring'
p1716
aS'honestly dont deal michael kors'
p1717
aS'listenin school metamorphosis album comeclean soyesterday themath hilaryduff'
p1718
aS'youre gonna play texas'
p1719
aS'city hall'
p1720
aS'yall eating'
p1721
aS'need sister bonding time\xf0\x9f\x91\xad\xf0\x9f\x92\x99'
p1722
aS'didnt answer collins call eating lunch commerce tried invite'
p1723
aS'calm busy texted dont money meet yall tonight'
p1724
aS'found school seshhhhh'
p1725
aS'agreed soon'
p1726
aS'beautiful'
p1727
aS'conversations brother'
p1728
ag10
aS'like dayum baby dayum baby dayum'
p1729
aS'eliyoungbandgtgtgt'
p1730
aS'prison gates wont open hands knees crawl reach'
p1731
aS'gtgt'
p1732
aS'miss needta hang'
p1733
aS'love miss youuuu'
p1734
aS'love seester'
p1735
aS'youre funny'
p1736
aS'come cuddle'
p1737
aS'want chocolate covered strawberries pleasepleaseplease'
p1738
aS'entertain'
p1739
aS'cookin salisbury steak onion gravy dinter'
p1740
aS'thanks love'
p1741
aS'certification'
p1742
aS'amazing food'
p1743
aS'thats gonna working commerce'
p1744
aS'yeah come kilted monkey'
p1745
aS'many jobs gonna damn interviewed trying bartender'
p1746
aS'already monday interview better yesterday tabc'
p1747
aS'getting tabc certified'
p1748
aS'mine curled hair today'
p1749
aS'moms'
p1750
aS'dunno curled hair weather girlprobz'
p1751
aS'good sister today'
p1752
aS'meet'
p1753
aS'prolly around noon'
p1754
aS'starts 1215'
p1755
aS'gonna today wiff brothers'
p1756
aS'sent office working something told hays said stupid'
p1757
aS'going'
p1758
aS'always laughed artwork cause sucked good drawing whole semester'
p1759
aS'harris hated class always picking brother wouldnt loved reason'
p1760
aS'always wonder times still cross mind'
p1761
aS'dolls pandora station lifehouse variety perfection'
p1762
aS'dont tell gone crazy still strung jasonaldean'
p1763
aS'lights next town cant slow'
p1764
aS'barely went knutson hated class never anything'
p1765
aS'always missed period days week sometimes second lazy overslept highschoolsucks'
p1766
aS'lieutenant'
p1767
aS'wide awake'
p1768
aS'found scared know always mind'
p1769
aS'youre barely wakennnn tangled loveit'
p1770
aS'wanna play catchphrase'
p1771
aS'tequila make craaazy like poison blood'
p1772
aS'yayay'
p1773
aS'homeschool hang wiff'
p1774
aS'bought tickets dolls would probably marry right'
p1775
aS'thought baxley going'
p1776
ag10
aS'obviously'
p1777
aS'funny video need hang'
p1778
aS'sense little hostility'
p1779
aS'feel left'
p1780
aS'tell'
p1781
aS'even mean'
p1782
ag10
aS'yeah losers'
p1783
aS'cutforbieber joke losers nothing better time stop trying'
p1784
aS'lion king trendin love damn movie scahisabahstahd'
p1785
aS'always plan going sleep decent hour cause exhausted body says'
p1786
aS'drunk soda lifeee'
p1787
aS'damn maddox left excited literally pissed knocked glass'
p1788
aS'lmao'
p1789
aS'uhhh'
p1790
aS'thats kids today savannah dumped bucket primer'
p1791
aS'feel nephews wrath mercy house toys everywhere always needs shit'
p1792
aS'need housewife'
p1793
aS'time grow wanna sleep collin mayeux weeks'
p1794
aS'sleeps night thank like constant tornado going house'
p1795
aS'sleep baby'
p1796
aS'sleeps till goes sleep baxleylogic'
p1797
aS'someones lazy aint even 1030'
p1798
aS'always good friend someone even dont'
p1799
aS'feel left haha'
p1800
aS'awhhhh text haha'
p1801
aS'harry potter'
p1802
aS'suck texting'
p1803
aS'dont wild buuuut'
p1804
aS'whatchuuuu'
p1805
aS'think bottle brown paper sack don\xe2\x80\x99t know jack lukebryan'
p1806
aS'dispatchinnnnn'
p1807
ag10
aS'university police department'
p1808
aS'love horses know anddd chased cows laying pasture'
p1809
aS'haha'
p1810
aS'favvvvvv'
p1811
aS'interview even though yesterday'
p1812
ag10
aS'feeny stupid idea train hear coming round bend choochoo boymeetsworld'
p1813
aS'like aretha franklin dont rspect round joint duckdynasty sirobertson\xe2\x80\x9d'
p1814
aS'like dogs cats andddd whales'
p1815
aS'barely heard today'
p1816
ag10
aS'like kitty cats'
p1817
aS'love quoteoftheday audreyhepburn'
p1818
ag10
ag10
ag10
aS'love like noah make feel wanted like hunter'
p1819
aS'mysterious dark side mooooooon'
p1820
aS'dumbb'
p1821
aS'parents'
p1822
aS'thats'
p1823
aS'sleep deprived choose clean whatswrongwithme'
p1824
aS'dont impress much shaniatwain'
p1825
aS'pretty little liars less hours'
p1826
aS'parents twitter unfollowed'
p1827
aS'cuttingforbeiber aint nobody time'
p1828
aS'account twitter last night love'
p1829
aS'done interview folding laundry'
p1830
aS'interview'
p1831
aS'sooooo exited prettylittleliars'
p1832
aS'prettylittleliars marathon hear favorite words previouslyonprettylittleliars'
p1833
aS'pale today pale yesterday pale tomorrow gingerproblems'
p1834
aS'arrivedall episodes start tonight excited enjoy know thoughts'
p1835
aS'come living room today'
p1836
aS'pretty little liars returns tonight 8pm7c youll watching'
p1837
ag10
aS'dying right'
p1838
aS'something would lmfao true everybod'
p1839
aS'need waiter bring food kind pulley system deepthoughts'
p1840
aS'something would'
p1841
aS'brunettes hair blonde start tweeting blondegirlproblems stop'
p1842
aS'forgot saying'
p1843
aS'less hours hear best five words ever previously pretty little liars'
p1844
aS'time tomorrow likely still freaking prettylittleliars premiere'
p1845
aS'front seat'
p1846
aS'sorry wakes baby going castrate spoon'
p1847
aS'bestest friend coming'
p1848
aS'dyin laughin'
p1849
aS'wanna'
p1850
aS'love'
p1851
aS'anyone knew looked home sick dont feel good would negative amount friends'
p1852
ag10
aS'people make sleep outsideltlt'
p1853
ag10
aS'1500 tweet goes'
p1854
aS'snapchat kaylacs'
p1855
aS'love seeing girls different sweetheart 1000 girls lines youre another game'
p1856
aS'liam neeson trained batman darth vader aslan zeus\xe2\x80\xa6and punches wolves would'
p1857
aS'pretty sure could live chips queso'
p1858
aS'hope sometimes wonder bout'
p1859
aS'still commerce havent seen 4728194749101302 years'
p1860
aS'pibb sucks like sodas education like pepperd'
p1861
aS'take'
p1862
aS'breakfast lurnchhh'
p1863
aS'django unchained great'
p1864
aS'good luckkkkk'
p1865
aS'keep pretty head'
p1866
aS'fried taters deer steak'
p1867
aS'early excited appt pregnant'
p1868
aS'lifes lesson'
p1869
aS'looking back wish never moved graduate people grown think woulda better senior year'
p1870
aS'pretty sure 1147 minutes'
p1871
aS'halter went hammer'
p1872
aS'wish could back good days chuck cheese recess teacher every year'
p1873
aS'fridge'
p1874
aS'hotties much shorter'
p1875
aS'sweets make sick damn cake fridge needs eaten lmao'
p1876
aS'screw'
p1877
aS'birfffday cake'
p1878
ag10
aS'ruzzle know real'
p1879
aS'honey boos mother boyfriend youre single sink'
p1880
aS'shut dont talking'
p1881
aS'iphonesgtgtgtgtgt'
p1882
aS'text meeee'
p1883
aS'sleepin wiff mommy tonight'
p1884
aS'hate trust someone realize much lying truth comes little time whiteliar'
p1885
ag10
aS'appts'
p1886
ag10
aS'tossing turning getting really'
p1887
aS'story life'
p1888
aS'oomf'
p1889
aS'facebook hoes complain hoes hoes'
p1890
aS'belong belong youre sweetheart'
p1891
ag10
aS'youll 1500 2000 promise'
p1892
aS'better 1500 since wasnt first 2013'
p1893
ag10
aS'tweetyournicknames prissy diddle christine sissy'
p1894
aS'please come play watch movies midnight snack make clean room cruise around backroa'
p1895
aS'think fixed'
p1896
aS'dont think week'
p1897
aS'breaks heart seeing people upset especially ones love'
p1898
aS'dont judge someone shoes dont know shit'
p1899
aS'girl crazy'
p1900
aS'made vommit mouththat shit nasty'
p1901
aS'unlimited gift card forever life'
p1902
aS'happens year crackers'
p1903
aS'send kissy face emoji soiknowitsreal'
p1904
aS'favorite pair miss missing others accounted except favs firstworldprobz'
p1905
aS'appt'
p1906
aS'back'
p1907
aS'going judge'
p1908
ag10
aS'hate good'
p1909
aS'know playing'
p1910
aS'scroggs'
p1911
aS'look class'
p1912
aS'yeah baxley jumped dick real good'
p1913
aS'guess nice dick'
p1914
aS'remember suck'
p1915
aS'didnt know lost haha'
p1916
aS'glasses'
p1917
aS'student always nice gave second chances essays'
p1918
aS'difference'
p1919
aS'gonna chime love curtis hated class'
p1920
aS'made lmao emoji laughing'
p1921
aS'cant help thanks understanding sightchallengedprobz'
p1922
aS'blind okay forgive'
p1923
aS'tears'
p1924
ag10
asS'2013_9'
p1925
(lp1926
S'takes magical place nerdalert'
p1927
aS'alllll time love'
p1928
aS'harry potter marathon\xe2\x98\x91 greatseries twilightsaganext'
p1929
aS'hours since'
p1930
aS'working double today'
p1931
aS'texasindepen'
p1932
aS'miss stinky hate stays night places'
p1933
aS'today really need texas flag emoji sorryimtexan'
p1934
aS'cant handle ginger fits worth time gingerproblems\xe2\x80\x9d'
p1935
aS'past past doesnt benefit future lets move'
p1936
aS'called'
p1937
aS'chilis getting bannahs easter dress work'
p1938
aS'happy texas independence star flag waving like calling home bless texas'
p1939
aS'watched bdp2 time sleep tomorrow'
p1940
aS'maam'
p1941
ag10
aS'want inkkkk'
p1942
aS'sagittarius hates hanging around waiting things'
p1943
aS'stay midnight every night problem night breaking dawn part released fighting keep eyes open'
p1944
aS'wasnt beautiful believed everything everybody believed lovethissong tswift'
p1945
aS'miss miss'
p1946
aS'matter much sleep still exhausted work'
p1947
aS'eyes looking super blue today\xf0\x9f\x92\x99'
p1948
aS'goodnight world'
p1949
aS'cant wait'
p1950
aS'miss'
p1951
aS'forgot shave legs lmao'
p1952
aS'pedicures baby sister'
p1953
aS'even fall flat face youre still moving forward victor kiam'
p1954
aS'dont stop retweeting'
p1955
aS'better things ahead leave behind'
p1956
aS'think sisters real'
p1957
aS'think separated birth problem'
p1958
aS'igetmad help people take offensively'
p1959
aS'every time check lines crazy long lane opens always people back line'
p1960
aS'kids'
p1961
aS'swear could watch jennifer lawrence videos pretty sure shes celebrity shall'
p1962
aS'loves life'
p1963
aS'shot calla'
p1964
aS'work tomorrow enjoyed week'
p1965
aS'cant wait browwwn ilovetanning'
p1966
aS'hate people especially look'
p1967
aS'tanning made'
p1968
aS'wont ltltltltlt yall join weekly group discuss awesome'
p1969
aS'hitler kill becausee jews sent bill\xf0\x9f\x98\x82\xf0\x9f\x98\x82\xf0\x9f\x98\x82\xf0\x9f\x98\x82'
p1970
aS'wander fiction look truth buried beneath lies stood distance feel'
p1971
aS'redoing messy look perfectly messy lifeofabarbie'
p1972
aS'jennifer lawrence become best friends girlcrush'
p1973
aS'marriage like like house lightbulb burns dont house'
p1974
aS'could hide beside maybe wont tell namee'
p1975
aS'still think princess diaries anne hathaways best work qualitymovies'
p1976
aS'sagittarius sweetest person piss'
p1977
aS'bellatrix singing oscars2013'
p1978
asS'2013_8'
p1979
(lp1980
S'name junie jones stands beatrice except don\xe2\x80\x99t like beatrice like that\xe2\x80\x99s'
p1981
ag10
aS'make want legitimately excited great powerful'
p1982
aS'yeah work almost everyday tonight'
p1983
aS'kilted monkey'
p1984
ag10
aS'cousin sell work really popular'
p1985
aS'tried zombie'
p1986
aS'great night work came home sick baby girl throwing shes extra snuggly tonight love circumstance'
p1987
aS'glad sticker mark remind white'
p1988
aS'going tomorrow slowly surely getting dark'
p1989
aS'hallowed heart heavy chest hopeless youre hopeless'
p1990
aS'work hours hopefully another night'
p1991
ag10
aS'buckle'
p1992
ag10
aS'love fitzgerald'
p1993
aS'harrypotterpickuplines'
p1994
aS'gone worse'
p1995
aS'sagittarius social creatures like part circles content small grou'
p1996
aS'need juan pablos life'
p1997
aS'crummy reread story time last night'
p1998
aS'cook spaghetti chicken alfredo'
p1999
aS'wrist left knee sprained right knee strained life'
p2000
aS'appt doctor isnt even office'
p2001
aS'doctor time'
p2002
aS'doctor tomorrow maybe figure crippled fixed'
p2003
aS'havent laughed much forever'
p2004
aS'legit tears pouring eyes right'
p2005
aS'dying'
p2006
aS'ericas wizzin guys'
p2007
aS'ericas tweets exroomate'
p2008
aS'rolling right keep comin'
p2009
aS'hours sleep even savannah asleep drains'
p2010
aS'feel like never sleep'
p2011
aS'hide crazy start actin like laaadyyy'
p2012
aS'thats bueno'
p2013
aS'dozed minutes wide awake insomnia'
p2014
aS'itll summer'
p2015
aS'claire'
p2016
aS'approximately childs intelligence acquired mother'
p2017
aS'dont keep falling like sure cool'
p2018
aS'thankkkk'
p2019
aS'youre lucky back problems shirts dont right wear'
p2020
aS'step'
p2021
aS'agree erica would prefer smaller'
p2022
aS'wish'
p2023
aS'going sister tomorrow clairechristine'
p2024
ag10
asS'2013_17'
p2025
(lp2026
S'lizzie mcguire perfect'
p2027
aS'rangers whoopin thocheers hamilton texas'
p2028
aS'baby crash party anytime'
p2029
aS'look brown eyes suddenly heart cant tell'
p2030
asS'2012_52'
p2031
(lp2032
S'cant wait baby missed much'
p2033
aS'cleaning uncles house'
p2034
aS'sorry need talk'
p2035
aS'omggggg'
p2036
aS'youre worthless dont ever anyone make feel youre beautiful strong side'
p2037
aS'songsthatwillnevergetold almost song eminem'
p2038
aS'always late night munchies lazy food'
p2039
aS'gets skin like tattoo shell always jasonaldean\xe2\x80\x9d'
p2040
aS'wish would people tweets guessiwillfavorite'
p2041
aS'going sleep instead googling jamie lynn spears knew'
p2042
aS'noticed'
p2043
aS'yeah cancel zoey'
p2044
aS'always twitter late ishouldprollygetsomesleep'
p2045
aS'babys black balloon makes'
p2046
aS'songsthatwillnevergetold aint sayin gold digger aint messin broke nigguhs\xe2\x9c\x8c\xf0\x9f\x92\xb0'
p2047
aS'story lifeee'
p2048
aS'cant sleep might well tweet teamnosleep'
p2049
aS'youknowyourewhitewhen look mirror youre white'
p2050
aS'post lyrics tswift forlifeee'
p2051
aS'plan attending show monday billy bobs texasshare poster status'
p2052
aS'songsthatwillnevergetold collide'
p2053
aS'songsthatwillnevergetold iris dolls'
p2054
aS'finding smalltownproblems'
p2055
aS'people assume youre cheating youre anyone else smalltownproblems'
p2056
aS'lyricsyouliketoscream dont stop believing journey'
p2057
aS'suga suga flllllllly'
p2058
aS'almost already mommyproblems'
p2059
aS'tweetlyricsyouliketoscream weeeee eeeeee never ever ever getting back together'
p2060
aS'never even knew'
p2061
aS'jenelle drama queen haha'
p2062
aS'medical bills killing'
p2063
aS'duckdynastyseason3 march jack'
p2064
aS'ahhh shes sooo precious'
p2065
aS'awkward moment start test cant even answer first question\xe2\x80\x9d'
p2066
aS'know said wanted coke really means want pepper sorryimtexan'
p2067
aS'alright pumpkin gonna take shower quick pumpkin child aubree'
p2068
aS'people understand wanting unique name really getting hand'
p2069
aS'needs reported deleteddd asap'
p2070
aS'cancer isnt'
p2071
aS'wonder good certain people would words friends didnt cheat resigned'
p2072
aS'brother sweet grandparents town east mall thursday'
p2073
aS'happened'
p2074
aS'tomorrow'
p2075
aS'havent'
p2076
aS'incapable loving anyone else love'
p2077
aS'wish efron would bring frappucino right'
p2078
aS'people love insulting people dont anymore'
p2079
aS'would lieee youre mind'
p2080
aS'takes faith trust little pixie dust peter'
p2081
aS'whoever started kidzbop punched face repeatedly'
p2082
aS'yall cute'
p2083
aS'yeah especially since chose jail hope leah gets life know gary full custody'
p2084
aS'awful dont even wanna start amber'
p2085
ag10
aS'gotcha hate face cried dying thinking'
p2086
aS'swim swim swim'
p2087
aS'exactly love keep updated lmao truefans'
p2088
aS'amennnn stalk twitters hate farrah much'
p2089
aS'know cried ryan macis problems parents gonna fight'
p2090
aS'well ryan proposed dayamp theyve hanging fingers crossed though love hated dalis'
p2091
aS'love swear gonna back together'
p2092
aS'want theyre brandon used think macis twinnnn'
p2093
aS'obsessed teen lmao\xe2\x80\x9d jenelle ryans earlier week'
p2094
aS'disney channel stop making shows replay ones'
p2095
aS'heart gingers'
p2096
aS'retweeted role'
p2097
aS'thankful goes every night gets drunk theres life partying child priority'
p2098
aS'babsquotes wiff keiffah sleep cawr wiff boyfrennn'
p2099
aS'heard song jason aldean featuring ludacris pandora station pandora doesnt quite unders'
p2100
aS'dont know want everything alright keep dancin like'
p2101
aS'person used admit shit'
p2102
aS'scientists found redheaded people immune skin cancers'
p2103
aS'hardy played bane used inch heels height christian bale played batman could'
p2104
aS'watching bane snap necks dark night rises scares crap ouch batman'
p2105
aS'said done youre cant regret cant forget'
p2106
aS'youre wondering making effort never'
p2107
aS'dont believe anybody feels cause maybee youre gonna saves'
p2108
aS'since havent really home week clean house today much little time'
p2109
aS'night week spent wondering aisles walmart late night reason whatsoever'
p2110
aS'dont live house dont come telling need house needs'
p2111
aS'world nothing else true still tangled long since storyl'
p2112
aS'howtopissagirloff reply like asshole rhetorical questions'
p2113
aS'putting peoples business make look makes look worse'
p2114
aS'heres hint dont like someones tweets dont follow easier complaining'
p2115
aS'sour patch kids faaaavoritest'
p2116
aS'wouldve fine friend make would want fall neve'
p2117
aS'dark knight rises badass'
p2118
aS'show slightly water'
p2119
ag10
aS'love store suck picking clothes'
p2120
aS'love mimi'
p2121
aS'eating yummy fudge bentley brought yesterday'
p2122
aS'someone wanna forever tomorrow pick clothes legit inviteeee suck girl'
p2123
aS'heartbreak warfare'
p2124
aS'makes wanna sotrue'
p2125
aS'youre looking preppy aint kind want country girl type'
p2126
aS'love'
p2127
aS'getting christmas spirit grinch grumpycat dying'
p2128
aS'house shakes thunders oldhouseprobs'
p2129
aS'aint life forrealthough storm gotmyheartracing'
p2130
aS'kinda worried right gonna'
p2131
aS'back crazy realized retweeted favorited tweet crying love'
p2132
aS'ties someone name still mouth realize youre problem'
p2133
aS'watching grinch stole christmas'
p2134
aS'people stop thinking human stop meeting real people said meant'
p2135
aS'grinch'
p2136
aS'angel told snowbot true love waiting christmas'
p2137
aS'never regret things done wrong regret good things done wrong people'
p2138
aS'hate never dallas dreams meet shes role model gingers'
p2139
aS'transition jeans shorts heavenly\xf0\x9f\x98\x81'
p2140
aS'house deep cleaned laundry almost caught bathed baby bowl jambalaya productive'
p2141
asS'2012_50'
p2142
(lp2143
S'kids even dare throw tantrum whooping'
p2144
aS'head argue something gingerproblems\xe2\x80\x9d'
p2145
aS'somebody tell girl step plate wanna pitch mirandalambert'
p2146
aS'year noah pozner killed shooting angel'
p2147
aS'much shes stumbled shes running much runs shes still'
p2148
aS'jahaha alice wonderland'
p2149
aS'ahead warn followers like tweet grumpy pictures although hate cats sorrynotsorry'
p2150
aS'throw head back laughing like little think strange think funny cause'
p2151
asS'2012_51'
p2152
(lp2153
S'cleaning'
p2154
aS'daddy served army lost right flew flag yard'
p2155
aS'weakness care much'
p2156
aS'want season tweet wewanta3rdseasonofduckdynasty'
p2157
aS'putty'
p2158
aS'love band perrys song'
p2159
aS'dont concern things dont concern business dont make burden'
p2160
aS'world aintnobodygottimefathat'
p2161
aS'baked christmas stuff grandma wanna around fatty firstworldproblems'
p2162
aS'definitely christmas list like years'
p2163
aS'fact home friday night nothing first night break pityfull well'
p2164
aS'closed minded literally makes stupid people arent open understanding change lower'
p2165
aS'first she\xe2\x80\x99s gonna come strong like she\xe2\x80\x99ll love night long like going style she\xe2\x80\x99ll leav'
p2166
aS'hope mayans take keiffah'
p2167
aS'belong belong youre sweetheart'
p2168
aS'australia world'
p2169
aS'feel like arms gonna worst stupid weights'
p2170
aS'absolute perfection troublemanheavyisthehead'
p2171
aS'wish apple kind enough include hdmi cord apple silly thing works'
p2172
aS'think safe yoga kicked hurt'
p2173
aS'someone would bring white chocolate covered strawberries right would love forever'
p2174
aS'love storms'
p2175
aS'yoga class scared\xf0\x9f\x99\x80'
p2176
aS'retweet would rather hogwarts harvard'
p2177
aS'reminddddd meeeeee'
p2178
aS'cant wait meet jesus'
p2179
aS'first time wearing retainer months ltltltlt ouch painful'
p2180
aS'album troublemanheavyisthehead dropped today iloveti soexcited'
p2181
aS'dropped album troublemanheavyisthehead birthday deff going platinum'
p2182
aS'wanting someone knowing theyre never going want much ltltltlt'
p2183
aS'fool make baby takes raise child'
p2184
aS'blow dont piss ginger'
p2185
aS'stand disrespectful people come house start telling treating like dirt somewhere'
p2186
aS'text'
p2187
aS'youve never felt fire running veins youve never seen devil face face dont'
p2188
aS'said married money used wearing pearls always dreamed bein good boys'
p2189
aS'seem small knows might glad called mattkennon'
p2190
aS'close eyes matter zacbrownband'
p2191
aS'want burger midnightsnack fattyprobz'
p2192
aS'concerned character reputation character defines reputation merel'
p2193
aS'hide wife hide girl single'
p2194
aS'oldschool americanidiot greenday throwbacks'
p2195
asS'2013_37'
p2196
(lp2197
S'hate dont text back'
p2198
aS'babys black balloon makes'
p2199
aS'lose somewhere star dont make know life'
p2200
aS'parents station spent last minutes teaching snapchat'
p2201
aS'want meatloaf'
p2202
aS'theres selfish love theres love says love enough keep woul\xe2\x80\xa6'
p2203
aS'lied pictures instagram'
p2204
aS'love cant brothers football game without accused lying'
p2205
aS'honestly hate anyone vent'
p2206
aS'laying gettin ready work'
p2207
ag10
aS'twerk longer time\xe2\x80\x9d'
p2208
aS'youve ball youve chain tied tight'
p2209
aS'white iphone uggs yoga pants know song congratulations youre typical white girl\xe2\x80\x9d'
p2210
aS'savannah walked said momma bannah hungry shes freakin cute'
p2211
aS'lucky'
p2212
aS'doesnt pick duck duck goose side'
p2213
aS'chicken nugget lookin nigga\xe2\x80\x9d'
p2214
aS'absolutely love couldnt imagine life without sweet girl perfection'
p2215
aS'went check savannah told loved means world started smiling sleep'
p2216
aS'youre welcome'
p2217
aS'okay wont least want roses shoulder though'
p2218
aS'addicted birthday cant soon enough'
p2219
aS'sooo happy'
p2220
aS'thank okay today'
p2221
aS'really dont wanna work tonight even gonna attempt look decent'
p2222
ag10
aS'dont feel lonely running head'
p2223
aS'bitched every single morning'
p2224
aS'guess youve never heard asking'
p2225
aS'best thing world hearing baby love mommy'
p2226
aS'going good people surround brave enough keep weighing'
p2227
aS'thanks love'
p2228
aS'dont stress things cant control change'
p2229
ag10
aS'shake lotta people left around'
p2230
aS'neverforget\xe2\x80\x9d'
p2231
aS'know dont really love baby guess thats alright least moment rest life'
p2232
aS'whys gotta complicated really love someone'
p2233
aS'fortune teller said free thats came'
p2234
aS'amen miley'
p2235
aS'accurate'
p2236
aS'ios7 coming 18ththis trust issues'
p2237
aS'stood stood tall shell make fool'
p2238
aS'love song'
p2239
aS'didnt like maybe people would actually like'
p2240
aS'cant stand hypocrites youre christian stick nose think youre better everyone'
p2241
aS'right'
p2242
aS'want another tattoo'
p2243
aS'happy pretty good'
p2244
aS'today'
p2245
aS'either love country music youre wrong'
p2246
aS'dont rude'
p2247
aS'attention class'
p2248
aS'locked playroom wouldnt stay refrigerator shes trying climb'
p2249
aS'time ready already'
p2250
aS'seriously dont know without music'
p2251
aS'cause left made feel cheap cried rivers gained weight lost sleep well sorry dont feel sorry'
p2252
aS'know drunk words hell listen time even though theyre slurred'
p2253
aS'mates tryinta calm cause shoutin name town'
p2254
aS'little inappropriate apologize someone seriously asked ever slept kody seriously baby'
p2255
aS'hate catching feelings start twatching getting dont text back jealous shit cant'
p2256
aS'swear right ios7'
p2257
aS'middle school didnt screen shot mute'
p2258
ag10
aS'good maam'
p2259
aS'like pale girls youre gonna love life'
p2260
aS'matter occur life everyday like plus'
p2261
aS'know need anything'
p2262
aS'making pancake muffins bacon hello kitty cupcake liners princess breakfast week'
p2263
aS'lies'
p2264
aS'youve since april'
p2265
aS'hardest part watching baby grow little person wants independent tells away'
p2266
aS'ruined shirt shit'
p2267
ag10
aS'lmao name mike'
p2268
aS'worse nursing home come back every hoping youll today'
p2269
asS'2013_36'
p2270
(lp2271
S'theyre youre'
p2272
aS'theyre youre'
p2273
aS'stuckonyou love open stereo'
p2274
aS'faith gods greater plan'
p2275
aS'another baby asap thats'
p2276
aS'miss'
p2277
aS'blessed sweet baby loves read'
p2278
aS'finally mall'
p2279
aS'congratulations everything colby happy accomplishments'
p2280
aS'like youve smile less dress scarf real tight boys blood tonight'
p2281
aS'early dallas'
p2282
aS'don\xe2\x80\x99t feelings like really everything want fall love'
p2283
aS'much wood would woodchuck chuck woodchuck could chuck wood'
p2284
aS'theres weirdo miss lives worth'
p2285
aS'rude today didnt even tell'
p2286
aS'love nights work'
p2287
aS'nothing ruins realizing work hour'
p2288
aS'want pepper'
p2289
aS'kellans almost million followers lets celebrate chance shirt line team lutz'
p2290
aS'certain suspicions confirmed priceless'
p2291
aS'happy birthday hope great'
p2292
aS'arent perfect parents daughter sure hell loves'
p2293
aS'goes made raising parents wish people would head'
p2294
aS'dont need anyones permission approval comes decisions child unless'
p2295
aS'people need learn boundaries comes child kody parents'
p2296
ag10
aS'gorgeous like mama'
p2297
aS'fact katie said bannah gorgeous gtgt'
p2298
aS'thanks much'
p2299
aS'sweeeear crazy fans'
p2300
aS'sweet princess loves watching'
p2301
ag10
aS'marry'
p2302
aS'poor fireball champagne glass turn roger creager kiss till morning light'
p2303
aS'loveeee teenmom3'
p2304
aS'finally laying hopefully pain'
p2305
aS'cant wait show'
p2306
aS'looking forward work'
p2307
aS'thats great'
p2308
aS'little better'
p2309
aS'wish would come texas'
p2310
aS'dont waste time stressing people dislike problem talk bout'
p2311
aS'post something simple youre tagged still feel like bout thats problem'
p2312
ag10
aS'love karma'
p2313
ag10
aS'cant wait read'
p2314
aS'think angrier'
p2315
aS'made decision know itll work'
p2316
aS'maam'
p2317
aS'howd beat'
p2318
aS'like weeks'
p2319
aS'lucky still stuck'
p2320
aS'jammin cant wait live october openairstereo stuckonyou awesomejams'
p2321
aS'thank always talk'
p2322
aS'glad hear itll better promise prayer tonight'
p2323
aS'exactly love baby people think games youre responsible another persons life thats real'
p2324
aS'learned experience hard parenting youre married wait people wrap birth control'
p2325
aS'hope youre okay today'
p2326
aS'loving storm'
p2327
asS'2013_35'
p2328
(lp2329
S'best friend'
p2330
aS'panic'
p2331
aS'church morning'
p2332
aS'hahaha'
p2333
aS'watching thebirds classic'
p2334
aS'many dove honorable death today'
p2335
aS'adviceforgirls preach'
p2336
aS'everyones babies making cause baby gonna months'
p2337
aS'people watch language shit sorry'
p2338
aS'happy sunday make today great'
p2339
aS'openingday'
p2340
aS'hate person become want change life want happy make daughter proud'
p2341
aS'show dont need cause lord knows dont'
p2342
aS'isnt signed'
p2343
aS'gotta keep smile'
p2344
aS'sorry sucks'
p2345
aS'cant even remember last time cried'
p2346
aS'havent cared months happy time show little care screwed crying like baby'
p2347
aS'love pinterest'
p2348
aS'hate grocery shopping barely anything'
p2349
aS'almost years since lost came almost still gives nightmares lmao'
p2350
aS'prolly'
p2351
aS'even take'
p2352
aS'paying'
p2353
aS'prolly pretty sure coming town weekend'
p2354
aS'well forget'
p2355
ag10
aS'gonna tomorrow'
p2356
aS'whyididnttextyouback small butt\xe2\x80\x9d good thing mine isnt small'
p2357
aS'poor sick baby making shes fussy'
p2358
aS'used anymore'
p2359
aS'love rewatching since havent seen years'
p2360
aS'anyone season lost almost done season'
p2361
aS'brad pitt harrison ford john travolta johnny depp leonardo dicaprio cruise never oscars\xe2\x80\x9d'
p2362
aS'pregnant girl drinking wine'
p2363
aS'didnt know dope messes head'
p2364
aS'hate accused stuff nothing snort dope dude'
p2365
ag10
aS'bigbutts food pics instagram referring taking beautiful woman amazing dinner letting'
p2366
aS'stfu\xe2\x9c\x8b\xf0\x9f\x98\x92\xe2\x80\x9d'
p2367
aS'always something cant catch break'
p2368
aS'poor baby iphone finally cracked'
p2369
aS'people really need stay business wanna take picture come'
p2370
aS'world living today'
p2371
aS'miss sooooo much'
p2372
aS'come work tonight'
p2373
aS'kilted monkey'
p2374
aS'come work'
p2375
aS'thinking still think wren ezra following aria pissed back wishfulthinking ezra'
p2376
aS'started rewatching lost scared sleeping living room lights'
p2377
aS'seriously pissed someone ignores important text messages reply fast hell benefits'
p2378
aS'dick'
p2379
aS'hahaha'
p2380
aS'hope joke guess find october ezra'
p2381
aS'ezra fucking dare'
p2382
aS'right srsly prettylittleliars'
p2383
aS'sorry'
p2384
aS'tears ezra'
p2385
aS'whole life ruined ezra'
p2386
aS'ezra'
p2387
aS'guys here\xe2\x80\x99s piece ravenswoodreveal 1022 times give another'
p2388
aS'aria back ezra worldwara'
p2389
aS'getting real worldwara'
p2390
aS'please make store clothes wear show'
p2391
ag10
aS'shootin snakes pond'
p2392
aS'excited worldwara tonight love'
p2393
aS'doesnt hurry gonna walk home'
p2394
aS'sick negative people life isnt'
p2395
ag10
aS'made'
p2396
aS'everything small shit'
p2397
aS'okay'
p2398
aS'pizza chicken alfredo dinner shitty night work'
p2399
aS'hate alliance bank switching banks today'
p2400
aS'watched breaking dawn part 903917281918425th time'
p2401
aS'doesnt butt'
p2402
aS'dont give ducks hours sleep house nigga pure'
p2403
aS'cant sweat small shit'
p2404
aS'season tree hill sweet girls playing play room asleep room clean house many reasons blessed'
p2405
aS'miss college simply refund check sorry sorry'
p2406
aS'even miley evil cousin leanne'
p2407
aS'doooooo'
p2408
aS'cant break broken heart'
p2409
aS'couples saving spooning together total crock shit'
p2410
aS'moment'
p2411
aS'loved tonights episode hannah montana'
p2412
aS'high note'
p2413
aS'sing bruno'
p2414
aS'dont think could respect macklemore anymore already'
p2415
aS'macklemore miley haircut\xe2\x80\x9d\xf0\x9f\x98\x82'
p2416
aS'great macklemore performance vmas'
p2417
aS'love song macklemore ryanlewis'
p2418
aS'anybody dance little part best song ever'
p2419
aS'jtnsync performance changed life made better'
p2420
aS'macklemoreeeee'
p2421
aS'plot twist vmas actually justin timberlake concert'
p2422
aS'justin timberlake changed strip club white girls twerking actual show'
p2423
aS'vmas turned justin timberlake concert'
p2424
aS'thank justin timberlake making forget terrible miley cyrus robin thicke performance'
p2425
aS'matthew dylan'
p2426
aS'hell standing couch slow clapping damn grown dammit'
p2427
aS'vmas direction humiliate bands ever matter nsync backstre\xe2\x80\xa6'
p2428
aS'thats performance nsync fricken love life \xf0\x9f\x91\x8f\xf0\x9f\x91\x8f\xf0\x9f\x91\x8f\xf0\x9f\x91\x8f\xf0\x9f\x91\x8fvmas'
p2429
aS'justin timberlake perform rest night'
p2430
aS'dead'
p2431
aS'really love nsync though sohomo'
p2432
aS'screamiiiiiiiiiiiiiing nsyncccccccccc isuaefgosgubdhsvjhdfjfjkdsvbhfsbhbdfhsdjknsjkndjsvhdjh mtvvmas'
p2433
aS'dying thats band bitches nsync\xe2\x9d\xa4\xe2\x9d\xa4\xe2\x9d\xa4\xe2\x9d\xa4 vmas'
p2434
aS'life complete'
p2435
aS'died little nsync'
p2436
aS'nsync reunion'
p2437
aS'youre feeling personally victimized watching miley cyruss performance\xe2\x80\x9d love yeah'
p2438
asS'2013_34'
p2439
(lp2440
S'quit playing games heart damn'
p2441
aS'savannah going around saying sisssser pease momma probably baby girl'
p2442
aS'words generation'
p2443
aS'yeah well love'
p2444
aS'literally remember last time went clock actually said'
p2445
aS'thanks making night rich'
p2446
aS'twitter boyfriend coming commerce cant wait bigbutts october17'
p2447
aS'nsync reunite vmas thats capital letters thought never'
p2448
aS'love life also love doin camerah'
p2449
aS'take needles mouth shut never hear last silenceistheenemy'
p2450
aS'zoey101memories chase texted zoey saying love phone left fountain vibrated'
p2451
aS'honestyhour madly love even compares'
p2452
aS'truth dont talk'
p2453
aS'karma karma karma'
p2454
aS'stuck good times plus always back'
p2455
aS'dominos'
p2456
aS'arent married best instagram twitter relationship'
p2457
aS'love'
p2458
aS'love'
p2459
aS'called'
p2460
aS'yeah cause youre homewrecker'
p2461
aS'okay hopefully tires soon'
p2462
aS'late'
p2463
aS'come miss'
p2464
aS'fired whatcha need help'
p2465
aS'blowing tire week isnt good'
p2466
aS'soon afford tires'
p2467
aS'like butts like texas beautiful'
p2468
aS'want real opinion started drinking\xe2\x80\x9d lmao'
p2469
aS'wanted need somehow gone make everything better always'
p2470
aS'nsync going vmas guys finally meet person 5thgradedreams'
p2471
aS'went donut shop spent hungry dont judge'
p2472
aS'waiting want donuts bigbutts'
p2473
aS'dawn breaking light shining youre barely waken tangled'
p2474
aS'skinny ally nice ally'
p2475
aS'make sure dont steal stuff'
p2476
aS'make sure theyre dirty whore whos sleeping married brags everyone'
p2477
aS'make sure clean person likes slob leaves trash everywhere dishes sink month'
p2478
aS'important things remember choosing roommate'
p2479
asS'2013_33'
p2480
(lp2481
S'loyal girl ride even shit aint good gtgtgtgtgtgtgtgtgtgtgtgtgtgtgtgtgtgtgtgtgtgtgtgtgtgtgt'
p2482
aS'didnt pocahontas pick john smith'
p2483
aS'pork ribs oven smell amazing bigbutts'
p2484
aS'gonna drunk play hank williams night long\xe2\x80\x9d kinda'
p2485
aS'think miss thought could onetreehill\xe2\x80\x9d'
p2486
ag10
aS'jammin eatin tacos bigbutts'
p2487
aS'woke face'
p2488
aS'nite literally cant stop doin body shots vibing hard bartender knitting toilet seat cover listening'
p2489
aS'probably reason gained pounds oops'
p2490
aS'needs food'
p2491
aS'little spark goin hell speak devil'
p2492
aS'cant watch movie gibson always picture john smith'
p2493
aS'need picture'
p2494
aS'look found years later still'
p2495
aS'exit reunion show tonight mule tickets'
p2496
aS'jealousy'
p2497
aS'feel piece heart break every dont wanna leave ready work'
p2498
aS'fall love someone knows whole story despite wants simple'
p2499
aS'think bottle brown paper sack don\xe2\x80\x99t know jack lukebryan'
p2500
aS'bought first piece today loveeee'
p2501
aS'next time haha'
p2502
aS'live street scrappy sister take'
p2503
aS'people make mistakes theyre willing past behind onetreehill'
p2504
aS'cant wait exit110 tomorrow night'
p2505
aS'girls shit crazy seriously'
p2506
aS'lord pray first star tonight never lose thing found'
p2507
aS'annoyed'
p2508
aS'head right lovin yous dumbest fuckin thing ever done recklesskelly'
p2509
aS'came drink drown watch sink anything think speak devil'
p2510
aS'something like alarm head goes every time happy someone else\xe2\x80\x9d lucas scott\xe2\x80\x9d'
p2511
aS'forget pride idiot love girl onetreehill'
p2512
aS'victoria well maybe brooke onetreehill\xe2\x80\x9d'
p2513
aS'catch white girl'
p2514
aS'people wanna hear songs words afraid onetreehill'
p2515
aS'love usher'
p2516
aS'storming stupid freakin weather'
p2517
aS'praying might together'
p2518
aS'shes laid broken heart'
p2519
aS'side without city lights high youre around feet dont touch ground'
p2520
aS'gtgtgtgt'
p2521
aS'maam text'
p2522
aS'youre cause always last call'
p2523
aS'savannah came today said momma wheres sexy'
p2524
aS'thought drive wild make smile'
p2525
aS'making memories'
p2526
asS'2013_32'
p2527
(lp2528
S'happens kidz gonna skip number'
p2529
aS'fine pretending lonely'
p2530
aS'thanks love'
p2531
aS'house total chaos going back home fixed'
p2532
aS'cover photo gtgt'
p2533
aS'happy birthday'
p2534
aS'sometimes things find need find believe usually song lyrics\xe2\x80\x9d'
p2535
aS'smart girl till fell love satc'
p2536
aS'hate ants'
p2537
aS'love microwave tells food ready'
p2538
aS'know didnt mean hurt like didnt mean kill goodbye kiss'
p2539
aS'congrats launching bomb season many come rainjuhs'
p2540
aS'hustlegangovererrrthang'
p2541
ag10
aS'late night lines taco hell ltltltlt'
p2542
ag10
aS'sorry yall couldnt tonight come tomorrow'
p2543
aS'confessyourunpopularopinion hate whataburger'
p2544
aS'pretty much'
p2545
ag10
ag10
ag10
aS'lonely without'
p2546
aS'seriously wanna punch face'
p2547
aS'practice preach karma bitch'
p2548
aS'cant forget snuggles munchkin'
p2549
aS'coffee cosmopolitan magazine apple dark knight rises perfect afternoon'
p2550
aS'planning daughters second birthday time'
p2551
aS'picture screensaver'
p2552
aS'work wanna watch sharkweek'
p2553
ag10
aS'waking'
p2554
aS'didnt snap chat back'
p2555
aS'discovery'
p2556
aS'sharkafterdark hell megaladon real'
p2557
aS'texas weve mosquitoes long shit possible shark exists'
p2558
aS'love darling love asking asking love'
p2559
aS'youve already spite dont alarmed fall head feet'
p2560
asS'2013_31'
p2561
(lp2562
S'chedda peppas thats'
p2563
aS'jealous wanted train going elvis tonight'
p2564
aS'headed sojo sweet grandparents elvis'
p2565
aS'dont know thinking said open morning damn early'
p2566
aS'wish could replay wednesday googoodolls'
p2567
aS'maam awesome seats'
p2568
aS'luke bryans accent make dance\xe2\x80\x9d'
p2569
aS'accurate life every night'
p2570
aS'thank youuu'
p2571
aS'addicted something takes pain away'
p2572
aS'theres person front think thinks girl struggle real'
p2573
aS'daaaaalllaaaaaas texxxxaaaaassssss cant wait yall stage'
p2574
aS'wish wasnt 9047181940101739105 degrees outside'
p2575
aS'cant wait'
p2576
aS'tonight excited'
p2577
aS'youre closest heaven ever dont wanna home right'
p2578
aS'burtons gtgtgtgt'
p2579
aS'college slut working slut roommate blank girlcode'
p2580
ag10
aS'adambrody come wasnt love seth cohen'
p2581
aS'youre already ruining marriage dont ruin everyone elses happiness'
p2582
aS'volunteer tribute'
p2583
asS'2013_30'
p2584
(lp2585
S'enough said twitterlessmelissa'
p2586
ag10
aS'think emojis talking'
p2587
aS'think definition best friend someone talk shit daily basis mean literally'
p2588
aS'would awake talking minions pizza rolls'
p2589
aS'time week youve told call didnt answer'
p2590
aS'hate last know things'
p2591
aS'ever think little ladies cant walk whores time scott disick'
p2592
aS'something want life okay'
p2593
aS'sits towel months showering'
p2594
aS'eminem really listen actually meaning music\xe2\x80\x9d'
p2595
aS'angry that\xe2\x80\x99s worst thing you\xe2\x80\x99re trying tough mean instead'
p2596
aS'well memories theyre overrated damn frustrated needs back'
p2597
aS'tomorrow might hell night lovin better never blakeshelton'
p2598
asS'2013_19'
p2599
(lp2600
S'concert announcement 26th dirt rocks axsreddirt'
p2601
aS'people followed people unfollowed automatically checked'
p2602
aS'found needed overheats stuck side road campbell'
p2603
aS'today lost middle nowhere hours'
p2604
aS'theres deliveries made'
p2605
aS'told people last minutes look dark'
p2606
aS'sonja almost asian turning\xf0\x9f\x98\xb3\xf0\x9f\x98\x82\xf0\x9f\x98\x82\xf0\x9f\x91\xb2\xf0\x9f\x92\xa2\xe2\x80\x9d hahaha everyday life'
p2607
aS'johnny depp'
p2608
aS'season duck dynasty official'
p2609
aS'youll hold long trip stop bucees might texan'
p2610
aS'really thinking going whitehouse game'
p2611
aS'crushed'
p2612
aS'although butcher shop west amazing'
p2613
aS'wanted bloomin onion texas land cattle best'
p2614
aS'outback night perfect'
p2615
aS'want freakin ribeye'
p2616
asS'2013_18'
p2617
(lp2618
S'signed workout classes dont know thinking paid guess gotta dumb'
p2619
aS'girls look sized sweaters sloppy buns look like finished drug deal'
p2620
aS'grits gingers raised south gingersolutions'
p2621
aS'hate people cars look like cars'
p2622
aS'night really trying midnight night tylenol doesnt wanna work'
p2623
ag10
ag10
asS'2013_39'
p2624
(lp2625
S'nike shorts match browning shirts'
p2626
aS'favorite thing ever people tell good like others'
p2627
aS'awesome night danced'
p2628
aS'thanks sayin rude'
p2629
aS'hours body intentions falling asleep time soon'
p2630
aS'veer union'
p2631
aS'drank today water half glass green tell huge difference energy level body feels'
p2632
aS'sorry didnt text kidding ignored shit\xe2\x80\x9d everyday'
p2633
aS'biggest crush life would touched sure'
p2634
aS'biggest crush life'
p2635
aS'shall malcolm know feed back'
p2636
aS'whalewars never gets neither looking malcolm'
p2637
aS'come'
p2638
aS'love like loved loved didnt'
p2639
aS'lets best guess everybodys movin'
p2640
aS'nothing ruins friday realizing thursday seriously woke thinkin friday even sent text'
p2641
aS'sorry girl'
p2642
aS'almost told loved thank didnt cause woulda'
p2643
aS'momma wheres sexy lexi lexis sexy savannah'
p2644
aS'hoping would notice'
p2645
aS'really wish could hair done friday'
p2646
aS'bobs burgers netflix'
p2647
aS'cutest song ever'
p2648
aS'cant thank enough blessing amazing daughter love bannah'
p2649
aS'booooo trying finish season lost last episode'
p2650
aS'never watched'
p2651
aS'hope remember youre homesick need change'
p2652
aS'dont friends'
p2653
aS'dont'
p2654
aS'whole strawberry cheesecake make better'
p2655
aS'terrible'
p2656
aS'helped mine close apps'
p2657
aS'never seemed like missed guess stopped missing onetreehill'
p2658
aS'turn background refresh'
p2659
aS'need girlfriend whiskers hurt teeth'
p2660
ag10
aS'seen best worst choose'
p2661
aS'hate mean sweet people'
p2662
aS'slap dictionary'
p2663
aS'youre brave girl theblacklist'
p2664
aS'commercial needs hurry'
p2665
aS'things complicated theblacklist'
p2666
aS'could little girl like theblacklist'
p2667
aS'theblacklist'
p2668
aS'definitely favorite show thrilling theblacklist'
p2669
aS'biting nails theblacklist'
p2670
aS'cant handle ginger fits worth time gingerproblems'
p2671
aS'think gonna sheraton theblacklist'
p2672
aS'watching series premiere theblacklist awesome favorite show'
p2673
aS'well switched jeans forever'
p2674
aS'worst love miss rock revivals broke days'
p2675
aS'next week'
p2676
aS'arent watching'
p2677
aS'adams beard gtgtgt'
p2678
aS'finally getting baby'
p2679
aS'mine would'
p2680
aS'sometimes look people wonder theyre married talk like thats'
p2681
aS'frankly dear dont give damn clarkgable gonewiththewind wisewords rhett favoritemovie'
p2682
asS'2013_38'
p2683
(lp2684
S'roof cutting limbs'
p2685
aS'watched dean toris backyard bash definitely think needs cooking show love'
p2686
aS'cant wait dinner italian chicken asparagus broccoli carrot melted parmesan cheese wifemeup ilovetocook'
p2687
aS'time clean closet'
p2688
aS'cant somewhere vacation could book flight pack bags want'
p2689
aS'settings turn background refresh help'
p2690
ag10
aS'still went like months though none clothes anymore'
p2691
aS'shut'
p2692
aS'guess need lose pounds back'
p2693
aS'expensive tastes'
p2694
ag10
aS'carries memories around like souvenirs pocket'
p2695
ag10
aS'chance pair upgrades hang select dates'
p2696
aS'ginger thank idea gingerproblems'
p2697
aS'royalty'
p2698
aS'yeah queen picks'
p2699
ag10
aS'haha think bitch anything'
p2700
aS'singing talkingbitching'
p2701
ag10
ag10
aS'dont rudeee'
p2702
aS'always headphones'
p2703
aS'rather listen music woman\xe2\x80\x9d rather listen music'
p2704
aS'guess awesome'
p2705
aS'youre planning someday quietly without ever really noticing someday today life truth'
p2706
aS'catch gonna question everything else sorrynotsorry'
p2707
aS'assuming dinner good gone'
p2708
aS'dont tanight'
p2709
ag10
aS'definitely pelvic thrusts together'
p2710
aS'hope youre alone'
p2711
aS'daddys tongue temper sometimes mouth could filter shook head built smiled'
p2712
aS'youre wearing racerback tank wear racerback match'
p2713
aS'love sister\xf0\x9f\x98\x98\xf0\x9f\x98\x98'
p2714
aS'bubble guppies blocks'
p2715
aS'happy 16th birthday beautiful little sister love moon back hope best'
p2716
aS'dont think anyone ever understand important music life made song lyrics'
p2717
aS'whats regret cant work baby mine would everything'
p2718
aS'think itunes radio playing music every song comes'
p2719
aS'didnt text back'
p2720
aS'america today likely killed toddler terrorist\xe2\x80\x9d well shit trouble'
p2721
aS'baby killin stand youve dreamin'
p2722
aS'everythings made broken want know'
p2723
aS'know issues know miss'
p2724
aS'anything ever dream complete wanna married away'
p2725
aS'wanna wake wont anything dont slide'
p2726
aS'hahaa sister problem shes borrowing mine'
p2727
aS'youre welcome'
p2728
aS'camou'
p2729
aS'look fragile fuck head yeah sounds right thanks'
p2730
aS'miles dallas'
p2731
aS'youre reason made oklahoma sure missin'
p2732
aS'didnt houston'
p2733
aS'good morning houston'
p2734
aS'went visit aunt gina hotel room knocked door hispanic answered apparently different hotels\xf0\x9f\x98\x82'
p2735
ag10
aS'funeral'
p2736
aS'would houston'
p2737
aS'finally outback ready bloomin onion'
p2738
aS'text savannahs thats haha'
p2739
aS'life'
p2740
aS'terrell realized forgot grabbed dress funeral great'
p2741
aS'couldnt respond anything cant wait meet october'
p2742
aS'lauren conrad perfect'
p2743
aS'bought single'
p2744
ag10
aS'mine downloaded hour pissed'
p2745
aS'downloaded wont install'
p2746
aS'minutes'
p2747
aS'think watch dark knight rises every life'
p2748
aS'waiting'
p2749
aS'asleep'
p2750
aS'tired talk'
p2751
aS'wish friends'
p2752
aS'super excited tomorrow granny lunch'
p2753
aS'doesnt matter text stuff tell'
p2754
aS'appointment probably around 1130'
p2755
aS'thinking maybe lunch dentist appt youre busy'
p2756
aS'girl whatcha tomorrow'
p2757
aS'really want tattoo right'
p2758
aS'forgive someone wont constantly bring back'
p2759
aS'drinkin beer wastin bullets'
p2760
aS'green extract'
p2761
aS'gonna stop letting people borrow clothes never back gave clothes'
p2762
aS'probably'
p2763
ag10
aS'proud though lunches usually 1000 calories'
p2764
aS'chicken nuggets broccoli carrot lunch calories healthy losingweight getfit'
p2765
aS'whats wrong'
p2766
aS'textin first anymore'
p2767
aS'really good without soda since anymore wont eating crap hopefully weight falls'
p2768
aS'thank'
p2769
aS'left headphones room hold tomorrow'
p2770
aS'unprofessional bosses'
p2771
aS'drakes album comes niggas gonna turning police station soon they\xe2\x80\xa6'
p2772
ag10
aS'life awesome unemployed cant wait though'
p2773
aS'mile'
p2774
asS'2013_11'
p2775
(lp2776
S'many followers actual gingers sayitloudsayitproud'
p2777
aS'wish austin'
p2778
aS'ever moments cant tell youre hungry anyways'
p2779
aS'heard song never true love love fits sooooo many people life'
p2780
aS'heard false rumor'
p2781
ag10
aS'aint reason runnin something already gone'
p2782
aS'going unhappy'
p2783
aS'gonna keep real like chill like drink'
p2784
aS'stus marriage whore vegas'
p2785
aS'tomorrow gonna leave gonna walk away like every said would'
p2786
aS'last straw dont wanna hurt anymore'
p2787
aS'wish could didnt pissed lack communication'
p2788
aS'committed july cover maxim magazine promotion mistesses scared kiddingbutno'
p2789
aS'windows music blaring gtgtgtgtgtgtgtgtgtgtgtgtgt'
p2790
aS'pibb water sorryimtexan'
p2791
aS'sick trying'
p2792
aS'tinky nike outfits free today cant believe make norts size'
p2793
aS'come work tonightttt'
p2794
aS'cali'
p2795
aS'pray papaw yall'
p2796
aS'butcher house'
p2797
aS'late watching episode totally agree strip clubs disrespectful marriage'
p2798
aS'went jackpot good night'
p2799
aS'casino bound'
p2800
aS'lies'
p2801
aS'pretty little dress smile eyes \xe2\x80\x98cause she\xe2\x80\x99s loves saturday night wadebowen'
p2802
aS'dont want work today need sleep'
p2803
aS'people followed people unfollowed automatically checked'
p2804
aS'miss someone never really begin'
p2805
aS'eyes fire burn tears'
p2806
aS'terrible night already tell gonna terrible spring break'
p2807
aS'baby think know gone'
p2808
aS'accept love think deserve'
p2809
aS'gonna stew watch perks wallflower'
p2810
aS'ireland wasnt away'
p2811
aS'alright honey awayyy happiest family ever'
p2812
aS'tempted'
p2813
aS'going casino money stuck home something wrong picture'
p2814
aS'walk right crashing high like know little buzzkill baby youre buzzkill'
p2815
aS'pretty funny people hashtags like please stop'
p2816
asS'2013_10'
p2817
(lp2818
S'savannah amazes every shes smart'
p2819
ag10
aS'wish something would right'
p2820
aS'ever loved somebody much cant stand cant without anything cause truly adore'
p2821
ag10
aS'monkey'
p2822
aS'kilted money'
p2823
aS'youll come work miss'
p2824
aS'paris commerce'
p2825
aS'someone asked knew smiled said used'
p2826
aS'work tonight made thursday night lunch rush yesterday hopefully make bank tonight'
p2827
aS'either need lovins'
p2828
aS'cant want yall tomorrow'
p2829
aS'going brodys party tomorrow'
p2830
aS'meeee'
p2831
aS'yummy dinner little shopping loves'
p2832
aS'time olive garden'
p2833
aS'definitely days makes want cuddle home watch movies whereisthesunshine'
p2834
aS'dont wanna work'
p2835
aS'tonight hopefully tomorrow another good work'
p2836
aS'girl'
p2837
aS'thank lord incredible life'
p2838
aS'started green smoothie diet today green healthy skinny'
p2839
aS'haha want sword walmart randomly join'
p2840
aS'life absolute favorite'
p2841
aS'favs'
p2842
aS'love doesnt exist anymore word people throw around'
p2843
aS'cause push comes shove taste youre made might bend till break cause take\xf0\x9f\x8e\xbc\xf0\x9f\x92\x9a\xf0\x9f\x8e\xa7'
p2844
aS'stop foolish wishin aint worth missin'
p2845
aS'sick tired sick tired'
p2846
aS'theyre sword fighting'
p2847
aS'love tanning lotion brown'
p2848
aS'heaven help call somebodies tryin steale heart kylepark'
p2849
aS'almost whole house clean savannah woke time play'
p2850
aS'worst dream ever last night'
p2851
aS'decisions weve facing lately tired opinions wants ignored'
p2852
aS'cant believe welcome matthews family'
p2853
aS'congrats'
p2854
aS'fictionalcharactersiwanttomarry jasper hale'
p2855
aS'fictionalcharactersiwanttomarry weasley'
p2856
aS'oops'
p2857
aS'real life broke months'
p2858
aS'best savannah makes world round love daughter much'
p2859
aS'eating grilled cheese chilis'
p2860
aS'feels good outside taking savannah park wakes'
p2861
aS'left work early tinkys nose hurting napping dada went tanning took shower relaxed movietime'
p2862
aS'blame babyyy sail'
p2863
aS'join save elephants lets signatures killthetrade ivory thailand sign'
p2864
aS'girl class said didnt like harry potter calm'
p2865
aS'fictionaldeathsiwillnevergetover snape harrypotter'
p2866
aS'ordered chicken nachos ended oyster nachos disgusting'
p2867
aS'fictionaldeathsiwillnevergetover fred weasley sirius black remus lupin moody severus snape nymphadora'
p2868
aS'fictionaldeathsiwillnevergetover dumbledore died harry potter'
p2869
aS'fictionaldeathsiwillnevergetover marissa cooper'
p2870
aS'fictionaldeathsiwillnevergetover'
p2871
aS'weve table since'
p2872
asS'2013_13'
p2873
(lp2874
S'give forever touch cause know feel somehow'
p2875
aS'lost keys lost money kinda fuzzy'
p2876
aS'guess everybodys moving'
p2877
aS'high youre around feet dont touch ground'
p2878
aS'going censor people fucking ignorant good night'
p2879
asS'2013_12'
p2880
(lp2881
S'todays kids never knew slamming phone argument poke'
p2882
aS'dont wanna ready work'
p2883
aS'texting people without iphones emojis ltltlt'
p2884
aS'dont keep fallin like sure cool'
p2885
aS'lame need lunch often entertaining'
p2886
aS'cant even find store'
p2887
aS'guess gonna rejoin'
p2888
aS'pissed youre myspacememories\xe2\x80\x9d'
p2889
aS'think theres something wrong healthy glows beds gone every month used lotions still color'
p2890
aS'body journal tattoos story johnny depp'
p2891
aS'visit website free download counting stars'
p2892
aS'learning code like make myspace profile look sick myspacememories'
p2893
aS'seeing feeling like'
p2894
aS'quizzes posting bulletins bored myspacememories'
p2895
aS'searching photobucket cool pictures profile myspacememories'
p2896
aS'youre constantly breaking promises thats reason cant trust'
p2897
aS'fill tank take'
p2898
aS'another rehearsals lagetting magnetic songs order upcoming live shows'
p2899
aS'commerce'
p2900
aS'made tables tonight'
p2901
aS'guys dont take rejection well flirt always wait good reject'
p2902
asS'2013_15'
p2903
(lp2904
S'ordered tinky duckdynasty shirt prissy parlor found perfect'
p2905
aS'youll phase hate parents love pops'
p2906
aS'natalie portman scarlett johansson'
p2907
aS'half hearts grip situation half heart takes time'
p2908
aS'artistseveryonelikesbutidont bruno mars\xe2\x98\x9d\xf0\x9f\x99\x89'
p2909
aS'casey donahew band looks follow success album standoff review'
p2910
aS'welcome world baby daddys'
p2911
aS'people followed people unfollowed automatically checked'
p2912
aS'feel like death screamed cold week'
p2913
aS'think infection'
p2914
aS'pretty sure strep'
p2915
aS'shoulda called whiskey'
p2916
aS'drank first pepper right'
p2917
asS'2013_14'
p2918
(lp2919
S'happen find sagittarius mood chances either hungry tired bored'
p2920
aS'sagittarius sign perception higher mind search wisdom comes experience'
p2921
aS'stop popping head dont want think anymore'
p2922
aS'victorias secret sent reward cards'
p2923
aS'going take josh hamiltons nice seafood dinner never call rangernation'
p2924
aS'lots cheers hamilton walked back dugout strike baseballtown'
p2925
aS'sagittarius wild children thriving freedom'
p2926
aS'sagittarius afraid speak mind'
p2927
aS'sagittarius always heart'
p2928
aS'sagittarius wont wait around forever decide want wont long theyre'
p2929
aS'sagittarius isnt afraid commitment theyre afraid youll tell'
p2930
aS'rangersopeningday'
p2931
aS'orcas killer whales kill sharks torpedoing sharks stomach underneath causing shark explode\xe2\x80\x9d'
p2932
aS'brush teeth using hand don\xe2\x80\x99t usually self control level increase'
p2933
aS'texas girl shes hell\xe2\x80\x9d'
p2934
aS'youre barely waken tangled youuuu'
p2935
as.