(dp0
S'2012_14'
p1
(lp2
S'photo makes feel happy'
p3
aS'photo picture makes feel weird'
p4
asS'2011_19'
p5
(lp6
S'asians cool closest ever gonna fucking alien'
p7
aS'come'
p8
aS'least pages'
p9
aS'look girl dress like white girl dance like black girl'
p10
asS'2013_41'
p11
(lp12
S'photo weepling jane birkin serge gainsbourg'
p13
aS'photo'
p14
asS'2013_46'
p15
(lp16
S'video'
p17
asS'2012_48'
p18
(lp19
S'photo'
p20
asS'2013_44'
p21
(lp22
S'photo'
p23
aS'photo tmagazine hair rick owens offers short primer best hairstyles'
p24
aS'photo alltheprettythings givenchy'
p25
aS'audio'
p26
asS'2011_50'
p27
(lp28
S'easy breezy theory shoot today wish everyday like'
p29
aS'work show leather leggings katelanphearquotes'
p30
aS'business idea alcoholic cream beer vodka tequila whisky myfavoritethings'
p31
asS'2012_44'
p32
(lp33
S'photo'
p34
aS'currently obsessed song'
p35
aS'video'
p36
asS'2012_47'
p37
(lp38
S'photo'
p39
aS'photo'
p40
aS'photo'
p41
aS'idonline wise issue lara stone seventh cover star ever stunning lara stone shot danie\xe2\x80\xa6'
p42
asS'2012_41'
p43
(lp44
S'fuckyeahdirectors anderson'
p45
aS'fuckyeahtimburton weird girl whiskers'
p46
aS'elle good news kickaholics wedge sneakers sticking around spring taken instagram\xe2\x80\xa6'
p47
asS'2012_40'
p48
(lp49
S'real stunna shades photo nylon'
p50
aS'photo'
p51
aS'khalifa remember weeknd'
p52
aS'fleurdelys carey mulligan craig mcdean another 1213 craig mcdeansooo gooood'
p53
aS'fade pierre debusschere film dazeddigital photographer pierre debusschere describes inspirat\xe2\x80\xa6'
p54
asS'2012_42'
p55
(lp56
S'photo givenchy werq'
p57
aS'photo armand brignac barclay'
p58
aS'vogue jayne customdesigned c\xc3\xa9line morrocanprint skateboard decked fashionforward'
p59
aS'cityoflove dolsk poland maciejk'
p60
asS'2013_24'
p61
(lp62
S'photo 106oxford alexander wang resort 2014'
p63
aS'photo mean\xe2\x80\xa6this dreams made'
p64
asS'2011_18'
p65
(lp66
S'squuuuueal make melt'
p67
aS'thought brian atwood backstreet member'
p68
aS'hahaha tweeted drunk quotes soho party girl'
p69
aS'would really cool visited summer figure'
p70
asS'2013_20'
p71
(lp72
S'photo'
p73
asS'2013_22'
p74
(lp75
S'photo miucca getting'
p76
asS'2012_28'
p77
(lp78
S'photo love cunt'
p79
aS'photoset wishlist nike photos fashionista'
p80
aS'photoset kenzo mens ss2013 pics'
p81
asS'2012_27'
p82
(lp83
S'photo'
p84
aS'photo elle'
p85
asS'2012_25'
p86
(lp87
S'link'
p88
asS'2012_23'
p89
(lp90
S'photo'
p91
asS'2012_21'
p92
(lp93
S'video'
p94
aS'photo'
p95
asS'2012_20'
p96
(lp97
S'photo boss boss'
p98
asS'2013_5'
p99
(lp100
S'elle accessories spring 2013 elle accessories magazine ss13 hitting stands april lookout'
p101
aS'notebooknumberfour kind fashion like spring 2013 alexander wang'
p102
asS'2013_7'
p103
(lp104
S'photo mom\xe2\x80\x99s valentine flower truelove valentine'
p105
aS'photo terrysdiary asap rocky'
p106
aS'photoset atianafiorella hawthorne miss'
p107
aS'photo love love love'
p108
aS'photo phillip fw\xe2\x80\x9913\xe2\x80\xa6obsessed amazing dont know express perfect collection'
p109
asS'2013_1'
p110
(lp111
S'hypebeast givenchy 2013 prefall cufflink collection'
p112
aS'mynameisjee power couple'
p113
asS'2011_51'
p114
(lp115
S'photo'
p116
aS'boarding south america bounds much hottermerryxmaseve'
p117
aS'yeaaa graduated aint working free'
p118
aS'tequila cocktails white wine goodbyes olive ellemagazine youve good'
p119
aS'xmasbdaygoodbye gift coolest badass editor ever holidaystress'
p120
asS'2012_29'
p121
(lp122
S'photo'
p123
aS'popular thing'
p124
asS'2013_8'
p125
(lp126
S'photo'
p127
asS'2011_22'
p128
(lp129
S'landed stop inandoutburger obviouslyand carton cigs'
p130
asS'2011_23'
p131
(lp132
S'another another shoot'
p133
asS'2011_20'
p134
(lp135
S'thats wrap'
p136
asS'2011_21'
p137
(lp138
S'find ignoring'
p139
aS'like puppy want food attention'
p140
aS'excited brooksbrothers shoot 2morrow call sheet female cast kidding kinda'
p141
aS'october jamesblake wants'
p142
aS'immovingtoeurope'
p143
asS'2012_8'
p144
(lp145
S'photo simons sander'
p146
asS'2012_9'
p147
(lp148
S'photo want'
p149
asS'2011_24'
p150
(lp151
S'abbey kershaw leaves worth commute love beautiful'
p152
asS'2011_25'
p153
(lp154
S'galliano\xe2\x80\x99s lawyers claim antidepressantsalcoholsleeping pills made trial excuse works'
p155
asS'2012_5'
p156
(lp157
S'fatgirl'
p158
aS'video ruin cunt\xe2\x80\x9d'
p159
asS'2011_28'
p160
(lp161
S'working alessandraambrosio tomorrow worked constance jablonski yesterdaymy girl boner cant handle right'
p162
asS'2012_7'
p163
(lp164
S'video little last season but\xe2\x80\xa6so good'
p165
aS'photoset love crew 2012'
p166
asS'2013_17'
p167
(lp168
S'photo brunch \xe2\x9d\xa4bestie\xe2\x9d\xa4 credits davidyurman hermes price upon request'
p169
aS'photoset'
p170
asS'2012_1'
p171
(lp172
S'photoshoot katelanphear loooove'
p173
aS'fianc\xc3\xa9 beyonce'
p174
aS'photoset'
p175
aS'necessity weather'
p176
aS'inner loves buffets fatgirl'
p177
asS'2012_2'
p178
(lp179
S'fridaythe13th tattoos'
p180
aS'photo'
p181
aS'photoset balenciaga 2012'
p182
aS'interview guchee fobdad'
p183
aS'photoset prefall 2012'
p184
aS'photoset yigal azrouel 2012'
p185
aS''
p186
asS'2012_3'
p187
(lp188
S'trying inspired'
p189
aS'find mens beaded necklace pastel colorssomething marc marc would wear assistantstylistproblems'
p190
asS'2012_16'
p191
(lp192
S'photoset badass jewelry designer'
p193
aS'photo beyonce louboutins cavalli cartier'
p194
asS'2011_45'
p195
(lp196
S'holly fulton packed holly fulton samples grounded'
p197
aS'31hourbag shoulder looks'
p198
asS'2011_46'
p199
(lp200
S'wednesday giiirllll'
p201
aS'photo livin good life'
p202
aS'salad alcohol favorite things'
p203
asS'2011_47'
p204
(lp205
S'hollar status'
p206
aS'proud family skinniest momquotes'
p207
aS'players back market employed eligible bachelors'
p208
aS'need hire please well trained fashion asst obsessed'
p209
aS'deals cigarettes blackfriday'
p210
aS'happy thanksgiving lang detail castles'
p211
aS'photoset season'
p212
aS'already many friendly conversation starters portlandbound plane donttalktome'
p213
asS'2011_42'
p214
(lp215
S'video last night\xe2\x80\xa6i drunk almost dawn friend\xe2\x80\x99s east village rooftop'
p216
aS'photo'
p217
asS'2011_43'
p218
(lp219
S'surgery make boyfriend taller whitegirlproblems'
p220
aS'photoset time favourite spreads harper\xe2\x80\x99s bazaar october 2009 styled jacob'
p221
asS'2012_52'
p222
(lp223
g186
ag186
aS'love'
p224
aS'photoset'
p225
aS'video'
p226
asS'2011_17'
p227
(lp228
S'like thisfuck twitter confusing'
p229
aS'gained pounds mins artichokepizza'
p230
asS'2012_50'
p231
(lp232
S'photo'
p233
asS'2012_51'
p234
(lp235
S'photo'
p236
aS'thecoveteur \xe2\x80\x9cplease don\xe2\x80\x99t coke bathroom\xe2\x80\x9d'
p237
asS'2011_48'
p238
(lp239
S'agree need irish drinking partner'
p240
aS'photo'
p241
aS'photo team christopher kane'
p242
aS'endmarriagediscrimination'
p243
asS'2011_49'
p244
(lp245
S'pass cheeks said'
p246
aS'small town city always hottest'
p247
aS'giggling'
p248
asS'2012_18'
p249
(lp250
S'photo hypebeast'
p251
aS'photoset want'
p252
aS'photo accessorize'
p253
asS'2013_11'
p254
(lp255
S'audio current obsession autre veut counting'
p256
asS'2013_10'
p257
(lp258
S'photo home sweet'
p259
asS'2013_13'
p260
(lp261
S'video'
p262
asS'2013_15'
p263
(lp264
S'photo thecoveteur \xe2\x80\x9cfashion almost like religion least don\xe2\x80\x99t give fuck'
p265
asS'2012_39'
p266
(lp267
S'photo'
p268
asS'2013_31'
p269
(lp270
S'photo'
p271
aS'changed dazeddigital source'
p272
asS'2013_30'
p273
(lp274
S'photo love brooklyn dumbo'
p275
asS'2013_19'
p276
(lp277
S'photo good'
p278
asS'2012_36'
p279
(lp280
S'photo granny gregoryparkinson ss2013 taken instagram'
p281
aS'photo birthday girl\xe2\x80\x99s shoes night prada leopard taken instagram'
p282
asS'2012_37'
p283
(lp284
S'lovely boss accessories director elle sartorialist'
p285
aS'audio'
p286
aS'phillip 2013'
p287
aS'alexander wang asap rocky'
p288
asS'2012_30'
p289
(lp290
S'joseph black white'
p291
asS'2013_38'
p292
(lp293
S'photo phillip ss\xe2\x80\x9914'
p294
asS'2013_37'
p295
(lp296
S'video first marcjacobs show nyfw goodnight'
p297
asS'2013_36'
p298
(lp299
S'photo nolita'
p300
aS'photo \xf0\x9f\x90\xa0tail braid mercedes benz fashion'
p301
asS'2011_31'
p302
(lp303
S'never trust doctor smoke drink always you\xe2\x80\x99ll live longer wise words lanphear'
p304
asS'2011_52'
p305
(lp306
S'woke scene thehangover whathappensinvegasstaysinvegas'
p307
aS'surprised'
p308
aS'vegas bound happynewyearseve'
p309
aS'blazers nuggets final blazers move season felton crawford'
p310
aS'need seduce nice korean husband plastic surgery classy burberry trench momquotes'
p311
aS'jadore'
p312
aS'headin rose garden kick philly goblazers'
p313
asS'2012_38'
p314
(lp315
S'photo'
p316
aS'photo'
p317
asS'2011_26'
p318
(lp319
S'fashion life inspired homeless vagrants crack whores make'
p320
aS'right bottle wine'
p321
aS'ugly girl like youre going work'
p322
as.