(dp0
S'2013_22'
p1
(lp2
S'fuck always depressed'
p3
asS'2013_16'
p4
(lp5
S'like interviews seem genuine'
p6
aS'yessss dont like personality either like shes kinda bitchy sorrynotsorry'
p7
aS'omfg dont like either usually like'
p8
aS'teacher said wanted convey emotion'
p9
aS'follow back love'
p10
aS'follow back love'
p11
aS'welcome love'
p12
aS'worthless'
p13
aS'like'
p14
aS'falling reverse hell yeahhh'
p15
aS'falling reverse'
p16
aS'awwwww'
p17
aS'wont feel like'
p18
aS'dont kill please favorite'
p19
aS'maam'
p20
aS'heheh youre wonderful stay strong'
p21
aS'hard happy everyone around pushing'
p22
aS'love love'
p23
aS'awwww cute ilylt3'
p24
asS'2013_20'
p25
(lp26
S'powerful'
p27
aS'idgaf think youll stop pretend leave alone'
p28
asS'2013_24'
p29
(lp30
S'havent eaten hell fucking'
p31
aS'school prison'
p32
aS'life hell'
p33
aS'feeling alone'
p34
aS'went hospital diagnosed severe depression ptsd anxiety bulimiawonderful'
p35
aS'membershipfuck'
p36
asS'2013_25'
p37
(lp38
S'dont hands shake heart beat speeds cant seem focuspain beauty worth every minute'
p39
aS'really dont'
p40
aS'funny blink breath heart beatingbut empty inside'
p41
aS'lost pounds days'
p42
asS'2013_26'
p43
(lp44
S''
p45
ag45
aS'thankyoult3'
p46
aS'follow back love'
p47
aS'beautiful loved'
p48
aS'beautiful loved'
p49
aS'beautiful loved'
p50
aS'follow back love'
p51
aS'follow back love'
p52
aS'follow back love'
p53
aS'beautiful loved'
p54
aS'beautiful loved'
p55
aS'beautiful loved'
p56
aS'beautiful loved'
p57
aS'welcome'
p58
aS'beautiful loved'
p59
aS'beautiful loved'
p60
aS'beautiful loved'
p61
aS'beautiful loved'
p62
aS'beautiful loved'
p63
aS'beautiful loved'
p64
aS'gunna inspiration others since okay'
p65
aS'bipolaroh'
p66
aS'hating ayye whats'
p67
aS'care everyone else except'
p68
aS'letters encouragement'
p69
aS'fuck care much think'
p70
aS'awww thank'
p71
aS'dont like weight something itgo home'
p72
aS'girls thigh gapwtf wrong need work harder'
p73
aS'follow back love'
p74
aS'follow back love'
p75
aS'follow back love'
p76
aS'follow back love'
p77
aS'loosing pound loving'
p78
aS'pain beauty'
p79
asS'2013_15'
p80
(lp81
S'dont judge dont know'
p82
aS'follow'
p83
aS'myfavoriteaccount'
p84
aS'control'
p85
ag45
ag45
ag45
aS'thinspo'
p86
aS'thinspo'
p87
aS'tried move scale dropped brokekill'
p88
aS'follow back love'
p89
aS'find funny make assumptions cutu know name story'
p90
aS'follow back love'
p91
aS'follow back love'
p92
aS'follow back love'
p93
aS'purge fast feel better'
p94
aS'follow back love'
p95
aS'follow back love'
p96
aS'follow back love'
p97
aS'selfie'
p98
aS'follow back love'
p99
aS'follow back love'
p100
aS'follow back love'
p101
aS'follow back love'
p102
aS'follow back love'
p103
aS'follow back love'
p104
aS'dont hands shake love longer feel hungry watching look disgusted indulgeewwww'
p105
aS'fucking'
p106
aS'follow love'
p107
aS'follow back love'
p108
aS'follow back love'
p109
aS'follow back love'
p110
aS'follow back love'
p111
aS'follow back love'
p112
aS'follow back love'
p113
aS'follow back love'
p114
aS'follow back love'
p115
ag45
aS'follow back love'
p116
aS'thank much'
p117
aS'follow back love'
p118
aS'follow back love'
p119
aS'follow back love'
p120
aS'follow back love'
p121
aS'follow back love'
p122
aS'follow back love'
p123
aS'love reminds whalethank'
p124
aS'prob'
p125
aS'sleep amazinghours without eating dont even half think'
p126
aS'dont want thighs ever touch'
p127
aS'thanks much'
p128
aS'course'
p129
aS'hungry nawww good already yesterday'
p130
aS'follow back love'
p131
aS'gets headaches purge gtlt'
p132
aS'todaythen purged feeling good water rest night'
p133
aS'thanks follow back love'
p134
aS'thanks follow back love'
p135
aS'youre welcome sweetie'
p136
aS'follow back love'
p137
aS'follow back love'
p138
aS'probbs'
p139
aS'problem'
p140
aS'thanks follow love'
p141
aS'thanks follow love'
p142
aS'thanks follow love'
p143
aS'body perfecti want bones'
p144
aS'idgaf wanna beautiful'
p145
aS'prob'
p146
aS'perfectiontoo always look like whale'
p147
aS'thank much follow back'
p148
aS'give body'
p149
aS'follow back love'
p150
aS'follow back love'
p151
aS'follow back love'
p152
aS'follow back love'
p153
asS'2013_21'
p154
(lp155
S'follow accountsidk good know hate much'
p156
aS'even alive'
p157
aS'triggering suppose'
p158
asS'2013_31'
p159
(lp160
S'getting thinner'
p161
aS'dont'
p162
asS'2013_30'
p163
(lp164
S'tell dead'
p165
aS'picslip'
p166
aS'loosing weight think'
p167
aS'less meal less calories'
p168
aS'dont underestimate abilityi change'
p169
asS'2013_19'
p170
(lp171
S'feel empty tonighttheres soul inside body'
p172
aS'demi lovato'
p173
aS'stomach isnt growling right'
p174
aS'looking attention sympathy want somebody listen'
p175
asS'2013_18'
p176
(lp177
S'thank much'
p178
aS'would matter never person doesnt matter includes'
p179
aS'feel like gone wouldnt even matter'
p180
aS'like okay tell okay look like okay inside okayim okay'
p181
aS'tell dangerous thts problem becauseeee'
p182
aS'thin happy'
p183
aS'okay understand'
p184
aS'ohhh okay'
p185
aS'come suppose diet'
p186
aS'awesome'
p187
aS'much purge punish pretty good lately sticking diet'
p188
aS'drops like flies'
p189
aS'small portion controlled meals times combine minute power walk everyday dinner'
p190
aS'fruit lunch vegetables dinner breakfast protein shake loose weight'
p191
aS'unbearably hungry like better watch every calorie times'
p192
aS'takes restraint hard work dont binge much used would binge like'
p193
ag45
aS'dropping weight like crazzyyyyyyyyy happy fuck yeah'
p194
aS'ever need anyone tweet answer'
p195
aS'shouldnt hate worth'
p196
aS'loved'
p197
aS'ever feltdone following wanna show care purging cutting burning binging self worth good enough'
p198
aS'would like right'
p199
aS'questions'
p200
asS'2013_28'
p201
(lp202
S'thanks follow love'
p203
aS'akathe cutter'
p204
aS'burn'
p205
aS'thank youuu'
p206
aS'burns stings bleeds worth'
p207
aS'somebody love'
p208
aS'probbs'
p209
aS'theyaremyguys swear account flawless'
p210
aS'alisshoran dope fuck'
p211
aS'done love'
p212
aS'indirect comon'
p213
aS'give death'
p214
aS'dont stick tube nose leave alone wanna beautiful'
p215
aS'dont threaten diet'
p216
aS'follow back love'
p217
aS'wanna skinny'
p218
aS'better weight'
p219
asS'2013_29'
p220
(lp221
g45
aS'fuckkkkk'
p222
aS'vomit loose weight'
p223
aS'time cant loose'
p224
aS'account rates'
p225
aS'much couldnt purge gonna workout night'
p226
aS'harm starve hate'
p227
aS'bones good enough'
p228
asS'2013_17'
p229
(lp230
S'broke golden corral never going buffet ever'
p231
as.