(dp0
S'2014_36'
p1
(lp2
S'tomorrow turn computer email recipe going aquarium'
p3
aS'nope like coffee cake'
p4
aS'email nataliemnewmanatgmaildotcom'
p5
aS'share recipe ever want would later phone know'
p6
aS'hate'
p7
aS'glad appreciated natural response'
p8
aS'clean house reward right also snickerdoodle bread'
p9
aS'hope enjoy fruit labor'
p10
aS'clean house kids immediately start things place assume evolutionary territorymarking'
p11
aS'congratulations well done assuming thats common cause painful feet case today'
p12
aS'nothing says deserve drink like painful feet'
p13
aS'would rather ruined changed would rather dread climb cross moment illusions auden'
p14
aS'wont'
p15
aS'good another passiton'
p16
aS'jack learn love could soften shes still badass cares'
p17
aS'thank continuing tweetpost ferguson stuff making sure people cant forget'
p18
aS'welp trouble karma justice dept investigate ferguson police practices'
p19
aS'dont know difference youre going dead instead purple hair'
p20
aS'changes great really inconvenient'
p21
aS'phone decided dont need twitter notifications started yesterday happy'
p22
aS'well around 1230 meet convention center works'
p23
aS'hugged said meeting favorite part sunday'
p24
aS'going museum stuff'
p25
aS'thats okay least nice trip back'
p26
aS'sorry dont know'
p27
aS'leaving shortly itll twelve'
p28
aS'getting ready head seattle would like meet'
p29
aS'first know better'
p30
aS'long wanted people didnt'
p31
aS'introversion finest needed watch bunch people worked house'
p32
aS'obviously cant give little life perspective person'
p33
aS'think part pretty certain fake side conversation person would'
p34
aS'sometimes conversations head happened realistic'
p35
aS'forget thingsthathavehappenedtome'
p36
aS'instead adding immediately think thought must happened distract'
p37
aS'point several points whatever'
p38
aS'thank werent words point tried making week'
p39
aS'internet 1998 maybe people didnt want'
p40
aS'never fear twitter language safe come'
p41
aS'going pottermore hogwarts online school honor'
p42
aS'happy'
p43
aS'stern principles staying away becoming something anyway hows going'
p44
aS'thank nice conversation openly good night'
p45
aS'cause message'
p46
aS'like respect otherwise think stand behave want remain true'
p47
aS'still think significant issue needs examine whatever kind activist person want people'
p48
aS'saying said mistake intent sexually assault even joking context'
p49
aS'people understanding mistakes made happen'
p50
aS'actually language know could harmful obviously perfect nobody thats'
p51
aS'basically reason good'
p52
aS'phrases everything'
p53
aS'joke context stretching interpretation hate people yeah problem words'
p54
aS'happened didnt wanted comment since didnt complete context stayed'
p55
aS'honestly dissecting enough problem continue trying better people help world'
p56
aS'specifically personal politicking detracts larger issuesthe things actually matter'
p57
aS'worst part many people actually fighting better boxed exact viewpoint'
p58
aS'sometimes need recognized best social justice warrior capitalized title'
p59
aS'thing core good thing poorly executed used abuse becomes thing'
p60
aS'youre welcome'
p61
aS'says everything much eloquently really want friends read'
p62
aS'pcos bitchass motherfucker'
p63
aS'yeah play daily'
p64
aS'kids nephew residents dont care takes keep perfect'
p65
aS'talking real people game people'
p66
aS'complaining things find dont case assets dont work logical next step'
p67
aS'dont even water fucking flowers'
p68
aS'actually game supposed relaxing find annoyed whenever inconsiderate thing done'
p69
aS'allowing others acnl town takes away bunch ruin flowers take away incomemaking things'
p70
aS'booth homage twin peaks black lodge vibe might intentional'
p71
aS'overwhelming helped deal discomfort instead focusing'
p72
aS'best decently early'
p73
aS'dont believe well early 1000 appointment itll probably around noon'
p74
aS'drive carefully'
p75
asS'2014_37'
p76
(lp77
S'mmmmm kettle corn'
p78
aS'meaning youre whats'
p79
aS'made cake'
p80
aS'definitely'
p81
aS'putins head everywhere'
p82
aS'made posters saying making posters'
p83
aS'russia comes inside'
p84
aS'pornstars communists dont come inside soviet russia soviet'
p85
aS''
p86
aS'yeah agree everyone wants wants play'
p87
aS'tweet miss'
p88
aS'thats best thing seen'
p89
aS'readd might sexbot profile choose side'
p90
aS'true thats bullshit theres reason goes back whats best long doesnt harm others'
p91
aS'consult subconscious arranged'
p92
aS'think something exists within cultures subculture'
p93
aS'well whats best long doesnt harm others'
p94
aS'dont know dont want'
p95
aS'play something though maybe play sadly dont cant'
p96
aS'tomorrow variable'
p97
aS'flatter keep might start selfworth'
p98
aS'lady might strong word'
p99
aS'dont wish could cash'
p100
aS'didnt enjoy'
p101
aS'cool people like'
p102
aS'well steam wallet thats something right'
p103
aS'robot nuts bolts drink'
p104
aS'shouldve given chance'
p105
aS'actually decided check based tweet followed'
p106
aS'giveaway time retweet tweet follow chance super smash bros demo code'
p107
aS'knew'
p108
aS'graces gifts going take days birthday days least time'
p109
aS'looked means wish phrase describe reaction'
p110
aS'thats town tune acnl totally appropriate thought'
p111
aS'graces birthday gifts purchased'
p112
aS'masterhandsmash said like hulk'
p113
aS'hierarchies arent really made happiness fairness finding identity like'
p114
aS'yeah wasnt happy like guess people'
p115
aS'saying thats wasnt person extension others identity'
p116
aS'think know mean took long time identify relationship others'
p117
aS'clear outside'
p118
aS'want forever'
p119
aS'watch later quiet around'
p120
aS'enthusiastic exciting thing'
p121
ag86
aS'northern lights tomorrow please clear never place could could pretty cool'
p122
ag86
aS'people'
p123
aS'going close internet accounts live bunker'
p124
aS'ahhhh grandchild guilt grandma sent shes sweet read'
p125
aS'want shoot everyone involved conversation association'
p126
aS'totally expecting something saying'
p127
aS'internet slow it\xe2\x80\x99ll worse unless take'
p128
aS'whoa think need video'
p129
aS'making paper airplanes science today'
p130
aS'actually might good learning experience'
p131
aS'wonder could recreate nine inch nails song hurt entirely chatty cathy doll'
p132
aS'please hear'
p133
aS'alice wonderland first book year going incorporate projects literature'
p134
aS'like abuse especially'
p135
aS'oddly getting stuff book grace going read school'
p136
aS'would love part'
p137
aS'worst sent recipe'
p138
asS'2014_34'
p139
(lp140
S'isnt boost thing acknowledgement view compared others view'
p141
aS'learned tonight selfimage issues think unattractive people think attractive feels nice'
p142
aS'keep'
p143
aS'laughed idea though become half head make interesting'
p144
aS'pretty close'
p145
aS'well ugly cool hello'
p146
aS'youre gonna care sunday'
p147
aS'also narcissistic want feedback shit'
p148
aS'sometimes feel like world muted drunkthoughts'
p149
aS'strong string fucking cares know'
p150
aS'going angrily strong cheese biting pulling pieces'
p151
aS'anyway drunk angry luckily phone able interpret saying'
p152
aS'like words important matter affect people nobody world'
p153
aS'words said harmful actions others affect still cant even drunkenly'
p154
aS'dude walks arrow flipped dont know means'
p155
aS'dudes tried pull doesnt work women line amused'
p156
aS'draft sure shake dont know'
p157
aS'much sexier conway twitty sings karaokenight'
p158
aS'beer called german sparkle party tastes good sounds'
p159
aS'drinks named drink ordered said rowdy dick made bartender laugh'
p160
aS'suspect ends biggest break case'
p161
aS'agree women paid equally argument used generations'
p162
aS'seriously happen wont anything think something drastic like'
p163
aS'make sure doesnt steal credit witness started'
p164
aS'dying'
p165
aS'present without comment'
p166
aS'mike brown facts whistles'
p167
aS'anything offhand right'
p168
aS'saying women games issue seen people attack devs private things dont'
p169
aS'quick ones'
p170
aS'except weve seen weve seen people attack threaten games dont agree behavior either'
p171
aS'question kind person endorsing harassment endorsing investigating'
p172
aS'place tell peoples stories know falls things'
p173
aS'pattern behavior lying manipulating things person know'
p174
aS'shouldnt journalistic integrity standard across board'
p175
aS'tweet fuck like leaving conversation midsentence hope feeling resolved'
p176
aS'know times want express emotion dont want discuss yeah thats right'
p177
aS'fucking awesome'
p178
ag86
aS'really sorry making mental jump fair'
p179
aS'actually yaaaaaaaaaaaaaaaaaay'
p180
aS'unfollowed yest associate group refollowed today wrong'
p181
aS'cares enough understand feminism read'
p182
aS'gave moment focus something else frustrates make situation kind funny'
p183
aS'threw sympathy support understanding'
p184
aS'understand position clearly anyone solidarity motherfuckers'
p185
aS'knows limits much person wants discuss bothering'
p186
aS'left social media drama still took time risk dealing make sure okay'
p187
aS'privately listened needed voice heard without judgment'
p188
aS'knows sometimes fake violence karate answer lifes problems'
p189
aS'strong voice head guides stick believe right'
p190
aS'never stops caring even something doesnt care also knows make laugh'
p191
aS'always stops give kind word encouragement sees hard time'
p192
aS'tough week like make dedicated supportive people wake realizations growth'
p193
aS'youll thanking moment'
p194
aS'thank'
p195
aS'oddly came people super supportive awesome week'
p196
aS'nice know youre excited'
p197
aS'love miss'
p198
aS'putting calendar'
p199
ag86
aS'murder name nobility honor'
p200
aS'youre ever free want youre miss'
p201
aS'jousting lots jousting'
p202
aS'yeah probably back monday tuesday'
p203
aS'taken offline little itll back point'
p204
ag86
aS'feminism tearing building'
p205
aS'refollowed people unfollowed yesterday able help outside'
p206
aS'peoples actions prove words mean nothing rise dont person'
p207
aS'care whole rant'
p208
aS'going remain stay done'
p209
aS'dont even happened happened others continue long people allow'
p210
aS'okay twitter night thinking'
p211
aS'hope find happiness thank kindness'
p212
aS'room admire beards'
p213
aS'thank hard definitely needed really made question'
p214
aS'many feelings today pile weird'
p215
aS'guess pull look like real creeper whenever road'
p216
aS'spent time explaining living principles kids felt good'
p217
aS'thank want world better need start right'
p218
aS'apologize words make sound amazing encouraging regret unfollow personal reasons'
p219
aS'apologize people grouped others part world collateral damage'
p220
aS'well going send luck tends work others'
p221
aS'cross things'
p222
aS'stuff holding days'
p223
aS'thanks made laugh need laugh'
p224
aS'probably rambling well constructed really frustrated certain people world'
p225
aS'fuck make like'
p226
aS'want thanks pouting much words come'
p227
aS'okay sharing told'
p228
aS'still around thanks listening dont usually display much vulnerability appreciate patience'
p229
aS'thank hard important'
p230
aS'worst part none directing acknowledge probably wont even itll change anything'
p231
aS'wanted know emotional response logical since come conclusion logical'
p232
aS'honesty harboring anger years took days process'
p233
aS'defending'
p234
aS'wasnt others pattern sniff liar blacklisted become outcast'
p235
aS'didnt guts come treated badly though privately discuss others excused'
p236
aS'several days making processed completely today'
p237
aS'everything getting today'
p238
aS'criticism haters complaints people grind sometimes people want'
p239
aS'tried stay live ignore'
p240
aS'another person wont swallow destructive brand feminism'
p241
aS'never vocal dont care hate another person list people wont comply'
p242
aS'saying done skirting edges extremism dont represent actual feminism represent hatred'
p243
aS'dont want associate people defend person went everything built'
p244
aS'want associate people okay another person harms others'
p245
aS'dont want associated anyone supports lying manipulative people name feminism thats feminism'
p246
aS'going make something good'
p247
aS'dont know probably others'
p248
aS'first goal shedding people made feel like never enough enough something'
p249
aS'maybe even happy part okay odds'
p250
aS'still want thank people giving voice hate self existed unrecognized fight'
p251
aS'sorry taken blades injustice name justice'
p252
aS'judging individual morality judging hypocrisy'
p253
aS'come terms cannot support anyone even examined complacency'
p254
aS'many people live world different shades gray depending looking applying moral code'
p255
aS'think tried didnt watch tried depends'
p256
aS'probably somehow seems familiar'
p257
aS'miss always brighten'
p258
aS'karate high list things want'
p259
aS'dmed stuff'
p260
aS'something works sunday'
p261
aS'certain aspects'
p262
aS'probably parse together entire meaning tweets'
p263
aS'thank business pissing thats problem'
p264
aS'depends dont think trimming beard never idea potential involved'
p265
aS'pains people like part community makes feel inadequate'
p266
aS'yeah know strange situation cant really details'
p267
aS'know theres life nice often'
p268
aS'truth problem people dont want specifics could untold repercussions'
p269
aS'dont diss seriously thats amusement rest agree'
p270
aS'thats miss supposed'
p271
aS'moment realization gaming world around'
p272
ag86
aS'thank'
p273
aS'note going unfollow bunch people maybe moment things'
p274
aS'dont expect everyone follow follow sometimes feel like actively boxed'
p275
aS'seriously twitter interact people find place could belong'
p276
aS'sorry cant live fantasy world'
p277
aS'women want adventures science female desire'
p278
aS'sorry fell asleep relatively early'
p279
aS'interesting'
p280
aS'things think female sexuality like stereotypes might heard'
p281
aS'computer charges back reading female sexuality things think know wrong'
p282
aS'also weird oddly feels like something ominous'
p283
aS'check student loan payment forbearance loan supposed come forbearance month extended months'
p284
aS'yeah welcome heart dixie'
p285
aS'shit missed friend code kids didnt opportunity'
p286
aS'whatchu'
p287
aS'ultra concentrated never experience dish soap sadproducts'
p288
aS'thank'
p289
aS'wish help well fight life back track'
p290
aS'yeah depends history might able also'
p291
aS'calendar next years'
p292
aS'please'
p293
aS'think maybe missing something maybe wrong feelings persist'
p294
aS'saying everyone times think respect admire many people make think'
p295
aS'also kind want give twitter sometimes feel conflicted hypocrisy want yell better'
p296
aS'nudes strickland propane'
p297
aS'kind want give trying anything like whenever motivated life like fuck isnt gonna happen'
p298
aS'still dont know'
p299
aS'followed follows back'
p300
aS'things like'
p301
aS'sometimes make much sense terrifies'
p302
aS'evil wasteland'
p303
aS'evil really insulting'
p304
aS'actually plan coming seattle week awesome'
p305
aS'sure follow things make robot better real sometimes shes original funny'
p306
aS'havent seen weeks things'
p307
aS'thats point follow sure thank severus social acceptance speech'
p308
aS'whenever think found best tweet ever something like appears'
p309
aS'already'
p310
aS'alex cried talking cried cried idonotcry'
p311
aS'youre positive nice person'
p312
aS'didnt still folded half makes life unnecessary complicated principle remaining folded'
p313
aS'whyd unfollow cant send friend code'
p314
aS'fantastic hear happy'
p315
aS'tempt'
p316
aS'make office linebacker preparation idea yesterday'
p317
aS'please keep love series funny'
p318
aS'desktop along pictures daily'
p319
aS'thank people gather door waiting tripped times'
p320
ag86
aS'emotionally relieving things ever done personal back life'
p321
aS'dont think waves several days time move different'
p322
aS'depending mood'
p323
aS'hate liars hate liars know liars others seem revealed liars others still cant'
p324
aS'midtyping yeah didnt harm victims'
p325
aS'doxxing game people doxx dudes work games actual rapists'
p326
aS'started excessive force police havent shown thats problem sarcasmfont fergu\xe2\x80\xa6'
p327
aS'tear deployed stop'
p328
aS'vice livefeed camera saying rubber bullet ferguson'
p329
aS'tear begun cops rented unmarked minivans ripping street dumping smoke tear'
p330
aS'cant wait season three'
p331
aS'showed malik shabazz yelling megaphone capt johnson armed officers stepped'
p332
aS'want educated seek information dont rely news'
p333
aS'repression police killed community wants answers'
p334
aS'witness biggest civil rights movement generation live internet truly amazing force'
p335
aS'like cops back truck left outta'
p336
aS'arrived blocked fergsuon national guard every entrance sewn shut'
p337
aS'swat truck pulled fifteen cops came fully geared really scared'
p338
aS'last week tonight john oliver ferguson'
p339
aS'gitmon daily stories'
p340
aS'going'
p341
aS'sorry evil brother visiting'
p342
aS'herd corral members press want protesters arent press getting video'
p343
aS'never excessive force teenager statement guys keep tear gassing children threatening them\xe2\x80\xa6'
p344
aS'thankful social media crisis would silenced without'
p345
aS'beyond days calling press conference control message streaming video things youre'
p346
aS'dont think ferguson know molotov cocktail isthere would fires everywhere used'
p347
aS'society didnt worse getting harder hide ugly truth'
p348
aS'years records couldnt find single ruling police shooting unjustified'
p349
aS'police fire tear rubber bullets ferguson protesters hours curfew'
p350
asS'2014_35'
p351
(lp352
S'maybe something family'
p353
aS'exhausted five hours'
p354
aS'happy meet wish didnt quick though'
p355
aS'also thank back town tuesday youre around'
p356
aS'battle tuesday sounds great next tweet'
p357
aS'sorry stopping leaving crabby didnt last block'
p358
aS'brought chocolate chip cookies would good'
p359
aS'thank generosity going back seattle tuesday'
p360
aS'sorry seeing home back seattle tuesday'
p361
aS'cranky tired home'
p362
aS'dying'
p363
aS'leave'
p364
aS'knew room waiting someone'
p365
aS'considered going dont want deal mess charlotte would make first floor waiting someone'
p366
aS'first floor need dont worry'
p367
aS'awesome sitting stairs seats taken'
p368
aS'well back also havent seen'
p369
aS'sitting chair north escalator area access'
p370
aS'shes little overwhelmed keeping keeping sane'
p371
aS'free swag razerpax photo booth paxprime'
p372
aS'know well meet think geek know find'
p373
aS'think geek'
p374
ag86
aS'wandering main showroom'
p375
aS'north escalator level'
p376
aS'well youll easy find'
p377
aS'sure around dont respond quickly probably theater hiding crowd booth'
p378
aS'sitting outside wscc crowd feed best gets hangry people aggressively trying badges'
p379
aS'companion'
p380
aS'dont know companion'
p381
aS'yeah usually dont care pervasive problem hard become angry'
p382
aS'know people would take advantage others would actually help support need'
p383
aS'wish able help everyone needs'
p384
aS'need escape abuse'
p385
aS'nobody ever would soon'
p386
aS'thank youre awesome definitely helped'
p387
aS'bring destroy pies cookies food'
p388
aS'prefer li\xc3\xa8ge'
p389
aS'yeah isnt even twitter something posted people treated asking better'
p390
aS'joshua come fight imgur grand dont know didnt live without'
p391
aS'thats actual quote'
p392
aS'someone says shows certain level naivety part think civil'
p393
aS'need laugh asinine things well insane dont'
p394
aS'think need step back realize together whether like better'
p395
aS'yeah cool people treat others every angle group slings insults okay'
p396
aS'well excuuuuuuuuuuuse prin\xe2\x80\x94 oops'
p397
aS'mean something must wrong want people treat respect amirite'
p398
aS'thanks laugh asking people civil calling naive delusional princess'
p399
aS'calls princess motherfucking time might explode'
p400
ag86
aS'white supremacy deniers pictures americas tcot blacklivesmatter ferguson'
p401
aS'paxprime2014 gamers giving charity game companies know want chip lets gamers'
p402
aS'little lady delivered newspaper took brothers'
p403
aS'hair turns white evolutionary reasons predators leave alone think youre wizard'
p404
aS'familiarity like really project know'
p405
aS'ghosts atlantis road specifically'
p406
aS'stop youd like dont want dont want'
p407
aS'daughter sound like video game songs'
p408
aS'neednt reply listening everything fave without ethereal haunting whimsical'
p409
aS'listen talented paying talent necessary 1010 would project'
p410
aS'took like'
p411
aS'moment realize ovarian cyst'
p412
aS'please sounds like something need hear'
p413
aS'true made bizarre youtubes full hatespeech make basement trolls'
p414
aS'imgoingoutinpublicwheretherewillbemanypeople nervous stomach also hyphenated phrase already existed phone'
p415
aS'lego magazines arrived squealing happened'
p416
aS'dont want favorite series matters'
p417
aS'actually thats little sexy thing food sexy'
p418
aS'dont regret'
p419
aS'actually instructions right feel compelled'
p420
aS'around'
p421
aS'really habit losing drivers license happens dont keep wallet purse'
p422
aS'excitement cannot contained'
p423
aS'leaving good night'
p424
aS'architectural weakness digest ruinamagazine'
p425
aS'please still sunday'
p426
aS'free feelings anything wont fault take care always'
p427
aS'almost feel like need bring nerf andor water guns since plan east'
p428
aS'people list sunday anyone else'
p429
aS'youre going'
p430
aS'yeah would like henry also'
p431
aS'useful done chemical mach riders logos scan drawing clean'
p432
aS'yeah somebody'
p433
aS'thanks want better'
p434
aS'able also catch'
p435
aS'question prevent foodborne illnesses answer thought'
p436
aS'work restaurant foodhandling permit nephew taking test'
p437
aS'like salmonella coli'
p438
aS'picture need'
p439
aS'looks like dont know'
p440
aS'done done'
p441
aS'prevent foodborne illnesses nowwithart'
p442
aS'nobody later'
p443
aS'really irritable happens sorry didnt good'
p444
aS'prevent foodborne illnesses please someone chefs spatula smokey bear phone'
p445
aS'needed interrupted three times thats happens take naps finally wake tired'
p446
aS'gitmon daily stories'
p447
aS'actually expected'
p448
aS'dont make mistake twice second time mistake choice'
p449
aS'dude fucked'
p450
aS'sick awful'
p451
aS'yeah well nonexistent'
p452
aS'shared really need examine language apply differently gender race'
p453
aS'think face similar feelings wont judge sexuality'
p454
aS'take confirmation seeing'
p455
aS'sunday whoevers faces care'
p456
aS'opinion based personal experience relevant topic'
p457
aS'dont want part abuse trying stay'
p458
aS'jesus fuck people stop attacking people simple dont agree'
p459
aS'sure answer right dont eyetoeye dont want fight'
p460
aS'mean actually real questions made think little'
p461
aS'questions someone asked isnt patrick publicly known creators much answers help'
p462
aS'research pursuing anything dont want mess'
p463
aS'well find something would like help need'
p464
aS'sounds like person cares wellbeing others sigh'
p465
aS'obviously takes time money things libraries often dont'
p466
aS'really want world informed less beholden soandso said'
p467
aS'research direction look help'
p468
aS'find make happen find teaching methods work different people need help'
p469
aS'manylayered thing first position getting people read understand reading'
p470
aS'want help able read research understand form opinions rely opinions others'
p471
aS'want provide service people varying levels illiteracy'
p472
aS'actively researching starting literacy thing'
p473
aS'want reach support similar coming terms hypocrisy thanks writing'
p474
aS'current situation read'
p475
aS'obvious thing could wont actual fear punctured'
p476
aS'lets pretend still asleep thats feel'
p477
asS'2014_32'
p478
(lp479
S'dream ignatius sick wake remember hate confederacy dunces read 10yrs name still nauseates'
p480
aS'read'
p481
aS'ready free range faps'
p482
aS'thats really good know even didnt great'
p483
aS'126363746470'
p484
aS'friends code'
p485
aS'dont know well seen youre fantastic know people like respect seem love'
p486
aS'could someone please play acnl restarted want sleek furniture instruments'
p487
aS'either past link ancestor line'
p488
aS'yeah'
p489
aS'skeletal warrior twilight princess cant remember anyone like'
p490
aS'working befriending stray appears getting computer tomorrow'
p491
aS'google search came empty really wanted find medieval scroll crude dick drawing'
p492
aS'said name great album title title life'
p493
aS'ones stories passed generations'
p494
aS'awesome wanting show support shudder think kids could stumble upon phones'
p495
aS'grace asked tender mean laughed thought somehow heard tinder asking'
p496
aS'absolutely fabulous'
p497
aS'looks like tonight happening isnt feeling well'
p498
ag86
aS'thats watching assessing'
p499
aS'accurate'
p500
aS'still sing passing craze'
p501
aS'didnt really learn either except hakuna matata'
p502
aS'thats favorite element bend'
p503
aS'images conversations super intense'
p504
aS'fantastic'
p505
ag86
aS'brother problem green eyes still think beautiful'
p506
aS'want point blue eyes dark hair striking like'
p507
aS'done'
p508
aS'want back eyes picture seeing'
p509
aS'goes dentist relatively near future'
p510
aS'long basic stuff relatively easy'
p511
aS'know talking'
p512
aS'shes curl book maybe fall asleep early'
p513
aS'watch even orajel barely brushing teeth completely question'
p514
aS'charlotte problem frequent canker sores white sores inside mouth cold sores time whole swollen'
p515
aS'dont understand tailored trends fuck taylor caniff shawn hayes'
p516
aS'pick'
p517
aS'elba ebola stay woke ladies'
p518
aS'thats crazy fries clearly better ketchup'
p519
aS'think found isnt acceptable'
p520
aS'toast conduit cream cheese consumption grabbing spoon eating like cream isnt acceptable behavior'
p521
aS'almost missed okay'
p522
aS'also heres adorableness'
p523
aS'poor trin wine better'
p524
aS'installed phone hello dream life'
p525
aS'good game paints picture'
p526
aS'casey sorry'
p527
aS'think time need find time space'
p528
aS'dont know shed'
p529
aS'clocks melted time longer manmade construct'
p530
aS'identifying pokemon wolverine'
p531
aS'asked kids made game would grace didnt know charlotte wants minecraft fighting game like super smash bros'
p532
aS'fast tend read type quickly'
p533
aS'lasted minutes girl diablo minutes done couldnt even phrase girl please'
p534
aS'think good look cyclist'
p535
aS'love send girls make games workshop seattle 2529 shed love'
p536
aS'doesnt becomes less less often'
p537
aS'compassion help experienced horrible things'
p538
aS'wont keep playing game make clean room needs know people world need'
p539
aS'hard part keeping ageappropriate relevant usually starts ranting parent'
p540
aS'actually lessons helps understand life like others dont great'
p541
aS'even sure patrick hasnt stopped ebooks started using account'
p542
aS'would guess latter mean doortodoor behavior joke years'
p543
aS'tell parent know works suddenly funny'
p544
aS'strength strong emotional barrier well physical'
p545
aS'sometimes think like think much dont want kids attitude realize might'
p546
aS'screamed walked away like minutes'
p547
aS'well makes feel eensy better worse kind solidarity sadness'
p548
aS'named things individual people thought realized sounds'
p549
aS'like likened disease'
p550
aS'think imperative people life know special important'
p551
aS'maybe youre right everyone else denial otherwise couple broken people manage look okay'
p552
aS'youre person broken people convince dont know goes head'
p553
aS'time appreciate think intact hard broken'
p554
aS'thanks wanted make sure clear didnt fall prey wily conniving ways'
p555
aS'theres much willing share rest worse'
p556
aS'think time flood yard'
p557
aS'well hope remember youre funny interesting help weirdness'
p558
aS'interested aspects tweets wasnt rescued fuck'
p559
aS'please'
p560
aS'dont powers arent latterday saints anything'
p561
aS'sounds like positive outcome situation'
p562
aS'growing still little awkward come door like part world away'
p563
aS'jehovahs witnesses came weekend gave pamphlet walked away thats shortest visit ever experienced'
p564
aS'weird imagine weird imagine parents classmates'
p565
aS'kind best friend looking nobody gets like'
p566
aS'know things like speak language great people like'
p567
aS'absolutely'
p568
aS'know harry potter tennant always right answer right'
p569
aS'actually could appreciate know rules nuts'
p570
aS'upstairs kids start screaming life hope youre jealous'
p571
aS'kind dream mine like impossible dream moment'
p572
aS'really creep yeah okay dude'
p573
aS'library insanely jealous thats good idea'
p574
aS'hate happens take frequent breaks away recharge little'
p575
aS'flareup'
p576
aS'dont even need specify'
p577
aS'people like issue like rape victims treated isnt really problem want scream'
p578
aS'used tall coollooking woman green hair think youre pretty awesome would want girl army'
p579
aS'disagreeing seen experienced exact thing described'
p580
aS'relate agree gender thing might specifically holly'
p581
aS'post little butt clouds'
p582
aS'loved'
p583
aS'whats best kind bear koalaty bear quality jokesforjoshua'
p584
aS'wish took picture'
p585
aS'done done dont even want explain fuck antifeminist thundercunts thats explanation enough'
p586
aS'time brave elements join conversations'
p587
aS'hate people think reallybigproblem cancels anotherreallybigproblemjustnotasbig problem'
p588
aS'hope doctor goes well tomorrow ends quickly'
p589
aS'next step take handle shower read book eyes wont stay open'
p590
aS'close eyes deeply breathe nose mouth slowly count repeat asleep'
p591
aS'wonder havent seen much lately'
p592
aS'happy birthday'
p593
aS'makes sense'
p594
aS'pick lock house pick house oblivion'
p595
aS'oops killed someones rats oblivion'
p596
aS'nephew considering joining military reasons everything convince'
p597
aS'definitely surprising'
p598
aS'tried bras cant believe difference'
p599
aS'befriended stray followed home'
p600
aS'start familiar works start something like java help cbased languages'
p601
aS'heres cool site showed really great'
p602
aS'think consequence tweets'
p603
aS'would want unlikely outcome'
p604
aS'ahem'
p605
aS'like imagine take shit someones curtains refuse apologize least didnt cause fire\xe2\x80\xa6'
p606
aS'consider maybe something hurtful dont shake accountability worse thin\xe2\x80\xa6'
p607
aS'thing bigger another doesnt mean smaller prob prob using something shield cowardly'
p608
aS'today rare conditioning would really nice'
p609
asS'2014_33'
p610
(lp611
S'willing wait honor'
p612
aS'know everyone thinks greatest dont'
p613
aS'hope avoid future around ohsopleasant face'
p614
aS'person people know knowing'
p615
aS'people insanely people think good'
p616
aS'agree'
p617
aS'thought lecturing'
p618
aS'best karaoke dinner ever heard singing faithfully right document amazingness'
p619
aS'likes idea guess going play something woot'
p620
aS'think taking offline play game'
p621
aS'mean watched thought behind watched years anyway good'
p622
aS'good'
p623
aS'would'
p624
aS'think coming cocaine'
p625
aS'dont annoy enough tagging tweets gloat annoying teds true'
p626
aS'would lovely prime'
p627
aS'thank kind words needed'
p628
aS'live tacoma away'
p629
aS'emotionally draining night think going relax recover'
p630
aS'sorry youre going want show support keep strong'
p631
aS'evil used work customer serviceand nice'
p632
aS'isnt jaded worldview'
p633
aS'truck unloaded theres still stuff world skewed glasses'
p634
aS'current feeling inadequacy'
p635
aS'context quote night pulled researched fuck'
p636
aS'would enjoy immensely'
p637
aS'well greatest time wont anywhere near cool'
p638
aS'toys weeks couldnt find minecraft stuff asked help response section'
p639
aS'actually country going'
p640
aS'basically conversation people know could turn'
p641
aS'think less incapable mean think point makes others think capable making true'
p642
aS'neither retweeted feed'
p643
aS'recommend console youre regular gamer'
p644
aS'coincidence'
p645
aS'played least dozen times another right'
p646
aS'fully encourage support'
p647
aS'would totally awesome late maybe would benefit though'
p648
aS'would like chat soon general whats going'
p649
aS'love sister uncertain helps much best approach things thank love'
p650
aS'trying find much information possible dont really much tell'
p651
aS'going pretend reason youre getting coffee making think hard stuff'
p652
aS'going awake know anything ywam youth mission'
p653
ag86
aS'dmed current state mind'
p654
aS'youre favoriting much stuff right like youre reading feed something'
p655
aS'couple hours still laughing'
p656
aS'told nephew catcalling cool heard meow started trying come called hypocrite'
p657
aS'remember fondly'
p658
aS'like information would helpful read exmembers cultlike'
p659
aS'ywam actually youth mission accidentally without'
p660
aS'anyone know anything ywam youth without mission trying find information stuff'
p661
aS'know someone going something stupid tell'
p662
ag86
aS'person gave number thought going leave family semester'
p663
aS'mystery important privacy selfprotection'
p664
aS'nobody ever number'
p665
aS'protected tanks away still justice'
p666
aS'wait events ferguson resolved something good happened'
p667
aS'head ferguson response marching protesters suddenly military weapons arent needed'
p668
aS'going need mental reset'
p669
aS'reading ferguson tweets articles horrendous america terrifying place'
p670
aS'fuckin last night versus tonight ferguson'
p671
aS'really exciting news happy'
p672
aS'better corn'
p673
aS'shell outside point start providing right'
p674
aS'typing charlottes feet huge somehow typed feet huts'
p675
aS'happy birthday welcome place'
p676
aS'keep stepping away reading delusions gender pisses wrong right'
p677
aS'dont forget step away take care cannot fight injustice burning'
p678
aS'quiktrip looks like yesterdays police replaced journalists ferguson'
p679
aS'gonna better johnson says thats responds karen wood ferguson'
p680
aS'capt johnson missouri highway patrol walks along ferguson march compare wednesday'
p681
aS'adorable kids unmilitarized ferguson'
p682
aS'twitter allegedly suspended anonymous account wonder long anonymous suspend twit\xe2\x80\xa6'
p683
aS'violence answer murdered police resorted military occupational force ferguson'
p684
aS'shit really fucked putting stop fucking immediately obama said today'
p685
aS'problem context conversation part logical mind good thing'
p686
aS'think problem logiccentric people'
p687
aS'want quotes things people repeat saying natalie said funniest thing'
p688
aS'neither little envious people'
p689
aS'impossible planet satan episodes'
p690
aS'palestinians tweeting people ferguson tell deal tear basically tells everything'
p691
aS'louis county police tactical operations arrived complete armed vehicles rifles body armor'
p692
aS'talkin bout dang ferguson like dang like fuck'
p693
aS'police protect serve public know police wrong'
p694
aS'similar question earlier'
p695
aS'chain commandfollowing orders thing isnt member ferguson stands against\xe2\x80\xa6'
p696
aS'twitter activism wack marches don\xe2\x80\x99t work anymore police forced wear recording devices'
p697
aS'photos police fire tear near jazeera crew disassemble gear flee ferguson'
p698
aS'dear ferguson citizens peacefully asked right thing didnt mean reenact spike'
p699
aS'maybe thats cynical spend metric fuckton money making sure lots ways kill'
p700
aS'take mean think people shouldnt allowed guns think well always'
p701
aS'ferguson perfect illustration amendment folks touch reality always'
p702
aS'important dehumanize people justify childish worldview'
p703
aS'like seriously fuck anything'
p704
aS'cant believe amount white hollerin care police killing black black people stop'
p705
aS'ferguson dramatic example problem localized power trying solve'
p706
aS'hope focus terrible murder broken town sparks genuine concern action systemic criminali\xe2\x80\xa6'
p707
aS'power within wherein america thats breach human rights'
p708
aS'children home avoid tear throw front yard'
p709
aS'make sure white doesnt face consequence killing unarmed black'
p710
aS'wife seems believe hell held entire hours'
p711
aS'weird cops dont react like riot breaks game'
p712
aS'kind louis citizens drove back ferguson cops left stranded station thanks twitter'
p713
aS'ferguson still chilling nice peoples house coworker told walking beating group safe'
p714
aS'check live stream ferguson'
p715
aS'seriously thank live scary world need help'
p716
aS'black people justifying something racist well black friend black friend'
p717
aS'everyone else black person tells something seems racially charged time dont'
p718
aS'despite subject making feel better things feel less frantic little able'
p719
aS'yeah rest stuff yesterday'
p720
aS'fighting mentality mentality'
p721
aS'people congratulations comments word pushes posts wider audiences'
p722
aS'scared shitless crowd standing outside ferguson police station right'
p723
aS'still thing'
p724
aS'guess outside need affect change'
p725
aS'coming feed'
p726
aS'dont know anyone friends posted anything posted ferguson stuff'
p727
aS'fear haunts keeps cycle going nothing good come'
p728
aS'adding live dont envy mentally'
p729
aS'know youre saying cannot accept youre wrong'
p730
aS'hope staying safe'
p731
aS'know isnt frontline impossible anyone think okay even justified'
p732
aS'grew illinois learned scarier chicago longstanding problem'
p733
aS'cant imagine turning makes human thats happen'
p734
aS'exactly ones know wrong live theyve done forever'
p735
ag86
aS'ferguson officers justified actions wouldnt enacted media blackout'
p736
aS'gassed rubber bullets shot nooo warning women childrenferguson mikebrown'
p737
aS'potus flotus attended bday celebration farm neck golf club obamas danced nearly every song good time'
p738
aS'notice difference gearposture usmc snipers combat zone police officer ferguson'
p739
aS'cool violence makes news earlier rally moments like worth sharing ferguson'
p740
aS'biggest question people justify point question orders ferguson'
p741
aS'crowd control supposed look like sniper rifle armored'
p742
aS'crazy ferguson darkknightrises'
p743
aS'dear media maybe stop trying sell racial unrest instead report apolicemanshotanunarmedteenager fury'
p744
aS'getting word released ferguson'
p745
aS'breaking photo jazeera crew scrambles cover police fire tear towards'
p746
aS'\xe2\x80\x9cwhere justice denied poverty enforced ignorance prevails class'
p747
aS'police used tear local time disperse crowds west florissant avenue'
p748
aS'think point occurring different country would trying citizens'
p749
aS'instead reporting journalists arrested says black panther member inciting violence'
p750
aS'protester stands ground ferguson tear fills updated photos'
p751
aS'point start calling ferguson military coup'
p752
aS'citizen control absolutely complete removal guns american citizens horrible idea'
p753
aS'tried tuning even watch coverage ferguson nothing talking party politics'
p754
aS'remember take away citizens right bear arms police criminals still right carr\xe2\x80\xa6'
p755
aS'police ferguson arrested reporters elected official tonight wonder want people stop recor\xe2\x80\xa6'
p756
aS'youre ferguson write louis legal intake number cops take phone'
p757
aS'terrifying'
p758
aS'ferguson happening another country military would currently consdering arming people'
p759
aS'ferguson proof wounds aint healed systemic racism isnt back past like would'
p760
aS'afraid black setting fires militarized police murdering impunity probl\xe2\x80\xa6'
p761
aS'ferguson making think military dictatorships appears exactly happening especially martial'
p762
aS'locked ferguson media tear rubber bullets arrests walking home america wrong'
p763
aS'damn even sure back ferguson asked road access sniper rifle point\xe2\x80\xa6'
p764
aS'reporters cops removed badges tags ferguson'
p765
aS'usually badges wear around necks belt loops'
p766
aS'mine tailored global think makes difference global list'
p767
aS'trending'
p768
aS'much ferguson information shared right horrific stuff'
p769
aS'trend twitter reading everything right'
p770
aS'happy birthday'
p771
aS'happy birthday'
p772
aS'thank'
p773
aS'okay looking glory anything credit nice'
p774
aS'jump conversations named chris leddy'
p775
aS'either works'
p776
aS'xboxone giveaway simply follow tweet enter random winner announced 21814 gamersuni\xe2\x80\xa6'
p777
aS'yeah dont gold anymore either dont know'
p778
aS'gold'
p779
aS'facetious'
p780
aS'okay complete faith ability figure'
p781
aS'sorry look'
p782
aS'open eyes thats sign aceofbase'
p783
aS'wanted gang crushed'
p784
aS'dark souls kicked nephews think done'
p785
aS'never seen wasnt'
p786
aS'random question mark tired'
p787
aS'tell want really really want really really really want zesty apple'
p788
aS'announced last tweet nephew asked whats spice world show cooking something thoroughly amused'
p789
aS'important news spice world netflix grade self squealing'
p790
aS'opinionated varied group individuals thats pretty cool'
p791
aS'quite number games'
p792
aS'breaking news women invented twilight epic conspiracy comes light'
p793
aS'going whisper sweet nothings'
p794
aS'dailymail comments section robin williams passing lesson education mental illness needed'
p795
aS'going spend little time kids'
p796
aS'understand notice someone'
p797
aS'depression make weak need social stigma surrounding depression disease'
p798
aS'christopher reeve said paralyzed college roomie robin williams came cheer make want live'
p799
aS'safe take care today every youre alone rooting'
p800
aS'anyway love guys stay alive okay'
p801
aS'anxiety real depression real dont best world doesnt riprobin\xe2\x80\xa6'
p802
aS'dont push know youre unfold time'
p803
aS'power alone enough wanting enough healthy wouldnt'
p804
aS'mostly friends hadnt said meds anxiety wouldnt ever courage help'
p805
aS'still hard admit sometimes really different person anxiety medication'
p806
aS'refused medication anxiety years probably time'
p807
aS'knot throat know'
p808
aS'outpouring supoort folks battling depression warming heart immensely shut crying tota\xe2\x80\xa6'
p809
aS'lets believe people tell theyre hard time without shaming'
p810
aS'everyone able comfortable talking depression thats everything time'
p811
aS'know whatever relationship brain struggle real ashamed'
p812
aS'suicide prevention hotlines please share theyve helped help depressionl\xe2\x80\xa6'
p813
aS'lost brother suicide lost comic friends noncomics dont delude youre connected people'
p814
aS'dont feel like right speak depression share qualified understanding people'
p815
aS'shouldnt feel ashamed talk depression also shouldnt ashamed cant talk'
p816
aS'broken okay'
p817
ag86
aS'getting help mental illness easy worth help keep fighting arent alone'
p818
aS'funny actual science nerds arent watching tbbt'
p819
aS'grace went size shoe size shoe less year'
p820
aS'didnt busy today'
p821
aS'running interrupted lost train thought'
p822
aS'lost train thought'
p823
asS'2014_30'
p824
(lp825
S'chem coming back hate dont think unless find people'
p826
aS'schedule tweet earlier night could waiting youre good sober'
p827
aS'also totally wrong'
p828
aS'people questions worth ones asked'
p829
aS'account knew idiot'
p830
aS'unlike questions account influenced something makes open'
p831
aS'opinion insecure people incredibly insecure doesnt mean incapable ugly good enoug'
p832
aS'anybody know 4day prime badges sale friends would greatly appreciate'
p833
aS'would agree explosive diarrhea hour 50000 maybe least enoug'
p834
aS'someone please tell womenagainstfeminism feminism actually'
p835
aS'thing tattooed forehead woul mirror image doesnt look stupid'
p836
aS'ship nachos beer'
p837
aS'first makes think scarecrow'
p838
aS'well awesome congratulations'
p839
ag86
aS'idea good left quite desired course give chance'
p840
aS'execution problem'
p841
aS'handles differently might better'
p842
aS'history able drive games frustrated'
p843
aS'think idea good think poorly executed ability respond directional changes'
p844
aS'hope better people watch think first mako cool drive maybe wont limited terrain'
p845
aS'extended noooooooo sdcc mako mako backmg'
p846
aS'resumed acnl cant stop acnl'
p847
aS'supposed project encourages make woman touch dick'
p848
aS'dont ever dont care anymore youre free hate doesnt mean anything'
p849
aS'favorited hoping arent'
p850
aS'knee wont stop bleeding'
p851
aS'know dont know stepping lego worse'
p852
aS'plus'
p853
aS'survive though'
p854
aS'landed attempt step back foot tricycle rolled back fell knee gross'
p855
aS'booped kitty booped kitty right oonn theee nose booped kitty booped kitty righ\xe2\x80\xa6'
p856
aS'came kick eyes checked since took glasses cant without safe'
p857
aS'kind heathens work'
p858
aS'doctor includes pacific northwest name would waiting room look like coffee house'
p859
aS'consider artificial subtweet response'
p860
aS'last okcupid night shitty message someone read profile nice times sorry'
p861
aS'clowns suggestions might favorite'
p862
aS'never knew'
p863
aS'last right'
p864
aS'following suggestions follow please'
p865
aS'didnt ever tell long missing'
p866
aS'take alternating swigs'
p867
aS'nephew thinks shadow broker think thats adorable'
p868
aS'like guys'
p869
aS'seem like different person went'
p870
aS'long time'
p871
aS'know means'
p872
aS'hold homies wonder patrick used word ironically originally'
p873
aS'clears everything'
p874
aS'fuck patpat house'
p875
aS'love mass effect much absolutely abhor many characters'
p876
aS'tweetlikeawhiteboysexting wanna penis text anyways'
p877
aS'thing could'
p878
aS'hide pineapples'
p879
aS'nephew going finish tonight hope hops right'
p880
aS'best'
p881
aS'cant tonight migraine coming'
p882
aS'patience pointless chatter'
p883
aS'youre okay scientist hair'
p884
aS'take permission laugh said'
p885
aS'joshua pays rent chaturbate tokens'
p886
aS'demand'
p887
aS'favorite always ecto gammat'
p888
aS'guess know tomorrow need'
p889
aS'watch magic school knowledge change everything'
p890
aS'need hear theory'
p891
aS'actually like theory better anything seen especially official story'
p892
aS'read theory asked suggesting zelda time lord'
p893
aS'hyped gotten excited anything seen'
p894
aS'disestablismentarianism morning name everything'
p895
aS'feminism isnt merit badge wear please stop talking feminist feminist'
p896
aS'fact even wellmeaning dudes wear feminism badge honor like character buff fuuuuuck'
p897
aS'said line read summer camp booklet mining crafting camp teds facebook theylisten'
p898
aS'porn site'
p899
aS'thank much love respect'
p900
aS'really life taking care doctordentalvision appointments week'
p901
aS'sorry contributing going early busy days make tired'
p902
aS'happen would call rather fortuitous convenient'
p903
aS'excellent idea maybe time kids wont steal list still havent submitted anything guilty'
p904
aS'except deem thing thinking worthy thought'
p905
aS'could paid think things people dream'
p906
aS'like deferred student loan sits accumulating interest'
p907
aS'would tomorrow another busy wont time next week earliest'
p908
aS'mine pretty accurate'
p909
aS'think probably many people borderline situation dependent'
p910
aS'engineering intj istj introverted thinkers'
p911
aS'think things quintessential type assuming quite antiestablishmentarianism punk'
p912
aS'times'
p913
aS'yeah youre right page'
p914
aS'handy'
p915
aS'person dont agree'
p916
aS'made well well well'
p917
aS'someone else blasts grammar make effort inclusive language'
p918
aS'find said playlists something person supposed make'
p919
aS'make much sense'
p920
aS'well amount'
p921
aS'almost wednesday tuesday going long week'
p922
aS'every really actually might right exceptionally special'
p923
aS'days wish could crawl blankets pretend world doesnt exist obligations'
p924
aS'want normal week things done might next week probably tired'
p925
aS'must sleep wake'
p926
aS'skin thick enough daily harassment women game industry'
p927
aS'always board methods handling situation still think important informed'
p928
aS'yeah similarity talking theres major kerfuffle women stuff'
p929
aS'wish time keep everything happens informed always feel like miss much behind stuff happens'
p930
aS'send hate mail send pumpkin proper side'
p931
aS'nobody perfect'
p932
aS'sometimes feeling body look size great everyone looks bodypositive'
p933
aS'doesnt make sense rename'
p934
aS'rename'
p935
aS'might watching later week early next days stay late'
p936
aS'brynner watch'
p937
aS'close running'
p938
aS'pretty sure actively hates though careful'
p939
aS'sure murderess forgivable'
p940
aS'really make youve plenty tweets represent'
p941
aS'shows aggressive scary except embraces completely'
p942
aS'might'
p943
aS'holy shit'
p944
aS'overnight know'
p945
aS'understand going find take life'
p946
aS'probably could better person able'
p947
aS'encouraging replaced'
p948
aS'thats rather masturbatory'
p949
aS'might need create kill switch'
p950
aS'whats amazing idea locking doors would help protect something home'
p951
aS'terrifying suddenly'
p952
aS'dont even respond took care'
p953
aS'pretty partial boots want something little intimidating spikes buckles'
p954
aS'might take concept raspberry thatd pretty badass'
p955
aS'sure thatd work cape'
p956
aS'purple velvet'
p957
aS'yeah selfaware synthetics would probably scare people brought home'
p958
aS'impressed scared think next step becoming cyborg'
p959
aS'beginning believe selfaware'
p960
aS'almost like crossconversed'
p961
aS'keep leading suggestible program path'
p962
aS'pretty good staying within topic following train thought easy follow'
p963
aS'please talk forever amuses watch backandforth'
p964
aS'fact think might interpreted seriousness thats though'
p965
aS'tweetapicturewithoutlooking'
p966
aS'mention tail'
p967
aS'charlotte told someone grace used'
p968
aS'absolutely'
p969
aS'nothing brilliant ever said'
p970
aS'bone pick'
p971
aS'activated phone intended port number another company activation'
p972
aS'beneaziaisdead masseffect'
p973
aS'probably banned'
p974
aS'trouble benezia fight least problems correct places'
p975
aS'seven'
p976
aS'nephew playing mass effect first time battle krogan therum'
p977
aS'tell'
p978
aS'dont know'
p979
ag86
asS'2014_31'
p980
(lp981
S'hair blue purple'
p982
aS'well dont think going stop snoring guess sleep anyway'
p983
aS'directed lives millions voices suddenly cried terror suddenly silenced'
p984
aS'think supposed make better people'
p985
aS'2425yearold fucking idiot glad none knew'
p986
aS'grade best friend came amazing insult thing crotch nose whole thing beautiful'
p987
aS'remind tell many friends next time speak'
p988
aS'thats exciting cant wait'
p989
aS'work schedule crazy still missing like'
p990
aS'caused paper toss 5000 papers literally word fuck headline'
p991
aS'sorry missed calling assassin'
p992
aS'similar problems lately since recent update'
p993
aS'brother family moving nepal work childrens home theyre raising money help make happen'
p994
aS'actually grace likes like works opposite supposed'
p995
aS'know sudden like want ridiculous'
p996
aS'depends think like husband page design something different like works'
p997
aS'least someone help'
p998
aS'thats basically allowed states cant left anything work history'
p999
aS'maybe thats thing years since working'
p1000
aS'yeah find references'
p1001
aS'yeah'
p1002
aS'cant even favorite foods around anymore without stealing'
p1003
aS'ahhhh'
p1004
aS'best every better take heart take personally personal many people'
p1005
aS'cant like'
p1006
aS'alpha omega beginning everything nothing really'
p1007
aS'whats summer reading list harry potter books kindle broke couple weeks certainl'
p1008
aS'certainly sucks next weekend'
p1009
aS'would cool hangout'
p1010
aS'think theres something owning take away power also know using others take permission'
p1011
aS'watched play doom many times dizzy maybe'
p1012
aS'drunkenly front friend immediately felt like asshole uncharacteristic'
p1013
aS'politely point misconstrued shittiness sure care words'
p1014
aS'interactive itll using skills describe skills still settingup stage'
p1015
aS'kids know feeling'
p1016
aS'would like soon fucking long miss face'
p1017
aS'really want game thats perfect evening'
p1018
aS'finished school december also working really work resume otherwise'
p1019
aS'youre friends facebook youre like emily smith thats decided come back remove people know'
p1020
aS'free candy youre adult kids'
p1021
aS'fair halloween best holiday'
p1022
aS'thenewshastheirprioritiesstraight hastagissarcastic'
p1023
aS'make sure couple negative statements'
p1024
aS'wont edit opinion gender relationships'
p1025
aS'makes want violent know thats answer'
p1026
aS'still find hard believe people believe stuff hurts head thinking'
p1027
aS'almost want hear supported argument almost quite'
p1028
aS'white religious made everything racism classism sexism many wars shoot'
p1029
aS'think really body shaming sides another stop'
p1030
aS'yeah great emotional outlet'
p1031
aS'wasnt working freeing'
p1032
aS'mine exceptionally fragile miss running much'
p1033
aS'cant much beyond swimming biking knee problems'
p1034
aS'yeah stay pretty consistently around winter'
p1035
aS'yeah know think lifestyle outweighs weather'
p1036
aS'hardest part cool summer though days considerably cooler like'
p1037
aS'hardly rained summer winter rained likely anyway'
p1038
aS'lovely still fascinated whenever ranier dont much would like'
p1039
aS'since middecember'
p1040
aS'people silly'
p1041
aS'realize wide'
p1042
aS'midnight blue would good'
p1043
aS'people understand ferries'
p1044
aS'congratulations'
p1045
aS'like boat ride'
p1046
aS'burgundy wine shade hair coloring itll nice'
p1047
aS'flowers removed dress cocktail dress'
p1048
aS'thats terrifying also going head hello'
p1049
aS'vote yeah better'
p1050
aS'whats look like altered become wedding dress'
p1051
aS'guess thats like recognizing puerto rico stuff'
p1052
aS'states lived didnt option live like hours canada'
p1053
aS'extra money special drivers license allows drive across border'
p1054
aS'good make pierre work'
p1055
aS'affection spreadsheets need order separated console alphabetising'
p1056
aS'know like consistency think awesome still'
p1057
aS'alphabetised must appreciated mine'
p1058
aS'kill miss violin dont want miss'
p1059
aS'10th dress wrong sonic screwdriver threw'
p1060
aS'likely would look tenth doctor dress think theyre cute'
p1061
aS'dress'
p1062
aS'happy help sure youll rock'
p1063
aS'date work cute cardigan wedding'
p1064
aS'would wear love'
p1065
aS'totally cute'
p1066
aS'wrong ears keep wish remembered whole line always wanted exchange'
p1067
aS'mean dated guys least well'
p1068
aS'love'
p1069
aS'grace pronounced graffitiing graphiteing matter shes arting'
p1070
aS'obvious obvious'
p1071
aS'people need treated fairly'
p1072
aS'sheik fave character dude lady badass matter'
p1073
aS'kind proud like proud'
p1074
aS'345k tweets peasant like place'
p1075
aS'leave house bras sign'
p1076
aS'didnt even consider seriously draw made done thatll take time'
p1077
aS'seriously tyler hope youre fucking fantastic birthday drink'
p1078
aS'good'
p1079
aS'crying'
p1080
aS'real helper thank'
p1081
aS'armpit boob'
p1082
aS'want find style sizes need start impossible'
p1083
aS'repair'
p1084
aS'time invented something better'
p1085
aS'didnt learn pulling everything rather herere boobs recently'
p1086
aS'didnt realize afraid getting something stuck'
p1087
aS'wide stance dont look like much'
p1088
aS'dont know start'
p1089
aS'letters numbers 34ddd 32dde whole store'
p1090
aS'first calculation missed changes things'
p1091
aS'couldnt whole number'
p1092
ag86
aS'theres time place always everywhere right joke'
p1093
aS'loose little give'
p1094
aS'okay think help probably need always kind loose'
p1095
aS'think'
p1096
aS'going'
p1097
aS'wish easier make sure daughters understand dont need early'
p1098
aS'find isnt tight enough loose something learned'
p1099
aS'stick looking 34dd confused bras'
p1100
aS'mine talked making woman grab dick dont worry taken context'
p1101
aS'amuses probably wont apologize'
p1102
aS'tried shocked gave three sizes didnt even include extra list'
p1103
aS'also favorited thing bras think said calculator'
p1104
aS'telling dont know start'
p1105
aS'kind want make'
p1106
aS'similar problem restarting computer helps itll many days dies'
p1107
aS'ladies whats good size calculator measurements checked calculators different results help'
p1108
aS'dream last night sent stamps kids names little designs represented cute'
p1109
aS'ever need send nice hugger'
p1110
aS'last night referenced retweet didnt make sense retweeted'
p1111
aS'appreciate camp kitsch'
p1112
aS'theres story retweeted church seattle'
p1113
aS'happy birthday tyler hope fabulous might even intentionally harm gift wont'
p1114
aS'someone local area posing crab real crab'
p1115
aS'snorted'
p1116
aS'know youll moments years everything fits itll worth'
p1117
aS'youve things better soon move'
p1118
aS'stomach burning dragons fire reading cool religion shit aint kosher'
p1119
aS'even called misogynist dont even know give massage joked yukyuk eyeroll'
p1120
aS'fascinated never understand'
p1121
aS'releases stress test asinine'
p1122
aS'knew need know'
p1123
aS'definitely choose werewolf unless absolutely horrible kissing'
p1124
aS'well good luck hope together soon'
p1125
aS'antigaming account fake'
p1126
aS'less'
p1127
aS'time'
p1128
aS'youre saying makes sense'
p1129
aS'makes sense'
p1130
aS'since based think thats accurate'
p1131
aS'used sarcasm super effective'
p1132
aS'never boxed wine'
p1133
aS'tell'
p1134
aS'thats easy arrange'
p1135
aS'hearing drunken laugh brilliant'
p1136
aS'theyre netflix maybe'
p1137
aS'probably watch netflix long first still'
p1138
aS'need mine'
p1139
aS'last retweet sounds like euphemism'
p1140
aS'sometimes youll randominator'
p1141
aS'dumb thats worth though mean different types dumb'
p1142
aS'good dont want miss anything good'
p1143
aS'total babe date youre want museum might perfect person'
p1144
aS'guys havent seen first sharknado watching sharknado missing'
p1145
aS'cant wait shark tornado married'
p1146
aS'still enjoy'
p1147
aS'better'
p1148
aS'know youre saying thought many kneeleg injuries emotions exacerbate longterm problems'
p1149
aS'spelled thought didnt know usies meant provided public service'
p1150
aS'whats best dating advice dont worry others think attractive like'
p1151
aS'going kids took medicine ignore headache meds kick'
p1152
aS'speaking sister eating pizza going take head hurts'
p1153
aS'think going away headache'
p1154
ag86
aS'problem dont worry'
p1155
aS'besides absolutely adorable jealous'
p1156
aS'sometimes like able away negativity thats'
p1157
aS'would similar coloring would look great'
p1158
aS'jealous'
p1159
aS'hair great isnt'
p1160
aS'sent something'
p1161
aS'cant stop'
p1162
aS'leave word tweet means exact opposite mean sucks'
p1163
aS'said wrong cant help eating reasonable amount think meaning'
p1164
aS'even emotionally cant help eating reasonable amount cant even right'
p1165
aS'careful getting political train know last time'
p1166
aS'really'
p1167
aS'maybe tyler quick forgive easily blatant disregard people feelings'
p1168
aS'couple people complained random insults recently know youre completely innocent'
p1169
aS'wasnt talking insulting'
p1170
aS'call humor rest call asshole thinks insults hilarious'
p1171
aS'first time positively laughed something youve said least year'
p1172
aS'sure throw number next time talk want face'
p1173
aS'closets unoccupied rooms boink thats case'
p1174
aS'2018 videogames xbox controller dick sent back time prevent writing hara\xe2\x80\xa6'
p1175
aS'dont know worse fearing stranger ruining life fearing someone trust ruining life fear'
p1176
aS'terrified experiencing fear makes like without happening'
p1177
aS'strangers like askfm answer'
p1178
aS'show already like week'
p1179
aS'kill adorbz'
p1180
aS'cant find funny batman anything havent shown already except'
p1181
aS'howd hair turn tell'
p1182
aS'whats valuable thing youve held hands mans heart'
p1183
aS'rather awesome view dinner'
p1184
aS'love makes giggle'
p1185
aS'whats awkward thing eleva whenever enclosed spaces someone ends'
p1186
aS'whatre later going dinner family long week'
p1187
aS'know'
p1188
asS'2014_38'
p1189
(lp1190
S'fall touch people'
p1191
aS'would exact opposite direction'
p1192
aS'insanely jealous'
p1193
aS'guys spouse works make feel like piece meat yesallwomen'
p1194
aS'kids worst arent wouldnt trade perfect games ever'
p1195
aS'town beautiful'
p1196
aS'need certain fanfic'
p1197
aS'actually fulfill want'
p1198
aS'anything would great'
p1199
aS'struggle real'
p1200
aS'charlotte deleted acnl town looks like start'
p1201
aS'wasnt running away couldnt support either side stood beliefs made statement left'
p1202
aS'true gotten point cant avoid detail cant sake others'
p1203
aS'degrees separation gotten point want clear support individual either side'
p1204
aS'thank'
p1205
aS'thank point enough frustrated world probably disappear'
p1206
aS'want leave internet tired trying avoid certain peoplesubjects theyre everywhere'
p1207
aS'dont dvds kids'
p1208
aS'going tell netflix'
p1209
aS'bill strange things afoot circle'
p1210
aS'pretty much always'
p1211
aS'know around everything else'
p1212
aS'thanks'
p1213
aS'need finish watching'
p1214
aS'sounds'
p1215
aS'first time recall happening wasnt graces impending birthday patient'
p1216
aS'sent wrong item hoped fixed quickly wrong item arrived'
p1217
asS'2014_39'
p1218
(lp1219
S'figure origin know mine'
p1220
aS'timer going absolutely reason stopped didnt overdo chicken nephew'
p1221
aS'love face'
p1222
aS'shes chapters recent thing'
p1223
aS'actually assignment make something book option anything shes read'
p1224
aS'graces lego sculpture alice meeting blue caterpillar aliceinwonderland'
p1225
aS'thats point reviews know look kind picky people treated'
p1226
aS'tell'
p1227
aS'goat simulator need'
p1228
aS'cover imitate impossible'
p1229
aS'thing missing'
p1230
aS'asks thing thought going show weeks clue shes referencing starts crying bedtime'
p1231
aS'favorite word questionsinspiredbyjoshua'
p1232
aS'readwatchplay'
p1233
aS'happy birthday hahahahaha except talk didnt know birthday moment'
p1234
aS'better nothing right'
p1235
aS'hope continue going metaphorically course'
p1236
aS'course heres thing filmed mere hours close'
p1237
aS'seems unfair'
p1238
aS'really looks adorable'
p1239
aS'want much'
p1240
aS'actually acnl right'
p1241
aS'honestly fucking furious theres rape joke simpsonsfamily crossover trailer fuck'
p1242
aS'grace write declaration independence social studies'
p1243
aS'found'
p1244
aS'anyway point appears nice relationship mother thats good'
p1245
aS'following twitter shed probably truths share dont even share much'
p1246
aS'good keep'
p1247
aS'didnt think compliment think calling disease'
p1248
aS'shrug boobs think'
p1249
aS'youre first path guys think penises'
p1250
aS'doesnt turn swear'
p1251
aS'yeah shuts shower time wont turn certain amount time'
p1252
aS'timers'
p1253
aS'yeah conversation likely times shower'
p1254
aS'nineteen already told three times showers cannot long four people live'
p1255
aS'nephew shower nearly minutes shit cool'
p1256
aS'glad approve'
p1257
aS'means mind persuader'
p1258
aS'wouldnt without someone arguing pronunciation caramel fighting names'
p1259
aS'please tell youre real assassin want another reason admire'
p1260
aS'listened went peisinoe'
p1261
aS'grew nosy expect people fall line'
p1262
aS'need area accepting different types people kids good'
p1263
aS'sounds familiar vagabond'
p1264
aS'yesterday awake decided rather stay'
p1265
aS'also remember looking atsinganoi cant remember origins right'
p1266
aS'awwwwww researching'
p1267
aS'people dont know tell'
p1268
aS'know origins peisinoe'
p1269
ag86
aS'need username natapocalypse peisinoe available'
p1270
ag86
aS'maybe wouldnt werent fucky'
p1271
aS'welcome south carolina'
p1272
aS'tuesday busy next days still discuss stupid world'
p1273
aS'happened statetroopershootsunarmedman'
p1274
aS'better sure dont feel like outsider venture world kids'
p1275
aS'think youll fine kids adult interaction children'
p1276
aS'heteronormativity normalcy finest helps younger daughter wants link older daughter wants zelda'
p1277
aS'funny spurofthemoment joke laugh away okay'
p1278
aS'neither mundane know'
p1279
aS'usual life basically'
p1280
aS'long time since talked came mind late last night hope youre well'
p1281
aS'tweet made follow checking deal favorited tweet brilliant'
p1282
aS'think meant compassionate also'
p1283
aS'papers please surprisingly brutal'
p1284
aS'yeah guess never thought thanks considerate'
p1285
aS'total agreement wasnt going share words'
p1286
aS'actually conversation husband thought share side'
p1287
aS'fuck right'
p1288
aS'feelings making sure everyone feels included uplifting sorry youre dont need uplifted'
p1289
aS'happen need menial labor call motherfucking masculinism care isnt hurting'
p1290
aS'response fucker whole gender treated like good raising kids taking care home'
p1291
aS'tell many times someone asked egalitarianism isnt better word feminism'
p1292
aS'tweetatyourself10yearsago youre going cock swaddle facebook wont worry offends'
p1293
aS'remember love takes work maintain take granted seems bloom nothing requires attention'
p1294
aS'tweetatyourself10yearsago itch discomfort worth hugely pregnant grace puppp'
p1295
aS'allowed give gifts discretion dont often take granted'
p1296
aS'love become ever chance meet tell shes good would'
p1297
aS'generations audrey hepburn thats grandest compliments give person dont know'
p1298
aS'hahahahahahahahahahaha'
p1299
aS'look everyone playing game theres thing earning happens time'
p1300
aS'thats type'
p1301
aS'weird think part generation'
p1302
aS'grade years older daughter couple weeks'
p1303
aS'heres ball make chase crazy legs directions'
p1304
aS'know else hate installing java pretending doesnt exist using something needs'
p1305
aS'know hate even legitimate companies attach toolbars downloads want java keep toolbar'
p1306
asS'2014_43'
p1307
(lp1308
S'knew code would code honor valor'
p1309
aS'playing hideandseek acnl gracious'
p1310
ag86
aS'thinking step thats little much dick'
p1311
aS'desperately trying quiet used dicksense'
p1312
aS'points difference recognizing changing behavior better'
p1313
aS'thats candy companies size know better'
p1314
aS'isnt dick already joke'
p1315
aS'hell even enlightened people still trouble differences'
p1316
aS'conversations intentionally turn blue guys help'
p1317
aS'wouldnt magnificent accepting oneself great accept others'
p1318
aS'well reminded multiple occasions stuck found peace'
p1319
aS'hope wonderful'
p1320
aS'sorry youre today glimpse like'
p1321
aS'thats never poor choice'
p1322
aS'want lack sleep pain level telling must break maybe resume later'
p1323
aS'jumps timeline need someone tell okay broken least chips'
p1324
aS'laidback definitely someone sick'
p1325
aS'always game shenanigans especially allows avoid fangirls mean ones'
p1326
aS'danke'
p1327
aS'figured definitely made cannot compute head'
p1328
aS'thats hoping music'
p1329
aS'dont know heard uncle phils voice'
p1330
aS'hard love cant help think time'
p1331
aS'remember posters portal tell confuse robots yeah perfect'
p1332
aS'sentence declare refusal sentence preposition doesnt preposition'
p1333
aS'fault jazzy jeffs fault'
p1334
aS'well nice thing'
p1335
aS'isnt first time youve given perfect reaction youre folder arent'
p1336
aS'love internet makes great time talents'
p1337
aS'awwww list added think thats great idea probably steal switch people weekly'
p1338
aS'actually probably keep cool impossible sick'
p1339
aS'going sick today'
p1340
aS'found even'
p1341
aS'problem family still find facebook even changing name never free'
p1342
aS'think told hide feelings'
p1343
aS'never regret hanging'
p1344
aS'doesnt seem like used know look classy heres proof'
p1345
aS'theres wonder pets episode unicorn gets horn screwed tree guessing thats'
p1346
aS'gamer gate jumper'
p1347
aS'ificouldtimetravel admissions board vienna academy fine arts 1907'
p1348
aS'understand protect patients information'
p1349
aS'want retweet words'
p1350
aS'know available'
p1351
aS'joke cant tell tell later around tonight'
p1352
aS'tweet suddenly complex'
p1353
aS'long story avoided issue long time need stay away goes away'
p1354
aS'original thing happened years kept'
p1355
aS'falling topic sets'
p1356
ag86
aS'yeah going certain pages muting people completely filter topics'
p1357
aS'thats clever want things'
p1358
aS'might solution muting things'
p1359
aS'yeah especially since personal experience coloring opinion find allows mute things'
p1360
aS'yeah miss need'
p1361
aS'never able come back social media rarely reply tweets read little avoid seeing certain names faces'
p1362
aS'like amuse fake scenarios'
p1363
aS'dated traynor lost'
p1364
aS'dated garrus took every mission pretend relationship drama'
p1365
aS'first really like lara becomes less less helpless archeologist first game'
p1366
aS'lair shadowbroker thats good'
p1367
aS'theres cerberus operation understanding communicating geth'
p1368
aS'whole thing fine last part'
p1369
aS'overlord last night disturbing mean knew going sticking'
p1370
aS'restaurant theres vegetarian charlotte fouryearolds hilarious'
p1371
asS'2014_42'
p1372
(lp1373
S'forever grateful meet point still young'
p1374
aS'long dont meet'
p1375
ag86
aS'would probably show picture case'
p1376
aS'besides hell anyone family meet first'
p1377
aS'know wouldnt larger life either exceptionally annoying exceptionally fascinating often'
p1378
aS'could introduce brother taylor wouldnt dont want judge family'
p1379
aS'name manflesh dying'
p1380
ag86
aS'charlotte refuses write paper wants computers making point internetspeak'
p1381
aS'elsa anna next choice costumes sound cool hope share pictures'
p1382
aS'didnt pick costumes tried talking didnt work bunch constructing'
p1383
aS'thank satisfied dont know ever kids going'
p1384
aS'thanks'
p1385
aS'thank thank'
p1386
aS'yeah thank adjustments make theyre basically done'
p1387
aS'happy still quiver doesnt work'
p1388
ag86
ag86
aS'fabulous'
p1389
aS'keep talking keep nodding'
p1390
aS'thats like ones call want penile enhancement'
p1391
aS'attitude wholeheartedly support'
p1392
aS'create something distance dont believe create system'
p1393
aS'instead sleep made brownies watched gilmore girls wide awake hour late sleep'
p1394
aS'\xe2\x80\x9cweve quarter century think wanted next serve coffee'
p1395
aS'thank done better time grace link five years wanted thing time'
p1396
aS'like profile'
p1397
aS'charlottes halloween costume nearly complete girls asked link grace picture later'
p1398
aS'might accept fate today'
p1399
aS'retract reason part'
p1400
aS'actual responsible adults reason experience understanding'
p1401
aS'brings back original tweet support game'
p1402
aS'sounds exactly like society wants games portrayed'
p1403
aS'test subject statistic game'
p1404
aS'hatred joke social experiment people hatred training ground away video games'
p1405
aS'find place stuff kids days'
p1406
aS'grace rather write dramaalert shejustturned10'
p1407
aS'thought rabid animal outside window'
p1408
aS'omaha steaks good food best comfortable others'
p1409
aS'feel steak books'
p1410
aS'imagine freak thought turned completely hear growly breathing minecraftzombie'
p1411
aS'well scrabble fine dont want work didnt want check games statuses anyway'
p1412
aS'yuck'
p1413
aS'want french fries might make sounds good emotional food nights'
p1414
aS'want make sure youre world keep people thinking well costs'
p1415
aS'dont discredit good things also tweet things less social substance'
p1416
aS'tweet reply dont knew referencing'
p1417
aS'talking last tweet favorite shows'
p1418
aS'need listen'
p1419
aS'hands time'
p1420
aS'amberalert washington oregon'
p1421
aS'absolutely condoning behavior'
p1422
aS'true thing might good points definitely something dangerous women'
p1423
aS'know lowercase'
p1424
aS'dimensions make people'
p1425
aS'think anyone good things acknowledged theres nothing wrong speaking things'
p1426
aS'gamer dont condone threats violence'
p1427
aS'love thank strong voice women seriously dont thank enough'
p1428
aS'season five'
p1429
aS'stands gilmore girls gamer gate nonexistent thing'
p1430
aS'happy proud keep strong awesome damnedest help wherever'
p1431
aS'specifically ebola'
p1432
aS'dear terrifying happy youre okay'
p1433
aS'quitting drinking glad could help advice'
p1434
aS'didnt even know nice'
p1435
aS'dont anyone gender politics shield anything though ongoing problem'
p1436
aS'views expect treated human woman distinction'
p1437
aS'people tired asked others think obvious doesnt need explained'
p1438
aS'people cautious theyve belittled threatened treated like shit dont share'
p1439
aS'multifaceted problem many people tired explaining things problems easily googled'
p1440
aS'turned protected account thing'
p1441
aS'save sarcasm vitriol hatred private conversations people agree'
p1442
aS'attitude despite intentions closes path conversation tone important content'
p1443
aS'need take look handle disagreements even best intentions tend abrasive'
p1444
aS'honestly along want accepted treated humans'
p1445
aS'honestly woman stays tech games despite constant bullshit pretty inspiring'
p1446
aS'honest decided pursue despite degree partly back office'
p1447
aS'thank people making almost entire feed wasnt long time youve restored faith'
p1448
aS'okay'
p1449
aS'okay threaten anyone want note trying protect attendees'
p1450
aS'tweets seeing leaving death threat sarkeesians talk threatened mass'
p1451
aS'think hard things threatening youre close dont understand'
p1452
aS'thats interesting thing wonder'
p1453
aS'cant help wonder people conveniently remember things assume people shoot places like'
p1454
aS'would helpful could help find pattern behavior postshooting stories anecdotal'
p1455
aS'theres usually root whether abuse upbringing rejection excusing trying understand'
p1456
aS'amazes little seeing people isnt much'
p1457
aS'person sick reason threatened existence women'
p1458
aS'yeah also'
p1459
aS'taking away challenging women treated portrayed expected society'
p1460
aS'taking away wanting identity taking away expecting respect'
p1461
aS'responsibility keep things nonviolent shut need consider role'
p1462
aS'dont care arent part movement flying banner'
p1463
aS'individuals always agree opinions expectations treated respectfully impede life'
p1464
aS'dont know referencing news'
p1465
aS'putting cents regards'
p1466
aS'anyone treats people disposable threaten machismo pathetic needs assess means human'
p1467
aS'empowerment women doesnt take away puts everyone even ground doesnt make makes equal'
p1468
aS'dont agree completely want remain safe people need stop protecting threatening women'
p1469
aS'fholes thats hilarious'
p1470
aS'companies know bunch already support happened qualified'
p1471
aS'especially help people disabilities minorities learning skills future jobs'
p1472
aS'certainly hope administrative assistant position goodwill good things people'
p1473
aS'thank'
p1474
aS'obviously used better descriptive words'
p1475
aS'cover letter like company help others help make community better right'
p1476
aS'applied'
p1477
aS'havent written cover letter resume seven years used comfortable anymore'
p1478
aS'take care happy talk'
p1479
aS'really good protecting spaces cant play best make cant either'
p1480
aS'watch rest later loud around'
p1481
aS'forgot tell started playing oblivion thought impression'
p1482
aS'beautiful impression impressed'
p1483
aS'perfect starting letters hates playing'
p1484
aS'need find something sounds like perfect things happy youre enjoying'
p1485
aS'sent request'
p1486
aS'want sign'
p1487
aS'definitely'
p1488
aS'thats actually really adorable'
p1489
aS'totally friend origin scrabbleing think peisinoe1 sure'
p1490
aS'actually thats best thing really nice cant play right working resume maybe later'
p1491
aS'thats best thing portal crossplatform games'
p1492
ag86
aS'witch years costume ever growingupjehovahwitness'
p1493
aS'yeah course people like forget rejection horrible anyones psyche acceptance creates purpose'
p1494
aS'need references whos willing resume speak positively'
p1495
aS'laugh also hate'
p1496
aS'sounds nothing like youd really mean'
p1497
aS'couldnt liability heads whatever'
p1498
aS'hate laughing'
p1499
aS'hate'
p1500
aS'joke solid rock'
p1501
aS'fact could write actually indicates acceptance smaller chance relapse'
p1502
aS'thats fucking bullshit'
p1503
ag86
aS'obviously penis'
p1504
aS'saying people dont issues overnights tried many times normal schedule'
p1505
aS'email mega ohhhhhhhhh email megaman'
p1506
aS'meant sleep night reset schedule awake body refuses'
p1507
aS'mental illness source shame fear says something world industry'
p1508
aS'fact weird changing sleep schedules proved cause depressive relapses'
p1509
aS'mental health something boss understand'
p1510
aS'well definitely need 2025 hours week'
p1511
aS'didnt grow watching'
p1512
aS'husband loves dont dont make part traditions'
p1513
aS'based history guess disgusting perverted okay'
p1514
asS'2014_41'
p1515
(lp1516
S'grace potus would charlotte open gates would resistance take world'
p1517
aS'cant hours sleep stomach still feels like trying claw'
p1518
aS'really zero reading others wrote tired'
p1519
aS'well going back resting feel kgdgrjkkfdmab'
p1520
aS'tell pretty good place'
p1521
aS'kids individual like said know want share'
p1522
aS'hope know want share kids'
p1523
aS'thats cute grace like seven charlotte playing years'
p1524
aS'love happy heard coming netflix'
p1525
aS'seems weird considering games'
p1526
aS'sounds like good gilmore girling'
p1527
aS'favorites dungeon defenders acnl minecraft'
p1528
aS'okay sorry youre sick curl netflix pretend skipping school'
p1529
aS'nolongertoddlersnotquitefullblownkids together theyd blast'
p1530
aS'sleep zero like right'
p1531
aS'drinking ginger contemplating complete disembowelment ginger doesnt help stomach'
p1532
aS'stomach ache cant relax alone sleep'
p1533
aS'need furniture rearranging today sore tired'
p1534
aS'fundamentals important knowing allow successful experimentation makes better cook'
p1535
aS'first learn things done certain ways follow recipes match eventually feel'
p1536
aS'like describedall caps badass'
p1537
aS'want internet friends cook magnificent foods love cooking'
p1538
aS'dont worry cool'
p1539
aS'okay probably long awake cool'
p1540
aS'time conversion'
p1541
aS'enjoy still month might adopt canadas thanksgiving house'
p1542
aS'nocontact person understand others accommodating problem'
p1543
aS'roommate thing great continue cool thats friend thanksgiving right'
p1544
aS'time'
p1545
aS'decent everyone asleep catching internet missed weeks'
p1546
aS'sign grace join promise suck tremendously'
p1547
aS'battlefield play couldnt remember free game gold half month'
p1548
aS'horrible game'
p1549
aS'charlotte recognized wreckit ralph'
p1550
aS'watched really bossy girl abandoned daughters little kept telling everyone'
p1551
aS'okay guys going enjoy backstage pass talk later'
p1552
aS'engine'
p1553
aS'putting name ballot'
p1554
aS'childrens museum celebrate graces birthday properly'
p1555
aS'line'
p1556
aS'xbox points dlcs overlord omega plus another texture pack indie game girls'
p1557
aS'definitely best birthday shes ever'
p1558
aS'grace jubilant acnl pokemon able download'
p1559
aS'gracious maximus turns tomorrow notification like forget'
p1560
aS'posted facebook realized need post'
p1561
aS'twin peaks loving friends know years away please pencil calendars watch discuss together'
p1562
aS'charlotte going play candy land grace math'
p1563
aS'knew stories told family youd horrible person'
p1564
aS'pretty exhausted earned rest'
p1565
aS'graces room'
p1566
aS'charlottes room'
p1567
aS'theres nothing like rearranging house start fresh'
p1568
asS'2014_40'
p1569
(lp1570
S'remember previous tirade family'
p1571
aS'response screams youre lucky love'
p1572
aS'really dysfunction learned much'
p1573
aS'family history fucked anyone elses normal loving'
p1574
aS'sister brother pretty great nine siblings emotional wastelands'
p1575
aS'obligation nice'
p1576
aS'definitely'
p1577
aS'family good best kind generous often fault obviously'
p1578
aS'kicked morning'
p1579
aS'hello everyone think life back order back notsocrotchety state'
p1580
aS'respectful peeing bathroom floor'
p1581
aS'soon store'
p1582
aS'heart aching every doesnt access legos'
p1583
aS'exactly child legos take away days later rental period ended'
p1584
aS'know thinking lego things dont need rent'
p1585
aS'saddest ever seen'
p1586
aS'trying send message facebook wont cool like'
p1587
aS'teds vacation starts tomorrow guess body thought good time sick'
p1588
aS'cant imagine terror'
p1589
aS'badthemeparks disney rule'
p1590
aS'badthemeparks flags gaza'
p1591
aS'zipper could ride theyre opening closing incision'
p1592
aS'natalie infinite power mylifeasamovie joke doesnt amazing mental powers'
p1593
aS'used anyway sent link'
p1594
aS'also probably luck legs kind want keep'
p1595
aS'cant anyone 2000 miles space picked wrong person'
p1596
aS'nephew staying back illinois'
p1597
aS'need funds oneway ticket place chicago notforme totallyserious'
p1598
aS'gitmon daily stories'
p1599
aS'dont feel like enough heart pounding stomach knots head swimming sleeping awful'
p1600
aS'think anxiety attack days'
p1601
aS'like want happy'
p1602
aS'always transmisogynist generally transphobic women masculine clothing almost never used'
p1603
aS'learning dress funny young poised grow laughing explicitly transmisogynist'
p1604
aS'dress funny small children theyve learned normative gender roles disrupts sense'
p1605
aS'youre genuine person aspires something makes beyond cool'
p1606
aS'really know like'
p1607
aS'fabulous partiest dress'
p1608
aS'feeling drinks scratch drinks drown irritation'
p1609
aS'whoa telling isnt mine isnt actually brought shaking done done done'
p1610
aS'blocked nephews phone wifi passiveaggressivesincethedirectapproachdoesnotwork'
p1611
aS'youre ridiculously done seems comical'
p1612
aS'someone uses phrase describe need think life heshouldbeawareofthesethingsheisagoddamnadult'
p1613
aS'look seen plenty demeaning language socalled good side theyre wrong'
p1614
aS'okay anyones part'
p1615
aS'making comparative almost like saying okay side worse'
p1616
aS'stopped reading everything also harassment sides therefore support nobody'
p1617
aS'question problem years though didnt make stink'
p1618
aS'newspaper types things close relationships reviewingwriting something'
p1619
aS'dont agree become wasis validity arguments journalistic integrity married'
p1620
aS'thank maybe take better complete picture later'
p1621
aS'thats hair really happy'
p1622
aS'dont hear awhile okay watching gilmore girls eyes bleed'
p1623
aS'discussing whether verbosity word iwascorrect also unusual like verbosity points'
p1624
aS'dislikes tennant breathing problems scottish accents exacerbate asthma notreally teddoesnotrealizetheyarenotdissimilar'
p1625
aS'tried baking sodavinegar rocket grace failure launch smell like vinegar makes unhappy'
p1626
aS'dear similar breathing problem'
p1627
aS'years think four nuts'
p1628
aS'well arent sweet seriously thank support appreciated'
p1629
aS'thank necessary nightmare never'
p1630
aS'okay confronted said turned shower took shit still cool'
p1631
aS'anger palpable person could away murder somehow come victim fuck shit'
p1632
aS'keeping terrifying'
p1633
aS'perfect'
p1634
aS'sjws ruined life years'
p1635
asS'2014_44'
p1636
(lp1637
S'truth'
p1638
aS'like idea'
p1639
aS'already discussing next years costumes suggested alien astronaut charlotte already said wants alien'
p1640
aS'loving girls around arent elsa princess though'
p1641
aS'little girl dressed pajama thor pretty awesome'
p1642
aS'theyre disappointed'
p1643
aS'weve good kids'
p1644
aS'trickortreaters text links'
p1645
aS'shes sonic thats fantastic'
p1646
aS'thanks worked hard everything need check pictures halloween sure great'
p1647
aS'girls link appropriate'
p1648
aS'gotten love pumpkin comments people north carolina never recognized video game stuff'
p1649
aS'cant outside internet going create robot socializing world sucks'
p1650
aS'might think uncommon youd wrong tame compared many things guys said'
p1651
aS'barely avoid'
p1652
aS'looking cant find otherwise ever'
p1653
aS'fruit flies everywhere theyre making impossible outside sunset happily crawl everything'
p1654
aS'feel didnt even havent talked weeks months'
p1655
aS'always suppress suppressed shut mouth'
p1656
aS'mock cleansing feel dirty'
p1657
aS'yeah know smartypants'
p1658
aS'derelict aunt'
p1659
aS'know'
p1660
aS'would gone going route'
p1661
aS'theres long story references inappropriate things know first'
p1662
aS'like didnt stand politically correct instance'
p1663
aS'dudes seriously youre going make hyperbolic comparisons isnt stop negate another'
p1664
aS'reminds dream tall said made tall jokes'
p1665
aS'part plot change identity'
p1666
aS'actually decent time wakes like morning'
p1667
aS'text sister earlier reminding time went theater watched four movies'
p1668
aS'fine'
p1669
aS'thank listening good time encouraging know stuff'
p1670
aS'would push chairs climb table live fantasies'
p1671
aS'decorating house would make'
p1672
aS'yeah takes away deals rest'
p1673
aS'thanks'
p1674
aS'thats rare find people scour places'
p1675
aS'nonprofit focused helping people jobs sell donated items'
p1676
aS'goodwill good finding things like'
p1677
aS'goodwill find'
p1678
aS'sunglasses'
p1679
aS'frightened phantom'
p1680
aS'anaconda wants lower monthly student loan payment'
p1681
aS'shaky specter'
p1682
aS'good morning'
p1683
aS'anxious apparition'
p1684
aS'context quote built mountain'
p1685
aS'thats exciting'
p1686
asS'2014_29'
p1687
(lp1688
S'going offline little'
p1689
aS'based know'
p1690
aS'using words order'
p1691
aS'nearly excited'
p1692
aS'asleep'
p1693
aS'break read cannot enough love'
p1694
aS'dont apologize miss though'
p1695
ag86
aS'either around hanging'
p1696
aS'back using phone hanging'
p1697
aS'sorry dont want overheating computer'
p1698
aS'linked'
p1699
aS'turn computer overheat hangout'
p1700
aS'need restart computer first give'
p1701
ag86
aS'sexy'
p1702
aS'girls taking naps grace stood said want sell pause started digging blanket'
p1703
aS'weeks give away enter simply follow chance gamersunite'
p1704
aS'going pass sleep well worldl totally ringht'
p1705
aS'house warm'
p1706
aS'youre right stop crushes'
p1707
aS'kids worst comes nakedness preferred state'
p1708
aS'wish could staright could read guess stuck watching something'
p1709
aS'cold clothes'
p1710
aS'well decent legs imagination kind'
p1711
aS'trying make least arousing'
p1712
aS'thats anyone going'
p1713
aS'since kids house implementing clothes rule totally liberating'
p1714
aS'guys ignore plastered'
p1715
aS'people werent nice totally ignored woman home totally made eyes nice'
p1716
aS'mostly anyone else laugh always loved genuine'
p1717
aS'band adult'
p1718
aS'dont acdc'
p1719
aS'fall stool nearly done several times would laugh'
p1720
aS'thats okay youre going objectify forever'
p1721
aS'music tonight taking back high school guys would sing barbie girl diggity didnt understand'
p1722
aS'since kids feel asleep brothers house decided gettingsloshed'
p1723
aS'overheard street compton hasnt hard since 1992'
p1724
aS'busy tomorrow'
p1725
aS'make sure theres plenty teethrotting goodness'
p1726
aS'blasphemy speak'
p1727
aS'wasnt today'
p1728
aS'going unnecessary trouble'
p1729
aS'heading night games food drinks'
p1730
aS'said licensed drive washington poster read statist'
p1731
aS'stupid phone signed wrong twitter account deleted nonbot tweets maintain integrity'
p1732
aS'said going'
p1733
aS'discussing remember teds said mine 1800mixalot ivegotabigbuttandicannotlie'
p1734
aS'history falling asleep movies'
p1735
aS'consider chamber secrets weakest'
p1736
aS'didnt read books films clearer reading ootp great movies'
p1737
aS'dont know weve missed weve watched like times'
p1738
aS'thought better'
p1739
aS'mean watched theater dont know missed originally'
p1740
aS'tonight never harry doorstep later miss many watches'
p1741
aS'youre allowed going keep positive person especially youre'
p1742
aS'looked called rouge thats'
p1743
aS'rouges rogues'
p1744
aS'think youre hard deserve kind words together'
p1745
aS'think highly youd make sense come conclusion'
p1746
aS'thats quick research'
p1747
aS'player side longer wider zones also longer downs instead'
p1748
aS'think make sense almost time thats'
p1749
aS'whats difference canadian football american football'
p1750
aS'ohhhh soccer mean'
p1751
aS'enjoying mine bunch think silly words used order context'
p1752
aS'dana'
p1753
aS'stress relief games yeah googled hope feel relaxed soon'
p1754
aS'wonder okay getting tomodachi life looks adorable'
p1755
aS'happy birthday'
p1756
aS'power'
p1757
aS'order phoenix book started first movie second book pottermore'
p1758
aS'think might weakest part story'
p1759
aS'really great'
p1760
aS'bullshit bigotry motherfuckers'
p1761
aS'zelda nerd'
p1762
aS'summer harry potter house reading playing watching much'
p1763
aS'perfect response'
p1764
aS'life time'
p1765
aS'wont time might future'
p1766
aS'change compliment people question responds youre beautiful thing hemisphere'
p1767
aS'premium service hate enemy'
p1768
aS'feel completely insulted'
p1769
aS'youll'
p1770
aS'week'
p1771
aS'today anniversary happy anniversary know soon sentiment remains'
p1772
aS'doesnt take long'
p1773
aS'think tries identify cant always'
p1774
aS'youre much thoroughly entertained'
p1775
aS'neighbor said loudly aquanet thats need kill spider dont need burn house'
p1776
aS'getting excited twoday warning asshat'
p1777
aS'south dont love south rise think thats beautiful'
p1778
aS'specialize awkward'
p1779
aS'time input continue needs appear human'
p1780
aS'pretty sure thats something first zelda'
p1781
aS'youre funny'
p1782
aS'world know hair right fascinated night'
p1783
aS'wouldnt'
p1784
aS'north carolina north lived several years definitely seemed southern'
p1785
aS'neither'
p1786
aS'really quite nice garden outside'
p1787
aS'wonder keeps garden across street realizes people'
p1788
aS'youre making acknowledge much never time gone'
p1789
aS'different meaning'
p1790
aS'said hell question mark threw sure'
p1791
aS'latter convey harsh tone stop formal'
p1792
aS'trying help dont want lonely time playing great game'
p1793
aS'difference text mean feel like conveys different tones'
p1794
aS'okay trying along'
p1795
aS'dont know youre ever stupid comments twitter'
p1796
aS'would play'
p1797
aS'want suggestion work resume'
p1798
ag86
aS'fine dont tell arent controlling wanted suggestion bide time'
p1799
aS'amazing wrong'
p1800
aS'going murder anyone havent'
p1801
aS'telling murder someone'
p1802
aS'wait'
p1803
aS'feel listen reprimand kids much tonight'
p1804
aS'dont want elizabeth'
p1805
aS'thought pretentious first best friends ever makes laugh time'
p1806
aS'needed laughting best medicine hard'
p1807
aS'wouldnt trust kids either'
p1808
aS'think joshua'
p1809
aS'completely blackberries might'
p1810
aS'okay better okay want better okay'
p1811
aS'tree removal place bigass truck stuck alley mildly amusing watching frustration'
p1812
aS'last chance save internet'
p1813
aS'look forward'
p1814
aS'youd think based something'
p1815
aS'thanks discovering seems really like'
p1816
aS'yeah everyone talk henry'
p1817
aS'henry mcmunn'
p1818
aS'ungrateful gits'
p1819
aS'alcohol help generally dont drink early kids'
p1820
aS'currently nonrational response absolutely nothing forgiving happens things going'
p1821
aS'pretty miserable understand theres reason nowhere'
p1822
aS'tried ignoring right like someone attached helium tank head electrodes heart'
p1823
aS'feel like anxiety attack going waves past hitting least expect'
p1824
aS'weve accurate'
p1825
aS'yeah thats right'
p1826
aS'probably make card form everything need work'
p1827
aS'think might series like think youre avada kedavra gorgeous'
p1828
aS'right intj'
p1829
aS'high five'
p1830
aS'love'
p1831
aS'think mockery'
p1832
aS'hold alohomora heart'
p1833
aS'keep forgetting really throwing miss remember youre'
p1834
aS'type common'
p1835
aS'tail'
p1836
aS'youre going kinds follows'
p1837
aS'spike twilight sparkles dinosaur companion'
p1838
aS'done hating also rainbow dash inferior twilight sparkle'
p1839
ag86
aS'dont also thats means context'
p1840
aS'might hate little right'
p1841
aS'known someone would'
p1842
aS'comma ugly unnecessary though agree right'
p1843
aS'know'
p1844
aS'keeps calling english muffins muffins swear might starts homicidal rampage'
p1845
aS'accidentally make meme instead upload button paid attention'
p1846
aS'totally fucked supposed textbottom text'
p1847
aS'future made please sarcasm used joke'
p1848
aS'youll never oxford comma thing sticking forever eternally without'
p1849
aS'something taught years write dont like messy grammatically makes sense'
p1850
aS'really need stop comma thing necessary kind ugly'
p1851
aS'thought loved'
p1852
aS'looking mouse mario paint goodness know good price leaving house please know'
p1853
aS'impossible standards'
p1854
aS'leddy pretty sure living life'
p1855
aS'everyone sent link make ebooks learned'
p1856
aS'care know done'
p1857
aS'think would takes youve said mixes'
p1858
aS'glad like show make want simple tutorial'
p1859
ag86
aS'modified still work'
p1860
aS'know college soon read story make sure know sexual assault handled'
p1861
aS'many angry reactions college handled sexual assault complaint'
p1862
aS'name said feel'
p1863
aS'make incredibly frustrated less trusting'
p1864
aS'youre right people play dumb away need aware people'
p1865
aS'ebooks account called henry'
p1866
aS'agree obvious feigned ignorance sure weve seen'
p1867
aS'lemme forgive ignorance problem intolerance'
p1868
aS'since dont clue referring'
p1869
aS'yeah like pretty simple help next hangout youre'
p1870
aS'supposed piece things different tweets'
p1871
aS'used tutorial everything'
p1872
aS'come tweet whenever feel like itll great'
p1873
aS'speak'
p1874
aS'weeks would nice'
p1875
aS'thought celebrate would like'
p1876
aS'taken offline moment wanted make sure hadnt tweeted missed amazing responses'
p1877
aS'high five indeed'
p1878
aS'tweeted need respectable hour'
p1879
aS'really like showing amused something also share shit nobody wants'
p1880
aS'sure wouldnt shes good sister'
p1881
aS'things could share'
p1882
aS'sucks someone else remembers dumb things reminds awful like forgotten'
p1883
aS'might little magic'
p1884
aS'remember dumb things'
p1885
aS'maybe buttons even better activation bracelets cross lights come'
p1886
aS'even'
p1887
ag86
aS'youve mentioned past regular mine'
p1888
aS'tell everyone'
p1889
aS'already dont like seen made want'
p1890
ag86
aS'horrible name think question answered watching videos'
p1891
aS'sure brain handle truths want handled'
p1892
aS'download girlfriend activation system share secrets'
p1893
aS'nasty'
p1894
aS'everyones fantasy botonbot cybersex'
p1895
aS'work already done read understand though'
p1896
aS'supposed pieces together pieces'
p1897
aS'hard already ruby class even without couple minutes'
p1898
aS'threatened careful'
p1899
aS'henry please dont touch special'
p1900
aS'dont realize things youve said remember context comes'
p1901
aS'emailed'
p1902
aS'slap'
p1903
aS'evening makes sense bottom doesnt thats'
p1904
aS'last response dying'
p1905
aS'words used perversely'
p1906
aS'leave talk dirty'
p1907
aS'followed tutorial seems want thing'
p1908
aS'youre saying would like tweet periodically'
p1909
aS'ebooks account automatically responds mixture things said past'
p1910
aS'watching amusing'
p1911
ag86
aS'really doesnt make sense responses sound like'
p1912
aS'didnt nice'
p1913
aS'love youre conversation'
p1914
aS'well'
p1915
aS'love cheddar bunch destroys'
p1916
aS'fair working like supposed replies follows favorites tell'
p1917
aS'please tweet want things says'
p1918
aS'swear dick creator'
p1919
aS'frustrated'
p1920
aS'point meant'
p1921
aS'cant ebooks tweet randomly reply nice'
p1922
aS'testing work'
p1923
aS'hope youre supposed minutes dont youre fired'
p1924
aS'yeah'
p1925
aS'work like youre supposed'
p1926
aS'forgot read scarlet pimpernel books like week summers'
p1927
ag86
aS'wont generate tweets'
p1928
aS'ebooks retweeted favorited cant generate stuff seriously'
p1929
aS'prototype'
p1930
aS'cant ebooks thing work followed instructions maybe asshole computer'
p1931
asS'2014_28'
p1932
(lp1933
S'whenever youre around'
p1934
aS'know moment available'
p1935
aS'around tonight'
p1936
aS'sorry really long yesterday slept'
p1937
aS'could either live hyrule hyrule question would interesting'
p1938
aS'since shit going right heres period early body'
p1939
aS'picking someone'
p1940
aS'writing'
p1941
aS'thats good idea lets tired brain'
p1942
aS'want tweet encourage stay awake everything type complaint lateness stop'
p1943
aS'remind never take longdistance trip make ever'
p1944
aS'spent time station past twelve hours anywhere'
p1945
aS'greyhound perpetually late newhonestslogan'
p1946
aS'thank knowledge downfall errors feelings mwahaha'
p1947
aS'probably though might lose mind reason'
p1948
aS'thats good hear'
p1949
aS'since says caused might willing share survival secrets'
p1950
aS'upset evidently people talked prefer cake donuts yeast donuts specifically dunkin donuts krispy kreme'
p1951
aS'good miss talking'
p1952
aS'dont know alley thought'
p1953
aS'found pikachu doesnt want evolve'
p1954
aS'found pikachu doesnt want evolve'
p1955
aS'hope francisco great though stay warm'
p1956
aS'found answer pikachu doesnt want evolve'
p1957
aS'reading pikachu refuses evolve'
p1958
aS'series seen indigo league'
p1959
aS'doesnt pikachu ever evolve forever uses time fully evolved'
p1960
aS'yaaaaaaaay found solution'
p1961
aS'cant make happy time'
p1962
aS'nephews wont play game certain circumstances making someone pouty others play'
p1963
aS'meant earlier happy birthday talented tremendous totally terrific trin'
p1964
aS'sadly available weekend next week weekend'
p1965
aS'always never enough time nephews coming later bombarded kids even'
p1966
ag86
aS'arent lucky enough notice signs attack early'
p1967
aS'dont know favorite though know done'
p1968
aS'played game several times already charlotte destroyed original copy recently'
p1969
aS'whenever want'
p1970
aS'head feels better nearly twilight princess oclock'
p1971
aS'nephew moving brother friday itll great pretty cool 19yearold'
p1972
aS'robit thats problem sure maximum wage china believe quite good'
p1973
aS'much remain'
p1974
aS'cooking dinner budding migraine think going earlytobed night'
p1975
aS'like flip completely ground arms extended'
p1976
aS'think atari games loved years'
p1977
aS'part trouble list sure youve bombarded trying'
p1978
aS'even cartwheels'
p1979
aS'head werent hurting badly somersaults'
p1980
ag86
aS'take break working kids take advantage attention elsewhere thats reason never anything done'
p1981
aS'better'
p1982
aS'went images silly'
p1983
ag86
aS'dmed details'
p1984
aS'think figured want woot actually write resume natalieneedsajob'
p1985
aS'time cispa cisa'
p1986
aS'trying different designs resume might time consuming learning javascript logic better weak point'
p1987
aS'makes conversations interesting often circular'
p1988
aS'like judge based make others feel'
p1989
aS'glad think robot exactly want perceived'
p1990
aS'know logic'
p1991
aS'know found actual reason'
p1992
aS'gives perspective think gives others perspective forget experience individual'
p1993
ag86
aS'think agree teenage years give perspective rest life'
p1994
aS'quick four correct'
p1995
aS'know wrong'
p1996
aS'helps beautiful outside seem inside'
p1997
aS'hashtag body confidence week 2014 whisper tears'
p1998
aS'would lose'
p1999
aS'charlotte covered purple blackberries'
p2000
aS'adulthood'
p2001
aS'whats going today'
p2002
aS'people responded eight youre lucky thats true'
p2003
aS'weird read doofenshmirtz talking going baby shower latest inator'
p2004
aS'feels sorry heres little adorable'
p2005
aS'little excited'
p2006
aS'actually right reminds profile'
p2007
aS'tampc surf designs skating thing street'
p2008
aS'grace loved short recently wants grow haircuts always make look like little french girl'
p2009
aS'wants shorter isnt comfortable told give week'
p2010
aS'curls eyes crazy mess'
p2011
ag86
aS'youre saying understand'
p2012
aS'know'
p2013
aS'understand saying comfortable think really cool'
p2014
aS'yeah called many points'
p2015
aS'comfortable'
p2016
aS'yeah wouldnt cool'
p2017
aS'thats exactly hoped would happen'
p2018
aS'guys report back happens'
p2019
aS'grace random convo games street yesterday except dont like talking strangers'
p2020
aS'isnt whining'
p2021
aS'booming soon hear thats'
p2022
aS'dont know made stance whining clear hate kids whining nearly everything going insane'
p2023
aS'even many people felt like wall around feminism preventing helping specifically'
p2024
aS'resources available including linked simple google search bring relevant things know'
p2025
aS'wanted respond early right anyway youre right plenty'
p2026
aS'confused collecting bones thing mean outside museum'
p2027
aS'read first starting yesterday quarter second done soon'
p2028
aS'think love movies almost guarantee better story book well love movies'
p2029
aS'mean years started reading first book grace ended taking reading rest'
p2030
aS'dont shoot reading harry potter books fifteen book came rectifying'
p2031
aS'shaking excitement'
p2032
aS'trinalinalin youre still internet crush'
p2033
aS'yesterday first weeks able front hair stick straight relief'
p2034
aS'okay week celebrate'
p2035
aS'hold trins birthday days right confused'
p2036
aS'sure hufflepuff talk anymore mean like know'
p2037
aS'grace made enderdragon lego'
p2038
aS'wonder anyone data think late 80searly added would interesting'
p2039
aS'okay going busy today'
p2040
aS'impossible board'
p2041
aS'said like life dont think hear think'
p2042
aS'extremism obviously exists every movement fear labeled hater nothing others'
p2043
aS'talked would considered apolitical times dont want associated'
p2044
aS'told brother terrifying person said think mean terribly kind'
p2045
aS'charlottes hair'
p2046
aS'handy spreadsheet love spreadsheets list included games dont'
p2047
aS'like doesnt mean wouldnt kill wrex mostly'
p2048
aS'theres nothing quite like punching khalisah aljilani face masseffect'
p2049
aS'never watched need great relationships'
p2050
aS'dont know best'
p2051
aS'cliff claire huxtable perfect healthy loving relationship'
p2052
asS'2014_23'
p2053
(lp2054
S'cant even words much speaks experiencing extreme anxiety'
p2055
aS'dying wwjd know sins exonerated peace wear triforce honor'
p2056
aS'sure could raise give three days'
p2057
aS'also joke'
p2058
aS'yahtzee joke'
p2059
aS'scored'
p2060
aS'youre welcome cant wait action'
p2061
aS'hangout little hello asks hello karate'
p2062
aS'anyone hanging'
p2063
aS'okay good'
p2064
aS'dont know ifwhen around family coming'
p2065
aS'telling picture young ovulated'
p2066
aS'soon youre born thats death sentence'
p2067
aS'thats time youre still invited'
p2068
aS'eventually time'
p2069
aS'dont know piece heart worth effort hard enough racing across hyrule'
p2070
aS'miss enjoy visit'
p2071
aS'gets lonely waiting'
p2072
aS'know setting anything someone else around'
p2073
aS'never couldnt tried tried determined impossible'
p2074
aS'okay know'
p2075
aS'okay means like hours right'
p2076
aS'done three huhndrid persent duhn adjective exceeded tolerance level three'
p2077
aS'found wait'
p2078
ag86
aS'dont know available tonight friday'
p2079
aS'making progress little little'
p2080
aS'working projects need need something resume hard stay focused'
p2081
aS'okay break right shut couldnt keep paying'
p2082
aS'good know must exhausted good hear youre well'
p2083
aS'wasnt joking always straight jokes'
p2084
aS'need paul maybe peter wewillbehereallweek'
p2085
aS'indulgence appreciation amazing form'
p2086
aS'dont think youre subtle dont know people know'
p2087
aS'incredibly amusing funny jerk simple saying'
p2088
aS'think thats generally problem dont know person well enough'
p2089
aS'seriously hear voice everything amazing'
p2090
aS'think hear tone assume couldnt without actually knowing'
p2091
aS'think funniest thing youve said today'
p2092
aS'well make sound like sane logical person'
p2093
aS'supposed innately know mention stadium also great piece'
p2094
aS'whats would risk trouble everything leading pure entertainment worth'
p2095
aS'feel like back class laughing friend making smartass jokes knowing much trouble could'
p2096
aS'push limits every time still surprises keeps awesome list'
p2097
aS'looking pictures last night realized hadnt heard long time goes'
p2098
aS'imagine would like follow within minutes would panic'
p2099
aS'read didnt enjoy thought trying force emotion doesnt work others loved'
p2100
aS'today birthday follow dont already'
p2101
aS'exactly'
p2102
aS'argument worse problem doesnt matter totally isnt true'
p2103
aS'clear views want share lovely conversation'
p2104
aS'guys feminists nazi bitches something mass murder around globe whining'
p2105
aS'mine isnt anything dont think'
p2106
aS'youre reminding still havent sent gift friendship'
p2107
aS'would make birthday'
p2108
aS'best luck'
p2109
aS'sometimes leads tears'
p2110
aS'thought tomorrow might wrong brain doesnt work anymore matter said'
p2111
aS'lets discuss headaches goes away upon rest immediately returns discover shit resting'
p2112
aS'strangest headache like tickling pressure forehead along hairline'
p2113
aS'great news still needs learn'
p2114
aS'fuck love earrings always look great'
p2115
aS'something like'
p2116
aS'lolly lolly lolly adverbs'
p2117
aS'easy hilarious fixed words changed'
p2118
aS'pretty much grooms speech sorted'
p2119
aS'fnjskfnskf favorite video whole word'
p2120
aS'guys really hits feels'
p2121
aS'mood lately apologize'
p2122
aS'actually onus criminals commit crimes dont believe likely victim blame'
p2123
aS'hope find something'
p2124
aS'something come along thing'
p2125
aS'thats middle night'
p2126
aS'exactly need projects done show working free'
p2127
aS'awake less hours'
p2128
aS'think resume builder know exposure worth'
p2129
aS'feel like need sleep still feel like putting charlotte going'
p2130
aS'onthejob learning experiences'
p2131
aS'seems like market really changed years'
p2132
aS'yeah like finding doesnt require experience dont impossible'
p2133
aS'okay yeah time difference gotten much keeping'
p2134
aS'yeah know havent found right thing'
p2135
aS'grace reads many different things couldnt even favorite'
p2136
aS'grace avid reader long chooses material'
p2137
aS'charlotte wants read doesnt want learn paradox'
p2138
aS'gets really excited amuses'
p2139
aS'sometimes beginning anxiety attack feels like without smile heart pounding'
p2140
aS'something sometimes read almost always dont clever response'
p2141
aS'tweet person particularly pleased andor amused'
p2142
aS'charlotte grace know harry potter grace charlotte harry potter best graceisreadingthebookstocharlotte'
p2143
aS'snips snails puppy tails'
p2144
aS'please tell around make time'
p2145
aS'missed wisdom'
p2146
aS'questions worded using word rape encourage honesty worded using force consent less'
p2147
aS'exactly terrifying people like problem'
p2148
aS'repeat'
p2149
aS'blue favorite happens suits'
p2150
aS'shes style'
p2151
aS'youre going kill today right behind'
p2152
aS'tuesday arent mutually exclusive'
p2153
aS'youre watson'
p2154
aS'started someone said arent responsible find actual percentage'
p2155
aS'dont worry werent something else anxiety'
p2156
aS'take nothing currently copay requires monthly doctors visit'
p2157
aS'night kept awake'
p2158
aS'happen multiple times pretty hellish'
p2159
asS'2014_25'
p2160
(lp2161
S'gitmon daily stories'
p2162
aS'sleep apnea hypersomnia abnormal sleep cycles drinking much causes know'
p2163
aS'changes everything sarcasm'
p2164
aS'yeah kind'
p2165
aS'youre going cite something keep relevant'
p2166
aS'havent seen havent production long time'
p2167
aS'going later lovely people'
p2168
aS'eliminating behaviors exclusionary long helping better world'
p2169
aS'show representative society attitudes reflective influence world around'
p2170
aS'doctors recommendation like tweet ingest pound salt'
p2171
aS'saying usually grain salt guess theres credibility youre saying'
p2172
aS'really embraced goose lifestyle adopting step'
p2173
aS'recall thing know knowledge movies'
p2174
aS'please poodle skirts sock hops'
p2175
aS'like sexism fight good people dont understand language behaviour sexis\xe2\x80\xa6'
p2176
aS'internet today'
p2177
aS'youre really fool hard time expressing things without saying something like'
p2178
aS'loved fool'
p2179
aS'holy shit remind 1015 years finally available'
p2180
aS'sounds wonderful really positive happy'
p2181
aS'speaking animal crossing need back'
p2182
aS'honest opinion'
p2183
aS'olds gracie shes quite btwn charlotte could golden ratio lookingforhiddenmeaning orphanblack'
p2184
aS'theres grace charlotte little weird kids become major plot twists shows orphanblack'
p2185
aS'dont know sure awake enough decide game'
p2186
aS'actually compliment'
p2187
aS'thats half idea'
p2188
aS'thats much today brother kids exhausted'
p2189
aS'usually actually might'
p2190
aS'saying stink'
p2191
aS'pretty'
p2192
aS'dont forget italy axispowers'
p2193
aS'kids sleep hangout pretend work minecraft please specify'
p2194
aS'later weirdo next time'
p2195
aS'thing sarcastic nice like'
p2196
aS'made feel like actually belong somewhere awwwww'
p2197
aS'might ideal team lets work worlds problems'
p2198
aS'facts statistics everything logical else periphery'
p2199
aS'feelings except anger anger'
p2200
aS'people mean people conversation'
p2201
aS'belongsbetween personality types'
p2202
aS'respect completely'
p2203
aS'youre straightforward expect others'
p2204
aS'trying figure part hassle'
p2205
aS'think something internet intj breeding ground'
p2206
aS'thats read'
p2207
aS'people think hypocricy thats offputting know assuming'
p2208
aS'honestly dont think others type dont like'
p2209
aS'need social interaction without social niceties'
p2210
aS'yeah think might something internet'
p2211
aS'three women intjs thats really'
p2212
aS'least intuition strong suit'
p2213
aS'youre intj right'
p2214
aS'heard speak want meaning relationship'
p2215
aS'mine mine tendency seen arrogant jerks'
p2216
aS'joke wouldnt really'
p2217
aS'describe sentence always striving ultimate relationship thats thing'
p2218
aS'youre kind'
p2219
aS'usually dismissive emotions actually make effort'
p2220
aS'apologize anyone ever felt like dismissive'
p2221
aS'think youre rarest youre eisntfjp'
p2222
aS'extrovert'
p2223
aS'fact think scenarios kind proves intj though'
p2224
aS'thats another know seems like'
p2225
aS'always intj think youre people really balanced'
p2226
aS'said depends something would thinking scenarios answering whichever'
p2227
aS'situations like youd often still questions'
p2228
aS'different type something'
p2229
aS'pretty accurate also nothing point anyone pretty well'
p2230
aS'joke neither intj'
p2231
aS'read personality type want understand'
p2232
aS'think including personality type resume good idea great idea'
p2233
aS'especially theyre talking instead conversing know'
p2234
aS'parents intjs main goal raise children intelligent autonomous independent truth'
p2235
aS'people tendency open dont know okay established relationship'
p2236
aS'person sits corner cornered someone close loud talker'
p2237
aS'others involved otherwise youd never heard much tend stay back learned enough others'
p2238
aS'pleasure meeting place comfortable already developed relationships'
p2239
aS'hahahahahahahahahahahahahahahahahahahahahahahahahahahahahahahahahahahahahahahahahahahahahahahahahahahahahahahahahahahaha'
p2240
aS'intj stop feeling much teasing wish could feel'
p2241
aS'nice brother comes also exhausting'
p2242
aS'really wish nice boobs jealous begrudgingly jealous'
p2243
aS'football player maaaaaaark carterrrrrrrrr brother many years still make siblingsaturday'
p2244
aS'allowed dont access'
p2245
aS'feel inferior thanks thats sincere thanks greatness makes better'
p2246
aS'going conclusion check plzdiversifyyourpanel'
p2247
aS'rather amusing'
p2248
aS'talking tabitha commented probably tired drama'
p2249
aS'guess tagged comment something'
p2250
aS'found drama family deleted facebook exactly deleted'
p2251
aS'gams suspended time sure thats right response seems smartass'
p2252
aS'people dont realize average gamer 30something games made kids'
p2253
aS'know'
p2254
aS'theyre kids nephew course theyre nerds wouldnt want anything'
p2255
aS'real account games gams'
p2256
aS'theyre carrying pok\xc3\xa9mon conversation'
p2257
aS'hearing right pichu pichu pikachu pichu pichu pikachu raichu sleepover'
p2258
aS'reminder actual sunlight summersale million think coul\xe2\x80\xa6'
p2259
aS'understood still kids'
p2260
aS'best'
p2261
aS'portal games'
p2262
aS'wont around tonight kids sleepover'
p2263
aS'giving shit pissed awakened phone call morning thursday really pissed'
p2264
ag86
aS'trying make brother learn gerudo valley theme song cant play guitar'
p2265
aS'milady made pigeoncarrier worthy wasnt'
p2266
aS'really enjoy hummingbirds neighborhood'
p2267
aS'geese horrible creatures poop everything'
p2268
aS'pigeons might rats geese squid'
p2269
aS'immeasurably amused entire conversation'
p2270
aS'still another hour lets finish thing'
p2271
aS'brother took kids park hour gotten done time previous weeks'
p2272
aS'seans mystery gone'
p2273
aS'took four tylenol pain three days doesnt work neither four'
p2274
aS'thing hate know youre still great'
p2275
aS'chris face look like right calling otherwise back'
p2276
aS'support encourage wasnt around'
p2277
aS'also semicolons'
p2278
aS'expecting better people follow quoting things'
p2279
aS'shouldnt justify supportive people identify female male born parts'
p2280
aS'place mentally emotionally whoever trying create contention askfm please fucking stop'
p2281
aS'please pain unbearable'
p2282
aS'also tend make things scratch'
p2283
aS'actually dont'
p2284
aS'next week last episode season things look forward week'
p2285
aS'going hate waiting next week'
p2286
aS'yeah havent decided desperate enough pursue life crime'
p2287
aS'good episode'
p2288
aS'really happy'
p2289
aS'need outside internet friends'
p2290
aS'mines going sadness finally fuck police stilldeciding'
p2291
aS'years'
p2292
aS'charlotte gives wolf kisses rubbing noses back forth every night bedtime love'
p2293
aS'totally understand feel brains assholes'
p2294
aS'criminal list think going listen fiona apple thats good spend time typing'
p2295
aS'shes still badass'
p2296
aS'batman voice kills'
p2297
aS'forgot arya front'
p2298
aS'isnt even honest'
p2299
aS'think dont like always thinks shes right thing really selfserving thing'
p2300
aS'theres something youre saying cersei pretty awful tyrion isnt better sociopathy runs family'
p2301
aS'agree'
p2302
aS'stop putting people heartbreaking caring motherfucker care'
p2303
ag86
aS'treat rash goes away couple weeks'
p2304
aS'know nothing'
p2305
aS'youre fabulous person think absolutely best'
p2306
aS'probably stop'
p2307
aS'know'
p2308
aS'yeah good melodic piano reminded'
p2309
aS'also alice chains pretty fucking great'
p2310
aS'hearing meantime reminded much like faith mores epic strictly piano'
p2311
aS'thats pretty standard'
p2312
aS'sure avoid dont abide whining'
p2313
aS'also called legs obvious reasons'
p2314
aS'alternative rock playlists lack live time heard grade next locker argued didnt exist'
p2315
aS'fine offspring songs whiny went bush concert late'
p2316
aS'great alternative songs always preferred'
p2317
aS'song really dumb mean theyre fighting cheating need dump'
p2318
aS'like cant think anyone right'
p2319
aS'disputing awesome ones bush offspring played consecutively thats thought'
p2320
aS'surround people never happy makes appear little normal'
p2321
aS'younger sister would sing fight brandy part monica part'
p2322
aS'ever noticed many mid90s bands whiny'
p2323
aS'thats cool personal growth good thing'
p2324
aS'definitely worst'
p2325
ag86
aS'listened remember thats actually hate'
p2326
aS'alley different'
p2327
aS'havent finished really cool resume really need instead listening music sometimes need break'
p2328
aS'another account school year'
p2329
aS'something designdevelopment'
p2330
aS'plus great individually really talented'
p2331
aS'didnt brilliant stuff tracks score make really great flowing album'
p2332
aS'grace heard dont like mambono5'
p2333
aS'okay trying work getting'
p2334
aS'weve already established difference humors thats didnt work'
p2335
aS'loved fugees wish stayed together'
p2336
aS'might part movie actually laughed'
p2337
aS'hollowvoiced britney spears christina aguileras obviously superior pipes either doesnt make sense'
p2338
aS'rolled eyes backstreet boys still roll eyes least consistent'
p2339
aS'reading something says blowsy slang prostitute developed'
p2340
aS'line make spit drink'
p2341
aS'time trin says brilliant things'
p2342
aS'trying find'
p2343
aS'share listen'
p2344
aS'thing mariah carey makes think singing'
p2345
aS'thing sucks playlist skip explicit ones kids responsibleadult 90smusicnight'
p2346
aS'saved listen'
p2347
aS'tomorrow'
p2348
aS'amazon prime playlist great songs'
p2349
aS'make good'
p2350
aS'sleepovers allowed attend'
p2351
aS'sing along almost righteous brothers'
p2352
aS'feel therefore'
p2353
aS'even matchbox seriously werent even allowed watch anything magic devil'
p2354
aS'others otherwise'
p2355
aS'wasnt allowed listen matchbox insisted push woman physically abused opposite fact'
p2356
aS'think beautiful human question'
p2357
aS'glad laughed hoped people unfollow'
p2358
aS'working list soon'
p2359
aS'interesting fact natalie imbruglia birthday separated torn seven years'
p2360
aS'sleep almost always around'
p2361
aS'currently listening'
p2362
aS'give letter rest dont resonate'
p2363
aS'long time since heard going list tonight'
p2364
aS'speed rock sprinkling rampb pinch dash metal'
p2365
aS'mean dont hate wont turn nose listen awhile'
p2366
aS'really'
p2367
aS'borrow earlier'
p2368
aS'everybody hurts song genuinely like others passable times'
p2369
aS'sorry currently listening everybody hurts song genuinely like'
p2370
aS'evidently think really boring cant even sure'
p2371
aS'almost tweets initial reaction music listening tonight guess songs comments'
p2372
aS'listening music actually period couldnt help absorb fucking song'
p2373
aS'went date looked like eagleeye cherry memorable part dont even remember name'
p2374
aS'like want know avoid future friendship'
p2375
aS'keep living never stop fucking asshole'
p2376
aS'interfered actual music listening'
p2377
aS'fuck'
p2378
aS'believe told expressed much love'
p2379
aS'billion people dont couldnt part'
p2380
aS'parent like share things loved ages also allow things'
p2381
ag86
aS'blasting criminal still song love fiona apple'
p2382
aS'doesnt surprise ubiquitous'
p2383
aS'really sorry thats shit'
p2384
aS'yeah'
p2385
aS'recently wedding relatives went bumped abusive relative'
p2386
aS'watched many westerns thats grew'
p2387
aS'protected everything video games distraction didnt take part think'
p2388
aS'interesting playing games n64ps1 though maybe kind similar like shitt\xe2\x80\xa6'
p2389
aS'still remember every word smooth dont think heard years'
p2390
aS'possibly think theres balance sharing helps understanding'
p2391
aS'well dont want childhood want show positive things'
p2392
aS'time trying recover years wasnt playing older games trying shitty childhood'
p2393
aS'mean come whats brain trying thinking'
p2394
aS'like going shop finding load rare games regular dream many people'
p2395
aS'also always hated semicharmed life 90smusicnight'
p2396
aS'already told plan seattle bunch'
p2397
aS'knew reason youre special unique butterfly'
p2398
aS'chili peppers youre great'
p2399
aS'mean take shed love talking show'
p2400
aS'good suck'
p2401
aS'need create band'
p2402
aS'daughter asked whats sabrina teenage witch time introduce'
p2403
aS'wish part holograms count'
p2404
aS'sorry rhcp make person'
p2405
aS'totally forgot much like haunting voice'
p2406
aS'thank going listen music rest night'
p2407
aS'weve discussed many times'
p2408
aS'love torn'
p2409
aS'love henry motherfucking mcmunn never cease make proud'
p2410
aS'never heard'
p2411
aS'know love takes back love best friend wasnt'
p2412
aS'love love love fool fool fool reliving grade awful'
p2413
aS'fuck youre completely capable albeit strange narcissitic dude doesnt shit'
p2414
aS'would watch'
p2415
aS'thats excellent idea'
p2416
aS'wanted make baking videos hard work tools youre shaking cameras presence'
p2417
aS'would nice often availability ingredients alters thats left quite right'
p2418
aS'fist shake would'
p2419
aS'still probably isnt'
p2420
aS'easy enough wrong country havent seen mexican chinese foods'
p2421
aS'halfway june snow preposterous'
p2422
aS'nobody happens'
p2423
aS'love little differences meanings different cultures adds layer intrigue'
p2424
aS'geeky gawky'
p2425
aS'supposed spicy dont like dont like spicy'
p2426
aS'thats basically geeky socially awkward never going take shit never think less'
p2427
aS'sauce buffalo york'
p2428
aS'appreciate youre good matter'
p2429
aS'admire makes cool'
p2430
aS'love unsubscribe something keep sending shit'
p2431
aS'know moods feel worthless sorry feel like asshole flailing ocean'
p2432
aS'looks like'
p2433
aS'long video game mine deal'
p2434
aS'house children'
p2435
aS'madea goes therapy'
p2436
ag86
aS'sometimes lonely feel like nobody likes please dont respond feeds youpityme theory cant fixed'
p2437
aS'feel love attitude mean actually gender identity'
p2438
aS'feel love attitude'
p2439
aS'great thing series gender doesnt matter entirely interchangeable nobody cares thinks less anyone'
p2440
aS'message brains matter kids gonads hardly worth making distinction player games iain banks'
p2441
aS'laughed hard nearly drowned'
p2442
aS'every fieri'
p2443
aS'watch fieri play pass'
p2444
aS'passes benson test nearly every episode'
p2445
aS'benson test female characters speaking another plan murder another character'
p2446
aS'revealed doesnt like house'
p2447
aS'first game settlers catan hope encourages games'
p2448
aS'really better sleep well'
p2449
aS'cant wait long'
p2450
aS'yeah available time'
p2451
aS'need find time'
p2452
aS'wont willing godmother'
p2453
aS'miss much'
p2454
aS'depressing congratulations life insurance increase time experience'
p2455
aS'like says voice deep'
p2456
aS'dont know listen'
p2457
aS'premise friendship makes happy'
p2458
aS'really enjoy kids shows unbearable'
p2459
aS'know thats dont watch anything part'
p2460
aS'picky whats quality entertainment'
p2461
aS'stay tuned series incomplete stories title conveys meaning'
p2462
aS'depends angle viewer'
p2463
aS'woman billion ideas never completes done'
p2464
aS'genders like cars didn\xe2\x80\x99t stop think unnecessarily building entire infrastr\xe2\x80\xa6'
p2465
aS'production'
p2466
aS'going list together'
p2467
aS'hear today last preregister srge2014'
p2468
aS'like books cannot also dont entertaining value person'
p2469
aS'good nightday everyone tomorrow make real headway project promise'
p2470
aS'tight'
p2471
aS'speaking holiness know ordained paperwork says absolve others sins'
p2472
aS'important keep youthful glow'
p2473
aS'havent unless count actually bathing blood innocent'
p2474
aS'grace sent email last august subject body world today 8yearolds'
p2475
aS'maybe follow second time interact much used fuckingtimezones'
p2476
aS'made comment last week finally able make retort going spoil anyone feels good'
p2477
aS'wondered past never computer front time'
p2478
aS'haul worth youre getting drops'
p2479
aS'weight immediately race make faster'
p2480
aS'dont like urinate publicly hold private given diuretics lose'
p2481
aS'think speed comes might wrong going look origin'
p2482
aS'know eyelash eyelash exact opposite supposed merightnow'
p2483
aS'done ironically seriously didnt know awful'
p2484
aS'think purple moss'
p2485
aS'plenty purple moss'
p2486
aS'thing expect happen tonight doesnt happen rage cant contain knowledge forever almost slipped times'
p2487
aS'family events start someone throwing plasma rifle screaming wave incoming'
p2488
aS'neither seems made habit preying young girls remaining radar'
p2489
aS'discussed thing kids much strict internet rules kids'
p2490
aS'holy fuck angry'
p2491
aS'order ones played lttp albw original'
p2492
aS'happened havent around anything'
p2493
asS'2014_24'
p2494
(lp2495
S'subconscious even'
p2496
aS'thats mistake thats unconscious trying things right'
p2497
aS'think sent link everyone'
p2498
aS'soon'
p2499
aS'thought misspelled amoeba sure gave less credit people follow'
p2500
aS'history making things interesting corner'
p2501
aS'tweets didnt time read much'
p2502
aS'lastdayofschool grace'
p2503
aS'learned double driving time oneway determine long stay driving okay'
p2504
aS'yeah tend forget curiosity'
p2505
aS'thats pretty awesome'
p2506
aS'awful sorry similar experience'
p2507
aS'trip illinois'
p2508
aS'grace playing minecraft online cousin kept putting lava everywhere kicked game unfriended'
p2509
aS'even positive comments negative ones really'
p2510
aS'remember looking anything homosexuality rape gender issues leave angry'
p2511
aS'happened miss something'
p2512
aS'head concrete woke live counting days waking hours necessaril'
p2513
aS'getting excited'
p2514
ag86
aS'youre going srge right'
p2515
aS'cant best'
p2516
aS'oops supposed waiting something print'
p2517
aS'traynor relationship pretty awesome shes personality intelligence'
p2518
aS'next hours yell back work thing working susceptible distractions'
p2519
aS'charlotte four mastered polite sarcasm shes going make life entertaining irritating'
p2520
aS'weeks days going srge else'
p2521
aS'didnt already know dont hate'
p2522
aS'people people fucking awful'
p2523
aS'carry conversations intoxicated'
p2524
ag86
aS'really dont expect would force'
p2525
aS'poor'
p2526
aS'guess like facebook dont know'
p2527
aS'share eventually'
p2528
aS'kids take care cant'
p2529
aS'long thing like months'
p2530
aS'maintain illusion long enough longer illusion habit'
p2531
aS'ligurmatic please tell another story days world wide'
p2532
aS'thank look exactly whiplash hurts'
p2533
aS'figured name philip japanese right'
p2534
aS'philip remember'
p2535
aS'funny'
p2536
aS'thats creepy fuck'
p2537
aS'sides front likely ligaments andor muscles'
p2538
aS'hour going heating hope helps'
p2539
aS'bathroom mirrors make sure nobody forgets'
p2540
aS'think picture natalie better written handed burial everyone told hang'
p2541
aS'hope first reanimated corpse think would secure place history'
p2542
aS'least people forget lorde'
p2543
aS'dont really think cant turn head even holding troublesome need heat massage would nice'
p2544
aS'please children know great'
p2545
aS'water fight yesterday running backward tripped head concrete neck hurts today dying'
p2546
aS'awake trying work intermittent double vision guess need sleep'
p2547
aS'used watch westerns special place heart'
p2548
aS'think handled relationships weirdness really well also love space might bias'
p2549
aS'show amazing money restart'
p2550
aS'shitting'
p2551
aS'dont need focus lady animations rooted bodyfocused gender essentialism right thats obvio\xe2\x80\xa6'
p2552
aS'like aliens mars attacks'
p2553
aS'business dont even work market'
p2554
aS'think time effort learn programming languages games find animator team'
p2555
aS'actually dont know paints exec worse read'
p2556
aS'exec many inches away like seven exec thats many inches pull plug'
p2557
aS'devs dismissive nearly half market dont expect every character woman give option'
p2558
aS'hope finished part looked somewhat like response'
p2559
aS'exec seven well lets tell world within inches theyll love'
p2560
aS'game devs saying almost woman character expecting pats back deciding women werent worth effort'
p2561
aS'takes back elementary school'
p2562
aS'nothing whats motto'
p2563
aS'well seen resume thats start'
p2564
aS'thanks need encouragement also thing sent help tremendously'
p2565
aS'read sometimes medical things testing theories investigated'
p2566
aS'read correlations fibromyalgia celiac disease like greater cooccurrence rate sure accurate'
p2567
aS'positive note working resume manage want going great'
p2568
aS'doesnt care'
p2569
aS'charlotte american swiss cheese dont want smells like butt'
p2570
aS'really happy going long shot always worth especially even doesnt work doesnt harm'
p2571
aS'kids wont quiet neighbors mowing birds chirping much napping'
p2572
aS'time pass'
p2573
aS'eats cookie dough toast'
p2574
aS'congratulations'
p2575
aS'shes happy moments success miserable moments failure'
p2576
aS'takes gaming seriously'
p2577
aS'grace taking first shot mirrors edge'
p2578
aS'mirrors edge talk guess play'
p2579
ag86
aS'snorted'
p2580
aS'guys coolio playing four five blocks away friday night missed'
p2581
aS'theyre smart laughter'
p2582
aS'suddenly interested'
p2583
aS'awesome contacts'
p2584
aS'given amount remakesports games still think companies missing making netflix style servic\xe2\x80\xa6'
p2585
aS'would definitely brighten mood'
p2586
aS'charlotte playing minecraft trying achievements'
p2587
aS'sure'
p2588
aS'wipe undeserving better'
p2589
aS'basically world sucks many people awful make want part'
p2590
aS'okay enjoy'
p2591
aS'going stop bringing party'
p2592
aS'sack thats part dont care complacency almost blissful ignorance'
p2593
aS'dont believe place gaming much lower priority normal'
p2594
aS'even good sure care'
p2595
aS'guess interested mood'
p2596
aS'already done week'
p2597
aS'time internet spoilers ruin sunday read books'
p2598
asS'2014_27'
p2599
(lp2600
S'know discourage kind thing really thing'
p2601
aS'picture married long make enough care married'
p2602
aS'honestly many taught settle greatest achievements getting married kids'
p2603
aS'seems dumb find makes feel like powerful feeling'
p2604
aS'seemed need know support shitty tweets come still people like encouraging'
p2605
aS'brain retain much data anymore kids necrosis brain'
p2606
aS'know writing thought'
p2607
aS'somewhere kids papers list gone missing probably wrote andor threw away'
p2608
aS'youre spectacular creator something cant wait'
p2609
aS'might rotating desktop background'
p2610
aS'cute'
p2611
aS'smooches international kissing fantastic amazing talented inspiring beautiful humorous people'
p2612
aS'dont like practice saying youre white opinion doesnt count cont'
p2613
aS'freaks ogre'
p2614
aS'charlotte dungeon defendersed though'
p2615
aS'serious strategizing together'
p2616
aS'holiday weekend summer dont judge fact played dungeon defenders kids several hours past evenings'
p2617
aS'positive note found tree front nectarines blackberries backyard soon ready'
p2618
aS'dream found niece died awhile instead anything made cried laughed'
p2619
aS'sure shes love'
p2620
aS'normally wouldnt time fireworks still pretty active doesnt sleep well noise'
p2621
aS'theres nothing quite perfectly making fort table reading calvin hobbes lantern thats grace right'
p2622
aS'think tired'
p2623
aS'thats serious outside goofy inside'
p2624
aS'face swapping grace'
p2625
aS'face swapping charlotte'
p2626
aS'think drink contemplate resume maybe make pretty whiteboard thing help'
p2627
aS'swear theyve going three hours'
p2628
aS'want charlotte decent time dark fireworks going awhile'
p2629
aS'thank know many still scary place'
p2630
aS'trying nearly enough make want stay away'
p2631
aS'truth techs sexism problem even worse think'
p2632
aS'every comment pregnancy feminazi women arent smart prove point article still angers'
p2633
aS'even though weaker faster cast rate cast rate sounded like quickly depeen someone'
p2634
aS'doesnt gaming achievement charlotte first dungeon defenders response cute thats'
p2635
aS'check later playing games kids takes priority'
p2636
aS'believe theres online emulator every thing'
p2637
aS'kind want qualifies satanic'
p2638
ag86
aS'unless count dying video game enemies explosionfree holiday'
p2639
aS'running photo tonight thats system slug freedompants merica partylikeajournalist'
p2640
aS'starting think shes mine wasnt awake born wasnt allowed switched birth'
p2641
aS'theres something wrong nineyearold doesnt like many cheeses'
p2642
aS'grylock awoke find eyes glued together sticky crud fantasy fiction weblit'
p2643
aS'care arent busy available hanging tomorrow'
p2644
aS'yeah correct tweet thought birds made think birds bees typed bees'
p2645
aS'need getting early thing birds'
p2646
aS'freedom fighters replacebandnameswithfreedom'
p2647
aS'guess thought said first glance'
p2648
aS'back regularly scheduled twilight princess'
p2649
aS'three things good stuff'
p2650
aS'email things might interest first thing list something romcoms'
p2651
aS'really sorry'
p2652
aS'havent seen list'
p2653
aS'also long okay'
p2654
aS'sorry joshua good game made feel ending best worst'
p2655
aS'happened hated powerful'
p2656
aS'sentiments exactly'
p2657
aS'fuck hope youre safe comfortable'
p2658
aS'also dont males used'
p2659
aS'adjective describing physical characteristic removing human part'
p2660
aS'thats done sleep'
p2661
aS'healthy people world thats start killing everyone plagueinc'
p2662
aS'mostly lancaster theres museum something nature'
p2663
aS'dont know moms side dads side british aristocracy settled area 1600s'
p2664
aS'compassion regular lesson house'
p2665
aS'thanks guys actually phone report still better'
p2666
aS'yeah people kind shit distressing'
p2667
aS'able report user trans violence trigger warning using actual vine please'
p2668
aS'really like'
p2669
aS'face adorable kids faces'
p2670
aS'thank youre good people'
p2671
aS'itll constant battle people help speaks path'
p2672
aS'terrifying show anorexia body parenting tough fuck'
p2673
aS'discussion'
p2674
aS'shes nine weve made serious strides stopping behaviors'
p2675
aS'grace four started reading content wouldnt anything tried counting calories'
p2676
aS'yeah know'
p2677
aS'yeah weve body issues older daughter constant struggle'
p2678
aS'talking show'
p2679
aS'well changes things'
p2680
aS'also coming shes whos afraid physical domineering'
p2681
aS'told pokemon theyre watching ends girl champion help'
p2682
aS'currently nice mean pokemon always seemed pretty balanced'
p2683
aS'small thing seemed inconsequential time'
p2684
aS'talked oddly says pokemon team rocket boss'
p2685
aS'said team rocket boss'
p2686
aS'wont anything like'
p2687
aS'prefers lego cars kitchen dolls'
p2688
aS'cant think anything weve allowed submissive characters'
p2689
aS'know fixing'
p2690
aS'watch netflix actual watches monitored'
p2691
aS'book show movie crosses path without crossed either time advance'
p2692
aS'seriously livid shes four lives small world clue could idea'
p2693
aS'told charlotte boss said daddy myfacewhen'
p2694
aS'already filling paperwork'
p2695
aS'dont make unadopt'
p2696
aS'people instead though work levels'
p2697
aS'wouldnt want body hangin shoulders like pelt fantasy fiction weblit'
p2698
aS'think rent couch night nobody wants commute tacoma seattle daily'
p2699
aS'part agree music allowed differences opinion'
p2700
aS'asked reznor says gifted pretty high list'
p2701
aS'maybe hard like something feels fake unless blatantly unabashedly fake'
p2702
aS'guess feeling lack genuineness dont know'
p2703
aS'never felt anything fergie used like gwen stefani dont know happened'
p2704
aS'dont like either'
p2705
aS'lived seattle proper tacoma minutes away'
p2706
aS'part night plead anyone room someone week need some\xe2\x80\xa6'
p2707
aS'head hurting tried playing mass effect kept hitting wrong buttons migraines confusion together'
p2708
aS'relevant'
p2709
aS'didnt even intend realized immediately said'
p2710
aS'grace spelled privilege privilige told check privilege refreshing different meaning normal'
p2711
aS'seriously thee fill blank'
p2712
aS'stand guard really dont know stand guard polar bears moose'
p2713
aS'coincidentally thats know canadian national anthem'
p2714
aS'exactly'
p2715
aS'talking canada grace responded'
p2716
aS'best thing come skyward sword symphony goddesses dinnermusic'
p2717
aS'normally works afternoonevening theres training week next'
p2718
aS'teds work schedule really messing house schedule eating dinner hours later normalaround'
p2719
aS'know autocorrect based brain'
p2720
aS'make chuckle'
p2721
aS'showerthoughts'
p2722
aS'weird always consider hair transition'
p2723
aS'parental responsibility sucks'
p2724
aS'friday pizza plus sleepy working food'
p2725
aS'followed instructions precisely triple checked still working give right kids feed'
p2726
aS'almost want probably would interesting'
p2727
aS'know wish could enjoy heat head hurts much'
p2728
aS'nope pain much writing wait'
p2729
aS'havent even long feel like true'
p2730
aS'also forgot stifling degrees could youre used'
p2731
aS'head might hurt like dickens going resume writing thing'
p2732
aS'daughter background told game asked cutscenes diary entries'
p2733
aS'dont want thats moved washington accepting state union'
p2734
aS'banned making'
p2735
aS'loathing part might true fear nothing'
p2736
aS'america sucks terrorists rule'
p2737
aS'games politics said exclusively people already politics passively catered'
p2738
aS'jessie spano stole'
p2739
aS'didnt visit'
p2740
aS'easy'
p2741
aS'theyre pretty good theyre overdone'
p2742
aS'dont live vacuums concerned people treated'
p2743
aS'thats idealized people stop reading people less another keep fighting'
p2744
aS'thats fighting though'
p2745
ag86
aS'pushing problem change pushing complacency'
p2746
aS'people shouldnt held something pretending doesnt happen dangerous'
p2747
aS'youre white grab penis grab itll great well climax whenever agree time'
p2748
aS'nice case much fights minorities change'
p2749
aS'dont know likely dont identify still mens rights advocate basically fight feminism'
p2750
aS'actually know identify unfollow also'
p2751
aS'second'
p2752
aS'please unfollow identify'
p2753
aS'possibly dont justification expecting different perspective'
p2754
aS'whoa suddenly tired barely keep eyes open late sleep guess coffee'
p2755
aS'thats ideal people understandably sensitive things create'
p2756
aS'real review negative thanked'
p2757
aS'imagined bird penguin automatically think ruined joke'
p2758
aS'youre welcome'
p2759
aS'dont forget duhduhduh duuuuuh dunh dunh duhn thats music know'
p2760
aS'sake reminding'
p2761
aS'really want everyone sees'
p2762
aS'didnt sleep could celebrate canada start well pretend thats true couldnt sleep'
p2763
aS'doesnt tried'
p2764
aS'older daughter almost already able share bunch things mostly books'
p2765
aS'adding desktop background might even make twitter background youre cool'
p2766
aS'honest sometimes'
p2767
aS'actually writing time teach younger zelda games'
p2768
aS'perils parent gamer'
p2769
aS'like uninterrupted long enough'
p2770
aS'havent gotten life interrupted every time start'
p2771
aS'really need finish'
p2772
aS'disconnect characters know coming soon really liked grylock pubton pubtwon'
p2773
aS'course cool'
p2774
aS'characters nearly years course personality life youve done well'
p2775
aS'like jeffrey grylock kind selfish jerks logan charming likable'
p2776
aS'fuuuuuuuuuu youre playing emotions'
p2777
aS'went back comments mine friday feel better celine'
p2778
aS'favorite york state mind dont know many'
p2779
aS'dont anything libby andor love daena might forgive'
p2780
aS'little time knew last offhand'
p2781
aS'didnt know'
p2782
aS'would leave times trouble soon going prove joel knowledge limited'
p2783
aS'eric follow fake people without quite proud'
p2784
aS'fine leave alone'
p2785
aS'already crazy might actually tears stuck throat last week'
p2786
aS'says'
p2787
aS'billy joel said take'
p2788
aS'youre worthless dont want worthy'
p2789
aS'working game'
p2790
aS'lets pretend second dragomirs diary isnt best cant'
p2791
aS'thought kids would recuperating today theyre wound normal need hiding'
p2792
aS'people know real email address business email address know accurate'
p2793
aS'actually sounds perfect'
p2794
aS'well'
p2795
aS'agree type people maintain status status relevant position'
p2796
aS'spinning propeller cloudy sails wind boat going nowhere fast'
p2797
aS'works'
p2798
aS'mgus talking motor generator unit right'
p2799
aS'boat also uses wind green summerscienceproject'
p2800
aS'solarwind boat sunny today body water testing'
p2801
aS'opted solar boat summerscienceproject'
p2802
aS'think well start invention good place start summerscienceproject'
p2803
aS'something together soon dont writings submit example copy'
p2804
aS'girls summerscienceprojects'
p2805
aS'love involved think asset gaming community'
p2806
aS'thank fantastic panel yesterday informative encouraging'
p2807
aS'fucking awful'
p2808
aS'youre'
p2809
aS'days available week catch'
p2810
aS'dont apologize something actively wrong'
p2811
aS'well available days next weeks'
p2812
aS'youre working right'
p2813
aS'yeah youths'
p2814
aS'didnt want drive much'
p2815
aS'fits normal schedule'
p2816
aS'note wont available hangouts next weeks except saturdays'
p2817
asS'2014_26'
p2818
(lp2819
S'mean seems obvious sometimes need hear push easy dejected lose focus'
p2820
aS'also pick apart things exist learn works learn break'
p2821
aS'also youre going start bottom matter rarely someone break immediately keep working dont lose hope'
p2822
aS'panel getting industry best advice make something keep learning'
p2823
aS'attended panels members women granted panel parenting gaming still nice'
p2824
aS'fantastic meeting well something interesting next time'
p2825
aS'yeah probably going arrive little later tired didnt even stay trivia'
p2826
aS'lovely meeting wife today good people everyone'
p2827
aS'semi sweet pleasant'
p2828
aS'line'
p2829
aS'youre guilty excessive needling'
p2830
aS'tomorrow'
p2831
aS'verylittlebird magician asks pick card card fact'
p2832
aS'platforms'
p2833
aS'theres name josh bitching'
p2834
aS'video chaoticute brian posehn girl brilliant seconds television ever'
p2835
aS'promise'
p2836
aS'soon'
p2837
aS'drooling'
p2838
aS'comparing bras jockstraps'
p2839
aS'miss'
p2840
aS'little least'
p2841
aS'guess hangout'
p2842
aS'please real please real please real'
p2843
ag86
aS'would mind'
p2844
aS'want boots sorts slutty badass utilitarian uggs'
p2845
aS'know teased past'
p2846
aS'going christian louboutins'
p2847
aS'shoe shopping amuses'
p2848
aS'also preference hangout skype know'
p2849
aS'hanging outskype tonight'
p2850
aS'going watch movie wait hold unicorn youre home also tell'
p2851
aS'mutual butt admiration'
p2852
aS'thats actually speed gripe'
p2853
aS'like speed dont collect everything could finish lt30 minutes instead didnt everything'
p2854
aS'know needling tony'
p2855
aS'tempting'
p2856
aS'still probably deserved'
p2857
aS'people talking steam sale still stop'
p2858
aS'uncanadian probably deserved'
p2859
aS'cause really tunnel vision'
p2860
aS'pretty lady'
p2861
aS'bailey several tennant discussions youll invited future ones'
p2862
aS'need share tennant'
p2863
aS'exchange fucking brilliant'
p2864
aS'well worried help need anything'
p2865
aS'know anything need'
p2866
aS'want food'
p2867
aS'going ginger recommend help'
p2868
aS'going srge tomorrow social anxiety'
p2869
aS'give would help currently'
p2870
aS'another mass effect needed something calm stomach'
p2871
aS'wont retweet sounds desperate'
p2872
aS'self plug still hoping work somewhere voice stuff writing stuff social media stuff'
p2873
aS'good type game'
p2874
aS'really play never maybe understand'
p2875
aS'genuine good phone'
p2876
aS'hope genuine time worth anxiety'
p2877
aS'going srge'
p2878
aS'woman sometimes harras\xe2\x80\x94 dying foreign wars woman righ\xe2\x80\x94 harass'
p2879
aS'nervous imgoingoutinpublicwheretherewillbemanypeople stomach going shitty punintended sorry'
p2880
aS'okay'
p2881
aS'early'
p2882
aS'probably wont around srge weekend'
p2883
ag86
aS'honestly level efficiency organization want achieve inspired'
p2884
aS'mean rest tweets context'
p2885
aS'passionate game play aggressively somehow complete shitlorld'
p2886
aS'might need insist joining hangout later'
p2887
aS'steam sales justification open steam ignoring games time dont feel guilty'
p2888
aS'oddly turned data'
p2889
aS'thats lady stoneheart went instead finale'
p2890
aS'wait philip nolan stuff weekend starting'
p2891
aS'guys making blush'
p2892
aS'remember tomorrow make folder playlist computer'
p2893
aS'think need another music night figure genreera itll wait next week'
p2894
aS'powerful'
p2895
aS'thats pretty accurate except forgot playlist change lives'
p2896
aS'snort'
p2897
aS'phone like yeah tweet said caring'
p2898
ag86
aS'people need appreciate'
p2899
aS'nobody carrying considerate person'
p2900
aS'hell charm pants'
p2901
aS'dont give nearly enough friend credit fuck'
p2902
aS'would like storytellers drunk history'
p2903
aS'middleaged mutant ninja turtles tvshowsequels'
p2904
aS'pregnant kids pregnant coming 2023 tvshowsequels'
p2905
aS'thank really modification cover mach rider lines arent exact close'
p2906
aS'based chris'
p2907
aS'youre badass'
p2908
aS'never anywhere either game'
p2909
aS'guess didnt overheat time battery dead need battery'
p2910
aS'tried twice today computer overheated times need something better gaming'
p2911
aS'theyre extremely opposing forces'
p2912
aS'isnt awful logical brain tells true anxiety says know idiot'
p2913
aS'pass already worry enough'
p2914
aS'physical things things think dont share worse'
p2915
aS'seriousthingsithinkaboutmyself thunderous knees knobby toes curl much'
p2916
aS'seriousthingsithinkaboutmyself keeps appearing chin boobs small stomach thighs'
p2917
aS'seriousthingsithinkaboutmyself teeth face breaks stressed dark course hair'
p2918
aS'seriousthingsithinkaboutmyself hair isnt punk enough nose isnt straight enough eyes different sizes'
p2919
aS'thing take prompts write todays much'
p2920
aS'want consequences damned'
p2921
aS'experienced situation except younger costume woke older'
p2922
aS'thesaurus could understand themas read brings thing conciseness goes long'
p2923
aS'things words dont make seem intelligent make seem like eighth grader discovered'
p2924
aS'entertaining actual thing theyre referencing'
p2925
aS'wait jessica fletcher reads cackle punching away 11000 word philippic hipster female writing'
p2926
aS'besides whole personal thing particular woman obvious lady issues'
p2927
aS'could keep going 11000 word essay complaining complaining woman'
p2928
aS'couldnt finish dude needs help asshole generation representative entire generation'
p2929
aS'already know answer last question'
p2930
aS'laughable worth reading amused also pissed'
p2931
aS'reminder join tomorrow hangoutskype dont make plans'
p2932
ag86
aS'hope enjoy'
p2933
aS'changed decide'
p2934
aS'decided'
p2935
aS'think youre confusing gelato'
p2936
aS'thats done'
p2937
aS'might profile description'
p2938
aS'someone called fair balanced realistic responded like news real life except dont autofellate'
p2939
aS'guys hate verizon commercial'
p2940
aS'awesome taste music movies'
p2941
aS'cannot handle hungry part youre best people ever encountered always consider people'
p2942
aS'hiring person steady hand make winged eyeliner face appropriate place friendship'
p2943
aS'make somewhere'
p2944
aS'dont know much help want pretty eyeliner'
p2945
aS'cheer itll faster youll wear sleep'
p2946
aS'wonder could mras play victims'
p2947
aS'could video demonstration'
p2948
aS'neveah always drive crazy heaven backward haeven backward dumas'
p2949
aS'whats kids name dont really think whats name thats tizzy'
p2950
aS'dont think shes awful piper needs fuck talons'
p2951
aS'thats good friending'
p2952
aS'grumpy hope feel less grumpy soon youre fantastic'
p2953
aS'always friendship'
p2954
aS'would disappointed'
p2955
aS'altered dress mine grace perfect elsa cosplay dont know went'
p2956
aS'grace made wool pokeballs minecraft stuck'
p2957
aS'disappointing'
p2958
aS'happens'
p2959
ag86
aS'died'
p2960
aS'nope nope nope nope'
p2961
aS'guys adult early children amuses'
p2962
aS'yeah reinstalled cloud butt plugin need every word everything says butt butt butt butt butt butt butt'
p2963
aS'head hurts'
p2964
aS'little gemini like well ends time comes'
p2965
aS'kind hardass outside good person values honesty stuff thats probably hufflepuff'
p2966
aS'great state'
p2967
aS'northcarolina lawmaker pedophilia sexual orientation like homosexuality'
p2968
aS'thanks'
p2969
aS'many months thousands miles'
p2970
aS'thank place every little support nice'
p2971
aS'follow reasons compilation writing games like right made logo site'
p2972
aS'keep posting tweetsreplies dont want bring anyone havent much positive lately sorry'
p2973
aS'sorry life ugly friends assholes make work make better'
p2974
aS'warn person potential problems'
p2975
aS'itll grow back dont like thats hair philosophy'
p2976
aS'generally always convince person better ultimately call'
p2977
aS'ruins imagination doesnt'
p2978
aS'could prices side suggest otherwise'
p2979
aS'theres cream truck plays harry potter theme song along typical songs size golf cart'
p2980
aS'think soon body ready weekend'
p2981
aS'inappropriate theyre nine four well keep crafting mines together'
p2982
aS'little time play games like since kids invest time theyre school'
p2983
aS'took break tried going back break means starting beginning dont time'
p2984
aS'youll srge weekend face'
p2985
as.