(dp0
S'2013_42'
p1
(lp2
S'love'
p3
aS'whats'
p4
aS'hihihihihihi'
p5
aS'curled hair probably last week couldnt stop laughing'
p6
aS'freezing house'
p7
aS'cant without someone triggering'
p8
aS'favourite neighbourhood prostitute moved away today'
p9
aS'legs sore feel like theyre going fall'
p10
aS'actually updated boys shit actually something wake everyday cried happy time'
p11
aS'continuing awake award show another hours like seriously days'
p12
aS'sometimes miss weird fuck directioner stayed watch livestream boys'
p13
aS'since like haha little illiterate shit'
p14
aS'people never take seriously fourteen like bitch looking make happen'
p15
aS'awful headache help'
p16
aS'need city'
p17
aS'cant wait shop ottawa though excited'
p18
aS'grown baby cant'
p19
aS'close minded people mood'
p20
aS'film marathon'
p21
aS'dying thirst'
p22
aS'ended hospital couple nights ottawa less week'
p23
aS'gained weight suicidal lately'
p24
aS''
p25
aS'give'
p26
aS'wont show'
p27
aS'love'
p28
ag25
ag25
aS'honestly want'
p29
aS'kill'
p30
aS'charger broke'
p31
ag25
aS'tweetimg sucks wont finish'
p32
ag25
aS'hate life'
p33
aS'havent even able anything today'
p34
aS'honestly thought killing least five times today'
p35
aS'forced hour ride children feeling miserable help'
p36
asS'2013_43'
p37
(lp38
S'need sleep'
p39
aS'whenever appointments weigh'
p40
aS'ribs'
p41
aS'stomach pains nausea 1220am help'
p42
aS'wearing great love clothes'
p43
aS'actually feel insanely cute'
p44
aS'sorry'
p45
aS'going walk hotel room going coming back goodbye'
p46
aS'dont wanna alone anymore'
p47
aS'want kill cant take'
p48
aS'cant stop shaking'
p49
aS'cant take anymore please'
p50
aS'please kill'
p51
aS'told sister diagnosed bulimia treats like piece shit deserves thinks'
p52
aS'seriously though time pull shit together months later seriously though time pull shit toge\xe2\x80\xa6'
p53
aS'love'
p54
aS'love'
p55
aS'pills crushed powder need remember love'
p56
aS'done pills like dont like done everyone around anyway love okay okay'
p57
aS'want drugs perks dont want pills waiting chits back hotel'
p58
aS'lucky havent days like anyway sitting waiting room'
p59
aS'whats'
p60
aS'going movies today'
p61
ag25
aS'miserable'
p62
aS'danny theres cute ginger cafeteria'
p63
aS'love youu'
p64
aS'much easier kill everyone'
p65
aS'please normal'
p66
aS'told doctor actually eating disorder guess real'
p67
aS'shes sick stuff wants hair starting thin want something omfg'
p68
aS'cancer ditched ladies house didnt want deal sick daughter'
p69
aS'shes positive understanding holy shit need friend like'
p70
aS'life keeps getting worse whenever opens mouth'
p71
aS'girl making feel guilty shes like sick depressed'
p72
aS'doctors free getting ready'
p73
aS'doctors steve brenda'
p74
aS'sitting chair still waiting appointment'
p75
aS'girl complaining enough boots pair shoes total'
p76
aS'okay'
p77
aS'mother deaf holy fuck'
p78
aS'many hows oops'
p79
aS'seventeen girl sister couldnt anywhere without seventeen'
p80
aS'makes awkward contact another teenager public'
p81
aS'nope saving money mall hehehahhahahahah'
p82
aS'keeps calling backpack purse'
p83
aS'haha gift shop looking something'
p84
aS'cute speaks french'
p85
aS'lady front eating salad shes eating really loudly shes making sick'
p86
aS'theres gotta something wrong'
p87
aS'theres thats really attractive nice like good true'
p88
aS'cute'
p89
aS'cold'
p90
aS'always'
p91
ag25
aS'annoyed family'
p92
aS'many days'
p93
aS'feel really cute right though'
p94
aS'want take nice shower three hours\xe2\x80\x9d everyday'
p95
aS'getting boots today'
p96
aS'well'
p97
aS'internet keeps disconnecting'
p98
ag25
aS'basically'
p99
ag25
aS'waiting shitload appointments today'
p100
aS'whats'
p101
aS'shopping today'
p102
ag25
aS'dawny'
p103
aS'fries'
p104
aS'jesus fucking christ'
p105
aS'order roger dont changed'
p106
aS'boots wanted might roger online tomorrow'
p107
aS'sobbing happy'
p108
aS'actually went shopping sister today'
p109
aS'look today'
p110
ag25
ag25
aS'okay back later'
p111
aS'guys school uniforms going hospital morning jesus'
p112
aS'always'
p113
aS'theres cutest little bookstore beside hotel miss already'
p114
aS'shit missed daily dose dick today'
p115
aS'mood applesauce favourite strawberry applesauce'
p116
aS'cant around little kids parents yell omfg'
p117
aS'porn dashboard hospital'
p118
aS'sometimes'
p119
aS'love applesauce'
p120
aS'colourful calorie snacks'
p121
aS'menu cute things though'
p122
aS'obviously wont still want'
p123
aS'menu makes want binge'
p124
aS'liam payne'
p125
aS'love youuuu'
p126
aS'prefer melanie call'
p127
aS'going start crying'
p128
aS'might admitted psych ward'
p129
aS'feel helpless'
p130
aS'talk psychiatrist much stuff today want home pass'
p131
aS'done'
p132
aS'tired okay back later'
p133
aS'really shower sleeping'
p134
aS'guys smell good'
p135
aS'counting today honestly devastated'
p136
aS'books excited omfg'
p137
aS'little bitch'
p138
aS'lazy'
p139
aS'theres movie theatre pizza place store surrounding hotel'
p140
ag25
aS'eating home'
p141
aS'suicidal hahahahahaha'
p142
aS'remember dick horan'
p143
aS'okay hotel'
p144
aS'ottawa'
p145
aS'sudbury right plane ottawa'
p146
aS'freezing'
p147
aS'minutes'
p148
aS'stay hydrated'
p149
aS'birthday kinda soon fucking'
p150
aS'breakfast'
p151
aS'close taunts'
p152
aS'wish could'
p153
aS'going ottawa todaay'
p154
aS'likely friends'
p155
aS'happy rock'
p156
aS'still exhausted yesterday torture'
p157
aS'love hope good'
p158
aS'almost killed yesterday'
p159
aS'morning perfection'
p160
aS'woke dont leave another hour ready want sleep'
p161
aS'starving exercising ahead calories leave fall deeper hole'
p162
aS'imagine person youll marry could really punch person face without second thought'
p163
aS'okay done'
p164
aS'everyone talking weight eating disorders many fucking numbers everywhere cant think right anymore'
p165
aS'crying weeks feel like cant without triggers thrown face'
p166
aS'hours later still miserable back crying'
p167
aS'fell mattress thats standing'
p168
aS'going halloween year parties anything chances ottawa'
p169
aS'cold'
p170
aS'sometimes wish completely alone people around taunt alive like'
p171
aS'feel like climbing rope everyone think ones make come back place'
p172
aS'cant happening'
p173
aS'hate much cant stop crying'
p174
aS'really couldnt care less cant even fucking think straight'
p175
aS'multiple unhealthy habits need'
p176
aS'letting sleep tonight unless want mess whole week'
p177
aS'fucking snowed'
p178
aS'remember seeing dude tweet high like sucking things high'
p179
aS'everybody lets take moment appreciate'
p180
aS'really omfg'
p181
aS'lighter almost dead'
p182
aS'really hyper'
p183
ag25
aS'blowing smoke mouth makes feel like dragon'
p184
aS'feel like everything okay driving insane'
p185
aS'lets vicious storming walmart grabs much candy yelling mine mine'
p186
aS'havent smoked cigarette awhile'
p187
aS'friends wonder never speak anymore hahahaha cant even notice stopped first'
p188
aS'hate counselling much always makes feel like complete piece shit fucked'
p189
aS'pretty sure head cold'
p190
aS'shaking goddammit'
p191
aS'shirtless dancing'
p192
aS'deserve happy clean cutting deserve person whos surrounded loving'
p193
aS'exhausted today'
p194
aS'suddenly hyper'
p195
aS'isnt enough still need much notice people wonder'
p196
aS'sing'
p197
aS'songs like hurt much honestly much sigh'
p198
aS'keep losing weight trying perfect waiting somebody tell worth'
p199
aS'dont know feel like laughing crying right'
p200
aS'hahshsjsiwojcockskwkckd'
p201
aS'electricity'
p202
aS'lets take moment appreciate paper'
p203
aS'really thin girl made feel miserable'
p204
aS'notebook sour patch kids today'
p205
aS'snowed today'
p206
asS'2013_40'
p207
(lp208
S'real hair look like dont real hair'
p209
aS'tell aubree said happy birthday'
p210
aS'scented lotion stings'
p211
aS'goodmorning\xe2\x80\x9d good morning beautiful love'
p212
aS'wont give shopping money'
p213
ag25
aS'would'
p214
ag25
ag25
ag25
aS'good luck'
p215
aS'lemme'
p216
aS'better watch coming phases'
p217
aS'aubree turning'
p218
aS'family like parents siblings grandmas'
p219
aS'weed'
p220
aS'havent wedding since hated'
p221
ag25
aS'still laughing'
p222
aS'time friends making short horror movie ended slipping grass middle scene'
p223
aS'anything'
p224
aS'sleeping'
p225
aS'fuck cold house freezing'
p226
aS'miss'
p227
ag25
aS'disappointed didnt party today hate loser'
p228
aS'follow'
p229
ag25
aS'music video turn'
p230
aS'going running today demons public school hahahahahaha'
p231
aS'actually worked morning today record fuck yeah'
p232
asS'2013_41'
p233
(lp234
g25
aS'hair went blond blue look like shit'
p235
aS'making plans best friend'
p236
aS'back shopping'
p237
aS'heart hurts'
p238
aS'really sick'
p239
aS'hope rest goes swell'
p240
aS'good morning'
p241
aS'honestly love feeling lately havent best moved stuff'
p242
aS'like five years mind'
p243
asS'2013_44'
p244
(lp245
S'getting phone today'
p246
aS'loves'
p247
aS'dont pretend like enjoying'
p248
aS'someones horny hahaha\xe2\x80\x9dhi'
p249
aS'cant stop laughing help'
p250
aS'dicvnsiuffnsojdncoief'
p251
aS'louis voice behind youre hands knees'
p252
aS'nialls hands pulling hair'
p253
aS'harrys huge hands holding hips still thrusts'
p254
ag25
aS'want harrys long legs tangled mine making'
p255
aS'ignore'
p256
aS'want nialls hair fingers cuddle'
p257
aS'louis'
p258
aS'liam fucking want feel facial hair scratching skin fucks'
p259
aS'horny'
p260
aS'emotional'
p261
aS'really fandom anymore'
p262
aS'used direction growing'
p263
aS'chest really hurts'
p264
aS'home stomach ruptures'
p265
aS'maybe stay make sure dont kill'
p266
aS'rlly boring subject'
p267
aS'history'
p268
aS'smell shannon'
p269
aS'omfg'
p270
aS'used little brown'
p271
aS'face picture unflattering like cute'
p272
aS'trying hard laugh'
p273
aS'laughing hard'
p274
aS'called cops hahahahahahahhahahaha'
p275
aS'soap makes hands really sting'
p276
aS'cold'
p277
aS'hear someone puking room goes appetite'
p278
aS'hospital'
p279
aS'everyone ignorant'
p280
aS'dont know'
p281
aS'times think everyone amazing times theyre demons sigh'
p282
aS'guys really cute funny asdfghjkl'
p283
aS'always'
p284
aS'head hurts'
p285
aS'life dont happiness someone elses hands'
p286
aS'course gain weight back dont plan recovery tired better better effortlessly kill'
p287
aS'longer appear strong longer sudden outbursts happiness always feel weak light headed depressed blah'
p288
aS'everyone youre really feeling inside'
p289
aS'dont feel perfect tiny feel fragile weak small'
p290
aS'dont keep weight unless eating disorder'
p291
aS'plan lose weight healthily might take twice long would eating disorder matter weight'
p292
aS'youre bulimic weight like yoyo'
p293
aS'weight fast lost'
p294
aS'youre cold time recover body never work'
p295
aS'eating disorder much losing weight losing weight actually downside'
p296
aS'exactly number scale makes happy thought finally healthy'
p297
aS'losing weight wont help second maybe never permanently healthily'
p298
aS'emotions really fucked right csnt'
p299
aS'know said didnt want'
p300
aS'feel helpless'
p301
aS'want'
p302
aS'told eating disorder effecting shes ignoring'
p303
aS'gets worse making stop'
p304
aS'dont want want pain stop'
p305
aS'people real life'
p306
aS'need help practically begging fuck'
p307
aS'always look pale drained eating isolating inside ptsd'
p308
aS'sees dying worse thing theyre actually ignoring'
p309
aS'nail polish nails damaged'
p310
aS'used love hair thing didnt flaw cant touch without strands falling'
p311
aS'used like singing throat kind damaged throwing'
p312
aS'people might want attention everyone says awful torturous ignored'
p313
aS'people want attention'
p314
aS'scares alone'
p315
aS'people pain kept pain long could think giving pain'
p316
aS'finally respect'
p317
aS'cares'
p318
aS'theres reasons kill'
p319
aS'everyone help ignoring'
p320
aS'even tired'
p321
aS'never'
p322
aS'patiently wait encouragement finally eating sleeping healthy'
p323
aS'things people havent eaten days'
p324
aS'hold back suicidal thoughts every single'
p325
ag25
aS'hide hard problems much people'
p326
aS'people'
p327
aS'hears finally opening'
p328
aS'ones need'
p329
aS'hold back tons trying offend anyone'
p330
aS'please thank yous'
p331
aS'patient people'
p332
aS'keep temper control'
p333
aS'best people'
p334
aS'bother people know'
p335
aS'good person'
p336
aS'lmfao fuck give coming back'
p337
aS'thought could trust'
p338
aS'sorry cant talk right going back sleep'
p339
aS'panic attack havent weeks'
p340
aS'wanna'
p341
ag25
aS'cant breathe shaking'
p342
aS'drunks yelling downstairs going kill'
p343
aS'woke'
p344
aS'actually scared tomorrow'
p345
aS'miss able wake smile knew waiting'
p346
aS'able keep water bitch'
p347
aS'morning'
p348
aS'come skinny love'
p349
aS'disappointed'
p350
aS'fuck'
p351
aS'things comes rude shit'
p352
aS'head constantly'
p353
aS'smoking hawhaw buying'
p354
aS'like feeling small reflects heart lmfao'
p355
aS'mmmmm'
p356
aS'cool'
p357
aS'lies'
p358
aS'omfg'
p359
aS'lies'
p360
aS'hate allergies cleaning little'
p361
aS'face beautiful'
p362
aS'happened tell everything'
p363
aS'nice face'
p364
aS'fucking freezing'
p365
aS'guys cant find wallet'
p366
aS'broke though'
p367
aS'cold like like four onesies oops'
p368
aS'dont ever walked away always want'
p369
aS'really sleep'
p370
aS'cant tell best friends biggest secrets without hating much scared theyll cant help'
p371
aS'dont like people touch hair youll blue hand'
p372
aS'omfgjdidkdmcjv'
p373
aS'laughing'
p374
aS'people english cute omfg'
p375
aS'cant stop smiling'
p376
aS'crying happy'
p377
aS'hate hair'
p378
aS'popsicles'
p379
aS'hate halloween'
p380
aS'hahaha'
p381
aS'danny tell eight'
p382
aS'thing stopping smoking teeth'
p383
aS'danny tell eight'
p384
aS'please eight years'
p385
aS'mood swings though'
p386
aS'whenever slightest like right'
p387
aS'cute made though'
p388
aS'bless online friends'
p389
aS'fucking hate life'
p390
aS'want away triggers would mean going away things keeps holding'
p391
aS'well thats without feeling like someone judging'
p392
aS'strawberry half slice orange'
p393
aS'froot loops'
p394
aS'friends sleeping really hyper'
p395
aS'allergic reaction sweaters bought cant wear'
p396
aS'harm body loner'
p397
aS'best friends liked actually liked back best year ever'
p398
aS'best time life'
p399
aS'danny fourteen fourteen dont know weird'
p400
aS'rockstar vodka'
p401
aS'morning'
p402
aS'twitter friend youtube voice google brain'
p403
asS'2013_45'
p404
(lp405
S'family'
p406
aS'problem family'
p407
aS'feel like binge purging'
p408
aS'really'
p409
ag25
aS'hohohoho'
p410
ag25
aS'want'
p411
aS'still want kill'
p412
aS'thought feel better home'
p413
aS'start talking'
p414
aS'cute'
p415
aS'still road'
p416
aS'love native'
p417
ag25
aS'suckerclanstatusyo'
p418
aS'phone dying'
p419
ag25
aS'3glt'
p420
aS'gimme number'
p421
aS'fucking fido'
p422
aS'theyre ignoring'
p423
aS'want'
p424
asS'2014_10'
p425
(lp426
g25
aS'fine darlin'
p427
aS'fine'
p428
ag25
ag25
ag25
aS'sits'
p429
aS'joking love haha'
p430
aS'scared'
p431
aS'laughs watches movie'
p432
aS'youre person reader thing person dont know'
p433
aS'like header dont like jewelry much shine bright like diamond haha'
p434
aS'know well laughs'
p435
aS'like everything'
p436
aS'laughs'
p437
ag25
aS'walks toward like park'
p438
aS'maam'
p439
aS'exactly'
p440
aS'thats cool thatll good'
p441
ag25
aS'sing laughs going great friends'
p442
aS'like gemma'
p443
aS'youre hungry'
p444
aS'great starts walking outside'
p445
aS'laughs youre cutie'
p446
aS'walk park'
p447
aS'laughs small feet'
p448
aS'watching movie'
p449
aS'ariana swag'
p450
aS'wanna'
p451
aS'whats'
p452
aS'smiles'
p453
aS'good great'
p454
aS'whatcha watchin'
p455
aS'laughs'
p456
aS'either'
p457
ag25
aS'yeah'
p458
aS'pokes nose softly'
p459
ag25
aS'eating'
p460
aS'haha'
p461
aS'either'
p462
aS'dont know ideas'
p463
aS'puts clothes shirt says love dinosaurs'
p464
aS'would enjoy haha'
p465
aS'attacked yesterday winky faces\xe2\x80\x9d'
p466
aS'screwup much'
p467
aS'yeah sounds good'
p468
aS'lets changed little dude puts changing table changes'
p469
aS'youre welcome gemma'
p470
aS'sure mate wanna'
p471
aS'change'
p472
aS'beautiful name'
p473
ag25
aS'well nice meet niall'
p474
aS'bored'
p475
aS'hums song'
p476
aS'whats missy'
p477
ag25
aS'youre welcome'
p478
aS'perrie edwards gemma styles oops'
p479
aS'hola'
p480
aS'smiles sits chair'
p481
aS'puts pacifier mouth milo'
p482
aS'picks shows pacifier want'
p483
aS'wakes walks crib whats wrong milo'
p484
aS'sits chair takes youre asleep'
p485
aS'smiles sleep'
p486
aS'places crib gently trying wake'
p487
aS'carries crib sleepy milo'
p488
aS'sleepy'
p489
aS'whatcha laughing little chuckles'
p490
aS'done changes puts diaper dinosaurs'
p491
aS'looks'
p492
aS'waits finish'
p493
aS'need change'
p494
aS'looks milo'
p495
aS'laughs youre adorable'
p496
aS'laughs hands'
p497
aS'shows dinosaur look milo'
p498
aS'laughs'
p499
aS'chuckles play feet'
p500
aS'kind toys play'
p501
aS'laughs someones ticklish'
p502
aS'smiles tickles'
p503
aS'smiles laughs'
p504
aS'gives'
p505
aS'want'
p506
aS'youre hungry grabs cereal handing pieces'
p507
aS'hears growling milo hungry'
p508
aS'chuckles'
p509
aS'milo think cuter everyday smiles'
p510
aS'changes puts diaper'
p511
aS'picks'
p512
aS'change'
p513
aS'mentions arent working correctly take respond'
p514
aS'milo'
p515
aS'sense sarcasm haha'
p516
aS'minutes'
p517
aS'grand dont mind asking long'
p518
aS'picks'
p519
ag25
aS'youre welcome milo'
p520
ag25
aS'youre cute little baby'
p521
aS'draw haha'
p522
aS'milo'
p523
aS'awkward first tweet'
p524
asS'2014_11'
p525
(lp526
g25
aS'bored'
p527
aS'people'
p528
as.