(dp0
S'2013_42'
p1
(lp2
S'ever made something corks'
p3
aS'today last week restaurant week dont miss special prixfixe menu dine great'
p4
aS'join restaurant week enjoy delicious food good cause'
p5
aS'closed today restaurant week continues tomorrow great prix fixe menu offering 1995 lunch 2995 dinner'
p6
asS'2013_43'
p7
(lp8
S'great selection wines accompany delicious lunch dinner portico'
p9
aS'make plans join weekend saturday sunday prix fixe brunch'
p10
aS'delicious coffee selections capuccino caffe latte macchiato'
p11
aS'delicious lunch salad favorite baby field greens romaine salad cherry tomato'
p12
aS'closed mondays make plans great lunch dinner tomorrow'
p13
asS'2013_40'
p14
(lp15
S'restaurant week almost enjoy fantastic entrees like panko crusted tilapia breaded chicken cutlet'
p16
aS'restaurant week almost starting sunday enjoy delicious prix fixe menu portico'
p17
aS'ready restaurant week around corner well great menu starting hope'
p18
aS'dreams came true'
p19
aS'tomorrow'
p20
asS'2013_41'
p21
(lp22
S'planned weekend trip portico would awesome'
p23
aS'come great food restaurant week'
p24
aS'enjoy fantastic coffee portico great selections like american coffee caffe machiato'
p25
aS'restaurant week continues enjoy 1995 lunch 2995 dinner'
p26
aS'closed today join tomorrow enjoy delicious prix fixe dinner restaurant week'
p27
asS'2013_46'
p28
(lp29
S'november 24th portico donating sales proceeds support diabetes research join give'
p30
aS'mark calendars november 24th'
p31
aS'lunch portico make wednesday great'
p32
aS'posted photo facebook'
p33
aS'posted photo facebook'
p34
asS'2013_47'
p35
(lp36
S'sunday november 24th portico donating sales proceeds support diabetes research'
p37
aS'join sunday help support juvenile diabetes research foundation sales proceeds'
p38
aS'join great event'
p39
aS'november 24th portico donating sales proceeds support diabetes research'
p40
aS'join wonderful event'
p41
asS'2013_44'
p42
(lp43
S'make lunch simple today prix fixe course lunch'
p44
aS'happy halloween portico'
p45
aS'wine wednesday together like spaghetti meatballs soon'
p46
aS'homemade gnocchi dinner tonight mushrooms prosciutto marsala cream sauce'
p47
aS'happy monday portico hope tomorrow'
p48
asS'2013_45'
p49
(lp50
S'call 8453652100 reserve holiday party portico'
p51
aS'something funny thursday'
p52
aS'treat employees wonderful holiday dinner hosted portico'
p53
aS'fabulous prix fixe dinner features delicious items like panko crusted tilapia pumpkin ravioli eggplant parmigiana'
p54
aS'call 8453652100 book awesome holiday party portico'
p55
asS'2013_16'
p56
(lp57
S'posted photo facebook'
p58
asS'2013_24'
p59
(lp60
S'mans heart stomach treat life portico brunch'
p61
aS'make reservations today treat life brunch really enjoy'
p62
aS'days stand fathers ready treat delicious fathers brunch'
p63
aS'need reason join tonight well tuesday'
p64
asS'2013_25'
p65
(lp66
S'arent quite weekend doesnt mean cannot enjoy weekend'
p67
aS'please taste buds artichoke hearts stuffed bread crumbs lemon basil aioli'
p68
asS'2013_26'
p69
(lp70
S'join every saturday sunday brunch noon'
p71
aS'tried tuscan salad'
p72
aS'smile tuesday enjoying delicious pork ossobuco'
p73
aS'closed minibreak fourth july week next monday tuesday wednesday thursday'
p74
asS'2013_27'
p75
(lp76
S'happy friday everyone dont forget brunch lunch dinner every saturday sunday brunch noon'
p77
aS'hope everyone safe happy independence cant wait friday reopening'
p78
aS'scrumptious spaghetti smile face'
p79
aS'green healthy romaine salad today served parmesan cheese rosemary croutons caesar'
p80
asS'2013_20'
p81
(lp82
S'congratulations graduates welcome stage life join portico weekend'
p83
aS'lunch great lunch friends even better long dont lunch'
p84
aS'stop enjoy finer things life'
p85
asS'2013_21'
p86
(lp87
S'hope great weekend friends plans memorial weekend'
p88
aS'ever want know pair great menu selection perfect wine helpful tool'
p89
aS'arent enough days weekend know monday leave taste mouth'
p90
asS'2013_22'
p91
(lp92
S'friday already calls celebrating great tasting meal glass match'
p93
aS'option think dinner today portico'
p94
aS'join daily course dinner prix fixe course daily dinner person'
p95
asS'2013_23'
p96
(lp97
S'happy friday friends lets break monotony week come best caption'
p98
aS'join evening portico enjoy tenderloin chicken made sausage rosemary lemon garlic white wine'
p99
aS'word describe taste portico ready'
p100
asS'2013_28'
p101
(lp102
S'cant wait celebrate week'
p103
aS'forecast says rain wine great food stay today portico'
p104
aS'make things easy course lunch today includes great choices appetizer entree'
p105
aS'sweeten tuesday chocolate truffle cake'
p106
aS'sweeten tuesday chocolate truffle'
p107
aS'sweeten tuesday chocolate truffle'
p108
aS'hope everyone wonderful monday stop tomorrow'
p109
asS'2013_29'
p110
(lp111
S'happy friday come weekend brunch'
p112
aS'never wrong baked scallops wrapped prosciutto cherry tomato grand marnier sauce'
p113
aS'quick cheat sheet'
p114
aS'make tuesday sweet homemadetiramisu ladyfingers dipped espresso kahlua layered imported'
p115
asS'2013_17'
p116
(lp117
S'portico special place special mothers 12th carte menu also prix fixe 4250'
p118
aS'joining tonight friday chef special tagliatelle short bolognese sure'
p119
aS'join'
p120
aS'quite monday half great friday wednesday attitude turned around'
p121
asS'2013_37'
p122
(lp123
S'congratulations great show york fashion week friend meskita'
p124
aS'missing sunshine come brighten chocolate truffle rich flourless chocolate cake served'
p125
aS'mark calendar portico hosting place table benefit food bank hudson valley'
p126
aS'years since attacks every think loved ones lost'
p127
aS'years since attacks every think loved ones lost'
p128
aS'today 12yrs never forget thoughts nation'
p129
aS'portico hosting place table benefit food bank hudson valley tuesday september'
p130
aS'enjoy great dining experience portico'
p131
aS'closed today hope everyone wonderful start week come visit tomorrow'
p132
asS'2013_36'
p133
(lp134
S'formal sephardic greeting tizku leshanim rabbot merit many years answer'
p135
aS'rosh hashanah occurs days first passover pesach earliest date rosh hashanah'
p136
aS'trivia time common greeting rosh hashanah shanah tovah hebrew means good'
p137
asS'2013_35'
p138
(lp139
S'celebrate work week portico stop lunch dinner friday saturday'
p140
aS'going mini vacation sunday tuesday hope everyone great long'
p141
aS'posted photo facebook'
p142
aS'hard calm surrounded great food'
p143
aS'make tonight date night portico course weekday dinner special know deserve'
p144
asS'2013_34'
p145
(lp146
S'hooray friday come lunch dinner order great wine list compliment'
p147
aS'pasta portico'
p148
aS'chef marino disaverio manager dario disaverio roots york city former scalini gian'
p149
aS'take virtual tour beautiful restaurant'
p150
asS'2013_33'
p151
(lp152
S'posted photo facebook'
p153
aS'make thursday sweet gelato available choice hazelnut biscotti pistachio tahitian vanilla'
p154
aS'posted photo facebook'
p155
aS'happy tuesday stop visit love'
p156
asS'2013_32'
p157
(lp158
S'portico italian restaurant consistently rated zagat including consecutive years'
p159
aS'make great thursday lunch dinner portico'
p160
aS'seafood spuntini samplers favorite panko crusted salmon shrimp wrapped'
p161
aS'daily course lunch great deal available sunday tuesday wednesday thursday'
p162
asS'2013_31'
p163
(lp164
S'fall love portico'
p165
aS'almost week afterall happy august everyone'
p166
aS'make wednesday great potato croquette peppers mozzarella pancetta tomato basil sauce'
p167
aS'cool today gelato choice hazelnut biscotti pistachio tahitian vanilla chocolate cream'
p168
asS'2013_30'
p169
(lp170
S'posted photo facebook'
p171
aS'stop dinner scaloppini veal served eggplant prosciutto mozzarella light tomato wont regret'
p172
aS'posted photo facebook'
p173
aS'make tuesday better joining portico'
p174
asS'2013_19'
p175
(lp176
S'hope great weekend hope enjoy mothers filled'
p177
aS'days stand mothers havent already great time reserve'
p178
aS'portico great different selections sometimes better comfort classic'
p179
aS'closed mondays hope choose start week open tuesday'
p180
asS'2013_18'
p181
(lp182
S'joining tonight friday chef special shrimp calamari salad fabulous tagliatelle'
p183
aS'mothers drawing near make reservation also view special menu'
p184
aS'need serious hanger management therapy covered'
p185
aS'dont evening without visit favorite ristorante'
p186
asS'2013_39'
p187
(lp188
S'happy friday celebrate beginning weekend portico soon'
p189
aS'posted photo facebook'
p190
aS'want thank yesterday great cause hope enjoyed'
p191
aS'today stop portico place table benefit food bank hudson valley'
p192
aS'tomorrow place table benefit food bank hudson valley donate'
p193
aS'stop lunch today tenderloin chicken sausage lemon garlic rosemary white wine'
p194
asS'2013_38'
p195
(lp196
S'lets toast happy friday share toast friends great'
p197
aS'join place table benefit food bank hudson valley tuesday'
p198
aS'come lets youll pick great'
p199
aS'enjoy terrific course daily lunch prix fixe course lunch person gratuity'
p200
aS'course daily lunch prix fixe course lunch person gratuity included'
p201
aS'join place table benefit food bank hudson valley tuesday donate'
p202
as.