(dp0
S'2013_42'
p1
(lp2
S'football sunday boys football'
p3
aS'bonding beatboxing soly ramos'
p4
aS'like idea could ignitionactivated mode\xe2\x80\x9d keep drivers texting'
p5
aS'mmmm lunch delicious'
p6
aS'buenos dias hows morning'
p7
asS'2013_43'
p8
(lp9
S'previous posts cool think stuck testies'
p10
aS'think going report spam period'
p11
aS'boys hunting birds birdfun family follow full'
p12
asS'2013_40'
p13
(lp14
S'preparing'
p15
asS'2013_46'
p16
(lp17
S'tried making friend nasioc failed subaru forum'
p18
aS'always tricky'
p19
aS'goodness zonkey'
p20
aS'fast going thats whats important'
p21
aS'ewww phil peed pointandlaugh'
p22
aS'arghghghghghgh fmlllllllllllllllllllllllll'
p23
aS'life'
p24
aS'subaru family help likes page thanks subiewave'
p25
aS'gotta move state legal'
p26
aS'listenin stevie work oldermusicians'
p27
aS'looks like hardwork'
p28
aS'windows discovery hold windows press boom techy'
p29
aS'facebook making easier donate help philippines news feed link donate'
p30
aS'hour workday paid adultlife'
p31
aS'looking good'
p32
aS'might worthy chpt subaru owners bible thee worthy shall drive almighty'
p33
aS'thoughts exactly things planned time released good place'
p34
aS'summer left didnt borrow someones motorcycle ride miss riding maybe next year'
p35
aS'volunteer liking small business page clicks away gtgt'
p36
aS'many people upset world trade center tallest negativity glad turned lightsto honor vets'
p37
aS'holds'
p38
aS'addboobstotvtitles useless without pictures'
p39
aS'agree trying wonder interesting'
p40
aS'subaru ready snow'
p41
aS'white white skully doesnt mess hair snow'
p42
aS'111213 hoooeee guess numbers mean'
p43
aS'love getting equipment refreshing makes think leveled'
p44
aS'starting south jersey firstflakes'
p45
aS'preciate brotha things looking promising today'
p46
aS'respect friend feels like something falls apart life important component'
p47
aS'think suicidal thoughts average person'
p48
aS'relationships kids shall never'
p49
aS'2015 subaru coming tune witness history subaruwrx'
p50
aS'involved people save children families affected'
p51
asS'2012_48'
p52
(lp53
S'hmmm appim using chaton keep touch buddies discover features youve never seen'
p54
asS'2013_44'
p55
(lp56
S'smashes floor away vinemagic soly ramos'
p57
aS'happy birthday birthdaytweet'
p58
aS'never take things granted'
p59
aS'think serious problems maybe bipolar'
p60
aS'sillyfaces jojo'
p61
asS'2013_45'
p62
(lp63
S'defying gravity nice work'
p64
aS'since girlfriend pregnant cant sleep weird thing happening sleeps sleep shes pain'
p65
aS'mobile sucks comes images 3yrs later dive first downloaded still disappointed'
p66
aS'ultimate patience test harder always think'
p67
aS'dumb girl lies feelings badmood going long night'
p68
aS'share love side business'
p69
aS'everything okay'
p70
aS'beatbox jojo'
p71
aS'aaaahhh'
p72
aS'hashbrowns humpday'
p73
aS'friendly humpday reminder feeling remember life full waves going better positivity'
p74
aS'learned little help friend teach basics lookup songs online play'
p75
aS'sometimes life need stop listen smile agree move'
p76
asS'2012_45'
p77
(lp78
S'whether dads matters love show another'
p79
aS'supported president second term encourage watch thank'
p80
aS'well look legalize recreational marijuana'
p81
aS'snowing subiweather'
p82
aS'four years'
p83
aS'20000 fired iowans look like obama2012'
p84
asS'2012_44'
p85
(lp86
S'redskins creative plays'
p87
aS'wear'
p88
aS'happyhalloween battle offices florida jersey think'
p89
aS'sandy cant stop emaint created emergency response team service continue'
p90
aS'data companies reacting sandy ready disaster recovery'
p91
asS'2012_46'
p92
(lp93
S'scale 1bad multi delays delta first flying'
p94
aS'wouldve known flying delta wouldve stopped learned lesson flying'
p95
aS'feels amazing take load shoulders even makes people suffer holding back almost lying'
p96
asS'2012_43'
p97
(lp98
S'think going start rooting hometeam'
p99
aS'longer change situation challenged change viktor frankl'
p100
aS'drive'
p101
aS'dont complain relationship phone partner'
p102
aS'pretty awesome idea useful commented google street view hits trails discovery news'
p103
asS'2013_20'
p104
(lp105
S'love papa johns phillies5'
p106
aS'emaint voltageawards'
p107
asS'2013_19'
p108
(lp109
S'listening soft soothing spanish english room join'
p110
asS'2013_28'
p111
(lp112
S'listening bachata room join bachata dominicanos music'
p113
as.