(dp0
S'2013_42'
p1
(lp2
S'sure take raise moremoney'
p3
asS'2013_43'
p4
(lp5
S'lucky time'
p6
aS'think improving little last attempts'
p7
aS'touche'
p8
aS'place terrible dont even cross walk'
p9
aS'happens almost everyday theyre become speed bumps days'
p10
aS'dont understand people blanchard wait comes cross road proceed walk slow possible hurryup'
p11
aS'bring cups next time well play night'
p12
aS'hands might cuts taxidermyproblems painful'
p13
asS'2013_40'
p14
(lp15
S'sell phone'
p16
aS'lets tigers'
p17
aS'woke little'
p18
aS'make sure right'
p19
aS'work till monday could used stillgettingpaid'
p20
aS'guys need stop throwing beer bottles please'
p21
aS'youre kind'
p22
aS'never phone call today'
p23
aS'happy last night hotel peaceoutkentucky'
p24
aS'happy bday'
p25
aS'come home wednesday greatnews nomorekentucky'
p26
aS'breakingbad keep scrolling'
p27
aS'happens last episodes watch back'
p28
aS'dont spoil'
p29
aS'keep phone close'
p30
aS'like youre going anything'
p31
asS'2013_41'
p32
(lp33
S'good night good friends'
p34
asS'2013_46'
p35
(lp36
S''
p37
aS'pretty awesome'
p38
aS'beet season'
p39
aS'plus employee discount sounds like hell deal makeithappen'
p40
aS'little target really cheap extremecheapskates'
p41
aS'might free keep bitching though'
p42
aS'would'
p43
aS'think time invest winter coat tiredoffreezing'
p44
aS'youre almost grown almostabiggirl'
p45
aS'really glad longer walk class weather like anymore'
p46
asS'2013_47'
p47
(lp48
S'sounds like would terrible'
p49
aS'even mean'
p50
aS'alright thanks'
p51
aS'anywhere stream beal game today'
p52
aS'sleeping snow bank move'
p53
aS'went talked said much catch favors right'
p54
aS'whoever'
p55
aS'probably saturday theres'
p56
aS'bring blanchard isnt anything even close comparison damn town'
p57
aS'bring something good might open spot'
p58
aS'cant stop thinking food going smash weekend thanksgiving 601thomasstyle'
p59
aS'really sure thats looking'
p60
aS'sure people would agree'
p61
aS'think almost time look actually went school state would ideal needafreshstart'
p62
aS'hear knocks means theyre coming'
p63
aS'would probably keep growing blanchard'
p64
aS'told look like meth head broken tooth blanchard alltimelow'
p65
aS'done'
p66
aS'yeah need work'
p67
aS'yeah think'
p68
aS'look like hanging thumb'
p69
aS'much going talk someone work sort deal'
p70
aS'woke noticed broken front tooth fell last night greatstarttoday lookingclassy'
p71
aS'staying tuned need visual beast'
p72
aS'finding sasquatch show completely terrible entertaining edgeofmyseat'
p73
aS'check work tomorrow'
p74
asS'2013_44'
p75
(lp76
S'yeah sucks tonight'
p77
aS'youll miss'
p78
aS'would gallery dont enough stuff home'
p79
aS'mean wants look like shit take somewhere else'
p80
aS'rookies dont work best studios country'
p81
aS'thats bullshit bestinthebizz'
p82
aS'looks like might mounted think know'
p83
aS'already brother dontforget'
p84
asS'2013_45'
p85
(lp86
S'tripleog'
p87
aS'think album time enough whiteboyproblems'
p88
aS'yeah bored hell last night ended buying'
p89
aS'usually huge eminem album point'
p90
aS'time moving slow today hurryup330'
p91
aS'well didnt single deer still paid tree stand today cantbeatthat smallvictories'
p92
asS'2013_24'
p93
(lp94
S'paybacks bitch'
p95
aS'elusive little basturd'
p96
aS'thats afraid still shop place baby kind'
p97
aS'today find damn baby'
p98
aS'whoever definitely looks like dbag'
p99
aS'kidding white russian great drink'
p100
aS'looking like white russian kind night boozetime'
p101
aS'going rethink order'
p102
aS'want strawberry cheesequake'
p103
asS'2013_25'
p104
(lp105
S'watched last week'
p106
aS'great movie'
p107
aS'point exactly'
p108
aS'know feel defence overrated'
p109
aS'dont think ever gotten slow pitch bestcatcheraround'
p110
aS'skills impress likely game time decision'
p111
aS'thunderstroms like week straight getting shit'
p112
aS'better show youre going bitchy igottafuckwithya'
p113
asS'2013_26'
p114
(lp115
S'better delete bunch terrible stations'
p116
asS'2013_20'
p117
(lp118
S'bags beer perfectthursday'
p119
aS'little sammy kershaw radio great start'
p120
aS'language offensive'
p121
aS'found youre still getting shit today'
p122
aS'notch education need jealous'
p123
aS'toomanylines'
p124
aS'cant correct cant read'
p125
aS'morning would better tape measure guessicantwork'
p126
aS'thats known long time think options need explored howdidwemakeittolansing'
p127
aS'think might right keeping track right definitely turn'
p128
aS'probably look legit time'
p129
aS'game going picked round2'
p130
aS'even close regular blend exclusive'
p131
aS'better move'
p132
asS'2013_21'
p133
(lp134
g37
aS'ready'
p135
aS'didnt shot series'
p136
aS'wings tonight gonna great night'
p137
asS'2013_22'
p138
(lp139
S'birthdayanal'
p140
aS'gourmet shit'
p141
aS'thats shelf coffee right'
p142
aS'decent choice'
p143
aS'exclusive blend'
p144
asS'2013_23'
p145
(lp146
S'thought scaring shit tonight decided drunk instead'
p147
ag37
aS'knew good innings every start'
p148
aS'must drunk game inning'
p149
aS'trying nice bloop single'
p150
asS'2013_28'
p151
(lp152
S'first birthday havent drank long time mustbegettingold'
p153
asS'2013_29'
p154
(lp155
S'must huffing varnish'
p156
aS'yeah already maxed funds'
p157
aS'exactly would probably take wherever came'
p158
aS'tickets guys drinks night'
p159
aS'buying shit'
p160
aS'sneaky power retardstrength'
p161
aS'glove long'
p162
asS'2013_37'
p163
(lp164
S'actually made time mssgolfouting letsgo'
p165
aS'going toothless place fast possible'
p166
aS'guys better save back kentucky'
p167
aS'sorry tigers'
p168
aS'laundry might boring place world'
p169
aS'ripped pants work whataday'
p170
aS'wait tonight'
p171
aS'saturday thisweeksucks'
p172
asS'2013_36'
p173
(lp174
S'goblue'
p175
asS'2013_35'
p176
(lp177
S'found funny'
p178
aS'quick burn inches waist losing body less days'
p179
aS'quick burn inches waist losing body less days'
p180
aS'quick burn inches waist losing body less days'
p181
asS'2013_34'
p182
(lp183
S'ditched'
p184
asS'2013_30'
p185
(lp186
S'prank friday'
p187
asS'2013_19'
p188
(lp189
S'mean almost summer time might work little year'
p190
aS'finally gave'
p191
aS'worked hard could look like beachbod'
p192
aS'dont even know means'
p193
aS'deserve girl'
p194
aS'wings clipping ducks'
p195
asS'2013_39'
p196
(lp197
S'check dont lions kentucky fucking hate place impissed'
p198
aS'worked hours week rewarded sunday time relax watch lions restoretheroar'
p199
aS'drinking beer watching football hell saturday night ihatekentucky'
p200
aS'dicks mountain kentucky'
p201
aS'dicks kentucky'
p202
aS'work saturday sunday really blows iwanttosleepin'
p203
aS'hustled guys eucher newphonefund'
p204
aS'store going badass done dicks kentucky'
p205
aS'alligator first time good tryingnewthings'
p206
aS'away family friends leaves much time think shit notalwaysgoodthoughts'
p207
aS'false seen midgets around campus'
p208
aS'picked'
p209
aS'especially many beers last night'
p210
aS'might need couple cups coffee morning movingslow'
p211
aS'really hope dont work hours tomorrow iamdrunk'
p212
aS'think need beers true'
p213
aS'hour work time drink beer tomorrow'
p214
aS'first state'
p215
aS'better happens'
p216
aS'sure probably flipped channels times case missed'
p217
aS'hotel doesnt pissed breakingbad'
p218
asS'2013_38'
p219
(lp220
S'well ride terrible getmeoutofthiscar'
p221
aS'better anymore side back'
p222
aS'better good practiced'
p223
aS'going work couple weeks'
p224
aS'pretty good weekend kentucky peaceoutmichigan'
p225
aS'amount money gave spend food kentucky going make trip better straightcash'
p226
aS'nobody answer phones like could roncreppiesoffice'
p227
aS'definitely class miss'
p228
aS'course waits rain outside bullshit'
p229
aS'know douche named kyle'
p230
aS'defense wins championships'
p231
aS'hate lucky wishiwasstillsleeping'
p232
as.