(dp0
S'2013_35'
p1
(lp2
S'guess shouldnt'
p3
aS'keep delete replytweet'
p4
asS'2013_34'
p5
(lp6
S'guess nobody would actually like continue talking peace girl scouts'
p7
aS''
p8
ag8
aS'deleting twitter half hour'
p9
aS'people could read minds punched face alot haha would'
p10
aS'better question listen music'
p11
aS'deleting tonight'
p12
aS'wecantdateif dont like fish'
p13
aS'going delete home want know personal know byebye'
p14
aS'really wanna textingsnapchat buddy'
p15
aS'wants texting buddy'
p16
aS'stalker sick'
p17
aS'private finally'
p18
aS'lets goingoffprivate hopeshedoesntstalkmeagain'
p19
aS'talked answer asked snapchat'
p20
aS'hate school pointless elementary school taught fundamentals everyday dont need'
p21
aS'obviously nobody wants followers'
p22
aS'love unless blowin twitter interactions ohwell'
p23
aS'need sleep'
p24
aS'retweet give shout mustbefollowingthough'
p25
aS'picture whiskey yesterday yellow shirt today'
p26
aS'gets stuck head everytime though agree somewhere actually drug'
p27
aS'drug'
p28
aS'comfortable dressed since school started'
p29
aS'weird refuse jello spoon'
p30
aS'sorry dont care dont want watch videos singing right stop'
p31
aS'change name often doesnt find crazybitch'
p32
aS'someone help name dont private'
p33
aS'tweetyourflirtingtechnique youre like youre truck'
p34
aS'tweetyourflirtingtechnique like truck boots'
p35
aS'stomach sounds like volcano starving'
p36
aS'bored entertain thanks'
p37
aS'actually takin instaslip'
p38
aS'shut hell relax'
p39
aS'stop asking stupid questions going head'
p40
aS'instaslip coming minutes'
p41
aS'need arias boyfriend'
p42
aS'unless fall asleep totallypossible'
p43
aS'picslips coming minutes'
p44
aS'picslips'
p45
aS'thank'
p46
aS'list'
p47
aS'thanks beautiful'
p48
aS'said girls cant mine favorites'
p49
aS'youve made mine love returning favor'
p50
aS'love youre perfect'
p51
ag8
ag8
ag8
aS'course'
p52
aS'obviously'
p53
aS'thank want take picture like'
p54
aS'really abby eating acting goofy guiltyhigh'
p55
aS'handed bowl said definitely doesnt love'
p56
aS'guys talking hooking imaslut notreally thatstheproblem'
p57
aS'want name help'
p58
aS'hacked hell'
p59
aS'anyone claims best followers delusional definitely'
p60
aS'whos messing baby octopus'
p61
aS'trying start shit want stop harassing'
p62
aS'would like help stop favorite last tweet name'
p63
aS'anyone wanna help crazy bitch stalks harasses twitter'
p64
aS'whats'
p65
aS'really octopus girl'
p66
aS'impossible look ugly'
p67
aS'course'
p68
aS'hope school babycakes begood'
p69
aS'confused'
p70
aS'could ever delete amazing people make much better lovemyfollowers'
p71
aS'youre welcome pretty girl great'
p72
aS'pretty'
p73
aS'well definitely going'
p74
aS'thanks'
p75
aS'help goal follow follow follow'
p76
aS'wouldnt main cake like better truck cuter dress though'
p77
aS'found like five months told wedding cake'
p78
aS'guess nobody wants know personal well tomorrow time getting computer probably deleting'
p79
aS'could enlarge part body would boobs'
p80
aS'possibly deleting want personal'
p81
aS'dont understand cant move dont talk either want stop please'
p82
aS'honesty thinking deleting'
p83
aS'either private delete'
p84
aS'annoying anons private'
p85
aS'asked thing good last year fourth school already want drop'
p86
aS'second anon twitter shes stalked third including personal believe crazy perfect definition'
p87
aS'shes twitter yeah annoying navy like talk stalk'
p88
aS'stalks starts shit wont admit boyfriend cheated dont know'
p89
aS'beyond done dealing fucking psycho bitch'
p90
aS'activated account automatically delete tweets'
p91
asS'2013_30'
p92
(lp93
S'sings pretty girl hesakeeper'
p94
as.