(dp0
S'2013_42'
p1
(lp2
S'followerfix retweet enter giving away realtreextragreen camo hats winners chosen 2day'
p3
asS'2013_43'
p4
(lp5
S'dont ever forget people praying everyday abilities take granite apprecia\xe2\x80\xa6'
p6
aS'opposite opposite progress congress merica'
p7
aS'someone asks you\xe2\x80\x99re tonight \xe2\x80\x9cgame perfect response'
p8
aS'follow'
p9
aS'think baseball borin kind smart persons sport merica'
p10
aS'womens basketball head coach rick stein addresses media ford center usiwbb'
p11
aS'amazing congrats 32pt shot belmont county sherri potts'
p12
asS'2013_40'
p13
(lp14
S'government wants take break deer season merica'
p15
aS'huntin adds years life life years\xe2\x80\x9d amen'
p16
aS'education important goin huntin importanter'
p17
asS'2013_41'
p18
(lp19
S'never mess mans flag faith family merica'
p20
aS'country needs little phil robertson little less kanye merica'
p21
aS'obamas statement debt ceiling 2006 fingers bleed'
p22
asS'2013_46'
p23
(lp24
S'couldnt agree congrats love young'
p25
aS'whoa'
p26
aS'someone shed light cals gray activities'
p27
aS'possible illinois state record giant whitetail'
p28
asS'2013_47'
p29
(lp30
S'followerfix retweet enter giving away realtreextra iphone cases winners 2day'
p31
asS'2013_44'
p32
(lp33
S'congrats mark owen ohio shot worldclassbuck last week near wooster green score whitetail'
p34
aS'trailcammonday taken friends fulton'
p35
asS'2013_45'
p36
(lp37
S'twitter acct hacked think mine'
p38
aS'prefer hunter hayes youre girl'
p39
aS''
p40
asS'2013_24'
p41
(lp42
S'nice'
p43
aS'congrats hartnagel houston making allhcc mccoy shipman making allhcc honorable mentio\xe2\x80\xa6'
p44
aS'strong tornado damaging wind threat today places accustomed heres please look share'
p45
asS'2013_25'
p46
(lp47
S'playing'
p48
asS'2013_26'
p49
(lp50
S'shows timeline retweet respect amen'
p51
aS'crossroads baseball showcase dont blue'
p52
aS'rims rough ride without tires'
p53
asS'2013_27'
p54
(lp55
S'congrats tanner marcum area player year well deserved'
p56
aS'girls athlete year marcum earns inaugural honor'
p57
aS'indiana bulls white everybody wants'
p58
aS'garrett sherrell albany trent astle jeff zack brown seymour named baseball coaches assoc'
p59
asS'2013_20'
p60
(lp61
S'make uncommon effort ordinary become extraordinary uncommon'
p62
aS'gods word lion doesnt need anyone defend loose defend'
p63
asS'2013_21'
p64
(lp65
S'nice'
p66
asS'2013_22'
p67
(lp68
S'bulls season starts tomorrow bloomington looking forward great summer bulls family good luck stil\xe2\x80\xa6'
p69
asS'2013_23'
p70
(lp71
S'pathetic decision team home field advantage deep'
p72
aS'2014 chandler dale jeffersonville touched last night junior impressive closing region\xe2\x80\xa6'
p73
asS'2013_28'
p74
(lp75
S'officially committed coastal carolina university thank former coaches family'
p76
aS'favorite reds player time barry larkin'
p77
asS'2013_29'
p78
(lp79
S'brandon johnson albany commits xavier johnson games participate plus slider\xe2\x80\x9d congrats'
p80
asS'2013_5'
p81
(lp82
S'whats brunch'
p83
asS'2013_6'
p84
(lp85
S'tanner marcum albany unsigned 2013 hoosier basketball magazine senior'
p86
asS'2013_2'
p87
(lp88
S'great write tanner marcum success'
p89
asS'2013_17'
p90
(lp91
S'final stat line brandon johnson 15ks bulldogs improve record'
p92
aS'bulldogs defeat evansville north score marcum goes striegel goes sherrell goes'
p93
aS'bulldogs complete comeback take victory johnson shuts door final score'
p94
aS'announces kendyl dearing tanner marcum signed nlis compete usieagles usiwbb'
p95
aS'tanner marcum suiting screaming eagles next season bulldog proud congrats'
p96
aS'congrats tanner marcum signing today play basketball university southern indiana'
p97
aS'comer tyler houston homeruns tonight nc91 westfield wednesday godogs'
p98
aS'deserves endless retweets respect'
p99
asS'2013_36'
p100
(lp101
S'flipping back forth college football like short attention span theater1 teams root'
p102
aS'open letter johnny manziel good stuff'
p103
asS'2013_35'
p104
(lp105
g40
asS'2013_34'
p106
(lp107
S'real heroes aint ones hittin homers scorin touchdowns theyre ones riskin lives protect stars'
p108
asS'2013_15'
p109
(lp110
S'congrats tanner marcum albany 2013 commitment university southern indiana'
p111
aS'best wishes josh rogers glad surgery went well reminder tommy john games surgery'
p112
aS'every isnt'
p113
asS'2013_32'
p114
(lp115
S'many things basketball life optional success'
p116
asS'2013_31'
p117
(lp118
S'louisville officer going driver tire flat click read things'
p119
asS'2013_19'
p120
(lp121
S'drew barker 2014 chooses kentucky south carolina tennessee'
p122
aS'eliminated prospect today twitter account unreal cantwont bring table thinkbeforeyoutwe\xe2\x80\xa6'
p123
asS'2013_18'
p124
(lp125
S'would tucker marcum tannee'
p126
aS'southern indiana prep sports daily stories today'
p127
aS'amen brother hard understand'
p128
aS'athlete confesses media calls hero says christian virgin media'
p129
aS'taylor swift meets matthew mitchell gets jerseybecause well'
p130
aS'reds family lost great brad animal lesley heart heavy today retweet reds fans remember'
p131
asS'2013_38'
p132
(lp133
S'anyone ever want quiet faith christ bold stnd shall\xe2\x80\xa6'
p134
ag40
asS'2013_14'
p135
(lp136
S'breaking news senior josh rogers year undergo tommy john surgery thoughts prayer'
p137
as.