(dp0
S'2013_42'
p1
(lp2
S'writtenemotionstitle'
p3
asS'2012_49'
p4
(lp5
S'johnny cash writes wife moisten eyes'
p6
aS'tweethearts facebook friends lets good safe warm weekend send hugs love'
p7
aS''
p8
asS'2012_48'
p9
(lp10
S'mood hummmzoned little'
p11
aS'thetalk mistake firing leah holly miss'
p12
aS'thetalk miss leia holly'
p13
aS'thetalkhoping lindsey gets help needs'
p14
aS'beautiful'
p15
aS'need support person part release papers knowright paper twiter person need'
p16
aS'mustread story power voice personal narrative horrors slavery breakthrough radio show'
p17
aS'foot bcause actually nice looking foot'
p18
aS'diagnosed ptsd former victim spousal abuse wanting raise awareness'
p19
aS'mood thoughtful post traumatic stress disorder thought former veterans apparently spousal abuse cause'
p20
aS'healthy canned nonperishable food needed help provide food security apart'
p21
aS'local redhook business could particle maskrespirator clean give'
p22
aS'cold people disaster zones area need heaters help spread word'
p23
aS'supporting troops veterans givingtuesday donation'
p24
asS'2011_51'
p25
(lp26
S'growth willingness reality every moment'
p27
aS'instead reacting observe reaction react'
p28
aS'think little conceited anyway'
p29
aS'words make think thought music makes feel feeling song makes feel thought dailystrength'
p30
aS'attitude either lock door success denis waitley'
p31
aS'rises night winter becomes spring life arises death mufasa lion king'
p32
aS'seven wonders world eyes child seven million walt streightiff'
p33
asS'2011_50'
p34
(lp35
S'dream lofty dreams dream shall become james allen'
p36
aS'poverty numbers unacceptable country'
p37
aS'mornin embrace makeitdowhatitdo'
p38
aS'cmon lets many followers today wide'
p39
asS'2012_45'
p40
(lp41
S'mean although wonder whos inspiring ability connect inspirational people walks life'
p42
aS'love following howard tweeter interesting technology inspired others wonderful gift'
p43
aS'wondering anyone ever'
p44
aS'actually said bfore'
p45
aS'funny realize time soul knows mine'
p46
aS'post'
p47
aS'hate feeling like stable place feel like pause time need forward'
p48
aS'hate keep letting fear take life seem worst enemy'
p49
aS'drove truck years look side facing window wearspf'
p50
aS'thank'
p51
aS'horrible please lift spirits'
p52
aS'honestly idea'
p53
aS'could hello'
p54
asS'2012_47'
p55
(lp56
S'sorry loss praying strength peace mind'
p57
aS'today celebrate life rest peace love dear beautiful friend miss much'
p58
aS'bret rest peace sweet'
p59
aS'good morning hope wonderful'
p60
aS'chance feel inclined could sign least thanks appreci'
p61
aS'english princess'
p62
aS'thank speaking frank brave heartbreaking piece child sexual'
p63
aS'people honesty yeah'
p64
aS'probs itunes managed dload great single'
p65
aS'phenomenal great variation genres fantastic vocals guitars drums fantastic'
p66
aS'beach channel rockaways needs h2otoiletriestoiletpaperdiapers size 45amp6cleaning'
p67
aS'please heroes needed paralyzed manfamily lost everything sandy'
p68
aS'\xe2\x98\x86wish granted\xe2\x98\x86single young boys needs heroes sandy destroyed home'
p69
aS'nice perk'
p70
aS'dont think young would make sure nothing little swallow everything goes mouth first'
p71
aS'mood twilight zone know thats real mood feeling describe right emotions drive'
p72
asS'2012_46'
p73
(lp74
S'husband rescued woody kids threw tree pulled string walking house said glad'
p75
aS'happy thanksgiving hoping everyone family friends somewhere thankful family'
p76
aS'reinventing kids thanksgiving table'
p77
aS'want make difference today help protect polar bear helpthepolarbear'
p78
aS'theyre cute extinct lets helpthepolarbear agree'
p79
aS'relationships like jerry tease knock hate'
p80
aS'hours later whats late dont want talk anymore'
p81
aS'frustratedwater dont know longi hope fixed today'
p82
aS'yawning bodys saying battery remaining'
p83
aS'funny right'
p84
aS'could entire collection\xe2\x80\xa6 enter organicallygorgeous'
p85
aS'great mood want dancing mood'
p86
aS'course sometimes several different moods time idea feeling'
p87
aS'funny sudden started thinking moods start letting know mood'
p88
aS'wish times brain slow button'
p89
aS'best relationship completely still love'
p90
aS'service could help sandy victims week laundry salon daycare help connect'
p91
aS'sandy need food blankets cleaning supplies office nevins stampvolunteers 107pm cars'
p92
aS'announced hopemob going flash mobs gifts families need holiday season intere'
p93
aS'drop redhook donations accepted including clothing wolcott brooklyn 11231'
p94
aS'love work saying'
p95
aS'compassion inspiring need like'
p96
aS'whatmakesmesmile children smiling'
p97
aS'apparently told talk sleep'
p98
aS'wife mother three grandmother nine'
p99
aS'actually goodlookimg foot'
p100
aS'won\xe2\x80\x99t know brain test limits push beyond'
p101
aS'christmas help struggling family granted'
p102
aS'college student whose parents died sandy receives 50000 donations news'
p103
aS'help single mother clothes daughter granted'
p104
aS'wonderful kind compassion heart prayers goes everyone'
p105
aS'much leah sponsoring sleep help homeless kids hurt sandy join'
p106
aS'leahoccupysandy registry updated witems help cleanout rebuild efforts lots choose'
p107
aS'christ comchurch provide meals spread word sandy'
p108
aS'current needs winter hats gloves scarves underwear sandy\xe2\x80\x9d help'
p109
aS'near future well able communicate devices actual human contact outlawed apple'
p110
aS'still weird'
p111
aS'woke feeling like twilight movie separation last night morning acting like another'
p112
aS'dawn dishes really works'
p113
asS'2013_26'
p114
(lp115
S'posting'
p116
asS'2013_28'
p117
(lp118
S'working poem posted livejournal android'
p119
asS'2012_22'
p120
(lp121
S'dawn dishes really works'
p122
ag8
asS'2011_52'
p123
(lp124
S'kuumba creativity much order leave community beautiful beneficial inheri'
p125
aS'watch episode body proof 10pm please retweet'
p126
aS'every wall door 2011lessons'
p127
asS'2012_8'
p128
(lp129
S'post'
p130
aS'life stuff'
p131
aS'following making film awesome'
p132
asS'2012_9'
p133
(lp134
S'least tornadoes confirmed today history tornadoes single march'
p135
aS'lucky moved side atlanta even raining torando rockdale county paulding'
p136
aS'roswell alpharetta take cover dangerous tornado'
p137
asS'2012_4'
p138
(lp139
S'congratuations american idol'
p140
aS'present moment conspiracy total universe resist resist universe flow'
p141
aS'brighteyed snuck table cafe hangs know wanted right'
p142
aS'bring love happiness bring others'
p143
aS'wondering tweet pretty funny stare time tweet back delete'
p144
aS'people hate rate shake break strong stand makes'
p145
aS'congratulations american idol'
p146
asS'2012_5'
p147
(lp148
S'lunch'
p149
aS'sound wedding high style london'
p150
aS'beautiful'
p151
aS'looking country music listen check jeff scott stevens music'
p152
aS'also wanted thank tweeting experience awesome'
p153
aS'love pictures'
p154
aS'ghost writers really could left disappointed'
p155
asS'2012_6'
p156
(lp157
S'advertisement feature callled heated steering wheel'
p158
aS't4td mother taught stand truth someone tells dont fight whit'
p159
aS'feel better'
p160
aS'looks like much'
p161
asS'2012_1'
p162
(lp163
S'good friend always says change story change life story going tell 2012'
p164
asS'2012_10'
p165
(lp166
S'feck become favorite words\xe2\x80\x9d feck'
p167
aS'fecki like'
p168
asS'2012_50'
p169
(lp170
S'good loved working babys1stchristmas heartofchristmas hallmarkchannel'
p171
aS'costars babys1stchristmas talented'
p172
aS'troll legs relaxing'
p173
aS'loved movie'
p174
aS'alright youre reindeer heres motivation best part watch'
p175
aS'hello really stressful hello back'
p176
aS'congratulations upcoming series 2013 family tools'
p177
aS'also youngest daughter dayna year clean prescription pain medication monitored closer'
p178
aS'want 2sign petition metal detectors armed guys plain clothes want schools make entr'
p179
aS'extremely sick wrong country saddens xoxo'
p180
aS'interviewing chef team judah'
p181
aS'could send back hello'
p182
aS'brother mike cowrote produced song aintnotrain available records itunes'
p183
aS'fund awarded nearly 625000 grants nonprofits brooklyn list'
p184
aS'going send items need thank hope kids great christmas\xe2\x80\x9d'
p185
ag8
aS'name cassie thank'
p186
aS'playing around'
p187
aS'please prayer daughter fighting prescription pain addiction months clean shes'
p188
aS'twitter campaign stopchildabuse please join donate tweet'
p189
aS'anytime jeffsorry missed tweet awesome hope'
p190
aS'pictures like time'
p191
aS'william shatner'
p192
aS'merry christmas'
p193
aS'think villain star trek movie\xe2\x80\x9d hear benedict cumberb'
p194
aS'shout back please'
p195
aS'nothing worth accomplishing life worthwhile easyworkhard looking amazing'
p196
aS'info followers week check jeff scott stevens music itunes'
p197
aS'turns also post tramatic stress disorder ptsd first marriage therapy positive better'
p198
aS'parsonstroll legs relaxing crazy tested'
p199
asS'2012_51'
p200
(lp201
S'finshed'
p202
aS'tree'
p203
aS'wierd feel like reply tweet'
p204
aS'house'
p205
aS'right woodpecker call charlie'
p206
aS'time dont pets ready know change'
p207
aS'moved many times feel like gypsy told look like'
p208
aS'truthfully would want worry moving would happy'
p209
aS'millions would still want jeep wrangler'
p210
aS'hurt talking intentionally'
p211
aS'five respect others beliefs feel important'
p212
aS'open mind means listen think decide whats best'
p213
aS'know could leave anything would steal three softspoken four open minded'
p214
aS'wondered crazy know basic facts never emotional physical hurt anyone'
p215
aS'attn students want travel world enter global giveaway'
p216
aS'started project excided'
p217
aS'hope merry christmas friend thank brittany family well'
p218
aS'getting ready show august 27th santa monica main focus band rehearsal better rock'
p219
aS'love country music'
p220
aS'empress anyone intellectual prowess'
p221
aS'shooting video think that\xe2\x80\x99s good place winners listen watch video someone figur'
p222
aS'sorry best always know dont actually know know best'
p223
aS'sorry best always know dont actually know know best dont'
p224
aS'troll legs relaxing'
p225
aS'fact youre going anywhere plan drink designated driver dontbeadick'
p226
aS'armed guards everywhere afford armed guards every floor every buildin'
p227
aS'video remembering victims newtown tragedy response demandaplan'
p228
aS'congrats single thank follow thanks'
p229
aS'haha poise commercial came wackiest celebrity comme'
p230
aS'always blast thanks letting launch hollyday giveaway wendy'
p231
aS'willl posting coming soon'
p232
aS'good know still would hate world work people getting'
p233
aS'travel safely'
p234
aS'weareuk abused husband years result diagnosed ptsd'
p235
aS'good know'
p236
aS'know weareuk firstever scholarships survivors intimate partner violence center gend'
p237
aS'half cherokee dads sideummmmm need research'
p238
aS'appreciate robinson scholar program starts home visits appalachian kids early first familie'
p239
aS'many'
p240
aS'welcome folks recently joined glad youre whats passion make'
p241
aS'passion help others like free domestic abuse'
p242
aS'beautiful'
p243
aS'maybe time sacred pause breathing place'
p244
aS'southern accent fathers constant grammar corrections told accent proper'
p245
aS'music always moved tweets musicians ever'
p246
aS'please patient tweets phone connections times spell check'
p247
aS'uploaded video youtube invideo programming part viralizers'
p248
aS'kids flew nest came back brought three'
p249
aS'dear santa wish laptop'
p250
aS'good morning'
p251
aS'wanted could start would mean leaving people counts happy wait'
p252
aS'give gift unlimited video games holiday season giftoftheday'
p253
aS'goes mobilefirst reach teens innovationindex'
p254
aS'turntable really works whatsinside'
p255
aS'turntablefm cofounder billy chasen explains pivoting techinnovators'
p256
aS'pudding monsters continues puzzle rope creator'
p257
aS'last handguns killed 48japan 8great britain 34switzerland 52canada 58israel 21sweden 42wgermany 1072'
p258
aS'fans hope great night'
p259
aS'take look support mental health schools'
p260
aS'feel lost'
p261
aS'stop take deep breath'
p262
aS'happy birthday fave mommy girlfriends weve known long proud'
p263
aS'part violence'
p264
aS'rewire brain higher consciousness paying attention love compassion'
p265
aS'writing pain medication young adults addicted keep writing'
p266
aS'ps22 kids choir sings sandy hook school song tribute'
p267
aS'know keep asking give names last time please prayer daughter cassie shes addicted presc pain'
p268
aS'daughters school winter recital dedicated opening song candle flame sandy hook victims'
p269
ag8
aS'experience years ball drop gifs'
p270
aS'tonight water sofun lnjf'
p271
aS'long'
p272
aS'could give hello'
p273
ag8
aS'recovering long depression yoga moves would start'
p274
ag8
aS'great chrismastwister awesome'
p275
asS'2013_37'
p276
(lp277
S'everywhere look disappointed eyes nothing'
p278
aS'memory'
p279
asS'2013_38'
p280
(lp281
S'manic mixed obsessive panic unknown fighting storm found calm withinampnbsp choosing'
p282
as.