(dp0
S'2013_24'
p1
(lp2
S'dont understand someone behind computer screen click anonymous kill'
p3
asS'2013_4'
p4
(lp5
S'selfharm accounti want follow alllt3'
p6
aS'equalloveequalrights watched video cried much'
p7
aS'abouts derbyshire'
p8
aS'youd care died tonight'
p9
aS'really good really weird'
p10
aS'james blunt helps anything'
p11
aS'picslip'
p12
aS'retweet parents dont understand youre going'
p13
aS'everyone'
p14
aS''
p15
aS'people school think time screamo band'
p16
aS'killjoysmcrmy'
p17
aS'artiststhatilike start'
p18
aS'meant'
p19
aS'depressed sweetie diagnosed depressionanorexia'
p20
aS'love'
p21
aS'thats really annoyed obviously idea whatsoever careless bitch'
p22
aS'stupid twat dare'
p23
aS'ticks'
p24
aS'message maisierosej'
p25
aS'think speak'
p26
aS'shout'
p27
aS'friend'
p28
aS'lift shirt stare every time alone mirror'
p29
aS'dont accept compliments feels like lied'
p30
aS'cross line cant anywhere without paranoid look'
p31
aS'starvation self hate willpower perfection'
p32
aS'says hell text waited days still text doesnt like thats realised fast tomorrow'
p33
aS'crying worthless freakin depressed'
p34
aS'secret life edproblems'
p35
aS'always floor edproblems anaproblems'
p36
aS'youre binge'
p37
aS'every single fucking edproblems'
p38
aS'dunno everyones talking seems little fucked honest hahalt3'
p39
aS'read'
p40
aS'dont spray stuff want adds around calories'
p41
aS'never'
p42
aS'wanna follow accounts like follow back'
p43
aS'stir frys hardly calories whatsoever loads peppers onions carrots like 20minutes'
p44
aS'youre eating disorder self harm account want follow many possible'
p45
aS'lips forever hips motto'
p46
aS'every minutes please guys motivation anasisters'
p47
aS'want skinny people worried'
p48
aS'without twitter would never lost weight'
p49
aS'schools closed annoyed hide disorder school cant home edproblems'
p50
asS'2013_9'
p51
(lp52
S'twitter accounts curious many people hide feelings'
p53
aS'please'
p54
aS'state gained 20lbs please need help begging self harming uncontrollable'
p55
asS'2013_3'
p56
(lp57
S'strong skinny'
p58
aS'want worry want scared thin gotten'
p59
ag15
aS'hunger hurts thinspo please'
p60
aS'dont give thinspo please'
p61
aS'thinspo please'
p62
aS'thinspo please'
p63
aS'thinspo please'
p64
aS'thinspo please'
p65
aS'thinspo please'
p66
aS'thinspo please'
p67
aS'coffee smokes cold diet cokes thats pretty girls made'
p68
aS'make regret called'
p69
aS'looking thinking thatll someday lifes short'
p70
aS'good also take away food room listen music little dance keeps motivated'
p71
aS'crave skinny'
p72
aS'someone shoutout please followers motivation thanks please love anasisters'
p73
aS'thankyou much drink cold water fills cubes calories burn like cube'
p74
aS'fine chicken hungry though hours fast'
p75
aS'crunches well every'
p76
aS'howre'
p77
aS'feel energised thanks posting'
p78
aS'youre beautiful'
p79
aS'feel freakin every crunches'
p80
aS'anorexic like'
p81
aS'feel much better workout motivationworked'
p82
aS'always obvious'
p83
aS'people think throw food vain self hate realityproject'
p84
aS'breathes messes everything'
p85
aS'nobody would notice care'
p86
aS'bands saved life'
p87
aS'time'
p88
aS'people music'
p89
ag15
aS'eaten that\xe2\x80\x99 documentary'
p90
aS'sleepy little fitspo bedtime'
p91
aS'girls pretend stupid think cute needs fucking stop leaveitin2012'
p92
ag15
aS'summer tiny'
p93
aS'nothing tastes good skinny feels morningmotivation please'
p94
aS'eatingdisorder eatingdisorderprobz'
p95
aS'eaten apple today pleased willpower'
p96
aS'thankyou 3lt3'
p97
aS'follow anasisters edfamily show support ampmotivation deserveslt3'
p98
aS'hero'
p99
aS'anyone else'
p100
aS'follow backlt3'
p101
aS'wont stop perfect process'
p102
aS'thankyou'
p103
ag15
aS'time hopefully wake lighter fingerscrossed'
p104
aS'stupid looking beautiful girls walk past street watching'
p105
aS'shoutout please thanks'
p106
aS'load celery keep drinking water kinda filling uplt3'
p107
aS'freakin hungry'
p108
aS'thankyou'
p109
aS'shoutout please thanks anasister'
p110
aS'whatever youre craving alive control sexy self disciplined give'
p111
aS'follow back'
p112
aS'follow back'
p113
aS'follow back'
p114
aS'follow back'
p115
aS'follow back'
p116
aS'follow back'
p117
aS'follow backxx'
p118
aS'pinch belly fatfatfat'
p119
aS'depressed away'
p120
aS'hate need thinspirationthinspo anafamilymotivation'
p121
aS'wants girl'
p122
aS'keeps shouting eating'
p123
aS'someone shoutout please thanks'
p124
aS'retweet secrate account'
p125
aS'dont binge youll regret much'
p126
aS'havent baby hard'
p127
aS'disciplined eating exercise everything else fall place'
p128
aS'ednos thinspo fitspo account following allll'
p129
aS'thankyou'
p130
aS'thankyou shoutout thing please'
p131
aS'youre curvy want figure shut hell understand'
p132
aS'wonder like truly skinny'
p133
aS'thank'
p134
aS'follow back please'
p135
aS'follow back please'
p136
aS'help please wanna binge craving chocolate cant'
p137
aS'snowing\xf0\x9f\x98\x81'
p138
ag15
aS'work'
p139
aS'story life projectskinny'
p140
aS'thinspo beforeandafter'
p141
aS'excuse'
p142
aS'someone shoutout please thanks anasisters'
p143
aS'yess'
p144
aS'anybody wanna play'
p145
aS'thinspo'
p146
aS'thinspo thighgap edfamily'
p147
aS'yesss'
p148
aS'cant like pretty girls boys want'
p149
aS'thinspiration please thanks guys'
p150
aS'starving black coffee bread roll argh'
p151
aS'goodnight anasisters lets tomorrow brings'
p152
aS'words want dinner send heart panic'
p153
aS'pretty away jeez'
p154
aS'motivation thanksguys'
p155
aS'sheffield england'
p156
aS'perfection thigh'
p157
aS'tells youre beautiful feel like crying head know wrong'
p158
aS'perfection'
p159
ag15
aS'wish stomach like seriously wrong places need motivation hard'
p160
aS'jealous youre motivation'
p161
aS'friends fuck feelings'
p162
aS'follow backkk'
p163
aS'thank'
p164
aS'dear thighs chubby dear stomach flabby dear many imperfections'
p165
aS'hard need people help stomachs literally growling'
p166
aS'help please'
p167
aS'adventure time must'
p168
ag15
aS'please follow back twitter need thinspo thank much thin'
p169
asS'2013_17'
p170
(lp171
S'retweet youve gained respect'
p172
as.