(dp0
S'2013_41'
p1
(lp2
S'great performance sure fire winner'
p3
aS'news'
p4
aS'back give youve finished hard work stopping things enjoy'
p5
asS'2013_46'
p6
(lp7
S'hands knew stayed night english lose credibility'
p8
aS'dana white furious strongly believes johny hendricks beat georges stpierre'
p9
asS'2013_24'
p10
(lp11
S'fantastic next week'
p12
aS'bristols biggest bike ride tomorrow early night think'
p13
aS'stolen cash points recently'
p14
aS'amazing winner winner chicken dinner awesome'
p15
aS'awesome'
p16
aS'great song tonight'
p17
aS'leah awesome northern ireland music rocking'
p18
aS'watching voice andrea amazing'
p19
asS'2013_25'
p20
(lp21
S'best leah thou deserve chance think youd awesome version echo beach'
p22
aS'virgin money giving fundraising andy millers fundraising page'
p23
aS'signed mile great weston bike ride sponsor prostate cancer'
p24
aS'echo beach martha muffins'
p25
aS'legs feeling better hitting tomorrow signed great weston ride july 25th miles anybody'
p26
aS'aching following bristols biggest bike ride feel unicycle miles fair play'
p27
asS'2013_26'
p28
(lp29
S'raising money prostate cancer please sponsor'
p30
aS'sympathy micks friends learnt much time team'
p31
aS'daryl hannah attack 50ft woman'
p32
aS'outdoors buckled wheel completing great weston ride'
p33
aS'congratulations amazing voice deserve huge success best career'
p34
aS'cabot circus tell people trying break world record people singing theme sesame street'
p35
asS'2013_27'
p36
(lp37
S'wifes thats opinion'
p38
aS'nutshell britains smallest pubon twitter suggested venue closing ceremony'
p39
aS'welcome followers'
p40
asS'2014_30'
p41
(lp42
S'going cleats going back mountain bike really scared'
p43
aS'tire blew flat couldnt feet cleats back artic'
p44
aS'roads getting worse bikes right gutted struggling neck took full force crash 18mph painful'
p45
aS'brother physical wreck crashed road bike back artic lorry face first improvement'
p46
aS'looking beautiful little ladies rats press loving funny'
p47
aS'well done louise holding torch well done'
p48
aS'hope great games louise'
p49
asS'2014_31'
p50
(lp51
S'passed lovely brothers houses passed away died hope'
p52
asS'2013_29'
p53
(lp54
S'inspirational riding keep little mile sponsored ride tomorrow nothing like nice hills'
p55
aS'mile bike ride tomorrow prostate cancer hope cools'
p56
aS'follow'
p57
asS'2014_38'
p58
(lp59
S'alzheimers society pays tribute fundraiser sally preece alzheimers society'
p60
aS'friend sally preece died whilst ride across britain event friday sallys legacy ride'
p61
aS'feel moved give alzheimers society'
p62
aS'sadly friend colleague sally preece died whilst taking part ride across britain event friday'
p63
asS'2014_18'
p64
(lp65
S'father succumbed cancer yesterday dignified look forward seeing system richard love'
p66
asS'2014_19'
p67
(lp68
S'thanks truth wonderful organisation else find love support'
p69
asS'2014_14'
p70
(lp71
S'check celtic storm night punched russell crowe youtube youd love video'
p72
asS'2014_9'
p73
(lp74
S'bristol rainbow galleries park'
p75
aS'richard fatherinlaw amazing diagnosed terminal cancer months tops much faith system brave dignified'
p76
aS'moved closer sure next visit durham congregation'
p77
aS'congregation visited bishop auckland congregation times dads family bishop auckland'
p78
asS'2013_51'
p79
(lp80
S'visit weather nightmare made home safely time chill nice cheese sarnie chocolate fantastic'
p81
aS'rains bucketing outside nice warm comfort food shot tequila great night'
p82
aS'home sweet home despite falling hurting knee nice holiday hoping break help ease depression docs monday'
p83
aS'last center parcs great hoping things better real world system answer'
p84
aS'chilling starbucks swimming sauna come chilled months'
p85
aS'fell last night twisted kneecap typical visit center parcs'
p86
aS'coffee frappuccino lovely treat lovely brothers sisters love truth'
p87
aS'centre parcs starbucks meeting brothers sisters suns shining doesnt better'
p88
aS'center parcs today trying look forward getting worried crowds sure jehovah week'
p89
asS'2013_50'
p90
(lp91
S'attention talk behind back simply means steps ahead'
p92
aS'catch soon'
p93
aS'packing waits neither wife apparently'
p94
aS'nice meet bros'
p95
aS'welcome'
p96
aS'love family'
p97
aS'better packing'
p98
aS'nice center parcs tomorrow trying pack moment going well hope cope crowds'
p99
aS'true hows'
p100
aS'cant wait system better'
p101
aS'months breakdown struggling moment without suicidal thoughts could worse'
p102
aS'lovely meeting thank goodness khconf struggling sort crowd meeting'
p103
aS'first cognitive behavioural therapy today nuts going better work'
p104
asS'2014_8'
p105
(lp106
S'amazing circuit assembly baptism talk amazing family friends baptised attendance 1005 saturday sunday baptisms'
p107
aS'kidding sherlock'
p108
asS'2013_52'
p109
(lp110
S'made first meeting ages today pretty stressful managed back rowan taylor gave great talk'
p111
aS'think meant bibles nobles'
p112
aS'nobles arrived today fantastic great talk rowan'
p113
aS'yeah would right know'
p114
aS'sure'
p115
aS'watching world strongest theyve nothing'
p116
aS'wuss'
p117
aS'apparently look like someone history cant'
p118
aS'dodged hail showers dropping keeley popping greggs bacon cheese twist love greggs'
p119
aS'winds cant even sprouts excuse gales roller skates golfing umbrella perfect transportation'
p120
aS'ready shepherding call homemade gooseberry ginger wine apple wine help'
p121
aS''
p122
aS'yeah loads going thinking barbecue'
p123
aS'going back weeks time cant wait going load home families hopefully good pickup'
p124
aS'yeah nice didnt usual running around spent time starbucks reading'
p125
aS'cysts internally going biopsy make sure cancerous'
p126
aS'terrible weather hospital father poorly lots prayers richard moment'
p127
asS'2014_6'
p128
(lp129
S'james bond thank'
p130
asS'2014_7'
p131
(lp132
S'severn crossing towards bridge'
p133
aS'thanks encouragement tough time thank jehovah hope system'
p134
aS'looking good great lesson patience'
p135
aS'first counseling session today diagnosis ptsd visit tonight listened phone link encouraged things looking last'
p136
asS'2014_4'
p137
(lp138
S'center parcs barbecue outside temperature 35degrees'
p139
asS'2014_5'
p140
(lp141
S'system sucks karas father terminal cancer long left roll system revelation'
p142
asS'2014_2'
p143
(lp144
S'cant wait sherlock start promise spoilers'
p145
aS'went walk today found carcass must died flooding makes realise fragile life'
p146
aS'fantastic artwork always'
p147
aS'globe york stephen wiltshire newyork drawing'
p148
aS'youve always cool'
p149
aS'love baptised daughter inspirational modest glad congregation'
p150
aS'spiritual drinker turned life around jehovah substance abuse counsellor pioneer'
p151
aS'morning nasty weather last night flooding meeting tonight much needed'
p152
asS'2014_3'
p153
(lp154
S'please says prayers father richard poorly hospital great pain want ease pain'
p155
asS'2014_1'
p156
(lp157
S'dyrham park near bath love sherlock'
p158
aS'sherlock filmed bristol miles house'
p159
aS'woke nightmare jehovah always finds comfort john'
p160
aS'downs bristol'
p161
aS'setting abbots leigh'
p162
aS'downs'
p163
aS'across downs towards leigh woods bristol'
p164
aS'morning bottom road flooded yesterday'
p165
aS'bottom road flooded earlier rains still coming waiting high tide'
p166
aS'survived sports club sitting corner away noise'
p167
aS'home sports club kids great time cafe drinking coffee'
p168
aS'flood warnings must mudguards bike nobody likes soggy bottom'
p169
aS'mamil well meet ride'
p170
aS'lots rain hoping bike maybe tomorrow mamil mudguards first maybe better brake pads'
p171
aS'favourite posts 2013'
p172
aS'favourite posts pictures 2013'
p173
aS'survived restaurant nice food waiting keeley busy crowded crowds definitely problem'
p174
aS'iguanos stunning foodlasiguanoslovelyjubbly'
p175
aS'iguanos stressful waiting keeley finish skating bros stressed noisy'
p176
asS'2013_37'
p177
(lp178
S'amazing night'
p179
aS'bought bike well second hand good nick pink calling phyllis'
p180
asS'2013_38'
p181
(lp182
S'good mate something good dave next month happy days'
p183
aS'shame hear keep updated'
p184
aS'whens opening waiting decent coffee'
p185
asS'2014_29'
p186
(lp187
S'working hard grrrr love catching naughty people happy days'
p188
asS'2014_28'
p189
(lp190
S'proud ofvanessafeltz abuse victims come forward help others come forward victim survivor'
p191
aS'vanessafeltz takes guts speak nothing admiration speaking'
p192
as.