(dp0
S'2013_42'
p1
(lp2
S'rocked symphony hall'
p3
aS'gallopping symphony hall tomorrow soooo excited glad joined choir means actually stable'
p4
aS'cant believe days time gonna singing birmingham symphony hall choir soooooo exciting'
p5
asS'2013_43'
p6
(lp7
S'oops broke main ring road caused havoc tailbacks morning'
p8
asS'2013_40'
p9
(lp10
S'days fags woohoo keep trotting'
p11
asS'2013_41'
p12
(lp13
S'oopsbit hoofinit yesterday stoptober back course today gallopping towards smokefreedom'
p14
aS'listen constituents charities lawyers gagginglaw news'
p15
asS'2013_47'
p16
(lp17
S'government racing gagginglaw lords sign petition scrap'
p18
asS'2013_45'
p19
(lp20
S'call public inquiry response police state agencies domestic violence inmariasname'
p21
aS'government racing gagginglaw lords sign petition scrap'
p22
asS'2014_18'
p23
(lp24
S'mental health awareness suicide prevention'
p25
aS'charitytuesday registered please share'
p26
asS'2014_19'
p27
(lp28
S'suffering families friends many millions'
p29
asS'2014_15'
p30
(lp31
S'open letter clasp charity founder'
p32
aS'calling criminal justice agencies government depts sign survivors charter'
p33
aS'charitytuesday person save life night save millions'
p34
asS'2014_16'
p35
(lp36
S'watch video raise mentalhealthawareness suicideprevention charitytuesday'
p37
asS'2014_17'
p38
(lp39
S'signed petition demand hmrc keep details private please'
p40
asS'2014_13'
p41
(lp42
S'dont corporate lobbyists decide future demand transparency'
p43
aS'hmic today published everyone\xe2\x80\x99s business improving police response domestic abuse read'
p44
asS'2013_51'
p45
(lp46
S'wonder overrun cancel people emergency case instead dead flaming useless'
p47
aS'horse sooooo poorly trotting operation thursday hopefully sort everything'
p48
asS'2014_9'
p49
(lp50
S'clause care bill hospital closure clause outrageous threat scrap'
p51
asS'2014_4'
p52
(lp53
S'reassure youll nothing overturn lords changes lobbyingbill'
p54
asS'2014_2'
p55
(lp56
S'well time lucky tomorrow hate think much longer wait wasnt classed urgent case trot'
p57
asS'2014_3'
p58
(lp59
S'cancelled time lost faith want life back'
p60
asS'2013_37'
p61
(lp62
S'noone endure went thru public services wont even admit mistakes anything gonna change'
p63
aS'mental health actually admitted mistakes apologised said theyd things right done start'
p64
aS'local council didnt answer questions apology police fabricated events also apology admittance failure'
p65
aS'received copies replies complaint local local public services whilst escaping last'
p66
asS'2013_36'
p67
(lp68
S'right'
p69
aS'oops sorry garry twittered gallopping around passwords'
p70
aS'twitter hacked tonight easy sort make easier twitter done last thanks gary'
p71
asS'2013_35'
p72
(lp73
S'painting stable week horse running time'
p74
aS'clothes desperately needed'
p75
asS'2014_40'
p76
(lp77
S'cause close heart please sign'
p78
asS'2013_33'
p79
(lp80
S'text 70300 donate womens jahmaziiiinnnggg please spread word'
p81
aS'guidelines followed legally binding understand exist stand'
p82
aS'tips share implementing guidance quality standards like hear'
p83
aS'horses courses question'
p84
aS'bruiser friends'
p85
aS'dear listed wonder getting outstanding complaint'
p86
aS'state versus whistleblower forces power used increasingly silence brav\xe2\x80\xa6'
p87
aS'keep coming hope great time'
p88
aS'domesticviolence kills please look petition sign today'
p89
aS'please look petition means'
p90
aS'tweetfest week rocketed following love monday friends\xe2\x80\xa6'
p91
aS'spot'
p92
aS'heeerrreeessss bruiser'
p93
aS'thanks make wonder existence profs like whole worlds'
p94
aS'please tell nice guidelines care guidelines meaning dont followed thank'
p95
aS'making jealous need seaside'
p96
aS'pigs good xxxxx'
p97
aS'lucky things send another bruisepic tonight'
p98
aS'danny read planning think'
p99
aS'back home tomorrow need find asap anyone know positions near woodford area anything wanna'
p100
aS''
p101
aS'stace forgot sponge bruisers looking havin trouble photo send later'
p102
aS'noticed picits squidge hope safely time send bruisepic later time'
p103
aS'thursday stopchildabuse'
p104
aS'absolutely disgusted hadnt suffered enough already'
p105
aS'coping cyberbullying really important message right spread info help'
p106
aS'coffee cake chat morning friend made choir soopa'
p107
aS'heres embarrassing bodies wearing timetotalk tattoo could help spread word'
p108
aS'gallopping choir 2nite yeay missed last couple weeks'
p109
aS'going taster recovery college people suffer psychosis monday hope start better times'
p110
aS'retweet someone \xe2\x80\x9cwhat\xe2\x80\x99s wrong\xe2\x80\x9d actually care answer want show everyone ther\xe2\x80\xa6'
p111
aS'completely stuck'
p112
aS'time took action zerohours contracts demand proper public investigation could next'
p113
aS'exactly right made complaint treated even worse timetochange dearmentalhealthprofessionals'
p114
aS'ombudsman patients suffer toxic cocktail tragic irony'
p115
aS'refuse hear voice louder sing something inside strong know make though youre wrong'
p116
asS'2013_32'
p117
(lp118
S'dearmentalhealthprofessionals'
p119
aS'theres 1000 following could please help spread word magazine'
p120
aS'thanks matt'
p121
aS'trying dearmentalhealthprofessionals given boost need keep'
p122
aS'didnt want know went local waiting response treating even worse complained'
p123
aS'dearmentalhealthprofessionals plse dont tell giving intense weekly support havent given weeks'
p124
aS'dearmentalhealthprofessionals question care please dont stare back silence'
p125
aS'really dont understand whyif profs satisfaction seems huge majority arent receiving care'
p126
aS'dearmentalhealthprofessionals dont laugh something really think didnt notice'
p127
aS'good brilliant idea thank dont feel alone frustration'
p128
aS'dearmentalhealthprofessionals listening taking usual stance professionals know best'
p129
aS'dearmentalhealthprofessionals years want help good dont call progress dont'
p130
aS'dearmentalhealthprofessionals ruined every part life labels given think thats helpful'
p131
aS'dearmentalhealthprofessionals many times trust anymore need help lies games'
p132
aS'love darling xxxxx'
p133
aS'guys please link petition reform'
p134
aS'you\xe2\x80\x99d stay night talk someone committing suicide want show sufferers'
p135
aS'stopchildabuse children blessing give time love care abuse'
p136
aS'yeah horse jumping listened understood fighting corner last things better'
p137
aS'know eureka moment everything sudden makes senseheres hoping agrees'
p138
aS'thank info helpful'
p139
aS'chipped fund zaheras legal action zerohours'
p140
aS'sent email wanted know people thought page auto office reply timetochange'
p141
aS'info page trust charge care says really25 years info'
p142
aS'trying change profile logos appear link made pledge though'
p143
aS'little baby mummys womb something never forget amazing'
p144
aS'please sossuicideprevention stop online bullying'
p145
aS'chance could latest post dealing heartbreak please thank'
p146
aS'thanks found really helpful went read post self harm wise words'
p147
aS'even better gonna great nephew safe secure busy growing mummys tummy smiling'
p148
aS'yeah horse gonna cancel today something good happens'
p149
aS'know dont make feel crap nevermind sposed sunny tomorrow give love tigger'
p150
aS'hello lovely gained positives well done post'
p151
aS'sorry mean'
p152
aS'askruby article psych july saying bout voice truth sumtimes hearc tells stuff timezone'
p153
aS'latest campaign starts today stars\xe2\x80\xa6you please show timetotalk mental health'
p154
ag101
aS'yeah'
p155
aS'like'
p156
aS'morning fellow tweeters another soggy stables'
p157
asS'2013_31'
p158
(lp159
S'interesting debate bullying challenge gonna week stop unacceptable part society'
p160
aS'horses remember people treated well'
p161
aS'stopchildabuse email protecting promoting health well children care'
p162
aS'care stopchildabuse read protecting promoting mental health well children care'
p163
aS'good thing surely otherwise nothing changes'
p164
aS'dear muddy'
p165
aS'leowhat sorry dont understand'
p166
aS'youre right need learn mistakes none perfect especially'
p167
aS'even experts dont always right doesnt mean people kind'
p168
aS'good morning today isnt'
p169
aS'fantastic well done'
p170
aS'twittersilence dont saydo nothing injustice happens guilty'
p171
aS'twittersilence blimey couldnt manage sleeping lions child gonna manage'
p172
ag101
aS'wheels wagon still trotting along'
p173
aS'horse course'
p174
aS'helpspreadthis daily stories today'
p175
aS'support campaign stopchildabuse raise awareness post tweet'
p176
aS'join global movement endviolence show support children'
p177
aS'everybody saying delete askfm people taking lives bullying'
p178
aS'dogwalkers'
p179
ag101
aS'morning darrell thanks first laugh'
p180
aS'horsey horsey dont stop hooves clippety clop'
p181
aS'taking part twittersilence many people stay silent many things keep communicating never give'
p182
aS'darling dont know reading bout hannah done tweets dads message asking bettax'
p183
aS'helped would save much heartache late please projectlg'
p184
aS'friend tells want theyre going certain please tell someone person wants'
p185
aS'know couple whose daughter committed suicide yesterday asked following message gets passed many people'
p186
aS'hello happy campers'
p187
aS'feckin love browns boysfeckin follow agnes'
p188
aS'please take time others follow happyharry help raise awareness acceptance'
p189
aS'cyberbullying twitter take seconds help victim reporting bully spam'
p190
aS'fear stigma part illness strong nothing ashamed mentalhealth depression bipola\xe2\x80\xa6'
p191
aS'thats'
p192
aS'ahoy pirates plaque'
p193
aS'gonna happen soon reckon though every week reporting murder police failed'
p194
aS'know media explaining simple away stupid staying'
p195
aS'well diagnosed ptsd amongst thins even came along leftchucked many times years mess'
p196
aS'free finally arrested xmas still financially struggling trying sort emotions'
p197
aS'know frustrating problem people still believe simple walk away know'
p198
aS'right wont itll make uncomfortable viewing wont entertaining masses'
p199
aS'cant national media campaigning raisingawareness full cover royal stories'
p200
ag101
aS'problem hang'
p201
aS'thats petition going friends family signed good things could come'
p202
aS'warning signs suicide please spread awareness'
p203
aS'okay sounds like good idea thank'
p204
aS'thats clever mystery solved'
p205
aS'right bear mind could gallopping somewhere break thanks'
p206
aS'thats good never cornwall worth visit heard lovely'
p207
aS'good morning sunny cornwall love live'
p208
aS'gallopping good soul'
p209
aS'breakie glad good time bruiser fine awaiting instructions'
p210
aS'word horseliness'
p211
aS'howz tigger pooh morning survive night'
p212
aS'andi ever sleep seem tweeting praps tweet sleep'
p213
aS'bran sticking teeth morning'
p214
aS'good morning darrell right'
p215
aS'signed'
p216
aS'scared pidgy facebook'
p217
aS'horsing aroundits quiet tonight guess everyones dowm'
p218
ag101
aS'soon launch worldwide mentalhealth campaign help sufferers depression fvrt kept loop'
p219
aS'crazy horses awah awah'
p220
aS'observation replies questions sent thyroid support groups selfharm support groups'
p221
aS'sure would'
p222
aS'imagine much better world would squirrels wore tiny little hats'
p223
aS'plymouth theres company called cleaning logo woman trivialising mental health\xe2\x80\xa6'
p224
aS'thats awful'
p225
aS'starting worry youlol'
p226
aS'matt done'
p227
aS'please look petition means'
p228
aS'keep trying'
p229
aS'happiness journey destination keep trotting along'
p230
aS'view awesome video bipolar like importan\xe2\x80\xa6'
p231
aS'life waiting storm pass learning dance rain'
p232
aS'year given counting'
p233
aS'well trotting round twitter week gained positives negatives thank tweeters'
p234
aS'want parents speak children underwear rule watch video talkpants'
p235
aS'dear parents depression child help tell love you\xe2\x80\x99ll always'
p236
aS'word leaves mouth cannot chase back even swiftest horse chinese proverbs'
p237
aS'feel need talk someone contact 1life 1800 samaritans 1850'
p238
aS'sure'
p239
aS'done'
p240
aS'nice issues domesticabuse guidelines healthcare workers'
p241
aS'always found fascinating powerful music songs affecting emotions weve tunes'
p242
aS'climate change linked violent behaviour'
p243
aS'hillary fisher social care guidance help domestic violence understanding'
p244
aS'grazing tree park couple hours swatting flies tail thats better'
p245
aS'think gonna gallop need breathe sweet fresh'
p246
ag101
aS'know bout bruiser furniture'
p247
aS'great time pirates'
p248
aS'suffering domesticabuse relationships alone women experienced thisescaped safe\xe2\x80\xa6'
p249
aS'anyone whos suffered depression really appreciate'
p250
aS'addictive withdrawal symptoms come'
p251
aS'never judge someone who\xe2\x80\x99s selfharmed instead help don\xe2\x80\x99t feel need mentalhea\xe2\x80\xa6'
p252
aS'thanks listening'
p253
aS'love'
p254
aS'saying beer british accent sounds like bacon jamaican accent'
p255
aS'great wish theyd funding usually help people'
p256
aS'dont ever give victims need help'
p257
aS'thats great keep good work feel maybe even theory maybe thank'
p258
aS'look joining thanks'
p259
aS'exactly listen please lived real theory txtbook entry'
p260
aS'absolutely dont want women suffer media coverage vital'
p261
aS'good idea waiting access courses sept survivor know'
p262
aS'womens actually thought provided refuges hard info'
p263
aS'victims dont know services available didnt know bout local police domestc abuse team'
p264
aS'right complicated situation experience dont listen understand'
p265
aS'recent personal experience tells womens however'
p266
aS'public services helping victims going right'
p267
aS'hate postman walks past feels like loves thinking woohoo bills'
p268
aS'feeling little horse today much singing practice learn words'
p269
aS'totally agree would save money long term'
p270
aS'edited profile great project'
p271
aS'oooops made coffee already made coffee hoof caffeine intake going'
p272
aS'told rare diseases thyroid high info please'
p273
aS'statue horse look horse horse front feet died\xe2\x80\xa6'
p274
aS'told pretty rare diseases thyroid high info please'
p275
aS'need teeth stuff done today'
p276
aS'project called project life guard projectlg something cont'
p277
aS'stormy paddocks morning weather'
p278
aS'quote want every little girl whos told shes bossy told instead leadership skills sheryl sandber\xe2\x80\xa6'
p279
aS'retweet happens'
p280
aS'woah garden stars nightsky amazing tonight'
p281
aS'laughing busy darting back door chasing tail loves time night quiet'
p282
aS'looking self harm support amazed many others follow please'
p283
aS'still looking participants complete online survey recovery selfinjury week left check'
p284
aS'could study selfinjury recovery looking participants 18years thank'
p285
aS'bipolar disorder comorbid borderline personality disorder'
p286
aS'tweets pony nuts'
p287
aS'internet signals awful weather might soon fighting'
p288
aS'went validation service prove real person horse time done cannot send direct message'
p289
aS'needing motivation feeling stuck selftalk selfesteem'
p290
aS'horses like chilli thanks'
p291
aS'dear someones train local railway station hope wasnt suicide thinking probably'
p292
aS'great 2day hoofing around meeting lots wonderful people'
p293
aS'life superb cast figure plot positivity garden'
p294
aS'following could please keep date thanks'
p295
aS'sooooooo sunshine always makes feel better though knocking'
p296
aS'know tweet beautiful message hope hold pain ends mentalhealth depressi\xe2\x80\xa6'
p297
aS'thanks prefer keep getting magazine hard copy form think'
p298
aS'depression hasnt beaten stop trying beat'
p299
ag101
aS'haha jump queing\xe2\x80\x9d'
p300
aS'darwin right twycross locked chimps escape recaptured using'
p301
ag101
aS'matt guess flying ants abundance garden'
p302
aS'please thanks'
p303
aS'latest article world season bbc3 please'
p304
aS'result society treated people physical illnesses treats people mental illnesses'
p305
aS'true'
p306
aS'please blog laura mentalhealth anxiety medication coping'
p307
aS'good'
p308
ag101
aS'hold hand decree absolute knew going good today'
p309
aS'shout wmwa helped become survivor earlier year great people'
p310
aS'proud cooker bits soaking'
p311
aS'mind garden thoughts seeds grow flowers grow weeds positivity'
p312
aS'never look anybody unless helping'
p313
aS'white rabbits like turning page calendar feels like fresh start'
p314
aS'interesting'
p315
aS'blue skies sunny days love life laugh friends sing dance happy'
p316
aS'ever heard giraffe make noise like'
p317
aS'dawn life feeling gooooood'
p318
aS'retweet youre suffering twitter addiction disorder'
p319
aS'snail trapped vimto bottle hereford'
p320
aS'relationships change good people'
p321
aS'last person mind close eyes night either reason happiness pain'
p322
aS'patrick spongebob went community college'
p323
aS'listen song enjoy brain releases feelgood chemical called dopamine also responsible'
p324
aS'please pick favourite charity ebay'
p325
aS'sleep good absolutely everything insomnia'
p326
aS'imagine insomnia internet invented people real heroes'
p327
aS'suppressing memories pretending okay causes insomnia'
p328
aS'twitter causes insomnia become common sleep distraction world'
p329
aS'congratulations todays lewisham aampe verdict'
p330
aS'think parenting hardest world'
p331
aS'heard nieces babys heartbeat doppler amazing'
p332
aS'anyone else feel sometimes labelling people whatever reason helpful'
p333
aS'helplines coming dont know supposed using'
p334
aS'quite honestly dont understand complex problems supposed'
p335
aS'supposed explain wrong given diagnoses problems'
p336
aS'glad horse'
p337
aS'talking action time want community mental health services reform\xe2\x80\xa6'
p338
aS'agree facing problems lets face young people using adult services future'
p339
aS'like always told drink much'
p340
aS'chocolates good could worse'
p341
aS'good morning darling later'
p342
aS'thanks'
p343
aS'gosh never knew debilatating courageous'
p344
aS'look alternative therapies earlier year signed unable work cannot afford'
p345
aS'even receptionists giving wrong info passing messages purpose hard trust'
p346
aS'asked areacos trouble whole service cmht crisis team psychs'
p347
aS'feel stuck waiting meet local wondering solve anything'
p348
aS'trying feel shes really interested either'
p349
aS'darling thats wierdlol'
p350
aS'know enjoy lovely enjoy'
p351
aS'gonna best dressed baby hereford rate'
p352
aS'cant wait meet either gonna happiest days life'
p353
aS'right good guys good working everywhere'
p354
aS'joined feeling unsupported mental health join help'
p355
aS'well done prog brought truth services public arena last'
p356
aS'christian friend says rely people answers believe uses people supply answers'
p357
aS'diagnoaed autoimmune disorder years never allowed physically'
p358
ag101
aS'true'
p359
aS'lack fundingstaff lack training mental health workers many issues'
p360
aS'waiting local sort complaint'
p361
aS'true especially give walk away'
p362
aS'well local aampe worst country knew already'
p363
aS'know many experiencing things change'
p364
aS'thanks address waste time'
p365
aS'well cant find family friends test results website'
p366
aS'well cant find family friends results'
p367
aS'cats love certain foods week hate next'
p368
aS'anywhere anybody getting failed regarding mental health'
p369
aS'sorry good place today uncalled gonna till tomorrow'
p370
aS'hearing means person fault therefore victim'
p371
aS'young people fail cmht wont support diagnoses'
p372
aS'left help local team complained treatment'
p373
aS'like singing check joining got2sing choir member since 2013'
p374
asS'2013_30'
p375
(lp376
S'soopa havnt online years'
p377
aS'give pants away'
p378
aS'worst time xmas 2012 programme kept going thank sooooo much'
p379
ag101
aS'symphony hall come trying learnxp words like woooopsetc'
p380
ag101
aS'symphony hall come trying learn words'
p381
aS'first time twitter hellooooo everybody'
p382
asS'2013_38'
p383
(lp384
S'signed stoptober squidgehe doesnt deserve smoking great aunty'
p385
aS'hour choir rehearsal yesterday symphony hall concert glad wasnt knackered'
p386
aS'cant believe quick years gallopped along time waits horse'
p387
aS'hide behind walls jericho lies come tumblingmy light shine brightly blind'
p388
aS'want shut upgive fighting justice wont rest managed expose corruptdisgusting behaviour trot'
p389
aS'stop world want'
p390
asS'2014_20'
p391
(lp392
S'support mentalhealthawarenessweek'
p393
asS'2014_23'
p394
(lp395
S'please read'
p396
aS'charitytuesday clasp charity member nspa'
p397
asS'2014_24'
p398
(lp399
S'charitytuesday london'
p400
asS'2014_26'
p401
(lp402
S'many like waiting months pain hereford county hospital'
p403
asS'2013_34'
p404
(lp405
S'trotting choir tonight place judged probs singing gives break worrying feel supported'
p406
aS'depressed reading theas blog check'
p407
aS'staff protect staff even theyre wrong truth ever going reached mindset broken give'
p408
aS'hospital morning chance find probs caused thyroid knowledge power'
p409
aS'andy cook summat reckons hand kitchen wonder debbie thinks'
p410
aS'hungry bless grown must liked warmth whatever eaten'
p411
aS'hungry stace 2moro xxxx'
p412
aS'hell glad missing tell tatts andy debbie'
p413
aS'oops forgot name isluv uxxxx'
p414
aS'didnt bruise morning sent bout fine safe journey home 2moro awake'
p415
aS'looking forward seeing mummy daddy'
p416
aS'good thats better enjoy send another bruisepic morning'
p417
aS'whatever happens know always people deserve happiness xxxx'
p418
aS'think already sound backed people shouldnt maybe tide turn soon'
p419
aS'really desperate leave concentrate squidge'
p420
aS'hello would love would give account shoutout raising awareness learning'
p421
aS'mind shes done must scrape barrell tell someone totally different'
p422
aS'texted grandma told told good important things worry'
p423
aS'know thought best tell till back find'
p424
aS'keep waddling'
p425
aS'hello lovely fine bruisers absolutely fine hope xxxx'
p426
aS'many would take speak saveournhs rally durham 23rd help\xe2\x80\xa6'
p427
aS'whats'
p428
as.