(dp0
S'2013_46'
p1
(lp2
S'know officer doug harris'
p3
asS'2014_36'
p4
(lp5
S'paris watching cast away silly puppy akita akitasofinstagram puppylife'
p6
aS'little girl akita akitalife akitalove akitasofinstagram layinonmyleg sleepybaby\xe2\x80\xa6'
p7
asS'2014_37'
p8
(lp9
S'americanakita puppy akitalove babyboy mamasboy mylove akitasofinstagram'
p10
aS'friend brought birthday donuts work loveher'
p11
asS'2014_34'
p12
(lp13
S'happened house darn cravings peep sign background'
p14
aS'nail pissin keeps getting messed stay painted night\xe2\x80\xa6'
p15
aS'whats going house akita akitalife akitalove americanakita akitasofinstagram\xe2\x80\xa6'
p16
aS'bear please close eyes sleep creepin mommy sleepingpuppy akita akitalife\xe2\x80\xa6'
p17
aS'love song super dope cant wait album'
p18
aS'love waking like right next'
p19
aS'kisses sure looked surprised'
p20
aS'look saturday heading chrisbrownofficial charity flag football game curlyhairdontcare\xe2\x80\xa6'
p21
aS'life hard house akita akitalove akitasofinstagram spoiledpup\xe2\x80\xa6'
p22
asS'2014_35'
p23
(lp24
S'knew needed needed brought life needed'
p25
aS'getting faded yummy cirocandapplejuice getting hungry turntup'
p26
aS'babies loves heart love sooo much akita akitalife akitalove\xe2\x80\xa6'
p27
aS'feel like spiders crawling killing huge spider ihatespiders'
p28
aS'psychiatrist prescribed help wake ptsd days hope helpsat least alittle'
p29
aS'quality sucks spider right need\xe2\x80\xa6'
p30
aS'nightly watch akita akitasofinstagram nosey watchdog akitalife'
p31
aS'nightly watch akita watchdog noisy akitalove akitasofinstagram'
p32
aS'loyal preordered xthealbum cant wait 91614'
p33
aS'scary dont wanna come house akita akitalife mybaby mamasboy scary\xe2\x80\xa6'
p34
aS'saturday afternoon akita akitalife akitalove akitasofinstagram lazyakita'
p35
aS'preordered xthealbum cant wait xthealbum chrisbrown 91614'
p36
aS'preordered chrisbrownofficial xthealbum cant wait xthealbum chrisbrown teambreezy'
p37
aS'highway selfie losangeles tgif'
p38
aS'loyal hehehehe akita addicted akitalove akitasofinstagram mamasboy cutie cantstop\xe2\x80\xa6'
p39
aS'look cute akita akitalife akitalove akitasofinstagram cutie paris love puppylife'
p40
aS'thinks blends curtain akita sillyboy akitalife akitalove\xe2\x80\xa6'
p41
aS'ordered iphone covers tonight others think time cake bedtime'
p42
aS'think problem ordered chrisbrownofficial iphone cases'
p43
aS'cant stoplol chrisbrownofficial iphone case teambreezy chrisbrown iphone shopaholic'
p44
aS'tore watermelon today yummy favoritefruit refreshing sweet'
p45
aS'think addicted chrisbrownofficial iphone covers love cant choose just\xe2\x80\xa6'
p46
aS'real last hope last chrisbrownofficial iphone cover ordered\xe2\x80\xa6'
p47
aS'yall know know love things shopping chrisbrownofficial dont surprised\xe2\x80\xa6'
p48
aS'decided chrisbrownofficial iphone cover gotta options teambreezy\xe2\x80\xa6'
p49
aS'last least last bday gift chrisbrownofficial black pyramid iphone\xe2\x80\xa6'
p50
aS'cant whole cover another chrisbrownofficial iphone cover teambreezy\xe2\x80\xa6'
p51
aS'chrisbrownofficial xalbum iphone cover bought bday teambreezy\xe2\x80\xa6'
p52
aS'happy early birthday ordered chrisbrownofficial xalbum iphone cover'
p53
aS'happy early birthday order chrisbrownofficial album bout turnt chrisbrown\xe2\x80\xa6'
p54
aS'posted photo'
p55
aS'every pray normal'
p56
aS'posted photo'
p57
aS'true hero'
p58
aS'posted photo'
p59
aS'best tags ever wear'
p60
aS'posted photo'
p61
aS'save least life educating someone didnt know succeeding'
p62
aS'please'
p63
aS'youre alone'
p64
aS'judge'
p65
aS'posted photo'
p66
aS'spread word'
p67
aS'make promise'
p68
aS'posted photo'
p69
aS'illness disease awareness matters even ptsd'
p70
aS'awareness acceptance hand hand ptsd'
p71
aS'found people dont even know ptsd'
p72
aS'silence deadly'
p73
aS'posted photo'
p74
aS'wounds visible'
p75
aS'enough said'
p76
aS'scars still open getting better awareness'
p77
aS'seen home recently girls make showed'
p78
aS'thats awesome made multiple timessmhif need help know'
p79
aS'help ready walk cesarsway backpack'
p80
aS'awwww thanks appreciate suck people unaware kinda like'
p81
aS'rough days ptsd need either meds either like send tweet'
p82
aS'please food bear prada paris akita americanakita akitalife akitalove\xe2\x80\xa6'
p83
aS'makes average life much bearable terribrady rockin chrisbrownofficial loyal'
p84
aS'terribrady'
p85
aS'ghetto roller coaster terribrady'
p86
aS'ghetto roller coaster continued terribrady'
p87
aS'terribrady ridin ghetto roller coaster rockin chrisbrownofficial loyal'
p88
aS'beast akita americanakita akitalife akitalove akitasofinstagram bigteeth spoiledpup\xe2\x80\xa6'
p89
aS'happens leave house hour come home akita akitalife akitalove\xe2\x80\xa6'
p90
aS'singin shyt outa flame people lookin like stfulolsmh people dont know good music nowa days'
p91
aS'made friend fishing last night soooo cute longbeach sealion feeditmyfish itrainedit\xe2\x80\xa6'
p92
aS'preorders chrisbrownofficial album cant wait turnt morning'
p93
aS'album turnt morning'
p94
asS'2014_32'
p95
(lp96
S'prada pissed gotta wear ghetto version pants right akita akitalove\xe2\x80\xa6'
p97
aS'paris loves looney tunes \xf0\x9f\x98\x8d\xf0\x9f\x98\x8d\xf0\x9f\x98\x8dakita akitalove akitasofinstagram puppylife cartoons'
p98
aS'paris loves looney tunes'
p99
aS'watch lashes transform'
p100
aS'looking makeup wont leave feeling heavy makeup younique'
p101
aS'makeup brushes living makeup standards'
p102
aS'purse'
p103
aS'true'
p104
aS'benefits rose water mist'
p105
aS'like like play color different pigment colors satisfy'
p106
aS'want fabulous lashes lash mascara wont leave short'
p107
aS'face doesnt deserve loved right makeup'
p108
aS'worry ordering'
p109
aS'today wont regret'
p110
aS'even barbie knows importance fabulous lashes'
p111
aS'lash mascara amazing never wear false lashes'
p112
aS'love love love mascara'
p113
asS'2014_33'
p114
(lp115
S'cesarplease please please help memy service growls tries bite certain people afraid going bite'
p116
aS'hoping meet tonight give something gratitude maybe next time getting closer event'
p117
aS'bear watching chrisbrownofficial'
p118
aS'much flag football game chrisbrownofficial staff soooo nice accommodating\xe2\x80\xa6'
p119
aS'bear enjoyed watching chrisbrownofficial flag football game'
p120
aS'left charity flag football staff nice accommodating service'
p121
aS'chris brown feat usher rick ross flame love usher video super watchin'
p122
aS'wonder lashes work'
p123
aS'want boss earn little extra cash become presenter younique'
p124
aS'never false lashes hassle free mascara best friend makeup routine'
p125
aS'stop moving fish hook send home longbeach blackpyramid\xe2\x80\xa6'
p126
aS'hook blackpyramid mystepdadwouldbesoproud nightfishing longbeach lovefishing'
p127
aS'night fishing gear longbeach catchampreleasefishing nightfishing blackpyramid\xe2\x80\xa6'
p128
aS'last nights catch'
p129
aS'fishing'
p130
aS'fishing sweatshirt blackpyramid longbeach oceanfishing catchampreleasefishing\xe2\x80\xa6'
p131
aS'thank lisa carter order hope enjoy mascara amazing'
p132
aS'hello everyone hosting virtual party starting friday time able'
p133
asS'2014_30'
p134
(lp135
S'ying yang kinda akita lazyakita puppylove'
p136
aS'knocked sleepingpuppy'
p137
aS'super dominant submissive young figure'
p138
aS'dominant submissive'
p139
aS'good morning'
p140
aS'sleeping baby loves'
p141
aS'would love flag flown afghanistan name honor charity'
p142
aS'really prada lazyakita akita puppylife spoiledpup'
p143
aS'love mcdonalds'
p144
aS'thats family prep better safe sorry chaos happens'
p145
asS'2014_31'
p146
(lp147
S'anyone want akita coat akita akitalove akitasofinstagram sheddingakitas somuchhair'
p148
aS'start furmanator akita akitalove akitasofinstagram sheddingakitas'
p149
aS'please mama nachos looking soooo cute right akita akitalove\xe2\x80\xa6'
p150
aS'wonder shes dreamin akita akitalove dreaminpuppy akitasofinstagram puppylove\xe2\x80\xa6'
p151
aS'think couple puppies getting shaved weekend akita sheddingakitas\xe2\x80\xa6'
p152
asS'2012_26'
p153
(lp154
S'sooo excited read'
p155
asS'2014_38'
p156
(lp157
S'yezzzzz feels good americanakita akitasofinstagram hotday'
p158
aS'loving akitasofinstagram americanakita babyboy hotday mamasboy mylove'
p159
aS'baby akitas akitalove akitasofinstagram americanakita mamasboy lovehim babyboy'
p160
aS'eeeewwwww bear drool akitas akitalove akitasdrool lovehim gross'
p161
aS'paris looks cute pantslol cutie akitalove akitasofinstagram puppy americanakita'
p162
asS'2014_39'
p163
(lp164
S'question want start ptsd campaign dont know start somewhere learn'
p165
aS'lookin like mama quit takin selfies drive home americanakita akitasofinstagram\xe2\x80\xa6'
p166
asS'2014_19'
p167
(lp168
S'someone question know they\xef\xbf\xbdre bullshiting'
p169
asS'2014_12'
p170
(lp171
S'much charge private parties workouts'
p172
asS'2014_13'
p173
(lp174
S'stop kuwait home'
p175
asS'2012_21'
p176
(lp177
S'ever think tours troops deployed overseas'
p178
aS'chris thank music helped hardest times worst place world'
p179
aS'planin shows soon waitin years unfortunately afghanistan last time came'
p180
aS'follow created accountlol'
p181
aS'planin shows soon waitin years unfortunately afghanistan last time came'
p182
asS'2014_8'
p183
(lp184
S'cant wait workout videos toned sexier deployment'
p185
asS'2013_52'
p186
(lp187
S'late donate drive unable make today military obligations'
p188
asS'2014_7'
p189
(lp190
S'rough night suppose party send baby right front face'
p191
aS'pledge backed cant wait lounge shorts'
p192
aS'babies neighbor whos gonna walk deployed soooo cute'
p193
aS'super cute want'
p194
asS'2014_5'
p195
(lp196
S'workout videos suppose come'
p197
asS'2014_3'
p198
(lp199
S'another deployment gotta make sure ipod keep sane'
p200
asS'2014_29'
p201
(lp202
S'charity celeb kickball game tonight chrisbrownofficial amazing great time teambreezy\xe2\x80\xa6'
p203
aS'chrisbrownofficial game sick'
p204
aS'chrisbrownofficial charity kickball game amazing time'
p205
asS'2014_28'
p206
(lp207
S'wore pants hospital trynna holla'
p208
aS'break nose gonna surgery'
p209
asS'2014_20'
p210
(lp211
S'able tell whats happening picture'
p212
aS'enjoying cooler'
p213
aS'love'
p214
aS'like'
p215
asS'2014_22'
p216
(lp217
S'please help returned deployment diagnosed ptsd month akita aggressive'
p218
asS'2014_25'
p219
(lp220
S'stuffed orca chew'
p221
aS'called killer whales'
p222
aS'look chad giving orcas dogs'
p223
aS'found lots'
p224
aS'really hope shows planned finally make waitin soooo long'
p225
asS'2014_27'
p226
(lp227
S'rumors reality show many reality shows think would watch'
p228
asS'2014_26'
p229
(lp230
S'ptsd support'
p231
aS'bear backpack today loves already cesarsway akita puppylove packleader'
p232
aS'something hours traveling home needed meet airport\xe2\x80\xa6'
p233
aS'coming around time'
p234
aS'cant wait super excited'
p235
aS'love coming cant wait'
p236
aS'trying like cant wait fresh eggs yummy'
p237
as.