(dp0
S'2013_48'
p1
(lp2
S'ba\xc3\xb1ador corte b\xc3\xa1sico luce hermoso unicolor'
p3
aS'cada ropa interior tiene estilo cautiva llega convertirse nuestra preferida'
p4
aS''
p5
ag5
ag5
ag5
ag5
ag5
ag5
ag5
ag5
ag5
ag5
ag5
ag5
ag5
ag5
ag5
ag5
ag5
ag5
asS'2013_46'
p6
(lp7
g5
ag5
ag5
ag5
ag5
ag5
ag5
ag5
ag5
ag5
ag5
ag5
ag5
ag5
ag5
ag5
ag5
ag5
ag5
ag5
ag5
ag5
ag5
ag5
ag5
ag5
ag5
ag5
ag5
ag5
ag5
ag5
ag5
ag5
ag5
ag5
ag5
ag5
ag5
ag5
ag5
ag5
ag5
ag5
ag5
ag5
ag5
ag5
ag5
ag5
ag5
ag5
ag5
ag5
ag5
ag5
ag5
ag5
ag5
ag5
aS'bodybuilding muscle musclegod biceps muscles muscleworship gaymuscle pecs model'
p8
ag5
ag5
ag5
ag5
ag5
ag5
ag5
ag5
ag5
ag5
ag5
ag5
ag5
ag5
ag5
ag5
ag5
ag5
ag5
ag5
ag5
ag5
ag5
ag5
ag5
ag5
ag5
ag5
ag5
ag5
ag5
ag5
ag5
ag5
ag5
ag5
ag5
ag5
ag5
ag5
ag5
ag5
ag5
ag5
ag5
ag5
ag5
ag5
ag5
ag5
ag5
ag5
ag5
ag5
ag5
ag5
ag5
ag5
ag5
ag5
ag5
aS'perfection'
p9
aS'hhhot'
p10
aS'pride upstate york legendary'
p11
aS'tough grimace darrell thomas'
p12
aS'flexing darrell thomas'
p13
ag5
ag5
ag5
ag5
ag5
ag5
ag5
ag5
ag5
ag5
ag5
ag5
ag5
ag5
ag5
ag5
ag5
ag5
ag5
ag5
ag5
ag5
ag5
ag5
ag5
ag5
ag5
ag5
ag5
ag5
ag5
ag5
ag5
ag5
ag5
ag5
ag5
ag5
ag5
ag5
ag5
ag5
ag5
ag5
ag5
ag5
ag5
ag5
ag5
ag5
ag5
ag5
ag5
ag5
ag5
ag5
ag5
ag5
ag5
ag5
ag5
ag5
ag5
ag5
ag5
ag5
ag5
ag5
ag5
ag5
ag5
ag5
ag5
ag5
ag5
ag5
ag5
ag5
ag5
ag5
ag5
ag5
ag5
ag5
ag5
ag5
ag5
ag5
ag5
ag5
ag5
ag5
ag5
ag5
ag5
ag5
ag5
ag5
ag5
ag5
ag5
ag5
ag5
ag5
ag5
ag5
ag5
ag5
ag5
ag5
ag5
ag5
ag5
ag5
ag5
ag5
ag5
ag5
ag5
ag5
ag5
ag5
ag5
ag5
ag5
ag5
ag5
ag5
ag5
ag5
ag5
ag5
ag5
ag5
ag5
ag5
ag5
ag5
ag5
ag5
ag5
ag5
ag5
ag5
ag5
ag5
ag5
ag5
ag5
ag5
ag5
ag5
ag5
ag5
ag5
ag5
ag5
ag5
ag5
ag5
ag5
ag5
ag5
ag5
ag5
ag5
ag5
ag5
ag5
ag5
ag5
ag5
ag5
ag5
ag5
ag5
ag5
ag5
ag5
ag5
ag5
ag5
ag5
ag5
ag5
ag5
ag5
ag5
ag5
ag5
ag5
ag5
ag5
ag5
ag5
ag5
ag5
ag5
ag5
ag5
ag5
ag5
ag5
ag5
ag5
ag5
ag5
ag5
ag5
ag5
ag5
ag5
ag5
ag5
ag5
ag5
ag5
ag5
ag5
ag5
ag5
ag5
ag5
ag5
ag5
ag5
ag5
ag5
aS'hunk'
p14
aS'hero'
p15
ag5
ag5
ag5
aS'photo bench post twitter'
p16
asS'2013_47'
p17
(lp18
g5
ag5
ag5
ag5
aS'want'
p19
ag5
ag5
aS'wouldnt mind sleep next'
p20
aS'bulge bigdick bigmen'
p21
ag5
aS'inspiration'
p22
aS'wants'
p23
ag5
aS'buenos dias'
p24
ag5
ag5
ag5
ag5
ag5
ag5
aS'perfect damn handsome want'
p25
aS'great macho'
p26
ag5
ag5
ag5
aS'gorgeous'
p27
ag5
ag5
aS'whew'
p28
aS'sexy'
p29
aS'wishing snuggling good time home tonight'
p30
ag5
ag5
ag5
ag5
ag5
aS'damn cute'
p31
aS'beautiful'
p32
aS'sexy cute handsome'
p33
aS'perfect muscle'
p34
ag5
aS'retweeting love horses\xe2\x80\xa6and guys'
p35
aS'night y\xe2\x80\x99all'
p36
aS'miami'
p37
aS'suddenly keen exercise'
p38
ag5
ag5
ag5
aS'wishing snuggling good time home tonight'
p39
aS'sport'
p40
aS'street'
p41
aS'water'
p42
ag5
aS'velvet'
p43
aS'nuestro descanso siempre debe m\xc3\xa1xima comodidad nuestra ropa interior'
p44
aS'nice'
p45
aS'hermosa ropa interior necesitas llevar pantalones calle'
p46
ag5
aS'muscle'
p47
aS'nuestro descanso siempre placentero buena ropa interior'
p48
aS'dise\xc3\xb1amos ropa interior masculina fabricamos para hechoenvenezuela'
p49
ag5
ag5
ag5
ag5
ag5
aS'stud\xe2\x80\x9c\xe2\x80\x9d'
p50
aS'perfect'
p51
ag5
aS'let\xe2\x80\x99s start today sexy that\xe2\x80\x99s great start'
p52
aS'\xc2\xa1menuda pequet\xc3\xb3n'
p53
ag5
aS'good reason like york'
p54
aS'bulge\xe2\x80\x9c\xe2\x80\x9d'
p55
ag5
aS'buenos tweeteros love'
p56
aS'sexy damn sexy getmeinthatshower'
p57
aS'good male crush mancrush sure beautifulman'
p58
ag5
ag5
ag5
ag5
ag5
ag5
ag5
aS'sexy'
p59
aS'sexy'
p60
aS'sexiest soccer player ever'
p61
aS'henry spurrier'
p62
ag5
ag5
ag5
ag5
ag5
ag5
ag5
ag5
ag5
ag5
ag5
ag5
ag5
ag5
ag5
ag5
ag5
ag5
ag5
ag5
ag5
ag5
ag5
ag5
ag5
ag5
ag5
ag5
ag5
ag5
ag5
ag5
ag5
ag5
ag5
ag5
ag5
ag5
ag5
ag5
ag5
ag5
ag5
ag5
ag5
ag5
ag5
ag5
ag5
ag5
ag5
ag5
aS'encanta lucir bien seleccionamos prenda \xc3\xadntima guste'
p63
ag5
ag5
ag5
ag5
ag5
ag5
ag5
ag5
ag5
ag5
ag5
ag5
ag5
ag5
ag5
ag5
ag5
ag5
ag5
ag5
ag5
ag5
ag5
ag5
ag5
ag5
ag5
ag5
ag5
ag5
ag5
ag5
ag5
ag5
ag5
ag5
ag5
ag5
ag5
ag5
ag5
ag5
ag5
ag5
ag5
ag5
ag5
ag5
ag5
ag5
ag5
ag5
ag5
ag5
ag5
ag5
ag5
ag5
ag5
ag5
ag5
ag5
ag5
ag5
ag5
ag5
ag5
ag5
ag5
ag5
ag5
ag5
ag5
ag5
ag5
ag5
ag5
ag5
ag5
ag5
ag5
ag5
ag5
ag5
ag5
ag5
ag5
ag5
ag5
ag5
ag5
ag5
ag5
ag5
ag5
ag5
ag5
ag5
aS'todos necesitamos ropa interior haga sentir m\xc3\xa1xima comodidad'
p64
aS'glad football season'
p65
aS'need vacation'
p66
aS'dirty boysgtgtgt'
p67
aS'gitty'
p68
aS'swimmersgtgtgt'
p69
aS'lawddd'
p70
aS'hump'
p71
aS'hump'
p72
aS'enjoy share love hotguys sexyguys hotmen ladywood'
p73
aS'enjoy share love hotguys sexyguys hotmen ladywood'
p74
aS'enjoy share love hotguys sexyguys hotmen ladywood'
p75
aS'enjoy share love hotguys sexyguys hotmen ladywood'
p76
aS'enjoy share love hotguys sexyguys hotmen ladywood'
p77
aS'enjoy share love hotguys sexyguys hotmen ladywood'
p78
aS'enjoy share love hotguys sexyguys hotmen ladywood'
p79
aS'enjoy share love hotguys sexyguys hotmen ladywood'
p80
aS'b\xc3\xa1sico color blanco el\xc3\xa1stico permite sentir mucha comodidad todo'
p81
aS'interior blanco clase prestigio categor\xc3\xada distinci\xc3\xb3n buen gusto'
p82
aS'hombre ropa interior blanca siempre virgen intimidad'
p83
aS'buena ropa interior necesitas llevar pantalones mientras conduces moto'
p84
aS'feliz para todos cordial saludo puede excelente para playa'
p85
aS'aprendamos veremos bueno recibir adelante'
p86
aS'interior blanco hace atractivos masculinos extremadamente sexy'
p87
ag5
ag5
ag5
ag5
ag5
ag5
ag5
ag5
ag5
ag5
ag5
ag5
aS'undies'
p88
ag5
ag5
ag5
ag5
ag5
ag5
ag5
ag5
ag5
ag5
ag5
ag5
ag5
ag5
ag5
ag5
ag5
ag5
ag5
ag5
ag5
ag5
ag5
ag5
ag5
ag5
ag5
ag5
ag5
ag5
ag5
ag5
ag5
ag5
ag5
ag5
ag5
ag5
ag5
ag5
ag5
ag5
ag5
ag5
ag5
ag5
ag5
ag5
ag5
ag5
ag5
ag5
ag5
ag5
ag5
ag5
ag5
ag5
ag5
ag5
ag5
ag5
asS'2013_44'
p89
(lp90
S'thierry pepin wears gregg homme 2013 western collection snakeskinambiance mmmm'
p91
aS'mike stalker really cin2s'
p92
aS'hunkoftheday lets bike model actor rusty joiner'
p93
aS'biggest crush till date sweet'
p94
aS'crush cute'
p95
aS'sweet cute'
p96
aS'missing hunk timeline hope well'
p97
aS'really perfection personified dreamy'
p98
aS'bless splash precious meaty mouthful'
p99
aS'good'
p100
ag5
ag5
ag5
ag5
ag5
ag5
ag5
ag5
ag5
ag5
ag5
ag5
ag5
ag5
ag5
ag5
ag5
ag5
ag5
ag5
ag5
ag5
aS'smoldering look'
p101
aS'muscle hotness'
p102
aS'luke guldan'
p103
aS'hola'
p104
ag5
aS'jake campione'
p105
aS'jake campione'
p106
ag5
ag5
ag5
aS'jake campione'
p107
ag5
ag5
ag5
ag5
aS'jake campione'
p108
ag5
ag5
ag5
aS'martin pichler'
p109
aS'martin pichler'
p110
aS'martin pichler'
p111
aS'martin pichler'
p112
aS'martin pichler'
p113
aS'martin pichler'
p114
aS'matthew stone'
p115
aS'matthew stone'
p116
aS'matthew stone'
p117
aS'matthew stone'
p118
aS'matthew stone'
p119
aS'matthew stone'
p120
aS'matthew stone'
p121
aS'matthew stone'
p122
aS'matthew stone'
p123
aS'matthew stone'
p124
aS'matthew stone'
p125
aS'matthew stone'
p126
aS'matthew stone'
p127
aS'matthew stone'
p128
aS'ricardo baldin'
p129
aS'ricardo baldin'
p130
aS'ricardo baldin'
p131
aS'ricardo baldin'
p132
aS'ricardo baldin'
p133
aS'ricardo baldin'
p134
aS'ricardo baldin'
p135
ag5
ag5
ag5
ag5
aS'ricardo baldin'
p136
ag5
ag5
ag5
aS'ricardo baldin'
p137
aS'ricardo baldin'
p138
ag5
ag5
aS'attend appel'
p139
ag5
ag5
ag5
ag5
ag5
aS'sexy'
p140
aS'sexy'
p141
aS'handsome lujoooooo waoo'
p142
aS'sexy shirtless grrrrr'
p143
aS'humpy\xe2\x80\x9d'
p144
aS'green'
p145
aS'bulge sexy chest'
p146
aS'paul knops'
p147
aS'hell selfie'
p148
aS'sidney allan'
p149
ag5
ag5
aS'josh coburn'
p150
aS'aaron thornton'
p151
ag5
aS'daniel rumfelt'
p152
ag5
aS'michicodeldia para pararnos gusto buenos'
p153
aS'playawow\xe2\x80\x9d'
p154
aS'muscles'
p155
ag5
aS'football time quarterback anytime photo'
p156
aS'shower time gayporn gaymuscle'
p157
aS'hose bernardo velasco'
p158
aS'baby please breed wanna babies'
p159
aS'nick ayler'
p160
aS'excellent place wear undies'
p161
aS'sexy italian hopes score undies thats underwear'
p162
aS'inspiration fancy undies'
p163
aS'sure follow twitterhe sweetheart stay tuned colby days ahead'
p164
aS'lived australia well traveledhe dreams seeing earths historic sites'
p165
aS'healthy curves beautiful says debate'
p166
aS'chris farrell cullis'
p167
aS'ripped gusta esta macho'
p168
aS'provocative tyler scott cullis never tweeted'
p169
aS'carrying pigskin daniel rumfelt torso hair'
p170
ag5
ag5
ag5
ag5
ag5
aS'beautiful fall colors surround hunky'
p171
aS'beautiful'
p172
aS'ebony beauty'
p173
aS'cute'
p174
aS'muscle hottie gabel ripped hottie muscles'
p175
aS'perfect'
p176
aS'another photo darrell thomas cullis'
p177
aS'awesome oiled image sager cullis'
p178
aS'kinds bulges hottie model'
p179
aS'sexy bampw kansan daniel rumfelt posing sand'
p180
aS'cmon sexy daniel rumfelt lingering garden'
p181
aS'continuing series sexy allamerican super stud model lives cullis'
p182
aS'megapopular chiseled face blue eyes sexy lips brown hair'
p183
aS'pics coming fashion selfies beach promise selfie'
p184
aS'crazy busy blast much good night modelstatus'
p185
aS'colbylefebvre nothing feels better skin madeinheaven mentionperfection'
p186
aS'mylifeinoneword amazing'
p187
aS'excited cool magazineshoot coming leaning starting 2day modelstatus cantwait hungry'
p188
aS'interviews filming public covermodel signing wkend disneyland mondaymotivation'
p189
aS'much shoot many shoots post soon'
p190
aS'thanks love'
p191
aS'chilling sixpack fitness fitnessmodel model physique friday photography weekend'
p192
aS'shoot model fitness calvinklein shoot photo physique sixpack pose fitnessmodel underwear friday weekend'
p193
ag5
aS'sure follow twitterhe sweetheart stay tuned colby days ahead'
p194
ag5
aS'says industry standards runway models sadto competethey severely underwgt malnutritioned'
p195
ag5
ag5
ag5
ag5
ag5
ag5
ag5
ag5
ag5
ag5
ag5
ag5
ag5
ag5
ag5
ag5
aS'radoslav vanko'
p196
aS'radoslav vanko'
p197
aS'radoslav vanko'
p198
aS'radoslav vanko'
p199
aS'radoslav vanko'
p200
aS'radoslav vanko'
p201
aS'radoslav vanko'
p202
aS'radoslav vanko'
p203
ag5
aS'sexy bampw kansan daniel rumfelt posing sand'
p204
ag5
ag5
ag5
ag5
ag5
ag5
ag5
ag5
ag5
ag5
ag5
ag5
ag5
aS'grincourt'
p205
aS'jake cassar'
p206
ag5
aS'alex santaniello'
p207
aS'jerome ortiz'
p208
aS'jerome ortiz'
p209
aS'jerome ortiz'
p210
aS'hill'
p211
aS'hill'
p212
ag5
ag5
ag5
ag5
ag5
ag5
ag5
ag5
ag5
ag5
ag5
ag5
ag5
ag5
ag5
ag5
ag5
ag5
aS'hill'
p213
aS'hill'
p214
ag5
aS'ryan terry'
p215
aS'ryan terry'
p216
aS'ryan terry'
p217
aS'ryan terry'
p218
aS'ryan terry'
p219
aS'ryan terry'
p220
aS'hottie lukas stripping'
p221
aS'marc fitt'
p222
aS'marc fitt'
p223
aS'marc fitt'
p224
aS'marc fitt'
p225
aS'marc fitt'
p226
aS'marc fitt'
p227
ag5
ag5
ag5
ag5
ag5
ag5
ag5
ag5
ag5
ag5
ag5
ag5
ag5
ag5
ag5
ag5
ag5
ag5
aS'kacey carrig'
p228
ag5
ag5
aS'julian schratter'
p229
aS'today winner'
p230
aS'good morning tweeps gayporn gaymuscle maleperfection fotogay pornogay hunglatin'
p231
aS'save horse ride cowboy nakedsunday follow'
p232
aS'buenas noches'
p233
aS'almost friday'
p234
aS'call maybe'
p235
aS'sweet dreams'
p236
aS'blue white'
p237
aS'morning peeps'
p238
aS'enjoy share love hotguys sexyguys hotmen'
p239
aS'saturday history saturdayknight saturdaylibrarian saturdaylook'
p240
aS'dont always send pink wednesdays pics theyre'
p241
ag5
aS'samuel dixon'
p242
aS'nick duffy time morning'
p243
ag5
aS'benjamin godfre'
p244
aS'hangin\xe2\x80\x99 teammates'
p245
aS'justice joslin'
p246
aS'hunk sexy muscle'
p247
aS'nice'
p248
aS'brian freeman'
p249
ag5
ag5
ag5
ag5
ag5
ag5
aS'daniel wearing rugby scout square brief'
p250
aS'adam cowie'
p251
aS'damn'
p252
aS'jesse roberts'
p253
ag5
aS'mike stalker'
p254
aS'levi jackson'
p255
aS'julien sabaud'
p256
asS'2013_45'
p257
(lp258
g5
aS'edited killer outtake shoot last night'
p259
ag5
ag5
ag5
ag5
ag5
ag5
ag5
ag5
ag5
ag5
ag5
ag5
ag5
ag5
ag5
ag5
ag5
ag5
ag5
ag5
ag5
ag5
ag5
ag5
ag5
ag5
ag5
ag5
ag5
ag5
ag5
ag5
ag5
ag5
ag5
ag5
ag5
ag5
ag5
ag5
ag5
ag5
ag5
ag5
ag5
ag5
ag5
ag5
ag5
ag5
ag5
ag5
ag5
ag5
ag5
ag5
ag5
ag5
ag5
ag5
ag5
ag5
ag5
ag5
ag5
ag5
ag5
ag5
ag5
ag5
aS'lucas bernardini'
p260
ag5
ag5
ag5
ag5
ag5
ag5
ag5
ag5
ag5
ag5
ag5
ag5
ag5
ag5
ag5
ag5
ag5
ag5
ag5
ag5
ag5
ag5
ag5
ag5
ag5
ag5
ag5
ag5
ag5
ag5
ag5
ag5
ag5
ag5
ag5
ag5
ag5
ag5
ag5
ag5
ag5
ag5
ag5
ag5
ag5
ag5
ag5
ag5
ag5
ag5
ag5
ag5
ag5
ag5
ag5
ag5
ag5
ag5
ag5
ag5
ag5
ag5
ag5
ag5
ag5
ag5
ag5
ag5
ag5
ag5
ag5
ag5
ag5
ag5
ag5
ag5
ag5
ag5
ag5
ag5
ag5
ag5
ag5
aS'johnny sins'
p261
ag5
ag5
ag5
ag5
ag5
ag5
ag5
ag5
ag5
ag5
ag5
ag5
ag5
ag5
ag5
ag5
ag5
ag5
ag5
ag5
ag5
ag5
ag5
ag5
aS'morning wood cody'
p262
ag5
aS'edilson nascimento'
p263
ag5
aS'adam becker'
p264
ag5
ag5
ag5
ag5
ag5
ag5
ag5
ag5
ag5
ag5
ag5
ag5
ag5
ag5
ag5
ag5
ag5
ag5
ag5
ag5
ag5
ag5
ag5
aS'towel time'
p265
ag5
ag5
ag5
aS'como est\xc3\xa1n mmmmmmmmmm rico\xe2\x80\x9d'
p266
aS'damn handsome sexy'
p267
aS'papasoote amorr'
p268
aS'ready sleep perfectionat least outside'
p269
aS'like'
p270
ag5
ag5
ag5
ag5
ag5
ag5
ag5
ag5
ag5
ag5
aS'typical still catching'
p271
aS'alex ceobanu'
p272
aS'alex ceobanu'
p273
ag5
ag5
ag5
ag5
ag5
ag5
ag5
ag5
ag5
ag5
ag5
ag5
ag5
ag5
ag5
ag5
ag5
ag5
ag5
ag5
ag5
ag5
ag5
ag5
ag5
ag5
ag5
ag5
ag5
ag5
ag5
ag5
ag5
ag5
ag5
ag5
ag5
ag5
ag5
ag5
ag5
ag5
ag5
ag5
ag5
ag5
ag5
ag5
ag5
ag5
ag5
ag5
aS'thursday blog thursdayblogministry thursdaybloghop thursdayblog'
p274
aS'damn coming'
p275
aS'royal thursday thursdayisladiesday thursdayinterviews thursdayinhistory'
p276
aS'gle\xc3\xb0ilega hrekkjav\xc3\xb6ku fr\xc3\xb6hliches halloween happy halloween'
p277
aS'friskypicks morninglovelies'
p278
aS'mornin yall'
p279
aS'friskypicks morninglovelies'
p280
aS'friskypicks morninglovelies'
p281
aS'friskypicks morninglovelies'
p282
aS'friskypicks morninglovelies'
p283
aS'nite yall'
p284
ag5
ag5
ag5
ag5
ag5
ag5
ag5
ag5
ag5
ag5
ag5
ag5
ag5
ag5
ag5
ag5
ag5
ag5
ag5
ag5
ag5
ag5
ag5
ag5
ag5
ag5
ag5
ag5
ag5
ag5
ag5
ag5
ag5
ag5
ag5
ag5
ag5
ag5
ag5
ag5
ag5
ag5
ag5
ag5
ag5
ag5
ag5
ag5
ag5
ag5
ag5
ag5
ag5
ag5
ag5
ag5
ag5
ag5
ag5
ag5
ag5
ag5
ag5
ag5
ag5
ag5
ag5
ag5
ag5
ag5
ag5
ag5
ag5
ag5
ag5
ag5
aS'like'
p285
ag5
ag5
ag5
ag5
ag5
aS'countryboy thatweallwanttosuck fuck right horseride cowb\xe2\x80\xa6'
p286
ag5
ag5
ag5
ag5
ag5
ag5
ag5
ag5
ag5
ag5
ag5
ag5
ag5
ag5
ag5
ag5
ag5
ag5
ag5
ag5
ag5
ag5
aS'great male model andrew cooper arseto addiputra'
p287
ag5
ag5
ag5
ag5
ag5
ag5
ag5
ag5
ag5
ag5
ag5
ag5
ag5
ag5
ag5
ag5
ag5
aS'cowboy'
p288
ag5
ag5
ag5
ag5
ag5
ag5
ag5
ag5
ag5
ag5
ag5
ag5
ag5
ag5
ag5
ag5
ag5
ag5
ag5
ag5
ag5
ag5
ag5
ag5
ag5
ag5
ag5
ag5
ag5
ag5
ag5
ag5
ag5
ag5
ag5
ag5
ag5
ag5
ag5
ag5
ag5
ag5
ag5
ag5
aS'sexy\xe2\x80\x9d'
p289
ag5
ag5
ag5
ag5
ag5
aS'colin aveline'
p290
ag5
aS'chris papas'
p291
aS'j\xc3\xa9r\xc3\xa9my pitouu'
p292
aS'radoslav vanko'
p293
ag5
aS'alex santaniello'
p294
aS'staring damn perfect teamgay muscle stud'
p295
ag5
ag5
ag5
ag5
ag5
ag5
ag5
ag5
ag5
ag5
ag5
aS'terrorista'
p296
ag5
aS'bulge'
p297
aS'sexy'
p298
ag5
aS'chicosguapos'
p299
aS'chicosguapos sexy'
p300
ag5
aS'chicosguapos sexy'
p301
aS'sexy'
p302
aS'ryan terry'
p303
aS'ryan terry'
p304
aS'goodmorning'
p305
aS'wink'
p306
aS'time'
p307
ag5
aS'nathan lewis'
p308
ag5
aS'quite todo'
p309
ag5
ag5
aS'love eampa'
p310
aS'winsome come hither'
p311
ag5
aS'malebasics'
p312
aS'gear varsity collection'
p313
ag5
ag5
ag5
ag5
ag5
ag5
ag5
ag5
ag5
ag5
ag5
ag5
ag5
ag5
ag5
ag5
aS'hornyydude'
p314
ag5
ag5
ag5
aS'noel kirvendows'
p315
aS'noel kirvendows'
p316
ag5
as.