(dp0
S'2013_42'
p1
(lp2
S'wake dank swisher'
p3
aS''
p4
aS'take time quick'
p5
aS'expecting cold weather start occurring'
p6
aS'someone come fucken library'
p7
asS'2013_43'
p8
(lp9
S'aint gonna long time haha'
p10
aS'somethings wrong'
p11
aS'best night'
p12
aS'ballin'
p13
aS'weed isnt drug'
p14
aS'whats name'
p15
aS'always wanted live york'
p16
aS'waken baken\xf0\x9f\x8d\x81'
p17
aS'need peace life'
p18
aS'tierd game'
p19
aS'hate waiting'
p20
aS'cause looks like ronnie banks'
p21
asS'2013_40'
p22
(lp23
S'craziest party last night'
p24
aS'party jesses'
p25
aS'birches care much personal life\xf0\x9f\x98\x92'
p26
aS'awake feel good time baked'
p27
aS'love mary jane shes main thang makes feel alright makes heart sang'
p28
aS'yayyyy\xf0\x9f\x98\x83'
p29
aS'fuck whats best'
p30
aS'always fail even'
p31
aS'girl cant cooperate'
p32
aS'people talk humiliating'
p33
aS'theres types niggas life niggas make happen niggas watch happen niggas dont know going'
p34
aS'everything bugs'
p35
aS'choice'
p36
aS'grind\xf0\x9f\x99\x8c'
p37
aS'snupes verse song snupe'
p38
aS'dream chasers good'
p39
aS'going downloaded dreamchasers'
p40
asS'2013_41'
p41
(lp42
S'bola took first time'
p43
aS'havent cross faded fucken days'
p44
aS'turn fuck'
p45
aS'best'
p46
aS'start whats best'
p47
aS'fucking stupid'
p48
aS'hustlin'
p49
aS'didnt play'
p50
ag4
aS'gonna take shit morning girl'
p51
aS'stranger'
p52
aS'super negro alive'
p53
aS'mind mothafuckin business bitch'
p54
aS'fuck teacher everyday keeps cattin'
p55
aS'addicted something takes pain away'
p56
asS'2013_46'
p57
(lp58
S'love living santa cruz\xf0\x9f\x8d\x81\xf0\x9f\x92\xa8'
p59
aS'east'
p60
aS'honestly'
p61
aS'going'
p62
aS'raging weekend\xf0\x9f\x91\x8c'
p63
aS'loving weather\xf0\x9f\x98\x8d'
p64
aS'locals bitch'
p65
asS'2013_47'
p66
(lp67
g4
ag4
asS'2013_44'
p68
(lp69
S'aint beauty booty'
p70
aS'time life tonight'
p71
aS'lies'
p72
ag4
aS'fuck shit gonna baked'
p73
aS'mood anything fuck everyone everything right lleva madre'
p74
aS'school greatest feeling ever'
p75
aS'feel numb'
p76
aS'tried shotgun beer funniest shit ever'
p77
aS'drunkie'
p78
asS'2013_45'
p79
(lp80
S'lastnight rage'
p81
aS'fuck everyone going soja tonight'
p82
aS'sketchy shit\xf0\x9f\x91\x8c'
p83
aS'cant wait till sunset 2014'
p84
aS'watsonville ghetto beaners'
p85
aS'waken baken\xf0\x9f\x91\x8c'
p86
ag4
aS'visit guys soon\xf0\x9f\x98\x8b'
p87
aS'miss bestfriend\xf0\x9f\x98\x9f'
p88
aS'jason homieee miss youuu'
p89
aS'definately killed night'
p90
aS'heart breaks'
p91
aS'bipolar people'
p92
aS'fuck weed legalize first'
p93
aS'drug plant'
p94
aS'soccer fegs'
p95
aS'maldito alcolico'
p96
aS'shout bola selfish bitch'
p97
aS'gonna pretty crazy weekend rage'
p98
aS'fucking cold\xe2\x9d\x84\xef\xb8\x8f'
p99
aS'swear head'
p100
aS'thinking transfering soquel\xf0\x9f\x98\x81'
p101
aS'think watsonville girls gorgeous'
p102
asS'2013_25'
p103
(lp104
S'raleigh tonight gkmc tour'
p105
asS'2013_26'
p106
(lp107
S'left'
p108
aS'seriously look people could talk front people confidence\xe2\x80\x9d'
p109
aS'alumni clothing online store'
p110
aS'showtime'
p111
aS'ones last part'
p112
aS'moneyandthepower need real fams request local radio stations think single\xe2\x80\xa6'
p113
aS'bullshit batgang'
p114
aS'fuck haters'
p115
aS'smokin club'
p116
aS'hamilton manor jackrabbit rollup'
p117
aS'smoking ogonly rollup'
p118
aS'nothing like cali'
p119
aS'summer hates'
p120
aS'feels good home'
p121
aS'almosthome itunes'
p122
aS'lying'
p123
ag4
aS'thats fell'
p124
aS'cool'
p125
ag4
ag4
aS'almost home freestyle'
p126
aS'call request money power local radio stations almosthome'
p127
aS'sactown friday assembly'
p128
asS'2013_27'
p129
(lp130
S'hate bathroom theres fucken shit chilling toilet'
p131
aS'sucks'
p132
ag4
ag4
aS'ahah crazy'
p133
aS'lmfao\xf0\x9f\x98\x8c'
p134
aS'girll letting know party hard'
p135
aS'purple haze brain lately things dont seen'
p136
ag4
aS'almosthome'
p137
aS'take little pain means nothing'
p138
ag4
aS'keep requesting think'
p139
aS'ants wanna high rollup'
p140
aS'money power'
p141
aS'shop alumni'
p142
asS'2013_28'
p143
(lp144
S'fans dont'
p145
aS'here\xe2\x80\x99s take chips'
p146
aS'dont ever ever call morning'
p147
aS'would amazing girl would possibly ever talk like'
p148
asS'2013_29'
p149
(lp150
S'looks like scared'
p151
aS'dont score gonna pleasure'
p152
aS'type'
p153
aS'talk'
p154
aS'lost sause'
p155
ag4
aS'official alumni clothing webstore'
p156
aS'boothback zone'
p157
aS'hongo'
p158
aS'stfu'
p159
aS'cock'
p160
ag4
aS'lost everything\xf0\x9f\x98\x9e'
p161
asS'2013_37'
p162
(lp163
S'hittin milky'
p164
aS'chill night homies'
p165
aS'good dank'
p166
aS'trust ahahah'
p167
aS'getting cash never'
p168
aS'theres levels shit'
p169
aS'finally cold weather\xf0\x9f\x99\x8c'
p170
aS'tomorrow'
p171
aS'tell usual\xf0\x9f\x98\x98'
p172
aS'turning tomorrow'
p173
aS'toooo\xf0\x9f\x98\x9f'
p174
aS'jason misss youuu'
p175
aS'bitch idgaf'
p176
aS'someone seems scerd\xf0\x9f\x98\x84'
p177
aS'fuck'
p178
aS'fucking hate bitch teacher shes fucking badly damn'
p179
asS'2013_36'
p180
(lp181
S'bring aarons fucking drop black'
p182
aS'person doesnt hold grudges trusting time'
p183
aS'number'
p184
aS'beer pong kings hours tomorrow night\xf0\x9f\x98\x8c'
p185
aS'cloud'
p186
aS'fuck bitch dont even kick faggots'
p187
aS'babes\xf0\x9f\x98\x86'
p188
aS'fuck nigger'
p189
aS'first mexico fucking'
p190
aS'virgin'
p191
aS'like hairy dicks'
p192
aS'boutta smoke'
p193
aS'apple needs something damn chargers breaking easy\xf0\x9f\x98\x92'
p194
aS'wait'
p195
aS'cant wait till starts raining'
p196
aS'boring class ever fuck'
p197
ag4
aS'anytime\xf0\x9f\x98\x8a ahahahhaah sorry love'
p198
aS'happy birthday favorite girls world'
p199
asS'2013_35'
p200
(lp201
S'dont care reason getting paper'
p202
aS'dont drugs hello drugs'
p203
aS'poppin'
p204
aS'nigger'
p205
aS'bitch'
p206
asS'2013_34'
p207
(lp208
S'never going another stupid trip fuck'
p209
aS'almost home\xf0\x9f\x99\x8c'
p210
aS'wonder girls dont take seriously ahah tell disrespectful motherfucker'
p211
aS'make cock'
p212
aS'youre part pussy pussy pussy marijuana crew change'
p213
aS'bout pussy pussy pussy marijuana life\xf0\x9f\x98\x8b shut cock'
p214
aS'ohhh thats girl well nigga live'
p215
aS'thats cute\xf0\x9f\x98\x98\xf0\x9f\x91\x8c'
p216
ag4
asS'2013_33'
p217
(lp218
S'feed cock'
p219
aS'virgin'
p220
aS'bitch'
p221
aS'nigga barly woke morning still'
p222
aS'fucking'
p223
asS'2013_32'
p224
(lp225
S'cock'
p226
aS'cool'
p227
aS'tell fucker give back chop tiny little asian chode'
p228
aS'stares balls shewantsthed'
p229
aS'honestly stop bitchin damn annoying'
p230
aS'black knee'
p231
aS'tell'
p232
aS'better grab girl tight cause know shes grillin'
p233
asS'2013_31'
p234
(lp235
S'miss'
p236
aS'lastnight sick\xf0\x9f\x91\x8c'
p237
aS'funny\xf0\x9f\x98\xad'
p238
aS'best time'
p239
aS'puffin like chiminey\xe2\x9c\x8a'
p240
aS'shes best\xe2\x98\xba\xe2\x9d\xa4'
p241
aS'bossin'
p242
aS'yall ready bossinup remix coming soon'
p243
asS'2013_30'
p244
(lp245
g4
aS'alright doors open right'
p246
aS'arroyo seco later'
p247
aS'really'
p248
asS'2013_39'
p249
(lp250
S'live party lastnight\xf0\x9f\x91\x8c'
p251
aS'poppin party'
p252
aS'chuckys party come'
p253
ag4
aS'saturday school wasnt'
p254
aS'called whipped called respecting girlfriend\xe2\x80\x9d'
p255
aS'school already'
p256
aS'wish never updated phone fuck ios7'
p257
aS'meek mill straight embaressed cassidy bossshit'
p258
aS'addicted hugs kisses love'
p259
aS'much figure'
p260
aS'know worth'
p261
asS'2013_38'
p262
(lp263
S'ughhh miss girlfriend\xf0\x9f\x98\x93'
p264
aS'average talent'
p265
aS'finally raining'
p266
aS'damn'
p267
aS'library'
p268
aS'virgin'
p269
aS'need sleep'
p270
aS'resistance'
p271
aS'wanna early dont wanna health careers harbor\xf0\x9f\x98\xa2'
p272
aS'thanks homieee'
p273
aS'anytime'
p274
aS'happy birthday hope blast\xf0\x9f\x99\x85\xe2\x98\xba\xf0\x9f\x8e\x89\xf0\x9f\x8e\x8a\xf0\x9f\x8e\x81'
p275
aS'fuck first period'
p276
aS'feeling sick'
p277
aS'everythings gone fuck'
p278
aS'whats hurry'
p279
as.