(dp0
S'2013_47'
p1
(lp2
S'never thought excited feel queasy catching fire amazing wait going kill'
p3
aS'ready hunger games tomorrow'
p4
aS'updated professional profile linkedin connect view profile'
p5
asS'2013_48'
p6
(lp7
S'sure innocence ignorance girl time wake'
p8
aS'happy thanksgiving'
p9
asS'2013_49'
p10
(lp11
S'stressful thinking least theres walking dead tomorrow damn gonna sunday nights'
p12
aS'guess time'
p13
aS'smiling scream'
p14
aS'sleeping tonight walking dead intense thewalkingdead'
p15
asS'2012_43'
p16
(lp17
S'excited piece guppy girl seems good asked could displayed special gallery'
p18
asS'2013_24'
p19
(lp20
S'check phoenix girl beautifuldescent'
p21
asS'2014_35'
p22
(lp23
S'check work portfolio tattoo design'
p24
asS'2014_32'
p25
(lp26
S'check work portfolio third painting worked today'
p27
aS'check work portfolio second painting'
p28
aS'check work portfolio mermaid collection guppy girl glass'
p29
aS'check work portfolio sure going look might thin\xe2\x80\xa6'
p30
asS'2013_21'
p31
(lp32
S'computer issuesit really sucks'
p33
asS'2014_31'
p34
(lp35
S'working painting skills pictures later'
p36
asS'2014_38'
p37
(lp38
S'check work portfolio phoenix girl glass'
p39
asS'2012_48'
p40
(lp41
S'updated deviant check photography portfolio'
p42
asS'2014_18'
p43
(lp44
S'estimated foenot thoughmuawh hahaha'
p45
asS'2014_14'
p46
(lp47
S'work sunday monday night hopefully witch waste'
p48
asS'2014_15'
p49
(lp50
S'check work portfolio sophie'
p51
aS'check work portfolio'
p52
asS'2014_17'
p53
(lp54
S'think cash check trash thats seems like anyway'
p55
asS'2014_10'
p56
(lp57
S'wind rises'
p58
aS'check work portfolio sleeping beauty'
p59
asS'2014_11'
p60
(lp61
S'check work portfolio first sketch beautiful witch'
p62
aS'check work portfolio howls moving castle vintage tattoos'
p63
asS'2014_12'
p64
(lp65
S'brother made cupcakes'
p66
aS'early birthday gift brother'
p67
asS'2012_50'
p68
(lp69
S'posted photos deviantart check'
p70
asS'2013_51'
p71
(lp72
S'eating slim sasquatch package first thing came mind beefsquatch think watch bobs burgers later'
p73
asS'2014_8'
p74
(lp75
S'check work portfolio howl sophie'
p76
aS'trying drawing done looks like thinks done enough'
p77
aS'diagnosed ptsd last traumatic childhood event test civilians'
p78
asS'2013_52'
p79
(lp80
S'merry christmas everyone'
p81
asS'2014_6'
p82
(lp83
S'check olivia beautifuldescent'
p84
aS'check blood moon beautifuldescent'
p85
aS'check work portfolio olivia'
p86
aS'check work portfolio blood moon'
p87
aS'wanted moral value taught cant make laws telling people dress makes look desperate'
p88
aS'check work portfolio olivia'
p89
aS'kitten snoringhe sounds like wookie cute'
p90
aS'super exhausted'
p91
aS'posted video fighting another insult injury facebook denied request remove bullying'
p92
asS'2014_7'
p93
(lp94
S'messed want pudding pudding'
p95
aS'getting pumped walking dead comic book tonight thewalkingdead comicbookmen'
p96
asS'2014_4'
p97
(lp98
S'interview monday'
p99
aS'almost forgot check sisters beautifuldescent'
p100
aS'tough choicewatch perks wallflower miss watching good movie dont'
p101
aS'give feedback sisters workinprogress'
p102
aS'give feedback fight workinprogress'
p103
asS'2014_5'
p104
(lp105
S'took zimbios upon time quiz rumpelstiltskin zimbioquiz'
p106
aS'check work portfolio snow white'
p107
aS'shouldnt make laws make people respectful livefrome'
p108
aS'retweet ready govice tomorrow'
p109
asS'2014_2'
p110
(lp111
S'well luck northern lights means visit alaska sometime'
p112
aS'hoping northern lights tonight'
p113
asS'2014_3'
p114
(lp115
S'know years later brother noticed sloth background robots'
p116
aS'sorry tired clever banter'
p117
aS'whoa'
p118
aS'doesnt know thing xmen lame'
p119
aS'dude suck played score'
p120
aS'mikes archer drinking game archerfx'
p121
aS'check beauty beautifuldescent'
p122
aS'check latest piece behance beauty project'
p123
asS'2014_1'
p124
(lp125
S'give feedback rosies song workinprogress'
p126
aS'happy year happynewyear'
p127
asS'2014_41'
p128
(lp129
S'check work portfolio progress'
p130
aS'check work portfolio chiropteran'
p131
asS'2014_44'
p132
(lp133
S'days till halloween'
p134
asS'2013_18'
p135
(lp136
S'check mals pals 2013 beautifuldescent'
p137
asS'2012_37'
p138
(lp139
S'heard flag burned also heard preacher started burning koran people time grow'
p140
asS'2014_9'
p141
(lp142
S'sometimes wonder married dont remember wedding relationship yeah didnt youre crazy'
p143
aS'never angry life'
p144
aS'check work portfolio think'
p145
aS'check work portfolio snow white'
p146
aS'check work portfolio first sketch'
p147
aS'check work portfolio decided different direction think'
p148
aS'check work portfolio cinderella'
p149
aS'check work portfolio cinderella'
p150
asS'2014_21'
p151
(lp152
S'pumped line xmen movie'
p153
asS'2014_23'
p154
(lp155
S'check work portfolio first sketch hearts change vintage style'
p156
aS'check work portfolio'
p157
asS'2014_27'
p158
(lp159
S'happy july'
p160
asS'2014_26'
p161
(lp162
S'wish denver watching american ninja warrior'
p163
asS'2013_27'
p164
(lp165
S'check making pain pretty beautifuldescent'
p166
aS'tonight sucks'
p167
aS'horse beautifuldescent'
p168
as.