(dp0
S'2011_44'
p1
(lp2
S'obamas financial fraud task force website link long scary list many kinds fraud'
p3
aS'nonprofit embezzlement principal private relig school accused stealing 100k less years'
p4
asS'2011_19'
p5
(lp6
S'know anyone looking house rent central brevard east coast please share link'
p7
asS'2011_18'
p8
(lp9
S'school booster club treasurer steals club requiring periodic audits ensure proper checks balances'
p10
aS''
p11
aS'issue daily chronicle philanthropy included three different nonprofit embezzlement cases kind'
p12
asS'2012_49'
p13
(lp14
S'news bookkeeper teacher gets jail embezzling 152k church period 8yrs'
p15
aS'nonprofs shouldnt wait leave discover embezzlemt every deserves internal control review'
p16
asS'2011_52'
p17
(lp18
S'bestbuy itunesapp gift card codes sale offwhat deal incl instant deliv'
p19
asS'2011_51'
p20
(lp21
S'fraud specialize embezzlement prevention detection dont fraud waste abuse ruin business favorite church'
p22
aS'watching live webinar white house womens entrepreneurship'
p23
asS'2011_45'
p24
(lp25
S'international fraud awareness week shining spotlight urgent problem'
p26
aS'great summary embezzlement news stories posted daily unfortunately blog'
p27
asS'2012_45'
p28
(lp29
S'110712 church preschool teacher accused embezzling lutheran church castlerock'
p30
aS'good reminder churches need risk mngmt 11712 church preschool teacher accused embezzling'
p31
aS'read dirty dozen credit union embezzlements history embezzlement fraud whitec'
p32
asS'2012_46'
p33
(lp34
S'news story reminds nonprofits must controls cash also inventory'
p35
asS'2009_27'
p36
(lp37
S'finally seems like mainstream jumping twitter brc60 local agency need flock bandwagon leverage tweets'
p38
asS'2011_16'
p39
(lp40
S'first award whistleblower program worth'
p41
aS'caat data mining idea offers much value clients acctg infotech skills perfect'
p42
asS'2011_15'
p43
(lp44
S'awesome wall street journal article referencing many real life embezzlement news stories ranging 250k'
p45
aS'great resource nonprofit ideas fraud prevention sample policies tips news storiesexamples'
p46
aS'another fascinating article financial inappropriateness properly monitored wellknown'
p47
asS'2011_14'
p48
(lp49
S'board member nonprofit article great reminder fiduciary responsibility'
p50
asS'2013_25'
p51
(lp52
S'longer living rock totally loving statsstories book lean watch'
p53
asS'2011_7'
p54
(lp55
S'professional volunteer embezzler commonly recruited treas steals 3times nonprofit'
p56
aS'unbelievable professional volunteer embezzler agoto treasurer conn community steals times nonprofit'
p57
aS'launches next week using glory sts133 tweets countdown feel free follow along'
p58
aS'congrats mark malek winning lead brevards 4under40 award'
p59
aS'classic embezzlemt story 10yr like family spent 400k bsns tanning nails toys 33mo'
p60
asS'2012_29'
p61
(lp62
S'performing data mining valuable services company really know whether make duplicate payments help'
p63
asS'2011_4'
p64
(lp65
S'love article reality embezzlement nonprofits'
p66
asS'2012_25'
p67
(lp68
S'last fraudconf chetherington providing insightful tips using social media track research fraudstersawesome teacher course'
p69
aS'extravagant embezzlement dealership stolen undetected transfers serve 78mo jail'
p70
aS'seen movie theinformant matt damon fraudconf learning fraudster mind works real mark featured embezzler movie'
p71
aS'unfortunate bsns owners always focus disbursmt fraud revenue fraud much easier hide fraudconf revenue likely never'
p72
aS'bsns owners using cash registers must ensure cant accessmodify journal records could used later provide evidence fraudconf'
p73
aS'attending notch report writing class fwisehart acfe fraudconf truly appreciate crossref professional standards spot\xe2\x80\xa6'
p74
aS'notch report writing class fwisehart fraudconf love crossref standards spot reallife lessons learned boastful'
p75
aS'rocket launch east coast always watch 15mi sure good view acfe visitors fraudconf'
p76
aS'pamela mayer author liespotting giving awesome keynote lecture lieing fraudconf'
p77
aS'fascinatingwhatifscenarios items considered countries amptrue foreign bribery fcparisksgreat info yarmarkscarboro fraudconf'
p78
aS'thoughtprovokg fair hiring deals wthe idea crim offense shldnt disallow sum1 ever havg jobshld still evry1 fraudconf'
p79
aS'profsr proven tries embellish applicatn likely within dutiesfraud lrosen fraudconf'
p80
aS'great tipas fraud examiners shld find enuf strong evidence whistlblowrs donot exposedduring investigativ tech fraudconf'
p81
aS'learning ofacaml regs fines extends well beyond fincl services industry shld minds auditors fraudconf'
p82
aS'jachristopher kickbacks fraudconf watchout4 blanket ghosttermvaca showup vendor invoicesdont asume vend bill real'
p83
aS'jwells fraudconf sayin healthcare fraud emergingim getting superbly prepared tmays awesomesession coding'
p84
aS'fraudconf suggestsshld clinical paranoia effectv fraudfighters takerecent scandals smart scammers tell'
p85
asS'2012_24'
p86
(lp87
S'fraudconf pleasantly surprised able2 thruout prosecutors presentn shld normaly material legal info'
p88
aS'client lookg prosecute embezzlemt session fraudconf relevnt creating effectiv prod courtrm'
p89
asS'2013_28'
p90
(lp91
S'iiaic agree panelist challenge internal auditors audit skills focus auditors staff'
p92
aS'iiaic panelist preaches avoidthechalk risk mngmt strategyplay well within linesteach avoid grey area bsns game'
p93
aS'iiaic conf panelists declarewar talent specialized skillsets internal audit want excelchallenge learn'
p94
aS'iiaic loving colored lanyard strings badge industry audit conf lookout fellow turquoise higher'
p95
aS'iiaic audit conf started learning 100s provisions doddfrank actreactionary result 2008 financial crisis'
p96
aS'ready kick iias 2013 international conference orlando 2000 attendees countries'
p97
asS'2013_29'
p98
(lp99
S'iiaic great reminder whistleblowers still viewed negative lighteven know value calling fraud'
p100
aS'iiaic best session highimpact continuous monitoringevery auditor must review jmcgill slides integrate data analytics'
p101
aS'iiaic learning situation people throughout world admit paid bribekickback'
p102
aS'proud influential thought leaders value audit profession internalaudit coolest profession world iiaic'
p103
aS'iiaic tpetersglad promoting value hiring small bsns bcuz theyre likely innovate much efficient better value'
p104
aS'iiaic danderson relentlessly foster ongoing working relationships potential auditees lessen resistance findings recommendations'
p105
aS'iiaic dandersonauditors must understand resistence root cause facts wrongdisagree severitydesire avoid risk tolernc'
p106
aS'iiaic danderson culture important especially challenging topic audit'
p107
aS'internal auditors tell truth nothing truth tends make indispensable unpopular madelin\xe2\x80\xa6'
p108
aS'iiaic listening madeleine albright conf amazingly witty well spoken woman admire humor service country'
p109
asS'2013_5'
p110
(lp111
S'proud services fill nitch grassroots nonprofits help small orgs obtain affordable independent reviews finan\xe2\x80\xa6'
p112
asS'2013_4'
p113
(lp114
S'any1 experience using fuzzy lookup exceladdin idea software fuzzy matching perhaps free alternative'
p115
asS'2011_8'
p116
(lp117
S'heat news announce expansion medicare fraud strike force operations include chicago dallas'
p118
aS'clocks counting hours discovery\xe2\x80\x99s astronauts boarded astrovan launch'
p119
asS'2011_42'
p120
(lp121
S'companies process large volumes payments mechanism reimb pcard comp credit cards seriously cons\xe2\x80\xa6'
p122
asS'2011_9'
p123
(lp124
S'heres recent news story proof church embezzlement real tragedy affecting religious communities'
p125
aS'church regularly undergo audit tend find cost fullfledged audit expensive church budgets howe\xe2\x80\xa6'
p126
asS'2013_2'
p127
(lp128
S'next week 17th idea data mining users group downtown orlando join thoughtprovoking conversation better'
p129
asS'2012_30'
p130
(lp131
S'extravagant spender embezzler used company funds homes cars private'
p132
asS'2013_8'
p133
(lp134
S'audit committee blame defects internal audit'
p135
asS'2011_5'
p136
(lp137
S'stealing church funds abuse trust criminal offense'
p138
asS'2012_22'
p139
(lp140
S'brevard homeowner assoc treas embezzles'
p141
aS'jersey woman charged embezzling 186k healthcare nonprofit embezzlement fraud forgery'
p142
aS'massachusetts woman accused embezzling 200k real estate trust accounts embezzlement'
p143
asS'2011_22'
p144
(lp145
S'home still available rent bath rockledge 1808 lt2min 20min beach'
p146
aS'sts134 endeavour track 235a landing gulf mexico cross florida coast near fort myer'
p147
asS'2011_13'
p148
(lp149
S'prev post interestg article sadly common occurance embezzlmt parent teach kids school'
p150
ag11
asS'2011_21'
p151
(lp152
S'link nonprofit embezzlement news story victims pregnant women poor children'
p153
aS'52411 headline branch well known national charity experiences huge embezzlement 435k sharing'
p154
asS'2012_8'
p155
(lp156
S'florida woman pleads guilty embezzling 131k nonprofit housing concern embezzlement embezzle'
p157
aS'connecticut woman charged embezzling 482k cross embezzle embezzlement'
p158
aS'former office manager religious school charged embezzling 103k embezzlement embezzle'
p159
aS'former pastor sentenced embezzling nearly 254k church embezzlement embezzle'
p160
aS'former executive director californiabased charity accused embezzling 133k embezz'
p161
aS'companies implement modern technology replace antiquated manual techniques monitor compliance look financial anomalies\xe2\x80\xa6'
p162
aS'used idea software build automated scripts import files different kinds exact'
p163
asS'2011_27'
p164
(lp165
S'characters isnt enough follow official sts135 launch blog online'
p166
aS'leaders illinois professional association steal 500k nonprofit used pymts personal'
p167
asS'2009_47'
p168
(lp169
S'treasurer embezzles virginia neighborhood'
p170
asS'2012_4'
p171
(lp172
S'medicare fraud strike force theres gotta ideaacl datamining skills make help govt'
p173
aS'another familiar fraud story last week'
p174
asS'2012_5'
p175
(lp176
S'2012 woman embezzles church'
p177
asS'2012_6'
p178
(lp179
S'brevard embezzlement news story office manager accused stealing 8000 palm business lesson'
p180
asS'2012_7'
p181
(lp182
S'feds recover healthcare fraudif doubt pervasiveness penetration fraud societyread scary'
p183
asS'2009_32'
p184
(lp185
S'attending womens expo florida tech'
p186
asS'2012_3'
p187
(lp188
S'another forbes article reminding embezzlement rampant know business owner involved'
p189
aS'perfect summary status contractor status local atty kinberg'
p190
asS'2012_16'
p191
(lp192
S'ughcant believe missed 2see discov shuttle last time logged n2twitter hours earlier remind'
p193
aS'ov103 discovery given ferry flight kennedy space center washington watch skies'
p194
aS'looking forward next week attending leadership conference chapter president east space coast iialeadership12'
p195
asS'2012_17'
p196
(lp197
S'marston giving hilarious view generational differences iialeadership12'
p198
asS'2012_15'
p199
(lp200
S'local chapter meeting east coast 2hrs'
p201
aS'request follow gladly approve happy weekend'
p202
aS'unfortunately common news story appears weeks news treasurer volunteer embezzles elem school group help'
p203
aS'payroll clerk manufacturing company embezzles 879k fascinating fraud went undetected'
p204
asS'2012_12'
p205
(lp206
S'upsetting news story 31612 police officer pleads guilty embezzling memorial fund children'
p207
asS'2012_13'
p208
(lp209
S'read yesterdays california nonprofit embezzlement news story'
p210
aS'read todays tennessee nonprofit embezzlement story'
p211
aS'nonprofit embezzlement stories common practically every 330tn couple steals 730k museum assoc 329ca woman'
p212
aS'featured speaker upcoming contineduc event data mining fraud local chapter meeting east coast'
p213
asS'2012_10'
p214
(lp215
S'beware bsns ownerschecks intended company canbe cashed personally employees dont naively assume catch'
p216
aS'3712 texas woman admits stealing rent payments real estate company'
p217
aS'probes spending charity provides shoes charity founder potential funds misuse'
p218
aS'founders nonprofits often accused spending orgs money instead mission embezzlement classic'
p219
asS'2012_11'
p220
(lp221
S'shock chronic sufferer antibiotics deemed effective sinus infectionsthk goodness 4acupunctur'
p222
aS'former california sheriffs deputy accused embezzling 300k enforcement association'
p223
aS'fraud scheme good reminder cash collection receipt controls continuously monitored'
p224
asS'2010_46'
p225
(lp226
S'instances nonprof embezzlement mich town article link reminder volunteer memb play critical'
p227
asS'2012_50'
p228
(lp229
S'step back holiday season give really need lets help spacecoast reach goal donatetoday'
p230
aS'look outside brevard spacecoast rocket launch 10min 103pm atlasv'
p231
asS'2012_51'
p232
(lp233
S'gunsinamerica people want everything 2prevent massacre children livin greatest country world'
p234
aS'thank persistently asking basic questions must answered logical reason semiauto guns'
p235
asS'2009_52'
p236
(lp237
S'msnbc articlerecession lack safeguards heighten embezzlement risk little nonprofitsread'
p238
asS'2011_49'
p239
(lp240
S'gorillas 4923 pitt state headed florence play national championship'
p241
aS'bama bound baby'
p242
aS'know late awesome would pittstate trending tonight lets'
p243
asS'2009_36'
p244
(lp245
S'upsetting nonprofit embezzlement cases read spending 462k instead neglected kids'
p246
asS'2010_40'
p247
(lp248
S'rockledge home available rent 1375mo 4bed 2bath 1808sq large fenced yard autosprinkler well'
p249
asS'2009_16'
p250
(lp251
S'wondering adrs book twitter maybe check adrs function doesnt actually work'
p252
asS'2012_18'
p253
(lp254
S'many things learned tonight lba2012 realized must unprotect tweets want actually true fxly hashes'
p255
aS'lba2012 thanks community foundation brevard supporting social brevard access 2012'
p256
aS'discussing young professionals become involved paul hanson suggested council'
p257
aS'lba2012 carol craig loves brevard county'
p258
aS'lba2012 started excited sitting paul hanson linda weatherman always economic brevard'
p259
asS'2013_17'
p260
(lp261
S'iialeadership13 soliticing awarding student scholarships membership internal auditor professional assoc winwinwin'
p262
aS'iialeadership13 internal auditors must courage bring proper transparency ethical probs within orgs'
p263
aS'internal auditors need know beans grown harvested marketed count'
p264
aS'iialeadership13 glad focus areas datamining audit skills sought internal auditors'
p265
aS'fedreserve requires written internalaudit reports some1 besides reminder profession must remain focused independe\xe2\x80\xa6'
p266
aS'learning started iialeadership13 excited ideas great perspective always interesting'
p267
asS'2013_30'
p268
(lp269
S'noticed amazons price today sandbergs amazing book lean womenwork lead'
p270
asS'2010_43'
p271
(lp272
S'grateful present tomr cocoa beach chamber local nonprofits avoiding devastating embezzlement effects fast fact\xe2\x80\xa6'
p273
asS'2013_18'
p274
(lp275
S'staytuned topics enjoying present chapter iialeadership13'
p276
aS'iialeadership13 coming full circlepaul sobelwhom univ student viaiia acadrelationsgives keynote chapter ofcrs like'
p277
asS'2013_16'
p278
(lp279
S'captured hunt search done terror justice suspect custody'
p280
aS'brevard news300k embezzlement regular internal controls critical victim prosecute'
p281
asS'2012_19'
p282
(lp283
S'bcontosmalwareif computr suddnly starts running fasterwatch bcuz obviously hackers want botnet machine efficient nacacs'
p284
aS'nacacs speaker dont continuous auditing completely irrelevant short period'
p285
aS'download copy acfes 2012 report nations rttn'
p286
aS'fascintng full itauditors still many companies havnt implemented audit software toolsideaaclwhy nacacs'
p287
aS'learning scary hacking risks related unmonitored connections auditg certs internal audit plans nacacs'
p288
aS'excited start 3days learning audit conference universal orlando nacacs'
p289
aS'woman embezzles 162k nonprofit halfway house time stealing nonprofit'
p290
asS'2009_43'
p291
(lp292
S'local embezzelment story stolen daytona bsns months discovered employee resigned read'
p293
asS'2013_39'
p294
(lp295
S'learned much kurek last acua2013 session higher auditors must review slides analyzing data\xe2\x80\xa6'
p296
aS'great session enrollment mngmt recruiting admissions acua2013 much appreciate practical info banner'
p297
aS'auditors must ensure employees clearly know limits authority must know regularly monitored tgolden acua2013'
p298
aS'best fraud detection perception wrongdoers caught punished tgolden acua13 fear powerful'
p299
aS'must pretend skeptical some1 whos traumatized fraud acua2013 dont victims lessons learned wayside'
p300
aS'shot auditors inside story scandal acua2013'
p301
aS'acua2013 excited beautiful norfolk kicking audit conf ethical quiz presentation weinstein'
p302
asS'2012_37'
p303
(lp304
S'preparing presentation data mining crazy presentation info'
p305
aS'truly enjoyed speaker yesterday central internal auditors chapter meeting another'
p306
aS'happy quoted tips entrepreneurs feature months space coast business'
p307
asS'2010_29'
p308
(lp309
S'according 22000 people charged embezzlement year prevent implement internal controls surprise audits'
p310
asS'2011_35'
p311
(lp312
S'featured article paper brevard mothers blend work family life florida today floridatodaycom'
p313
asS'2011_34'
p314
(lp315
S'charity cofounder embezzles 300k save torah spent nonprofit funds private school meals'
p316
asS'2011_36'
p317
(lp318
S'doctor allegedly billed medicare female patients mens procedure'
p319
aS'completed launch readiness review tomorrows delta grail launch instantaneous windows 83706'
p320
aS'tropical storm nate intermediate advisory issued nate almost stationary campeche'
p321
aS'fraud conf sorry delay orlando next'
p322
asS'2012_34'
p323
(lp324
S'heres reminder nonprofits must tight process issuing receipts beyond compliance'
p325
asS'2010_42'
p326
(lp327
S'familyowned bsns emotionally devastated embezzlement perfect bookkeeper great article read'
p328
aS'1808sq home rent central brevard country east coast rockledgeviera 1299mo large'
p329
asS'2011_32'
p330
(lp331
S'precisely recommend part bank recon process transfersach large'
p332
aS'news link another tragic example rogue employee properly monitored nearly bankrupting'
p333
asS'2013_19'
p334
(lp335
S'want assume feelgood social service nonprofits donate right thing many examples'
p336
asS'2010_33'
p337
(lp338
S'local embezzlement daytona appliance store taken halfmillion trusted employee read'
p339
asS'2010_30'
p340
(lp341
S'heads youth sports leaguesembezzlement hard mngr gets 2yrs prison 4stealing 934k kids hockey'
p342
aS'info learned acfe confrnc week provided invaluable insight fraud prevention inspired enterpreneur bsns woma\xe2\x80\xa6'
p343
asS'2010_31'
p344
(lp345
S'using learned college codewriting classes blast past helpful writing scripts automate data mining'
p346
asS'2011_39'
p347
(lp348
S'600k stolen 3people church read'
p349
asS'2010_34'
p350
(lp351
S'newswire news aggregation service private investigators attorneys forensic financial professionals'
p352
asS'2012_39'
p353
(lp354
S'presidential awarded philanthropist accused stealing 550000 hunger charity founded'
p355
as.