(dp0
S'2013_42'
p1
(lp2
S'need parents help november school race education event'
p3
aS'nice sonic busy still last night loved staff made extra effort promote'
p4
aS'take wednesday night cooking head sonic belvidere meehan chefs night tomorrow'
p5
aS'reminder collecting product fundraising boxtopscampbell soupcoke rewards week'
p6
asS'2013_43'
p7
(lp8
S'excited today received 14500 race education already anything'
p9
aS'received firm times races education 800900 9151015 1245145 would'
p10
asS'2013_40'
p11
(lp12
S'looking volunteers help hearing vision test october 10th 11th wednesday'
p13
asS'2013_41'
p14
(lp15
S'reminder school store open tomorrow morning school starts lunch like'
p16
aS'race education fliers returned already considering mailed late last week'
p17
asS'2013_46'
p18
(lp19
S'school store open tomorrow morning front lobby items'
p20
aS'tonight november chefs night event head diyogurt treat dinner'
p21
aS'remember market orders tomorrow easiest dish bring pass holidays'
p22
asS'2013_31'
p23
(lp24
S'need volunteers help school supply drop august 12th please leave comment anyone able'
p25
asS'2013_44'
p26
(lp27
S'need babysitter meeting wednesday hour meeting starts basically need'
p28
aS'weather looks chilly tomorrow fingers crossed race education walk held outside'
p29
aS'thrilled announce reached goal race education morning made'
p30
asS'2013_45'
p31
(lp32
S'ooops sorry noted wrong time meeting babysitter request post still need babysitter'
p33
asS'2012_45'
p34
(lp35
S'remember market pick week next meeting tuesday november 13th'
p36
asS'2013_25'
p37
(lp38
S'time conference call wednesday june 26th meehan anyone interested'
p39
aS'hope everyone enjoying summer wonderful would fundraiser without catalogs'
p40
asS'2012_49'
p41
(lp42
S'know thanksgiving dinner missing texas roadhouse rolls dont happen next'
p43
asS'2013_4'
p44
(lp45
S'please remember turn volunteer forms scholastic book fair also remember family movie night'
p46
aS'remember head pizza tomorrow night chefs night dont even'
p47
asS'2013_6'
p48
(lp49
S'everyone tired shoveling snow join family movie night tonight'
p50
aS'reminder grade parents tshirt orders payment back friday february tshirts'
p51
asS'2013_2'
p52
(lp53
S'great turnout last night skateland looked like everyone plan'
p54
aS'meeting reminder tuesday january 15th please join discuss upcoming events open board'
p55
aS'doesnt remember going roller skating take children memory lane join'
p56
asS'2011_36'
p57
(lp58
S'meeting tuesday'
p59
aS'take minutes fill parent survey'
p60
aS'take minutes fill parent survey'
p61
asS'2012_33'
p62
(lp63
S'great open house tonight hard believe school starts days hopefully everyone chance'
p64
asS'2012_50'
p65
(lp66
S'picking last minute texas roadhouse orders monday distribution wednesday 19th'
p67
aS'ever wondered fuel tastes like sure miss barnes noble book fair'
p68
aS'dont forget return texas roadhouse order forms tomorrow payment roll butter vouchers'
p69
aS'dont forget shop bampn book fair friday 14th 300900 pick perfect gift book'
p70
asS'2013_11'
p71
(lp72
S'meeting reminder today school library babysitting available hope'
p73
asS'2013_36'
p74
(lp75
S'please sure like notfriend meehan elementary friend personal'
p76
aS'thank parents teachers attended meeting today long hopefully everyone'
p77
aS'first meeting tomorrow school library little longer normal'
p78
asS'2013_34'
p79
(lp80
S'busy week ahead curriculum week tuesday k2nd thursday 3rd5th nights start'
p81
asS'2013_33'
p82
(lp83
S'happy first school hope everyone fantastic morning getting kids'
p84
aS'thanks everyone helped tables today supply drop really appreciate parent volunteers'
p85
asS'2013_32'
p86
(lp87
S'mascot picture spirit wear order forms supply drop night year'
p88
asS'2013_17'
p89
(lp90
S'fantastic night frozen yogurt sure head diyogurt chefs night tonight 400800'
p91
aS'last chefs night event thursday diyogurt 400800 come support fantastic'
p92
asS'2012_34'
p93
(lp94
S'first meeting september 11th school library mark calendars'
p95
asS'2013_39'
p96
(lp97
S'thank thank thank fliers done cannot thank enough parents came'
p98
asS'2013_38'
p99
(lp100
S'sounds like might confusion needs done race education packets'
p101
asS'2013_37'
p102
(lp103
S'sure exciting bears game today fact tomorrow first chefs night'
p104
aS'happy friday everyone parents please look race education packets sent home today'
p105
asS'2011_35'
p106
(lp107
S'check website tinyurlcommespto100'
p108
asS'2011_34'
p109
(lp110
S'welcome back school parent information packets home youngest child family friday'
p111
asS'2011_37'
p112
(lp113
S'thanks joining share link parents'
p114
asS'2013_12'
p115
(lp116
S'school board voted close kiswaukee school monday meehan welcomes'
p117
aS'thank thank thank staff parents helped fair weekend thank'
p118
asS'2011_30'
p119
(lp120
S'website development plans running time school starts'
p121
asS'2013_15'
p122
(lp123
S'early reminder 20132014 board election meeting tuesday april 16th babysitting'
p124
asS'2011_38'
p125
(lp126
S'send tops campbell soup labels swiss valley farm bottle caps school envelope marked'
p127
as.