(dp0
S'2013_39'
p1
(lp2
S'question read answer'
p3
aS'posted photos facebook album southside office tour'
p4
asS'2013_24'
p5
(lp6
S'patients questions elastics decided post blog'
p7
aS'congratulations autumn alexa madison micah alex'
p8
aS'congratulations alexis guila stephanie zachary'
p9
aS'welcome madison allie audrey caleb eduardo'
p10
aS'welcome emily courtney jordan michelle megan'
p11
asS'2013_25'
p12
(lp13
S'weeks blog tips anyone orthodontic consultation check'
p14
aS'like office facebook page next visit show give extra stamp visit'
p15
asS'2013_26'
p16
(lp17
S'remember mindful types candies eating summer'
p18
asS'2013_27'
p19
(lp20
S'fourth july celebrations nearly doubt love celebrate anniversary'
p21
asS'2013_20'
p22
(lp23
S'week tips anyone orthodontic consultation scheduled read'
p24
aS'reminder active patients fathers soon approaching enter chance detail'
p25
aS'reminder active patients fathers soon approaching enter chance detail'
p26
aS'reminder active patients fathers soon approaching enter chance detail'
p27
aS'teacher appreciation week patients nominate favorite teacher'
p28
aS'luke north side office'
p29
aS'abigail south side office'
p30
aS'congratulations mothers contest winner jessica hope great enjoy'
p31
asS'2013_21'
p32
(lp33
S'like wish patients families happy safe memorial weekend also sure'
p34
asS'2013_22'
p35
(lp36
S'read blog lately every week update content sure check week'
p37
asS'2013_23'
p38
(lp39
S'june national smile month remember show beautiful smile check weekly blog posts'
p40
asS'2013_28'
p41
(lp42
S'looking straight smile without wear metal braces could benefit invisalign treatment'
p43
asS'2013_29'
p44
(lp45
S'proud offer invisalign teen popular choice straightening teeth without traditional wires'
p46
aS'truly appreciate every single review receive patients patient parents thank much'
p47
asS'2013_38'
p48
(lp49
S'invisalign invisible braces would give stunning smile without metal braces'
p50
asS'2012_16'
p51
(lp52
S'many parents assume must wait child permanent teeth visit office'
p53
aS'another awesome smile hilliard dietrich orthodontics congrats thomas'
p54
aS'thanks olivia'
p55
aS'next visit remember sign graffiti board'
p56
asS'2012_17'
p57
(lp58
S'know mobile site patients onthego matter are\xe2\x80\xa6work school traveling'
p59
asS'2012_14'
p60
(lp61
S'posted photo facebook'
p62
aS'posted photo facebook'
p63
aS'contest update prize another apple product place winners dont give'
p64
aS'hope youre great week know april marks oral cancer awareness month visiting'
p65
aS'happy monday know april marks oral cancer awareness month visiting dentist'
p66
asS'2012_15'
p67
(lp68
S'thanks amazing patients participation spring break contest truly'
p69
aS'votes likes counted confirmed thanks everyone participating winners'
p70
aS'contest officially ended votes likes count toward totals winners announced tomorrow'
p71
aS'contest ends pictures taken likesvotes counted winner announced tomorrow'
p72
aS'contest ends soon final push finish last votes'
p73
aS'spring current contact info invite please contact office'
p74
aS'tomorrow final spring break contest keep votes coming'
p75
asS'2012_12'
p76
(lp77
S'posted photo facebook'
p78
aS'posted photo facebook'
p79
aS'posted photo facebook'
p80
aS'posted photo facebook'
p81
aS'posted photo facebook'
p82
aS'posted photo facebook'
p83
aS'posted photo facebook'
p84
aS'posted photo facebook'
p85
aS'posted photo facebook'
p86
aS'posted photo facebook'
p87
aS'posted photo facebook'
p88
aS'posted photo facebook'
p89
aS'enjoyed vistors traviss great guys'
p90
aS'latest blog hilliard dietrich discussed importance wearing rubber bands'
p91
aS'latest blog hilliard dietrich discussed importance wearing rubber hands'
p92
asS'2012_13'
p93
(lp94
S'spring break ipad contest officially started votes'
p95
aS'posted photos facebook album spring break contest'
p96
aS'today last enter pictures please send contest'
p97
aS'saturday last enter spring break picture ipad contest hurry send'
p98
aS'know number adults getting braces climbed percent since 1996 visit hilliard'
p99
aS'days left enter pictures ipad contest dont miss chance'
p100
asS'2012_10'
p101
(lp102
S'nick braces teeth look great'
p103
aS'marisa braces today'
p104
aS'congrats olivia beautiful smile'
p105
asS'2012_11'
p106
(lp107
S'posted photo facebook'
p108
aS'posted photo facebook'
p109
aS'posted photo facebook'
p110
aS'contest update since apple officially announced release date latest ipad decided'
p111
asS'2012_18'
p112
(lp113
S'national teen selfesteem month time parents encouraged positive role'
p114
aS'posted photos facebook album'
p115
aS'dietrich tarver racing lakeland derby last weekend'
p116
asS'2012_19'
p117
(lp118
S'posted photos facebook album hilliard dietrich orthodontics celebration'
p119
aS'heres information expect first visit'
p120
aS'posted photos facebook album spring break contest'
p121
asS'2013_11'
p122
(lp123
S'know attractive smile puts spring step\xe2\x80\x94or two\xe2\x80\x94as well increases'
p124
aS'posted photos facebook album bandings january 2013'
p125
aS'posted photos facebook album debands january 2013'
p126
asS'2013_10'
p127
(lp128
S'reminder dont forget check website contest chance'
p129
aS'question hear time malocclusion thought would address latest blog'
p130
asS'2013_13'
p131
(lp132
S'proper mouth protection recommended team participate sports activities wear'
p133
aS'reminder patients send favorite recipe chance need recipe april 192013'
p134
aS'hope everyone wonderful weekend'
p135
aS'reminder wonderful patients'
p136
asS'2013_12'
p137
(lp138
S'wouldnt believe already springtime spring months however bring increase outdoor'
p139
aS'great time today traviss career center students dental assistant program came'
p140
aS'posted photo facebook'
p141
aS'joke killer whales braces orcadontist happy friday everyone'
p142
aS'congrats caleb tina hope reha matthew'
p143
aS'posted photos facebook album bandings february 2013'
p144
aS'welcome ryan tyler jackson'
p145
aS'countdown weeks florida cream festival hilliard dietrich'
p146
asS'2013_15'
p147
(lp148
S'checked blog recently take look week\xe2\x80\x99s post'
p149
aS'teacher appreciation week nominate favorite teacher next orthodontic visit'
p150
aS'posted photos facebook album cream festival 2013'
p151
asS'2013_14'
p152
(lp153
S'april also known national facial protection month upon team means thing'
p154
aS'dont forget come florida cream festival saturday april 10am7pm wear'
p155
asS'2013_17'
p156
(lp157
S'week\xe2\x80\x99s blog we\xe2\x80\x99ve together list oral facial symptoms could require orthodontic'
p158
aS'shelbys recipe'
p159
aS'jessicas recipe'
p160
aS'jadas recipe'
p161
aS'drawn three recipes chance mothers like favorite'
p162
asS'2013_16'
p163
(lp164
S'earth around corner monday team wanted share ways \xe2\x80\x9cthink green\xe2\x80\x9d check'
p165
aS'friday soon approaching dont forget send recipes'
p166
aS'thoughts prayers affected tragedy boston today'
p167
aS'posted photos facebook album debands march 2013'
p168
aS'posted photos facebook album bandings march 2013'
p169
aS'reminder last week recipes'
p170
asS'2013_19'
p171
(lp172
S'know many benefits braces straight teeth read weeks blog find'
p173
aS'congrats scott'
p174
aS'congrats brooklyn utah louis linette jordan katherine'
p175
aS'congrats whitney dylan nick daniel emily brooke'
p176
aS'congrats reid brinton mason mason shelby jacob'
p177
aS'posted photos facebook album bandings april 2013'
p178
aS'please help office 1000 likes page help staff weekend start liking'
p179
aS'hilliard dietrich orthodontics want wish moms happy mothers enjoy'
p180
aS'attention active patients fathers coming soon would like detail'
p181
asS'2013_18'
p182
(lp183
S'know national teen selfesteem month great improve teens selfesteem improve'
p184
asS'2013_5'
p185
(lp186
S'trust know quite myths braces days'
p187
asS'2013_4'
p188
(lp189
S''
p190
aS'questions always hear patients braces visit latest blog post'
p191
asS'2013_7'
p192
(lp193
S'excited announce official sponsers florida cream festival taking'
p194
aS'smiled today'
p195
aS'posted photo facebook'
p196
aS'anyone faith hill grammys sunday night anyone notice braces call consultation'
p197
aS'know february heart month read live healthy heartfriendly life blog'
p198
asS'2013_6'
p199
(lp200
S'posted photo facebook'
p201
aS'february national children\xe2\x80\x99s dental health month visit blog learn helpful tips keep mouth'
p202
asS'2013_1'
p203
(lp204
S'wishing prosperous healthy 2013 memorable 2012 looking'
p205
asS'2013_3'
p206
(lp207
S'you\xe2\x80\x99re undergoing orthodontic treatment brushing flossing every meal snack'
p208
asS'2013_2'
p209
(lp210
S'years season proving particularly nasty recovering cold'
p211
asS'2013_9'
p212
(lp213
S'latest blog 28\xe2\x80\x94are orthodontics right'
p214
asS'2013_8'
p215
(lp216
S'contests posted website would like mothers'
p217
aS'week write important orthodontic topics wellbeing including treatments proudly'
p218
asS'2012_38'
p219
(lp220
S'know every five orthodontic patients adult we\xe2\x80\x99re living longer technology improving'
p221
asS'2013_32'
p222
(lp223
S'reminder patients next friday last submit photos summer contest thank'
p224
aS'congrats brooke alyssa emily nick rychard'
p225
aS'congrats jaci camrin adam ashton lindsey'
p226
aS'congrats zachary dawson sydney amanda'
p227
aS'posted photos facebook album bandings july 2013'
p228
aS'congrats jacob rachel emma alexis ariel emily'
p229
aS'congrats nisha griffin austin kelsey adeline alexa'
p230
aS'congrats trenton megan hannah taylor tori mackenzie'
p231
aS'welcome symphonee cole jadyn stefanie'
p232
aS'welcome chris shane donovan'
p233
aS'ever wondered invisalign treatment like check blog find'
p234
asS'2012_49'
p235
(lp236
S'know direct correlation bite overall health visit blog learn'
p237
aS'posted photo facebook'
p238
aS'contest current patient next time treatment check'
p239
aS'contest current patient next time treatment check'
p240
asS'2012_48'
p241
(lp242
S'planning improve health happiness 2013 resolution attain'
p243
asS'2012_45'
p244
(lp245
S'start wearing retainer visit latest blog post'
p246
aS'posted photo facebook'
p247
asS'2012_44'
p248
(lp249
S'team knows hard resist great halloween candy unfortunately candies'
p250
aS'happy halloween dressing today'
p251
aS'hilliard dietrich orthodontics hope everyone safe halloween'
p252
asS'2012_47'
p253
(lp254
S'thanksgiving quickly approaching would like take moment express thankful'
p255
asS'2012_46'
p256
(lp257
S'true braces arent kids anymore fact adults realizing benefits'
p258
asS'2012_41'
p259
(lp260
S'posted photos facebook album'
p261
asS'2012_40'
p262
(lp263
S'happy october don\xe2\x80\x99t know national orthodontic health month check blog find'
p264
asS'2012_43'
p265
(lp266
S'team found facts toothbrushes thought share much know'
p267
asS'2012_42'
p268
(lp269
S'posted photos facebook album'
p270
aS'instagram follow hilliarddietrich next contest info announced soon'
p271
aS'posted photo facebook'
p272
aS'sure sleep well wash hands frequently dont catch cold season check blog'
p273
aS'posted photo facebook'
p274
asS'2011_52'
p275
(lp276
S'2011 coming close friends hilliard dietrich orthodontics would like wish yall safe happy healthy newyear'
p277
aS'tweet fact nearly million people orthodontic treatment throughout younger cool'
p278
asS'2012_9'
p279
(lp280
S'congrats alaina good getting braces today'
p281
aS'contest enter chance winning ipad2 want invite everyone patient'
p282
aS'congrats hannah getting braces today'
p283
aS'congrats sarah great smile'
p284
asS'2012_5'
p285
(lp286
S'\xe2\x80\x9ceverytime smile someone action love gift person beautiful thing\xe2\x80\x9d mother teresa'
p287
aS'educate kids good oral hygiene colgate\xc2\xae kids tooth games activities'
p288
aS'takes muscles smile fortythree frown\xe2\x80\x9d unknown'
p289
asS'2012_6'
p290
(lp291
S'\xe2\x80\x9cstart every smile with\xe2\x80\x9d fields'
p292
asS'2012_7'
p293
(lp294
S'website running check'
p295
aS'congrats hunter getting braces today'
p296
aS'congrats steven getting braces today'
p297
aS'today celebrate love affection smile valentine'
p298
aS'congrats kaylea getting braces today'
p299
asS'2012_1'
p300
(lp301
S'great snack trying little healthier year granola bars'
p302
aS'know ortho patients adults braces kids invisalign great alternative braces'
p303
aS'know children orthodontist make treatment later life easier less time consuming'
p304
asS'2012_2'
p305
(lp306
S'thanks everyone making years office retreat much looking forward awesome 2012'
p307
aS'posted photo facebook'
p308
aS'strike'
p309
aS'someone pins'
p310
aS'danita means business'
p311
aS'office serious bowling champions hope guys ready pictures coming soon happy friday'
p312
aS'facebook page'
p313
aS'home remedies sensitive teeth'
p314
asS'2012_3'
p315
(lp316
S'crew business hours'
p317
aS'according research milk milk products good dental health much milk'
p318
aS'laugh smile bursts\xe2\x80\x9d mary waldrip great quote'
p319
asS'2012_52'
p320
(lp321
S'inoffice contest wrapping next week make sure arrive'
p322
aS'millions patients undergoing orthodontic treatment smiling holiday season'
p323
asS'2012_50'
p324
(lp325
S'2013 almost great time year started lifetime straight dazzling'
p326
asS'2012_51'
p327
(lp328
S'happy holidays family tradition favorite time year'
p329
asS'2013_42'
p330
(lp331
S'happy safe weekend'
p332
aS'invisalign give perfect smile without brackets wires read learn invisalign'
p333
aS'provide orthodontic treatment know precision counts ways make patients\xe2\x80\x99 lives'
p334
asS'2013_43'
p335
(lp336
S'know benefits orthodontic treatment straight teeth'
p337
asS'2013_40'
p338
(lp339
S'read good book recently know comments'
p340
asS'2013_41'
p341
(lp342
S'great tips patients currently wearing invisalign invisible braces'
p343
aS'posted photo facebook'
p344
asS'2013_46'
p345
(lp346
S'weeks blog weve created helpful list expect orthodontic treatment'
p347
aS'unused funds left flexible spending insurance benefits health savings account'
p348
aS'happy veterans brave women united states armed forces'
p349
asS'2013_47'
p350
(lp351
S'happens orthodontic emergency vacation'
p352
aS'hear question office check weeks blog answer'
p353
aS'team proud offer patients cadent digital impression system digitally captures'
p354
asS'2013_44'
p355
(lp356
S'safe halloween tonight know halloween candy make sure brush'
p357
asS'2013_45'
p358
(lp359
S'happy fall everyone'
p360
aS'know orthodontic emergency vacation check weeks blog find'
p361
aS'check estimation station every month youll chance guess amount candy thats'
p362
aS'team proud offer indirect method positioning braces properly teeth ultimately'
p363
asS'2012_29'
p364
(lp365
S'summer contest office check rules website'
p366
aS'smile happiness youll find right nose wilson'
p367
aS'check website information newest office contest'
p368
aS'team knows keeping teeth clean important ever braces'
p369
aS'posted photos facebook album'
p370
asS'2012_28'
p371
(lp372
S'congrats getting braces'
p373
aS'team knows nobody likes getting plaque teeth weve posted five ways avoid dreaded'
p374
asS'2012_27'
p375
(lp376
S'hard believe july already half 2012 already passed july approaches'
p377
asS'2012_26'
p378
(lp379
S'summer check latest blog delicious watermelon sorbet summer treat'
p380
asS'2012_25'
p381
(lp382
S'prepared orthodontic emergency check today\xe2\x80\x99s blog great solutions common'
p383
asS'2012_24'
p384
(lp385
S'orthodontics easier today ever advanced technology modern techniques give call'
p386
asS'2012_23'
p387
(lp388
S'honor june dairy month team would like thank hard working families dairy industry'
p389
aS'ayla braces today enjoy smile ayla'
p390
aS'posted photos facebook album'
p391
asS'2012_22'
p392
(lp393
S'summer weeks away means season full vacations adventures great memories around'
p394
aS'ashton great patients'
p395
asS'2012_21'
p396
(lp397
S'memorial weekend whether headed barbecue camping trip'
p398
asS'2012_20'
p399
(lp400
S'adult patient recognize different needs younger patients work'
p401
asS'2013_37'
p402
(lp403
S'feel almost anyone benefit invisalign treatment'
p404
aS'good brushing every time come appointments excellent oral hygiene'
p405
asS'2013_36'
p406
(lp407
S'know september national childhood injury prevention month remember protect braces'
p408
asS'2013_35'
p409
(lp410
S'wish everyone happy safe labor weekend'
p411
aS'like wish patients happy safe labor weekend'
p412
aS'come help celebrate kick week complimentary dogs drinks 25pm today south'
p413
aS'dont forget today south side office tomorrow north side office football'
p414
asS'2013_34'
p415
(lp416
S'invisalign give perfect smile without metal wires brackets check blog learn'
p417
aS'come help celebrate kick week next week going complimentary dogs drinks'
p418
aS'attention active patients kicking football season contest want guess'
p419
aS'posted photo facebook'
p420
aS'kicking football season contest want guess favorite football teams'
p421
aS'thank submitting photos enjoyed hearing summer'
p422
aS'pictures submitted summer contest thank much'
p423
aS'congrats joshua winner strangest category'
p424
aS'congrats winner ryan funniest category'
p425
aS'congratulations summer contest winner cortnie farthest away category hope great'
p426
aS'congratulations summer contest winner camryn creative category'
p427
aS'congratulations summer contest winner josh mayo category community servicevoluntary work'
p428
asS'2013_33'
p429
(lp430
S'hyperdontia check blog find'
p431
asS'2012_39'
p432
(lp433
S'braces you\xe2\x80\x99re probably wondering can\xe2\x80\x99t popcorn delicious'
p434
aS'braces you\xe2\x80\x99re probably wondering can\xe2\x80\x99t popcorn delicious'
p435
aS'braces you\xe2\x80\x99re probably wondering can\xe2\x80\x99t popcorn delicious'
p436
aS'braces you\xe2\x80\x99re probably wondering can\xe2\x80\x99t popcorn delicious'
p437
aS'braces you\xe2\x80\x99re probably wondering can\xe2\x80\x99t popcorn delicious'
p438
asS'2013_31'
p439
(lp440
S'congratulations jolie getting braces enjoy beautiful smile thank'
p441
aS'hope enjoyed summer vacation time back school check blog'
p442
aS'reminder patients traveling tshirt contest photos need friday august 16th 2013'
p443
asS'2013_30'
p444
(lp445
S'know existing misconceptions orthodontics thought address'
p446
aS'ortho office next appointment'
p447
aS'wishing dietrich happy birthday today'
p448
asS'2012_34'
p449
(lp450
S'preventing tooth decay challenge simply tendency braces trap food'
p451
asS'2012_35'
p452
(lp453
S'orthodontic treatments used correct malocclusion condition commonly known bite'
p454
asS'2012_36'
p455
(lp456
S'thinking orthodontic treatment straighten teeth correct alignment consider making'
p457
asS'2012_37'
p458
(lp459
S'qadcaaakc wacsxaxa sssss aazx'
p460
aS'orthodontic treatments vary dental treatment primarily address malocclusions spacing'
p461
aS'love hearing patients especially happy treatment outcome excited'
p462
asS'2012_30'
p463
(lp464
S'wondering invisalign treatment really like effect daytoday'
p465
asS'2012_31'
p466
(lp467
S'children adults visit orthodontists often feel confused little frightened various'
p468
aS'posted photo facebook'
p469
aS'clinical staff hilliard dietrich orthodontics'
p470
asS'2012_32'
p471
(lp472
S'silly video brighten weekend'
p473
aS'visibly crooked teeth reason take child orthodontist subtle'
p474
asS'2012_33'
p475
(lp476
S'parents know routine dental care begin toddler years many unaware'
p477
as.