(dp0
S'2012_49'
p1
(lp2
S'jamie like hopeless romantic romantic dreamy gone'
p3
aS'suduko'
p4
aS'book christmas list hopefully kids'
p5
aS'watching factor final'
p6
aS'simon watching factor final fantastic miss xxxx please make retweet'
p7
aS'loved duet maloney'
p8
aS'lovely seeing spending time strictly wish still share precious times'
p9
aS'brother giving person know loves hobbit could please send signed memorabilla'
p10
aS'feel country shud start looking families starving heating nothing children xmas wrong'
p11
aS'saying wants book said give address send could made please'
p12
aS'howard random daughter lianne charity night leeds restaurant telling'
p13
aS'buff coloured label fashioned looking think label going find'
p14
aS'domingo katherine jenkins royal variety message tenors classical preformance'
p15
aS'watching fine please'
p16
asS'2012_48'
p17
(lp18
S'love song jahmene last'
p19
aS'joking pleased supporter house full lpool supporters love talk tactics'
p20
aS'december already dont know year gone'
p21
aS'watched celeb pity last towie without lauren'
p22
aS'news voice show'
p23
aS'emmett think gorg love accent scousers keep candy hollyoaks make'
p24
asS'2012_45'
p25
(lp26
S'credit obese tough proper'
p27
aS'ross kemp real credit actor actively helps soldiers still grant'
p28
aS'loved tonight funny usual'
p29
aS'congratulations obama supporter liverpool england hooray'
p30
aS'brighten thankyou'
p31
aS'info please holidaying france last 3yrs love'
p32
asS'2012_44'
p33
(lp34
S'happy birthday monsieur'
p35
aS'brillio taste good candy'
p36
aS'nite nite towey without hope doin well'
p37
aS'loves christmas'
p38
asS'2012_47'
p39
(lp40
S'love always think others love telly really cheer please retweet make smile'
p41
aS'agree easier fights feel ring back months first mind shape'
p42
aS'agree feel took lesser fight first back gutted feel'
p43
aS'really well hold head pride come back personal probs well'
p44
aS'poor ricky heart goes poor girl hating'
p45
aS'watching hatton fight come ricky'
p46
aS'lucky ring side seats kids atmosphere'
p47
aS'need good wine france grenache shiraz grape lovely'
p48
asS'2012_46'
p49
(lp50
S'wish would another duet love shame'
p51
aS'cant wait love putting christmas decs going treat christmas snowglobe weather miserable'
p52
aS'soir vincent thailand warmer'
p53
aS'karl pilkington funny watchin idiot abroad 1amp2 prepare cant wait bedtime thinks'
p54
aS'curious goina star wars films darth vader dead'
p55
aS'part newcastle posh jokin sure lovely newcastle prob doin better liverpool'
p56
aS'love france ambition live maybe provence nice village loved paris trying learn french'
p57
aS'matt goina check book kindle wales part beautiful parts wales liverpool lass'
p58
aS'great time scousers parrttyyy goin'
p59
aS'heard walker tyne nice liverpool lass bigggg stars wars buff love'
p60
asS'2012_41'
p61
(lp62
S''
p63
asS'2012_40'
p64
(lp65
S'happy birthday simon birthday today'
p66
asS'2012_43'
p67
(lp68
S'robbie love seeing shows'
p69
aS'watch itv1 morning'
p70
asS'2012_42'
p71
(lp72
S'fannttaasssttiiccc'
p73
aS'think gentleman'
p74
asS'2012_34'
p75
(lp76
S'grrr tablet wont recognise connect kindle books'
p77
aS'surannejones gorgeous dress wore ross show amazing'
p78
asS'2013_22'
p79
(lp80
S'love good simon hope never'
p81
asS'2012_24'
p82
(lp83
S'count sheep'
p84
asS'2012_23'
p85
(lp86
S'robbie fantastic always knife brill robbies back town'
p87
aS'heard jubilee address queen tell brought tear lovely thankyou'
p88
asS'2012_22'
p89
(lp90
S'lovin voice judges singing'
p91
aS'give hello tweet please'
p92
aS'full energy rock'
p93
aS'loved leanne voice'
p94
aS'well done last nite'
p95
asS'2012_21'
p96
(lp97
S'good luck sunday ever score good cause hello tweet pllleeeaassseee xxxx'
p98
aS'hello president please retweet hello proud punch'
p99
aS'hello please tweet back'
p100
aS'shark steaks'
p101
aS'scene girl told'
p102
aS'liverpools factor gary'
p103
aS'karen doin'
p104
asS'2012_20'
p105
(lp106
S'congrats comin back tans doin well enjoy seein back stop stressin shape look great nite'
p107
aS'emma proud'
p108
aS'paris august plan visit artist square loved'
p109
aS'loved styling sorry'
p110
aS'phil holly make smile thankyou'
p111
asS'2013_5'
p112
(lp113
S'ping pong anyday roll series congrats award xxxx'
p114
aS'late prob still partying still counts happy birthday lovin badge fitty'
p115
aS'mick awake booo shud nights paid bein awake well back counting sheep'
p116
aS'leavin hollyoaks enjoy hearing watching irish accent glad ditch handlebars'
p117
asS'2013_4'
p118
(lp119
S'daughter lost purse glastonbury someone posted home cards also congratulations'
p120
aS'hello cowell please retweet xxxxxx'
p121
aS'congratulations team well deserved brighten'
p122
aS'lookin good'
p123
aS'read article sunday want congratulate agree pull money better spent home'
p124
aS'lovin boots petrol station photo hubby like dont blame letting fill pumps'
p125
asS'2013_7'
p126
(lp127
S'happy birthday'
p128
asS'2013_6'
p129
(lp130
S'careful'
p131
aS'baftas still lookin plleeaassee'
p132
aS'nite nite sleep tight irish hotty'
p133
aS'corr lovin accent seein graham norton'
p134
asS'2013_3'
p135
(lp136
S'rottie lovin snow'
p137
aS'loving white stuff'
p138
aS'good earth excellent chef praise staff pity liverpool daughter enjoy work'
p139
aS'watched last series masterchef must staff fantastic restaurant'
p140
asS'2013_2'
p141
(lp142
S'tell people blackbelt illegal otherwise cant wait paula tomora'
p143
asS'2013_9'
p144
(lp145
S'thanx jamie must looking wrong places book thanx suggestion'
p146
asS'2013_8'
p147
(lp148
S'love collect bears snuggles plzzz'
p149
aS'made back saturday nights'
p150
asS'2013_17'
p151
(lp152
S'heard loveable rogues song great makes smile song'
p153
aS'loveable rogues fantastic'
p154
aS'women mean'
p155
aS'loveable rogues fantastic proper cheery song'
p156
aS'thought going easy came think holly thought'
p157
asS'2012_16'
p158
(lp159
S'learning french hard need hang'
p160
aS'description says french chef'
p161
asS'2012_17'
p162
(lp163
S'liverpool town centre treat liverpool drinkies meal night water front hotel watch liverpool tomora'
p164
aS'meant gary'
p165
aS'proud long time keep smiling'
p166
aS'well time back work tomora robocop boot feel pretty nervous gloria gaynor said survive nite'
p167
aS'mark wright havin party thursday well towie folk kirks party marks'
p168
aS'congratulations'
p169
aS'lovin towie gorgi never essex'
p170
aS'chillin still laid abit plaster surgical boot weeks getting'
p171
aS'enjoying highlife marcus great atmosphere liverpool weekend giants odysessy'
p172
aS'simon watched morning bower talking book hope doin'
p173
aS'happy georges stacey'
p174
aS'love judge line simon english ladies latino heart'
p175
asS'2012_52'
p176
(lp177
S'watch christmas cant wait laffin show'
p178
aS'victoria wood julie walters pure class'
p179
asS'2012_51'
p180
(lp181
S'word performance strictly fabuulloouus'
p182
aS'dublin looks nice place'
p183
aS'watching morn went fits laughter dean dropped'
p184
aS'funny'
p185
aS'paloma faith fantastic'
p186
aS'thankyou philip team always cheer'
p187
aS'love trying hold laffing great cheer monday thankyou'
p188
asS'2012_18'
p189
(lp190
S'good great alan carr proud hold head'
p191
asS'2012_19'
p192
(lp193
S'lovin party theme hope good night'
p194
aS'watched towie plus james bond'
p195
aS'seems commenting tevez'
p196
asS'2013_11'
p197
(lp198
S'hear right hollie said human'
p199
asS'2013_10'
p200
(lp201
S'phil janes straps fell gent tell'
p202
aS'lovely gareth great show beth bolero'
p203
aS'thanx gordon hope wife lovely'
p204
aS'hope mother twitters great'
p205
aS'giving italy year staying outside venice plan visit verona lake garda tips recommendations please'
p206
aS'knock dead'
p207
aS'clip fight walker lookin excitin stuff still wish hadnt left onwards upwards'
p208
aS'house renovations going plan'
p209
asS'2013_13'
p210
(lp211
S'bradley love watching daughter ladybird small'
p212
aS'weather affecting business imagine place roaring fire good food drink'
p213
aS'cant wait nice cheerup cold weather liverpoolx'
p214
aS'noel fitzpatrick seems fantastic wish dogs well done noel caring friendly'
p215
aS'staying outside venice september want spend time verona lake garda accomodation tips'
p216
aS'going venice september also would like spend days lake garda visit verona tips'
p217
aS'women show wearing colour dresses unusual'
p218
asS'2013_15'
p219
(lp220
S'bellissimo love skies wish paint'
p221
aS'feeling whats saying unlucky love lucky money well unlucky heelllpppp soommeonnee'
p222
aS'loved gypsy film shame stuff room great show meaning blowing trumpet'
p223
aS'simon proud single work hard wish friend show last nitex'
p224
asS'2013_14'
p225
(lp226
S'funny love wine'
p227
aS'well done philipxx'
p228
asS'2013_31'
p229
(lp230
S'wondering make funny good david'
p231
aS'ignorant done course arts past present love better understanding'
p232
aS'passed arts past present points nearer degree near italian course next course october history 14001900'
p233
asS'2013_19'
p234
(lp235
S'essay arts past present course transport ages seaside really enjoyed course'
p236
aS'gone'
p237
aS'love quotes'
p238
aS'find details hollys dress site lovely great show emotional times'
p239
asS'2012_30'
p240
(lp241
S'good happy'
p242
aS'garbanzos please'
p243
aS'dress stunning like hair natural like'
p244
asS'2012_32'
p245
(lp246
S'thinking wife news'
p247
asS'2013_38'
p248
(lp249
S'thoughts best york bath christmas market breaks'
p250
asS'2013_37'
p251
(lp252
S'good night alessandro liverpool'
p253
asS'2013_36'
p254
(lp255
S'enjoying nice glass'
p256
asS'2012_39'
p257
(lp258
S'kirks back'
p259
aS'waitin itv2'
p260
aS'loving goggles feeling'
p261
aS'naughty arent'
p262
aS'watched piers morgan fantastic diagnosed depression described feel totally'
p263
as.