(dp0
S'2014_18'
p1
(lp2
S'uncalled'
p3
aS''
p4
aS'blackburn play offs never insult danny ings'
p5
aS'anyone clitheroe area chillimoon great shop selling spices chillies brilliant antiques castle street'
p6
aS'listen advice older people theyre right experience wrong thats daft'
p7
aS'bite someone elses food always best thing youve ever tasted actually matter opinion fact'
p8
aS'girl talks movie wants watch chances hint wants preposterous'
p9
aS'bigorexia disorder person becomes obsessed working arent muscular enough'
p10
aS'confidence dont believe nobody fact opinion please stop'
p11
aS'shit stalker'
p12
aS'respect blind people judge others personality looks could cant'
p13
aS'forgive others deserve forgiveness deserve peace isnt fact opinion'
p14
asS'2014_19'
p15
(lp16
S'youve poppin champagne'
p17
aS'deviously tired little brother'
p18
aS'hate impossible comfy'
p19
aS'favorite brand toilet paper girlfriends chest'
p20
aS'friday sixth form always worst week'
p21
aS'lets laugh liverpool'
p22
aS'somewhere liverpool luis suarez crying'
p23
aS'jokes notch much sweg'
p24
aS'hate house hate town cant wait leave live somewhere isnt shitty bishop auckland'
p25
asS'2014_21'
p26
(lp27
S'pancakes nice'
p28
aS'probably tweet something else'
p29
aS'become obsessed godzilla life become'
p30
aS'need godzilla anyone willing take cinema please please please'
p31
aS'someone take godzilla please'
p32
aS'americas first slave owner black surely lying could refrain spreading lies please'
p33
aS'really love someone distance height weight numbers shes years problems'
p34
aS'people mirrors completely differently call fact offended'
p35
aS'women tell average lies week fact opinion dirty feminist bellends'
p36
aS'hearing deryck whibley huge influence hope deryck still write tour'
p37
asS'2014_20'
p38
(lp39
S'godzilla fucking amazing'
p40
aS'work hard silence success noise fact sort annoying everyone'
p41
aS'someone bring breakfast'
p42
aS'registration'
p43
aS'energy levels stress levels 1000000'
p44
aS'kids love'
p45
asS'2014_23'
p46
(lp47
S'mother bullshitter fucking unbelievable'
p48
aS'rickie lambert said factor suncream said factor lotion spray said spray'
p49
aS'stepped plane miami thought really warm right checked temperature\xe2\x80\xa6'
p50
asS'2014_17'
p51
(lp52
S'great political speaker'
p53
aS'wish teen racial prejudice cold fact wouldnt able tweet'
p54
aS'starbucks coffee contains acrylamide proven cause cancer\xe2\x80\x9d cant argue'
p55
aS'chased moyess leaving thought going stay telling'
p56
aS'steve kean manchester united manager'
p57
aS'ever belieber'
p58
asS'2014_11'
p59
(lp60
S'cant argue prediction'
p61
aS'money cant happiness pays wifi buys food pays concert tickets buys clothes differ'
p62
aS'sometimes people thousands miles away make feel better ones right beside'
p63
aS'want please'
p64
aS'jordan rhodes literally'
p65
aS'weeks injured raises question fancy kickabout tomorrow'
p66
aS'amazing text someone lift mood lowest highest weeks'
p67
aS'need getting high streets'
p68
aS'hate people change worst'
p69
aS'youve poppin champagne'
p70
aS'today already pissed awake like minutes sounds like great ahead'
p71
aS'today fuck'
p72
aS'might give watching football'
p73
asS'2014_12'
p74
(lp75
S'pepe bigger pitch takes elclasico'
p76
aS'yaya toures diary goes 31st march straight april\xe2\x80\xa6nobody fools yaya toure tourefacts'
p77
aS'school piss assembly especially assembly consists shearer bitching lack studying apparently'
p78
aS'horry vuldemurt wanna pley simon seys vuldemurt shure horry simon seys tuch noese'
p79
aS'want life meet time really much'
p80
aS'entire angel cake simultaneously make serious complaint eating chocolate'
p81
aS'sweggingitout'
p82
aS'sweg sweggywheatley'
p83
aS'shit nigga'
p84
ag4
aS'hours level french coming safe hate tuesdays'
p85
aS'friend huge'
p86
asS'2014_13'
p87
(lp88
S'farmer spread shite'
p89
aS'need breakfast also need choose'
p90
aS'need life someone scones scones toast'
p91
aS'love scones much'
p92
aS'score goal goalkeeper opponent must purchase pregnancy test explain believe'
p93
aS'underdog look mess youve made'
p94
aS'chip keeper conor sammon opponent fish chips'
p95
aS'score hattrick marouane fellaini opponent must shop item worth'
p96
aS'tried perfect nothing worth'
p97
aS'whales never date school dance reasons dont education system'
p98
aS'girls boys sucks boys girls suck everyone agrees whales chill playas aint time'
p99
aS'exercise inconvenience time gain weight without exercising'
p100
aS'hurry football'
p101
asS'2014_14'
p102
(lp103
S'might watch life mars ashes ashes'
p104
aS'exactly without fifa'
p105
aS'somehow broke copy fifa isnt good enough reason'
p106
aS'explain year olds copy fifa ensure actually'
p107
aS'fucking friday'
p108
aS'eaten much today although highlight watching mates square teacher couldnt asda'
p109
aS'home find little brothers hidden fifa pair dickheads'
p110
aS'little brothers wont shut minecraft even point minecraft looks shit'
p111
aS'even awake enough cope today'
p112
aS'hours sports studies cant wait tomorrow night'
p113
aS'love shrek'
p114
aS'fresh start feveeeeer'
p115
aS'version sadness never good relaxing song give listen'
p116
aS'someone finally said'
p117
aS'whales whales long anybody remember'
p118
asS'2014_15'
p119
(lp120
S'ashes ashes brilliant show'
p121
aS'honest give boner'
p122
aS'thats stuff bubba whatson bubba losing hearing'
p123
aS'indirect\xf0\x9f\x8e\x83 free gerards face'
p124
aS'half chance arsenal seconds good start make even heartbreaking concede 94th'
p125
aS'dipper youre fucking laugh'
p126
aS'today already'
p127
aS'rude'
p128
aS'thats thought'
p129
aS'though'
p130
aS'mean'
p131
aS'jolly fine jest bean'
p132
aS'evil laugh doth shiver timbers'
p133
aS'youre bully'
p134
aS'awkward moment someone never even dated'
p135
aS'nope mean'
p136
aS'even funny'
p137
aS'literally'
p138
aS'peasant'
p139
aS'armageddon'
p140
aS'need sleep help'
p141
aS'never attached anyone unless also feel towards sided expectations mentally destroy'
p142
aS'moment zack merrick broke everyones heart'
p143
aS'dont wake early school fuck'
p144
aS'peaches geldof'
p145
aS'really like'
p146
asS'2014_16'
p147
(lp148
S'theres chance theres dead animals better social life'
p149
aS'playing full back midfielder says hell cover'
p150
aS'roberto martinez anyone watching football match isnt right isnt fair'
p151
aS'went shop food home wasnt hungry'
p152
as.