(dp0
S'2013_46'
p1
(lp2
S'cami sarah fuck arent answering phone whore'
p3
aS'massage moose masseuse whilst eating chocolate mousse given mouse living fantasy world'
p4
aS'shitting creepy burglar music starts playing'
p5
aS'scrnama cisplg'
p6
aS'likr momma believe need jesus jacob ships sabrina jaidrn andeverybody'
p7
aS'goes eell sarah shipped spreads'
p8
aS'likr okay thst conersativon kmfg'
p9
aS'like think says jacob ships together'
p10
aS'dude asked like someone interested'
p11
aS'fuck nevermind gotta cousins'
p12
aS'parents goin tonight chnce someones house night woha sing song ducks'
p13
aS'kyel busy tonight actually'
p14
aS'monthly time twitter hours class level inept tweet warrior full results'
p15
aS'stats favourite words fuck omfg average word length intelligence rating imbecile'
p16
aS'sees tweet best friend eating cookie sexy eating cookie treat'
p17
aS'hope everyones good excited children need'
p18
aS'said yesterday obviously homework sorry miss cant hear sound pissed make'
p19
aS'omfg dying kind like done imfao singing pretty loud'
p20
aS'aaaaaaa'
p21
aS'dude dont phone forgot morning fuck panic'
p22
aS'omfg theyre playing wmyb announcements today laugh'
p23
aS'asked mission impossible fuck watdo conflicted'
p24
aS'teenage impregnating britains swans'
p25
aS'omfg jillala'
p26
aS'woah bucketlist time'
p27
aS''
p28
ag28
aS'told sorry pushing work literally cant something wrong'
p29
aS'pretty much summed thoughts music industry amazing'
p30
aS'remember report thing done tomorrow tomorrow dont forget names'
p31
aS'want do111111111111111'
p32
aS'onedirection born best song ever amazing'
p33
aS'know chose right fandom'
p34
aS'bonlaquishalafondria'
p35
aS'reading porn readsim proud'
p36
aS'babe'
p37
aS'fucker gtfo'
p38
aS'omfg'
p39
aS'haha kyle limit shit'
p40
aS'omfg'
p41
aS'illl alwas know first haha'
p42
aS'like gtgt bootysex ltlt'
p43
aS'hooker'
p44
aS'omfg real talk'
p45
aS'late youre late buns fresh theyre cold'
p46
aS'literally breathing next close like mama watching buttsex'
p47
aS'potato watching buttsex proud'
p48
aS'youre late told meet like minutes'
p49
aS'sorry babez kind distracting really'
p50
aS'tweeting looking buttsex'
p51
aS'stop watching look porn'
p52
aS'notice crap think'
p53
ag28
ag28
aS'better doesnt think looking clearly buttsex screen'
p54
aS'still frick frack hard china hear soprano'
p55
aS'course love'
p56
aS'exactly'
p57
aS'shoutout love read fantastic story alter'
p58
aS'excuse think youre going fuck right'
p59
aS'omfg'
p60
aS'omfg squealed'
p61
aS'make sing soprano loud china'
p62
aS'thisismylife'
p63
aS'swag'
p64
aS'nothing much listening good music friend next looking porn thinks cant'
p65
aS'wanna frick frack storage room choir room'
p66
aS'meet'
p67
aS'gettin booty call'
p68
aS'baby'
p69
aS'like twists make sure read oneshot'
p70
ag28
ag28
aS'wanna desperation prettyplease bigolpenis'
p71
aS'mate gimme wattpad'
p72
aS'updating maybe twice today doesnt like twerking unicorns'
p73
aS'burped farted time edgar sniffing butt'
p74
aS'youtube comment system puts away spam comments look spam look'
p75
aS'whats better unicorns'
p76
aS'pleases greatly'
p77
aS'make post reactions please'
p78
aS'fantastic potatoey self kill almost failing math fuck also rather right help'
p79
ag28
aS'butthurt'
p80
aS'rude legit offended right'
p81
aS'cant fucking week sure next week math homework gotta'
p82
aS'done fruit also'
p83
aS'fuckin fruit'
p84
aS'want know onedirection born click'
p85
aS'babe fresh story coming right'
p86
aS'want include oneshot love'
p87
aS'yeah know imfao'
p88
aS'well thee aaron disantiago even sure spelled right douche'
p89
aS'unpopularfandomopinion dont exactly care honey jokes laugh theyre actually funny'
p90
aS'dunno girl went full retard want'
p91
aS'begins'
p92
aS'dotheprettygirlrock stabbing tragically beautiful'
p93
aS'1dthey don\xe2\x80\x99t know lmthey don\xe2\x80\x99t know 1dlittle things lmlittle 1dstand lmstand'
p94
ag28
aS'voted directioners musicfans peopleschoice retweet vote'
p95
aS'voted best song ever musicvideo peopleschoice retweet vote'
p96
aS'voted direction band peopleschoice retweet vote'
p97
aS'hetalia'
p98
aS'anyone tells havent done tell lying family thinks bowel movement prob'
p99
aS'grammar right cant even'
p100
aS'youre tits damn'
p101
aS'lets kyle'
p102
aS'woah great game good controls amaze'
p103
aS'spanish isnt amazing'
p104
aS'dude fuck even saying'
p105
aS'guess'
p106
aS'mentionsomeonebeautiful love'
p107
aS'haha hahaha ahahahahaha hahahahahahahahaha omfg youre sooo much denial'
p108
aS'stop retweeting zayn liam thing someone disagrees feels like rude idol'
p109
aS'excuse morning wood good thors hammer'
p110
aS'unpopularfandomopinion arent wannabe group perrie solo person love zayn malik'
p111
aS'unpopularfandomopinion carrots dont annoy'
p112
aS'hate directioners hate zayn girls dont ship zerrie niall hugs girl world unpopu\xe2\x80\xa6'
p113
aS'seemed willing yesterday'
p114
aS'unpopularfandomopinion quit childish zerries engagement dont believe love'
p115
aS'fuck imfao'
p116
aS'unpopularfandomopinion think taylor adorable dances like lady think dont like reaction harry'
p117
aS'unpopularfandomopinion know girls harry follows sluts theyre beautiful doesnt mean anything'
p118
aS'unpopularfandomopinion feel wanted fault members snarky louis tomlinson'
p119
aS'unpopularfandomopinion ship larry also elounor'
p120
aS'unpopularfandomopinion didnt like payzer ship lame shipping name'
p121
aS'unpopularfandomopinion chris fantasticfoursome'
p122
aS'unpopularopinion everyone said surprised especially louis andor niall'
p123
aS'unpopularfandomopinion think perrie fake mean mean shes born flower child love little though'
p124
aS'popular opinion'
p125
aS'unpopularfandomopinion zayn liam best voices hidden power high notes also ziam'
p126
aS'unpopularfandomopinion think niall straight'
p127
aS'unpopularfandomopinion thhink directioners nice believers'
p128
aS'foursome'
p129
aS'locked balcony cold'
p130
aS'astounds much mess around period haha'
p131
aS'read story girl named sarah told dudes look cute together guys realized hahaha'
p132
ag28
aS'jacking'
p133
aS'insomnia'
p134
aS'kyle'
p135
aS'reading smut named julian named diana something want stumble upon'
p136
aS'indirect brother like music youre listening sounds like girl voice ambulance alarm'
p137
aS'grass really greener'
p138
aS'know place'
p139
ag28
aS'shit guys almost reads'
p140
aS'youre might well make request'
p141
aS'yeah havent checked part story'
p142
aS'depressing'
p143
aS'minutes awake twitter told gunna food'
p144
aS'girl wake fuckin four hour best backin outta room corndogs'
p145
aS'think'
p146
aS'oops math packet fell asleep'
p147
ag28
aS'quit done white girl'
p148
aS'greetings loved ones lets take journey'
p149
ag28
aS'know'
p150
aS'dont even talk anymore youre rude'
p151
aS'idiot'
p152
aS'idiot'
p153
aS'well fuck nice'
p154
aS'dafuq trying hashtag fucking fail twitter twat'
p155
aS'mimics beat dont know song pretend like tryin improve'
p156
ag28
aS'toniiight alriiiight'
p157
aS'gurl'
p158
aS'still rock star rock moves'
p159
aS'thunda bolt lightning frightning'
p160
aS'dont started'
p161
aS'kind dude'
p162
aS'lolnope'
p163
ag28
aS'lolnope'
p164
aS'lolnope fuck'
p165
aS'scatta moosh scatta moosh fandando'
p166
aS'hahaha poor bitch'
p167
aS'completely wrong whilst telling blonde booty shut'
p168
ag28
aS'read adventures dianalyn banks direction born wattpad'
p169
aS'mentionatruefriend shes today'
p170
aS'mentionatruefriend'
p171
aS'mentionatruefriend'
p172
aS'funny hashtag'
p173
aS'better leave delete'
p174
aS'found something pretty much explains'
p175
asS'2013_47'
p176
(lp177
S'elder scrolls online beta cannot connect server cannot connect lobby want fuck'
p178
aS'male licking female nono place whelp time talk'
p179
ag28
aS'lilac niall harry pottery sassy louis payne train liam zayn beyonce malik today good 1ddaylive'
p180
aS'youve actually watched whole hour live stream take pass deserve 1ddaylive'
p181
aS'1ddaylive worried boyfriends'
p182
aS'1ddaylive payne train'
p183
aS'larryhourorwesetmodestonfire'
p184
aS'thanks daddy'
p185
aS'follow spree 1ddaylive mtvstars direction'
p186
aS'1ddaylive watched earlier'
p187
aS'zayn liam 1ddaylive'
p188
aS'1ddaylive ziam theres another cushion couch guys using cushions'
p189
aS'typical classy applebees definitely watching toss follow would'
p190
aS'1ddaylife full fucking hour ziam going survivegt'
p191
aS'zayns talent tagging walls omfg thuggyyy yumyum 1ddaylive'
p192
aS'1ddaylive dude ziam help keep going guys'
p193
aS'1ddaylive last time saying already heard entire album stop pretending'
p194
aS'give define girlfriends wanna peacock working 1ddaylive'
p195
aS'\xe2\x80\x9cdefine girlfriends\xe2\x80\x9d louis tomlinson second time'
p196
aS'onebigselfie'
p197
aS'1ddaylive loads loads ziam'
p198
aS'1ddaylive watchin louis funny sorry'
p199
aS'give liam 1ddaylive'
p200
aS'1ddaylive good liam'
p201
aS'1ddaylive truely best friends listen sarcasm'
p202
aS'1ddaylive wonky adorable'
p203
aS'laughing hard oetkwlqjnko 1ddaylive'
p204
aS'1ddaylive omfg'
p205
aS'1ddaylive malfunctioning lots lots highlights happening'
p206
aS'define girlfriends mean boyfriends'
p207
aS'1ddaydynamosong midnight memories'
p208
aS'1ddynamosong midnight memories'
p209
aS'1ddynamocity iowa'
p210
aS'1ddaylive september'
p211
aS'1ddynamomonth september'
p212
aS'september'
p213
aS'1ddaylive thats plus omfg liam sarcastic bastard'
p214
aS'1ddaylive harry fabulouis please'
p215
aS'1ddaylive liam stop'
p216
aS'nearly define girlfriends dont live anywhere harold cant play football'
p217
aS'hashtagtotheoperabeat zayn liam sing mirrors please'
p218
aS'manwich brilliant hashtagtotheoperabeat'
p219
aS'1ddaylive'
p220
aS'1ddaylive follow omfg guys best'
p221
aS'survived hour'
p222
aS'harry naked wrecking ball thats life mate 1ddaylive'
p223
aS'1ddaylive mirrors ziam holy fckin slslap'
p224
aS'many girlfriends define girlfriends louis'
p225
aS'define girlfriends'
p226
aS'totheoperabeat liam zayn need sing climax usher'
p227
aS'1ddaylive snap harry styles everybody'
p228
aS'omfg'
p229
aS'1ddaylive lirry'
p230
aS'hahaha louis screeches hahaha 1ddaylive'
p231
aS'1ddaylive omfg zayn high'
p232
aS'1ddaylive zarrys secret'
p233
aS'little cutie parootie 1ddaylive'
p234
aS'1ddaylive'
p235
aS'1ddaylive theyre killed questions'
p236
aS'zayn 1ddaylive'
p237
aS'boys acoustic burns soul perfection 1ddaylive'
p238
aS'1ddaylive powerful'
p239
aS'1ddaylive future ziam sextape right'
p240
aS'1ddaylive holy shit believe tired puppy became fucking guard'
p241
aS'1ddaylive omfg niall help'
p242
aS'1ddaylive holy fuck story life help'
p243
aS'1ddaylive girl aint gunna calm congrats nicole'
p244
aS'1ddaylive holy crap though dark sounds amazing'
p245
aS'1ddaylive loving much failed hard record haha'
p246
aS'1ddaylive watching school laptop'
p247
aS'youre watching 1ddayourbestday'
p248
aS'drug\xe2\x99\xab basicly fuking livestram 1dday 1ddayourbestday'
p249
aS'1ddayourbestday guys gonna stop tweeting everything starts wanna hahahaha'
p250
aS'fandom este momento 1ddayourbestday'
p251
aS'1ddayourbestday'
p252
aS'innit'
p253
aS'hour excited'
p254
aS'cant believe finally hours'
p255
aS'1ddayourbestday half hour grab pass wish luck dont today mine'
p256
aS'great 1dday check silly story born remember 1ddayourbestday'
p257
aS'hour 1dday celebrate today special oneshot born good luck today'
p258
aS'link 1dday know someone doesnt link spread'
p259
aS'hell'
p260
aS'today 1dday body ready'
p261
aS'miley'
p262
aS'sway wake xilent remix'
p263
aS'literally tonight might sleep anxiety tomorrow follow sprees'
p264
aS'good news everyone brother ships larry'
p265
aS'link spread faster legs boys'
p266
aS'probably jillian though'
p267
aS'wonder serenade piano first'
p268
ag28
ag28
aS'josh nagunst'
p269
aS'gurl liek gurl cray come give lovin gurl'
p270
aS'like gurl cant handle much youre club status able handle youse like'
p271
aS'aint watching gurl watchin sometimes gotsta blink youse blink youse like gurl agan'
p272
aS'bitch sopranos liek bass like 100000000000000000000000000000000000000 altos'
p273
aS'jillian drunk'
p274
ag28
aS'deep emotions fucksadgames'
p275
aS'tech'
p276
aS'even engrish'
p277
aS'qurl ily2'
p278
aS'okay tomorrow going think tristen helping tomorrow'
p279
aS'shhh miss gonezzz'
p280
aS'lolno fucking singing wouldnt shut holy tits'
p281
aS'long without period dose kyle'
p282
aS'love'
p283
aS'going kill'
p284
aS'seriously kill'
p285
aS'idea forehead'
p286
aS'bottom ocean'
p287
aS'ever feel like breaking ever feel place like somehow dont belong unders\xe2\x80\xa6'
p288
aS'saxy girl york careless whisper prank'
p289
aS'phil'
p290
aS'everytime baby'
p291
aS'cant stop laughing'
p292
aS'leaked diana months still countries whole fandom right'
p293
aS'really like read first actual 2000 words oneshot challenge'
p294
aS'cyclists given pets cancer'
p295
aS'sing much lorde'
p296
aS'proud babe'
p297
aS'confused right'
p298
aS'fuck brain hurys'
p299
ag28
aS'ahve crush someon'
p300
aS'holy fucng shit guys'
p301
aS'holy shit'
p302
aS'check reynico story'
p303
aS'dude fine person'
p304
aS'comfortable'
p305
aS'dude dont care fuck nigga doesnt deserve kyleness whatever long youre comfor'
p306
aS'kyle dude easy confuse hell long near place people hear screams whatever'
p307
aS'fucking shit damn'
p308
aS'whats wrong okay'
p309
aS'dedicated story srachels'
p310
aS'posted story serious oneshots taking requests fight club request reynico'
p311
aS'awkward moment accidentally vote story'
p312
aS'first request'
p313
aS'leave yournonserious requests'
p314
aS'leave requests please'
p315
aS'would love could take time read longest oneshot awhile'
p316
aS'posted story serious oneshots taking requests request keyword challenge'
p317
aS'together wanted together achieved family told wasnt going love'
p318
ag28
aS'porn time consuming'
p319
aS'going something youre kind busy xddd'
p320
aS'writing fucking story damn shit fuck curse words enthuse emotional making imfao'
p321
aS'direction arent gonna mtvstars direction'
p322
aS'feral children given church cancer'
p323
aS'remember harry passed driving test like remember harry sandwich mtvstars direction'
p324
aS'could hoodies give british people swine'
p325
aS'ship larry fave ship elounor wont judge want follow give shoutout'
p326
aS'ones tweeted weekend foreveraloneohnocrycryteartearhashtaghashtag'
p327
asS'2013_44'
p328
(lp329
g28
aS'rude'
p330
aS'last call vote ytma artist year rting video dont miss live performance tonight'
p331
ag28
aS'embarassingstorytime'
p332
aS'embarassingstorytime'
p333
aS'haha intended thing'
p334
aS'omfg dude like reads'
p335
aS'read adventures dianalyn baanks sethypoo everywhere wattpad'
p336
aS'exact reaction'
p337
ag28
aS'omfg wrote another want fucking read'
p338
aS'poor dont readers except jillian lame tear tear'
p339
aS'also request something hahahahaha'
p340
aS'bieber something thrown concert trending worldwide'
p341
aS'dude laugh'
p342
aS'read loveduck'
p343
ag28
ag28
aS'dude literally shittin bricks'
p344
aS'come nuzzle bosom'
p345
aS'mate'
p346
aS'indirect fuckin piece shit'
p347
aS'want read serious jillian'
p348
ag28
ag28
aS'sweg'
p349
aS'best shot'
p350
ag28
ag28
ag28
aS'brought back life piece shit'
p351
aS'mentionabeautifulname friedchickeneisha'
p352
aS'cprs'
p353
aS'embarassingstorytime deleting minutes'
p354
aS'leggo'
p355
aS'ooooooooooooooooooooh giiiiiiirl bousta dooooown'
p356
aS'piss mate'
p357
aS'left money home pocky pocky means pocky game pocky game means making sigh life'
p358
aS'rude tweeting back'
p359
aS'peoplechange'
p360
aS'everyone fascinated found harry nipples carrotconfessionnight'
p361
aS'carrotconfessionnight mother going take literally asked take nandos'
p362
aS'carrotconfessionnight'
p363
aS'carrotconfessionnight honestly making feel like obsessed thought'
p364
aS'carrotconfessionnight wrote larry oneshot louis cheated harry kevin broke'
p365
aS'carrotconfessionnight dyed hair short louis halloween'
p366
aS'carrotconfessionnight brothers exfiance came slapped cause said bunch faggots'
p367
aS'carrotconfessionnight teacher brought name larry turth asked shipped larry'
p368
aS'carrotconfessionnight girl class said louis lewis piece hair tickled'
p369
aS'carrotconfessionnight wrote story girl abducted loved louis love harryscurls'
p370
aS'goth chicks hypnotizing performing satanic rituals outside'
p371
aS'kyle'
p372
aS'kyle'
p373
aS'dude account back'
p374
aS'sure dude maybe later spazzing candy'
p375
aS'spooky class selfie webcamtoy'
p376
ag28
aS'happy halloween fellow humans'
p377
aS'holy tits story reads'
p378
ag28
aS'shows salsa lessons tostitos haha fuck idiots'
p379
aS'read chapter legend jade serpent wattpad upfuckingdate finally ahahahaha'
p380
aS'cant sacrifice thats illegal'
p381
aS'burps happily'
p382
aS'started'
p383
ag28
ag28
aS'music best thing hard time'
p384
ag28
aS'problem fuckass'
p385
ag28
aS'greetings loved ones lets take journey'
p386
asS'2013_45'
p387
(lp388
S'taking break everything guys maybe tomorrow night early sunday'
p389
aS'dammit seriously wasnt expecting fuckk glad phase fucki\xe2\x80\xa6'
p390
aS'fetus phase jillian ahahahaha'
p391
aS'wheniwaslittle convinced sister away made pack clothes food threw'
p392
aS'fault retweeted onto feed'
p393
aS'w0ah'
p394
aS'sadly would probably know hahaha'
p395
aS'vote fall favorite altband peopleschoice'
p396
aS'drunk teens steal circus llama take joyride'
p397
aS'quote favourite louis hairstyle'
p398
aS'babe difficult haha'
p399
aS'haha knew feelindalurve'
p400
aS'jesen ackles scifiactor voting scifiactor peopleschoice'
p401
aS'vote jensen ackles scifiactor peopleschoice'
p402
aS'ackleholics gonna voting party jensen ackles hour jensen ackles scifiactor feel free'
p403
aS'lets talk jensen ackles jensen ackles scifiactor jensen ackles scifiactor peopleschoice'
p404
aS'anyone could write jensens talents jensen ackles scifiactor scifiactor peopleschoice'
p405
aS'voting jensen ackles scifiactor scifiactor supernatural scifitv peopleschoice'
p406
aS'keep voteing jensen ackles scifiactor scifiactor peopleschoice'
p407
aS'dont stop guys jensen ackles scifiactor jensen ackles scifiactor peopleschoice'
p408
aS'music start singing monday folder'
p409
ag28
aS'know love babe'
p410
ag28
ag28
aS'dicks also flying'
p411
aS'friendz'
p412
aS'want name oneshot working'
p413
aS'waiting call grade shit'
p414
aS'piss'
p415
aS'good took come hope tell sarcastic internet hahaha'
p416
aS'quit rudeing fucking annoying'
p417
aS'dicks thats also like username'
p418
aS'buttfucks'
p419
aS'sqeaaaaaaaaaaaaaaaaaaaaaaaaaaaaaaaaaaaaal'
p420
aS'sheeran unveils fire music video watch'
p421
aS'fuck butts'
p422
aS'greetings loved ones lets take journey'
p423
aS'fuck find account cunt'
p424
aS'rude'
p425
aS'kind fucked male classmates laptops teacher tells away since female dont told'
p426
aS'50th news thedayofthedoctor 750pm november mark time diaries savetheday'
p427
aS'goofd'
p428
aS'alien'
p429
aS'jessie price tagacapella cover damn'
p430
aS'says could hear jake haha plus boys songs'
p431
aS'love guyswe pretty amazingwe months choir'
p432
aS'lets'
p433
aS'moving canada march twerking miley cyrus coming town yall gonna come'
p434
aS'barfs angrily'
p435
aS'tell goes'
p436
aS'fuck sorry phone kidnapped youtube thing friend school'
p437
aS'finish homework thing'
p438
aS'dork'
p439
aS'tell goes babez'
p440
aS'dude going able today shit school barfs angrily'
p441
aS'makes better looking preinstalled looks like'
p442
aS'dude thing done bootyful'
p443
ag28
ag28
aS'right'
p444
aS'okay thats cool porn pops teachers computer totally signed'
p445
aS'hahaha shit'
p446
ag28
aS'unless caleb'
p447
aS'dont drugs'
p448
aS'lets take journey'
p449
aS'greetings loved ones'
p450
aS'days cant decide stabbing person next'
p451
ag28
aS'kyle fuckin piece shit'
p452
aS'kyle focus'
p453
aS'spoopy'
p454
aS'thing'
p455
aS'okok lemme send gucci link'
p456
aS'piece shit help shit'
p457
aS'fuck doin sounds weird jillybean'
p458
aS'fuckass worked presentation thing fell fuck asleep'
p459
ag28
aS'havent read story made request please havent exactly made serious haha crazy'
p460
as.