(dp0
S'2013_42'
p1
(lp2
S'dont know youre referring nigga heard'
p3
aS'stori gurl 4evr gurl stabz 5ever 4evr dyes\xe2\x80\xa6'
p4
asS'2013_43'
p5
(lp6
S''
p7
aS'nobody noon'
p8
aS'hope cold halloween girls wont able wear costumes otherwise'
p9
aS'different strains different pains'
p10
aS'need favour dont leave alone'
p11
aS'rehnde'
p12
aS'appreciate givenchy'
p13
aS'theres excuse dress monday always sweatpants'
p14
asS'2013_40'
p15
(lp16
S'reached point dont shit matter nigga'
p17
aS'trying back like really cool cold'
p18
aS'learned cant tell everybody plans cause sometime dreams bigger'
p19
aS'polite fuck'
p20
aS'hesitate'
p21
aS'gains'
p22
aS'circle friends getting smaller smaller word'
p23
aS'nigga jogging train station platform'
p24
aS'benched plates plates gotmyweightup'
p25
aS'everybodys discussing breaking'
p26
aS'humans actually best longdistance runners planet ability beat horses marathon distance'
p27
asS'2013_41'
p28
(lp29
S'mean allnighter cream studying'
p30
aS'going ignant tonight'
p31
aS'millions millions ceiling'
p32
aS'selfconscious'
p33
aS'deceased'
p34
aS'arrives minutes late funeral starbucks'
p35
asS'2013_46'
p36
(lp37
g7
aS'planning battle snatched clothes fast itll look like invisible standing'
p38
aS'random urge bhangra library jogi punjabiproblems'
p39
aS'much hate need'
p40
asS'2013_47'
p41
(lp42
S'rrrrrrrrrrrrrrrr'
p43
asS'2013_44'
p44
(lp45
S'amount times probably gonna mutter tonight thankyouhalloween'
p46
aS'halloween challenge every female outwhore last years costume'
p47
aS'kinda dude pray something prayed'
p48
aS'wine dine'
p49
aS'fuck never mind nigga dont watch'
p50
aS'guju population rutgers getting'
p51
aS'skipping school tomorrow drugs\xe2\x80\x9d might'
p52
aS'dark fantasy viable best kanyes work especially considering best album'
p53
aS'kanye rapping otis live radio right saying wouldnt perform songs without gtgtgtgtgt'
p54
aS'getting cold'
p55
aS'deadass dead'
p56
asS'2013_45'
p57
(lp58
S'head first hand test like muthafucka'
p59
aS'many times dont know fashion'
p60
aS'motor mouth worry'
p61
aS'allll classseess'
p62
aS'mobbin'
p63
aS'wrong girls want want doesnt care'
p64
aS'proof jaden smith fresh prince bullsht'
p65
aS'drinking smoking fucking plotting scheming plotting scheming getting money'
p66
aS'dead hope youre happy fucks'
p67
aS'hate anyone responsible literally killing definition literally'
p68
aS'shit goes better ready'
p69
asS'2013_16'
p70
(lp71
S'camelproblems start studying take break wednesday thursday'
p72
aS'snoop smoked fiftysixth blunt'
p73
aS'everyday struggling'
p74
aS'food biggest distraction studies'
p75
aS'days'
p76
aS'revofev'
p77
aS'tyler hell yeah dropping album fucking'
p78
aS'welcome good life'
p79
aS'snoop smoked thirtyeighth blunt'
p80
aS'hate april knows'
p81
asS'2013_24'
p82
(lp83
S'atheist believe yeezus'
p84
aS'things learned kanye west\xe2\x80\x99s york times\xe2\x80\x99 interview'
p85
asS'2013_25'
p86
(lp87
S'recently died twitter'
p88
aS'finding someone likes mint stuff nerd easy'
p89
aS'wanna party wanna begin thank joining evening'
p90
aS'whats drugs dealer'
p91
aS'jason kidd back nets head coach deron williams even lethal running fast break next year you\xe2\x80\x99ll\xe2\x80\xa6'
p92
aS'female duck vaginas actually contain multiple \xe2\x80\x9cdead ends\xe2\x80\x9d help protect duck rape'
p93
aS'freeze opposite hipster doesnt like anything cool'
p94
aS'kanye couldwould make another song like cant tell nothing peace yeezus'
p95
asS'2013_27'
p96
(lp97
S'time truly forget problems playing favorite sport'
p98
asS'2013_20'
p99
(lp100
S'mangos enhance marijuana high allow \xe2\x80\x9chigher\xe2\x80\x9d effectively\xe2\x80\x9d'
p101
asS'2013_21'
p102
(lp103
S'previously arrested development'
p104
aS'dont emojis stopped reading picture books long time'
p105
aS'stfu'
p106
aS'preschool aint pussies first need beat someones become someones bitch gang hardened'
p107
asS'2013_22'
p108
(lp109
S'many people smoke marijuana claim dream quit dreams become extremely vivid intense'
p110
aS'started bottom whole pind'
p111
asS'2013_23'
p112
(lp113
S'lord never'
p114
aS'nice'
p115
aS'always escape plan'
p116
aS'classic classic fuck someone elses standards sound'
p117
aS'born sinner'
p118
aS'frends'
p119
aS'women need learn friends guys means list dudes trying bone'
p120
aS'mama know fool'
p121
aS'dont'
p122
asS'2012_49'
p123
(lp124
S'need alone like left'
p125
aS'fuck'
p126
aS'done real shit'
p127
aS'cant kill someone whos already dead inside word'
p128
aS'megalomaniac person extremely full overestimates abilities'
p129
aS'think people forget truly happy insane amount pain'
p130
aS'childish gambino'
p131
aS'ball'
p132
aS'sing falsetto jaan'
p133
aS'fuck account still'
p134
aS'less give damn happier'
p135
aS'loneliness physically mentally damaging'
p136
aS'drugs'
p137
aS'friends enemies strangers memories'
p138
aS'remember youre different person miss'
p139
aS'barfi actually good hindi movie realtalk'
p140
aS'exiles good times gooood times'
p141
aS'trying achieve much trying keep right people life'
p142
aS'even though fucked girl still fucking'
p143
aS'almost anyone want leaves'
p144
aS'please clear nigga please beware muthafuckin monster'
p145
aS'killer mood'
p146
aS'love winter whats weather fuck snow dafuq'
p147
aS'yeah girl'
p148
aS'learning something obscure like name crush often everywhere known baaderm'
p149
aS'think iphones playing love songs purpose shuffle nigga shuffle douchechill'
p150
aS'woke peanut butter house depression'
p151
aS'choices make think shes choosing right chance make right guess using right'
p152
aS'lana though'
p153
aS'never feed people compliments fishing'
p154
aS'cool heard camera'
p155
asS'2013_28'
p156
(lp157
S'clearly shouldve timelsameously'
p158
aS'need supreme dufflebag'
p159
aS'nothing feels better crashing allnighter'
p160
aS'little imma rich forever'
p161
asS'2013_29'
p162
(lp163
S'slang bunch narcotics'
p164
aS'lesson doesnt mean'
p165
aS'monday mornings always coldest'
p166
asS'2012_48'
p167
(lp168
S'continue feel everyday'
p169
aS'maybe years well meet coffee shoe away city somewhere could give another shot'
p170
aS'wrong time least thats tell self anyway'
p171
aS'thoughtsduringschool imma study stoned collegeproblems'
p172
aS'human mind spends time waiting hoping wishing something happen'
p173
aS'capricorn mood swings swing control time time'
p174
aS'kobe teammates pacers lakers'
p175
aS'earlwolf'
p176
aS'apparently twilight popular\xe2\x80\x9d teenagers relate yeah remember time vampi'
p177
aS'swear start think going crazy'
p178
aS'impossible lose never although would glad probably tattoo name heart'
p179
aS'youre catching time talk good times'
p180
asS'2013_5'
p181
(lp182
S'hidefinition lupe fiasco snoop dogg'
p183
aS'reason still facebook watch people hate become failures life'
p184
aS'fuck feelings'
p185
asS'2013_4'
p186
(lp187
S'head hurt gotta gimme something thatll make feel good'
p188
aS'lana damn'
p189
aS'time tweet lyrics lyrics'
p190
aS'cause asked love said dont know streets heart game soul'
p191
aS'thats point though love'
p192
aS'absolutely text faster pissed womantruth'
p193
aS'stress caused giving fuck truth'
p194
aS'lighters puffpuffpasstuesdays linecamera expressmore'
p195
aS'capricorn develops deep affection someone last forever'
p196
aS'king wizard cudi'
p197
asS'2013_7'
p198
(lp199
S'dont trust hoes'
p200
aS'constant drinking love songs awake night cause'
p201
aS'cares right right'
p202
aS'really like doesnt like'
p203
aS'went leave note girls dorm room door couldnt find dorm badluckvalentine'
p204
aS'willing work however long takes'
p205
aS'finding someone likes music best things world rare'
p206
aS'cuddling baby reading outloud cheating school getting business degree good efficient mind'
p207
aS'bill burr good'
p208
aS'getting paid tmrw winning boss getmoney getpaid fuckbitches hashtagabuse'
p209
aS'working till wake thirsty thursday'
p210
aS'girl right knows knows going phone bathroom'
p211
aS'whereee'
p212
aS'bridge troubled water'
p213
aS'nothing worse 1train'
p214
aS'whos feeling drowsy bychoice'
p215
ag7
aS'dont even know'
p216
aS'ihavenolovefor girl flirts every knows'
p217
asS'2013_6'
p218
(lp219
S'like back'
p220
aS'girls amazing night facebook pictures amazing nights never spoken brought'
p221
aS'chrome dome till glockjawed'
p222
aS'legal women walk around topless york city'
p223
asS'2013_1'
p224
(lp225
S'really think like becoming'
p226
aS'also love biscotti realtalk peacepeacepeace'
p227
aS'till peace myniggas'
p228
aS'want everybody accounts know huge surprise 13th justwaitandsee'
p229
aS'straight forgot birthday waiting saturday'
p230
aS'head hurts'
p231
aS'basketball life'
p232
aS'want back beginning question definition love'
p233
aS'whatever lead'
p234
aS'point good isnt good enough'
p235
aS'struggling enough'
p236
aS'could sponsor'
p237
aS'meds juice last night sunglassed'
p238
aS'years resolution stop pollution'
p239
aS'cowboy trip'
p240
asS'2013_3'
p241
(lp242
S'scared back shell laugh think desperate'
p243
asS'2013_2'
p244
(lp245
S'capricorn problem cutting cant come lives positivity'
p246
aS'early kidding fuck'
p247
aS'birthday jan13th immadie'
p248
aS'facade people fuck face'
p249
aS'fuck claim whenever'
p250
aS'young nigga lifelong dreams'
p251
aS'push lames aside'
p252
aS'weeknd wicked games'
p253
aS'skyfall'
p254
asS'2013_9'
p255
(lp256
S'calling making mess'
p257
aS'like lyrically inclined spiritually defined'
p258
aS'fadedd'
p259
aS'drive tryna keep'
p260
aS'hope youre well babe'
p261
aS'thought counts haha rite love happy fathers'
p262
aS'pussy money weed sall nigga need'
p263
aS'dont stop'
p264
aS'panel youtube ucla tonight looking forward seeing smart asian kids moore'
p265
aS'hate girls excuse theyre texters youre always phone stop'
p266
aS'mirror revealing'
p267
aS'ilovehow tweet text back'
p268
aS'cool nathuram godse'
p269
aS'saying understand history'
p270
aS'muslims allowed india hindus sikhs discriminated pakistan bullshitindependence foodforthought'
p271
aS'shaving beard might psychologically scarring experience life'
p272
aS'idea youre dealing'
p273
aS'creepyass people train station'
p274
aS'physically feel great stress mentally eroding'
p275
asS'2013_8'
p276
(lp277
S'doin shit shouldnt'
p278
aS'used good tweet'
p279
aS'girl youre girl youre girl youre'
p280
aS'blah blah bluh bluh blah'
p281
aS'dont really understand thing wanna'
p282
aS'next album gonna ruff drafts hahaha sound better'
p283
aS'need hold head jacking'
p284
aS'back'
p285
ag7
aS'peopleatmyschool grime'
p286
aS'bimmer bimmer bimmer bimmer'
p287
aS'fuck based thank bimmer repeat'
p288
aS'cookies brownies milk'
p289
aS'anything better 1train'
p290
aS'skateboard roll past like dood dood hate yall'
p291
aS'remind bimmer'
p292
aS'enjoy started bottom song alot'
p293
aS'first time life dont mind monday'
p294
aS'good kush'
p295
asS'2013_17'
p296
(lp297
S'eating leading procrastination nodoubt'
p298
aS'cant date dont sense humor'
p299
aS'weather erratic week'
p300
aS'mary jane actually killed spiderman\xe2\x80\x99s radioactive semen comics'
p301
aS'bert cooper patron saint sockporn madmen'
p302
asS'2012_52'
p303
(lp304
S'welcome good life'
p305
aS'heartless cared much'
p306
aS'song actin'
p307
aS'darling shouldve stayed'
p308
aS'cant fucking sleep capricorns mind never rest\xe2\x80\x9d'
p309
aS'smokn'
p310
aS'delhi rape victim succumbed injuries harrowing hear brutal assault punishment severe'
p311
aS'alone never feels right sometimes feels good never feels right'
p312
aS'king wizard cudi'
p313
aS'hook guys still hiring dropping resumes everyday'
p314
aS'mind building still slow time'
p315
aS'women think like intentions'
p316
aS'hence drugs'
p317
aS'minds fast processing shit imagine taking information time overloaded'
p318
aS'upset times fucked good times'
p319
aS'youre youre forever'
p320
asS'2012_50'
p321
(lp322
S'louis vuittons deuces'
p323
aS'hard though actually hard iseenit'
p324
aS'dont know imma manage youd leave'
p325
aS'michael jackson lame'
p326
aS'basic bitches theyre blessed ltltltltlt stfu take seat'
p327
aS'knows theres life shes scared ending alone'
p328
aS'glass watch mouth'
p329
aS'find create andor sign petitions prevent tragedy like area beproactive guncontrol'
p330
aS'sending deep tweets violence tragedy helping situation punk back'
p331
aS'gotta feeling niggas leading niggas feeding word'
p332
aS'whoever love tell'
p333
aS'tush mull bish'
p334
aS'drafts'
p335
aS'eminem evil deeds'
p336
aS'impossible lose never although would glad probably tattoo name heart'
p337
aS'really think like becoming'
p338
aS'brigga tells sales associate bitch clerk'
p339
aS'cant fuck'
p340
aS'word'
p341
aS'started studying final friday challengeaccepted'
p342
aS'back faggots dykes talk'
p343
aS'hahaha bitch library asked amithab buchan said sharookhan rithick'
p344
aS'finals imma sleep till birthday wake muthafuckin cake'
p345
aS'exams driving crazy stressed confused'
p346
aS'snap chats though'
p347
aS'capricorn develops deep affection someone last forever'
p348
aS'study grind nosleep'
p349
aS'spoken word open events gtgtgtgt'
p350
aS'tortured dreams'
p351
aS'allnighters though'
p352
aS'fucking talk gmail foreveralone ineednewfriends'
p353
aS'explored world return soul begun'
p354
aS'punjabis punjab rupees machod like please remind remix flexx'
p355
aS'common intro'
p356
aS'samsonite peace'
p357
aS'drunk nights remembered sober ones'
p358
aS'physics word'
p359
aS'capricorns like keep small circle loyal friends'
p360
aS'dont ishh asymbolia condition causes people immune feeling pain\xe2\x80\x9d'
p361
aS'made playlist cause going shit friend busy getting faded'
p362
aS'realize true friends youre alone realtalk truth'
p363
aS'danny brown grown toogood'
p364
aS'funk volume snobs'
p365
aS'sleep till finals wake birthday'
p366
aS'13th gtgtgtgt nigggga'
p367
aS'imma drown poison abusing limit'
p368
asS'2012_51'
p369
(lp370
S'dont trust hoes thats result paying attention'
p371
aS'girls hangout guys there\xc2\x92s less drama\xc2\x94 hangout there\xc2\x92s drama don\xc2\x92t wear'
p372
aS'cool story jaan rehnde'
p373
aS'wanna free spirits left'
p374
aS'bitter taste sugarless black coffee sweetest thing'
p375
aS'thinking much good times didnt times coming'
p376
aS'nights like madreal'
p377
aS'worst nightmare first night girl right knows knows'
p378
aS'ones smoke blunt picture wanna grab guns come'
p379
aS'fuck tomorrow night though icantwait'
p380
aS'many girls dont like rutgers ejkerkj'
p381
aS'niggas tryna push could trigger happy wont happy'
p382
aS'word well fucked'
p383
aS'getting even prefer ahead'
p384
aS'hidden agenda provoking'
p385
aS'yeah forgot douchebag'
p386
aS'cook basically awesome fuck single realtalk'
p387
aS'mushroom cheese omelette cooked gtgtgt'
p388
aS'money gonna tattoo'
p389
aS'need'
p390
aS'like women town would'
p391
aS'stopping wont'
p392
aS'final'
p393
aS'thats girl'
p394
aS'goddamn hate everybody finished exams jelly'
p395
aS'waiting tell nothing'
p396
aS'live like king work hard slave'
p397
asS'2013_37'
p398
(lp399
S'know fame'
p400
aS'ternin watr wine getin durnk 2nite'
p401
aS'solid carbs liquid protein dead'
p402
aS'might today gonna commit murder'
p403
aS'somebody wouldve told year difficult'
p404
asS'2013_36'
p405
(lp406
S'much food cant even photo feast lawd'
p407
aS'never bite hand feeds always watch hand thats cooking'
p408
aS'pumpkin spice latte mirror times white girl yoga pants appear tell favori\xe2\x80\xa6'
p409
aS'wilfred took really dark turn'
p410
aS'extra bright want yall'
p411
aS'sometimes gotta root villains sometimes villains right sometimes villains better'
p412
aS'statistics comp sigh'
p413
aS'motto'
p414
aS'found mens bathroom serc rutgers ohlawd'
p415
asS'2013_35'
p416
(lp417
S'workouts kill gtgtgt'
p418
aS'zeezus'
p419
aS'good aint good enough'
p420
asS'2013_34'
p421
(lp422
S'shes dating shes texting'
p423
aS'think better hova'
p424
aS'making money spare time working'
p425
aS'truth becomes treason empire lies'
p426
aS'embarrass self science'
p427
aS'greatest shows workaholics blue mountain state'
p428
asS'2013_33'
p429
(lp430
S'notorious big\xe2\x80\x99s interlude ready receiving oral real audio receiving oral recordin\xe2\x80\xa6'
p431
aS'carry traits traumatized soldier'
p432
aS'look girls become best friends girlfriends'
p433
aS'clear history newfavoritemovie'
p434
aS'selfconscious'
p435
asS'2013_32'
p436
(lp437
S'yessir'
p438
aS'beast mode yall week'
p439
aS'people genetically function hours sleep\xe2\x80\x9d'
p440
aS'yeezus classic holdmyliquor'
p441
aS'people arent buried till'
p442
aS'word'
p443
asS'2013_31'
p444
(lp445
S'punjabi come back vengeance'
p446
aS'life might turning gatsbys'
p447
aS'piece today'
p448
aS'mind blown'
p449
aS'gonna hand chocolates action bronson hahaha best performance millennium'
p450
aS'open debate\xe2\x80\xa6 verse slaves best verse time\xe2\x80\xa6meaning time history'
p451
aS'hearing bill oreilly head start studying test fuck live'
p452
aS'hardest part rollerblading telling parents youre'
p453
aS'manchester city'
p454
aS'made huge mistake'
p455
aS'losing grip control capricorns worse fear'
p456
asS'2013_30'
p457
(lp458
S'medusa head'
p459
aS'swear mood changed'
p460
aS'wanna stars everyone looks upto'
p461
asS'2013_18'
p462
(lp463
S'starting fuck attitude everything'
p464
aS'still scared lose store'
p465
aS'feel pain city wherever'
p466
aS'true'
p467
aS'duhti'
p468
aS'nigga pharrell voice angel crwn quote year'
p469
aS'shucks poop'
p470
aS'nice long'
p471
aS'like iguodala ballgame late 3rdq leads 8365'
p472
aS'thats cookiedough good alternative'
p473
aS'know awful people arent friends'
p474
aS'mint chocolate chip lebest'
p475
aS'feel like code like lives contra'
p476
aS'either theyre going lose going'
p477
aS'ladies takes hour ready arent cute think'
p478
aS'nights'
p479
asS'2013_39'
p480
(lp481
S'fuck heard'
p482
aS'first reached 3000 gains'
p483
aS'please definitely zone'
p484
aS'drake type nigga whod write names students talking teacher'
p485
aS'massin'
p486
aS'right thing right personbut wrong time everything gets twistedsomebody timing'
p487
aS'good adjust'
p488
aS'read book medical school getting medical school'
p489
aS'eating yogurt fork noshame'
p490
aS'right answer circled wrong choice ltltlt'
p491
aS'friends'
p492
asS'2013_38'
p493
(lp494
S'ios7 moss'
p495
aS'last night didnt well almost kicked hostel'
p496
aS'shit puts thankyou greatest'
p497
aS'taken instagram account think think never logging drunkwithpow\xe2\x80\xa6'
p498
aS'physics physics whoknew'
p499
asS'2013_11'
p500
(lp501
S'fuck based thank'
p502
aS'everyone'
p503
ag7
aS'wolf april'
p504
aS'cant make time fuckem'
p505
aS'celebrating post demise'
p506
aS'drown sorrows alcohol word imdown'
p507
aS'snowing fackk'
p508
aS'happy keef back'
p509
aS'tupac said'
p510
aS'dressed something fresh wonderful'
p511
aS'trying gold trophy committee peers validation'
p512
ag7
aS'hope weather today wont occur springbreak'
p513
aS'fucked nigga used really hate shameful'
p514
aS'used chicks homework like calculus writing essays shit whipped'
p515
aS'shouldnt sharing shit haha'
p516
aS'youre supposed bigpicture goals small ones along ones concentrate sidetracked'
p517
ag7
aS'skeletons closet'
p518
asS'2013_10'
p519
(lp520
S'loiter squad tonight yall'
p521
aS'population lefthanded'
p522
aS'love college'
p523
aS'fucked shit happening might year'
p524
aS'yall fresh death deceased'
p525
aS'bastardfrenchvcryonkersshebsdrellanysamisdeadfebndomo23bimmer music vids done'
p526
aS'theres something bout girl'
p527
aS'beautiful amazing outside going depression'
p528
aS'best thing finding song like spending hours youtube trying find loving alll'
p529
aS'ofwgkta'
p530
aS'girls text first every awhile thankyou'
p531
aS'eating gourmet noodles foreveralone'
p532
aS'like supposed rely niggas'
p533
aS'friends'
p534
aS'ones'
p535
aS'automaticturnons athletic body'
p536
aS'hoping everything goes according'
p537
aS'lose'
p538
aS'studying 3050 minutes time minute breaks effective retain information'
p539
aS'stressing little shit shouldnt fuckmylife'
p540
aS'many research papers read'
p541
aS'heaven holds faithful departed'
p542
asS'2013_13'
p543
(lp544
S'look stole streetness goodmorning'
p545
aS'august 13th national lefthander\xe2\x80\x99s'
p546
aS'people wanna hero story without supporting characters'
p547
aS'dont even anymore expect bullshit people'
p548
aS'breakfast class'
p549
aS'always'
p550
aS'know beautiful read third word'
p551
aS'popppped mirch sweatin wooo punjabiproblems'
p552
aS'things fucked'
p553
aS'barely pass every class lookin every cheatin every test guess dissertation goodmorning'
p554
aS'high imma light become bright'
p555
aS'fuckyourlist'
p556
aS'icymi lebron ampamp birdman threw ferocious alleyoops tonight goddamn'
p557
aS'gonna light tmrw'
p558
aS'bright tmrw'
p559
aS'bright'
p560
aS'since loving years gone tangerine stairway heaven going california'
p561
aS'past side glass memories museum'
p562
aS'hard hard'
p563
asS'2013_12'
p564
(lp565
S'feeling things happen pass make stay'
p566
aS'capricorn vindictive jealous selfish extremely moody'
p567
aS'wake real night ihop'
p568
aS'sosa'
p569
aS'hearing jokes know trying push'
p570
aS'spring break'
p571
aS'colder heart outside'
p572
aS'excited hide word'
p573
aS'quite difficult'
p574
asS'2013_15'
p575
(lp576
S'wanna ball hard'
p577
aS'pursued pursuing busy tired'
p578
aS'back'
p579
aS'lost frank ocean'
p580
asS'2013_14'
p581
(lp582
S'bimmer'
p583
aS'hate month'
p584
aS'room'
p585
aS'word jealous'
p586
as.