(dp0
S'2013_42'
p1
(lp2
S'ciao bella'
p3
aS'shit fancy someone dont fancy isnt'
p4
aS'want back england sick back shitty weather'
p5
aS'literally every single person italy relationship'
p6
aS'literally alls hear italians speak lahdgsjzoahsisus pasta udjsndixksnxbx spaghetti'
p7
aS'asked asian person pointed eyes went hong kong nearly fuckin died swear'
p8
aS'miss england much'
p9
aS'goin italian hahaha'
p10
aS'feel lost without chloe'
p11
aS'reply later'
p12
aS'missed twitter'
p13
aS'thanksxxx'
p14
aS'liverpool airport'
p15
aS'gals listening thunder watching lightning excited italy'
p16
aS'video gorilla sexy'
p17
aS'thank hope'
p18
aS'know love picture'
p19
aS'pink'
p20
aS'absolutely shitting italy wish coming young shit hair'
p21
aS'tagtwostoners'
p22
aS'stinks weed liverpoolbusproblems'
p23
aS'dont even know anyway would someone called cunt makes absolute bellend public'
p24
aS'shit debating even watching next series'
p25
aS'gary'
p26
aS'mitch fucking idiot'
p27
aS'geordie shores without originals'
p28
aS'miss hilarious liners getvickyback'
p29
aS'clearly love married'
p30
aS'love much'
p31
aS'geordie shores started even marnies face pissed'
p32
aS'kinell every time facebook someones relationship'
p33
aS'shut smart asssss'
p34
aS'gimp'
p35
aS'swear fight'
p36
aS'bones aching'
p37
aS'swear look like model'
p38
aS'okie dokie xxxx'
p39
aS'excited time drop tomorrow xxxx'
p40
aS'converse serve purpose ruin feet'
p41
aS'funny watching different generations leasowe kids hang around shops'
p42
aS'yesss doll thats xxxx'
p43
aS'realising cant fucking stand someone knowing years great'
p44
aS'ingrid michaelson amazing'
p45
aS'dont drop thun thun thun'
p46
aS'cute shopping trip best last minute bits italy excited'
p47
aS'first series geordie shore hilarious never gets'
p48
aS'wish could parts body dont like'
p49
aS'sure love human'
p50
aS'cant video dancing earthquake hahaha'
p51
aS'original source shower literally best smelling thing ever'
p52
aS'homework going going watch prison break instead dedicated'
p53
aS'motto year girl neck cousin lampb'
p54
aS'megan lookalike crying'
p55
aS'thick havent written homework'
p56
aS''
p57
aS'weekdays weekends constantly boring'
p58
aS'gimp fancy people'
p59
aS'fingers crossed'
p60
aS'cant believe interview cant italy fume'
p61
aS'bloody hell chlo'
p62
asS'2013_43'
p63
(lp64
S'fuckin'
p65
aS'luke friend needs good wash'
p66
aS'theres nothing remotely attractive lady gaga'
p67
aS'shit lady gaga definitely epileptic'
p68
aS'cringe gaga comes'
p69
aS'facot shat locked heaven'
p70
aS'dead cute friendsthumbsupfriends'
p71
aS'love kendrick lamar though really though'
p72
aS'puppys humping teddy dont know didnt know girl dogs humped things'
p73
aS'brown huuuuuur dont cuuuuur'
p74
aS'slow replies stress'
p75
aS'knew reason hated carving pumpkins fuckin shit'
p76
aS'fine like time'
p77
aS'prove'
p78
aS'boss cook'
p79
aS'obviously'
p80
aS'eaten much shit today'
p81
aS'legs like fuckin razor blades could shaved legs quote night'
p82
aS'gutted werent morning'
p83
aS'goin weeeeeeeeeerk werk'
p84
aS'gonna faaaat today fuckthediet'
p85
aS'reckon popular'
p86
aS'shaunie makes weird noises sleep'
p87
aS'human body trillion nerves people manage every single fucking'
p88
aS'horrible mood shouldnt deprived sleep'
p89
aS'peppa isnt george dinosaur rawr'
p90
aS'actually tired even getting couch means using much energy'
p91
aS'punjabjay'
p92
aS'hahaha'
p93
aS'fuckin fumin'
p94
aS'izzie eleccy ciggies last night'
p95
aS'morning'
p96
aS'love much'
p97
aS'best'
p98
aS'yeah probably moaner'
p99
aS'look disgusted'
p100
aS'youre model'
p101
aS'exciting wore jeans first time'
p102
aS'hour sleep amazinggg'
p103
aS'personally wont happy charlotre together'
p104
aS'7c58ef73 please interesting'
p105
aS'theyre cute hahaha'
p106
aS'nooo theyre great'
p107
aS'best looking dogs ever seen'
p108
aS'puppy dopey took walk carry back scared traffic'
p109
aS'bastille covers always best'
p110
aS'auntie currently singing along missing like fuckin gospel choir'
p111
aS'need someone interesting life'
p112
aS'cheese toastie call mcdonalds'
p113
aS'dont leave hanging'
p114
aS'dont know whether interview'
p115
aS'cant wait night'
p116
aS'misophonia'
p117
aS'havent used twitter properly days'
p118
aS'gwed'
p119
aS'reckon though'
p120
aS'youre lying'
p121
aS'wont'
p122
aS'knob'
p123
aS'calm calm'
p124
aS'yeyeye thats obviously isnt poutinell'
p125
aS'wasnt forced'
p126
aS'love'
p127
aS'back already ratio weirdos normal contacts shocking'
p128
aS'needs stop pressurising gettin kinell'
p129
aS'stinks smackhead piss liverpoolbusproblems'
p130
aS'fuckin joke'
p131
aS'bbmpin 7c58ef73'
p132
aS'love chicka'
p133
aS'hahahahah'
p134
aS'brown heads'
p135
aS'fancies'
p136
aS'tomorrow'
p137
aS'well stay'
p138
aS'sleepover'
p139
aS'always bevvied prove'
p140
aS'dawg'
p141
aS'shurrup want'
p142
aS'shes currently applying water buuuuuurn'
p143
aS'shutup luke dont even'
p144
aS'want pink shirt back'
p145
aS'gaaaaaaay xxxxxx'
p146
aS'happy birthday pretty eyes xxxxx'
p147
aS'home fuckin minutes'
p148
aS'goin full brown'
p149
aS'7c58ef73'
p150
aS'homeeeee'
p151
aS'coming home'
p152
aS'miss everyone'
p153
aS'never singing stage fuck'
p154
aS'good bored'
p155
aS'missed best mate loads actually find hard cope without nugget head'
p156
aS'missed chicken'
p157
aS'bestfriend home tomorrow ahhhhhhh'
p158
ag57
aS'fucking idiot'
p159
aS'barrylad'
p160
asS'2013_40'
p161
(lp162
S'want pros relationship without commitment'
p163
ag57
aS'deserves hinting'
p164
aS'hint hint'
p165
aS'clich\xc3\xa9 lambrini sponsoring liverpool fashion week typicalscousedrink'
p166
aS'please help need shit load hahah\xf0\x9f\x98\x82'
p167
aS'keep nightmares massive spider crawling going really shitting'
p168
aS'hate born nowhere forced school ampwork endless hours like isnt fair'
p169
aS'insist watching prison break stupid times'
p170
aS'look amazing halloween outfit outfit abbys 18th determined motivated'
p171
aS'people treat girls shocking'
p172
aS'really expected make really'
p173
aS'acoustic cant stop amazing'
p174
aS'drivers refuse smelly people advise money shower fuckinell'
p175
aS'youd notice smelt well hard fucking realise smellybastards'
p176
aS'would even leave house smelt'
p177
aS'starbucks typicalwhitegirlpose'
p178
aS'swear picked smelliest people world behind smelt stale knocking sick'
p179
aS'cute loved'
p180
aS'theres lookalike working starbucks breathe obsessed wheaton'
p181
aS'liverpool oooooooooo'
p182
aS'naked body fresh shower touch hours'
p183
aS'like dont know eachother anymore'
p184
aS'hahahaha moretons strange place'
p185
aS'goin liverpool took selfie rare occasion lidapewl'
p186
aS'annoys people full face makeup leave eyebrows'
p187
aS'fail understand fault lost keys'
p188
aS'freak moped accident'
p189
aS'entire population wishes chair'
p190
aS'true'
p191
aS'youd lying said didnt want rihanna pour video'
p192
aS'times like wish animal crossings game'
p193
aS'even think better anyone else hahahahah'
p194
aS'done nice yous fuck'
p195
ag57
aS'funny swear cryin'
p196
aS'snitches stitches shaun tits tits tits bois slaggymeasures'
p197
aS'oooo really angry nothings even happened'
p198
aS'finger'
p199
aS'fingered mate luke'
p200
aS'obviously'
p201
aS'born massive cunt'
p202
aS'really would'
p203
aS'record watch repeat'
p204
aS'stand people throw accusations around actual fact accuse theyve probably done something'
p205
aS'thats catchy film title'
p206
aS'well least could film dedicated'
p207
aS'well feel'
p208
aS'enjoy much enjoy'
p209
aS'dont want seal wanted mermaid'
p210
aS'basically'
p211
aS'mermaid dreams ruined'
p212
aS'would mermaid dont understand'
p213
ag57
aS'spotty swear could face'
p214
aS'someone please entertaining snapchat chloeohanlon'
p215
ag57
aS'really think everyone would happier mermaids real'
p216
aS'opinions invalid know born babies teeth skull'
p217
aS'proper fucking pisses people mood take fucking smile'
p218
aS'wish tonight'
p219
aS'italy days halloween party 18th next month park things excited understatement love gals\xe2\x99\xa5'
p220
aS'cant believe still upset need sort head stop pathetic much look forward'
p221
aS'bein vain arent selfie'
p222
aS'suggest reevaluate life wear cuffed jeans'
p223
aS'fuck disney channel adverts'
p224
aS'neither'
p225
aS'regardless cute'
p226
aS'cute hahaha'
p227
aS'wait halloween year'
p228
aS'kids loud'
p229
aS'dont know people think dictating cannot authority life'
p230
aS'fucking idiot'
p231
aS'awkward'
p232
aS'sarcastic cant tell think emoticon needed clarify mrsrodgersmakesmeoveranalyse'
p233
aS'sorry'
p234
aS'forever teacher arent'
p235
aS'english language student know abbreviations often pragmatic meanings alevels'
p236
aS'said yeye'
p237
aS'never dance another since standing beatlesbangers'
p238
aS'cheese toast cute'
p239
ag57
aS'bored time'
p240
aS'thing boys curly hair'
p241
aS'shit tits'
p242
aS'baby drive maybe love'
p243
aS'look fucking size'
p244
aS'took half hour fill application form omfg'
p245
aS'bored'
p246
aS'havent watched prison break ages looks like thats plan tonight'
p247
aS'even joking seen unicycle juggling road'
p248
aS'dont figure heart'
p249
aS'nightmare getting school today like'
p250
aS'listening disclosures album knowing cant weekend'
p251
aS'always late school'
p252
aS'tired feels like eyes glued together'
p253
aS'keep thinking hahahaha'
p254
aS'good luck'
p255
aS'youtube shaunie enjoy'
p256
aS'defo reckon'
p257
aS'yeye defo alistair'
p258
aS'tears literally came eyes'
p259
aS'dont next week haha thing havent done'
p260
aS'might making check'
p261
aS'hahaha silly thats next weeks think cant believe youve started risky'
p262
aS'shit written loads'
p263
aS'yeah well think thats done'
p264
aS'hahaha said data found text messages sent year alistair various participants show'
p265
aS'gave afro didnt well attempted innerblack'
p266
aS'almost function love'
p267
aS'kick little face'
p268
aS'main fuckin huddersfield whos supplyin whilefuck tile djsmilethemainmaninhuddersfield'
p269
aS'fuckin hilarious'
p270
aS'look looked dickhead'
p271
aS'fire starts burn right starts spread bring attitude home'
p272
aS'someone give ticket 1975'
p273
aS'obviously'
p274
aS'dont brolly decides piss'
p275
aS'loved'
p276
ag57
aS'trust'
p277
aS'year walked past said shake really dont know feel'
p278
aS'give havent youll back dick tomorrow'
p279
aS'fell asleep together couch bondin'
p280
aS'kinell escalated quickly'
p281
ag57
aS'usually well asleep instead overthinking everything shit'
p282
aS'deep conversation like heavy'
p283
aS'wanting something cant worst'
p284
aS'need people text socialise'
p285
aS'shit phone'
p286
aS'stuggle understand anyone would want wear tranmere home bargains written right across front'
p287
aS'chesire oaks daddy\xe2\x99\xa1'
p288
aS'crying female obama'
p289
aS'everyones dead cute relationships theres commitment english coursework'
p290
aS'rodgers reckon shes classes best mates'
p291
aS'isnt awkward whatsoever'
p292
ag57
ag57
aS'knowing difference youre basically admitting world youre retarded'
p293
aS'fuckin moan moan moan swear youve wrote tweet times reworded'
p294
aS'shaunies'
p295
aS'embarrassed neveragain'
p296
ag57
aS'yeee'
p297
aS'whys everyone bein boring shaunie'
p298
aS'maybe sure'
p299
aS'snapchat chloeohanlon'
p300
aS'someone meeee'
p301
ag57
aS'youre funny'
p302
aS'snapchat need entertaining chloeohanlon'
p303
aS'shit shit shit shit fucking time'
p304
aS'oopsy contradiciting'
p305
aS'hate getting'
p306
asS'2013_41'
p307
(lp308
S'regret lazy sleeping half today cant sleep'
p309
aS'tired enjoying conversations much sleep'
p310
aS'life marry someone geordie accent'
p311
aS'neeeed someone text'
p312
aS'right back'
p313
aS'play hair giggle shyly first date hell never guess youll ruin fuckin life'
p314
aS'looking someone thinkin youve always havent tell'
p315
aS'favourite tweet always want person ohey'
p316
aS'life'
p317
aS'cyber flirting'
p318
aS'stop making well hafta catch point dollx'
p319
aS'getting worked right hahahaha'
p320
aS'scouse intellect swear'
p321
aS'missing chick thinking'
p322
aS'hahaha wish eyebrows'
p323
aS'pussy religion need'
p324
ag57
aS'swear felt like worst person entire world'
p325
aS'confused'
p326
aS'mums pretty'
p327
aS'hahaha'
p328
aS'cryin'
p329
aS'cried much'
p330
aS'snapchats hottest people ever'
p331
aS'always think wouldnt dead cute meet someone twitter fall love travel across england think effort'
p332
aS'chili peppers always hold title greatest bands ever'
p333
aS'find hard trust people show half face icons'
p334
aS'evil hahaha'
p335
ag57
aS'honest'
p336
aS'defo doin gurl'
p337
aS'makin twerk'
p338
aS'almost kicked thought suttin dancin'
p339
aS'buzzin went stage cool rooms beach life'
p340
aS'wish goss converse goin live coolies'
p341
aS'true true doll exciting news'
p342
aS'neck pure'
p343
aS'walked went decided youre boyfriend want able neck lads orite'
p344
aS'life'
p345
aS'year going school pairs false eyelashes could assed though spider eyes'
p346
aS'feel knowing little brother better looking'
p347
aS'diet well truly gone window weekend'
p348
aS'point exes things purposely piss'
p349
aS'hahaha dick'
p350
aS'cant wait tonight missed loads'
p351
aS'bored'
p352
aS'last nightttt'
p353
aS'cooking sausage bacon omelette surprised head chef'
p354
aS'would anyone face'
p355
aS'funny night'
p356
aS'tired hours sleep mystery'
p357
ag57
ag57
aS'dying boredom someone'
p358
aS'xxxxxxxx'
p359
aS'look nothing like ahahahaha numpty'
p360
aS'dont burst bubble'
p361
aS'theyre nice people aint'
p362
aS'waiting notice'
p363
aS'lupe fiascodaydreamin still fuckin banger'
p364
aS'instantly regret sleeping four hours'
p365
aS'know know'
p366
aS'well didnt think answered anyway yeyeye fingers crossed'
p367
aS'rang laughed answered true might'
p368
aS'bully'
p369
aS'obvs meant boss'
p370
aS'took hours cant sleep boos'
p371
aS'rodgers doesnt appreciate fact done essay even though fumin'
p372
aS'smooth criminal'
p373
aS'still tired sleeping four hours beyond rodgers homework shootme'
p374
aS'asleep since'
p375
aS'order online send someone revenge'
p376
aS'died cheddar'
p377
aS'mums rush rabbit vets shes dying shouldnt laughing like something casualty'
p378
aS'trouper still going school tomorrow even though poorly'
p379
aS'pinocchio said nose going grow would wouldnt fucked head days'
p380
aS'lads assume tell youre meeting away'
p381
aS'mate'
p382
aS'people grunt need sort'
p383
aS'hahahahaha door hahahaha dipshit'
p384
aS'fuckin ridiculous girls actually lads piss girls'
p385
aS'wish girl could whole mcdonalds still skinny girl eats fredo gains stone'
p386
aS'want fake stay longer'
p387
aS'dont hate beautiful nofilter nomakeup facemask'
p388
aS'fuck wrong wifi'
p389
aS'arent working'
p390
aS'fuckinell people really still marriages facebook'
p391
aS'cant believe nearly rodgers'
p392
aS'lyin'
p393
aS'hilarious chase year cousin house knickers'
p394
aS'kids block make happy'
p395
aS'wait ages halloween party fuckinell'
p396
aS'wait enough whatever fuck want whoever fuck want'
p397
aS'people need fuck'
p398
aS'fuck everyone hulk mask'
p399
aS'watched video lion king havent scouted talent agency really dont know'
p400
aS'year girls possibly annoying creatures'
p401
aS'diet kids eating loads oreos front hope gets'
p402
aS'niggas'
p403
aS'singlebecause dont reason'
p404
aS'want ground open swallow'
p405
aS'hate single well fucking difference make posting twitter bellend'
p406
aS'finding something makes heart sink shite'
p407
aS'hahaha penguins ugly without feathers'
p408
aS'penguins great'
p409
aS'penguins joints equivalent knees'
p410
aS'haha well feel like shit'
p411
aS'feet attached little legs maybe fluffy kneecaps'
p412
aS'serious question really want know'
p413
aS'penguins knees'
p414
aS'upset missed girls thank fuck iplayer'
p415
aS'absolutely shattered'
p416
aS'little dirt never hurt nobody dirt body'
p417
aS'jcoleforbidden fruit gtgtgtgtgtgtgtgtgt'
p418
aS'every single song miley cyrus album banger'
p419
aS'really dont know whether stay miserable nans miserable lose lose situation'
p420
aS'dont want boyfriend someone watch prison break criminal minds'
p421
aS'need something fucking bored'
p422
aS'listening sort club music monday'
p423
aS'shit time keeping'
p424
aS'title dylan chloe defo plan goin sleep night fellow joker'
p425
ag57
aS'matter thinking youre funny matter knowing funny shit made movies sell line shit'
p426
aS'funny people film even shitterer early'
p427
aS'chat shit funny ultimately means youre funny lifes shit shit'
p428
aS'dont worry faith pray'
p429
aS'everyones much friendlier talkative time'
p430
aS'clearly youre multi talented famous'
p431
aS'everyones fell asleep'
p432
aS'obviously away taking piss people'
p433
aS'smart knew tell joke worried offend'
p434
aS'dont pressure'
p435
aS'well arent crazy motherfucker'
p436
aS'really dont know whats wrong right'
p437
aS'people like comedians time night including midnight comedian'
p438
aS'someone bored'
p439
aS'urge people know cant'
p440
aS'everyones boring time'
p441
aS'mean girls came years still relevant thing ever seen'
p442
aS'scousers experts shit dont make noise'
p443
aS'phillip schofield cant remember fish morning'
p444
aS'love could fall asleep demand'
p445
asS'2013_46'
p446
(lp447
S'thank tonight thanks brick lane turban'
p448
aS'miley cyruss voice xfactor wasnt unbelievably amazing youre definitely liar'
p449
aS'tumblr knows'
p450
aS'going assume youre massive emmerdale westlife'
p451
aS'well known face probably carltons joey essexs'
p452
aS'celebrity definitely called famous probably dont even know'
p453
aS'cant cope without phone\xf0\x9f\x98\x92'
p454
aS'least agree hahaha'
p455
aS'pictures heavy'
p456
aS'shit find pictures'
p457
aS'lidl wain'
p458
aS'happy invited back lipa'
p459
aS'hate home alone\xf0\x9f\x94\xab'
p460
aS'could lose pound phone middle field basically sober well'
p461
aS'cant believe lost phone middle field'
p462
aS'proper fumin'
p463
aS'wrote tweet didnt'
p464
aS'jacob melia fave'
p465
aS'hate spelling words wrong tweets wanting delete favourites retweets'
p466
aS'eminems rhyme reason mixed time season unreal'
p467
aS'finally looks similar emojis samsung chlo'
p468
aS'finally feel relaxed sorted everything school'
p469
aS'miss little'
p470
aS'perfect'
p471
aS'want boyfriend like tessas'
p472
aS'emotional wreck'
p473
aS'emotional film swear'
p474
aS'sobbing little heart good'
p475
aS'good amazing film'
p476
aS'dont want move'
p477
aS'sucker love youre sucker dick'
p478
aS'durex'
p479
aS'time magazines definition perfect body 1955'
p480
aS'baby elephants'
p481
aS'funny minute happy gangans song head makes realise much miss'
p482
aS'someone hold perfect'
p483
aS'wish people would stop assuming gimp social life fuck sending candy crush requests'
p484
aS'kian westlife celeb swear dreams came true fuckessexitsallaboutireland'
p485
aS'thats little brother dont call twat'
p486
aS'whys little brother broadcasting'
p487
aS'thinks youre stupid hahaha silly girl'
p488
aS'ooooo shes hard haaaaa'
p489
aS'little soul mate'
p490
aS'definitely understands saying'
p491
aS'sounds love life everyone couldnt feel happier\xe2\x99\xa1\xe2\x99\xa1'
p492
aS'girls horrible'
p493
aS'pleased lost four half pound week wont calling slag couple weeks haaaaaa'
p494
aS'youve shit comin mouth'
p495
aS'many people chat shit'
p496
aS'cant wait weekend'
p497
aS'sobbin hahaha'
p498
aS'jealous hahahahaha imbeciles'
p499
aS'amazing'
p500
aS'really amazing'
p501
aS'sorry wont picture another ever'
p502
aS'yous share boys inbreds'
p503
aS'love people make rumours nothing better howsad'
p504
aS'went gonna make hunters chicken went whats cunters chicken hahahahaha cunters chicken'
p505
aS'cant wait done tonight ahhh'
p506
aS'girls funny arent assumin people jealous'
p507
aS'love eminem solidified marshall mathers best album heard ages'
p508
aS'little brother stripped naked went heeeey sexy lady hahahaha'
p509
aS'hahahaha stop nasty enough'
p510
aS'booted leasowe bein cretins'
p511
aS'cant gold bought ooer'
p512
aS'love slag'
p513
aS'well havin scatty little dogs callin slags nooo'
p514
aS'please'
p515
aS'wouldnt even mind slags could practically convent silly'
p516
aS'hahaha funny angry arent haha haha'
p517
aS'horrible cunts'
p518
aS'leasowe reject'
p519
aS'bored gonna nice conversation haters lebb'
p520
aS'whole bottle fake face still reckon youre better anyone else listen tango fuckin blast wash'
p521
aS'youre going insult mate least right youre golden nugget mate fuuuuck offff'
p522
aS'know boxers better nose'
p523
aS'make sure youre perfect start picking peoples insecurities'
p524
aS'fucking idiot full blown fucking twat right prick'
p525
aS'calling girl doesnt make fuckin prettier'
p526
aS'crying john lewis advert'
p527
aS'shout cant'
p528
aS'proper drinking becks like'
p529
aS'girls weird psychopath'
p530
aS'strong competitor gayest instagram post'
p531
aS'gwed'
p532
aS'believe weirdos robbin year nanas knickers response still dear'
p533
aS'obsession rocks brown fucking whole towns relfection mental health'
p534
aS'love people twitter theyre live miles away'
p535
aS'pisses right people dont text back'
p536
asS'2013_47'
p537
(lp538
S'humans develop arsehole first unfortunately people didnt develop fuckin'
p539
aS'emma'
p540
aS'chat line like face'
p541
aS'look cute poutin crumpet joanscrumpet joancanpoutbetterthanyou'
p542
aS'really bothered using public transport today'
p543
aS'tired eyes sticking together'
p544
aS'sleeping'
p545
aS'shurrup'
p546
ag57
aS'youre confusing'
p547
aS'obviously'
p548
aS'youre attractive list cass'
p549
aS'find least people follow attractive'
p550
aS'think agree misfits turned shit minute killed nathan'
p551
aS'someone whos interesting'
p552
aS'7b01aaa0'
p553
aS'girls prettier side face called snapchat side'
p554
aS'unreal many people twitter'
p555
aS'exactly'
p556
aS'people bent thumbs come dont ashamed people like'
p557
aS'thought'
p558
aS'thumbs cool'
p559
aS'twins'
p560
aS'hahahaha'
p561
aS'look last tweet'
p562
aS'yeah thumbs bent'
p563
ag57
aS'well blowing heads girl love chicken\xf0\x9f\x90\x94\xf0\x9f\x92\x97'
p564
aS'love girl\xf0\x9f\x92\x97 back'
p565
ag57
aS'everyone waiting moment'
p566
aS'date girlfriendboyfriend probably reevaluate life'
p567
aS'lick nose jealous\xf0\x9f\x91\x83\xf0\x9f\x91\x85'
p568
aS'phases wanting boyfriend wanting single'
p569
aS'realllllly wanna pictures'
p570
aS'wanted watch kardashian watch tape dont need watching weird fuckin music video'
p571
aS'shake watch shake show youre working'
p572
aS'repeat'
p573
aS'half people hate best friend hating vice versa thats sisterhood\xf0\x9f\x91\x8a'
p574
aS'today teacher went hate girls called birds said girls peck head thought meant give head omfg'
p575
aS'sorry smell like scotch probably time bath'
p576
aS'love selfiecentral'
p577
ag57
aS'cant anything might well fuck'
p578
aS'doesnt work school'
p579
aS'point people snotty dont want talk fine least tell rather tosser'
p580
aS'cheeeeese\xf0\x9f\x99\x8a'
p581
aS'always want cant'
p582
aS'elephants trunk 150000 muscles'
p583
aS'obsessed elephants\xf0\x9f\x90\x98'
p584
aS'mechanical elephant nantes france'
p585
aS'ridiculously photogenic turtle smiles camera'
p586
aS'lasagne amazing'
p587
aS'family noisy'
p588
aS'upset came'
p589
aS'vintage'
p590
aS'love story'
p591
aS'insult face already insulting enough'
p592
aS'fuckin fuming blocking people facebook hahahaha silly twats didnt think find'
p593
aS'life really boring hack facebook cretins'
p594
aS'fuckin weirdos going facebook little creeps'
p595
aS'young bury satin roses sink river dawn send away words love song'
p596
aS'insults funnier funnier'
p597
aS'much happened dont know'
p598
aS'shit making decisions decide want'
p599
ag57
aS'hahahahaha bloody hell people hilarious'
p600
aS'advice spot'
p601
aS'life would great someone acted like relationship without actually relationship'
p602
aS'wearing sized tshirt'
p603
aS'said little sister away horrible sister went well youre horrible chicken hahahahaha\xf0\x9f\x90\x94\xf0\x9f\x90\x84'
p604
aS'really think people cunts'
p605
aS'cant believe dont phone cant actually believe'
p606
aS'anyone purposely trying piss please fucking bury alive'
p607
aS'honest arent they\xf0\x9f\x99\x88'
p608
aS'really loving tweets tonight'
p609
aS'sick death give advice people fuck'
p610
aS'fall love fall asleep'
p611
aS'makes sick people refer boyfriend boyf wrong'
p612
asS'2013_44'
p613
(lp614
S'7c58ef73'
p615
aS'still cant believe said normal dont boyfriend offended'
p616
aS'amount times fucked ridiculous'
p617
aS'havent felt shit long time'
p618
aS'well feel fanfuckingtastic'
p619
aS'always bored always'
p620
aS'cute'
p621
aS'yeah know pissed last time'
p622
aS'know cute relationship'
p623
aS'want long distance relationship wouldnt boyfriend time great hagaaaay'
p624
aS'facepaint hahaha hobby'
p625
aS'maisies facepaint'
p626
aS'needs boyfriend youve best mate treats food stopmakingmefatshaunie'
p627
aS'hashtag dollar'
p628
aS'dont know shaunie reckon obese weve drink spending 14quid food eatin fivers worth'
p629
aS'tooooonight'
p630
aS'bestie'
p631
aS'makeup'
p632
aS'said weeks cant boyfriend today said something wrong dont boyfriend'
p633
aS'cant shit signals dads virtually suicidal night'
p634
aS'mums best mates rang pretending laundry service heard hadnt cleaning knickers properly fuckin hilarious'
p635
aS'feel like whale today'
p636
aS'take minute appreciate existence feta cheese'
p637
aS'watching story terror harry love lazy days'
p638
aS'someone treat drake ticket'
p639
aS'collage makeup yesterday safe quite proud haha'
p640
aS'heavy someone says need tell something imagine level heaviness someone says goes offline'
p641
aS'still cant fuckin mask tapping shoulder tosser'
p642
aS'seriousness strict diet starting weekend assed lookin packet crisps gaining half stone'
p643
aS'dollys asleep love shes like baby kingcharlesareboss'
p644
aS'happy halllllloweeeen'
p645
aS'wasnt born miley cyrus'
p646
aS'fact nearly cried weird masks coming touching hate halloween'
p647
aS'still cant little jumping behind swear shit'
p648
aS'swear grow another chin minute fast food'
p649
aS'completely fucked phone'
p650
aS'always remember time someone asked holly devlin many months pregnant leasoweprimaryschoolprobz'
p651
aS'zombie hippy like'
p652
aS'fucking ridiculous girls arent getting male attention'
p653
aS'halloween'
p654
ag57
aS'compulsive liars need fuck'
p655
aS'dead jealous peoples relationships even though dont want'
p656
aS'people must irritating'
p657
aS'actually witnessed someone spell actually like achally'
p658
aS'literally help'
p659
aS'point adding someone conversation irritates'
p660
aS'people take hint'
p661
aS'freaking accurate'
p662
aS'well 7c58ef73 onnn'
p663
aS'forever following unbelievably people hope fall love'
p664
aS'7c58ef73'
p665
aS'detest parents theyre tired take mood'
p666
aS'fuckin dead half hours seemed like pointless homework world'
p667
aS'question timed essay walton dont know'
p668
aS'potato curry notch'
p669
aS'wrongs don\xe2\x80\x99t make right three rights gets tesco cake forget whatever'
p670
aS'best pumpkin seen juice style award winner absolutely awesome'
p671
aS'wigzzzzzz'
p672
aS'think hilarious'
p673
aS'always look like condom wear trackie hahahahahaha'
p674
aS'though'
p675
aS'gutted didnt'
p676
aS'retweet want part halloween experiment'
p677
aS'yeah already know'
p678
aS'like yeah'
p679
ag57
aS'good'
p680
aS'dont fuckin dare'
p681
ag57
aS'wouldnt'
p682
ag57
aS'shurrup'
p683
ag57
aS'know agree'
p684
aS'good looks'
p685
aS'game badger'
p686
aS'love'
p687
aS'every'
p688
aS'wish knew wanted people'
p689
aS'definitely reckon scott dropped birth judging entertainment word noot provided tonight'
p690
aS'wish could dream losing weight tonight wake tomorrow skinny nooo foreverafatty'
p691
aS'complained tired still asleep'
p692
aS'miss bein ginge sometimes'
p693
aS'storm devon ukstorm'
p694
aS'awesome halloween costume'
p695
aS'fuck laughing word noot'
p696
aS'angel'
p697
aS'really watched video year olds kissing various different photos caption want relationship like'
p698
aS'cant cope year relationship problems happy meal neck stop moanin'
p699
aS'stresses much eats battery'
p700
aS'weather serious'
p701
aS'crying ryan\xee\x90\x92\xee\x90\x92 omfg laughing hard'
p702
aS'public transport aload shit'
p703
aS'tolerance moody people today'
p704
asS'2013_45'
p705
(lp706
S'commitment actually frightens'
p707
aS'someone text meee'
p708
aS'trusts like hahahaha'
p709
aS'dont worry film night girls'
p710
aS'dont know wanted relationship much singles forward'
p711
aS'fuck tell gonna become regulars grabagranny sausagefactory cougartown'
p712
aS'tavern last night'
p713
aS'dogs lazy everytime walk stops makes carry'
p714
aS'feel like walk round moreton school snoop tang'
p715
aS'smashin fatty probs fourteen stone fatty'
p716
aS'need someone text mannn'
p717
aS'wearing heels taking back worst pain ever'
p718
aS'last niiight'
p719
aS'spent past four weekends boss'
p720
aS'bbmmmm 7c58ef73'
p721
aS'shaunie allowed snapchat drunk'
p722
aS'prins'
p723
aS'dont know liam last night skint mate mate drinks hahaha'
p724
aS'feel happy'
p725
aS'fuckin sobbin'
p726
aS'speaks goes ring back need toilet whats shauns reply shit'
p727
aS'fuck eyelashes toes hahaha tickled like eyelashes tickled toes fucking hell'
p728
aS'loved last night loads thought night club slutdrop'
p729
aS'phone morning'
p730
aS'still cant shaunie passing next coming kaughing like minutes'
p731
aS'havent drunk last night long time wish every night funny'
p732
aS'taxis quid take fiver youre starrrrrr\xe2\x98\x86 quote night'
p733
aS'shaunie awake shaunies came reckonin best mate hahahahah hilarious'
p734
aS'gutted seeing 1975'
p735
aS'scottish parents aggressive'
p736
aS'love ridiculous'
p737
aS'grammars appalling tonight'
p738
aS'dont know whats wrong tonight dead funny mood'
p739
aS'dont think give people enough time adjust sense humour either scaring insulting'
p740
aS'whos snapchatting thenxx youre look like pout better teenage girls'
p741
aS'could fist bored'
p742
aS'unfortunately cant delete feelings'
p743
aS'possible feel broody relationship think might'
p744
aS'fuckin hate feelings'
p745
aS'irritated things touch feet tired'
p746
aS'wish tired'
p747
aS'theres something tbag makes like'
p748
aS'cant even believe long taken series prison break thank series'
p749
aS'could actually punch asian prison break face irritating bastard'
p750
aS'even sure downloaded android dickheads asking people ping rate begging birds nafuckoff'
p751
aS'fucking hilarious'
p752
aS'feel wrong finding brooklyn beckham attractive especially since years younger jailbait'
p753
aS'made ridiculously happy'
p754
aS'tasted good'
p755
aS'fulfilling thing eaten ages'
p756
aS'karlpilkingtonlad'
p757
aS'cant read statuses 20092012 without wanting repeatedly head wall'
p758
aS'irritating voice reflects badly personality looks'
p759
aS'calm fireworks bonfire night ended minutes'
p760
aS'even purpose exist'
p761
aS'dont know'
p762
aS'first year havent bonfire night know happier bored inside outside freezin tits'
p763
aS'detest people reason'
p764
aS'love brothers'
p765
ag57
aS'rather speak person time loads different people sometimes'
p766
aS'actually think shed tear'
p767
aS'fucking hate girls'
p768
aS'fuckin ridiculous isnt stay shit still somehow dragged'
p769
aS'boyfriend wheaton'
p770
ag57
aS'cope people smack lips together grunt whilst theyre eating'
p771
aS'rosie makes feel better'
p772
aS'nothing better mums youre'
p773
aS'bored single nothing exciting happens'
p774
aS'hate need someone look'
p775
aS'looove quality'
p776
aS'7c58ef73'
p777
aS'someone'
p778
aS'craving batman films'
p779
aS'fuck year hahaha'
p780
aS'lets onnnnn'
p781
aS'hate fireworks like scrooge bonfire night bonfire night suck'
p782
aS'love abit school britney'
p783
aS'7c58ef73'
p784
aS'dancin record machine knew must seventeen'
p785
aS'boring single'
p786
aS'oasis songs remind scottish people'
p787
aS'films watch poorly quid bargain'
p788
aS'dead funny someone grade'
p789
aS'sanjays deleted heartbroken'
p790
aS'dead fuckin'
p791
aS'picture cracks'
p792
aS'sanjay broke'
p793
aS'sanjays hash taggin swag must mean busine sanjay'
p794
aS'sanjay definitely made night'
p795
aS'sanjays getting excited'
p796
asS'2013_16'
p797
(lp798
S'mango chutney unreal'
p799
aS'thought getting ripped nemo bought smaller hahahaha'
p800
aS'best thing ever eaten reeces peanut butter oreo'
p801
aS'candle love'
p802
aS'makes feel sick fake americans extreme cribs'
p803
aS'mate cant thank youampharry enough cuties love xxxxxxx'
p804
aS'bored hate sundays'
p805
aS'still happy nights events couldnt better friends'
p806
aS'needs mates youve candle thank youuuuu xxxxx'
p807
aS'world fave gorjy girl'
p808
aS'love shaunieampharry much surprising alcohol food'
p809
aS'little brother dont know whether laugh'
p810
aS'adults make everything rude theyre drunk could talking toast make sexual'
p811
aS'iphone birthday yeyeye'
p812
aS'unreal tempting move sixth form'
p813
aS'know cringing'
p814
aS'werent holding hands walking front arms wrapped round himxx'
p815
aS'always forget much banger latch'
p816
aS'people hold hands kiss walk street embarrassing'
p817
aS'youre joke'
p818
aS'dont understand still look like shit school even though getting sleep'
p819
aS'wrong want'
p820
aS'love much people smoke weed next stop secondhand high leasowepotheads'
p821
aS'love going soooo much'
p822
aS'river island shop selling jelly shoes feel like little'
p823
aS'much work sleep seems like appealing option'
p824
aS'people proper pricks'
p825
aS'voice note rapping gangsters paradise funny'
p826
aS'claim good cook burn rice'
p827
aS'tell family bowling going tonight'
p828
aS'want best friend back naaa'
p829
aS'fingerblast next week'
p830
aS'knew life would complete'
p831
aS'disappointed dont hurt tomorrow'
p832
asS'2013_24'
p833
(lp834
S'theres nothing better realising dont early morning'
p835
aS'welcome newest member illuminati'
p836
aS'mcflurrys send\xf0\x9f\x99\x8f'
p837
aS'cant believe gangan died three years today gangan happy fathers'
p838
aS'feel much better sleeping majority'
p839
aS'cant even hungover sickening'
p840
aS'never drinking ever ever ever'
p841
aS'world'
p842
aS'best friend'
p843
aS'asked could kick tenants house night could party didnt think serious'
p844
aS'fucked dreams'
p845
aS'need great gatsby'
p846
aS'want quickie bite marks scratches hickies'
p847
aS'dreading weekend much cant wait'
p848
aS'trust issues certain foods becoming weird didnt realise quiche feel betrayed'
p849
aS'words'
p850
aS'mums statuses make laugh'
p851
aS'african girl speaks english accent likes fuck boys bands'
p852
aS'need someone drive everywhere dont wait buses full smelly people'
p853
aS'cant believe brushed teeth little sister covered toothbrush soap'
p854
aS'million quid year prostitution found self'
p855
aS'people still watch brother'
p856
aS'break tomorrowampsince know social life next weeks aswell start watching skins series'
p857
aS'feels wrong laughed hahaha'
p858
aS'spent three hours revising philosophy remembered maths exam tomorrow well bellend'
p859
aS'mind maps later still feel like know fuck philosophy shit'
p860
aS'brain empty right contains nothing shit since exams tomorrow'
p861
aS'easily distracted revising every word suddenly becomes really interesting google meanings failingexams'
p862
aS'watching lion king justifiable reason revise think'
p863
aS'hate revision'
p864
aS'redownloaded snapchat entertain chloeohanlon'
p865
aS'feel'
p866
aS'hahaha butch lesbian would hilarious take'
p867
aS'three symbol lesbian suttin thats strange'
p868
aS'good means wont infect leave warned youll little scar take'
p869
aS'mine pierce closed dead quickly haha earring like cheap'
p870
aS'mate could warned hurt mine went infected scar love'
p871
aS'thing bigger mirror'
p872
aS'love jelly shoes best thing bought\xf0\x9f\x98\x9c'
p873
ag57
aS'scouser apprentice arrogant cunt'
p874
aS'even though summer still insist wearing thick wooly jarmies joggers'
p875
aS'uncle think headlock'
p876
aS'everytime ladies pass like bigwilliestyle'
p877
aS'cant believe year sisters said phone time good education'
p878
aS'pharcyde good'
p879
aS'think positively fuck'
p880
aS'calling girlfriend babe shes'
p881
aS'cant remember anything philosophy exam friday help'
p882
aS'laughed much'
p883
aS'want'
p884
aS'still cant believe anniversary gangans death falls fathers year couldnt worse hatejune fuckoff'
p885
aS'didnt think could worse'
p886
aS'guilty pleasure absolutely love'
p887
aS'mother almost good'
p888
aS'cant believe fathers year'
p889
aS'fusey disgusting hairstyle ever seen'
p890
aS'still cant horrible maths exam depressed'
p891
aS'maths revision shit'
p892
aS'sure invigulators races whos first hand'
p893
aS'judging weather today assuming thats summer'
p894
aS'theres chance nightmares seeing pictures sickening'
p895
aS'fuming cant sleep anymore'
p896
aS'perfect person world'
p897
aS'might throw phone wall dont complete level candy crush'
p898
aS'never understand boys think socially acceptable pout whilst taking selfies'
p899
aS'things would mila kunis'
p900
aS'harry styles worst tattoos planet fact'
p901
aS'nothing annoying needing someones number dont twitter facebook nobody know number either\xf0\x9f\x98\x92'
p902
aS'imagine kardashian though'
p903
aS'compare advert much irritating last'
p904
aS'feel like right knobhead reply people soon text take ages respond'
p905
aS'guaranteed whenever leave house every single person despise'
p906
aS'ratio weirdos normal people moreton shocking'
p907
asS'2013_25'
p908
(lp909
S'feel left weatherhead dont prom year'
p910
aS'someone invent neck tickler machine dont crave neck ticklings cant'
p911
aS'playing noughts crosses'
p912
aS'people shout full name'
p913
aS'loooove hair'
p914
aS'stepdads making salad asked salad tosser replied looking salad ohshlem'
p915
aS'dont care allow still socially unacceptable hashtag facebook'
p916
aS'stepdads touched mums said burnt youre bork mingin passusthesickbucket'
p917
aS'gingers overrated anyway'
p918
aS'need look like'
p919
aS'cant wait brown hair back tonight sick looking like clown'
p920
aS'might watch notebook perfect movie relationships'
p921
aS'homosexuality islam muslims celebrate ramming'
p922
aS'best idea ever'
p923
aS'last summer perfect'
p924
aS'dont think anything actually gone right recently lost many people meant world wellshit'
p925
aS'braclets stuck legs\xf0\x9f\x98\xa9'
p926
aS'dont think nice picture taken izzies'
p927
aS'anchorman actually unfunny funny understand laughing'
p928
aS'roll july excited geordie shore'
p929
aS'remembering chasing moped fact ambulance randomly showed still makes laughter'
p930
aS'happy home alone'
p931
aS'dont even want pictures last night'
p932
aS'feel shitty hate hair definitely havent made feel better'
p933
aS'feel sick\xf0\x9f\x98\x92 chlo'
p934
aS'fuck saying youre skinny bitch\xf0\x9f\x91\x8a'
p935
aS'remembered pictures phone dying embarrassed'
p936
aS'back phone mess'
p937
ag57
ag57
aS'smashed back phone cant remember'
p938
aS'hair destroyed hand'
p939
aS'feel like today longest ever drained'
p940
aS'hate strands five minutes chlo sure liar'
p941
aS'feel like money anything'
p942
aS'rockys'
p943
aS'kings leon itunes festival\xf0\x9f\x98\x9e'
p944
aS'tired\xf0\x9f\x98\xa9'
p945
aS'possible died watching wecantstop video currently tweeting perfect grave'
p946
aS'doesnt body want sleep cunt'
p947
aS'dont want relationship anything serious someone willingly tickle neck fall asleep\xf0\x9f\x98\x94'
p948
aS'sent many videos stupid bored'
p949
aS'forgot stopped using facebook remember'
p950
aS'theres reason dont watch brother shit\xf0\x9f\x92\xa9'
p951
aS'fuck relationships'
p952
aS'cant believe called nelly tits dont know take'
p953
aS'past hurt either orlearn lion king favquote favdisneyfilm'
p954
aS'used hate lana song rocky completely changed view'
p955
aS'knock wood rocked thunder'
p956
ag57
aS'forever dying embarrassment wind decides blow skirt'
p957
aS'keep thinking broken every time check utter dissapointment\xf0\x9f\x98\x92'
p958
aS'hahahahahaha'
p959
aS'fact cant laugh antics depresses theyre reason watch bringbacknicole'
p960
ag57
aS'wanna blonde hair know wont suit'
p961
aS'slow repliers jump cliff'
p962
aS'couldnt better mood moment'
p963
aS'kidda well sort somethin wont'
p964
aS'young feel like failure youve told norron'
p965
aS'everyones assed bums thoampi dont hahaha destined'
p966
aS'combine imagine boys eyeyey really want ghetto booty feel like missin'
p967
aS'much anyone handle afraid people born bootyyou boobsme'
p968
aS'gals boys even probs like white riri somethin chicken everyone wants fine assssss'
p969
aS'chick omggg know swear look forward finding things everythings exciting'
p970
aS'last thing expecting honest blame stuff doll face'
p971
aS'barely cope messages getting kinell'
p972
aS'three words life goes'
p973
aS'oooo love'
p974
aS'dont even know laughed'
p975
aS'couldnt find ages turns hiding wardrobe'
p976
aS'little sisters hysterically crying told finished school still hahaha'
p977
aS'basically'
p978
aS'exhausting lazy'
p979
aS'hallelujah\xf0\x9f\x99\x8f'
p980
aS'cant wait forget everything friday good time'
p981
aS'coconut devils fruit'
p982
aS'gift'
p983
aS'dont like j\xc3\xa4ger anymore either certainly fuck'
p984
aS'turns drank whole bottle'
p985
aS'chloe thats water shaunie made spit hahahaha cryin hate malibu'
p986
aS'suddenly remembered drinking glass malibu saturday shouting chloe harry saying water hahaha'
p987
aS'adding shit sentence make anything sound gangster playing bubbles shit'
p988
aS'someone sense humour karl pilkington life happy girl'
p989
aS'dont sexually frustrated romantically frustrated like isnt somebody holding hand'
p990
aS'criminal minds gets scarier sicker'
p991
aS'pisses much people dont reply'
p992
aS'hangovers gone appetite'
p993
aS'little brother boss shoes'
p994
aS'wish little could play animal crossing without judged'
p995
aS'find hard understand kardashian really upsets'
p996
aS'matters issss treat right give things need money cant buyyyy'
p997
asS'2013_26'
p998
(lp999
S'mums repeated home arent least times kinell know youre home stop reminding'
p1000
aS'sorry anyone snapchats last night'
p1001
aS'think banned using phone whilst intoxicated whenever guranuteed make cock'
p1002
aS'comedy central always plays friends'
p1003
ag57
aS'drunk'
p1004
aS'constantly referred melon nickname chloe melon ohambutty'
p1005
aS'wheres best mate bevved'
p1006
aS'come'
p1007
aS'really want drunk tonight'
p1008
aS'must something mentally wrong tattoo girlfriendboyfriends name andor face'
p1009
aS'poppy\xf0\x9f\x98\x98'
p1010
aS'love spending time poppy morning need'
p1011
aS'forever blaming nonexistent sleeping pattern lack sleep reality twitter blame'
p1012
aS'reckon dogs ever think actually fuck goin walk today bastard'
p1013
aS'would much rather glastonbury instead watching telly'
p1014
aS'hahaha going summer thingy'
p1015
aS'distance actually ruins everything'
p1016
aS'four year cousin religious know rain gods'
p1017
aS'young girl came dads shop asked bullet pellet referring frosty jacks'
p1018
aS'flowers half forgiven thank daddy'
p1019
aS'hate others'
p1020
aS'weather determines mood'
p1021
aS'able paint nails definitely requires skill unfortunately skill'
p1022
aS'today successfully managed flood kitchen exactly dont usually tidy'
p1023
aS'really need tidy cant bring'
p1024
aS'call mall instead going store mall clever\xe2\x80\x9d mind blown'
p1025
aS'dont understand people boyfriends'
p1026
aS'happier person people conversational'
p1027
aS'remind never listen afroman walking home laughing'
p1028
aS'true'
p1029
aS'helped mood'
p1030
aS'miss gangan xxxx'
p1031
aS'never good mood someone something mood'
p1032
aS'need festival something feel like nothing look forward'
p1033
aS'hate waiting someone text balls comes texting people first'
p1034
aS'little brother fell asleep eating maccies'
p1035
aS'fuck long paragraphs want perfect boyfriend youll youre given peasant'
p1036
aS'gutted year mosslands weatherhead dont prom shitdat'
p1037
aS'dont prom year thirteen'
p1038
aS'watching programme narrators like home safely dangerous shift fuck driving'
p1039
aS'definitely need excuse drunk weekend'
p1040
aS'regret year became liked loads different embarrassing pages'
p1041
aS'love daddydaughter time'
p1042
aS'random girl comes dads shop calls chlo like shes best mate'
p1043
aS'cant believe mistaken dads bird mortified'
p1044
aS'knew reason never text people first'
p1045
aS'dont understand anyone would like noodles'
p1046
aS'chased brother wonder doesnt like'
p1047
aS'johnbishoplad'
p1048
aS'elephantlad'
p1049
aS'minutes minutes later still isnt back'
p1050
aS'renown absolute bangers plays daily basis loveit'
p1051
aS'always decides needs every single person knows look rough'
p1052
aS'wish people would stop inviting play diamond dash'
p1053
aS'well tonight fucking tragic ended eating loads greasy food'
p1054
aS'izzie drinking champagne poshfuckers'
p1055
aS'people general minging really'
p1056
aS'people shouldnt disgustingly'
p1057
aS'name thought'
p1058
aS'think might person feels physically sick sound someone eating'
p1059
aS'cant believe left house locked door carpet came fucking hell'
p1060
aS'almost nonexistent sleeping pattern cunt decided make sure wide awake time'
p1061
aS'actually cried'
p1062
aS'eddie murphy swarve dream girls'
p1063
aS'good person'
p1064
aS'well tell characters'
p1065
aS'honestly couldnt give less fuck want fuck every member direction sideways youre twelve'
p1066
aS'like like anyone dislike anyone particular'
p1067
aS'fucking hell people need heads smashed dictionary dont know difference'
p1068
aS'previous statement false actually meant dont like people'
p1069
aS'dont think like anyone'
p1070
aS'chased hedgehog yesterday little prick hahaha family conversations'
p1071
aS'cant sleep normal times anymore'
p1072
aS'little sister slept walked close tears'
p1073
asS'2013_27'
p1074
(lp1075
S'couldnt happier white iphone back'
p1076
aS'weird gone size shoe size five'
p1077
aS'leather converse'
p1078
aS'nandos filling bloating\xf0\x9f\x98\xa5'
p1079
aS'nandos\xf0\x9f\x8d\x94\xf0\x9f\x8d\x9f\xf0\x9f\x8d\xb4'
p1080
aS'gets 250000 retweets chemotherapy please help dream'
p1081
aS'like 110s lads'
p1082
aS'primark actually fuckin tacky'
p1083
aS'feels like punched'
p1084
aS'hate people turn idiots drink'
p1085
aS'wait 27th'
p1086
aS'people make relationships cute actually piss'
p1087
aS'upsetting freddie gets killed skins'
p1088
aS'cant believe spent inside typical'
p1089
aS'like everyone wants dickhead'
p1090
aS'cant wait white iphone back'
p1091
ag57
ag57
aS'miss little brothers'
p1092
aS'hate feelin like outsider'
p1093
aS'literally best things ever'
p1094
aS'even watched cricket birkenhead park'
p1095
aS'angel centrefold'
p1096
aS'kush rolled glass full prefer better things'
p1097
aS'rock ferry woman walking fuckin massive lizard'
p1098
aS'juice ruined blurred lines'
p1099
aS'sitting deck acceptable youre people'
p1100
aS'getting drunk tonight'
p1101
aS'still cant believe told fuck year yesterday leasoweforya'
p1102
aS'really dont know assed leavers assembly'
p1103
aS'someone please explain fuck still awake'
p1104
aS'would explain'
p1105
aS'fingers ridiculously small dont understand'
p1106
aS'without sounding racist looks like monkey'
p1107
ag57
aS'nipples beautiful theyre symmetrical'
p1108
aS'look hair'
p1109
aS'feel like need watch series skins'
p1110
aS'beautiful'
p1111
aS'cook much smoother freddy slept effy first'
p1112
aS'fancy strange'
p1113
aS'excited cooks episodes skins find weirdly attractive'
p1114
aS'lookin smart scott'
p1115
aS'cars clearly dont know subtle staring passing girls'
p1116
aS'wait lipa'
p1117
aS'bringin entire nation black white brown feel vibration markymark oldschoolbanger'
p1118
aS'true though'
p1119
aS'teenager initiative hoover mopamptidy house therefore parents shouldnt dont'
p1120
aS'cant believe little sisters threw tantrum middle street embarrassing thing ever'
p1121
aS'netflix boss films love'
p1122
aS'scared start watching dexter purely know theres clowns first episodes'
p1123
aS'upset episode criminal minds'
p1124
aS'boredom actually makes depressed'
p1125
aS'little kids chew absolute shit'
p1126
aS'want pictures\xf0\x9f\x98\x92'
p1127
aS'need something'
p1128
aS'love plans come together'
p1129
aS'cant stand downs'
p1130
aS'little sisters banged head shop said hurt nuts'
p1131
aS'andre 3000s voice amazing'
p1132
aS'cant anywhere without seeing people know'
p1133
aS'close mouth'
p1134
aS'darren favourite person ever'
p1135
aS'theyre great want'
p1136
aS'theres want'
p1137
aS'genuinely want kids look like evian babies'
p1138
aS'evian baby adorable want'
p1139
aS'1million people work call centres across england unfortunately none speak english'
p1140
aS'slow replies make want punch someone'
p1141
aS'dont understand laugh family'
p1142
aS'eaten cheese going nightmares'
p1143
aS'feelin pretty damn hard done spent ages giving head'
p1144
aS'notification oooo whats another fuckin invitation play candy crush'
p1145
aS'cant wait month'
p1146
aS'know dont know youre fine fine'
p1147
aS'dont even know fancy steven gerrard'
p1148
aS'chicken hand breaded trained chefs'
p1149
aS'love much right'
p1150
aS'snapchat refusing work'
p1151
ag57
ag57
aS'good'
p1152
aS'hate'
p1153
aS'stop'
p1154
aS'dyke'
p1155
aS'bored'
p1156
aS'wouldnt great bacon five'
p1157
aS'cant find band played reggae version stand'
p1158
aS'theres denying beauty'
p1159
aS'kiddo'
p1160
aS'babysit like'
p1161
aS'cant wait holiday english weather shit'
p1162
aS'shes cute hope gets drunk'
p1163
aS'hahahaha goes garlands'
p1164
aS'dreams weirder weirder'
p1165
aS'social life'
p1166
aS'first date'
p1167
aS'autocorrect forever pissing lazy turn'
p1168
aS'anytime'
p1169
aS'well done\xf0\x9f\x91\x8f'
p1170
aS'haha fine late night humour quite funny give'
p1171
aS'sorry know'
p1172
aS'people parties anymore'
p1173
aS'feel like havent seen best years youve hiding know'
p1174
aS'genius funny girl'
p1175
aS'best things youve ever said'
p1176
aS'wanking alone wonder squirting insidejoke'
p1177
aS'skins awful know going watch next week'
p1178
aS'straight lesbian better else incredible california equality'
p1179
aS'debating putting skins fact dont want series ruin last series'
p1180
aS'yesssssss hahahah'
p1181
aS'take hahahaha'
p1182
aS'worth'
p1183
aS'would never back blackberry iphone'
p1184
aS'well might actually work'
p1185
aS'possible like'
p1186
aS'party hopefully'
p1187
aS'true turds course comin'
p1188
aS'snapchat keeps lying telling people screenshotting'
p1189
aS'dont think want'
p1190
aS'finally feeling better things sort back normal'
p1191
aS'invite invite invite'
p1192
aS'twitter actually friends twitter kidding heres spam'
p1193
aS'snapchat meeeee chloeohanlon'
p1194
aS'youve read youll laugh'
p1195
aS'must exist cold pizza heavenly'
p1196
aS'prick'
p1197
aS'takes know'
p1198
aS'good glad'
p1199
aS'yeah well offended called head well'
p1200
aS'shouldnt said funny looking head'
p1201
aS'well didnt deny hahahahaha'
p1202
aS'funny arent defo fancy'
p1203
aS'dont know funny'
p1204
aS'funnier'
p1205
aS'people comically blessed'
p1206
aS'youre shes funnier'
p1207
aS'year sister terroring best thing ever witnessed'
p1208
aS'girls refer boyfriends boyf boyfriendkinell name embarrassing cant actually'
p1209
aS'need party weekend\xf0\x9f\x99\x8f'
p1210
aS'past keep coming'
p1211
aS'want everything back normal'
p1212
aS'need repeat saturday'
p1213
asS'2013_20'
p1214
(lp1215
S'disgusting cruel funny\xf0\x9f\x98\xad\xf0\x9f\x98\x82'
p1216
aS'jessica alba beautiful'
p1217
aS'realised nipples world people'
p1218
aS'mice emojis'
p1219
aS'telly theres whos virgin getting married getting advice mate whos also virgin'
p1220
aS'afromanwhack rappers funniest songs made'
p1221
aS'said stinks leasowe hahaha'
p1222
aS'cant wait holiday away idiots wait tanned either sick lookin adopted'
p1223
aS'full english chemistry revision'
p1224
aS'stand'
p1225
aS'lets honest eurovision shit isnt'
p1226
aS'well easy boring saturday night'
p1227
aS'typical moreton vandalism'
p1228
aS'need benampjerrys'
p1229
ag57
aS'best mates boss'
p1230
aS'dead something want morning'
p1231
aS'connections caravan site security givin free lifts dads mates values member hahahaha'
p1232
aS'clearly welsh havent told wears chinos anymore'
p1233
aS'always accidentally send snapchats people pisses'
p1234
aS'hilarious'
p1235
aS'funny'
p1236
aS'seen snapchat thought merge faces hahahahaha'
p1237
aS'actually cryin mine brothers faces merged together hahaha best ever'
p1238
aS'boring weekend ahead'
p1239
aS'improvement'
p1240
aS'hahaha obsessed kids block'
p1241
aS'people type like looks stupid'
p1242
aS'going slaughterhouse nerrrr'
p1243
aS'nellys stuff doesnt enough acknowledgment majority songs absolute bangers'
p1244
aS'don\xe2\x80\x99t want world know dated'
p1245
aS'dont people twitter followers people school idiots'
p1246
aS'need'
p1247
aS'black coffee boss'
p1248
aS'depressing theres charger house someones broke others'
p1249
aS'hate people words sound intellectual wrong context thicko'
p1250
aS'reloaded actually makes better'
p1251
aS'black coffee morning boss'
p1252
aS'modelling pics back iwish'
p1253
aS'people take things literally'
p1254
aS'people ruin snapchat\xf0\x9f\x98\xa2'
p1255
ag57
aS'miley'
p1256
aS'speaking'
p1257
aS'please stop pouting supposed male heterosexual'
p1258
aS'eaten eighty thousand calories past week sickening healthy eating tomorrow'
p1259
aS'shout'
p1260
aS'attract weirdos'
p1261
aS'shocked still making laugh'
p1262
aS'actually hilar like disgustingly funny'
p1263
aS'swear thats best thing heard'
p1264
aS'people loud early morning'
p1265
aS'biggies voice unreal'
p1266
aS'much easier would could drive fifteen hatred public transport grows daily'
p1267
aS'always panic loads people speak'
p1268
ag57
aS'tired throughout wide awake night'
p1269
aS'cunt head'
p1270
aS'shed tears watching hero main huddersfield'
p1271
aS'fuck numb nuts'
p1272
aS'youre lying right'
p1273
aS'stop lying'
p1274
aS'picture'
p1275
aS'couldnt give fuck beyonce allaboutharrisandfresh'
p1276
aS'thats shocked really'
p1277
aS'really'
p1278
aS'nothing worse looking pictures parties realising wont drunk weeks alcoholic'
p1279
aS'making really instagrams working\xf0\x9f\x98\xa2'
p1280
ag57
aS'fuckin fuckin fuckin fuckin sorry psycho torrets'
p1281
aS'twins valleys make feel physically sick'
p1282
aS'thing getting weeks exams fact week summer'
p1283
aS'cute\xf0\x9f\x98\x98'
p1284
aS'uncle joey hope poor little nans okay'
p1285
aS'tight demis cousins look like shit\xf0\x9f\x98\xad'
p1286
aS'rocky'
p1287
aS'english revision'
p1288
aS'follow main gurl swear shes boss messin'
p1289
aS'great'
p1290
aS'earth growing pains'
p1291
aS'sorry point snapchat\xf0\x9f\x98\x92'
p1292
aS'youve tell girl tape rookie mistake friends best'
p1293
aS'snapchat amuses much sexy thang'
p1294
aS'swear good things annoying people avoiding revision\xf0\x9f\x98\xa1 need focus'
p1295
aS'thats completely threw supposed revise'
p1296
aS'revisions boring snapchat'
p1297
aS'hahaha feel sick'
p1298
aS'snoop dogg collabs boss'
p1299
aS'whys messing false teeth dont know whether laugh'
p1300
aS'could weirder'
p1301
aS'whys cute'
p1302
asS'2013_21'
p1303
(lp1304
S'best thing ever leonardodicaprio markwahlberg'
p1305
ag57
aS'need best friends cuddle time gaytweet norassed'
p1306
aS'need consume ridiculous amounts alcohol right'
p1307
aS'basically'
p1308
ag57
aS'criminal minds makes skin crawl'
p1309
aS'next door neighbours loud\xf0\x9f\x98\xa1'
p1310
aS'fanks mate'
p1311
aS'didnt realise followed macca calm tits'
p1312
aS'titanic three hour long film could watch repeat'
p1313
aS'titanic makes everytime'
p1314
aS'gets better'
p1315
aS'upsetting order take away feel bites puts eating'
p1316
aS'cryin little sister looks like gremlin'
p1317
aS'nans telling fights families hahaha hilarious'
p1318
aS'people indicate anymore twats'
p1319
aS'weathers gorgeous stuck inside typical'
p1320
aS'always weird dreams'
p1321
aS'karl pilkington hilarious everything says funny'
p1322
aS'swear every time dads something weird first ants yorkshire puddings sort'
p1323
aS'blue gummy bears boss'
p1324
aS'stressed headache want sleep'
p1325
aS'winds criminal minds police always seem pissed show'
p1326
aS'need watch painampgain purely mark wahlberg rock'
p1327
aS'wait move house next week'
p1328
aS'extratourettestrial'
p1329
aS'youre relationship ladyboy clearly'
p1330
aS'tomorrow going boring'
p1331
aS'mums fake shes dark anyway looks totally different race hahahaha shlems\xf0\x9f\x98\xad'
p1332
aS'next exams another 2weeks finally rest'
p1333
aS'spoilt kids wind'
p1334
aS'theres always thats annoying kids party'
p1335
aS'shaunie shes like ghondi isnt mean ghandi babe'
p1336
aS'loved loved loved exam'
p1337
aS'want hair played back tickled beyond stressed'
p1338
aS'always start thinking'
p1339
aS'bork people constantly make clear theyre relationship\xf0\x9f\x98\xb7'
p1340
aS'nicer feeling cracking backknuckles'
p1341
aS'dont like anyone apprentice year theyre cunts'
p1342
aS'whats little brother playing'
p1343
aS'never enough money anything'
p1344
aS'ashtrays heartbreaks boss song'
p1345
aS'people write pointless song lyrics repeatedly fuck'
p1346
aS'dont think nails grown years constantly bite'
p1347
aS'would start argument fanny theyre twats funny\xf0\x9f\x98\xad\xf0\x9f\x98\x82\xf0\x9f\x98\xad'
p1348
aS'five year sister iphone'
p1349
aS'fans getting good photoshop holding baby bahahhhahajjaha'
p1350
aS'brother like camel close mouth'
p1351
aS'argue much'
p1352
aS'feel like giving everything haha depressedtweet'
p1353
aS'cant things ever right'
p1354
aS'harry pout'
p1355
aS'haribos nuts'
p1356
aS'changes mind many times'
p1357
aS'boring twitter time line world'
p1358
aS'picture actually looks nothing like look like tranny hahahaha'
p1359
ag57
ag57
aS'white bread proper mingin'
p1360
aS'babies hilarious laughs ever'
p1361
aS'dead'
p1362
aS'dripping sweat best session ever'
p1363
aS'arent joke'
p1364
aS'even going qualifications work maccies'
p1365
asS'2013_22'
p1366
(lp1367
S'boobs heart calm mate snapback nearly fell'
p1368
ag57
aS'towies shit'
p1369
aS'song describes exactly feel'
p1370
aS'watching towie'
p1371
aS'swear youre purposely showing everywhere piss'
p1372
aS'hilarious know'
p1373
aS'alright kiddo'
p1374
aS'yeah defo goin mine straight'
p1375
aS'year replied fuckers sending'
p1376
aS'gerrin texts'
p1377
aS'funny much moan shaunie people relationships'
p1378
aS'annoys much people allow become whipped relationship could assed'
p1379
aS'need asap actually working'
p1380
aS'hair doesnt grow ages soon decides grow inches everyone roots fuckoffroots'
p1381
aS'ladye bird whingin tele goin emosh shadow kinnel lettuce show helicopt\xe2\x80\xa6'
p1382
aS'drivin past fitty givin horn 1998 vauxhall nova sexy kinnell defo guna turn'
p1383
aS'bored wish walk'
p1384
aS'life fruit form'
p1385
aS'finally found name coke bottle'
p1386
aS'feel disgusting\xf0\x9f\x98\x9e'
p1387
aS'exhausted allll today'
p1388
aS'love double understand meaning life\xf0\x9f\x98\xb4'
p1389
aS'really dont know anyone would give everything long distance relationship relationship matter'
p1390
aS'nothing worse needing couches havent delivered yet\xf0\x9f\x98\xaafeel deprived'
p1391
aS'house well cute'
p1392
aS'weighing take 2lbs clothes another extensions another eyelashes\xe2\x80\xa6'
p1393
aS'stepdads brother insult'
p1394
aS'loved little sisters furby last night want throw fuckin thing window'
p1395
aS'want little sister talks sleep think shes possessed little furby going'
p1396
aS'hahaha dead funny seven naaaat'
p1397
aS'need entertaining cant sleep'
p1398
aS'little sisters hair fire blowing candles'
p1399
aS'hate waiter asks want look orders'
p1400
aS'jealous maisies furby'
p1401
aS'fridays easily best restaurant ever'
p1402
aS'happy birthday crowebags\xf0\x9f\x8e\x81'
p1403
aS'swear boss singer alone'
p1404
aS'weathers boss'
p1405
aS'need going holiday right wait another 9weeks\xf0\x9f\x98\x92'
p1406
aS'makes feel sick lads take selfies'
p1407
aS'must something wrong youre last three girls youve liked'
p1408
aS'never want look takeaway ever'
p1409
aS'trip thorpe park alton towers necessary'
p1410
aS'prins tomorrow believe love kiddy\xf0\x9f\x98\x98'
p1411
aS'need unlimited amount money unlimited amount clothes please'
p1412
aS'writing messages cards'
p1413
aS'wants move youre hogging youre guarding damn nerd stilltop'
p1414
aS'upsetting little money shopping'
p1415
aS'haribo'
p1416
aS'thats sick know worra mean boss init'
p1417
aS'quiet trying sleep'
p1418
aS'cant find anywhere watch rest girl depressed'
p1419
aS'started watching girl time never getting sleep'
p1420
aS'even messin guilty pleasure'
p1421
aS'haha know kate'
p1422
aS'feel like person whole england never watched shameless'
p1423
aS'biggie perfect combined'
p1424
aS'love looking gems gangan gave makes feel like still love gangan\xf0\x9f\x98\x94\xe2\x9d\xa4\xf0\x9f\x92\x9a\xf0\x9f\x92\x99'
p1425
aS'think thinks shes another instead getting norappenin'
p1426
aS'always moody angry reason'
p1427
aS'dont know whats depressing lacking social life fact weather preventing trying social life'
p1428
aS'little sisters crazy lesbians like speak lesbian language suttin'
p1429
aS'little sister said girl arms legs head shed potato wouldnt'
p1430
aS'bird fella fancy weekend offender thing offendin eyes primark pumps gobshite'
p1431
aS'student bird exams finally free bein bookworm gwed calls fora slutdrop drop girl niceswan'
p1432
aS'jason mraz phone cover best thing ever seen'
p1433
aS'would kill jlos legs'
p1434
aS'harry seems comfy'
p1435
aS'want iphone5\xf0\x9f\x98\x92'
p1436
aS'richardson makes happy'
p1437
aS'laughed much joke wasnt remotely funny cried'
p1438
aS'hate people different around certain people'
p1439
aS'happy missed valleys'
p1440
aS'wish could stay moody people rather caving'
p1441
aS'feel like ages\xf0\x9f\x98\x92 bored'
p1442
aS'dads described different ways likes eatin strawberries hahaha'
p1443
aS'could actually punch someone face right'
p1444
aS'cheese'
p1445
ag57
aS'showsthatneedtocomeback friends friends friends friends friends friends'
p1446
aS'whoever said girls dont suit tattoos fool'
p1447
aS'family guys version taken made happy hahaha'
p1448
aS'well dont fancy much without eyebrows\xf0\x9f\x98\x92 caradelevingne'
p1449
asS'2013_23'
p1450
(lp1451
S'battery life iphones tragic'
p1452
aS'casio watch gone left horrific line muppet'
p1453
aS'horrible mood tired\xf0\x9f\x98\x8a\xe2\x98\xba\xf0\x9f\x98\x8a'
p1454
aS'could worse environment tired'
p1455
aS'never ever ever want relationship ever'
p1456
aS'mariah careys song miguel almost boss'
p1457
aS'hbomb'
p1458
aS'dont think could tired'
p1459
aS'absolute pain'
p1460
aS'think could fall asleep david attenboroughs voice'
p1461
aS'justin timberkake\xf0\x9f\x98\x8d'
p1462
aS'cute'
p1463
aS'mary blige amazing'
p1464
aS'super rich kids nothing fake friends'
p1465
aS'gets everytime wrecked'
p1466
aS'pharrel williams smooth hurts'
p1467
aS'looking bradley cooper excites'
p1468
aS'john richardson might funniest person ever'
p1469
aS'kevin bridges would funnier could understand'
p1470
aS'cant assed hayfever reckon eyes gonna fall'
p1471
aS'cant believe little brother keeps saying dats wang mean wank'
p1472
aS'watch wreck psych letsgetreadytorumble'
p1473
aS'blocking scum dont need twitter clearly understood politely asked unfollow'
p1474
aS'feel like primary school kinell'
p1475
aS'boring geraway'
p1476
aS'people natural born bellends'
p1477
aS'sorry clearly youre arguments many people lies rude poorshelms'
p1478
aS'youre honestly delusional think petty little tweets comments affecting slightest notassed growup'
p1479
aS'quit tweets imbeingahypocrite owell'
p1480
aS'turns house actually haunted knew'
p1481
aS'like'
p1482
aS'nothing annoying english person trying american'
p1483
aS'tied chair thats reach phones drink'
p1484
aS'remember tiny thats dont remember'
p1485
aS'reckon theyre abit lads bike yeah broke back bike ride haha'
p1486
aS'horrible headache'
p1487
aS'smith makes every song better'
p1488
aS'haribo'
p1489
aS'offering bacon'
p1490
aS'hate people spell words theyre pronounced pisses right'
p1491
aS'start playing candy crush'
p1492
aS'heads banging eyes hurt shit night'
p1493
aS'uncle joey'
p1494
aS'walking moaning best things ever calm'
p1495
aS'angry could actually punch someone something need calm'
p1496
aS'people absolute jokes fucking grip'
p1497
aS'chat shit people tweets make cringe hahaha annoyingorange fuckoff'
p1498
aS'next tall legs dont inside chairs hahaha'
p1499
aS'complain wanting still enjoy fact buys everything'
p1500
aS'dont think like anyone anymore'
p1501
aS'wanna slag comea boys shag since else dangly hampx'
p1502
aS'want slag wants shagged cant sadly fanny poorgirl pray4chlo'
p1503
aS'stand people everything'
p1504
aS'arent perfect understatement\xf0\x9f\x98\xaa depressed'
p1505
aS'wanna jump indirectyourex band wagon cunt comes exes hahaha'
p1506
aS'away chlo well bevved take sticky vicky alright'
p1507
aS'theres geek playsuits primark worse'
p1508
ag57
aS'love going gangan'
p1509
aS'buses need windows assed sitting degree heat people clearly dont know deodorant'
p1510
aS'hahahahaha knobheads yous'
p1511
aS'outside hour\xe2\x98\x80\xf0\x9f\x8c\x9e'
p1512
aS'money smell nigga biggie stinkin'
p1513
aS'mila kunis unreal'
p1514
aS'hard believe mixed race birth certificate jesus playin'
p1515
aS'fume burn doesnt progress'
p1516
aS'people need taught mingin'
p1517
aS'miley cryus song boss'
p1518
aS'cant tell sunburnt tanned'
p1519
aS'fucking pointless lesson'
p1520
aS'much pain point could actually'
p1521
asS'2013_28'
p1522
(lp1523
S'bloody hell neighbours cranks'
p1524
aS'fancy brody jenner much'
p1525
aS'really depressed'
p1526
aS'sure still trying people clearly dont want'
p1527
aS'people using trying make jealous even worse patronise fuck offfffff'
p1528
aS'daddy boss film'
p1529
aS'havent moved room pissed world'
p1530
aS'want radio city live tickets make fuck'
p1531
aS'enjoy alcohol'
p1532
aS'always best times drunk mums mates might funniest people ever'
p1533
aS'love drunk'
p1534
aS'definitely going park next year'
p1535
aS'love'
p1536
aS'harry crowe bringing back backwards'
p1537
aS'suuuuummer'
p1538
aS'actually adore'
p1539
aS'forgot take piriton make sleep wide awake'
p1540
aS'legend'
p1541
aS'swapping iphone galaxy best thing ever done'
p1542
aS'actually adore phone'
p1543
aS'dont even know fuckin bother'
p1544
aS'would rather someone ignore give word answer'
p1545
aS'sunbathed three days hours hahahah'
p1546
aS'sunny year round look like different race'
p1547
aS'need bevd asap'
p1548
aS'violated today seven year olds'
p1549
aS'best friend'
p1550
aS'cups arrived 27th'
p1551
aS'love nights cute'
p1552
aS'feel violated snapchat happy place someone sent picture dick'
p1553
aS'actually really fuckin infuriate denial head\xf0\x9f\x98\xa1\xf0\x9f\x98\xa1\xf0\x9f\x98\xa1'
p1554
aS'mine shaunies call history comical\xf0\x9f\x98\x8a\xf0\x9f\x98\x8a\xf0\x9f\x98\x8a\xf0\x9f\x98\x8a\xf0\x9f\x98\x8a bestfriends gayasfuck'
p1555
aS'actually bored anyone'
p1556
aS'productive tanning round tomorrow'
p1557
aS'really want drunk heat'
p1558
aS'asap'
p1559
aS'want body everybody wants body lets jack'
p1560
aS'iggy azalea fucking irritating'
p1561
aS'need takes absolute piss gettin ready needs ready seconds'
p1562
aS'wahey working'
p1563
aS'gurl'
p1564
aS'came room little sisters flat floor'
p1565
aS'dont understand jays voice squeaky'
p1566
aS'single vicky makes happy'
p1567
aS'want rolex breitling anything else'
p1568
aS'right'
p1569
aS'bruno mars reminds teenage michael jackson'
p1570
aS'really wish would work'
p1571
aS'weathers like instantly happy'
p1572
ag57
aS'feel like person doesnt like fabs theyre even nice\xf0\x9f\x98\x92'
p1573
aS'geordie shore starting exciting thing happen summer'
p1574
aS'wont send\xf0\x9f\x98\x94'
p1575
aS'reminds addy leasowe used zone hahahaha'
p1576
aS'ohhh'
p1577
aS'clarify know spam mail sent'
p1578
aS'like songs haha'
p1579
aS'tired dont want sleep like 1112 hits want sleep wide awake'
p1580
aS'effys episodes fucking disappointment'
p1581
aS'effys boss reminds freddie making'
p1582
aS'must people make horrible noises snort stuff gives shivers'
p1583
aS'ventura amaze number deleted accident'
p1584
aS'asked looking showed went cant assed looking'
p1585
aS'tears real'
p1586
aS'coleslaw minging'
p1587
aS'hate people zero personality sense humour'
p1588
aS'wish'
p1589
aS'people chew mouth open worse crocs'
p1590
aS'eaten calories feel close death'
p1591
aS'marys like alien school'
p1592
aS'like hayfever feel'
p1593
aS'piriton made dozy probably checked drowsy'
p1594
aS'boss best mate ordering cups hahahah 27th'
p1595
aS'dont hilarious'
p1596
aS'easily favourite photo year'
p1597
aS'possible easiest person make jealous world'
p1598
aS'sleeping pattern fucked also sleep anyway'
p1599
asS'2013_29'
p1600
(lp1601
S'called babe past days fuckin actual film kinell calm'
p1602
aS'worries'
p1603
aS'complain bored nothing entertain'
p1604
aS'little brothers pale like pale'
p1605
aS'offended people mean things stand like callin someones baby ugly although stand film'
p1606
aS'welcoming crackers cheddar family'
p1607
aS'fuck wrong people'
p1608
aS'always look back exes think swear werent ugly'
p1609
aS'people house dont control noise levels morning meaning ridiculous times'
p1610
aS'likes frosted side grown likes family guys funniest line ever'
p1611
aS'quite sure take face trying make every sentence flirty'
p1612
aS'someone best mate'
p1613
aS'dumping girlfriend nintendo pictochat'
p1614
aS'pool party currently'
p1615
aS'weird people calling babe acceptable family member calls'
p1616
aS'poooool'
p1617
aS'pool party'
p1618
aS'gives great pleasure uncle owns pool'
p1619
aS'like virgin touched first time'
p1620
aS'never thought funny'
p1621
aS'sometimes hate entire human race'
p1622
aS'fuckin actually taking piss'
p1623
aS'shit miss someone never ever'
p1624
aS'step brother made pond caught frog'
p1625
aS'round applause juice ruining every song possibly could'
p1626
aS'know youre wirral driving round tops'
p1627
aS'socially acceptable anymore wear baggy jeans especially theyre jeans'
p1628
aS'legs cover cover whole body cover still fucking'
p1629
aS'youre england wear vest youre ultimately going perceived cunt'
p1630
aS'pretty sure majority people would rather spend extra money shop aldi'
p1631
aS'could never bored simpsons'
p1632
aS'felt shit boss bikini'
p1633
aS'life would much easier enough drive'
p1634
aS'trust last lipa'
p1635
aS'follow instagram chloeohanlon snapchat chloeohanlon'
p1636
ag57
aS'yeaaaah'
p1637
aS'people like want wirral since clue liverpool'
p1638
aS'bedroom feels like sauna scared take quilt'
p1639
aS'bear sings muller rice advert hilarious'
p1640
aS'around retards tomorrow'
p1641
aS'would love punch people face'
p1642
aS'samsumg galaxy easily best phone ever'
p1643
aS'never bunch irritating people life'
p1644
aS'like greenhouse lipa'
p1645
aS'assed anyone says lads attractive know theyre good looking sorrynotsorry'
p1646
aS'feel like sort comedy genius snapchat really knobhead'
p1647
aS'attract weirdos wankers clearly'
p1648
aS'fuck wrong loads weirdos asking send nudes snapchat'
p1649
aS'calling people doll chick recently needs stop'
p1650
aS'proper dissapointed geordie shore entertaining'
p1651
aS'cousin acts like older brother'
p1652
aS'committed charlotte boring charlotte'
p1653
aS'scott gary really irritating'
p1654
aS'damn snapchat'
p1655
aS'lesbian wouldnt vicky'
p1656
aS'someone whos boring gwed'
p1657
aS'apparently always feelings past exes true feelings pure hatred'
p1658
aS'honest dont half regret relationships'
p1659
aS'joke immature exes'
p1660
aS'dead depressing walking past empty rabbit cage'
p1661
aS'year brother shouted middle year brothers play rock rock nearly died laughing'
p1662
ag57
aS'pride'
p1663
aS'even messing highlighting spot face much looks like second head'
p1664
aS'lipa amazing'
p1665
aS'cant believe upset rabbit marmy boss ginger rabbit'
p1666
aS'foreign people fucking ignorant'
p1667
aS'earliest months'
p1668
aS'dont feel yesterday feel happy today'
p1669
aS'sleeping pattern fucked'
p1670
aS'theres crazy squealing thing making crazy squealing noises fireplace freaking convinced gremlin'
p1671
aS'hours still wide awake'
p1672
aS'suddenly gone boiling minute'
p1673
aS'thatd greatp'
p1674
aS'look exactly like dont dems yeyeiwish'
p1675
aS'snapchat'
p1676
aS'always feels sense accomplishment someone good looking follows'
p1677
aS'always send pouty snapchats feel like always gotta look best doll'
p1678
aS'cassies episode'
p1679
aS'cassie also reminds mouse'
p1680
aS'really disappointed cassie isnt anymore'
p1681
aS'gwed hair looks brown yeeeeee'
p1682
aS'someone anyone'
p1683
aS'arent sick shitty food weve eaten bbqs incase youve forgot dont like food'
p1684
aS'people even realise fucking irritating mouth open'
p1685
aS'converse wreck feet'
p1686
aS'ridiculous much want festival'
p1687
aS'sort'
p1688
aS'somethin romeo juliet might wing unlikely well'
p1689
aS'completely forgotten might shakespeare something'
p1690
aS'worried case shit hahaha'
p1691
aS'might shorts underneath hahaha dead nervous'
p1692
aS'sound youre youre tanning whats sound couple hours later noticing face full freckles'
p1693
aS'dont wanna wear dress case loads loads physical work'
p1694
aS'thats like need whole wardrobe honestly clue wear'
p1695
aS'probs dress gonna roastin isnt'
p1696
aS'muppet sound'
p1697
aS'really told cousinx'
p1698
aS'defo next year older cousin called sammi yeah'
p1699
aS'festival seems better girls holiday reckon'
p1700
aS'park'
p1701
aS'dave franco scrubs'
p1702
aS'creamfields next year festivaldecisions'
p1703
aS'hate dont even know'
p1704
aS'good hope'
p1705
aS'cant wait either hopefully group time'
p1706
aS'feel like kanye west taken seriously yeezus album'
p1707
aS'proper want maccies anything else'
p1708
aS'magna carta holy grail amazing album'
p1709
aS'lipa tomorrow wait'
p1710
aS'keep hiding'
p1711
aS'mannequin almost good first'
p1712
asS'2013_17'
p1713
(lp1714
S'lets take minute appreciate delightful word cunt'
p1715
aS'cant anymore full food'
p1716
aS'really need gangan right'
p1717
aS'always devastating side argument'
p1718
aS'travel lonely gangster road negro'
p1719
aS'chat much shit question ethics allowed marriage love grow relationship bork'
p1720
aS'best question ethics definitely marriage hahaha hilarious'
p1721
aS'gangan'
p1722
ag57
aS'must great knowing mates allllll cousin hahaha familyaffair'
p1723
aS'night boring noticed rocky 2amp3'
p1724
aS'heads banging clearly'
p1725
aS'wish gerrin drunk smackheads house weekend naaaaaaaaat'
p1726
aS'time last week barbecue best mate mine shite'
p1727
aS'dads gave thirty quid nothing getin'
p1728
aS'love every conversation usually consists word princess hahaha daddysgirl'
p1729
aS'wana alton towers thorpe park'
p1730
aS'ignore many people facebook unreal'
p1731
aS'dollars hour thats pretty stiff well nobut potential'
p1732
aS'mentalbreakdown'
p1733
aS'fuck understand away unwanted nosey bastard terrible night'
p1734
aS'shit different shut idiot'
p1735
aS'whys cousin protective annoying'
p1736
aS'never group friends copy constantly love pricks'
p1737
aS'anyone htid name cunt'
p1738
aS'wheres candle need'
p1739
aS'need watch little mermaid lost'
p1740
aS'never know react people compliment compliment back thanks confusing'
p1741
aS'always look drinks drink accidentally drank ants horrific'
p1742
aS'hate kids bored word'
p1743
aS'chlo youve gone ginger ginge sexiest colour dads best mate great'
p1744
aS'corby'
p1745
aS'swear spots worst times world'
p1746
aS'need rich'
p1747
aS'want rolex definitely think certain someone daddy willing wait long'
p1748
aS'careful fore meet host like oprah winfrey'
p1749
aS'told going revise home done fuck watch pointless shit telly need motivation'
p1750
aS'ever gettin sleep knowing room'
p1751
aS'take piss twins swear looks like youve eaten littlenlarge jokes'
p1752
aS'feelin like need light candle'
p1753
aS'sweaaaar people purposely stupid questions wind'
p1754
aS'might well take giveup'
p1755
aS'never getting shot play ever covered bruises'
p1756
aS'think reeeeaally funny childish people actually'
p1757
aS'would terrible without phone rely much barely cope texts sending'
p1758
aS'thank life saver'
p1759
aS'hate phones working'
p1760
aS'youre telling urgh'
p1761
aS'lasting agessss'
p1762
aS'theyre temporarily problems'
p1763
aS'like hour feel lost'
p1764
aS'feel like cryin'
p1765
aS'alright mine arent working fuminnnn'
p1766
aS'anything phone like texts sending mine wont'
p1767
aS'love caribbean nanaampgranddad much unreal'
p1768
aS'full drama exhausting'
p1769
aS'turned lift smyth warra like chlo'
p1770
aS'love going loads hate getting home'
p1771
aS'phone broke missed another went past clearly today'
p1772
asS'2013_37'
p1773
(lp1774
S'arnold movie netflix life doesnt much better'
p1775
aS'years cant spell shrek'
p1776
aS'obsession prison break getting much'
p1777
aS'people send candy crush requests banned social networking sites irritating cunts'
p1778
aS'wrecks head people favourite tweets someone'
p1779
aS'fuck possible grow sense humour unlimited seeds'
p1780
aS'rosies friend gave bath'
p1781
aS'knowing fact someones wait admit'
p1782
aS'didnt know demi lovato prison break'
p1783
aS'hours hehuhehuhehu pass fucking'
p1784
aS'hope people dont read think drug dealer'
p1785
aS'gorra gerra jobs first yeno sell cheddar laffin'
p1786
aS'yeye loaded'
p1787
aS'might tomorrow'
p1788
aS'boss reward want medal'
p1789
aS'feelin proper special means'
p1790
aS'cant wait friendship develops'
p1791
aS'sure'
p1792
aS'really'
p1793
aS'sarcy well could boss mates like'
p1794
aS'bein sarcastic yeno'
p1795
aS'know dont'
p1796
aS'mate faith honest'
p1797
aS'miss hair bein like'
p1798
aS'gwed surprise'
p1799
aS'dont wanna back rather gave somethin'
p1800
ag57
aS'give receive afraid'
p1801
aS'return gold medal'
p1802
aS'much money think'
p1803
aS'howa bout give gold colour plastic'
p1804
aS'sound itll solid plastic swear'
p1805
aS'count feel proper sorry wanna medal'
p1806
aS'babe goldfish died recently tell dare'
p1807
aS'clearly sick hahaha hoping dont spell anythin wrong case tweet'
p1808
aS'youre scouse boss hahahaampi know shocking isnt'
p1809
aS'youre quite amusing well taking piss people cant spell haha somethin common havent'
p1810
aS'amusing person cant sleep usually nasty though promise'
p1811
aS'slating dont worry'
p1812
aS'youre expect response norra paragraph goldfish rabbit died month'
p1813
aS'bored skull someone'
p1814
aS'thought know swear feel special'
p1815
aS'hahaha thought would'
p1816
aS'know youre liverpool area term swear'
p1817
aS'asked someone inbox facebook someone sent life story fuckinell'
p1818
aS'many sweets shakin'
p1819
aS'boyf michael scofield posin'
p1820
aS'boss mood swear'
p1821
aS'fucking hate ignored'
p1822
aS'might cover photo'
p1823
aS'dont even remember wasnt drunk rarely take nice sobre photo'
p1824
aS'love bezzie'
p1825
aS'taken look gorj'
p1826
aS'never gonna able live alone'
p1827
aS'scared hate home alone'
p1828
aS'isnt gorgeous'
p1829
aS'looking forward bored going tonight'
p1830
aS'pathetic faced people'
p1831
aS'brother nsisterfunnyvideonoiseslaughinglovecorbinhashtaglol'
p1832
aS'mums hilarious good looking chlo talk confidence boost half'
p1833
aS'good looking sister'
p1834
aS'cant believe locked'
p1835
aS'definitely think remade titanic'
p1836
aS'excited cats countdown tonight thats boring life'
p1837
aS'simpsons best simpsons'
p1838
aS'text didnt reply thought either annoyed dead phone broke'
p1839
aS'phone broke'
p1840
aS'watched episodes prison break today obsessed swear'
p1841
aS'think everyone stopped watching misfits nathan left'
p1842
aS'pisses trusted'
p1843
aS'hashtag filter'
p1844
aS'justify paying quid outfit'
p1845
aS'must give people great first impression'
p1846
aS'girl kendrick lamar benzistomejustacar'
p1847
aS'people come mine mums like would like beverage posh voice shes like wanna fuckin drink'
p1848
aS'wanna main squeeze nigga dont wanna lick knees nigga'
p1849
aS'sleepin dawg'
p1850
aS'common room'
p1851
aS'came home shit mood'
p1852
aS'tired bothered making effort today'
p1853
aS'fucks given sixth form today comfortableclothes nomakeuplol'
p1854
aS'leonardo dicaprio high school'
p1855
ag57
aS'important stupid fucking people'
p1856
aS'really fancy miley cyrus wrecking ball video'
p1857
aS'saturday'
p1858
aS'shes gwed'
p1859
aS'need cant apply without national insurance number time comes jobs gone'
p1860
aS'outfit sorted 28th aaaah'
p1861
aS'need dress shops shit'
p1862
aS'typical scouse status'
p1863
aS'cant conversation without screaming'
p1864
aS'need party weekend shit people'
p1865
aS'always banger makes want hammered'
p1866
aS'would best thing ever'
p1867
aS'seen status many times already even fuckin winter'
p1868
aS'dont think wait'
p1869
aS'start september america thougu'
p1870
aS'penis giving birth children mmmmmmm know turns'
p1871
aS'seen jess nick runaway great'
p1872
aS'series'
p1873
aS'youve missed whole series'
p1874
aS'best ending girl ever'
p1875
aS'guess whos back bugs bunny'
p1876
aS'noodles appetising slightest'
p1877
aS'eminem songs always class'
p1878
aS'lads think girls want cuddles jacket dont'
p1879
aS'snapchat chloeohanlon'
p1880
aS'people good looking dont even know'
p1881
aS'done alllll homework finally feel less stressed'
p1882
aS'hate lads date especially youre table five girls asked date'
p1883
aS'bull puppys cutest things ever'
p1884
aS'stressed'
p1885
aS'maccies breaky'
p1886
aS'people telling problems around hear mine'
p1887
aS'someone anyone'
p1888
aS'people expect much'
p1889
aS'gonna gutted parties saturday'
p1890
aS'bored also lazy anything'
p1891
asS'2013_36'
p1892
(lp1893
S'irritating people spell definitely wrong spell defiantly instead theyre completely different words'
p1894
aS'picture makes happy hahaha'
p1895
aS'people natural born models'
p1896
aS'looking someone whos gorgeous thinking shit youve improved'
p1897
aS'channeling inner miley cyrus last night'
p1898
aS'whole bodys bruised last night'
p1899
aS'worlds best looking brothers'
p1900
aS'know party good dont remember much'
p1901
aS'chat shit sober cant even imagine shit chat drunk'
p1902
aS'sleeps'
p1903
ag57
aS'snapchat chloeohanlon'
p1904
aS'thought sixth form tomorrow depressing'
p1905
aS'last night'
p1906
aS'least appetising mcdonalds ever'
p1907
aS'cant handle noises people make whilst eating'
p1908
aS'bellend'
p1909
aS'proper sobin'
p1910
aS'please come save'
p1911
aS'mcdonalds curing hangovers since 1940'
p1912
aS'feelin sorry anyone else whos hungover feelin pain'
p1913
aS'sick death trying people arsed'
p1914
aS'definitely reckon people things done drunk'
p1915
aS'always worrying told funny whilst drunk'
p1916
aS'going look rough sixth form tomorrow worth'
p1917
aS'boss photo bomb'
p1918
aS'last night'
p1919
aS'fucking hate hangovers'
p1920
aS'alcohol isnt worth feeling afterwards'
p1921
aS'excited tonight best friend going hammered'
p1922
aS'cant wait tonight bezzzie really need ready birthday monday waaaay'
p1923
aS'dont look back anger heard'
p1924
aS'haaaate internet phone feel lost'
p1925
aS'fuckin'
p1926
aS'happiest person alive'
p1927
ag57
ag57
ag57
aS'thought sexy goat'
p1928
aS'time judgmental people'
p1929
aS'chlo chlo entertain'
p1930
aS'cute'
p1931
aS'love goats'
p1932
aS'wedding going great'
p1933
aS'people thinking control speak'
p1934
aS'broke heart'
p1935
aS'york'
p1936
aS'wedding'
p1937
aS'know letting decide'
p1938
aS'decide'
p1939
ag57
aS'sure'
p1940
aS'stop blushing'
p1941
aS'youre genius'
p1942
aS'scousers'
p1943
aS'name like sinead think'
p1944
aS'theyve together days makes worry humanity'
p1945
aS'annoyed used instead'
p1946
aS'status like banned social networking sites'
p1947
aS'goes around comes around'
p1948
aS'weird obsession boys ginger hair'
p1949
aS'actually want homework cant'
p1950
aS'people take moods others'
p1951
aS'gimmicks wack lyrics shit depressing pathetic please forget'
p1952
aS'raplikelilwayne michael jackson left room told white black'
p1953
aS'always forget reply people complain take ages reply'
p1954
aS'people overly nice'
p1955
aS'fuck respond compliments thanks headed disagree called attention seekin'
p1956
aS'dont know people overly confident'
p1957
aS'ignore face genuinely went house wearing garden crocsampfor deserve kicked face'
p1958
aS'bored people quickly'
p1959
aS'nanas still hilarious considering whats happened said told trinidad came banana boat'
p1960
aS'rest peace granddad lots love great granddaughter'
p1961
aS'hate seeing nana horrible'
p1962
aS'long tiring'
p1963
aS'shit start'
p1964
aS'cant believe granddad hope nannas'
p1965
aS'tipsforyear7s walk abit faster youll although understand thats difficult weighs'
p1966
aS'couldnt less arsed love boyfriend tell entire fuckin world'
p1967
aS'second sixth form looking like hibernating years'
p1968
aS'idea going half tomorrow'
p1969
aS'favourite tweet usually means fancy'
p1970
aS'nobody uses facebook anymore someone pass'
p1971
aS'funny condom slogans'
p1972
aS'shirley jenny captive reunited years fuckin love elephants'
p1973
aS'would posses fianc\xc3\xa9 plan wedding'
p1974
aS'british spies would semen invisible discovered named mansfield cumming'
p1975
aS'fell asleep didnt'
p1976
aS'fuckinell well arent grade bellend'
p1977
aS'slightly hahaha'
p1978
aS'gets'
p1979
aS'explains smicers knobhead'
p1980
aS'actually think retarded'
p1981
aS'proper head year tellin cares results shes aint assed kinell'
p1982
aS'sister knows exactly piss'
p1983
aS'worn sixth form hours goes show lazy'
p1984
aS'love bitches thats fuckin problem'
p1985
aS'knew'
p1986
aS'grind relax body take time'
p1987
aS'sorta looking forward sixth form prevent bored hours'
p1988
aS'catfish fucked'
p1989
aS'alls sleep'
p1990
aS'catfish back'
p1991
aS'example eating subway mcdonalds least week made lose stone eating carrot made gain weight'
p1992
aS'imagine turned mcdonalds really good salad made'
p1993
aS'werkitwahlberg'
p1994
aS'love much bought subway'
p1995
aS'best mate boss gettin subway'
p1996
aS'want poke people send candy crush requests stick'
p1997
aS'lazy rosedawg'
p1998
aS'makes happier person someone good looking follows'
p1999
aS'life would less stressful could sleep whenever felt like'
p2000
aS'fell asleep couch hour hahaha cute'
p2001
aS'gorgeous'
p2002
aS'cant believe didnt even final look tired'
p2003
asS'2013_35'
p2004
(lp2005
S'shattered'
p2006
aS'farewell alton towers wifi missed'
p2007
aS'tired cant wait home doggy'
p2008
aS'nemesis terror amazing'
p2009
aS'free krave alton towers mate'
p2010
aS'good time finally conquered fears went oblivion'
p2011
aS'smiler best ride ever'
p2012
aS'route alton towers family csnt help laugh getting layla declan hahahaha'
p2013
aS'discussing future alton towers trip really sleeping tomorrow'
p2014
aS'wide awake talking pigs asleep'
p2015
aS'lifes sound though remembered alton towers tomorrow'
p2016
aS'finally snapped coming dark side'
p2017
aS'take take'
p2018
aS'didnt mean hurt statement full shit every single time said'
p2019
aS'people really piss'
p2020
aS'extreme case pink revengeissweet'
p2021
aS'done gerraway'
p2022
aS'feel like people fucking purposely upset'
p2023
aS'want luke friend already sung time favourite song love marry'
p2024
aS'scooby today fuckin talented'
p2025
aS'shop hours another yawn'
p2026
aS'sainsburys half price element'
p2027
aS'nans cute buying school stationery'
p2028
aS'cant wait alton towers tomorrow excited smiler'
p2029
aS'love doll miss ginger hair'
p2030
aS'eventful night'
p2031
aS'love daddy'
p2032
aS'still waiting empty threat scare year'
p2033
aS'childish pathetic trampy immature little loser'
p2034
aS'tired bored pissed world'
p2035
aS'really stressing outfit wear tuesday already frustrating'
p2036
aS'headed person happy angry matter seconds theres inbetween'
p2037
aS'contemplating baby wipes'
p2038
aS'close tears'
p2039
aS'little sister bought freshener birthday dont know react'
p2040
aS'leasowe fuckin depressing'
p2041
ag57
aS'love hunters'
p2042
aS'still trying figure exactly happened'
p2043
aS'actual fuck even happened'
p2044
aS'proper fumin moneys taken'
p2045
aS'jealous person terrible'
p2046
aS'fucked last night'
p2047
aS'sick death second best fucking time'
p2048
ag57
aS'rocky bein boss'
p2049
aS'like j\xc3\xa4ger bombs'
p2050
aS'definition moreton people chatted year ginger kids'
p2051
aS'lovin life arent'
p2052
aS'dont half cunts snapchat'
p2053
aS'youre kanye west like black skinhead like holy grail people annoy'
p2054
aS'famous comedian last name maybe related'
p2055
aS'literally took hour half find energy'
p2056
aS'proud'
p2057
aS'shes shit babysitter'
p2058
aS'would perfectly capable taking care house next days aunties gotta babysit hasnt'
p2059
aS'pale roll next holiday'
p2060
aS'hour sleep magical'
p2061
aS'sweatsuit cocktail jackass makes feel'
p2062
aS'loved birthday much'
p2063
aS'hunter wellies came theyre perf boss birthday'
p2064
aS'nice malteser milkshake typical scouse language boss bossmilkshakethatlad'
p2065
aS'sblended milkshake'
p2066
aS'thanks dolly miss come stay mine soon xxxxxx'
p2067
aS'today year brother least inches taller foreveramidget'
p2068
aS'birthday high want stereotypicalbirthdaytweet'
p2069
aS'thanks kiddo still youngun heart love'
p2070
aS'thank katexxxxxx'
p2071
aS'wide awake like little'
p2072
aS'happy birthday'
p2073
aS'despicable hilarious'
p2074
aS'confused'
p2075
aS'really want fucked'
p2076
aS'beat talk dirty makes want pissed'
p2077
aS'everyone singin along westlife havent'
p2078
aS'dont drop text doll'
p2079
aS'text twice wondered didnt reply'
p2080
aS'come women weed weather'
p2081
aS'little brother cute pain sometimes love ginger'
p2082
aS'definitely going less makeup phase'
p2083
aS'pizza pizza'
p2084
aS'didnt either'
p2085
aS'defo ulterior motive performance vmas allpublicityisgoodpublicity'
p2086
aS'neeed know english literature project weatherhead sixth form asap'
p2087
aS'early birthday presents plus park ticket feelingspoilt thanksmum'
p2088
aS'sent dazz video spitting water elephant dont know gets time'
p2089
aS'england darren right woulda seen video bein elephant missingout shameonyou'
p2090
aS'shouldnt allowed snapchat time'
p2091
aS'omfg mars bars retweeted chelsea hibbert tweet dead'
p2092
aS'must fucking retarded dont know difference'
p2093
aS'still cant stomach thought mars bars nice hibbo'
p2094
aS'watching american theyre singing give franny fanny inappropriatenameforbum'
p2095
aS'weird bond rabbit like'
p2096
aS'bored someone please'
p2097
aS'married yeah well fucked first joan rivers makes laughter'
p2098
aS'love conversations someone never serious always take piss'
p2099
aS'snapchat keeps telling people screenshotting send sure lying people cunts'
p2100
aS'hate text'
p2101
aS'tranny snog marry avoid pure lads saying wanna snog himher cryin'
p2102
aS'want beats pill'
p2103
aS'shower straight back jarmies'
p2104
aS'proper fumin'
p2105
aS'wrecking ball amazing song'
p2106
ag57
aS'wholes bodies aching idea'
p2107
aS'kendrick lamar fucking unreal vmas'
p2108
asS'2013_34'
p2109
(lp2110
S'cant believe bride prejudice bollywood version pride prejudice enjoyed'
p2111
aS'want wait weeks'
p2112
aS'chick'
p2113
aS'could better haha missing doll'
p2114
aS'shit mood hasnt helped'
p2115
aS'finding something makes stomach drop worst feeling ever'
p2116
aS'sure trendy ootd hangoverclothes'
p2117
aS'cryin alright cowboy'
p2118
aS'unreal though waste much time person never remotely bothered'
p2119
aS'knobhead'
p2120
aS'sharing wasp isnt experience'
p2121
aS'theres fucking wasp motorway'
p2122
aS'wanting ground open swallow right'
p2123
aS'bored head'
p2124
aS'told uncles time shes still'
p2125
aS'alls fucking smell cinnamon making bork'
p2126
aS'wheres need food asap'
p2127
aS'genuinely called willy year cousin'
p2128
aS'became clear still ever slightly drunk'
p2129
aS'meet puppy today excited'
p2130
aS'make people wish lived seacombe'
p2131
aS'ciggie burns back classybird shesa10'
p2132
aS'cant handle people seacombe currently looking woman skirt'
p2133
aS'lucozade cures everything'
p2134
aS'finding beauty phone'
p2135
aS'shock killer'
p2136
aS'tonight'
p2137
aS'excited hair done today'
p2138
aS'excited pissed tomorrow feels like ages'
p2139
aS'stressing thought find outfits wear sixth form'
p2140
aS'shag telly piss meself hahahahaha'
p2141
aS'hunter wellies bday bring park next year'
p2142
aS'dont like feeling like someones possesion'
p2143
aS'gonna fucked'
p2144
aS'shoes cute'
p2145
aS'dress came'
p2146
aS'fumin clothes still delivered'
p2147
aS'dont know pain watching food know cant anything like'
p2148
aS'since half clothes still havent delivered'
p2149
aS'finally kanyes baby today feel like waited year'
p2150
aS'cool walking pimpin though'
p2151
aS'hate brother charlotte crosbys watch'
p2152
aS'havent experienced pain youve stubbed bare gravel'
p2153
aS'leather converse cause much pain'
p2154
aS'much happy minute woke absolutely shit including happiness results'
p2155
aS'fucking joke'
p2156
aS'flowers results 100quid gettin hair done feelin like prin'
p2157
aS'fucking money anyway dont need tenner nerner gettin aftershock treat allll dosh'
p2158
aS'shock saturday could refuse'
p2159
aS'watchin programme hordes rats rats borking watching'
p2160
aS'youre brains must true thank xxxxxx'
p2161
aS'initial happiness getting results alls youre really left letters piece paper'
p2162
aS'good comes phone calls dont really know conversation'
p2163
aS'mates dead close drunk'
p2164
aS'pharrel azealia banks song together life complete'
p2165
aS'secretly skin like obvious spots look closely theres pure blackheads impossible'
p2166
aS'never ever step maths classroom againoh lord adios fuckersss'
p2167
aS'know gutted goin every week cryin hard xxxxx'
p2168
aS'exactly thank well done toowe done kelly proud haha xxxxx'
p2169
aS'gcses help towards alevels alevels help towards often helps fail theyre irrelevant'
p2170
aS'watching episodes prison break think clear wentworth miller anyway'
p2171
aS'alan sugar left school gcses yeah youre alan sugar'
p2172
aS'people saying gcses dont count hope youre happy even maccies hire idiots'
p2173
aS'miley cyrus requested would hilarious blue ends looking like'
p2174
aS'cant wait celebrate saturday bevs'
p2175
aS'happy girl'
p2176
aS'sobbed english results believe'
p2177
aS'happy results'
p2178
aS'fucking need shitting results doesnt fucking help'
p2179
aS'wide awake westlife songs stuck head'
p2180
aS'little world tell things noone else knows noone else goess'
p2181
aS'like tyga cant even compare chainz alone kendrick'
p2182
aS'else fails comes exams kendrick lamars bitch'
p2183
aS'mums wrote heartfelt status bein proud matter shell gutted though dont pass anything pressure'
p2184
aS'cant cope cousin ringing tell stabbed someone name might rocky mate youre solid'
p2185
aS'assed results lookin forward gettin pissed yeah sure youll saying youre working subway tits'
p2186
aS'guns boss film markwahlberg'
p2187
aS'besto bein cute datep'
p2188
aS'would anything yaayoghurt right'
p2189
aS'never felt shitty'
p2190
aS'dont know whether stay wait fuck sleep'
p2191
aS'craving toast much know cant'
p2192
aS'dont know take people'
p2193
aS'things start looking alright turns shit'
p2194
aS'need clear head naaaaa'
p2195
aS'described horrific mood ever'
p2196
aS'feel like every memory granddad taken away'
p2197
aS'well thats pissed'
p2198
aS'little brother licked cheek asked response chlo movies'
p2199
aS'special brother'
p2200
aS'dads protective cute'
p2201
aS'would happily poke sometimes winds much'
p2202
aS'strand hair afro'
p2203
aS'shes amazing general'
p2204
aS'cara delevigne amazing singer'
p2205
aS'fulfilling dinner ever eaten free could used healthyeating'
p2206
aS'wanking thought drinking mate youre drinking park bench thing special situation'
p2207
aS'thanks sympathy'
p2208
aS'cried minutes confused harhar sadme'
p2209
aS'hilarious girls claim hate cheats willingly allow someones boyfriend cheat whatgoesaroundcomesaround'
p2210
aS'amazing happy engagment ring disneyprincess'
p2211
aS'well found sleeping plan utterly fucked tonight'
p2212
aS'meanwhile china'
p2213
ag57
aS'shurrup stretch'
p2214
aS'lanky bastard'
p2215
aS'scott anyone whos taller considered lanky head'
p2216
aS'look outside window lanky ready fight'
p2217
aS'sayin gwed'
p2218
aS'baby brother turned saturday since crying time throwing tantrums toddlerhormones'
p2219
aS'swear people hashtags gwed twitter instagram'
p2220
aS'watched pitch perfect attempt keep awake scene diggity excited hyper gerrin'
p2221
aS'life would 100x easier perfect body'
p2222
aS'really love like asked girlfriend would asked foot rest would'
p2223
aS'think comedy genius'
p2224
aS'wish permanent'
p2225
aS'always send attractive snapchats snapchatmodelme'
p2226
aS'hahahaha wont chicken head'
p2227
aS'episodes prison break ohman'
p2228
aS'loooove snuggie'
p2229
aS'reunited best palother half love doll gaytweet'
p2230
aS'hahaha goodo'
p2231
aS'nothing nothing general chit chat 10bag'
p2232
aS'bird'
p2233
aS'good week planned hahaha tenbag told luke xboxliveafte\xe2\x80\xa6'
p2234
aS'first thing said yeah still done clear youre butch lesbian type'
p2235
aS'nooo doors open hahahaha'
p2236
aS'infuriates people dont leave'
p2237
asS'2013_33'
p2238
(lp2239
S'going start watching prison break feel like missing'
p2240
aS'definitely loveslightly obsessed mark wahlberg'
p2241
aS'crying kuwtk episode khloe kris teepee kims house'
p2242
aS'snapchat chloeohanlon'
p2243
aS'cryin'
p2244
aS'kardashian lost looks'
p2245
aS'excited wednesday like little'
p2246
aS'eating roast dinner order'
p2247
aS'weeks days spain yeeee'
p2248
aS'need'
p2249
aS'story life'
p2250
aS'need invest running shoes'
p2251
aS'taking drastic action going serious diet starting tomorrow needtobemotivated'
p2252
aS'mood need cheer'
p2253
ag57
aS'thought'
p2254
aS'galaxy'
p2255
aS'cant wait caramellll'
p2256
ag57
aS'nearly heart attack noticed netflix original tracy beaker series'
p2257
aS'jealous person joke'
p2258
aS'treating episode drake josh netflix'
p2259
aS'hate missing people'
p2260
aS'happy birthday phoebe'
p2261
aS'would anything back coma'
p2262
aS'hate able speak someone every'
p2263
aS'happy birthday baby brother harry today'
p2264
aS'friends come'
p2265
aS'hash browns gift'
p2266
aS'nothing irritating someone narrating film watch watching whole fucking film case didnt notice'
p2267
aS'going watch stand repeat today movieday'
p2268
aS'chloe liam\xf0\x9f\x98\x82'
p2269
aS'dont care sound love called princess'
p2270
aS'trend setting airport'
p2271
aS'sleep deprivation foul mood'
p2272
aS'body desperate need detox'
p2273
ag57
aS'honestly cant wait best mate back moody bitch weeks'
p2274
aS'home already miss people'
p2275
aS'greeted beautiful weather naaaat getmebacktospain'
p2276
aS'drop like earthquake'
p2277
aS'want results'
p2278
aS'proper laughing tweets wouldnt look weird people'
p2279
aS'gonna drown splashes time'
p2280
aS'vile mood'
p2281
aS'hope every1 resultz wanted hope every1 btecs enjoyz work hour xxxxxxx'
p2282
aS'swear build results giving nightmares'
p2283
aS'okie'
p2284
aS'excited know gonna alcoholic'
p2285
aS'thankful boiling england every need cold weather'
p2286
aS'know know still dead muchos need bevving plans back'
p2287
aS'miss best mate much want moan bleugh sadme'
p2288
aS'lana grown much newobsession'
p2289
aS'moaned reason'
p2290
aS'miss much cant wait'
p2291
aS'sooner ends sooner drink'
p2292
aS'free champagne please'
p2293
aS'thank youu later'
p2294
aS'liams never happy free wifi'
p2295
aS'theyre topless well liam alex'
p2296
aS'dont know pirates theyre'
p2297
aS'biggie biggie biggie cant sometimes words hypnotise'
p2298
aS'jealous girls look flawless pool'
p2299
aS'hate dreams people youd rather forget completely'
p2300
aS'lifes bitch thats high never know gonna'
p2301
aS'boys born ability play snooker'
p2302
aS'funny well done'
p2303
aS'liked'
p2304
aS'spooning partner needed though'
p2305
aS'stepdad always gets sunbeds muppet'
p2306
aS'know missin youxx'
p2307
asS'2013_32'
p2308
(lp2309
S'beautiful though'
p2310
aS'essex called darlin twice think might love'
p2311
aS'wont dont worry'
p2312
aS'excited'
p2313
aS'tent shopping starbucks'
p2314
aS'home friday chick work saturday miss besto'
p2315
aS'doll'
p2316
aS'fucking'
p2317
aS'tyler creators voice gives shivers'
p2318
aS'contacts phone useless'
p2319
aS'enjoy thinking quiz boys gerraway'
p2320
aS'struggle come terms fact dont look like lucy mecklenburgh'
p2321
aS'always dead people leave'
p2322
aS'ridiculous drunk already'
p2323
aS'cant stand people pretend drunk\xe2\x80\x9d name shame time liam'
p2324
aS'cant stand people pretend drunk'
p2325
aS'james dave franco fucking sexy pair brothers'
p2326
aS'scott disick'
p2327
aS'better feeling meeting people feeling like youve known years'
p2328
aS'pisses parents belittle'
p2329
aS'love people geniuenly make laughter without even trying'
p2330
aS'best scene'
p2331
aS'times like today need best mate'
p2332
aS'sick people using weight insult'
p2333
aS'thank camping trip'
p2334
aS'feel sorry experiencing burn first time'
p2335
aS'hormonal girls'
p2336
asS'2013_31'
p2337
(lp2338
S'planning tickets spain'
p2339
aS'degrees night'
p2340
aS'welcome good life like girls aint models'
p2341
aS'tell someone likes dont'
p2342
aS'dont know react fact people still like pages facebook'
p2343
aS'point thanking someone follow'
p2344
aS'theres something really fucking mentally wrong people'
p2345
aS'tight'
p2346
ag57
aS'swear theres straights gays pride'
p2347
aS'people gettin'
p2348
aS'fuck next years family holiday already bored prepubescent teenage girls thinkin theyre dont even boobs'
p2349
aS'someone boooored'
p2350
aS'want fest kinell'
p2351
aS'hope drunk tonight last night tragic'
p2352
aS'wish older sister drunk rather bored'
p2353
aS'fuckin ridiculous know words actions kids songs'
p2354
aS'people judgin kids band look heads'
p2355
aS'note self dont come back holiday relationship time beentheredonethat'
p2356
aS'snoop dogg ridiculously cool'
p2357
aS'time difference hour ahead sending white quite sure whats going'
p2358
aS'shame look half naked boys everyday weeks terrible view'
p2359
aS'cracked expecting bouncin walls excitement since rather'
p2360
aS'absolute tortue time'
p2361
ag57
aS'worst things ever shave legs miss'
p2362
aS'jason derulos song chainz actually good'
p2363
aS'thanks'
p2364
aS'dont know regret'
p2365
aS'would even tweet first place'
p2366
aS'tint kinell think serious dickhead'
p2367
aS'scouse brows next level'
p2368
aS'juice banned playing song twice'
p2369
aS'even birthday wanna lick icin'
p2370
aS'says mike wazowski though'
p2371
aS'year facebook youre youre virgin smoke drink life come shes bummed'
p2372
aS'transformation three years though'
p2373
aS'peem'
p2374
aS'like 1000 people facebook know probably pointless'
p2375
aS'sure people favouriting tweet subtle flirt confuse'
p2376
aS'makes laugh every time'
p2377
aS'favouriting tweet usually means trying subtle flirt'
p2378
aS'yeye terry saint'
p2379
aS'moto ages take care natural scouse brows haha fake'
p2380
aS'couldnt arsed religious parents'
p2381
aS'need something planned results depending results'
p2382
aS'brows make everything haha'
p2383
aS'vegas like giant christmas tree reckon switch little standby button leeevans'
p2384
aS'eyebrow tint nails holiday'
p2385
aS'joke excited eyebrows done tomorrow pain amazing'
p2386
aS'evans comedy genius though'
p2387
aS'nelson irritating cunt'
p2388
aS'hungry today though'
p2389
aS'still dont matter angry cheat youre telling couldnt first wait'
p2390
aS'could watch vine videos'
p2391
aS'dont know people wuu2 hate'
p2392
aS'monsters pretty deep film'
p2393
aS'look pictures exes laugh'
p2394
aS'need videos saturday'
p2395
aS'keep looking picture saturday thinking eeee chlo like hahaha'
p2396
aS'coma majorca marbs portugal within year next year wait'
p2397
aS'cant believe goin marbs next year party'
p2398
aS'mingin people butties cheese'
p2399
aS'pissing coma enjoying heat'
p2400
aS'understanding sudden craze peem'
p2401
aS'told flower bloomed dark room would trust'
p2402
aS'youre friends'
p2403
aS'dance father makes every time listen'
p2404
aS'first assumption always birthday present best mate going penis related'
p2405
aS'said baby brother love back looked blankly replied back nice'
p2406
aS'like rate'
p2407
aS'despise aztec dresses much'
p2408
aS'love sunglasses'
p2409
aS'feel like people disgusted tell never seen harry potter'
p2410
aS'offended hahaha'
p2411
ag57
ag57
aS'need someone entertaining life'
p2412
aS'lets take second appreciate calvin harris many talents'
p2413
aS'white family norron'
p2414
aS'thanks chick'
p2415
ag57
aS'people america'
p2416
aS'abecrombie fitch model suttin'
p2417
aS'haha youll'
p2418
aS'cant wait holiday forget everything weeks plus makes everything better fact'
p2419
ag57
aS'hahahahahahahahaha'
p2420
aS'ridiculously tired'
p2421
aS'theres worse noise screaming baby youre trying sleep'
p2422
aS'really regret watching last episodes girl excited made tired'
p2423
aS'past five sleep'
p2424
aS'hahahaha shit'
p2425
aS'cant sleeeeep'
p2426
ag57
aS'wait dickhead'
p2427
aS'bite wont'
p2428
aS'stop talkin like imbecile'
p2429
aS'lyin'
p2430
aS'thats'
p2431
aS'love hurt'
p2432
aS'gerraway'
p2433
aS'retard'
p2434
aS'liar'
p2435
aS'still'
p2436
aS'died years franky mate'
p2437
aS'people write life story facebook still write lyrics status'
p2438
aS'first clue swag notes unbelievably name swag notes'
p2439
aS'unfortunately facebook doesnt work like'
p2440
aS'likes make feel better irritating'
p2441
aS'neither someones practically writing book lives status'
p2442
aS'time people document lives facebook'
p2443
aS'cunt'
p2444
aS'enjoying episode skins violent'
p2445
aS'nicole scherzinger balls really seductively muller advert'
p2446
aS'vampire weekend album night suddenly improved'
p2447
aS'yeah know hahahaa thats decent'
p2448
aS'haha weird bond salt vinegar hahaha'
p2449
aS'vinegar washes salt away'
p2450
aS'wrong unreal really annoys hahaha'
p2451
aS'people salt vinegar something wrong brain'
p2452
aS'cook skins tonight love life going telly whole hour'
p2453
aS'eaten massive daim milka dont even feel guilty toonice fatty'
p2454
aS'text bored'
p2455
aS'finger looks dead nice'
p2456
aS'always'
p2457
aS'hahaha gimp'
p2458
aS'bored seein girls moreton walking round dweeb nerd tops'
p2459
aS'want relationship remember shit comes'
p2460
aS'dont molly rock ford'
p2461
aS'hatin techno kanyes album'
p2462
aS'tweet least four times week much cant stand noisy eaters repeat fucking hate noisy eaters'
p2463
aS'argumentative mood willing take anyone decides piss today'
p2464
aS'didddd'
p2465
aS'pain want walk cant'
p2466
aS'noticed tint love itampano fussy hahahaha'
p2467
aS'kept goin sooo ginger random people never even knew ginge hahaha'
p2468
aS'soooooo moodysamezies kidda'
p2469
ag57
aS'hair colour changes suit parties hahahaha'
p2470
aS'need house'
p2471
aS'bite mark hurts much'
p2472
aS'best thing ever seen fuck bitches money'
p2473
aS'hours sleep amazin'
p2474
asS'2013_30'
p2475
(lp2476
S'probably jealous person world'
p2477
ag57
aS'tagged random yeye'
p2478
aS'yesterdays antics certain realised else fails always marry'
p2479
aS'recall reciting goonies head last night hahaha'
p2480
aS'know look exactly different hair colour hahaha'
p2481
aS'yeah loved remember yeye deffoxxxx'
p2482
aS'thanks worries good timexxxx'
p2483
aS'need picture kissing cheek tradition hahahaha cute'
p2484
aS'love photo'
p2485
aS'looove thunderstorms'
p2486
aS'theres trail cups house road hahaha'
p2487
aS'thanks best mate bossss party still slightly bevvied'
p2488
ag57
aS'well thoroughly enjoyed last night remember'
p2489
aS'hahaha instant bond'
p2490
aS'everyones asleep fukin awake'
p2491
ag57
aS'yeah fine tash thank'
p2492
aS'good sleep baby'
p2493
aS'head fucked'
p2494
aS'anytime kiddo'
p2495
ag57
aS'yesss party lets ittttttt drunk'
p2496
aS'partyyyy'
p2497
aS'moaning today'
p2498
aS'today dragging much'
p2499
aS'bitch dont kill vibe'
p2500
aS'loooove bein tanned yaay gettin ready'
p2501
aS'asked hoover stairs purpose hold none'
p2502
aS'mums horrible mood putting horrible mood well'
p2503
aS'mtvhottest direction shut fuck actually look like year olds theyre fuckin glass milk'
p2504
aS'woke little rascals'
p2505
aS'stressssssed'
p2506
aS'could fuckin assed carrying things year later gerraway'
p2507
ag57
aS'snapchat chloeohanlon'
p2508
aS'love hair'
p2509
aS'mahogany'
p2510
aS'sobbin'
p2511
aS'really lookin reeeeeem'
p2512
aS'many things gone wrong today maybe sign'
p2513
aS'would quite happily punch someone face thats angry'
p2514
aS'panicking hmmmmmmmmeee'
p2515
aS'theres something boys braces'
p2516
aS'happy'
p2517
aS'android faces make laugh hahaha'
p2518
aS'teen drinkin fake'
p2519
aS'praying weather stays like'
p2520
aS'body much pain shopping yesterday'
p2521
aS'fanks'
p2522
aS'findin remixes slow jams'
p2523
aS'phones none stop vibrating past half hour woopwoop'
p2524
aS'havent growing pains years suddenly hurts like bitch'
p2525
aS'frustrates people follow'
p2526
aS'drunk sulley sulleys seen blue arse pissed firing ping pong balls outta'
p2527
aS'guilty pleasure gingers maybe fetish fancy ginger boys'
p2528
aS'promised sleep early twitter interesting'
p2529
aS'sleepspp wooooooo'
p2530
aS'outfit sorted list sorted hair sorted tomorrow hopefully best help sort everythin else tomorrow yaaay'
p2531
aS'early birthday present random neighbour'
p2532
aS'worried shit'
p2533
aS'sudocrem ridding world spots'
p2534
aS'oreos really need durable'
p2535
aS'person doesnt understand wants advert'
p2536
aS'gonna actually pray4chloandan'
p2537
aS'need toothpaste asap poor'
p2538
aS'depressing currently second head'
p2539
aS'guruantee every time something planned skin goes disgusting spotty'
p2540
aS'even realise funny scare rabbit much wets tell hilarious'
p2541
aS'nine hours shopping likely lost stone'
p2542
aS'many brands band names shat cheap shops using tshirts'
p2543
aS'dont dont worry hahaha'
p2544
aS'came starbucks enjoy coffee couple gropin right front fuck loved people'
p2545
aS'excuse theyre different kind croc thats going well public emma'
p2546
aS'adoption bought crocs'
p2547
aS'idea heaven'
p2548
aS'maccies liverpool gets'
p2549
aS'dont like people public transport purely look like dick head'
p2550
aS'first thingy little sister said morning slept necklace last night didnt even choke'
p2551
aS'moody bitch morning'
p2552
aS'people reply supposed reply another ongoing conversation'
p2553
aS'half shit'
p2554
aS'suppose haha'
p2555
aS'memories strange like wasnt even interesting conversation'
p2556
aS'carol sure showed yous picture auntie well haha round thinkkk'
p2557
aS'yeah remember sayin served haha good memory'
p2558
aS'love people randomly nice things'
p2559
aS'remember bungalowhaha drunk even talking bloody hell chlo'
p2560
aS'drunk chance dont remember'
p2561
aS'know things confused haha'
p2562
aS'thinking replied know dads name hahahaha'
p2563
aS'hurt know'
p2564
aS'10factsaboutme accidentally foot'
p2565
aS'follow random people guaranteed interesting people know'
p2566
aS'never ever back someone dickhead first time around'
p2567
aS'like'
p2568
aS'fuck argos advert male alien pregnant'
p2569
aS'theres random bottle coke tesco added boss mate'
p2570
aS'found name coke bottle'
p2571
aS'kate wills available performing christening royalbaby'
p2572
aS'cant wait brown hair tomorrow boss havin hairdresser'
p2573
aS'dont watch hollyoaks finished gcse drama still better majority cast'
p2574
aS'popular netflix category contains every single film netflix shows'
p2575
aS'time people disgustingly'
p2576
aS'katy voice definitely guilty pleasure'
p2577
aS'feel like people tell thing like said first time told dont give fuck'
p2578
aS'whoever told lachance biggest four counties'
p2579
aS'know need also lazy'
p2580
aS'better strangers twitter people know real life'
p2581
aS'heat also makes tweet things dont make sense'
p2582
aS'any1 else propa roasting'
p2583
aS'watching criminal minds terrible idea'
p2584
aS'shemar moore might sexiest alive'
p2585
aS'shit knowing stand someone'
p2586
aS'exciting episode geordie shore however still shit compared series'
p2587
aS'proper people changing mind time'
p2588
aS'social life exams therefore couldnt longer exams fuckin social life'
p2589
aS'skypeeee chloeohanlon'
p2590
aS'little kids purposely irritating'
p2591
aS'typical rain plans weekend'
p2592
aS'love punch tumble face'
p2593
aS'excited'
p2594
aS'needs love youve silicone strap'
p2595
aS'know need ready reason'
p2596
aS'dream last night cried honey boos'
p2597
aS'facebook practically turns porn site'
p2598
aS'swear nocturnal'
p2599
aS'right really want shoot google face fucking bellend'
p2600
aS'fuck make hard change password cunts'
p2601
aS'imagine perfect life would karl pilkington best mate'
p2602
aS'sleeping semifully naked sleep heat'
p2603
aS'feel want watch stand cant find'
p2604
aS'sooo long hahaha'
p2605
aS'sneeze'
p2606
aS'someone well anyone remotely entertaining'
p2607
aS'cats never fails make laughter'
p2608
aS'heat joke literally feel like melting'
p2609
aS'cassie looks amazing photos'
p2610
aS'series skins shit'
p2611
aS'play stand guitar love forever fact'
p2612
aS'would happily poke boring people repeatedly'
p2613
aS'really wish girl dior addict advert'
p2614
aS'people moody reason'
p2615
aS'snapchat bored head chloeohanlon'
p2616
aS'wills kate definitely call adolf collect serious fucking odds ladbrokes'
p2617
aS'take girlfriend pussy pedestal bitch dont kill vibe'
p2618
aS'everyone always high expectations holidays school month none expectations'
p2619
aS'want brace sake'
p2620
aS'shame'
p2621
aS'youll pleasantly surprised listen'
p2622
aS'song mate'
p2623
aS'wonder sleeping pattern misses like miss'
p2624
aS'money smell nigga biggie stinkin'
p2625
asS'2013_19'
p2626
(lp2627
S'spots actually infuriate face\xf0\x9f\x98\x94'
p2628
aS'fredo spoke believertourmemories'
p2629
aS'need sleep\xf0\x9f\x98\x92'
p2630
aS'changed mind enjoy snapchat someone snapchat'
p2631
aS'someone explain snapchat mental break'
p2632
aS'dont like snapchat'
p2633
aS'snapchat chloeohanlon'
p2634
aS'happy imessage back'
p2635
aS'really gorj'
p2636
aS'much easier would life drug dealer revision stresses'
p2637
aS'whys sister model'
p2638
aS'love books holidays next year yayyyy'
p2639
aS'knowing ethics exam tomorrow making'
p2640
aS'sinuses removed migraines worst'
p2641
aS'maisie think sleep'
p2642
aS'haaaate waiting around'
p2643
aS'hate boredom'
p2644
aS'youre selective bellend'
p2645
aS'thanks'
p2646
aS'getting shirt signed came home dick sayin nigga back'
p2647
aS'look like cowgirl prostitutes hahaha'
p2648
aS'yayyyyyy'
p2649
aS'getting emotional whats'
p2650
aS'look evil suttin takin next year would cute like'
p2651
aS'picture sums faces life'
p2652
aS'infuriated'
p2653
aS'health social care fave lesson'
p2654
aS'expected lose weight teachers shovin chocolate throat'
p2655
aS'need candle inappropriate times'
p2656
aS'would anyone picture clown instagram theres evil people world'
p2657
aS'awks gonna majority year cryin sayin tomorrow weve gotta come monday'
p2658
aS'arent working'
p2659
aS'look found'
p2660
aS'couldnt less assed last full year eleven tomorrow goodriddance'
p2661
aS'people still wear chinos'
p2662
aS'life would 100x better geordie shore year round'
p2663
aS'sudden hate hormones'
p2664
aS'browns boys pointless unfunny laugh gets everytime'
p2665
aS'rape enjoy'
p2666
aS'people tell things assuming assed hahaha away'
p2667
aS'youre original haha think especially'
p2668
aS'hahaha wakeytimerapeytime thanks thanks'
p2669
aS'hollyoaks fetched like people murdered place'
p2670
aS'rihanna ticket sold well always next year'
p2671
aS'feel like punching lateysha everytime speaks'
p2672
aS'carribean cuisine superior regions including india mexico southern'
p2673
ag57
aS'ginge'
p2674
aS'think boobs grown thats mating season hell emma'
p2675
aS'jealousy terrible disease mate'
p2676
aS'robin thicke almost cool'
p2677
aS'cant understand word 1975 good mood'
p2678
aS'useed tlkk lykk thisss kwllp fucking gimp'
p2679
aS'used type like utter retard'
p2680
aS'funny arent hahahaha'
p2681
aS'arrrr picture lads tight'
p2682
aS'think dead funny girls proper assed lads knowlikespeak gettin pictures girls hahahaha'
p2683
aS'bible says midst life death know stand'
p2684
aS'feel like stone diets back tomorrow'
p2685
aS'would people treat differently afro importantquestions'
p2686
aS'tank boss walk nitty gritty youre listening city'
p2687
aS'swear every time read something crime punishment bible quotes change everytime confusing fuck'
p2688
aS'love ginger boss'
p2689
aS'insist intoxicated cool chlo'
p2690
aS'never ring people whilst drunk'
p2691
asS'2013_18'
p2692
(lp2693
S'always getting last minute plans love going house hahaha'
p2694
aS'sound mate emmas hilar'
p2695
aS'tonight extremely drunken emma head molested harry'
p2696
aS'swear shaunieampharry taking piss getting'
p2697
aS'forgot much banger cudi night'
p2698
aS'alcohol cure hangover please'
p2699
aS'snotty people infuriate'
p2700
aS'note self neck jelly shots thinking wont drunk aftermath nice'
p2701
aS'telling smell like fake dont need reminding smell'
p2702
aS'hungover jinxed'
p2703
aS'insist singing drunk doesnt benefit anyone benefit'
p2704
aS'said boss times today'
p2705
aS'alls remember last night shouting want kendrick lamar bish various people responding bish chlo'
p2706
aS'best friend'
p2707
aS'best friendddd'
p2708
aS'really unhappy early considering much alcohol consumed last night'
p2709
aS'lookin'
p2710
aS'need youre gettin ready'
p2711
aS'happy birthday yesterday sorry late hope good night tonight'
p2712
aS'enough hours ready times still dragging'
p2713
aS'fourth shut'
p2714
aS'watched bruce forsyth gangnam style'
p2715
aS'wish never nails realised everythin gotta tomorrow'
p2716
aS'people retweetfavourite tweets bitchy think onto hahaha calm dont excited'
p2717
ag57
aS'gonna miss'
p2718
aS'doll inboxingspeaking doesnt mean wants party dont need clingygirls'
p2719
aS'obsessed miley cyrus worrying also really'
p2720
aS'bright ginger bright mahogany mention boss dresses wait weekend'
p2721
aS'people thinking today always wonder actually thinking'
p2722
aS'hair yayyy ginger'
p2723
aS'unlocking mine like anything hide hahaha'
p2724
aS'would could'
p2725
aS'busy blowin puttin head like'
p2726
aS'yeye like busygirl'
p2727
aS'present wont hands 653854 condoms middle physics subtle real subtle'
p2728
aS'happy birthday gangan three years without celebrating birthday love miss loads xxxxx'
p2729
aS'wrong want jelly shoes childhoodmemories'
p2730
aS'isnt anymore devd'
p2731
aS'cant watch valleys without cringing'
p2732
aS'dont kill bees wont anymore idiot'
p2733
aS'canny wait ginger wednesday'
p2734
aS'fave fair vitamin hahaha'
p2735
aS'mhameedi stop liking posts\xee\x90\x93\xee\x80\x8d\xee\x85\x8c'
p2736
ag57
aS'still laughing muppet'
p2737
aS'wonder good looks hahaha'
p2738
aS'makes feel girls like replying eeee bork'
p2739
aS'sound wanna anyways'
p2740
aS'youre easy target'
p2741
aS'cant believe convinced seasonal black disorder means summer idiot'
p2742
asS'2013_39'
p2743
(lp2744
S'like looks like head'
p2745
aS'hula hoop chips biggest ever'
p2746
aS'score'
p2747
aS'well known comedic side'
p2748
aS'hate word shag disgusting'
p2749
aS'actually bored nobody understands'
p2750
aS'attacked'
p2751
aS'year auntie water fight'
p2752
aS'singing phil collins'
p2753
aS'made shittest angel delight ever'
p2754
aS'irritating mood ever need someone annoy'
p2755
aS'cheats proper piss'
p2756
aS'surprisingly energetic considering hangover'
p2757
aS'sure thatll make'
p2758
aS'late'
p2759
aS'quite scary'
p2760
ag57
aS'eyes mate'
p2761
aS'shame dont take ooooo'
p2762
aS'normal unbelievably cool'
p2763
aS'officially makes coolest ever fact'
p2764
aS'know ridiculous'
p2765
aS'nans chat pure shit'
p2766
aS'fucking excited weekend even though plans'
p2767
aS'theres something attractive robin thicke'
p2768
aS'sure still drunk hungover'
p2769
aS'sums last night'
p2770
ag57
aS'good night'
p2771
aS'starting early excitedddddd\xf0\x9f\x8d\xb7\xf0\x9f\x8d\xb7\xf0\x9f\x8d\xb7'
p2772
aS'witnessed woman tell daughter doesnt clothes weeks shes never buying clothes'
p2773
aS'hell defo'
p2774
aS'hell knowin liverpeeeeeewl'
p2775
aS'dads protective mood careful chlo know 18ths like'
p2776
aS'dads protective careful know 18ths like'
p2777
aS'back semi normal colour'
p2778
ag57
aS'isnt coming tonight feels weird'
p2779
aS'woke theres cereal happy'
p2780
ag57
aS'doesnt justin timberlake define cool though everyone wants want jessica biel especially'
p2781
aS'fancy justin timberlake much'
p2782
aS'rihanna amazing alan carr'
p2783
aS'excited tomorrow'
p2784
aS'darker wood floor'
p2785
aS'inboc picture'
p2786
aS'leant outfit'
p2787
aS'last time'
p2788
aS'thanks dollylt3xxx'
p2789
aS'fucking dress broke'
p2790
aS'love chickens thanks todaylt3xxx'
p2791
aS'member maroon'
p2792
aS'natural swear liarliar'
p2793
aS'giffgaff always fumin'
p2794
aS'want punch fuckin wall'
p2795
aS'fucking angry'
p2796
aS'yesss'
p2797
aS'fuckin ridiculous'
p2798
aS'pisses right people last minute'
p2799
aS'thats fair enough'
p2800
aS'youd coolest person ever well would'
p2801
aS'would hilarious though hahaha'
p2802
aS'case hadnt seen mans finger nostril'
p2803
aS'piercings'
p2804
aS'explains youve gone white picture'
p2805
aS'look stoned like'
p2806
aS'berd'
p2807
aS'thank'
p2808
aS'ordered dress yesterday came today broken party saturday time return'
p2809
aS'annoyed ordered dress even tried broke'
p2810
aS'daily routine consists getting getting shower getting ready going school coming home getting straight pyjamas'
p2811
aS'waiting school little sister goes waiting christmas smart'
p2812
aS'tattoos piercings perfect'
p2813
aS'still state shock good 1975s album'
p2814
aS'tired throughout wide awake night maybe hamster past life'
p2815
aS'hate marnie much'
p2816
aS'scott finally sorted everything havin laugh youve episodes sort'
p2817
aS'marnies fuckin imbecile'
p2818
aS'theres team marnie cunt'
p2819
aS'think people enjoy awful eyebrows'
p2820
aS'obsession rocks brown fucking whole towns reflection mental health'
p2821
aS'love blonde yeno'
p2822
aS'wash hair makeup ready fuckin step dads still bathroom'
p2823
aS'cant wait weekend'
p2824
aS'delete number youre basically deleted life'
p2825
aS'wanting tell someone fuck bite tongue worst'
p2826
aS'girls dont like boys girls like cars money'
p2827
aS'shit'
p2828
aS'finding someone attractive know shouldnt always risky'
p2829
ag57
aS'yeah lucky bastard'
p2830
aS'need someone text literally text people parents'
p2831
aS'need hero holdin hero 110s riding bike trackys gotta grey gotta terro\xe2\x80\xa6'
p2832
aS'fella tries make youre expecting adele singin live kissin rain'
p2833
aS'bangs ringo starrs drum yama'
p2834
aS'want relationship love single problem'
p2835
aS'dont judge people based appearance judge based whether post swag notes twitter'
p2836
aS'pretending drunk pictures though werent'
p2837
aS'literally talk'
p2838
aS'constant shit'
p2839
asS'2013_38'
p2840
(lp2841
S'misophonia might bane life utter hatred sound general ridiculous even sound breathing makes'
p2842
aS'people sense personal hygiene also piss'
p2843
aS'like like camel must fuckin imbecile'
p2844
aS'shallow base opinion someone'
p2845
aS'struggle come terms fact people fucking mouth open'
p2846
aS'internets knobhead'
p2847
aS'follow tumblr gwed follow back'
p2848
aS'disregard people'
p2849
aS'people talkbehave irritates'
p2850
aS'every single song disclosure album absolute bangers'
p2851
aS'1975s album life'
p2852
aS'really thing boys curly hair'
p2853
aS'wasnt'
p2854
aS'crying mileys performance wrecking ball iheartradio shes crying feel like shes best mate'
p2855
aS'fancied cheese crackers cheese resulted'
p2856
aS'givin taste honey want whole beehive'
p2857
aS'thank darl'
p2858
aS'breakfast time'
p2859
aS'chucknorrislad'
p2860
aS'time people document lives facebook'
p2861
aS'swear house like fuckin north pole'
p2862
aS'dont brag havin party whole wirral turn projectx party moreton'
p2863
aS'really dont know think last night'
p2864
aS'damn monica gellar hyphen bing'
p2865
aS'made bacon butties cure hangover pretty sure means would perfect girlfriend'
p2866
aS'pale slept makeup blondie gwed'
p2867
aS'last night'
p2868
aS'well shit'
p2869
aS'anti drugs nobody understands'
p2870
aS'tell truth reckons lying trustissues'
p2871
aS'last minute plans best'
p2872
aS'waiting happen'
p2873
aS'baby brothers naked said kinell willy went shut youll soon omfg'
p2874
aS'offended'
p2875
aS'american netflix'
p2876
aS'well youre mean person'
p2877
aS'want make sandwich'
p2878
aS'know kitchen'
p2879
aS'didnt entertain'
p2880
aS'someone entertaining make sandwich'
p2881
aS'seduce'
p2882
aS'latest ages'
p2883
aS'miss uren shes taking piss educatingyorkshire'
p2884
aS'clearly disgusted mums face matches colour couch'
p2885
aS'sounds shallow youre wearing chinos youre automatically twat regardless face looks like'
p2886
aS'love babe'
p2887
aS'thought dead cute'
p2888
aS'onto'
p2889
aS'indian sweeties'
p2890
aS'coming home nanas stone heavier'
p2891
aS'caribbean food'
p2892
aS'love trinidad family'
p2893
aS'aunt lupe goes granny kids contraception days nana went conception shes roll'
p2894
aS'said nana call black people trinidad nana casually went niggers fucking idek'
p2895
aS'family contains spanish portugese indian nigerian carribean blood bombay'
p2896
aS'proper today'
p2897
aS'yeah defo'
p2898
aS'nicest'
p2899
aS'outfit hair kinell gonna skint'
p2900
aS'trinidad nana english bondin'
p2901
aS'remembered bought homeless coat gloves socks cute like'
p2902
aS'lovely grandad send deserved'
p2903
aS'thanks chicken love xxxx'
p2904
aS'know going good years'
p2905
aS'parties nights inbetween chlo excited\xf0\x9f\x8e\x89'
p2906
aS'really looking forward today'
p2907
aS'fact italy park portugal girls holiday look forward within next years makes happy'
p2908
aS'many things look forward nowexcitedddd\xe2\x9c\x88\xe2\x9b\xba\xf0\x9f\x8e\xa1\xf0\x9f\x8d\xb8\xf0\x9f\x8e\x89'
p2909
aS'awkward person world comes buying clothes'
p2910
aS'thank chicken xxxx'
p2911
aS'yeah xxxx'
p2912
aS'doll name website shopping'
p2913
aS'want blonde hair'
p2914
aS'glad seen sense neva trusting any1 ever never cant bothered stupid games childish'
p2915
aS'niceswanlad shit tweets good keep ravin wally brolly worm'
p2916
aS'need plans gals weekend party cancelled'
p2917
aS'powley spits words best time might tongue'
p2918
aS'chili peppersgtmost bands'
p2919
aS'someone funny'
p2920
aS'devastating moment realise someone relationship'
p2921
aS'miley cyrus emoji story'
p2922
aS'literally counting days italy'
p2923
aS'charlotte favourite person ever'
p2924
aS'shes dead plain well fuuuuuck offfffff'
p2925
aS'fuck marnie youre already irritating'
p2926
aS'marnies nothing compared vicky charlotte'
p2927
aS'selfie fave girl'
p2928
aS'need someone interesting life'
p2929
aS'monkeys shit goin fish look well itll haha'
p2930
aS'cover photo love'
p2931
aS'fuckin dead mate swear'
p2932
aS'people piss swear'
p2933
ag57
aS'english literature reading project boss considering didnt read books wrote'
p2934
aS'could give justin timberlake shittest song ever would still make banger fact'
p2935
aS'genuine talent'
p2936
aS'dont ever walked away always want'
p2937
aS'cant wait italy'
p2938
aS'today dragged much'
p2939
asS'2013_15'
p2940
(lp2941
S'great'
p2942
aS'never realised kelly ignition contained much sexual innuendo shocking much refer whilst talking cars'
p2943
aS'take world donald trump shit'
p2944
aS'fuck'
p2945
ag57
aS'please refrain writing soppy boyfriends needless nobody actually gives shit love'
p2946
aS'wait back tomorrow gone gross'
p2947
aS'best friends episode joey gets head stuck turkey'
p2948
aS'sobbin britains talent chlo doin'
p2949
aS'confessions'
p2950
aS'please'
p2951
aS'hope move australia'
p2952
aS'weirdos home'
p2953
aS'attracting honeys like magnet givin eargasms mellow accent'
p2954
aS'angel centrefold'
p2955
aS'worst moods ever'
p2956
aS'officially shittest mates world minus people'
p2957
aS'furious'
p2958
aS'mates'
p2959
aS'always thought fall would scream turns theyre quite good'
p2960
aS'could conversation wall would less boring night'
p2961
aS'spent friday night stitches cats countdown'
p2962
aS'nothing love seeing little brothers sister'
p2963
aS'exes weirdos'
p2964
aS'school exhausts sleepdeprived'
p2965
aS'calls esteban julio ricardo montoya rosa ramirez thief nobody time'
p2966
aS'rather sleep anything maths depressing'
p2967
aS'feel sorry good luck'
p2968
aS'maths homework horrific mood ever'
p2969
aS'song fiat advert makes happy'
p2970
aS'know'
p2971
aS'hahaha heartlessbitch'
p2972
aS'cried hahaha'
p2973
aS'skids defence philampethl'
p2974
as.