(dp0
S'2013_42'
p1
(lp2
S'short absence make miss thingbut goes longeryoull gonna learn live without'
p3
aS'true love like playing chess plays always afraid losing queen girl risking everything'
p4
asS'2013_43'
p5
(lp6
S'houseandlot baniladcebu'
p7
aS'houseandlot mandue cebu'
p8
aS'heart hides can\xe2\x80\x99t eyes hide'
p9
aS'sagittarius signs like free birds live life everyday sunday'
p10
aS'believe none hear half'
p11
aS'headache sucksgrrrr'
p12
aS'relationships give give give take youll know youre right person give'
p13
aS'every knows right wrong special ones take wrongs make right'
p14
aS'bohol needs water food meds basic supplies spare whatever save someone\xe2\x80\x99s life bangonsugbohol'
p15
aS'someone hurts learn stronger someone leaves learn independent'
p16
aS'better single wrong relationship'
p17
aS'everything dont make sense makes sense hunter hayes'
p18
aS'hardest things life figuring difference friendship love'
p19
aS'worst thing life losing love losing process loving someone much'
p20
aS'really like know sometimes mess things make seem like dont care trust'
p21
aS'life isnt perfect thankful everything'
p22
aS'every relationship problems makes perfect still want together things wron\xe2\x80\xa6'
p23
aS'dont care happy'
p24
aS'emotionally done mentally drained spiritually feel dead physically smile'
p25
aS'hate much miss'
p26
aS'flirt stay committed else'
p27
aS'girls think boys never think'
p28
aS'dear music thank else'
p29
aS'sleeping hard cant stop thinking'
p30
aS'everyone meant future people passing teach lessons life'
p31
aS'find right words never come plan make happy love\xe2\x80\xa6'
p32
aS'find someone make laugh uncontrollably hang onto person make happy'
p33
aS'makes smile easily reason wake happy cant forget everything still\xe2\x80\xa6'
p34
aS'life okay would better mine'
p35
aS'called babe baby good fucking feeling'
p36
aS'wish could read mind know really think'
p37
aS'worry less smile dont regret learn grow'
p38
aS'ever stopped realized hadn\xe2\x80\x99t certain person life life would completely\xe2\x80\xa6'
p39
aS'hate feeling feeling youre idea'
p40
aS'dont need perfect boyfriend need loves weirdness wants spend time respects'
p41
aS'want someone stay matter hard'
p42
aS'relationship could make never want fall love'
p43
aS'simple never someone trusts never trust someone lies'
p44
aS'missing'
p45
asS'2013_46'
p46
(lp47
S'listen performance sing smule'
p48
aS'pnoy project negros occidental saves p188m budget pgmas version'
p49
aS'life find flow huge lesson everything else gravy supersoulsunday'
p50
aS'fall someones personality everything becomes beautiful'
p51
aS'wish could hear words afraid'
p52
aS'inqhotread \xe2\x80\x98tabo\xe2\x80\x99 dipper must relief package yolandaph'
p53
aS'dont call youre flirting someone else'
p54
aS'dont worry youre single looking right saying saving someone special'
p55
aS'laag2x time walalingaw friends gfdaily ayala center'
p56
aS'arnel pineda journey donate food packs yolandaph victims'
p57
aS'earthquake 203km kamaishi japan 1542 epicenter depth 28km lvia'
p58
aS'journey donate 350k help yolanda relief efforts'
p59
aS'david cameron doubles contribution yolanda c130 added transfer supplies within philippines'
p60
aS'hospital ship readied deployment'
p61
aS'assistance compassion care place people make haiy\xe2\x80\xa6'
p62
aS'youtube world philippines typhoon haiyan'
p63
aS'bulls rout raptors first road'
p64
aS'telco cuts rates pinoys contact affected yolanda'
p65
aS'foreign yolandaph victims total philippines'
p66
aS'donate help friends phillipines text give text 80888'
p67
aS'worrying stupid like walking around umbrella waiting rain khalifa'
p68
aS'sleep blik damn headache earthquake'
p69
aS'grrrrearthquake'
p70
aS'police training director found dead tacloban fate trainees still unknown'
p71
aS'earthquake aftershock cebu city friday'
p72
aS'tulong biktima yolanda iloilo dumating canada nagpadala rescue team'
p73
aS'australian firm donates a500000 cross reliefph yolandaph'
p74
aS'donasyong galing ibang bansa hindi papatawan buwis kung ipadaraan dswd ndrrmc grupong accredited'
p75
aS'pagasa 934pm update thunderstorm likely develop metro cebu within hours'
p76
aS'ormoc city nagbabaliknormal araw matapos tumama yolanda'
p77
aS'chief donations taxexempt coursed right agencies'
p78
aS'gsis already activated calamity loan packages yolandaphaffected members pensioners'
p79
aS'ikea philippine relief efforts worlds secondlargest economy'
p80
aS'hardest part trip seeing children lying lifeless shore meters airport tower'
p81
aS'heart weeping right nowto philippineswere coming helpthe destruction enduring'
p82
aS'taiwan president urges people give generously yolanda victims'
p83
aS'ayala center'
p84
aS'haiyan things filipinos shouldnt social networks'
p85
aS'take twitter'
p86
asS'2013_47'
p87
(lp88
S'2bedroom condo unit rent fully furnished'
p89
aS'infinitydepps photo'
p90
aS'taken yesterday rooftop'
p91
aS''
p92
aS'pics public schools damaged yolandaph share include school name location'
p93
aS'appreciate'
p94
aS'people'
p95
aS'charity event phuketthailand philippines'
p96
aS'todays sunset sunset sunrise nature natural clouds cloudporn skies blue skyporn'
p97
aS'busy aning bataa kids love life family children angels angel bored\xe2\x80\xa6'
p98
aS'supah afternoon paki explain sunny cloudporn cloudy skies blue beautiful\xe2\x80\xa6'
p99
asS'2013_44'
p100
(lp101
S'house minglanilla cebu'
p102
aS'house sale talamban cebu city'
p103
aS'house sale consolacion cebu'
p104
aS'bedrooms house sale consolacion cebu'
p105
aS'brandnew house sale talamban cebu'
p106
aS'house sale mandaue city'
p107
aS'bedrooms condo rent near ayala mall cebu'
p108
aS'bedroom house talisay cebu'
p109
aS'minglanilla townhouse'
p110
aS'house sale banilad cebu'
p111
aS'mind says quit heart says wait'
p112
aS'every takes little superman moment make realize strong youre invinci\xe2\x80\xa6'
p113
aS'bird cant swim fish cant nothings wrong need know'
p114
aS'five types fear terror panic missed calls username password incorrect'
p115
aS'sagittarius life always adventure'
p116
aS'studio condo lahug mivesa garden residences'
p117
aS'house rent guadalupe cebu citysemi furnished'
p118
aS'house sale guadalupe cebu'
p119
aS'sale lahug cebu city'
p120
aS'warehouse rent near ayala 1000sqm negotiable cebu city cebu sale'
p121
aS'house rentsale maria luisa banilad cebu city cebu sale philippines 27516779'
p122
aS'townhouse minglanilla'
p123
aS'house rent consolacion'
p124
aS'house rent mandaue'
p125
aS'house rent banilad near'
p126
aS'apartment rent banilad'
p127
aS'bedroom condo rent city lights garden lahug'
p128
aS'house sale tabunok talisay'
p129
aS'house rent townhouse talamban'
p130
aS'house rentsale maria luisa banilad'
p131
aS'house rent banawa 3bedrooms'
p132
aS'bungalow type house rent'
p133
aS'house rent banilad'
p134
aS'house mabolo rent'
p135
aS'house rent banilad'
p136
aS'house sale talamban cebu'
p137
aS'house rent lahug'
p138
aS'apartment rent banawa near rustans'
p139
aS'house rent talamban cebu bedroom'
p140
aS'commercial space rent'
p141
aS'factory warehouse rent liloan office 2329sqm'
p142
aS'warehouse rent near ayala 1000sqm negotiable'
p143
aS'rent building ideal call center mandaue'
p144
aS'condo rent crown regency cebu loft type area'
p145
aS'house rent banilad cebu city'
p146
aS'condo rent bedroom fuente'
p147
aS'condo rent fully furnished'
p148
aS'house rent banawa'
p149
aS'condo rent pool persimmon mabolocebu city'
p150
aS'house rent talisay near gaisano tabunok talisay cebu'
p151
aS'rent condo apartment'
p152
asS'2013_45'
p153
(lp154
S'military helping philippine armed forces conduct yolanda damage assessment'
p155
aS'portions national highway midellin cebu passable light vehicles'
p156
aS'someone really loves never hurt youll eyes theyre hurting'
p157
aS'nasasanay yata itong miss universe tayo huling tawagin kasi alam nila wild tayo malakas tayo'
p158
aS'russias part home court advantage time'
p159
aS'missuniverse2013 nicaragua switzerland india brazil philippines'
p160
aS'missuniverse2013 indonesia venezuela dominican republic puerto rico spain'
p161
aS'miss philippines part missuniverse2013'
p162
aS'missuniverse2013 costa rica ukraine china ecuador great britain'
p163
aS'awkward moment sing wrong part song confidence'
p164
aS'hourly update yolandaph 12am november 2013 typhoon \xe2\x80\x9cyolanda\xe2\x80\x9d located east'
p165
aS'signal masbate northern samar eastern samar samar leyte southern leyte biliran yolandaph'
p166
aS'thinking makes mind create negative scenarios replay painful memories'
p167
aS'amnesia girl part starring juan ponce tanda enrile janet napoles soon theaters nationwide'
p168
aS'kamusta hearing janet napoles today napala tayong mamamayang pilipino alam napole\xe2\x80\xa6'
p169
aS'singing youre stressed proven help avoid depression anxiety'
p170
aS'santiago napoles naniniwala commandment steal steal magdasal lang bantay\xe2\x80\xa6'
p171
aS'napoles denies houses acdg'
p172
aS'santiago kung enrile guilty sabihin para ipapatay bantaykaban'
p173
aS'napainom tubig napoles ngayon kausap niya lagot wahahahaha'
p174
aS'don\xe2\x80\x99t rush anything time right it\xe2\x80\x99ll happen'
p175
aS'hourly update yolandaph 11am november 2013 typhoon \xe2\x80\x9cyolanda\xe2\x80\x9d located southeast'
p176
aS'sometimes little things make biggest change'
p177
aS'santiago napoles wont bully wont outshout pero magsinungaling lagot kanagsumpa bant\xe2\x80\xa6'
p178
aS'kapatid magnanakaw sinungaling kaya kayo magtaka kung hindi aamin napoles'
p179
aS'janet napoles kung totoo advanced kickbacks mambabatas hindi honor benhur nagsisinungaling siya'
p180
aS'bedtime kulitan kids niece happy sleepingtime bedtime play angels love smile'
p181
aS'thunderstorm advisory mprsd 1045 06nov13 thunderstorm affecting zamboangadelnortesibutad'
p182
aS'video signal posibleng itaas dahil paparating bagyo'
p183
aS'morning'
p184
aS'1005am light moderate rains affecting zamboangadelnortedipolog city dapitan city rizal northern'
p185
aS'house rent spool 7bedroom banilad cebu'
p186
aS'house rent maluisa banilad cebu'
p187
aS'house rent swimming pool banilad cebu'
p188
aS'house rent banilad 5bedrooms'
p189
aS'house rent banilad swimming pool'
p190
aS'house rent consolacion cebu'
p191
aS'house rent near gaisano mactanlapulapu citycebu'
p192
aS'house rent mandaue cebu'
p193
aS'apartment rent banilad'
p194
aS'bedroom apartment rent banawacebu city'
p195
aS'apartment rent banilad cebu city'
p196
aS'single doesnt always mean lonely relationship doesnt always mean happy'
p197
aS'breaking news tornado hits mandaue city lapulapu city around monday'
p198
aS'make regret losing make next want thank letting best revenge movin\xe2\x80\xa6'
p199
aS'everybody gone something changed could never back person'
p200
asS'2012_46'
p201
(lp202
S'rememberalways treat others want treatedthey forget said always remember made feel'
p203
asS'2013_24'
p204
(lp205
g92
ag92
ag92
aS'deiannes'
p206
aS'deiannes'
p207
aS'deiannes brth'
p208
asS'2013_25'
p209
(lp210
g92
ag92
ag92
aS'smith'
p211
aS'people love quotes pictures cute love love love pictures young love highschool love teenage'
p212
asS'2013_27'
p213
(lp214
S'cute chihuahuas image'
p215
aS'cute chihuahuas image'
p216
aS'owners make bulls vicious born'
p217
aS'revenge year nose pitbull taking bath human mekyha getting choc'
p218
ag92
aS'never forget'
p219
aS'haute couture street style fall 2013'
p220
aS'haute couture street style fall 2013'
p221
aS'cheating easy something challenging like faithful'
p222
aS'gone'
p223
aS'hello beautiful friends victor sosunov'
p224
aS'lick'
p225
aS'pitbulls love kids'
p226
aS'baby love'
p227
ag92
ag92
aS'beware poser'
p228
aS'sale mountain bike negotiable'
p229
asS'2013_22'
p230
(lp231
S'love gift accept make damaged give away'
p232
asS'2012_28'
p233
(lp234
S'2480 points escaping demon monkeys temple beat'
p235
asS'2012_49'
p236
(lp237
S'please recommend skills'
p238
asS'2012_48'
p239
(lp240
S'akoy nauuhaw'
p241
aS'mkasapooottt'
p242
aS'sometimes mind doesnt want love deep know'
p243
aS'gutoooommmmmmmmmm'
p244
aS'downthere nowhere else upso never lose hopejust believe something meant prepared'
p245
aS'gudnyt'
p246
aS'lunchtym'
p247
asS'2013_4'
p248
(lp249
S'reached level tinytribe download free appstore'
p250
aS'done eateateat food tasty soup lunch'
p251
aS'reached level tinytribe download free appstore'
p252
aS'true'
p253
aS'watching zodiac sign'
p254
aS'reached level tinytribe download free appstore'
p255
aS'reached level tinytribe download free appstore'
p256
aS'play tinytribe explore island free appstore'
p257
aS'diego sinulog cebu sandiego beauty family people festivities mardigras'
p258
asS'2013_6'
p259
(lp260
S'mclivecookoff'
p261
asS'2011_51'
p262
(lp263
S'merry christmas'
p264
asS'2013_3'
p265
(lp266
S'mamthankz tawag'
p267
aS'goodnight mamthank tawaghehelets continue chika'
p268
aS'guys later'
p269
asS'2011_43'
p270
(lp271
S'life better youre happy life best people happy'
p272
aS'despite numbness world always wholl give warmest'
p273
aS'sometimes really matter choosing right choice matter proving made right choice'
p274
asS'2013_9'
p275
(lp276
g92
aS'reached level tinytribe download free appstore'
p277
asS'2013_8'
p278
(lp279
S'516615 points escaping giant demon monkey temple beat'
p280
ag92
aS'reached level tinytribe download free appstore'
p281
aS'rescued another survivor tinytribe takes survive mysterious island'
p282
aS'lunch tayo food igerscebu pinoy lutongpinoy lunch yummy soup'
p283
aS'kristvofficial happy birthday wish blessings come'
p284
aS'goodmorning'
p285
asS'2012_16'
p286
(lp287
S'spend long holding treats like optionyoull miss finding treats like priority'
p288
asS'2011_41'
p289
(lp290
S'short absence make miss thingbut goes longer youll gonna learn live without good morniiiiing'
p291
aS'happy sweetest everyone treat loved ones like candies lick'
p292
aS'never life unfair life fault people around'
p293
aS'blessed saturday morning'
p294
aS'matter wasted think always someone love youre like anyone else'
p295
aS'safe flight'
p296
ag92
ag92
aS'life painting colors ashes beautiful singing good songs broken'
p297
aS'cool pattern check outer space'
p298
aS'never compare love story movies written scriptwriters written'
p299
asS'2011_42'
p300
(lp301
S'know cars windshield large rearview mirror small past important future move'
p302
aS'halu dinghehehe'
p303
aS'always sensitive peoples feelings times tear means happiness smile means hurt'
p304
asS'2012_11'
p305
(lp306
S'dont need prove something anyone favorsbecause real always enough really cares'
p307
asS'2012_52'
p308
(lp309
S'8hours xmas'
p310
asS'2012_51'
p311
(lp312
S'cooking time'
p313
aS'many chances people deserve haveenough make things right much ruin importance chancegoodnight'
p314
asS'2011_49'
p315
(lp316
S'never think good enough anyone sometimes good enough'
p317
asS'2013_37'
p318
(lp319
S'piti mgbinuang bahlol'
p320
ag92
asS'2013_10'
p321
(lp322
S'frameurlife'
p323
aS'reached level tinytribe download free appstore'
p324
aS'rescued another survivor tinytribe takes survive mysterious island'
p325
asS'2013_13'
p326
(lp327
S'happy easter everyone'
p328
aS'exactly'
p329
aS'read'
p330
aS'goodnight'
p331
aS'goodnight sleepy tired'
p332
aS'true'
p333
aS'true'
p334
aS'yesterday could right goodbyehahaha boring'
p335
aS'good chicago bulls'
p336
asS'2013_12'
p337
(lp338
S'best youll never lost loss save love someone'
p339
aS'naman derek rose luoi bulls faet gogogo chicago bulls weeeeee'
p340
aS'lose hope help remember love greater disappointments plan'
p341
aS'reached level tinytribe download free appstore'
p342
aS'true'
p343
aS'heal pain'
p344
aS'without music life would mistake'
p345
asS'2013_33'
p346
(lp347
S'house rent basak mandauecebu ideal homes cebu ideal homes'
p348
asS'2013_14'
p349
(lp350
S'\xd1\x82\xd0\xbd\xd0\xb0\xd0\xb8\xd0\xbasgoodnight'
p351
aS'join awesome game tinytribe promo code s377bf gift'
p352
aS'using viber make free calls send free messages iphone'
p353
aS'using viber make free ugcalls send free messages iphone'
p354
ag92
aS'love memories make smile matter going life right'
p355
asS'2013_30'
p356
(lp357
S'tamah'
p358
aS'goodnight'
p359
aS'maltover'
p360
aS'handuraw'
p361
aS'lets pray'
p362
ag92
aS'always pray eyes best heart forgives worst mind forgets'
p363
aS'nice'
p364
asS'2013_19'
p365
(lp366
g92
asS'2013_16'
p367
(lp368
S'rescued another survivor tinytribe takes survive mysterious island'
p369
asS'2013_39'
p370
(lp371
S'amen'
p372
aS'looking house cebuif youre interested please calltxt 639428462596'
p373
asS'2013_38'
p374
(lp375
S'goodnight headaches'
p376
asS'2013_11'
p377
(lp378
S'reached level tinytribe download free appstore'
p379
aS'reached level tinytribe download free appstore'
p380
asS'2013_35'
p381
(lp382
S'true'
p383
aS'goodafternoonamen'
p384
aS'happy fiesta carmen carmen cebu'
p385
aS'amengoodnight'
p386
aS'goodmorning'
p387
aS'life hard life life kind life mean right attitude life'
p388
aS'time watching conjuring home nivel hills lahug'
p389
asS'2011_52'
p390
(lp391
S'hope everyone great years enjoy last 2011 goodbye 2011 welcome 2012 dboom'
p392
asS'2013_15'
p393
(lp394
S'another awesome malting session lastnight tree house'
p395
aS'rooftopbeauties walay lingawp'
p396
aS'lakwatsa'
p397
aS'however away always love however long stay always love whatever words'
p398
aS'chillin'
p399
asS'2012_38'
p400
(lp401
S'back'
p402
asS'2013_32'
p403
(lp404
S'make mind going make lives work hard toward goal never lose somehow goodnyt'
p405
as.