(dp0
S'2014_18'
p1
(lp2
S'projector pillows movies poof went shit'
p3
aS'freshmen going think senior love love puts baby'
p4
aS'killed chance'
p5
aS'words rarely impact beyond allow'
p6
aS'life stressing sounds like need cream cuddling puppy modern family marathon happy friend'
p7
aS'stupidity getting beyond joke'
p8
asS'2014_19'
p9
(lp10
S'huge thank years making'
p11
aS'always extra person friends'
p12
aS'generation idiots smart phones dumb people'
p13
aS'love show intellectual brilliance'
p14
aS'funny people always arent'
p15
aS'joke going hell heaven room long really thought theyd take even million'
p16
aS'none requires comes exclusively within'
p17
aS'guts dont love like yesterday'
p18
aS'suing dogs sexual harassment every time bend stick tongue mouth'
p19
aS'cant promote bible stand hate speech simultaneously christians support homosexuality need find religion'
p20
aS'need delete phone photo hoarder never know could come handy cant delete'
p21
aS'careful bleeding heart youll attract wolves sympathizers turn pain strength claim victory'
p22
aS'body loyal friend start till others come body stays love always'
p23
asS'2014_8'
p24
(lp25
S'consequence leave alone'
p26
aS'face dirt said doesnt hurt'
p27
aS'hello nice meet already forgot name'
p28
aS'loves fucking drag need'
p29
aS'taste lips cant damn kiss awful things worse nicotine'
p30
aS'girls know fake smiles guys know fake feelings'
p31
aS'want cute relationship everyone else wants much'
p32
aS'imagine living like king someday'
p33
aS'imagine liking like king someday'
p34
aS''
p35
aS'dont forget people everyone need fixed'
p36
aS'amazing song'
p37
aS'dafuq read'
p38
aS'flowers place casket'
p39
aS'like bands follow everyone else'
p40
aS'deep shadows found light'
p41
aS'sold friendship fucking'
p42
aS'everyone making depression seem coolpopular fucking cool sucks know actually diagnosed taking pills'
p43
aS'youre reading happy youve alive youre beautiful never forget love'
p44
aS'trick tweet squeeze meat give something sweat'
p45
aS'sample flavors candy shop'
p46
aS'single awesome thats'
p47
aS'roses violets dying hospitable dying'
p48
aS'hating exhausting'
p49
aS'know good something havent found'
p50
aS'good'
p51
aS'live life waiting'
p52
aS'sound glass hearts breaking'
p53
aS'sink teeth nightmare'
p54
aS'want funk'
p55
aS'couldve wouldve never never ever'
p56
aS'night falls around dont think make light guide think'
p57
aS'screamed opera middle walmart'
p58
aS'would'
p59
aS'well crowd'
p60
aS'angels deserve'
p61
aS'want know name stand'
p62
aS'straight people havent even tried dont knock till'
p63
aS'heart place monster like'
p64
aS'zombie apocalypse broke didnt even know'
p65
aS'every love band much want members face shovel'
p66
aS'something something something borrowed something blue tardis doctorwho'
p67
aS'people emotionally drained sleep doesnt anything wake tired doesnt away'
p68
aS'every followers ever need someone talk'
p69
aS'look world batman duhhhhh'
p70
aS'fuck going unicorn'
p71
aS'haha lmfaoo'
p72
aS'keep talking love hear voice'
p73
aS'sing read'
p74
aS'love alone capable uniting beings complete fulfill'
p75
aS'told wisdom comes guess mine sent post office instead fedex'
p76
aS'dont tweet sympathy attention tweet express feelings outlet want'
p77
aS'love waffles like omfg'
p78
aS'cant fall sometimes'
p79
aS'else remembers show'
p80
aS'lost'
p81
aS'dont rain parade'
p82
aS'losing perfect thing'
p83
aS'like moths flame'
p84
aS'hope like stars stole'
p85
aS'would without music'
p86
aS'weekend staying home getting lazy food internet perfect'
p87
aS'school like penis long hard unless youre asian'
p88
aS'jealous people everyday'
p89
ag35
aS'laugh tired haha'
p90
ag35
aS'maybe clean room find money'
p91
aS'want sound like daft punk'
p92
aS'things happen life teach look good things whole light'
p93
aS'youll realize much cared'
p94
aS'crush never really goes away'
p95
aS'dont give damn reputation'
p96
aS'walking room saying damn need clean bitch walking'
p97
aS'amazing'
p98
aS'suck motherfucking bass'
p99
aS'awesome'
p100
aS'follow'
p101
ag35
asS'2014_9'
p102
(lp103
S'haha fuck unicorn'
p104
aS'screaming penis passing good idea think crazy'
p105
ag35
aS'sometimes person better sometimes takes three words make happy'
p106
aS'desire things destroy'
p107
aS'ever fallen love someone voice'
p108
aS'proposed omegle last night creepy'
p109
aS'feel like dont right depressed many others worse'
p110
aS'could ghost aggressively breakdancing beside right would idea'
p111
aS'sticks stones break bones words leave permanent psychological damage'
p112
aS'people think depression sadness theyre wrong happy darkness always finds take'
p113
aS'strikes pose dies inside nobody knows shes beautiful suicide'
p114
aS'haha'
p115
aS'cant laughing hard'
p116
aS'bracelets'
p117
aS'love erection year sister told'
p118
aS'downloaded fappy burd haha perfect'
p119
aS'randomly downloading music good times'
p120
aS'true true aggravating idiots'
p121
aS'people omegle thirsty'
p122
aS'chillin omegle'
p123
aS'ofcourse'
p124
aS'please stop mistaking ability make laugh flirtation amazing sense humor doesnt mean want'
p125
aS'life gives lemons make orange juice leave world wondering'
p126
aS'darn like surprisingly happy didnt think would come'
p127
aS'made entirely flaws stitched together good intetions'
p128
aS'think reason bands rather fill admit really lonely want time'
p129
aS'proud klondike'
p130
aS'different doesnt mean broken'
p131
aS'listen mainly progressive metal dubstep'
p132
aS'love keeps refueling'
p133
aS'bloody hell happybirthdayronweasley'
p134
aS'followers thank followers love guys'
p135
aS'smoke weed'
p136
aS'know perfect stay maybe youll'
p137
aS'moment infinite'
p138
aS'less three tease send nudes make drool'
p139
aS'follow'
p140
aS'great welcome honey'
p141
aS'messages blushing like'
p142
aS'people jealous wear awesome like'
p143
aS'really want pizza gtgt'
p144
aS'offend options head butt table kick land mine nice'
p145
aS'accidentally cares bands education'
p146
aS'come bilezgay come closet make known straight people dony'
p147
aS'women ruled world would wars bunch jealous countries talking'
p148
aS'report'
p149
aS'friend walk behind others sidewalk doesn\xe2\x80\x99t group'
p150
aS'blah blah blah music important'
p151
aS'listen music warm inside beautiful amazing'
p152
aS'wheels lets bumps'
p153
aS'quick whats meaning life'
p154
aS'want dont want want dont want want something messes'
p155
aS'weird follow everyone follows'
p156
aS'silly teenagers petty picking doesnt hurt call names want know gone dont continue'
p157
aS'mirror mirror wall cant'
p158
aS'think fill life music fill void heart'
p159
aS'stars look beautiful branches wisteria tree'
p160
aS'people call whore dont around calling self righteous bitch'
p161
aS'gosh following gtlt best ever'
p162
aS'roots brightest roses kept live snow'
p163
aS'people tell past automatically start asking music listen'
p164
aS'cant touch music music touch'
p165
aS'happy first rest life'
p166
aS'twitter boring talk'
p167
aS'cheaters lower class human allowed relationships people selfish cold hearted'
p168
aS'meet clouds'
p169
aS'drinking bleach whiten teeth'
p170
aS'live fucking'
p171
aS'better mercy fucking knees fucking river'
p172
aS'dirty slut tramp bitch motherfucking bass'
p173
aS'suck motherfucking bass'
p174
aS'hard times comes good times remember matter dark night gets always comes'
p175
aS'party till pass drink till dead dance night till cant feel legs'
p176
aS'need feel sorrow self righteous suicide'
p177
aS'stupid deer thought could race haha'
p178
aS'followed omfg happy'
p179
aS'corners heart filled hanging shadows like misplaced scarecrows'
p180
aS'going tweet tweet much'
p181
aS'dear phone thank making look like loner awkward situations sincerely'
p182
aS'tried hard convince okay feel'
p183
aS'madness chaos'
p184
aS'castles siege sign outside says leave alone'
p185
aS'kidding thought fine'
p186
aS'tearing apart like glue well card'
p187
aS'follow lost'
p188
aS'never erfect neither'
p189
aS'feeling emprty keep memory'
p190
aS'time comes forget wrong done'
p191
aS'love dont'
p192
aS'love vengeance never frree'
p193
aS'rawr'
p194
aS'come want'
p195
aS'music'
p196
aS'best song make sleepwalking bmth'
p197
aS'peasant tattoos ugly shallow mind ugly'
p198
aS'take feel like chasing rainbows lost alone'
p199
aS'dreaming city never sleeps'
p200
aS'dead dont make sound unless chasing rainbows scream name'
p201
aS'kiss like everything alright'
p202
aS'wheres love dance'
p203
aS'left unsaid needed hear badly'
p204
aS'need love hold much bear'
p205
asS'2014_21'
p206
(lp207
S'maybe wait long enough able band merch topic'
p208
aS'pull beanie pull pants'
p209
asS'2014_20'
p210
(lp211
S'absolutely adored wayne gale natural born killers hope sometime'
p212
asS'2014_16'
p213
(lp214
S'okay favorite chapter written hope sometimes smile flip back pages still part'
p215
aS'neither'
p216
asS'2014_17'
p217
(lp218
S'love dont even keep'
p219
aS'hell white people racist still news every like ermuhgerd another wellknown geezer racist wgaf'
p220
aS'need like'
p221
aS'twitter boring'
p222
aS'sometimes night sleep'
p223
aS'love baking'
p224
aS'lover person either sends receives love anything lets back original terms please'
p225
aS'cant wait guys warped tour'
p226
aS'kiss form lips leave mesmerized'
p227
aS'sometimes dont even feel real'
p228
aS'band life'
p229
asS'2014_10'
p230
(lp231
S'youll never normal normal'
p232
aS'always cute still'
p233
aS'want'
p234
aS'start mosh heart'
p235
aS'even'
p236
aS'never apologize showing emotions rare thing today'
p237
aS'silly parents dont understand importance bands'
p238
aS'reason worse reason theres absolutely nothing make feel better'
p239
aS'hurt okay hurt'
p240
aS'something make okay'
p241
aS'died hair today love'
p242
aS'tries hard feel pretty still feels ugly'
p243
aS'worst things life come free'
p244
aS'feel empty inside fucking time'
p245
aS'goodbye never said'
p246
aS'sober feel pain'
p247
aS'keeps secrets hides past everything good life left fast'
p248
aS'remember days crazy stalker didnt know member belonged band'
p249
aS'miss smile miss mine'
p250
aS'want someone understand feel inside'
p251
aS'still trying figure want want want'
p252
aS'never crazy dedicate entire life give eternal life maybe'
p253
aS'dont care argument fact flaming people fabulous'
p254
aS'long stressful nails done hate'
p255
aS'cant'
p256
aS'dont ignore days come back thinking havent noticed hurt cannot come back'
p257
aS'hell heaven wanna know christians allowed'
p258
aS'talk cute people online youre attractive fucktrips foot slamming locker holy fuck wait'
p259
aS'like people joke around much deep conversation'
p260
aS'amazing people meet omegle'
p261
ag35
aS'want dead pain going soon'
p262
aS'remind dont friends people bring friends loving supporting'
p263
aS'deserves endless retweets'
p264
aS'well'
p265
aS'music personal enjoyment massive pissing contest'
p266
aS'love girl scout cookies'
p267
aS'mary little lamb heart black coal crept room night fucking soul'
p268
aS'life leave lungs heart stay'
p269
aS'going page georgia house representatives'
p270
asS'2014_11'
p271
(lp272
S'sexy never guys like live near'
p273
aS'dont exactly mean emotional mean looks like swomewhat'
p274
aS'want cute relationships thats want'
p275
aS'dont understand'
p276
aS'knowing text back wanting conversation'
p277
aS'pain feeling cant last forever hold'
p278
aS'wish could hurt hurt mebut know chance wouldnt'
p279
aS'waste perfectly clean wrist'
p280
aS'disappointment usually painful hurt person never expected cause pain'
p281
aS'friends great write school placed first everything placed third'
p282
aS'sleepy warm happy hope well sleepy part unless want'
p283
aS'never settle someones know potential someones'
p284
aS'great capitol thursday friends'
p285
aS'moment whisper violently cant scream like progressive metal'
p286
aS'loving like dying like dying'
p287
aS'wish wish upon shooting star'
p288
aS'letter capitol want comet national academy future physicians medical scientists'
p289
aS'weird would rather longdistance relationship lives near'
p290
aS'tromboner'
p291
aS'thankful tall boys bands wear skinny jeans tighter mine smiles could light world'
p292
aS'learn mistakes arent busy denying'
p293
asS'2014_27'
p294
(lp295
S'looks style that\xe2\x80\x99s award hotornotapp'
p296
asS'2014_13'
p297
(lp298
S'huys like facebook page'
p299
aS'isnt path made'
p300
aS'baby honestly harder breathing next'
p301
aS'searching bottom bottle hard find anymore'
p302
aS'know girls higher risk getting pregnant boys'
p303
ag35
asS'2014_14'
p304
(lp305
S'doubt woman getting strangest urge clean something think might'
p306
aS'ducks practicing teenage girl faces lake today'
p307
asS'2014_12'
p308
(lp309
S'kiss feels like home fucking homesick'
p310
aS'pilots flying today looked like david tennant'
p311
aS'dont hating'
p312
asS'2014_15'
p313
(lp314
S'took zimbios hunger games personality quiz'
p315
aS'stop fighting created world fight people destroying'
p316
aS'ermehgerd summer hurry'
p317
aS'cant wait warpedtour excited'
p318
aS'well thats scary'
p319
aS'love like candle forget burn fucking house fucking ground'
p320
as.