(dp0
S'2013_42'
p1
(lp2
S'great'
p3
aS'harvest exceeding rewards'
p4
aS'capricorns personality kind affectionate often suppressed shyness'
p5
aS''
p6
aS'dont understand cant explain'
p7
aS'capricorns organized hate shit misplaced'
p8
aS'love team arsenal'
p9
aS'back days'
p10
aS'goooooaaaaalllllkeep calm love arsenal'
p11
aS'capricorns take physical closeness serious everything else'
p12
aS'dont compare anyone'
p13
aS'true friends wont grow apart even dont talk everyday'
p14
aS'capricorns genuine lovers love love hard hell even harder time letting someone'
p15
aS'doesnt define maturity'
p16
aS'capricorn stay situation feel welcomed'
p17
aS'capricorns never wants give garbage world'
p18
aS'girls always find things might anything right away know'
p19
aS'lmao'
p20
aS'time shows matters'
p21
aS'always thing'
p22
aS'pain changes people'
p23
aS'capricorns naturally bossy assertive personalities either deal cant choose'
p24
aS'perfect always loyal'
p25
aS'capricorn seldom relationships thoughtlessly'
p26
aS'give think held long'
p27
aS'capricorns compatible signs loveable people good hearts'
p28
aS'capricorns motivation maintain improve everything'
p29
aS'less care happier youll'
p30
aS'people treat treat'
p31
aS'sunny'
p32
aS'people never appreciate'
p33
aS'powerful successful strong smart women behind themur partner either take bring'
p34
aS'perfect always'
p35
aS'happy birthday'
p36
aS'forever grateful'
p37
aS'issoria'
p38
ag6
aS'shit work tomorrow'
p39
aS'done'
p40
ag6
aS'never'
p41
aS'true'
p42
aS'girls dont realise would like wont give sumtyn timeeffort gifts poin\xe2\x80\xa6'
p43
aS'capricorns really soft hearts maybe little soft times'
p44
aS'afraid commitment afraid committing someone wont commit'
p45
aS'done kept calling neveragain'
p46
aS'capricorns take time fully open someone'
p47
aS'lmao'
p48
ag6
aS'times capricorn never pick sides instead make opposing parties others point'
p49
aS'eyah pele flysafe'
p50
aS'eyah pele flysafe'
p51
aS'count people trust hand'
p52
aS'capricorn females need charge willing bend right person'
p53
aS'love matter matter much argue know she\xe2\x80\x99ll always'
p54
aS'capricorn females always queen'
p55
aS'love mother'
p56
aS'word honor youre going something need oomf'
p57
aS'past start'
p58
aS'people arent loyal anymore'
p59
aS'thank jesus gift life'
p60
aS'tired'
p61
aS'work'
p62
aS'perfect always'
p63
aS'capricorns always prompt making decisions know mind made going back'
p64
aS'barka sallah'
p65
aS'capricorns problem blocking negative offensive people lives'
p66
aS'capricorn doesnt like rushed situations'
p67
ag6
aS'sallah meat'
p68
aS'even sallah meat sosad'
p69
aS'capricorns seem detached world others awful time'
p70
aS'ncaa begins audit domestic airlines'
p71
aS'capricorns usually friendly take caution meeting people'
p72
aS'capricorns friends need tell need hear want hear'
p73
aS'great shot typical shot three a380s b747 shot sunset'
p74
aS'capricorns change people instead take completely'
p75
aS'capricorns truly born lead inspire home work'
p76
aS'capricorn help others anyway possible irritated others willing'
p77
aS'capricorns extremely hard headed especially know know right'
p78
aS'people never appreciate'
p79
aS'capricorns build relationships lifetime'
p80
aS'single true love download'
p81
aS'capricorn woman highly individualistic opinions ideas'
p82
aS'don\xe2\x80\x99t trust words trust actions'
p83
aS'capricorn reached certain level closeness someone never goes away'
p84
aS'dream work hard stay focused surround good people'
p85
aS'rocksolid determination capricorns stretch patience around'
p86
aS'till'
p87
aS'miss darling'
p88
aS'hahahahaha enjoy plus keep meat'
p89
aS'girl dont smoke drink party every weekend dont sleep around start drama attention'
p90
aS'dont afraid speak mind reason'
p91
aS'capricorns dont like accept help going make well'
p92
aS'simplest ways stay happy letting things make'
p93
aS'capricorns anti social nature perceived caring thats case'
p94
aS'takes capricorn even consider taking seriously behave line basically'
p95
aS'fact capricorns tendency good everyone possibly biggest downfall'
p96
aS'capricorns strong people embedded beliefs'
p97
aS'surround people believe dreams'
p98
aS'give easily cant date capricorn'
p99
aS'capricorns hate people think'
p100
aS'desperation form person really gets capricorns nerve'
p101
aS'preserve thee trust psalm'
p102
aS'think grace think steadfast love mercy compassion'
p103
aS'thank jesus gift life'
p104
asS'2013_43'
p105
(lp106
S'simple never someone trusts never trust someone lies'
p107
aS'forever grateful'
p108
aS'sometimes really hard believe everything happens reason'
p109
aS'matter good life wake morning thankful still'
p110
aS'love short forgetting long'
p111
aS'capricorns always keep clear head common sense always working full speed'
p112
aS'start everyday hope leave memories behind faith better tomorrow'
p113
aS'unlike people capricorns finish start'
p114
aS'many capricorns really writing sometimes emotions come better paper'
p115
aS'good'
p116
aS'capricorns proud people problem stepping admitting wrong'
p117
aS'capricorns truly born lead inspire home work'
p118
aS'capricorns thrive good challenge often times gravitates toward signs innately difficult matches'
p119
aS'thanks darling proud kisses'
p120
aS'lord good'
p121
ag6
ag6
aS'thanks'
p122
ag6
aS'finally'
p123
aS'grateful lord'
p124
aS'faithful deserves praise'
p125
aS'jesu'
p126
aS'thank life'
p127
ag6
aS'hahahahaha alakoba'
p128
ag6
aS'capricorns makes friends throughout lifetime'
p129
aS'grateful'
p130
aS'never perfect always unique'
p131
aS'blessed'
p132
aS'thank jesus gift life'
p133
aS'mind'
p134
aS'capricorn\xc2\x92s sexy know want life anything power take'
p135
aS'capricorns great ignoring whole existence'
p136
aS'dont people trust dont trust people'
p137
ag6
aS'capricorns hands people actually needs work fully understanding'
p138
aS'make happy'
p139
aS'capricorn person help without thinking twice'
p140
aS'good morning tweepers'
p141
aS'capricorn goes deep aries goes hardcore love softcore pisces'
p142
aS'early good morning'
p143
aS'although capricorns keen sharing emotions problem lending someone'
p144
aS'capricorn wants people smart knowledgeable sense humor around'
p145
aS'thanking advance'
p146
aS'grateful'
p147
aS'thank jesus gift life'
p148
aS'capricorns pride honesty trustworthy spirit'
p149
aS'late night call'
p150
aS'capricorns high morals strong sense right wrong'
p151
aS'caring much fucks'
p152
aS'capricorns great ignoring whole existence'
p153
aS'life isnt perfect thankful everything'
p154
aS'thank jesus gift life'
p155
asS'2013_40'
p156
(lp157
S'cant find'
p158
aS'dear boyfriend thanks lessondear present boyfriend thanks trainingfuture husband ready stolen'
p159
aS'cheap bcos acceptd wanna xpensive check inbox mani guys disappointed'
p160
aS'unique thanks creating'
p161
aS'stolen love word like hungryi tired etcwise updnt fooleddnt learner'
p162
aS'stolen doesnt himif update single update widowgbam lobatan'
p163
aS'cant find facebook sure guess else'
p164
aS'haaa sure check picture well'
p165
aS'hehehe'
p166
aS'darey crush back coverface'
p167
aS'mayb'
p168
aS'yall'
p169
aS'llam standard london'
p170
aS'darey crust back coverface'
p171
aS'sorry'
p172
aS'awww baby might country know december trip wink'
p173
aS'favourite song girl darey good doubt'
p174
aS'amount attend quality standard unique bless boss'
p175
aS'celebrate'
p176
aS'hmmmn forget'
p177
aS'lies tell women ladies beware'
p178
aS'partner crime mean much baby kisses'
p179
aS'capricorns stale think know worthy enthusiasm simply'
p180
aS'missing someone able worst feeling ever'
p181
aS'afraid trust psalm scripturesunday'
p182
aS'best concert ever naija waiting llam 2014 standard thumbup'
p183
aS'watch experience love like movie produced productions episod\xe2\x80\xa6'
p184
aS'capricorn falls love life breakups divorces destroy unconditional love'
p185
aS'point sitting'
p186
aS'true yall busy saying baddest ever liveth'
p187
aS'funny kids waiting come world hahahahaha'
p188
aS'capricorns honest fair personality makes great leaders'
p189
aS'stolenletter unborn child delay ohnah papahes stil busy girlfriends forming baddest ever liveth'
p190
aS'sometimes wish could face face talk much never wanna tell anyone else'
p191
aS'capricorns come wisdom persistence'
p192
aS'capricorn challenges breakdown wall melt heart intelligent possible'
p193
aS'nobodys perfect'
p194
aS'sorry perfect'
p195
aS'capricorns great picking energy around whether negative positive'
p196
aS'capricorns come world strong need make meaningful mark world'
p197
aS'girl dont smoke drink party every weekend dont sleep around start drama attention'
p198
aS'love serious stuff capricorn chance'
p199
aS'capricorn look intimidating outside inside really squishy loving people'
p200
aS'super girl'
p201
aS'check promo pictures guys'
p202
aS'family important things capricorns'
p203
aS'capricorn done going back'
p204
aS'truth hurt hurts forever'
p205
aS'never settle less'
p206
aS'sometimes smiling easier explaining youre'
p207
aS'never dull moment capricorn playful mood'
p208
aS'disappointments setbacks life hang promises future'
p209
aS'happy doesnt mean simply means thankful lord happy sunday'
p210
aS'thank everything good'
p211
aS'capricorns come wisdom persistence'
p212
aS'forever grateful'
p213
aS'actions speak loud cant hear words'
p214
aS'unlike people capricorns finish start'
p215
aS'youre truly friend proud darling'
p216
aS'partner crime happy birthday sweerie plentyyyyyyyyyy'
p217
aS'happy birthday honey advance plenty'
p218
aS'faith everything work best'
p219
aS'sometimes quick count days forget make days count dont rush life'
p220
aS'feelings someone grow stronger fear losing'
p221
aS'friend'
p222
aS'capricorns high expectations everything'
p223
aS'dear music thank else'
p224
aS'capricorn keep friends close enemies closer'
p225
aS'capricorns build relationships lifetime'
p226
aS'capricorns always keep clear head common sense always working full speed'
p227
aS'life short live love rare grab anger dump fear awful face memories sweet cher\xe2\x80\xa6'
p228
aS'baby'
p229
aS'capricorn extremely conscious company keep'
p230
aS'stay strong even feels like everything falling apart'
p231
aS'people hide feelings usually care'
p232
aS'true'
p233
aS'matter going goes twitter always twitter happy place'
p234
aS'capricorns nothing practical'
p235
aS'dont'
p236
aS'divine favour'
p237
aS'life'
p238
ag6
aS'words actions always tell truth'
p239
aS'thank lord'
p240
aS'everyone around friend'
p241
aS'capricorns enjoy isolation quiet time'
p242
aS'capricorn females give special person even arent together'
p243
aS'dear thank never ending love care support never thank enough'
p244
aS'capricorns personality kind affectionate often suppressed shyness'
p245
aS'doesnt break heart isnt love'
p246
aS'capricorn doesnt like rushed situations'
p247
aS'much bullshit going world need love less hate give neighbor today'
p248
aS'capricorns problem blocking negative offensive people lives'
p249
aS'really genuinely missing dude ooooooo really going'
p250
aS'believe'
p251
aS'hebrews'
p252
aS'everything fine'
p253
aS'keep hoping never give'
p254
ag6
ag6
aS'capricorn wants someone self sufficiency relinquish control life'
p255
aS'capricorn person help without thinking twice'
p256
aS'kardashian baby pretty yall stop hating'
p257
aS'capricorns friends need tell need hear want hear'
p258
aS'dont give things hard'
p259
aS'capricorns makes friends throughout lifetime'
p260
aS'capricorns always keep clear head common sense always working full speed'
p261
aS'capricorns freaks bring'
p262
aS'capricorn extremely conscious company keep'
p263
aS'amen'
p264
aS'capricorns build relationships lifetime'
p265
aS'capricorns great ignoring whole existence'
p266
aS'lord thank strength gave endure spirit patience'
p267
aS'thankful'
p268
aS'comes point life realize really matters never always'
p269
aS'capricorn treat equal amount respect treat'
p270
aS'facts facts capricorns'
p271
aS'capricorns high morals strong sense right wrong'
p272
aS'capricorns find playing peacemaker time'
p273
aS'capricorns make hard others attached someone never want'
p274
aS'capricorns want feel typical sense word'
p275
aS'capricorns pride honesty trustworthy spirit'
p276
aS'capricorn wont fall romantic delusions think show'
p277
aS'capricorns huge heart sometimes fall victim others taking advantage'
p278
aS'capricorns determined ahead life achieve even fathom'
p279
aS'book smarts mean nothing capricorn much common sense'
p280
aS'capricorn would rather seen cold save heartache people bring table'
p281
aS'things money cannot'
p282
aS'halelluyah'
p283
aS'love'
p284
aS'heal bless land'
p285
aS'girl favorite song tell mouth ever could'
p286
aS'distance shows whos worth keeping whos worth letting'
p287
aS'girl cries usually thing built anger emotions shes holding'
p288
aS'want lasting relationship someone support trust stay faithful comfort appre\xe2\x80\xa6'
p289
aS'best friends difference fake smile real friendship'
p290
aS'shes best friend loyal friend world mynumber1'
p291
aS'love'
p292
aS'perfect loyal'
p293
aS'appreciate late justsaying'
p294
aS'capricorns always punctual hates others dont appreciate time'
p295
aS'capricorn level headed people come across'
p296
aS'capricorns find playing peacemaker time'
p297
aS'instinctively capricorn always little hesitant start things always glad'
p298
aS'hardly middle ground capricorn either super serious light hearted really playful'
p299
aS'capricorn never know ruffled feathers trust'
p300
aS'capricorns take sober practical realistic slow steady approach life'
p301
aS'fact'
p302
aS'capricorn sure love become warmest affectionate partner anyone could want exceeding expectation\xe2\x80\xa6'
p303
aS'capricorns stubborn always nice things dont'
p304
aS'true'
p305
aS'everyone remains capricorns good side shown otherwise'
p306
aS'capricorns attached people quickly'
p307
aS'capricorns moodiness nothing played'
p308
aS'capricorn person help without thinking twice'
p309
aS'although capricorns keen sharing emotions problem lending someone'
p310
aS'capricorns honest fair personality makes great leaders'
p311
aS'capricorns come wisdom persistence'
p312
aS'capricorns wants things done right right first time'
p313
aS'love capricorn find horoscope zodiac'
p314
aS'best capricorns horoscope zodiac'
p315
aS'things really irks capricorns nerves heres horoscope zodiac'
p316
aS'capricorns heart always open thought love takes right person come along show\xe2\x80\xa6'
p317
aS'capricorns mind always fixed distant goal remain accomplish goal'
p318
aS'capricorns change people instead take completely'
p319
aS'remain suspicious capricorn proven trustworthy'
p320
aS'capricorns learned early nothing life comes easy take hard work dedication'
p321
aS'capricorns proud people problem stepping admitting wrong'
p322
aS'capricorns truly born lead inspire home work'
p323
aS'capricorns thrive good challenge often times gravitates toward signs innately difficult matches'
p324
aS'capricorns turn aggressive challenged otherwise best avoid confrontations'
p325
aS'capricorns would rather loyal friend rather many fake flaky unreliable people lives'
p326
aS'proudly capricorn'
p327
aS'thank lord'
p328
aS'capricorn people great life never leave cold'
p329
aS'capricorns romantic extremely sentimental often high standards expectations'
p330
aS'capricorns build relationships lifetime'
p331
aS'capricorns emotions always control'
p332
asS'2013_41'
p333
(lp334
S'dont compare anyone'
p335
aS'capricorns emotions always control'
p336
aS'matter long takes better'
p337
aS'hangout girl hangout boss happy'
p338
ag6
aS'agile mama havent changed'
p339
aS'arik lagosbrazil next year guys going world better start booking'
p340
aS'hangout boss happy'
p341
aS'wink efiko'
p342
aS'brillant dude school back'
p343
aS'senior perfect head back days'
p344
aS'glad almost 10yrs'
p345
aS'everyone going anything struggle pain right keep head keep smiling heals'
p346
aS'best things come wait'
p347
aS'listen support girl'
p348
aS'capricorns maybe misunderstood sign zodiac'
p349
aS'nufin like learning stuffs everyday makes wonder much stuff dont know ignoran\xe2\x80\xa6'
p350
aS'capricorns free spirits whole power strength'
p351
aS'hate getting flashbacks things dont want remember'
p352
aS'deserve happy'
p353
aS'capricorns usually cant bargained mind made stubborn bastards'
p354
aS'matter great everyone like thats life'
p355
aS'still cant believe people disaappointed'
p356
aS'patient good things come wait'
p357
aS'totally sure reading associated thing correctly takeoff configuration warning still went'
p358
aS'heard'
p359
aS'vice versa'
p360
aS'doesnt tithe really breakup cheat freegoodadvise'
p361
aS'capricorns dont easily hate others never hurt someone intentionally'
p362
aS'really cant trust anyone anymore'
p363
aS'thanks ignoring messages oomf'
p364
ag6
aS'focus positive'
p365
aS'capricorns anti social nature perceived caring thats case'
p366
aS'capricorns best foot forward work appreciated really irritates'
p367
aS'everything happens reason'
p368
aS'capricorn keep secret'
p369
aS'capricorns wants things done right right first time'
p370
aS'loyalty everything'
p371
aS'stupid know lied'
p372
aS'capricorn people great life never leave cold'
p373
aS'rather friends fake ones'
p374
aS'attitude based treat'
p375
aS'never afraid remember original worth copy'
p376
aS'friends come thats watch back trust'
p377
aS'capricorns wise advice give ready hear truth'
p378
aS'crazy quickly people forget want something'
p379
aS'capricorns help loved ones reach dream without hesitation'
p380
aS'perfect always loyal'
p381
aS'utterly disappointed'
p382
aS'cant shine dont grind'
p383
aS'capricorns ruthless slighted hurt'
p384
ag6
aS'capricorn needs lots personal space privacy'
p385
aS'boeingpro aviation daily'
p386
ag6
aS'thankful still'
p387
aS'capricorns generally among hardest sign understand'
p388
aS'good people bullshit'
p389
aS'capricorns ideal soul mate game ambitious'
p390
aS'capricorn seldom relationships thoughtlessly'
p391
aS'capricorn know truly feel positive hurt'
p392
aS'capricorns strong people embedded beliefs'
p393
aS'capricorn woman lady sinks relationship every fiber always'
p394
aS'capricorns stale think know worthy enthusiasm simply'
p395
aS'capricorns affectionate tends become reserved order protect getting hurt'
p396
aS'never penetrate capricorn personal space unless invite otherwise well'
p397
aS'true'
p398
aS'capricorns love nice things believe flaunting material possessions'
p399
aS'capricorn likes everything'
p400
aS'fact capricorns tendency good everyone possibly biggest downfall'
p401
aS'capricorns powerfully drawn people like career focused hard working'
p402
aS'capricorn thoughts wants express certainly deserve heard'
p403
aS'capricorns sometimes tendency take everything someone says heart'
p404
aS'relationships capricorns remain tender devoted completely show'
p405
aS'capricorn extremely conscious company keep'
p406
aS'capricorn sure love become warmest affectionate partner anyone could want exceeding expectation\xe2\x80\xa6'
p407
aS'capricorns self gratification seeing people around well succeeding'
p408
aS'thing capricorn knows importance self respect self reliance'
p409
aS'capricorns always punctual hates others dont appreciate time'
p410
aS'capricorns hates people waddle self pity'
p411
aS'capricorns take time fully open someone'
p412
aS'capricorns pessimistic outlook rarely allows excited thingsf'
p413
aS'capricorns moodiness nothing played'
p414
aS'capricorn hates head games toyed dont even'
p415
aS'word'
p416
aS'trusting walk faith sight'
p417
aS'fear knocks door answer faith'
p418
aS'best feeling world knowing actually mean something virgo'
p419
aS'truth hurt hurts forever'
p420
aS'whoops friday'
p421
aS'fact'
p422
aS'chose spend life time hating trying bring peopleremember cant stop gods blessingsu bringing'
p423
aS'people work hardput people busy tryna bring downso'
p424
aS'fact'
p425
aS'reasonso spending 24hrs hating talking shit tryna bring downu wasting time\xe2\x80\xa6'
p426
aS'life isnt perfect thankful everything'
p427
aS'thankful'
p428
aS'stay strong youre warrior'
p429
aS'without faith cannot please hebrews116'
p430
aS'money talks bullshit works'
p431
aS'morning dear'
p432
aS'capricorn emotions safe harms'
p433
aS'scamalert fake real account'
p434
aS'ready work sunny'
p435
aS'difference opportunity obstacle attitude faith greater fear'
p436
aS'sometimes looking comes looking dont emotionally attached needs'
p437
aS'thank jesus gift life'
p438
aS'free aviation inspiring pilot aviation free must'
p439
aS'never forget come raised'
p440
aS'capricorns motivation maintain improve everything'
p441
aS'congrats birth baby bless'
p442
aS'capricorn postpone actions clear consequences good first'
p443
aS'miore always remember sandaliiiii always remember sandalii'
p444
aS'matter anything nananana falli handi'
p445
aS'tori tiwa ogbono ogbono amala toju'
p446
aS'single heredownload free'
p447
aS'sexy diva drops single titled true love waje downloadlisten'
p448
aS'lifes simple pleasures thank'
p449
aS'hasnt forgotten created dont give trust perfect timing godposts'
p450
aS'present nigerias truly youngest pilot'
p451
aS'back true love waje download'
p452
aS'divine favour'
p453
aS'capricorns would prefer left completely alone majority time'
p454
aS'capricorns goals calmly patience'
p455
aS'capricorns hold grudge forever'
p456
aS'capricorns among hardest signs understand'
p457
aS'capricorns always looking higher goals better'
p458
aS'capricorns generally among hardest sign understand'
p459
aS'capricorns wise advice give ready hear truth'
p460
aS'capricorns fully aware cant please everyone wont'
p461
aS'capricorns always keep clear head common sense always working full speed'
p462
aS'facts facts capricorns'
p463
aS'capricorn would rather stay trouble'
p464
aS'love serious stuff capricorn chance'
p465
aS'capricorns pessimistic outlook rarely allows excited things'
p466
aS'capricorn sees hears getting'
p467
aS'capricorn people great life never leave cold'
p468
aS'capricorns take time fully open someone'
p469
aS'capricorns high morals strong sense right wrong'
p470
aS'capricorns find playing peacemaker time'
p471
aS'capricorns closed personality carefully guards inner world'
p472
aS'capricorns good combination strong good sense humor'
p473
aS'capricorns mostly independent know many people cannot trusted'
p474
aS'capricorns usually eventempered self composed'
p475
aS'capricorns like surrounding people always seems never happy'
p476
aS'capricorns tough nuts crack hardly anyone know everything feelings'
p477
aS'capricorns kind giving nature gain self gratification seeing others happy'
p478
aS'capricorn postpone actions clear consequences good first'
p479
aS'capricorns personality kind affectionate often suppressed shyness'
p480
aS'takes special person unleash capricorns inner passions'
p481
aS'capricorns take time fully open someone'
p482
aS'capricorns believes absolute best hate people take short cuts life'
p483
aS'happy birthday'
p484
aS'happy 94th year birthday october 1919 founded oldest airline world'
p485
aS'want married divorce cheating till'
p486
aS'lmao'
p487
ag6
asS'2013_46'
p488
(lp489
S'feel like giving upgive understands troubles loves know'
p490
aS'sabbath'
p491
aS'capricorn seems rock everyone loves lean problem people care'
p492
aS'dont pushed problems dreams'
p493
aS'thank lord today'
p494
aS'person cant stop thinking'
p495
aS'faithful worship'
p496
aS'thank lord'
p497
aS'glory'
p498
aS'thanks'
p499
ag6
aS'capricorn postpone actions clear consequences good first'
p500
aS'takes special person unleash capricorns inner passions'
p501
aS'gbam'
p502
aS'capricorns usually eventempered self composed'
p503
aS'join african airlines aviation experts regulatory affairs forum spotlight safety afcac'
p504
aS'matter \xe2\x80\x9cbusy\xe2\x80\x9d person\xe2\x80\x99s \xe2\x80\x9creally care\xe2\x80\x9d they\xe2\x80\x99ll always find time'
p505
aS'capricorns personality kind affectionate often suppressed shyness'
p506
aS'cant promise things perfect swear never leave'
p507
aS'capricorns take time fully open someone'
p508
aS'capricorns iciest people ever'
p509
aS'never anyone tell cant something bible says things strengthens'
p510
aS'nigga'
p511
aS'lessons learned best pain'
p512
aS'dont someone else starts appreciate person took granted'
p513
aS'love'
p514
aS'times capricorn never pick sides instead make opposing parties others point'
p515
aS'capricorn prefers strong experienced confident sexual partners know'
p516
aS'thankful always'
p517
aS'sometimes accept fact certain things never back used'
p518
aS'capricorns always motivated better yesterday'
p519
aS'hangout baby girl'
p520
aS'genesis deluxe'
p521
aS'route palms cinemagt captain phillip'
p522
aS'terrible traffic'
p523
aS'thank lord gift life'
p524
ag6
aS'want lord ajasa game joorrr'
p525
aS'many rappers yato'
p526
aS'lord ajasa many rappers yato'
p527
aS'eminado video point unique concept'
p528
aS'tire'
p529
aS'tire'
p530
aS'capricorns find playing peacemaker time'
p531
aS'silence says think'
p532
aS'capricorns mostly independent know many people cannot trusted'
p533
aS'evening tweeps havent watched eminado video click gtgtgt thanks'
p534
aS'capricorns like surrounding people always seems never happy'
p535
aS'matter good think life wake thankful life someone somewhere else fighting survive'
p536
aS'youll never able start chapter life unless stop looking back last'
p537
ag6
aS'single'
p538
aS'otalenu lord ajasa'
p539
aS'today tiringlong nostalgic'
p540
aS'tired'
p541
aS'thankful'
p542
aS'take care possible trust impossible'
p543
aS'capricorns take time fully open someone'
p544
aS'capricorns find playing peacemaker time'
p545
aS'capricorns always ready fulfill roles relationships'
p546
aS'break trust capricorn forgive time initial closeness never'
p547
aS'times capricorn never pick sides instead make opposing parties others point'
p548
aS'matter painful capricorn allow emotions blind'
p549
aS'capricorn wants someone self sufficiency relinquish control life'
p550
aS'capricorn seems rock everyone loves lean problem people care'
p551
aS'capricorns moodiness nothing played'
p552
aS'although capricorns keen sharing emotions problem lending someone'
p553
aS'capricorns honest fair personality makes great leaders'
p554
aS'capricorns extremely sensitive protect getting hurt make sometimes difficult'
p555
aS'capricorns good listeners always willing lend need'
p556
aS'capricorn emotions safe harms'
p557
aS'surrounded people love find capricorn happy'
p558
aS'capricorn pretty much along anyone choose'
p559
aS'unlike people capricorns finish start'
p560
aS'capricorns always play rules sure hell know'
p561
aS'capricorns hate rushing relationships meant always matter'
p562
aS'capricorns always ready fulfill roles relationships'
p563
aS'almost every capricorn come across life determined succeed'
p564
aS'love capricorn know live schedule keep schedule'
p565
aS'capricorn females need charge willing bend right person'
p566
aS'capricorns powerfully drawn people like career focused hard working'
p567
aS'capricorns motivation maintain improve everything'
p568
aS'unnecessary noise loud people really irritates capricorn like'
p569
aS'capricorn reached certain level closeness someone never goes away'
p570
aS'capricorns hate rushing relationships meant always matter'
p571
aS'capricorns find playing peacemaker time'
p572
aS'times capricorn never pick sides instead make opposing parties others point'
p573
aS'capricorn females need charge willing bend right person'
p574
aS'break trust capricorn forgive time initial closeness never'
p575
aS'matter painful capricorn allow emotions blind'
p576
aS'capricorn wants someone self sufficiency relinquish control life'
p577
aS'hard capricorn control emotions someone throwing crap'
p578
aS'although capricorns keen sharing emotions problem lending someone'
p579
aS'capricorns moodiness nothing played'
p580
aS'capricorn find lucky charm gives good vibes horoscope zodiac'
p581
aS'capricorns extremely sensitive protect getting hurt make sometimes difficult'
p582
aS'capricorns honest fair personality makes great leaders'
p583
aS'capricorns usually loyal believes longlasting relationships'
p584
aS'instinctively capricorn always little hesitant start things always glad'
p585
aS'capricorns quick adapt work challenges usually great things'
p586
aS'capricorn easily becomes cranky crowd people'
p587
aS'respect capricorn means everything give people deserves'
p588
aS'capricorns come world strong need make meaningful mark world'
p589
aS'abstinence gets reputation sometimes benefits waiting find'
p590
aS'capricorns excellent adapting circumstances environment'
p591
aS'unnecessary noise loud people really irritates capricorn like'
p592
aS'almost every capricorn come across life determined succeed'
p593
aS'capricorn wants someone self sufficiency relinquish control life'
p594
aS'unlike people capricorns finish start'
p595
aS'things really irks capricorns nerves heres'
p596
aS'surrounded people love find capricorn happy'
p597
aS'capricorn emotions safe harms'
p598
aS'capricorns good listeners always willing lend need'
p599
aS'capricorns thrive good challenge often times gravitates toward signs innately difficult matches'
p600
aS'capricorns truly born lead inspire home work'
p601
aS'capricorns would rather loyal friend rather many fake flaky unreliable people lives'
p602
aS'capricorns work well sign truly much hard work willing relations\xe2\x80\xa6'
p603
aS'capricorns romantic extremely sentimental often high standards expectations'
p604
aS'capricorns take physical closeness serious everything else'
p605
aS'capricorn treat equal amount respect treat'
p606
aS'capricorns make hard others attached someone never want'
p607
aS'capricorns determined ahead life achieve even fathom'
p608
aS'brutally honest advice capricorn open risk horoscopes zodiac psychicreading'
p609
aS'best capricorns horoscope zodiac'
p610
aS'capricorn help others anyway possible irritated others willing'
p611
aS'capricorn woman highly individualistic opinions ideas'
p612
aS'capricorn find true zodiac sign horoscope zodiac'
p613
aS'capricorn pretty much along anyone choose'
p614
aS'capricorn would rather seen cold save heartache people bring table'
p615
aS'missing'
p616
aS'happy birthday bless safedelivery'
p617
aS'great'
p618
aS'watch episode lovelikeamovie today need catch'
p619
aS'thank muchyoure welcome'
p620
asS'2013_47'
p621
(lp622
S'time flies'
p623
aS'capricorns always motivated better yesterday'
p624
asS'2013_44'
p625
(lp626
S'capricorns hates people waddle self pity'
p627
aS'happiness based circumstances decision make'
p628
aS'capricorns dont outwardly display emotions affections must trust care'
p629
aS'capricorns imaginable imaginations'
p630
aS'capricorns always motivated better yesterday'
p631
aS'dont talk dont show dont promise prove'
p632
aS'love want cant love'
p633
aS'capricorn females need charge willing bend right person'
p634
aS'break trust capricorn forgive time initial closeness never'
p635
aS'capricorns work harder sign party twice hard'
p636
aS'capricorns always ready fulfill roles relationships'
p637
aS'incase eclipse hasnt gotten 2where bear 2network challenges text eclipse'
p638
aS'nothing'
p639
aS'almost every capricorn come across life determined succeed'
p640
aS'capricorns always motivated better yesterday'
p641
aS'capricorn wants someone self sufficiency relinquish control life'
p642
aS'capricorn need somewhere cheer good laugh'
p643
aS'need ticket'
p644
aS'soon time party favourite artists colourfulworldofmore music event year gates'
p645
aS'colourful world concert'
p646
aS'trust heart wherever want even planned lead follow'
p647
aS'dear lord enoughbut grateful much haveplease bless even bless depend'
p648
aS'thankful'
p649
aS'capricorn sensitivity compassion others flows freely'
p650
aS'capricorn wants someone self sufficiency relinquish control life'
p651
aS'everything alright'
p652
aS'relationships times real relationships times'
p653
aS'matter painful capricorn allow emotions blind'
p654
aS'looking someone everything simply looking someone sacrifice time spend with\xe2\x80\xa6'
p655
aS'capricorn sure love become warmest affectionate partner anyone could want exceeding expectation\xe2\x80\xa6'
p656
aS'dont ever'
p657
aS'life goes'
p658
aS'arsenal thank'
p659
aS'capricorns makes friends throughout lifetime'
p660
aS'hard capricorn control emotions someone throwing crap'
p661
aS'love dangerous game play hearts made breaking pain seconds mars'
p662
aS'every queen deserves king'
p663
aS'sometime love find'
p664
aS'dont focus much dont'
p665
aS'growing means realizing friends arent really friends'
p666
aS'clear stern approach capricorn'
p667
aS'complete love drives fear'
p668
aS'naija naija bimi naija moti beere sini naija eyin pepsi upnaija'
p669
aS'perfect want'
p670
aS'goooooooooal'
p671
aS'fozfoz fozfoz fozfoz fire zamani'
p672
aS'comes easy wont last lasts wont come easy'
p673
aS'capricorns organized hate shit misplaced'
p674
aS'capricorn know truly feel positive hurt'
p675
aS'capricorn sensitivity compassion others flows freely'
p676
aS'daily live often breath whole life expression grace lord'
p677
aS'trust lord thessalonians'
p678
aS'capricorn emotions safe harms'
p679
aS'grateful heart'
p680
aS'sire sayo gbogbo nkan'
p681
aS'seyi olorun egan shebi shebi lose oruko niyi'
p682
aS'laiye oseun omumi laye aisan taiye sope tonkan'
p683
aS'think goodness done soul sing halleluyah thank saving'
p684
aS'think grace think steadfast love mercy compassion'
p685
aS'ojumo'
p686
aS'sing praises forever'
p687
aS'month testimony'
p688
aS'capricorn likes everything'
p689
aS'lati kekere angeli bere lori baba'
p690
aS'cant stop thanking lord'
p691
aS'amen'
p692
aS'spread hands soul thirsts like parched land lord'
p693
aS'psalm 11824'
p694
aS'lord made rejoice glad'
p695
aS'seek first kingdom righteousness things given well matt'
p696
aS'talo dabire jesu'
p697
aS'strength life'
p698
aS'matter face life turn trials victories'
p699
aS'showers blessing'
p700
aS'unquestionable'
p701
aS'question lord'
p702
aS'capricorns attitude unpredictable honestly biches reason'
p703
aS'birth kept lord mercy sufficient'
p704
aS'kabiyesi edumare'
p705
aS'dansaki mimo'
p706
aS'jesu'
p707
aS'grateful lord'
p708
aS'mercy kept'
p709
aS'faithful'
p710
aS'worship'
p711
aS'adore lord'
p712
aS'capricorn needs lots personal space privacy'
p713
aS'happy month'
p714
aS'love serious stuff capricorn chance'
p715
aS'happy birthday wish years sound health riches'
p716
aS'lottery lagos'
p717
aS'capricorn woman generally practical woman wise opinions generous heart'
p718
aS'capricorn certainly meet someone interesting tonight might take home romance great'
p719
aS'happy birthday days long lord bless works hands'
p720
aS'people appreciate likely live happy satisfied lives'
p721
aS'abstinence gets reputation sometimes benefits waiting find'
p722
aS'stay strong positive struggle sometimes'
p723
aS'capricorns find playing peacemaker time'
p724
aS'capricorn hates asking help dont perfect'
p725
aS'deserve best life'
p726
aS'capricorns wants things done right right first time'
p727
aS'capricorn seems rock everyone loves lean problem people care'
p728
aS'silence golden would proper motto capricorn'
p729
aS'capricorns take sober practical realistic slow steady approach life'
p730
aS'capricorns attached people quickly'
p731
aS'capricorns come wisdom persistence'
p732
aS'lord shield around psalm'
p733
aS'capricorns timid loud around friends'
p734
aS'dear wanna take minute anything thank blessings life'
p735
aS'divine mercy favour pray lord'
p736
aS'youre welcome'
p737
aS'thank lord'
p738
aS'hahahahaha tell team work hard lmao'
p739
aS'sorry'
p740
aS'awww sowie'
p741
aS'jubilation'
p742
aS'happy birthday days long godbless'
p743
aS'amen lord strength'
p744
aS'listen available follow'
p745
aS'gooooooooooal'
p746
aS'capricorns avid curiosity anything deemed strange unusual'
p747
aS'people come life real ones stay'
p748
aS'vote 2783142100415 thanks voting'
p749
aS'voting unlimited send 2783142100415 vote beautiful mostgiftedfemalevideo'
p750
aS'capricorns mind always fixed distant goal remain accomplish goal'
p751
aS'gooooooooal'
p752
aS'capricorns tend zero hundred give everything give nothing'
p753
aS'remain suspicious capricorn proven trustworthy'
p754
aS'amala vegetable soup dinner loveumom'
p755
aS'capricorns change people instead take completely'
p756
aS'evening banky hows'
p757
aS'capricorns thrive good challenge often times gravitates toward signs innately difficult matches'
p758
aS'wanna like grow breakfast paris dinner cali godblessu'
p759
aS'capricorns truly born lead inspire home work'
p760
aS'capricorns would rather loyal friend rather many fake flaky unreliable people lives'
p761
aS'capricorns turn aggressive challenged otherwise best avoid confrontations'
p762
aS'perfectbut loyal trustme'
p763
aS'thanks darling'
p764
aS'capricorn needs stability means need stable reliable people lives'
p765
aS'loved lost'
p766
aS'sometimes expect others willing much'
p767
aS'cant reach whats front whats behind'
p768
aS'capricorns seem detached world others awful time'
p769
aS'capricorns work well sign truly much hard work willing relations\xe2\x80\xa6'
p770
aS'every queen deserves king'
p771
aS'capricorns personality kind affectionate often suppressed shyness'
p772
aS'album bless keeping word going'
p773
aS'capricorn talks today stimulating intimate nostalgic tone you\xe2\x80\x99ll gain perspec\xe2\x80\xa6'
p774
aS'things really irks capricorns nerves heres horoscope zodiac'
p775
aS'capricorns known antisocial person apply personality'
p776
aS'grateful lord'
p777
aS'days christmas'
p778
aS'happiness something ready made comes actions'
p779
aS'cold kunu cream crackers biscuit lunch'
p780
aS'think little less live little'
p781
aS'thankful always'
p782
aS'acknowledge lord jesusdansaki redansaki baba'
p783
aS'hate finally remember something'
p784
aS'capricorn wants need crave love special person show lots return'
p785
aS'capricorns problem blocking negative offensive people lives'
p786
aS'capricorns always prompt making decisions know mind made going back'
p787
aS'stay strong positive'
p788
aS'capricorns emotions always control'
p789
aS'sometimes what\xe2\x80\x99s best life what\xe2\x80\x99s best everybody else'
p790
aS'severe weather forecast operating reduced flying schedule updates flight info'
p791
aS'remain suspicious capricorn proven trustworthy'
p792
aS'bless works hands lord'
p793
aS'capricorns fully aware cant please everyone wont'
p794
aS'capricorns change people instead take completely'
p795
aS'grateful lord'
p796
aS'thank jesus life'
p797
asS'2013_45'
p798
(lp799
S'happy birthday wish years sound health riches enjoy wheres party'
p800
aS'lord ajasa otalenu'
p801
aS'familiar lord ajasa otalenu'
p802
ag6
aS'capricorns personality kind affectionate often suppressed shyness'
p803
aS'always believe something wonderful happen'
p804
aS'slowly surely'
p805
aS'beyond understanding'
p806
aS'hurts'
p807
aS'food'
p808
aS'tell first tongueout'
p809
aS'temme'
p810
aS'burst'
p811
aS'wanna naija olodo hows life'
p812
aS'hahahahaha alakoba dude start'
p813
aS'seriously worst feeling ever getting reply back someone really want talk'
p814
aS'yimu'
p815
aS'hahahahaha good luck dear wish'
p816
aS'crying doesnt mean'
p817
aS'capricorns believes absolute best hate people take short cuts life'
p818
aS'moju picture picture'
p819
aS'yimu'
p820
aS'congratulations teamnigeria proud'
p821
aS'away friend yimu'
p822
aS'matter hard things seem dont dont give clouds clear brighter days ahead'
p823
aS'capricorns motivation maintain improve everything'
p824
aS'sometimes life hard sometimes make harder'
p825
aS'best things happen unexpectedly'
p826
aS'capricorns work well sign truly much hard work willing relations\xe2\x80\xa6'
p827
aS'sometimes laugh stop tears'
p828
aS'capricorns thrive good challenge often times gravitates toward signs innately difficult matches'
p829
aS'remain suspicious capricorn proven trustworthy'
p830
aS'everything fine'
p831
aS'faith'
p832
aS'capricorn reliable dependable responsible person'
p833
aS'dont ever expect capricorn woman live stereotypes sign never'
p834
aS'capricorn pretty much along anyone choose'
p835
aS'blessed peacemakers called children matthew'
p836
aS'gbagbe oshi love romeo'
p837
aS'love love hard nothing change feel person'
p838
aS'capricorn woman highly individualistic opinions ideas'
p839
aS'divine blessing favour pray lord'
p840
aS'lmao'
p841
aS'happy birthday wish years sound health riches enjoy'
p842
aS'everything fine'
p843
aS'want honest relationship lies mind games cheating'
p844
aS'everyone remains capricorns good side shown otherwise'
p845
aS'capricorns annoyed people lack common sense'
p846
aS'stay positive positive mindset determine happiness'
p847
aS'capricorns ambitious make good husbands wives'
p848
aS'security power attracts capricorn females'
p849
aS'capricorn reached certain level closeness someone never goes away'
p850
aS'doubts start creep take moment pray'
p851
aS'life short like someone secretly'
p852
aS'first ignore ridicule fight mahatma gandhi'
p853
aS'capricorns find playing peacemaker time'
p854
aS'capricorns known antisocial person apply personality'
p855
ag6
aS'capricorn needs stability means need stable reliable people lives'
p856
aS'want refresh mind clear problems life'
p857
aS'capricorns work well sign truly much hard work willing relations\xe2\x80\xa6'
p858
aS'moving letting isnt easy sometimes need start'
p859
aS'realize arent important someone thought'
p860
aS'capricorns seem detached world others awful time'
p861
asS'2013_24'
p862
(lp863
g6
aS'always trust'
p864
aS'born different special'
p865
aS'good'
p866
aS'funny give someone chance dont take hurt want come back'
p867
aS'happy fathers'
p868
aS'lmao'
p869
aS'sabbath keep holy'
p870
aS'thank jesus'
p871
aS'assume method called'
p872
aS'capricorn always busy working'
p873
aS'kardashian kanye west welcome baby daughter she\xe2\x80\x99s kardashian given birth baby daught'
p874
aS'kardashian gives birth baby girl kanye west becomes happy father\xe2\x80\x99s kanye gave birth'
p875
aS'grip'
p876
aS'capricorns creativeness comes nowhere random times'
p877
aS'comes easy wont last lasts wont come easy'
p878
aS'nothing impossible word spelled possible'
p879
aS'capricorn rules want associate wthem honest respectful behind keep'
p880
aS'faithful'
p881
aS'forever grateful'
p882
aS'capricorn find lucky charm gives good vibes horoscope zodiac'
p883
aS'thankful'
p884
aS'capricorns work oriented people cannot stay idle long'
p885
ag6
aS'capricorns work best taking things slowly realist'
p886
aS'broken heart changes people'
p887
aS'setback keep capricorn long bouncing back turmoil specialty'
p888
aS'make effort dont'
p889
aS'capricorn tends think could wrong rather right'
p890
aS'work play'
p891
aS'olamide like first year orientalhotel'
p892
aS'etisalat spinlet'
p893
aS'oriental hotel'
p894
aS'dont give people give trust tell going anywhere'
p895
aS'dont worry others think people always negative dont bother'
p896
aS'thank lord wonderful grateful'
p897
aS'mate'
p898
aS'great weekend'
p899
aS'life easier give thank instead complaining dont'
p900
aS'dont trust words trust actions'
p901
aS'capricorns proud people problem stepping admitting wrong'
p902
aS'whats selling point'
p903
aS'capricorn people great life never leave cold'
p904
aS'dont desperate'
p905
aS'never play heart'
p906
aS'thank jesus gift life'
p907
aS'dont judge choices without understanding reasons'
p908
aS'true love melt hardest heart heal wounds broken heart quiet fears anxious heart'
p909
aS'capricorn woman highly individualistic opinions ideas'
p910
aS'thankful'
p911
aS'father bless works hands'
p912
aS'hahahahaha babe'
p913
aS'capricorns dont lose face solid people youll ever meet'
p914
aS'capricorns really prefer peace quite free time'
p915
aS'sometimes good things fall apart better things fall together every story life every beginning'
p916
aS'sometimes sorry isnt enough'
p917
aS'anger still angry give devil foothold'
p918
aS'fact capricorns tendency good everyone possibly biggest downfall'
p919
ag6
ag6
aS'final poor heart continue appreciate thisoluwa truly involv\xe2\x80\xa6'
p920
aS'people know become people knew'
p921
aS'choose love creator loves sets free'
p922
aS'wheres dada'
p923
aS'love matter matter much argue know shell always'
p924
aS'proud heart played stabbed cheated burned broken somehow still works'
p925
aS'forever grateful'
p926
aS'take every chance won\xe2\x80\x99t regret later'
p927
aS'divine mercy favour pray lord'
p928
aS'thank jesus gift life'
p929
aS'wish still honest dude'
p930
aS'give small chance prove best decisions youll ever make'
p931
aS'want honest relationship lies mind games cheating'
p932
aS'dont past gone dont stress future hasnt arrived live present make beautiful'
p933
aS'relationship built soon fucker fuckee fuckin tired fucking themselvesstolen'
p934
aS'running away problems race you\xe2\x80\x99ll never'
p935
aS'forever grateful'
p936
aS'godsbaby church garment celestial harvest teacher sister pupil students 2june\xe2\x80\xa6'
p937
aS'capricorns extremely stubborn point think right something simply compr\xe2\x80\xa6'
p938
aS'realize what\xe2\x80\x99s real what\xe2\x80\x99s who\xe2\x80\x99s worth effort who\xe2\x80\x99s'
p939
aS'refuge strength present help trouble psalms'
p940
aS'dont'
p941
aS'work'
p942
aS'kabi unquestionable'
p943
aS'capricorn ladies deeply romantic sometimes trouble expressing deeper emotions'
p944
aS'capricorns dont care doctors masters degree dont think youre smart wont respect'
p945
aS'can\xe2\x80\x99t change already happened choose look ahead instead behind'
p946
aS'strong things better might stormy cant rain forever'
p947
aS'stepping someones toes disrespectful something capricorn tries extremely hard'
p948
aS'capricorns high morals strong sense right wrong'
p949
aS'capricorns extremely leery people'
p950
aS'bless works hands lord'
p951
aS'thankful'
p952
asS'2013_25'
p953
(lp954
S'calm sweerie kisses'
p955
aS'sabbath'
p956
aS'ocean crest school family'
p957
aS'stop adding problems start counting blessings'
p958
aS'thank blessingsbut frustrations helped become better person'
p959
aS'things strengthens phil'
p960
aS'capricorn never take back burner'
p961
aS'music free medicine make feel okay'
p962
aS'takes capricorn awhile fall love love long hard'
p963
aS'capricorn hard serious inside soft squishy'
p964
aS'ynaija keeping kardashians kendall jenner shares sexy swimsuit photos look'
p965
aS'thanks'
p966
aS'five days summer package dubai 211000 book'
p967
aS'contact vacation package summer affordable rate'
p968
aS'book flight tickets hotel reservation visa assistance travel made easy'
p969
aS'shocked level support brazilian fansdespite huge amount nigerian ladies spent brazilian hairingrates'
p970
aS'work office aviation ticketing friday tgif love'
p971
aS'shit happens make mistakes'
p972
aS'biggest task capricorn finding balance seriousness'
p973
aS'capricorns rooted opinions habits'
p974
aS'putting blame others something capricorns wont take ownership faults'
p975
aS'person smiles time doesnt mean life perfect'
p976
aS'power authority greater'
p977
aS'thank jesus gift life'
p978
aS'nigbati layemi jesuigbati loju forever grateful'
p979
aS'good'
p980
aS'nice wink'
p981
aS'noooo'
p982
ag6
ag6
aS'yesss'
p983
aS'lowkey'
p984
aS'nooo'
p985
aS'false'
p986
aS'msdamkas'
p987
aS'good'
p988
ag6
ag6
ag6
ag6
ag6
ag6
ag6
aS'none'
p989
ag6
ag6
ag6
ag6
aS'hardingwoman'
p990
aS'3yrs'
p991
aS'cuddling'
p992
aS'bitzbody'
p993
aS'sleepy'
p994
aS'hectic'
p995
aS'sleep wear'
p996
ag6
ag6
ag6
ag6
ag6
ag6
aS'fair'
p997
ag6
ag6
aS'trust'
p998
aS'ojuaye\xe2\x84\x93\xcc\x8a time karimi\xe2\x84\x93\xcc\x8a force masef around anybody\xe2\x84\x93\xcc\x8am value raye'
p999
aS'someone smells good theyre automatically attractive'
p1000
aS'stay loyal stay faithful stay true'
p1001
aS'matter painful capricorn allow emotions blind'
p1002
aS'celebs olamide ybnl baddooflife codetunes friday night concert spinlet etisalat lounge\xe2\x80\xa6'
p1003
aS'dont time nothing going work right life'
p1004
aS'sometimes need distance people'
p1005
aS'never youll never know'
p1006
aS'people change things wrong remember life goes'
p1007
ag6
aS'issorai'
p1008
ag6
aS'perfect loyal'
p1009
aS'jesus came said authority heaven earth given matt 2818'
p1010
aS'make effort dont'
p1011
aS'behind smile theres story would never understand'
p1012
aS'really wish'
p1013
aS'everything going alright maybe today eventually'
p1014
aS'dear crush please fall love'
p1015
aS'don\xe2\x80\x99t much loyalty good enough'
p1016
aS'capricorns achilles heel would guilt others'
p1017
aS'jesus came said authority heaven earth given matt 2818'
p1018
aS'dance like ones watching dream like anythings possible dont anyone stop want'
p1019
aS'nobodys perfect screw make mistakes heartbreaks hard times need know life'
p1020
aS'tomorrow smile'
p1021
aS'dont give things hard'
p1022
aS'underestimating capricorn last thing ever'
p1023
aS'finest producers seenu recently came industry whole continent hear\xe2\x80\xa6'
p1024
ag6
aS'thank jesus gift life'
p1025
aS'happy cant wait wink'
p1026
aS'painful goodbyes ones never said never explained'
p1027
aS'everything happens reason figuring reason that\xe2\x80\x99s hard part'
p1028
aS'never late make things right'
p1029
aS'life real face whos real behind back'
p1030
aS'less care happier youll'
p1031
aS'capricorn rarely compromise point losing self respect'
p1032
aS'capricorns practical learners thrive better hands approach'
p1033
aS'capricorn respect speak truth instead hide excuses'
p1034
aS'capricorns forgive easily trust becomes shaky issue youve'
p1035
aS'capricorns goals calmly patience'
p1036
ag6
aS'sometimes silence best someone know something wrong'
p1037
aS'love makes capricorn shine face'
p1038
aS'capricorns hates people waddle self pity'
p1039
aS'dont expect anything anybody'
p1040
aS'capricorns discriminating finicky relationships'
p1041
aS'passionate success trying associate capricorn'
p1042
aS'ojumo'
p1043
aS'thankful'
p1044
asS'2013_26'
p1045
(lp1046
S'wink'
p1047
aS'ermmm baba noni think wink'
p1048
aS'make smile reason'
p1049
aS'next gobe'
p1050
aS'always keep priorities straight mind right head'
p1051
aS'blessed'
p1052
aS'capricorns appear steady quite moody inside'
p1053
aS'next gobe'
p1054
aS'congrats best african awards 2013 grip'
p1055
aS'really matter someone person always make time excuses lies broken promises'
p1056
aS'jesus said mortals impossible things possible 1926'
p1057
aS'content said never leave never forsake hebrews'
p1058
aS'trust life gave'
p1059
aS'given spirit fear power love sound mind 2tim'
p1060
aS'grace saved faithand gift'
p1061
aS'thank lord'
p1062
aS'last first half year 2013 forever grateful gods mercy kept'
p1063
aS'travel season'
p1064
aS'thank lord making last half 2013 thank ahead winning half'
p1065
aS'grateful lord'
p1066
aS'true relationship tell anything everything secrets lies'
p1067
aS'happy birthday babatunde raji fashola ekoonibajeo'
p1068
aS'struggle part story stay strong good morningyn'
p1069
aS'youre welcome'
p1070
aS'youre welcome'
p1071
aS'thank youuuu'
p1072
aS'keep goodies'
p1073
aS'welcome home'
p1074
aS'love everything shes sexy look doll nohomo'
p1075
aS'bless banky'
p1076
aS'thank lord gift life'
p1077
aS'thankful'
p1078
aS'cheated like getting mack truck survive start looking carefully left right'
p1079
aS'things really irks capricorns nerves heres'
p1080
aS'dear wanna take minute anything simply thank'
p1081
aS'dont blame anyone take responsibility mistakes learn'
p1082
aS'happy birthday beautiful lady'
p1083
aS'careful trust devil angel'
p1084
aS'well'
p1085
aS'good'
p1086
aS'ojumo'
p1087
aS'thank jesus gift life'
p1088
aS'miss dont want back'
p1089
aS'people come life blessings others come life lessons'
p1090
aS'capricorn wont fall romantic delusions think show'
p1091
aS'vote musicianoftheyear city people awards text musician year male prince 3312'
p1092
aS'little anything ever ruffle capricorns composure'
p1093
aS'capricorn forgive never forget anything'
p1094
aS'capricorns dislikes waste kind whether material mental'
p1095
aS'dont chase people thing work hard right people belong life come stay'
p1096
aS'seek first kingdom righteousness things given well matt'
p1097
aS'capricorns rarely share secrets anyone difficult understand'
p1098
aS'capricorn never know much soon'
p1099
aS'never know gotten best capricorn'
p1100
aS'miss'
p1101
aS'doesnt define maturity'
p1102
aS'express never afraid show happiness'
p1103
aS'boss catch enjoy'
p1104
aS'dont understand someone tell many lies never feel'
p1105
aS'capricorns hate rude uneducated control'
p1106
aS'abstinence drilled head really know benefits'
p1107
aS'fall rise make mistakes live learn hurt alive human perfect'
p1108
aS'capricorn postpone actions clear consequences good first'
p1109
aS'memories never'
p1110
aS'capricorns usually good thinkers good reasoning skillswith'
p1111
aS'hurts today makes stronger tomorrow'
p1112
aS'summer package dubai five days 215kpackage includehotelvisaflightairport pickupgift carddinnercruisedolphin show'
p1113
aS'travel made easy summer packages flight tickets hotel reservation discounted rates'
p1114
aS'travel made easy summer packages flight tickets hotel reservation visa assistance discounted rates'
p1115
aS'capricorns best environment natural abilities expressed'
p1116
aS'music always need'
p1117
aS'trying attract capricorn always control urself last thing wants embarrassed'
p1118
aS'dont give called result worth pain'
p1119
aS'thank jesus gift life'
p1120
asS'2013_27'
p1121
(lp1122
S'never late make things right'
p1123
aS'boeingpro aviation daily'
p1124
aS'many capricorns give unapproachable appearance people downfalls'
p1125
aS'fact capricorns tendency good everyone possibly biggest downfall'
p1126
aS'nothing ever impossible make possible refuse believe limits limitless trust dont deceived'
p1127
aS'capricorn woman perfect someone likes challenge nothing comes easy'
p1128
aS'relationships like glass sometimes better leave broken hurt putting back together'
p1129
aS'think'
p1130
aS'faith pray given whatever matthew 2122'
p1131
aS'hardest thing life letting thought real'
p1132
aS'lmao height'
p1133
ag6
aS'moon service'
p1134
aS'youre welcome'
p1135
aS'dont give called result worth pain'
p1136
aS'work love aviation office travels'
p1137
ag6
aS'lmao'
p1138
aS'well'
p1139
aS'ever can\xe2\x80\x99t even think'
p1140
aS'expectations disappointments'
p1141
aS'always others shoes feel hurts probably hurts person'
p1142
aS'blessed peacemakers called children'
p1143
aS'whatever prayer believe received mark 1124'
p1144
aS'bullshit made strong'
p1145
aS'thank jesus gift life'
p1146
aS'lifes people true face people remain true behind back'
p1147
aS'dear thank blessings everything given love'
p1148
aS'careful trust'
p1149
aS'give thanks lord good love endures forever psalm 11829'
p1150
aS'capricorns mind strong independent logical'
p1151
aS'hurt truth dont comfort'
p1152
aS'cant promise things perfect swear never leave'
p1153
aS'things really irks capricorns nerves heres'
p1154
aS'thank lord everything'
p1155
aS'dont fear dont dismayedfor strengthen help uill uphold righteous right handisa 4110'
p1156
aS'love doesnt need perfect needs true good morning'
p1157
aS'olorun toda awon igbani mofi'
p1158
aS'emotion aways part life matter'
p1159
aS'capricorns sincere dependable high family values'
p1160
aS'capricorn finds comfort organized precise matters even comes matters heart'
p1161
aS'second half quarter begin bless works hand lord'
p1162
aS'happy month'
p1163
aS'thank jesus gift life'
p1164
asS'2013_20'
p1165
(lp1166
S'strong better stormy cant rain forever'
p1167
aS'theres always light tunnel'
p1168
aS'sometimes things theres room better things come life'
p1169
aS'nothing beautiful smile struggled tears'
p1170
aS'relationships last longer nobody knows business'
p1171
aS'hear song reminds someone start missing'
p1172
aS'never waste opportunities come opportunity come twice'
p1173
aS'motivated desire achieve desire beat others'
p1174
aS'dont feel someone gave feel sorry gave someone would never given'
p1175
aS'late night memories always best memories'
p1176
aS'goes around comes around'
p1177
aS'dear know perfect thank loving anyway'
p1178
aS'things hard find easy lose'
p1179
aS'never know gotten best capricorn'
p1180
aS'flysafe'
p1181
aS'friend someone truth pain even fooling everyone else'
p1182
aS'memories wish could delete wish could happen'
p1183
aS'difficult time dont last forever'
p1184
aS'forgiving easy trusting much'
p1185
aS'capricorn extremely conscious company keep'
p1186
aS'dear lord week need miracle sound like'
p1187
aS'church'
p1188
aS'countdown juvenile harvest chairperson june2'
p1189
aS'forever grateful'
p1190
aS'dont like waiting waiting means wait'
p1191
aS'capricorns tends interesting taste music movies'
p1192
aS'bless'
p1193
aS'sabbath keep holy'
p1194
aS'truly mean something dont take granted'
p1195
aS'thankful'
p1196
aS'find love understand commitment'
p1197
aS'success breeds fake friends true enemies keep circle tight'
p1198
aS'keep people business'
p1199
aS'time tell people soon start show true colors'
p1200
aS'love someone even though hurt break heart still love little pieces'
p1201
aS'capricorn problems alone'
p1202
aS'divine blessing pray lord'
p1203
aS'betray capricorn never look back matter'
p1204
aS'capricorns great picking energy around whether negative positive'
p1205
aS'rule fake friends stop talking start talking'
p1206
aS'capricorns rarely share secrets anyone difficult understand'
p1207
aS'love capricorn find'
p1208
aS'sometimes silence best someone know something wrong'
p1209
aS'breakfast'
p1210
aS'youre welcome havefun'
p1211
aS'happy birthday darling desires shall granted wish success bigger pray doll kisses'
p1212
aS'letting easy necessary'
p1213
aS'dont ever ashamed unless youre slut ashamed proud'
p1214
aS'love something cannot force'
p1215
aS'trust lord mighty power psalm 1054'
p1216
aS'dear words describe much love thank everything done everything love'
p1217
aS'capricorns make hard others attached someone never want'
p1218
aS'dear miss every pictures working pattern miss doll'
p1219
aS'capricorn hates control'
p1220
aS'capricorns quick give advice'
p1221
aS'dear times spent together unforgettable priceless'
p1222
aS'thanks'
p1223
ag6
aS'trying attract capricorn always control urself last thing wants embarrassed'
p1224
aS'happy'
p1225
aS'havent heard songs years grateful lord'
p1226
aS'driver point worship songs inspirit'
p1227
aS'grateful thank'
p1228
aS'isn\xe2\x80\x99t amazing person stranger suddenly meant world'
p1229
aS'dont hate someone else blessing'
p1230
aS'respect whoever respects regardless'
p1231
aS'appreciate real friends'
p1232
aS'must prove capricorn multiple times inner world'
p1233
aS'doubt deny gods plan believes'
p1234
aS'irespectpeoplethat tell truth matter hard'
p1235
aS'capricorns among loyal signs zodiac'
p1236
aS'never person doesnt know value tears'
p1237
aS'awkward moment realize songs playlist person'
p1238
aS'thank jesus gift life'
p1239
aS'forever grateful'
p1240
aS'always easier capricorn everyones problems forget'
p1241
aS'capricorns simply built make promises cant keep'
p1242
aS'dont need anyone doesnt need'
p1243
aS'thanks super girl'
p1244
aS'thanks people walked life made better thanks ones walked'
p1245
aS'thanks people walked life made better thanks ones walked made amazing'
p1246
aS'vulnerable capricorns worst fear'
p1247
aS'sometimes miss memories person'
p1248
aS'dont share'
p1249
aS'capricorn funny outgoing minute switch mean grumpy bitch next'
p1250
aS'lord deserve lifting hands worship today'
p1251
aS'sometimes strong hurt shed tears every things going alright'
p1252
aS'truly respect people stay strong every right break'
p1253
aS'past define prepares'
p1254
aS'thank jesus gift life'
p1255
aS'capricorns independent know capabilities rarely trust others work finish'
p1256
aS'dont take chances dont make advances'
p1257
aS'friends come best friends stick around matter'
p1258
aS'happy deserve'
p1259
aS'capricorns brain doesnt think best pressure'
p1260
aS'happy birthday wish years sound health riches enjoy love'
p1261
aS'happy birthday darling angel wish years sound health riches enjoy'
p1262
aS'divine mercy favour pray lord'
p1263
aS'thankful'
p1264
aS'arsenal'
p1265
aS'million feelings thousand thoughts hundred memories person hmmmn'
p1266
aS'aiit hope theres gonna enough vodka'
p1267
aS'zodiac sign capricorn clash find'
p1268
ag6
aS'honey boos birthday soon love much doll kisses'
p1269
aS'dont need anyone doesnt need'
p1270
aS'times capricorn always punctual'
p1271
aS'switchs momma chilled reggae great song mothers'
p1272
aS'capricorns wise advice give ready hear truth'
p1273
aS'dont stupid things youre young youll nothing smile youre'
p1274
aS'wheres party'
p1275
aS'need strength lord'
p1276
aS'youre welcome seun'
p1277
aS'happy birthday wish years sound health riches enjoy flysafe'
p1278
ag6
aS'prayer morning lock night'
p1279
aS'lord fulfill purpose steadfast love lord endures forever psalm 1388'
p1280
aS'trust always safe provided'
p1281
aS'love patient love kind envy boast proud 1corinthians'
p1282
aS'love lord strength psalm'
p1283
aS'productive week pray'
p1284
aS'thankful'
p1285
aS'working things even dont feel faith thankful'
p1286
aS'capricorns really appreciate moments alone gather thoughts'
p1287
aS'dont judge based heard'
p1288
aS'stay strong even things begin fall apart stay strong'
p1289
aS'sometime wish didnt know love feels like feels heavy'
p1290
aS'capricorns allow anyone determine think'
p1291
asS'2013_21'
p1292
(lp1293
S'forever grateful'
p1294
aS'faithful thats grateful'
p1295
ag6
ag6
aS'keke'
p1296
aS'faithful females bullshit dont even deserve'
p1297
ag6
aS'life short time leave important words unsaid'
p1298
aS'thanks'
p1299
aS'thankful'
p1300
aS'youre welcome'
p1301
aS'commitment equals love capricorn cannot completely give unless'
p1302
aS'capricorn would rather keep insure feel zero heartache long'
p1303
aS'countdown juvenile harvest'
p1304
aS'capricorn push hard control hide weak emotions'
p1305
aS'true friend knows still likes anyway'
p1306
aS'favourite song describe feel'
p1307
aS'rather enemy slaps face friend stabs back'
p1308
aS'jumped track damnnnn king forever fire'
p1309
aS'words truly hurt ones come people care'
p1310
aS'happy birthday pilot wish many years riches safe landing flysafe'
p1311
aS'broken heart changes people'
p1312
aS'dont assume tweets youre affected youre obviously guilty something'
p1313
aS'capricorns allow people ambition'
p1314
aS'sometimes ignoring people makes notice'
p1315
aS'never give things really want'
p1316
aS'like head happened picture moju'
p1317
aS'femo kekere'
p1318
aS'forever grateful'
p1319
aS'crazy traffic 3hrs'
p1320
aS'hahahahaha'
p1321
aS'want honest relationship lies mind games cheating'
p1322
aS'crush someone know would never like'
p1323
aS'place desires pray trust give they\xe2\x80\x99re right'
p1324
aS'capricorns help expect nothing return'
p1325
aS'lekkivi ikoyi crazy traffic'
p1326
aS'worst traffic ever'
p1327
aS'thanks'
p1328
ag6
aS'capricorns best foot forward work appreciated really irritates'
p1329
aS'love'
p1330
aS'vacation summer'
p1331
aS'summer'
p1332
aS'shoutout world baddest boss'
p1333
aS'shoutout world baddest boss'
p1334
aS'hardest decision whether walk away harder'
p1335
aS'capricorns prefer keep dont worry getting hurt'
p1336
aS'nights second thoughts everything nothing feels right'
p1337
aS'earlier disruption heathrow please information'
p1338
aS'experiencing high volume calls please contact flight cancelled youre unable'
p1339
aS'flight cancelled please rebooking'
p1340
aS'call oooo'
p1341
aS'capricorns value loyalty trust utmost ever ruin forgiveness'
p1342
aS'capricorns earth realists'
p1343
aS'capricorn would rather seen cold save heartache people bring table'
p1344
aS'planning ahead crucial capricorn'
p1345
aS'thankful'
p1346
aS'quickly people forget want something'
p1347
aS'friends come best friends stick around matter'
p1348
aS'take moment realize blessed'
p1349
aS'truly great friends hard find difficult leave impossible forget'
p1350
aS'thank jesus gift life'
p1351
aS'call pride call class lion dont mingle dogs igberaga'
p1352
aS'issorai broanytime want jare'
p1353
aS'know available convenience bruv lemmeknow'
p1354
aS'never entertain capricorn every second'
p1355
aS'capricorns great kissers take control know exactly bite'
p1356
aS'thankful people never left'
p1357
ag6
ag6
ag6
ag6
aS'never'
p1358
aS'none'
p1359
aS'promise word deeper meaning don\xe2\x80\x99t depend promises better surprised disappointed'
p1360
aS'give beginning always hardest'
p1361
aS'disappointments gods saying something better patient live life faith'
p1362
aS'dont emotions make decisions'
p1363
aS'communication capricorns like deeeeep'
p1364
aS'divine mercy favour pray lord'
p1365
aS'forever grateful'
p1366
aS'good morning'
p1367
aS'thank jesus gift life'
p1368
aS'learn handle things'
p1369
aS'lion walks alone sheep walks herd'
p1370
aS'stop making promises cant keep'
p1371
aS'accept faith'
p1372
aS'wherever going already paved matt 62730'
p1373
aS'sometimes need alone lonely enjoy free time'
p1374
aS'keep calm makes happy nothing else matters'
p1375
aS'icanadmit without nothing'
p1376
aS'grateful lord'
p1377
aS'faithful make hear gladness week'
p1378
aS'view willeth runneth shows mercy'
p1379
aS'thanks swts'
p1380
aS'countdown'
p1381
aS'thank king kings gift life'
p1382
aS'thankful'
p1383
asS'2013_22'
p1384
(lp1385
S'halleluyah'
p1386
aS'harvest'
p1387
ag6
aS'harvest thank jesus'
p1388
aS'halleluyah'
p1389
aS'happy juvenile harvest proud celestian'
p1390
aS'true friends dont count favors'
p1391
aS'happy juvenile harvest celestian worldwide'
p1392
aS'love patient love kind envy boast proud 1corinthians'
p1393
aS'capricorn sagittarius different views almost everything bring turmoil'
p1394
aS'listen hommie milla grip boiz pose next'
p1395
aS'bond cancer capricorn hard break easy cancer make capricorn sentimental'
p1396
aS'wherever going already paved matt 62730'
p1397
aS'right person always make feel complete'
p1398
aS'dont talk less important become'
p1399
aS'capricorns great ignoring whole existence'
p1400
aS'capricorns high expectations everything'
p1401
aS'capricorns great picking wants needs family friends everyone around'
p1402
aS'anger still angry give devil foothold'
p1403
aS'capricorn reaching goals concrete action'
p1404
aS'capricorn look solutions problems places many never think look'
p1405
aS'divine blessing pray lord'
p1406
aS'happy month'
p1407
aS'thank lord'
p1408
aS'judge others make sure youre perfect'
p1409
ag6
aS'thankful'
p1410
aS'capricorn tough crack'
p1411
ag6
aS'overly egotistical people complete turn capricorn woman'
p1412
aS'stop chasing start noticing'
p1413
aS'happy front people hate kills'
p1414
aS'love beautiful thing'
p1415
aS'stay strong never give sometimes feel like cant anymore want give pray keep head'
p1416
aS'milla grip boiz pose prod chopstix tayotv'
p1417
aS'dont'
p1418
aS'capricorns easy figure tendency turn frequently'
p1419
aS'life isnt perfect grateful'
p1420
aS'relationships times real relationships times'
p1421
aS'dont give things hard'
p1422
aS'capricorn reaching goals concrete action'
p1423
aS'happy either feels like somewhere middle'
p1424
aS'smiling best face every problem crush every fear hide every pain'
p1425
aS'oluwadamilare'
p1426
aS'courage making something happen'
p1427
aS'faith believing something happen'
p1428
aS'hope wishing something would happen'
p1429
aS'dont give things think fight difficult wait difficult regret'
p1430
aS'meant'
p1431
aS'finally'
p1432
aS'best relationships start friendships'
p1433
aS'best friends siblings different parents'
p1434
aS'blessing someone today prov 1125'
p1435
aS'capricorns always never stop winning'
p1436
aS'hear song reminds someone start missing'
p1437
aS'point dont even care going flow whatever happens happens'
p1438
aS'true love loyal friends hardest things find'
p1439
aS'capricorns associate people decent manners disrespectful loudmouths respect'
p1440
aS'happy democracy pray peace harmony unity great nation'
p1441
aS'thank jesus gift life'
p1442
aS'capricorns love seen appreciated'
p1443
aS'make decisions based know rather feel'
p1444
aS'chase dreams people'
p1445
aS'dear never able thank enough always'
p1446
aS'success makes happy happiness makes successful'
p1447
aS'youre welcome'
p1448
aS'youre welcome'
p1449
aS'hands equal jare'
p1450
aS'possible 20yrs bcos know'
p1451
aS'hahaha'
p1452
aS'capricorns turn aggressive challenged otherwise best avoid confrontations'
p1453
aS'truly great friends hard find difficult leave impossible forget'
p1454
aS'still rise thankful'
p1455
aS'nice winkkk'
p1456
aS'pain makes stronger tears make braver heartbreaks make wiser thank past better future'
p1457
aS'take moment realize blessed'
p1458
aS'nice wink'
p1459
aS'heard youngest pilot fast hehehe'
p1460
ag6
aS'hahahahaha wink wink'
p1461
aS'never late make things right'
p1462
aS'capricorns usually eventempered self composed'
p1463
aS'careful lend heart never know give back broken fall love never bring back'
p1464
aS'lifes short wake morning regrets love people treat right forget ones dont'
p1465
aS'capricorns always trying analyze people figure thinking'
p1466
aS'theres always person youve feelings since moment first'
p1467
aS'capricorns rooted opinions habits'
p1468
aS'wedding shoes sexy goodgirl naija'
p1469
aS'wedding ladies doll party friends goodgirl'
p1470
aS'despite bullshit thankful'
p1471
aS'bullshit thankful'
p1472
aS'divine blessing pray lord'
p1473
aS'capricorn likes everything'
p1474
aS'takes special person unleash capricorns inner passions'
p1475
aS'awww thanks doll'
p1476
aS'amen'
p1477
aS'watch james mavrik films plus ready millas track pose'
p1478
aS'appreciate'
p1479
aS'forget everythinggod'
p1480
aS'walk faith sight'
p1481
aS'thankful'
p1482
aS'baba bless'
p1483
aS'hahahahaha olodooo'
p1484
aS'happy childrens'
p1485
aS'productive week pray'
p1486
asS'2013_23'
p1487
(lp1488
g6
aS'good youre welcome'
p1489
aS'pilot deolu hows checking noni flysafe'
p1490
aS'capricorns many many many times misunderstood'
p1491
aS'dear thank blessing wonderful family healthy life thank store future'
p1492
aS'capricorns take responsibilities head doesnt scare excites'
p1493
aS'pastor said sound system loudthe engineer asked seko congregation replied durosokestolen lmao'
p1494
aS'truly respect people stay strong every right break'
p1495
aS'without experiences wont appreciate much life shouldnt taken granted'
p1496
aS'sometimes nice compliment make someones entire'
p1497
aS'capricorns turn aggressive challenged otherwise best avoid confrontations'
p1498
aS'want make parents happy proud'
p1499
aS'love someone doesnt mean right person'
p1500
aS'cant live without music'
p1501
aS'real friends pain behind smile tears fall'
p1502
aS'doesnt define maturity'
p1503
aS'honest thats'
p1504
aS'lost trust dont expect back'
p1505
aS'society going judge anyway whatever want'
p1506
aS'capricorns generous unselfish comes matters heart'
p1507
aS'capricorns great picking wants needs family friends everyone around'
p1508
aS'capricorn reaching goals concrete action'
p1509
aS'capricorns appreciate honesty also creative side'
p1510
aS'things really irks capricorns nerves heres'
p1511
aS'capricorns anti social nature perceived caring thats case'
p1512
aS'capricorn pick users easily'
p1513
aS'capricorns personality kind affectionate often suppressed shyness'
p1514
aS'capricorns appear steady quite moody inside'
p1515
aS'takes special person unleash capricorns inner passions'
p1516
aS'abstinence gets reputation sometimes benefits waiting find'
p1517
aS'capricorns great picking wants needs family friends everyone around'
p1518
aS'capricorn look solutions problems places many never think look'
p1519
aS'capricorns always trying analyze people figure thinking'
p1520
aS'capricorn never youve gotten best'
p1521
aS'capricorns usually eventempered self composed'
p1522
aS'virgo passionate lover'
p1523
aS'realize whats real whats whos worth effort whos'
p1524
aS'thief comes steal kill destroy come life full john 1010'
p1525
aS'better slapped truth kissed'
p1526
aS'capricorns kind giving nature gain self gratification seeing others happy'
p1527
aS'gods mercy kept'
p1528
aS'thankful life'
p1529
aS'iyanyas concert'
p1530
aS'specialfever gonna kill show trust'
p1531
aS'happy birthday bless osheeeeeeeeeeey'
p1532
aS'gobe'
p1533
aS'even people turn back always arms open matter situation'
p1534
aS'want secrets games'
p1535
aS'swear music puts another zone'
p1536
aS'praise even dont understand'
p1537
aS'worry less smile grateful happy'
p1538
aS'incredible deserves incredible praise'
p1539
aS'true love heart minds saying thing'
p1540
aS'jesus replied love lord heart soul mind matt 2237'
p1541
aS'adore lord'
p1542
aS'thank jesus gift life'
p1543
ag6
aS'like smile love reason'
p1544
aS'awkward moment dont understand joke laugh anyway someone asks explain joke'
p1545
aS'worst best'
p1546
aS'hows'
p1547
aS'cokobar'
p1548
aS'lmao father wish well also enjoy good success wish evil\xe2\x80\xa6'
p1549
aS'best avoid disappointment expect anything anyone'
p1550
aS'dont watch'
p1551
aS'capricorns always keep clear head common sense always working full speed'
p1552
aS'capricorns creativeness comes nowhere random times'
p1553
aS'capricorn seeks conquers always ends want'
p1554
aS'capricorns brain doesnt think best pressure'
p1555
aS'thanks'
p1556
ag6
aS'hurt broke always made smile'
p1557
aS'sometimes wish place know feel'
p1558
aS'rather stay quiet explain problems people dont care'
p1559
ag6
aS'capricorns sexual guide zodiac horoscope zodiac'
p1560
aS'people know least always'
p1561
aS'love weekend late wake late'
p1562
aS'incredible ladies love incredilash incredilash tonipayne proud sponsor nigerian television fashion show taki\xe2\x80\xa6'
p1563
aS'friendship isnt youve known longest walked life said proved'
p1564
aS'worrying wasting energy things cant control leave everything gods hand think less pray'
p1565
aS'capricorns kind giving nature gain self gratification seeing others happy'
p1566
aS'things really irks capricorns nerves heres horoscope zodiac'
p1567
aS'thank jesus gift life'
p1568
aS'comes last person think night that\xe2\x80\x99s heart'
p1569
aS'dont rush anything time right itll happen'
p1570
aS'whatever calls equips well'
p1571
aS'capricorns prefer keep dont worry getting hurt'
p1572
aS'dont come life dont plan staying'
p1573
aS'cant find another miss much doll truefriend'
p1574
aS'everyone around friend'
p1575
aS'capricorns terrified failure work hard never come close'
p1576
aS'kinda sucks people dont realize much care'
p1577
aS'thank jesus gift life'
p1578
aS'dana plane crash victims remembrance'
p1579
aS'youre welcome'
p1580
aS'happy birthday wish years sound health riches enjoy'
p1581
aS'thank jesus successful harvest'
p1582
asS'2013_28'
p1583
(lp1584
S'church sunday summer londonsummer family love'
p1585
aS'failure defeats losers inspire winners'
p1586
aS'happy birthday pilot wish years safe landing sound health riches kisses'
p1587
aS'trusted mistake'
p1588
aS'capricorn never take back burner'
p1589
aS'spontaneity kind issue capricorns'
p1590
aS'swear music puts another zone sellingpoint'
p1591
aS'loyal friend worth hundred hoes'
p1592
aS'capricorns take physical closeness serious everything else'
p1593
aS'always find shit might right away know'
p1594
aS'true friend isnt afraid tell need hear'
p1595
aS'next month'
p1596
aS'capricorn help others anyway possible irritated others willing'
p1597
ag6
aS'wish'
p1598
aS'happy'
p1599
aS'thanks mate'
p1600
aS'capricorn hold back love find deserved'
p1601
aS'losdxblhrjfklhrlos'
p1602
aS'miss dear'
p1603
aS'good'
p1604
aS'boss hail hows work'
p1605
aS'boss hail hows work'
p1606
aS'mind conceive heart believe know achieve'
p1607
aS'regardless goes downmy life continue'
p1608
aS'beautiful city'
p1609
aS'true'
p1610
aS'love happens naturally love unpredictable'
p1611
aS'still wish blessing songs years game long life earth happy birthday sark'
p1612
aS'capricorns tough nuts crack hardly anyone know everything feelings'
p1613
aS'money nothing dont money want everything'
p1614
aS'past past made mistakes learned'
p1615
aS'good miss hope good'
p1616
aS'pele relax'
p1617
aS'real friends dont pretend friends'
p1618
aS'youre reason behind smile tears laugh pain'
p1619
aS'capricorn look intimidating outside inside really squishy loving people'
p1620
aS'fiyin foluwa okan mase gbagbe gbogbo'
p1621
aS'meant'
p1622
aS'divine mercy favour pray lord'
p1623
aS'thankful'
p1624
aS'hows'
p1625
aS'thank jesus life'
p1626
aS'don\xe2\x80\x99t rush anything time right it\xe2\x80\x99ll happen'
p1627
aS'part capricorns serious homebodies'
p1628
aS'doesn\xe2\x80\x99t care you\xe2\x80\x99re cares adds extra ordinary nothing impossible'
p1629
aS'even young capricorns understand importance responsibility'
p1630
aS'sometimes dont need advice need somebody listen'
p1631
aS'never late make things right'
p1632
aS'people need remember someone looks happy doesnt mean actually'
p1633
aS'sometimes music need make feel better'
p1634
aS'forget risk take fall meant worth'
p1635
aS'never know much really love someone watch love someone else'
p1636
aS'love real finds'
p1637
aS'capricorn person help without thinking twice'
p1638
aS'dear lord overflow goodnessfavourblessings prosperity today'
p1639
aS'music friend everyone else leaves music always'
p1640
aS'life isnt perfect thankful everything'
p1641
aS'dont always hope people help'
p1642
aS'capricorns personality kind affectionate often suppressed shyness'
p1643
aS'never question capricorns dedication work relationships'
p1644
aS'capricorns proud people problem stepping admitting wrong'
p1645
aS'much want move part dont want'
p1646
aS'worrying wasting energy things cant control leave everything gods hand think less pray'
p1647
aS'baby left since friends'
p1648
aS'trusted mistake'
p1649
aS'dont trust words trust actions'
p1650
aS'done'
p1651
aS'thank lord'
p1652
aS'time'
p1653
aS'family everything'
p1654
aS'admit youre wrong respect much'
p1655
aS'option priority'
p1656
aS'love people make laugh dont even want smile'
p1657
aS'give easily cant date capricorn'
p1658
aS'fuck heard asking first'
p1659
aS'want friends'
p1660
aS'don\xe2\x80\x99t ruin today worrying yesterday\xe2\x80\x99s problem'
p1661
aS'capricorn problem cutting cant come lives positivity'
p1662
aS'remain suspicious capricorn proven trustworthy'
p1663
aS'capricorns really appreciate moments alone gather thoughts'
p1664
aS'capricorns much sensitive compassionate appear'
p1665
aS'capricorns mean downright evil provoked'
p1666
aS'capricorns learned early nothing life comes easy take hard work dedication'
p1667
aS'capricorns expect things happen night wiling hard work want'
p1668
aS'capricorns help expect nothing return'
p1669
aS'capricorns proud people problem stepping admitting wrong'
p1670
aS'capricorns truly born lead inspire home work'
p1671
aS'capricorns thrive good challenge often times gravitates toward signs innately difficult matches'
p1672
aS'capricorns attached people quickly'
p1673
aS'capricorns value loyalty trust utmost ever ruin forgiveness'
p1674
aS'capricorns would rather loyal friend rather many fake flaky unreliable people lives'
p1675
aS'capricorns turn aggressive challenged otherwise best avoid confrontations'
p1676
aS'capricorn hates head games toyed dont even'
p1677
aS'things really irks capricorns nerves heres'
p1678
aS'capricorns hate people dont give proper credit deserve'
p1679
aS'capricorn female believes partner asset liability'
p1680
aS'capricorn people great life never leave cold'
p1681
aS'capricorns romantic extremely sentimental often high standards expectations'
p1682
aS'security power attracts capricorn females'
p1683
aS'capricorns emotions always control'
p1684
aS'abstinence gets reputation sometimes benefits waiting find'
p1685
aS'capricorns build relationships lifetime'
p1686
aS'unlike people capricorns finish start'
p1687
aS'capricorns motivation maintain improve everything'
p1688
aS'capricorns work oriented people cannot stay idle long'
p1689
aS'perfect best'
p1690
ag6
aS'make mind you\xe2\x80\x99re going quit fruit placed within'
p1691
aS'thankful'
p1692
asS'2013_29'
p1693
(lp1694
S'playing toilet lmao green vacation'
p1695
aS'externally capricorn remains unruffled circumstance'
p1696
aS'saying perfect fact know saying worth'
p1697
aS'thank jesus'
p1698
aS'thankful'
p1699
aS'congratulations'
p1700
aS'capricorn look solutions problems places many never think look'
p1701
aS'sometimes people fall apart realize much need fall back together'
p1702
aS'bored forces think things dont wanna think'
p1703
aS'stay strong never know inspiring'
p1704
aS'stop complaining appreciate life'
p1705
aS'understands prayers even cant find words'
p1706
aS'capricorns expect things happen night wiling hard work want'
p1707
aS'comes point life realize really matters never always'
p1708
aS'cant stop thinking matter hard'
p1709
aS'pretend happy someone'
p1710
aS'time start noticing people arent worth anymore'
p1711
aS'bestfriends people make problems problems dont alone'
p1712
aS'capricorns change people instead take completely'
p1713
aS'prayer father year breakthrough'
p1714
aS'didnt choose heart'
p1715
aS'shit happens dont talk'
p1716
aS'capricorn likes everything'
p1717
aS'swear capricorns detectives cant anything past want know information find'
p1718
aS'well soon super girl wish quick recovery kisses'
p1719
aS'strength isnt pretending dont feelings strength letting feelings consume'
p1720
aS'dont like everyone business keep'
p1721
aS'best relationships usually begin unexpectedly'
p1722
aS'dont hold someone think else youve believe youre worth'
p1723
aS'capricorns strong people embedded beliefs'
p1724
aS'stagnated life life capricorn need keep reaching'
p1725
aS'takes special person unleash capricorns inner passions'
p1726
aS'done'
p1727
ag6
aS'patient great understanding quicktempered displays folly proverbs 1425'
p1728
aS'fear love perfect love casteth fear 1john'
p1729
ag6
aS'takes capricorn even consider taking seriously behave line basically'
p1730
aS'distance sometimes lets know whos worth keeping whos worth letting'
p1731
aS'hard capricorn control emotions someone throwing crap'
p1732
aS'forever grateful'
p1733
aS'thing true cloud dark cant shine'
p1734
aS'really cant trust anyone anymore'
p1735
aS'focus gods promises instead problems you\xe2\x80\x99ll notice thoughts healthier filled peace'
p1736
aS'choosing single isnt selfish smarter alone wrong person'
p1737
aS'youve hurt youre scared attached fear everyone like gonna break heart'
p1738
aS'capricorns appreciate honesty also creative side'
p1739
aS'relationship important relationship'
p1740
aS'really dont care things care care much'
p1741
aS'best relationships usually begin unexpectedly'
p1742
aS'capricorn dont settle less strive deserve'
p1743
aS'fake friends always fake'
p1744
aS'know everything happens reason sometimes wish knew reason'
p1745
aS'mean youll ever know'
p1746
aS'capricorns generous unselfish comes matters heart'
p1747
aS'family everything'
p1748
aS'rather single deal sneaky shit'
p1749
aS'dont judge based heard'
p1750
aS'want told truth even shit makes'
p1751
aS'never attached'
p1752
aS'forgive never forget whats said done'
p1753
aS'maturity comes experience'
p1754
aS'true relationship tell anything everything secrets lies'
p1755
aS'wish nights lasted forever'
p1756
aS'thank lord'
p1757
aS'great night'
p1758
aS'capricorns motivation maintain improve everything'
p1759
aS'everyone story theres reason careful judge dont know'
p1760
aS'bestfriends people make problems problems dont alone'
p1761
aS'hahahahaha'
p1762
aS'don\xe2\x80\x99t ruin today worrying yesterday\xe2\x80\x99s problem'
p1763
aS'sometimes remember happy memories life want back'
p1764
aS'live simply love generously speak truthfully pray daily leave everything else'
p1765
aS'youll never accomplish anything dont believe'
p1766
aS'thank lord gift life'
p1767
aS'honestly youre think'
p1768
aS'youre reason behind smile tears laugh pain'
p1769
aS'strong enough patient enough wait deserve'
p1770
aS'dear today retweet love'
p1771
aS'indeed coughs'
p1772
aS'unfortunately generation full liars cheaters pretenders'
p1773
aS'capricorn woman highly individualistic opinions ideas'
p1774
aS'thankful'
p1775
aS'amen thanks sweetie'
p1776
aS'happy birthday jaiye jaiye wizzybaby loke loke days long years studio morecrazybeat'
p1777
aS'happy birthday mothers kasali dare'
p1778
aS'happy birthday wish years sound health live reap fruits labour best love load'
p1779
aS'happy birthday lion jungle studio boss bless'
p1780
aS'happy birthday wish years sound health live reap fruits labour best lt3lt3 love loads'
p1781
aS'capricorns usually loyal believes longlasting relationships'
p1782
aS'sometimes keep feelings hard someone else understand'
p1783
aS'sometimes music friend perfect never'
p1784
aS'capricorns usually good thinkers good reasoning skills'
p1785
asS'2013_37'
p1786
(lp1787
S'capricorn tends cynical never disappointed expect least'
p1788
aS'dont prince doesnt mean princess'
p1789
ag6
aS'capricorns able maintain warmth closeness friends even losing touch long period'
p1790
aS'capricorns usually eventempered self composed'
p1791
aS'think grace think steadfast love mercy compassion'
p1792
aS'ynaija miley cyrus \xe2\x80\x98goes naked everywhere\xe2\x80\x99 singer\xe2\x80\x99s internet meme goes viral photos'
p1793
aS'capricorn people great life never leave cold'
p1794
aS'capricorn woman flighty type seldom goes relationship lasting'
p1795
ag6
aS'help'
p1796
aS'forget reasons wont work believe reason'
p1797
aS'dear lord thank making week thank mercies blessings towards praise\xe2\x80\xa6'
p1798
aS'help'
p1799
aS'friday 13th'
p1800
aS'notice everything sometimes like dont'
p1801
aS'things strengthens philippians'
p1802
aS'capricorns offer longevity friendships relationships'
p1803
aS'capricorns possess timeless charm picture grace elegant well mannered socially appropriate'
p1804
aS'hows hope good'
p1805
aS'capricorn ambitious understatement'
p1806
aS'sometimes back realize blessed great amazing people life shouldnt complain praise'
p1807
aS'voice mofe kole mama mofe baba aiye maimi mofe lowo adenuga'
p1808
aS'love'
p1809
aS'capricorn woman highly individualistic opinions ideas'
p1810
aS'capricorns extremely hard headed especially know know right'
p1811
aS'capricorns dont like wasting others time dont want wasted'
p1812
aS'capricorn woman generally practical woman wise opinions generous heart'
p1813
aS'silence golden would proper motto capricorn'
p1814
aS'capricorn talk back'
p1815
aS'capricorn wants someone self sufficiency relinquish control life'
p1816
aS'capricorn people great life never leave cold'
p1817
aS'every capricorn sides personality going serious type extremely childlike playfulness'
p1818
aS'capricorns loving never cross love window'
p1819
aS'instinctively capricorn always little hesitant start things always glad'
p1820
aS'majority everything comes capricorns mouth bold well thought'
p1821
aS'capricorns high morals strong sense right wrong'
p1822
aS'kind bedtime'
p1823
aS'capricorns fair nature never intentionally sabotage someones progress'
p1824
aS'capricorn never know ruffled feathers trust'
p1825
aS'capricorn seems rock everyone loves lean problem people care'
p1826
aS'capricorn hates head games toyed dont even'
p1827
aS'deal personally'
p1828
aS'baby hows miss'
p1829
aS'skelewu bedtime'
p1830
aS'grateful'
p1831
aS'lord hear requests weak strengthen whole psalm 1017'
p1832
aS'lord'
p1833
aS'christian perfect mess sometimes doesnt mean fake theres thing perfe\xe2\x80\xa6'
p1834
aS'tongue sword watch swing actryt'
p1835
aS'thank jesus'
p1836
aS'capricorns find playing peacemaker time'
p1837
aS'break capricorns trust gaining back'
p1838
aS'capricorn always finish start'
p1839
aS'prayer'
p1840
aS'capricorns seem detached world others awful time'
p1841
aS'mates aint grace mateswhat rocks boat might sink ship fact'
p1842
aS'people think heart 4ever share pains times reminds tasty fruits seasonal'
p1843
aS'good'
p1844
aS'glory story glory come without story'
p1845
aS'dont envy smile took tears 2get'
p1846
aS'capricorns usually eventempered self composed'
p1847
aS'ready games'
p1848
aS'capricorns great ignoring whole existence'
p1849
aS'things strengthens phil'
p1850
aS'capricorns high expectations everything'
p1851
aS'social interactions times really irritates capricorns'
p1852
aS'faith changes everything changes outlook changes life'
p1853
aS'abstinence gets reputation sometimes benefits waiting find'
p1854
aS'capricorns makes friends throughout lifetime'
p1855
aS'always make number priority even else'
p1856
aS'capricorns ends earth ones love'
p1857
aS'amen pray lmao'
p1858
aS'alive blessed grateful'
p1859
aS'divine mercy favour pray lord'
p1860
aS'lord gracious long strength every morning salvation time distress isaiah'
p1861
aS'intelligence strong inner sense self extreme advantage gaining capricorns'
p1862
ag6
aS'nothing ever deter capricorn path view'
p1863
aS'capricorn always busy working'
p1864
aS'something wrong capricorn call'
p1865
aS'lmao'
p1866
aS'capricorns high expectations everything'
p1867
aS'advice capricorns share emotions dont bottle inside'
p1868
aS'surrounded people love find capricorn happy'
p1869
aS'overly egotistical people complete turn capricorn woman'
p1870
aS'dont ever expect capricorn woman live stereotypes sign never'
p1871
aS'capricorn talk back'
p1872
aS'capricorn pretty much along anyone choose'
p1873
aS'capricorns turn aggressive challenged otherwise best avoid confrontations'
p1874
aS'capricorn sure love become warmest affectionate partner anyone could want exceeding expectation\xe2\x80\xa6'
p1875
aS'capricorns love nice things believe flaunting material possessions'
p1876
aS'everyone remains capricorns good side shown otherwise'
p1877
aS'capricorns best foot forward work appreciated really irritates'
p1878
aS'capricorns extremely hard headed especially know know right'
p1879
aS'capricorn wont fall romantic delusions think show'
p1880
aS'capricorns never wants give garbage world'
p1881
ag6
aS'swear crazy beat kudos wink aboki'
p1882
aS'perfect timing never early never late takes litl patience faith'
p1883
aS'thankful'
p1884
aS'happy doesnt mean everything perfect means youve decided look beyond imperfections'
p1885
aS'gobe saturday'
p1886
aS'abstinence gets reputation sometimes benefits waiting find'
p1887
aS'capricorn pissed irritated leave hell alone feelings become extremely hurt extremely'
p1888
aS'thank lord life'
p1889
asS'2013_36'
p1890
(lp1891
S'capricorn extremely conscious company keep'
p1892
aS'capricorns seem detached world others awful time'
p1893
aS'capricorns loyal dedicated friends lovers'
p1894
aS'thank jesus gift life'
p1895
aS'abstinence gets reputation sometimes benefits waiting find'
p1896
aS'capricorns come world strong need make meaningful mark world'
p1897
aS'careful trust'
p1898
aS'capricorns doesnt tuff situations'
p1899
aS'things really irks capricorns nerves heres'
p1900
aS'lord decrease increase glory seen life shine world feel'
p1901
aS'capricorns really soft hearts maybe little soft times'
p1902
aS'capricorns pessimistic outlook rarely allows excited things'
p1903
aS'baba noni safetrip'
p1904
aS'everything happens reason understand matters'
p1905
aS'capricorn sees hears getting'
p1906
aS'capricorns always motivated better yesterday'
p1907
aS'capricorn rarely ever daredevil'
p1908
aS'capricorns take time fully open someone'
p1909
aS'dont stupid'
p1910
aS'never money friendship'
p1911
aS'dont ever expect capricorn woman live stereotypes sign never'
p1912
aS'asun garri'
p1913
aS'london family sister sister niece'
p1914
aS'london family sister little niece'
p1915
aS'london family little niece'
p1916
aS'capricorn pretty much along anyone choose'
p1917
aS'capricorn doesnt like rushed situations'
p1918
aS'forever grateful'
p1919
aS'think grace think steadfast love mercy compassion'
p1920
aS'capricorns hates people waddle self pity'
p1921
aS'live life desire'
p1922
aS'wouldnt trade happiness youve brought life anything'
p1923
aS'capricorns headstrong never allow others tell cant'
p1924
aS'things really irks capricorns nerves heres'
p1925
aS'capricorns personality kind affectionate often suppressed shyness'
p1926
aS'hows'
p1927
aS'thanks'
p1928
ag6
aS'dear everything mewithout nothing'
p1929
aS'think karma bitch wait piss capricorn'
p1930
aS'capricorn trust hard gain easy lose nearly impossible back'
p1931
aS'social interactions times really irritates capricorns'
p1932
aS'capricorn says dont care really dont maybe look waaaayyyyyy deep youll find person'
p1933
aS'need away find best vacation spots capricorns horoscope zodiac'
p1934
aS'capricorns able maintain warmth closeness friends even losing touch long period'
p1935
aS'capricorns hate handouts love feeling giving others'
p1936
aS'every capricorn sides personality going serious type extremely childlike playfulness'
p1937
aS'capricorn rarely ever daredevil'
p1938
aS'capricorns feelings like magma subtle surface explosive released'
p1939
aS'capricorns take time fully open someone'
p1940
aS'capricorn wants need crave love special person show lots return'
p1941
aS'capricorns hates people waddle self pity'
p1942
aS'want something wont stop'
p1943
aS'capricorns iciest people ever'
p1944
aS'times capricorn never pick sides instead make opposing parties others point'
p1945
aS'thank jesus gift life'
p1946
aS'pray yall find special love makes feel brand even lifelong partner friend heartbrea\xe2\x80\xa6'
p1947
aS'capricorns imaginable imaginations'
p1948
aS'partner takes shots ambitions himher never someone elses insecurites kill dreamssupport\xe2\x80\xa6'
p1949
aS'much money shit little still give world money dont\xe2\x80\xa6'
p1950
aS'capricorns emotions deserving opportunity'
p1951
aS'capricorns always motivated better yesterday'
p1952
aS'love capricorn know live schedule keep schedule'
p1953
aS'miss'
p1954
aS'mans woomanimal another mans queen stick love lift stay bring'
p1955
aS'need 500k'
p1956
ag6
aS'believe things possible believeth mark'
p1957
aS'capricorns hard outer shell know motives'
p1958
aS'thinking makes smile'
p1959
aS'thing capricorn really despise lairs ruin everything'
p1960
aS'care someone really care love love heart'
p1961
aS'treat capricorn good treat even better'
p1962
aS'relationship kissing dates showing person makes happy'
p1963
aS'life gift'
p1964
aS'love patient love kind envy boast proud 1corinthians'
p1965
aS'thank lord making realise wrongs ways giving grace back right track unto high\xe2\x80\xa6'
p1966
aS'dont judge situation youve never'
p1967
aS'never assume know someone'
p1968
aS'best things happen unexpectedly'
p1969
aS'give beginning always hardest'
p1970
aS'everything going alright maybe today eventually'
p1971
aS'dont give things make smile'
p1972
aS'lord made rejoice glad psalm 11824'
p1973
aS'virgos conversations thoughts strategies getting ahead'
p1974
aS'thank jesus gift life'
p1975
aS'things really irks capricorns nerves heres horoscope zodiac'
p1976
aS'capricorn reached certain level closeness someone never goes away'
p1977
aS'capricorn wants someone self sufficiency relinquish control life'
p1978
aS'determination capricorn strong topped sensible manner'
p1979
aS'capricorns high morals strong sense right wrong'
p1980
aS'capricorn find true zodiac sign horoscope zodiac'
p1981
aS'capricorns become extremely playful silly random times'
p1982
aS'capricorn hates head games toyed dont even'
p1983
aS'capricorns pessimistic outlook rarely allows excited things'
p1984
aS'capricorns really cherish solitude'
p1985
aS'capricorns really soft hearts maybe little soft times'
p1986
aS'wink'
p1987
aS'everything fine'
p1988
aS'happy birthday wish years good enjoy'
p1989
aS'look coming soon reward give everyone according done revelation'
p1990
aS'amen'
p1991
aS'manifest today ways never experienced'
p1992
aS'capricorns cannot fake smile hide feelings upset'
p1993
aS'capricorn ambitious understatement'
p1994
aS'divine mercy favour pray lord'
p1995
aS'thankful'
p1996
aS'seek heart stray commands psalm 11910'
p1997
aS'bored miss girl adesuwa boring moment shes around'
p1998
aS'capricorn finds hard trust others fall love'
p1999
aS'sometimes smile like nothing wrong thats called putting aside acting strong'
p2000
aS'lord light salvation'
p2001
aS'capricorn mood swings swing control time time'
p2002
aS'strong things better'
p2003
aS'capricorns need left alone sometimes dont feel like bothered time people probl\xe2\x80\xa6'
p2004
aS'knock door opened luke'
p2005
aS'wont capricorn jumping anything headfirst'
p2006
aS'missing someone makes harder fall asleep night'
p2007
aS'capricorns arent mean think'
p2008
aS'phoney people posers really makes capricorns skin crawl'
p2009
aS'social interactions times really irritates capricorns'
p2010
aS'capricorn people great life never leave cold'
p2011
aS'maturity comes experience'
p2012
aS'biggest task capricorn finding balance seriousness'
p2013
aS'jesus christ yesterday today forever hebrews'
p2014
aS'capricorns rooted opinions habits'
p2015
aS'keep busy stay away trouble'
p2016
aS'capricorn always ready sacrifice give others irritated push away kind heart'
p2017
aS'capricorns afraid failure hard enough first time never come close'
p2018
aS'dont everything want appreciate everything'
p2019
aS'capricorn sensitivity compassion others flows freely'
p2020
aS'shit happens love mavin stop hating love'
p2021
aS'bless works hands lord'
p2022
aS'thank jesus gift life'
p2023
aS'capricorns expect things happen night wiling hard work want'
p2024
aS'given spirit fear power love sound mind 2timothy'
p2025
aS'hard capricorn control emotions someone throwing crap'
p2026
ag6
aS'clear stern approach capricorn'
p2027
aS'worries cast anxiety cares 1peter'
p2028
aS'matter much hurts keep going'
p2029
aS'everyone best friend whos stranger'
p2030
aS'intelligence strong inner sense self extreme advantage gaining capricorns'
p2031
aS'capricorns creativeness comes nowhere random times'
p2032
asS'2013_35'
p2033
(lp2034
S'mighty'
p2035
aS'olorun awon igbani eyin tani otun gbega kose baba loke tani wuntun gbogbo'
p2036
aS'mimo mimo dumare adura loruko jesu pele jowo soke baba lojo'
p2037
aS'sometimes greatest strengths found trusting greatest obstacles'
p2038
aS'thankful'
p2039
aS'think grace think steadfast love mercy compassion'
p2040
aS'oluwa elberacadgbo larin wakati'
p2041
aS'happy month beautiful people pray gods blessings guidance amen'
p2042
aS'happy month'
p2043
aS'gods mercy kept'
p2044
aS'grateful lord'
p2045
aS'amen sosad'
p2046
ag6
aS'dont make time people dont make time'
p2047
aS'dear lordpls grant uduighos fortitude bear irrepressible pain demise child rest soul eternal peace'
p2048
aS'capricorns rarely cheat partners virtuous'
p2049
aS'dont ever expect capricorn woman live stereotypes sign never'
p2050
aS'humble soul'
p2051
aS'life short wake regrets love people treat right forget ones dont'
p2052
aS'capricorns like consider situations long deep committing'
p2053
aS'stay true believe'
p2054
aS'starboy tinz'
p2055
aS'capricorn likes keep things'
p2056
aS'wonderful turning negatives positives'
p2057
aS'capricorns experts using whatever resources available make good'
p2058
aS'called \xe2\x80\x9clord\xe2\x80\x99 saved hate psalm'
p2059
aS'capricorns anti social nature perceived caring thats case'
p2060
aS'capricorns compatible zodiac long willing hard work'
p2061
aS'jesu'
p2062
aS'capricorns hate people think'
p2063
aS'clever girl'
p2064
aS'adesuwa made laughing'
p2065
aS'adesuwa clever girl cant stop laughing shes'
p2066
aS'thanks'
p2067
aS'eyah pele'
p2068
aS'tired'
p2069
aS'countdownmiss baby lovemine'
p2070
aS'capricorns really soft hearts maybe little soft times'
p2071
aS'know plans declares lord plans prosper harm plans give hope'
p2072
aS'thankful said meits myselfyn'
p2073
aS'come weary burdened give rest matt 1128'
p2074
aS'countdown babys birthday'
p2075
aS'capricorn pissed irritated leave hell alone feelings become extremely hurt extremely'
p2076
aS'capricorns come wisdom persistence'
p2077
aS'baba noni'
p2078
aS'grateful'
p2079
aS'capricorns closed personality carefully guards inner world'
p2080
aS'smile'
p2081
aS'thank jesus gift life'
p2082
aS'capricorn could stay night letting thoughts take'
p2083
ag6
ag6
aS'voice lagos today london tomorrow shebi oluwa seyi jaiyejaiye'
p2084
aS'think grace think steadfast love mercy compassion'
p2085
aS'need another vacation'
p2086
aS'miss darling'
p2087
aS'dont live regret everything happens reason'
p2088
aS'takes special person unleash capricorns inner passions'
p2089
aS'people never please matter hard \xe2\x80\xa0\xd0\xbd\xce\xb9slife gets easier'
p2090
aS'losing grip control capricorns worse fear'
p2091
aS'youre welcome'
p2092
aS'careful trust devil angel'
p2093
aS'pele wear jacket'
p2094
aS'faith living divine plan faith mark 1122'
p2095
aS'really want something youll find dont youll find excuse'
p2096
aS'love cute beautiful lasts'
p2097
aS'dont people discourage dream'
p2098
aS'accept past manage present work hard towards future'
p2099
aS'capricorns hate inner world thoughts penetrated'
p2100
aS'failure never permanent choice'
p2101
aS'best thing life finding someone knows flaws mistakes weaknesses still thinks youre amazing'
p2102
aS'capricorn hates head games toyed dont even'
p2103
aS'capricorns heart always open thought love takes right person come along show\xe2\x80\xa6'
p2104
aS'ifemi oremi always remember sandaly trueluv'
p2105
aS'capricorns mind always fixed distant goal remain accomplish goal'
p2106
aS'capricorns change people instead take completely'
p2107
aS'remain suspicious capricorn proven trustworthy'
p2108
aS'capricorns proud people problem stepping admitting wrong'
p2109
aS'thankful heart'
p2110
aS'capricorns would rather loyal friend rather many fake flaky unreliable people lives'
p2111
aS'psalm thou lord shield glory lifter mine head'
p2112
aS'capricorn people great life never leave cold'
p2113
aS'capricorns generous unselfish comes matters heart'
p2114
aS'takes years build trust minutes lose'
p2115
aS'sometimes best care justsaying'
p2116
aS'capricorn rarely ever daredevil'
p2117
aS'dear past thanks lessons dear future ready'
p2118
aS'capricorns change people instead take completely'
p2119
aS'always thing'
p2120
aS'thank jesus gift life'
p2121
asS'2013_34'
p2122
(lp2123
S'ignite'
p2124
aS'capricorn pretty much along anyone choose'
p2125
aS'capricorn would rather seen cold save heartache people bring table'
p2126
aS'dont ever expect capricorn woman live stereotypes sign never'
p2127
aS'capricorns best foot forward work appreciated really irritates'
p2128
aS'capricorn find true zodiac sign horoscope zodiac'
p2129
aS'book smarts mean nothing capricorn much common sense'
p2130
aS'capricorn wont fall romantic delusions think show'
p2131
aS'capricorns extremely hard headed especially know know right'
p2132
aS'many capricorns writing sometimes emotions come better paper'
p2133
aS'capricorns determined ahead life achieve even fathom'
p2134
aS'capricorns huge heart sometimes fall victim others taking advantage'
p2135
aS'capricorns dont mind keeping profile'
p2136
aS'capricorns want feel typical sense word'
p2137
aS'capricorns pride honesty trustworthy spirit'
p2138
aS'capricorns high morals strong sense right wrong'
p2139
aS'capricorns lack socialization others make come mean snobbish person'
p2140
aS'capricorns take physical closeness serious everything else'
p2141
aS'capricorns make hard others attached someone never want'
p2142
aS'capricorn help others anyway possible irritated others willing'
p2143
aS'capricorns find playing peacemaker time'
p2144
aS'facts facts capricorns'
p2145
aS'capricorn treat equal amount respect treat'
p2146
aS'capricorns take sober practical realistic slow steady approach life'
p2147
aS'person look essence capricorn inclined think cold feeling\xe2\x80\xa6'
p2148
aS'capricorns many many many times misunderstood'
p2149
aS'capricorns heart always open thought love takes right person come along show\xe2\x80\xa6'
p2150
aS'abstinence gets reputation sometimes benefits waiting find'
p2151
aS'capricorns experts hides feelings emotions people'
p2152
aS'capricorns doesnt tuff situations'
p2153
aS'although capricorns dominant side also considerate peace loving heart'
p2154
aS'capricorn doesnt like rushed situations'
p2155
aS'capricorn becomes intolerant others easily extremely antisocial'
p2156
aS'capricorns friends need tell need hear want hear'
p2157
aS'capricorns always prompt making decisions know mind made going back'
p2158
aS'love requires understanding patience'
p2159
aS'think grace think steadfast love mercy compassion'
p2160
aS'grateful'
p2161
aS'hmmmn'
p2162
aS'shebi abandon'
p2163
aS'capricorns headstrong never allow others tell cant'
p2164
aS'vigil'
p2165
aS'said faith made well peace luke'
p2166
aS'thanks'
p2167
ag6
aS'summer playing princess gloucesterpark london vacation'
p2168
aS'remain suspicious capricorn proven trustworthy'
p2169
aS'jeigold lets hook weekend'
p2170
aS'leaked takenote'
p2171
aS'hard capricorn control emotions someone throwing crap'
p2172
aS'first international flight lands akanu ibiam airport enugu'
p2173
aS'music play music'
p2174
aS'capricorn never share future plans freely'
p2175
aS'even afraid keep trusting psalm'
p2176
aS'thank jesus gift life'
p2177
aS'miss adesuwa cant wait princess'
p2178
aS'capricorns generally among hardest sign understand'
p2179
ag6
aS'lucky blessed'
p2180
aS'send share wink'
p2181
aS'capricorn never afraid little hard work gets want'
p2182
aS'capricorn reached certain level closeness someone never goes away'
p2183
aS'link download babytornado'
p2184
aS'prayer secret weapon everything'
p2185
aS'grateful'
p2186
aS'divine mercy favour pray lord'
p2187
aS'thank jesus gift life'
p2188
aS'thank jesus gift life'
p2189
aS'invisible miracle worker worthy lord'
p2190
aS'businessnews ethiopia airlines begins international flights enugu airport'
p2191
aS'seek first kingdom righteousness things given well matthew'
p2192
aS'capricorns dislikes waste kind whether material mental'
p2193
aS'forever thankful'
p2194
aS'thief comes steal kill destroy come life full john 1010'
p2195
aS'bless works hands lord'
p2196
aS'thank jesus gift life'
p2197
asS'2013_33'
p2198
(lp2199
S'capricorns dont like feeling typical anyway'
p2200
aS'lord always acts'
p2201
aS'capricorns extremes either painfully introvert outgoing extreme extrovert'
p2202
aS'capricorns proud people problem stepping admitting wrong'
p2203
aS'hard capricorn control emotions someone throwing crap'
p2204
aS'remain suspicious capricorn proven trustworthy'
p2205
aS'sabbath'
p2206
aS'lets'
p2207
aS'might england'
p2208
aS'nonsense'
p2209
aS'lmfao'
p2210
aS'capricorns always keep clear head common sense always working full speed'
p2211
aS'capricorns closed personality carefully guards inner world'
p2212
aS'lmao naijahair'
p2213
aS'amen'
p2214
aS'capricorn thoughts wants express certainly deserve heard'
p2215
aS'amen'
p2216
aS'capricorn women easy'
p2217
aS'learn come'
p2218
aS'would terrible mistake snub capricorn forget nothing'
p2219
aS'idja'
p2220
aS'today opportunity better dont waste'
p2221
aS'capricorns annoyed things people quickly'
p2222
aS'wish'
p2223
aS'grateful heart'
p2224
aS'youll never understand happens'
p2225
aS'capricorns hate wasting time dont future someone waste time'
p2226
aS'capricorns enjoy isolation quiet time'
p2227
aS'don\xe2\x80\x99t brag others praise proverbs'
p2228
aS'capricorns hardly ever start arguments likely peacemakers disputes others'
p2229
aS'grateful everything received life good'
p2230
aS'knows silent heart wants'
p2231
aS'thanks'
p2232
ag6
aS'girls smart best self good girls relax wait right come\xe2\x80\xa6'
p2233
aS'capricorns extremely organized individuals'
p2234
aS'wont stop live dream'
p2235
aS'capricorn help people willing help first'
p2236
aS'instinctively capricorn always little hesitant start things always glad'
p2237
aS'majority everything comes capricorns mouth bold well thought'
p2238
aS'capricorns honesty integrity spot'
p2239
aS'capricorns fear time allow many people close'
p2240
aS'capricorn seems rock everyone loves lean problem people care'
p2241
aS'trying force opinions capricorn great ignored'
p2242
aS'divine creation gods masterpieces'
p2243
aS'think sneaky capricorn really mistaken'
p2244
aS'thank lord gift life'
p2245
aS'ignore hope good'
p2246
aS'flight tooterrible airline last time arik'
p2247
aS'neveragain baggage allowance'
p2248
aS'love value gods creation paid dear price alive today'
p2249
aS'capricorns among hardest signs understand'
p2250
aS'prayer almighty bless much become blessing generation'
p2251
aS'capricorns hold grudge forever'
p2252
aS'lolz'
p2253
aS'capricorn talk back'
p2254
aS'dont think everyone around friend'
p2255
aS'dont time'
p2256
aS'wheres still fighting'
p2257
aS'wheres miss'
p2258
aS'wheres'
p2259
aS'capricorn needs figure common sense deal'
p2260
aS'capricorn person help without thinking twice'
p2261
aS'capricorns motivation maintain improve everything'
p2262
aS'capricorns moodiness nothing played'
p2263
aS'capricorns attached people quickly'
p2264
aS'capricorn needs loosen much often'
p2265
aS'capricorns anti social nature perceived caring thats case'
p2266
aS'unnecessary noise loud people really irritates capricorn like'
p2267
aS'everyone remains capricorns good side shown otherwise'
p2268
aS'capricorns stubborn always nice things dont'
p2269
aS'capricorns ideal soulmate game ambitious'
p2270
aS'capricorn puts high standards things people date'
p2271
aS'capricorns take sober practical realistic slow steady approach life'
p2272
aS'capricorn sure love become warmest affectionate partner anyone could want exceeding expectation\xe2\x80\xa6'
p2273
aS'wish could right'
p2274
aS'capricorn carefully mapped life plan feel comfortable'
p2275
aS'capricorns tough nuts crack hardly anyone know everything feelings'
p2276
aS'miss baby'
p2277
aS'thankful'
p2278
aS'darling youre welcome'
p2279
aS'good youre welcome dear'
p2280
ag6
aS'call'
p2281
aS'love'
p2282
aS'jesus said mortals impossible things possible matthew 1926'
p2283
aS'come unto weary overburdened give rest matthew 1128'
p2284
aS'never know gotten best capricorn'
p2285
aS'life isnt perfect thankful everything'
p2286
aS'everyone remains capricorns good side shown otherwise'
p2287
aS'people change memories dont'
p2288
aS'behave carry public extremely important capricorn'
p2289
aS'capricorn often right used'
p2290
aS'abstinence gets reputation sometimes benefits waiting find'
p2291
aS'don\xe2\x80\x99t give people love patient love faithfulness exactly need make complete turnaround'
p2292
aS'takes capricorn awhile fall love love long hard'
p2293
aS'divine mercy favour pray lord'
p2294
aS'thank jesus gift life'
p2295
aS'dear bottom heart thank'
p2296
aS'capricorns wont stand anyone mistreated pushed around'
p2297
aS'capricorns never wants give garbage world'
p2298
aS'capricorns rarely rush things done'
p2299
aS'capricorns great communicators comes completely comfortable around'
p2300
aS'capricorns stumble couple times never stumble long'
p2301
aS'capricorn cannot summed single word'
p2302
aS'capricorns stubborn nature admitting wrong'
p2303
aS'every decision capricorn makes done deep deliberation even seem'
p2304
aS'matter painful capricorn allow emotions blind'
p2305
aS'capricorn wants someone self sufficiency relinquish control life'
p2306
aS'capricorns keep mind business'
p2307
aS'capricorns usually good thinkers good reasoning skills'
p2308
aS'capricorn sensitivity compassion others flows freely'
p2309
aS'capricorns ability accomplish concrete results even initial ideas seems vague even unrealis\xe2\x80\xa6'
p2310
aS'break capricorns trust gaining back'
p2311
aS'mind capricorn always planning thinking things thoroughly'
p2312
aS'capricorns rooted opinions habits'
p2313
aS'biggest task capricorn finding balance seriousness'
p2314
aS'capricorn postpone actions clear consequences good first'
p2315
aS'capricorns terrified failure work hard never come close'
p2316
aS'vote music producer year neaawards clickonvote'
p2317
aS'capricorn forgive never forget anything'
p2318
aS'thats true'
p2319
aS'trust everything'
p2320
aS'capricorns expect things happen night wiling hard work want'
p2321
aS'life short worry others think give something talk'
p2322
aS'capricorn keywords whatever available resources hand make good'
p2323
aS'capricorns arent mean think'
p2324
aS'patient great understanding quicktempered displays folly proverbs 1425'
p2325
aS'mercy peace love abundance jude'
p2326
aS'arik abeg find fuel even black market purchase waiting isnt close funny'
p2327
aS'flight delayed london 12noon till arikair'
p2328
aS'thank jesus gift life'
p2329
aS'love life complete'
p2330
aS'give thanks lord good love endures forever psalm 11829'
p2331
aS'thank lord gift life'
p2332
asS'2013_32'
p2333
(lp2334
S'dami duro'
p2335
aS'sometimes music need make feel better'
p2336
aS'crushed iniquities punishment brought peace upon wounds healed'
p2337
aS'take delight lord give desires heart psalms'
p2338
aS'fear love perfect love casteth fear 1john'
p2339
aS'boeingpro aviation daily'
p2340
aS'capricorns hate drama interested intertwined peoples'
p2341
aS'never leads cannot keep grace always sufficient every circumstance life'
p2342
aS'know alone lord understands you\xe2\x80\x99re going promised every trial life'
p2343
aS'prayer keep lord jesus keep true races must victories give power'
p2344
aS'appreciate folks loyal'
p2345
aS'capricorn needs lots personal space privacy'
p2346
aS'capricorns hate handouts love feeling giving others'
p2347
aS'capricorns strong people embedded beliefs'
p2348
aS'capricorn always open mindful next goals'
p2349
aS'capricorn sensitivity compassion others flows freely'
p2350
aS'lmao bruv available okay soon'
p2351
aS'gonn miss bruv'
p2352
aS'bring london gloucester precise pictures'
p2353
aS'wink'
p2354
aS'capricorn postpone actions clear consequences good first'
p2355
aS'dami duro'
p2356
aS'dear thank today yesterday tomorrow family made stronger'
p2357
aS'feel really happy look smile also makes smile'
p2358
aS'thank lord'
p2359
aS'wish'
p2360
aS'baba noni'
p2361
aS'pretendisff'
p2362
aS'wear tattoo like learners permitpaint lips like metro cabnails like fuel nozzle want fearing mangod\xe2\x80\xa6'
p2363
aS'anyone christ creation passed away behold come 2corinthians'
p2364
aS'miss smile face hugs miss'
p2365
aS'fear love perfect love casteth fear 1john'
p2366
aS'praise lord soul inmost praise holy name psalm 1031'
p2367
aS'miss'
p2368
aS'older realize people fake'
p2369
aS'capricorn doesnt like rushed situations'
p2370
aS'baba noni'
p2371
aS'grateful'
p2372
aS'capricorn reaching goals concrete action'
p2373
aS'people thanx'
p2374
aS'amazing blessed highly favoured'
p2375
aS'capricorn look solutions problems places many never think look'
p2376
aS'aiit'
p2377
aS'capricorn needs figure common sense deal'
p2378
aS'blessed peacemakers shall called sons matthew'
p2379
aS'hope good'
p2380
aS'happy mubarak 1434h muslim world'
p2381
aS'love life gods hands pray perfect send someone incredible time'
p2382
aS'fear fathers good pleasure give kingdom luke 1232'
p2383
aS'capricorns goals calmly patience'
p2384
ag6
aS'single 9ice ikekan music naija nigeria alapomeji available itunes\xe2\x80\xa6'
p2385
aS'happy mubarak muslim friends'
p2386
aS'hiya'
p2387
aS'lord fulfill purpose steadfast love lord endures forever psalm 1388'
p2388
aS'wink'
p2389
aS'name lord strong tower righteous safe proverbs 1810'
p2390
aS'thankful everything'
p2391
ag6
aS'miss cute smile'
p2392
ag6
aS'voice lagos today london tomorrow shebi oluwa seyi'
p2393
aS'ideal partner capricorn ambitions accomplishments least something positive going thems\xe2\x80\xa6'
p2394
aS'capricorn becomes intolerant others easily extremely antisocial'
p2395
aS'capricorn never youve gotten best'
p2396
aS'thanks'
p2397
aS'tweeting kinda busy'
p2398
aS'submit resist devil flee james'
p2399
aS'dear august nice smiles face thru'
p2400
aS'grateful lord'
p2401
aS'grateful'
p2402
aS'thank lord'
p2403
asS'2013_31'
p2404
(lp2405
S'dinnerinlondonbreakfastindubai look dubai mall'
p2406
aS'love matter goes matter much argue know shell always gonna'
p2407
aS'given spirit fear power love sound mind 2timothy'
p2408
aS'peace outside comes knowing inside'
p2409
aS'although capricorns dominant side also considerate peace loving heart'
p2410
aS'capricorns pride honesty trustworthy spirit'
p2411
aS'capricorns make hard others attached someone never want'
p2412
aS'capricorn help others anyway possible irritated others willing'
p2413
aS'many capricorns writing sometimes emotions come better paper'
p2414
aS'capricorn never share future plans freely'
p2415
aS'capricorn ambitious understatement'
p2416
aS'pure dedication drive capricorn made'
p2417
aS'respect capricorn means everything give people deserves'
p2418
aS'capricorns expect things happen night wiling hard work want'
p2419
aS'loud obnoxious capricorn'
p2420
aS'capricorns doesnt tuff situations'
p2421
aS'capricorn always look needs desires partner always understand'
p2422
aS'capricorn satisfied become irritated moody'
p2423
aS'capricorn easily becomes cranky crowd people'
p2424
aS'capricorns quick adapt work challenges usually great things'
p2425
aS'proud capricorn'
p2426
aS'capricorns compatible zodiac long willing hard work'
p2427
aS'capricorns attitude unpredictable honestly biches reason'
p2428
aS'capricorns hate people think'
p2429
aS'capricorns lack socialization others make come mean snobbish person'
p2430
aS'capricorns iciest people ever'
p2431
aS'capricorn extremely conscious company keep'
p2432
aS'capricorns hands people actually needs work fully understanding'
p2433
aS'even capricorn interested keep stone face remain painfully'
p2434
aS'capricorns wont stand anyone mistreated pushed around'
p2435
aS'capricorns really cherish solitude'
p2436
aS'capricorn reached certain level closeness someone never goes away'
p2437
aS'capricorns hearts problems others taking advantage good nature'
p2438
aS'capricorns really soft hearts maybe little soft times'
p2439
aS'capricorns pessimistic outlook rarely allows excited things'
p2440
aS'things really irks capricorns nerves heres horoscope zodiac'
p2441
aS'good morning tweepers'
p2442
aS'never give upgreat things take timeyn'
p2443
aS'pilots safe summertour2013'
p2444
aS'good morning johannesburg good morning dubai\xe2\x80\x9dgood morning warri'
p2445
aS'morning pilot summer'
p2446
aS'grateful lord'
p2447
aS'good morning dubai'
p2448
aS'thankful'
p2449
aS'grateful heart'
p2450
aS'hardly middle ground capricorn either super serious light hearted really playful'
p2451
aS'fake friends believe rumors real friends believe'
p2452
aS'concept failure giving doesnt capricorns vocabulary'
p2453
aS'dont lose hope nothing something'
p2454
aS'capricorns extremely territorial belongs'
p2455
aS'capricorn challenges breakdown wall melt heart intelligent possible'
p2456
ag6
ag6
ag6
ag6
aS'good ikekan'
p2457
ag6
aS'alright dear'
p2458
aS'relationship important relationship'
p2459
aS'good nanite cuddle'
p2460
ag6
aS'jamming dancing eyes'
p2461
aS'oyinbos look dance inside'
p2462
aS'hows dear'
p2463
aS'oyinbos look jamming'
p2464
ag6
aS'lose interest ignored'
p2465
aS'conconssion good need confession ikekan'
p2466
aS'youtube google'
p2467
aS'medication ikekan'
p2468
aS'solution condition ikekan'
p2469
aS'need nobody call baby money want somebody yodi lmao'
p2470
ag6
aS'link'
p2471
aS'repeat madtune'
p2472
aS'louis vuitton determination'
p2473
aS'street slang literally means plastic'
p2474
ag6
aS'gbam'
p2475
aS'9ice prod jazzy download much anticipated single alapomeji'
p2476
aS'great night'
p2477
aS'9ice legend crazy beat idja'
p2478
aS'thankful'
p2479
aS'relationship instantly miss right together'
p2480
aS'grateful'
p2481
aS'happy birthday wish years sound health enjoy'
p2482
aS'happy month'
p2483
aS'capricorns expect things happen night wiling hard work want'
p2484
aS'capricorns headstrong rarely forgive'
p2485
aS'capricorn trust hard gain easy lose nearly impossible back'
p2486
aS'dont always depend friends'
p2487
aS'people come life right ones always stay'
p2488
aS'capricorns usually eventempered self composed'
p2489
aS'success always bring less friends enemies dont care'
p2490
aS'thankful'
p2491
aS'capricorn think things times comfortable even still doubt'
p2492
aS'come weary burdened give rest matt 1128'
p2493
aS'fair'
p2494
aS'miss doll'
p2495
aS'best thing single drama fighting crying feeling confusion worries problem'
p2496
aS'capricorns full empathy everyone'
p2497
aS'people change love hurts friends leave things wrong remember life doesnt stop anybody'
p2498
aS'weaknesses capricorn accurate horoscope zodiac'
p2499
aS'youre welcome seun'
p2500
aS'hehehe'
p2501
aS'summer 2013'
p2502
aS'next stop'
p2503
aS'abule egba canada'
p2504
aS'next stop'
p2505
aS'canada'
p2506
aS'enjoy excess everything'
p2507
aS'capricorns usually keep feelings opinions'
p2508
aS'capricorn always look needs desires partner always understand'
p2509
aS'think grace think steadfast love mercycompassion'
p2510
aS'pastorpilot'
p2511
aS'powered jesussustained grace'
p2512
aS'capricorns imaginable imaginations'
p2513
ag6
aS'looking back want thank taking ibelongtojesus'
p2514
ag6
aS'congrats pilot'
p2515
aS'lmao'
p2516
aS'capricorns overly headstrong hard task getting bend'
p2517
aS'shit happens trust wrong people'
p2518
aS'happy birthday wish years sound health safe landing flysafe'
p2519
aS'memories hurts'
p2520
aS'ojumo'
p2521
aS'thank lord gift life'
p2522
aS'xoxoxo'
p2523
aS'thank jesus'
p2524
aS'thumbsup smile'
p2525
aS'thou shalt love lord thine heart soul might deut'
p2526
aS'nollywood year lady play role secondary school girl'
p2527
aS'sorry perfect good luck finding someone'
p2528
aS'funny video naija politicians'
p2529
aS'youre welcome'
p2530
aS'turned liking originally planned'
p2531
aS'capricorn woman highly individualistic opinions ideas'
p2532
aS'amen'
p2533
aS'never waste opportunity tell someone love never know\xe2\x80\xa6 tomorrow could late'
p2534
aS'things really irks capricorns nerves heres'
p2535
aS'real friends treated like family'
p2536
aS'capricorns kind giving nature gain self gratification seeing others happy'
p2537
aS'safe'
p2538
aS'losing grip control capricorns worse fear'
p2539
aS'happy birthday'
p2540
aS'prince come ride white horse live castle love'
p2541
aS'happy birthday wish years sound health riches enjoy'
p2542
aS'vacation summertour2013'
p2543
aS'seeing jumping country countrybring dirty mind skype'
p2544
aS'happy birthday wish years sound health riches enjoy'
p2545
asS'2013_30'
p2546
(lp2547
S'capricorns good combination strong good sense humor'
p2548
aS'cokobar'
p2549
aS'things really irks capricorns nerves heres'
p2550
aS'capricorn help others anyway possible irritated others willing'
p2551
aS'hurts today makes stronger tomorrow'
p2552
aS'true relationship tell anything everything secrets lies'
p2553
aS'capricorns overly headstrong hard task getting bend'
p2554
aS'everyone remains capricorns good side shown otherwise'
p2555
aS'keep heart jesus christ'
p2556
aS'capricorns turn aggressive challenged otherwise best avoid confrontations'
p2557
aS'hehehe'
p2558
aS'capricorns learned early nothing life comes easy take hard work dedication'
p2559
aS'times capricorn serious looking person room'
p2560
aS'biggest turn capricorn horoscope zodiac'
p2561
aS'church mood omoesu'
p2562
aS'moju shebi facebook bedroom'
p2563
ag6
aS'prayer important conversation'
p2564
aS'grateful'
p2565
aS'believing someone good believing great believing everything'
p2566
aS'never perfect accept fact'
p2567
aS'reading messages realizing much miss person'
p2568
aS'hehehe'
p2569
aS'pastor indeed'
p2570
aS'remember cant reach whats front whats behind'
p2571
aS'strong isnt lifestyle strong standing everyone else trying'
p2572
aS'love life good know always thats enough'
p2573
aS'thats true pastor lmao'
p2574
aS'sure know'
p2575
aS'cheaters lmao'
p2576
ag6
aS'single time start going dates'
p2577
aS'thats great doll supergirl'
p2578
aS'arrivals loads ladies dresses shoes watches perfume kids clothes mens clothes adelabu'
p2579
aS'sometimes need alone lonely enjoy free time'
p2580
aS'sometimes music speaks feel inside'
p2581
aS'hurting someone truth better making happy'
p2582
aS'capricorn find lucky charm gives good vibes horoscope zodiac'
p2583
aS'always find shit might right away know'
p2584
aS'dear thank never ending love care support never thank enough'
p2585
aS'meant'
p2586
aS'worst best'
p2587
aS'stay loyal always'
p2588
aS'love proud'
p2589
aS'love matter goes matter much argue know shell always gonna'
p2590
aS'dear want take minute anything simply thank'
p2591
ag6
aS'thanks'
p2592
aS'tweets always passionate often cerebral baby'
p2593
aS'daddy sorry call today currently'
p2594
aS'smile'
p2595
aS'pilot pilot cabin crew'
p2596
aS'glad'
p2597
aS'dont expect things happen better feel surprised disappointed'
p2598
aS'people learn appreciate losing'
p2599
aS'pain makes people change also makes stronger'
p2600
aS'lemme come help smile'
p2601
aS'biggest challenge everyones life world trying make like everyone else'
p2602
aS'thank jesus gift life'
p2603
aS'capricorn strengths tireless diligence steady thorough everything'
p2604
aS'capricorns usually enthusiastic making friends stick ones already'
p2605
aS'perfect person make mistakes still love people stay knowing really'
p2606
aS'overly egotistical people complete turn capricorn woman'
p2607
aS'reading messages realizing much miss person'
p2608
aS'thanks'
p2609
ag6
aS'wizzy baby loke loke'
p2610
aS'singing love baby'
p2611
aS'unlike people capricorns finish start'
p2612
aS'hurts today makes stronger tomorrow'
p2613
aS'capricorns build relationships lifetime'
p2614
aS'capricorns emotions always control'
p2615
aS'takes capricorn even consider taking seriously behave line basically'
p2616
aS'fact capricorns tendency good everyone possibly biggest downfall'
p2617
aS'externally capricorn remains unruffled circumstance'
p2618
aS'dear know sometimes wont everything want please help thankful everything'
p2619
aS'dear help understand difficult times make stronger even though always easy'
p2620
ag6
aS'capricorn reached certain level closeness someone never goes away'
p2621
aS'welcome club theyre fucked'
p2622
aS'thankful'
p2623
aS'capricorn forgive never forget anything'
p2624
aS'everything need destiny within reach pray open eyes opportunities people resources'
p2625
aS'relationship important relationship'
p2626
aS'tough times dont last tough people'
p2627
aS'capricorns scared challenge'
p2628
aS'capricorns biggest fear failure'
p2629
aS'trust'
p2630
aS'give thanks lord good love endures forever psalm 11829'
p2631
aS'capricorns self gratification seeing people around well succeeding'
p2632
aS'endurance capricorns greatest strengths'
p2633
aS'leave past belongs'
p2634
aS'thank jesus gift life'
p2635
aS'capricorn drop dime questions asked truly care'
p2636
aS'capricorns extremely hard headed especially know know right'
p2637
aS'baby king england princewilliamsbaby kate mother father family congratulations'
p2638
aS'capricorns intelligent individuals spot shadiness mile away'
p2639
aS'sometimes best things life happen accident'
p2640
asS'2013_19'
p2641
(lp2642
S'sometimes want'
p2643
aS'fact'
p2644
aS'sometimes music need make feel better'
p2645
aS'proposes disposes'
p2646
aS'greater things come'
p2647
aS'shit happens trust wrong people'
p2648
aS'best thing single drama fighting crying feeling confusion worries problem'
p2649
aS'capricorn always seem keep cool head matter whats going around'
p2650
aS'capricorn never tell truthfully feel'
p2651
ag6
aS'things better left unsaid'
p2652
aS'capricorns heart always open thought love takes right person come along show\xe2\x80\xa6'
p2653
aS'music cultural heritage opening ceremony tourism indaba 2013 durban south africa thulani'
p2654
aS'capricorns positions'
p2655
aS'best capricorn zodiac love matches'
p2656
aS'wish'
p2657
aS'light darkness john scripturesunday'
p2658
aS'sponsor'
p2659
aS'telling someone feel honestly hardest shit ever'
p2660
aS'wish pilot'
p2661
aS'love aviation pilot'
p2662
aS'love'
p2663
ag6
aS'whoops'
p2664
aS'love guyz noni flysafe'
p2665
aS'pilot pilot baby'
p2666
aS'know cant'
p2667
aS'many capricorns remarkable endurance'
p2668
aS'pilot love aviation'
p2669
aS'brutally honest capricorn psychic readings'
p2670
ag6
ag6
aS'blessing'
p2671
aS'wont capricorn jumping anything headfirst'
p2672
aS'make decisions based know rather feel'
p2673
aS'capricorns headstrong never allow others tell cant'
p2674
aS'fuck second chances people never change'
p2675
aS'next weekend deal'
p2676
aS'never late make things right'
p2677
aS'different countries different date'
p2678
ag6
aS'past past made regrets wouldnt change thing dont live anymore'
p2679
aS'loves cheerful giver'
p2680
aS'intelligent also faithful'
p2681
aS'amen'
p2682
aS'bless mothers'
p2683
ag6
aS'mothers best'
p2684
aS'love capricorn find'
p2685
aS'takeoff landing dangerous aspects flight'
p2686
aS'maybe expect much'
p2687
aS'good heart help much trust much give much love much always seems hurt'
p2688
aS'ilovemymombecause matter matter much argue shell always'
p2689
aS'broda'
p2690
aS'stop chasing wrong things right ones catch'
p2691
aS'seem like capricorns sensitive heart'
p2692
aS'tired word love dont mean anything'
p2693
aS'capricorns always motivated better yesterday'
p2694
aS'wish'
p2695
aS'single doesnt always mean lonely relationship doesnt always mean happy'
p2696
aS'thankful'
p2697
aS'meant'
p2698
aS'shopping'
p2699
aS'amen flysafe'
p2700
aS'people quick judge slow correct shit'
p2701
aS'capricorns small intimate circles friends large groups friends bring drama capricorn'
p2702
aS'school'
p2703
aS'port'
p2704
aS'jealous something mine mine'
p2705
aS'wink'
p2706
aS'thankful heart'
p2707
aS'thanks'
p2708
aS'weekend shout'
p2709
aS'faith sure hope certain'
p2710
aS'hard words hurt feelings silence breaks heart'
p2711
aS'sometime cant save everybody'
p2712
aS'capricorn wear well without wearing anything'
p2713
aS'stay ahead game learn tricks'
p2714
aS'thanks'
p2715
ag6
aS'stagnated life life capricorn need keep reaching'
p2716
aS'capricorns generous unselfish comes matters heart'
p2717
aS'capricorns attached people quickly'
p2718
aS'capricorn willing hold quality quantity'
p2719
aS'friday stay away negative people enjoy'
p2720
aS'whoopsfriday'
p2721
aS'someone loves dont tell treat'
p2722
aS'thankful'
p2723
aS'dont negative pictures play movie screen mind remote control change channel'
p2724
ag6
aS'love neighbor 2237'
p2725
aS'winners people never fail people never quityn'
p2726
aS'grateful lord'
p2727
aS'psalm'
p2728
aS'worship'
p2729
aS'capricorn wants create family legacy pass wisdom next generation'
p2730
aS'beyond understanding'
p2731
aS'slowly surely'
p2732
aS'mind'
p2733
aS'worth anymore'
p2734
aS'onise loluwa'
p2735
aS'eccl'
p2736
aS'capricorn gives great advice like analyze situations view points'
p2737
aS'chance capricorn screw might well show'
p2738
aS'matter well think still need side'
p2739
aS'release burden worry faith guide right outcome'
p2740
aS'even though doesnt shock capricorns extremely sensitive others loyal'
p2741
aS'crushed iniquities punishment brought peace upon wounds healed'
p2742
aS'capricorn wise well beyond years'
p2743
aS'concept failure giving doesnt capricorns vocabulary'
p2744
aS'everyone gonna opinions best thing really care'
p2745
aS'love capricorn must ready handle bossy sometimes cold attitude'
p2746
aS'capricorn willing hold quality quantity'
p2747
aS'positive qualities capricorn caring nature common sense humor unshakeable faith'
p2748
aS'things really irks capricorns nerves heres'
p2749
aS'friends come best friends stick around matter'
p2750
aS'capricorns mind strong independent logical'
p2751
aS'capricorn reaching goals concrete action'
p2752
aS'whenever find song relates current situation listen'
p2753
aS'always seem start caring leave'
p2754
aS'capricorn pick users easily'
p2755
aS'idea much care'
p2756
aS'guide footsteps choices lord'
p2757
aS'give glory everything happened life build something great awesom\xe2\x80\xa6'
p2758
ag6
aS'omuti'
p2759
asS'2013_39'
p2760
(lp2761
S'sometimes crynot weakbut strong long'
p2762
aS'boss'
p2763
aS'forgiving easy trusting much'
p2764
aS'capricorn motto said songs money'
p2765
aS'capricorns moody extremely sensitive'
p2766
aS'arik passengers abuja airport'
p2767
aS'takes special person unleash capricorns inner passions'
p2768
aS'dare believe turn situation around better'
p2769
aS'jesus gives hope'
p2770
aS'capricorns best foot forward work appreciated really irritates'
p2771
aS'ever gets tired loving everyone gets tired waiting assuming hearing lies saying sorry hurting'
p2772
aS'waiting'
p2773
aS'capricorns allow anyone determine think'
p2774
aS'capricorns always trying analyze people figure thinking'
p2775
aS'morning come'
p2776
aS'happy 66th anniversary celestians'
p2777
aS'thankful'
p2778
aS'never stop theres understand accept'
p2779
aS'almost every capricorn come across life determined succeed'
p2780
ag6
aS'sometimes something youve never done order something youve never'
p2781
aS'capricorn afraid speak mind stick little people'
p2782
aS'capricorns always ready fulfill roles relationships'
p2783
aS'regrets lessons learned'
p2784
aS'finish'
p2785
aS'great performance mary blige last night \xe2\x80\x9dsisters soul concert'
p2786
aS'fact'
p2787
aS'always true never give'
p2788
aS'thanks'
p2789
ag6
aS'capricorns good listeners always willing lend need'
p2790
aS'love serious stuff capricorn chance'
p2791
aS'faaji repete lale wink'
p2792
ag6
aS'capricorns heart always open thought love takes right person come along show\xe2\x80\xa6'
p2793
aS'capricorns great picking energy around whether negative positive'
p2794
aS'never forget first time'
p2795
aS'hope good'
p2796
aS'good ones dont treated deserve'
p2797
aS'miss cared'
p2798
aS'glory'
p2799
aS'capricorn woman highly individualistic opinions ideas'
p2800
aS'capricorns really prefer peace quite free time'
p2801
aS'capricorns build relationships lifetime'
p2802
aS'capricorns work oriented people cannot stay idle long'
p2803
aS'capricorn women attracted cleanliness confidence stability'
p2804
aS'capricorn strengths tireless diligence steady thorough everything'
p2805
aS'capricorns hate inner world thoughts penetrated'
p2806
aS'almost every capricorn come across either game steadily moving towards'
p2807
aS'capricorn women easy'
p2808
aS'capricorn thoughts wants express certainly deserve heard'
p2809
aS'capricorns amazing ability figure people spot'
p2810
aS'think sneaky capricorn really mistaken'
p2811
aS'never pull shadiness capricorns eyes know everything'
p2812
aS'capricorn puts high standards things people date'
p2813
aS'capricorns goals calmly patience'
p2814
aS'capricorns always trying analyze people figure thinking'
p2815
aS'capricorns honest fair personality makes great leaders'
p2816
aS'capricorns stale think know worthy enthusiasm simply'
p2817
aS'capricorns learned early nothing life comes easy take hard work dedication'
p2818
aS'capricorns extremely sensitive protect getting hurt make sometimes difficult'
p2819
aS'security power attracts capricorn females'
p2820
aS'dont corny flirtations thick comes capricorn point'
p2821
aS'capricorns type needs face'
p2822
aS'capricorns motivation maintain improve everything'
p2823
aS'capricorns best foot forward work appreciated really irritates'
p2824
aS'thank jesus gift life'
p2825
aS'dont care happy'
p2826
aS'stolen heard youre player nice meet coach'
p2827
aS'nicest people always treated like shit'
p2828
aS'capricorns ideal soulmate game ambitious'
p2829
aS'feeling appreciated best feeling'
p2830
aS'thank lord'
p2831
asS'2013_38'
p2832
(lp2833
S'music stress killer heals pain takes away boredom keeps happy'
p2834
aS'capricorns build relationships lifetime'
p2835
aS'morning'
p2836
aS'morning'
p2837
aS'good morning'
p2838
aS'unleash dream'
p2839
aS'present house'
p2840
aS'typhoon usagi tonights 21sep vs200 lhrhkgsyd tomorrows 22sep vs201 sydhkglhr cancelled'
p2841
aS'please call rebook check options sorry inconvenience caused usagi'
p2842
aS'sorry'
p2843
aS'capricorns would rather loyal friend rather many fake flaky unreliable people lives'
p2844
aS'capricorn woman perfect someone likes challenge nothing comes easy'
p2845
aS'push capricorn edge goes'
p2846
aS'travel alert customers holding tickets tofrom hongkong guangzhou issued rebook without penalty'
p2847
aS'capricorn doesnt like rushed situations'
p2848
aS'quit'
p2849
aS'monday office travels'
p2850
aS'cant imagine life without sister loveu'
p2851
aS'count miss crying'
p2852
aS'sister best world'
p2853
aS'breakfast'
p2854
aS'capricorns many many many times misunderstood'
p2855
aS'side fear created help'
p2856
aS'thanks'
p2857
aS'cool breeze'
p2858
aS'work play'
p2859
aS'friday evening'
p2860
aS'nice dear hope soon'
p2861
aS'capricorn motto hate thats problem capricorn stay cool'
p2862
aS'dear help aside things breaking heart pray things break'
p2863
aS'hows everyone home'
p2864
aS'thank lord gift life'
p2865
aS'capricorns generally among hardest sign understand'
p2866
aS'people pick'
p2867
aS'capricorn master silence'
p2868
aS'capricorns find playing peacemaker time'
p2869
aS'days weak okay know strong'
p2870
aS'flysafe'
p2871
aS'capricorns known antisocial person apply personality'
p2872
aS'capricorn never become involved someone elses business many mistake caring true'
p2873
aS'everyone makes mistakes admit point someone else\xe2\x80\x99s'
p2874
aS'majority everything comes capricorns mouth bold well thought'
p2875
aS'life isnt perfect thankful everything'
p2876
aS'baby miss'
p2877
aS'thankful'
p2878
aS'people meant together someday find'
p2879
aS'never change somebody else problem'
p2880
aS'true friends like diamonds precious rare fake friends like leaves find everywhere'
p2881
aS'smiling necessarily mean youre happy sometimes means youre strong'
p2882
aS'patience ability wait youre waiting'
p2883
aS'dear thanks another life'
p2884
aS'dude wanna hehehe'
p2885
aS'pure dedication drive capricorn made'
p2886
aS'think know people surprise'
p2887
aS'capricorns dont take shit'
p2888
aS'busy'
p2889
aS'wonderful lord deserve praise much greater anyone understand psalm 1453'
p2890
aS'loud obnoxious capricorn'
p2891
aS'capricorns generous unselfish comes matters heart'
p2892
aS'capricorns change people instead take completely'
p2893
aS'capricorn thoughts wants express certainly deserve heard'
p2894
aS'capricorn likes everything'
p2895
aS'capricorn help others anyway possible irritated others willing'
p2896
aS'capricorn find lucky charm gives good vibes horoscope zodiac'
p2897
aS'capricorns heart something good'
p2898
aS'remember capricorn hang onto every word match actions'
p2899
aS'capricorn satisfied become irritated moody'
p2900
aS'capricorn always look needs desires partner always understand'
p2901
aS'capricorns come world strong need make meaningful mark world'
p2902
aS'simple ways seduce capricorns heart'
p2903
aS'fake boyfriend lock phone real boyfriend baby read text'
p2904
aS'dont give things hard'
p2905
aS'baba need'
p2906
aS'baba need'
p2907
aS'true strength keeping everything together everyone expects fall apart'
p2908
aS'capricorns doesnt tuff situations'
p2909
aS'good'
p2910
aS'best friend nothing importantly feel like nothing'
p2911
aS'oluwadamilare'
p2912
aS'dreams come true shall blessed happiness success unlimited happy birthday enjoy'
p2913
aS'person understands'
p2914
aS'divine mercy favour pray lord'
p2915
aS'faithful'
p2916
aS'capricorns dont depressed'
p2917
ag6
aS'thank jesus gift life'
p2918
aS'truth doesnt cost anything lies cost everything'
p2919
aS'posted photo'
p2920
ag6
ag6
aS'capricorn would rather seen cold save heartache people bring table'
p2921
aS'happens respond happens'
p2922
aS'rocksolid determination capricorns stretch patience around'
p2923
aS'distance means little someone means much'
p2924
aS'friends problem less friends less problem'
p2925
aS'lord called help healed psalm'
p2926
aS'capricorns unyielding faith gets life'
p2927
aS'true'
p2928
aS'capricorn funny outgoing minute switch mean grumpy bitch next'
p2929
aS'capricorns determined ahead life achieve even fathom'
p2930
aS'loyalty quality capricorn must relationship'
p2931
aS'give thanks lord good love endures forever psalm 11829'
p2932
aS'thank jesus gift life'
p2933
as.