(dp0
S'2013_42'
p1
(lp2
S'tanja kylliainen learn name 15499 pool record jasmin tosky held mark 1551\xe2\x80\xa6'
p3
aS'caaalifoornuia'
p4
aS'lived lilly done call exorcist'
p5
aS'good know'
p6
asS'2013_43'
p7
(lp8
S'well crying cant theres overwhelming sadness room'
p9
aS'think coach drunk putting help'
p10
aS'gratuity thank'
p11
aS'selena gomez campus today working marshall center cardnation'
p12
aS'crack please'
p13
asS'2013_40'
p14
(lp15
S'never made shoutout honerable judge flat awesome love miss'
p16
aS''
p17
aS'haha trying recover'
p18
aS'good health think haha'
p19
aS'donut protein shake still count'
p20
aS'poor huell goodbyebreakingbad'
p21
aS'woman many words incredible'
p22
asS'2013_41'
p23
(lp24
S'order order courtroom life'
p25
aS'lets sctop10 athletessupportingathletes gocards'
p26
aS'gatorade shake face'
p27
aS'hail queen majestic sexy'
p28
asS'2013_46'
p29
(lp30
S'show fight'
p31
aS'forgot maam'
p32
aS'next thing know tonsils bleeding'
p33
aS'know thing good talking though miss'
p34
ag17
aS'loves discover beauty loving loved'
p35
asS'2013_47'
p36
(lp37
S'nolan checking count homework'
p38
asS'2013_44'
p39
(lp40
S'realtalk clubswimming dininghalltalks'
p41
aS'indeed happening'
p42
aS'looks like'
p43
asS'2013_45'
p44
(lp45
S'girl nipples sounds funny dozen'
p46
aS'watching grinch second time november 10th'
p47
aS'chef chef chef chef'
p48
aS'bleeding hearts world unite'
p49
aS'first read cocaine doesnt sound'
p50
aS'hate people tell raining reality theyre peeing'
p51
aS'broke tried read stop sign driving street'
p52
aS'happening happening'
p53
asS'2012_45'
p54
(lp55
S'seats churchill downs first horse race'
p56
aS'would love'
p57
aS'indiana buttcrack america south bend butt hole gocards beatnd'
p58
aS'take long follow swimlax'
p59
aS'days'
p60
aS'youre best'
p61
aS'wait fall asleep class taper'
p62
aS'still'
p63
aS'damn cant believe actually'
p64
aS'hard breakfast pain nutella croissants'
p65
aS'wish could block retweets people thatd cool'
p66
aS'taking borat virginity'
p67
asS'2012_44'
p68
(lp69
S'betsy ross'
p70
aS'cheesecake doritos'
p71
aS'wafflemaker'
p72
asS'2012_47'
p73
(lp74
S'justmessing isnt fight game flip shit also uofl plays duke tonight bball getwithit'
p75
aS'wait football game today something'
p76
aS'hahaha playing better'
p77
aS'like good days'
p78
aS'reunited'
p79
aS'stuck help'
p80
asS'2012_46'
p81
(lp82
S'happening bathroomtweet'
p83
aS'woah joao lucca swam 4252 prelims free purdue invite broke grevers pool record 2004'
p84
aS'joao lucca dropping hammer 4252 gocards'
p85
aS'sandies shop'
p86
aS'scratches later relay ouch gocards'
p87
aS'always avoid parent area meet okay mine three days'
p88
aS'first time shaving without make tourniquet njst'
p89
aS'going'
p90
aS'taperfunk gocards'
p91
aS'jeez'
p92
aS'uofl students look googles home page'
p93
asS'2012_41'
p94
(lp95
S'races'
p96
aS'feel like walked miles last nightoh wait thats right'
p97
aS'continuing good luck also goutes gocards kick seasons well ncaaswim'
p98
aS'cards open season xavier'
p99
aS'gocards louisville xavier'
p100
aS'doesnt care food comes foodinc'
p101
aS'think creepywhisper'
p102
asS'2012_40'
p103
(lp104
S'meet last'
p105
aS'colorado first snow season'
p106
aS'going bold saying season backstroke start going suck newbeginnings'
p107
aS'think weather unpredictable colorado sadly mistaken seasonconfusion'
p108
aS'damn poopy weights clothes wishing looking like narp jealous'
p109
aS'thursday jerzday'
p110
aS'sleepy twitchy atleasthismuscleslookgood'
p111
aS'saturn'
p112
asS'2012_43'
p113
(lp114
S'youre dick'
p115
asS'2012_42'
p116
(lp117
S'haunted house round'
p118
aS'inspiring'
p119
aS'legit'
p120
aS'double infection'
p121
aS'cant write essay think sunday boulder'
p122
aS'think best class year'
p123
aS'town'
p124
aS'love beads gocards'
p125
aS'comm test'
p126
asS'2013_24'
p127
(lp128
S'morality neil maybe movie'
p129
aS'swim smells like chlorine pain'
p130
aS'idea changed'
p131
aS'starting hyped'
p132
aS'shout hell today wctrials13 youwontcome'
p133
aS'awkward moment sneeze peeing messy'
p134
aS'never watch'
p135
asS'2013_25'
p136
(lp137
S'gotta love taper'
p138
aS'havent woke text good awhile tapersmart'
p139
ag17
aS'amount pain today almost makes want train meet taper'
p140
aS'saying couldve gone worse situation couldnt really gone worse'
p141
aS'taper three little words many excuses'
p142
aS'true'
p143
aS'greatest athlete ever'
p144
aS'endless pool lookin fresh newtoy'
p145
aS'uofl world champ trial 2013 team wct2013'
p146
aS'louisville swimmings newest'
p147
asS'2013_26'
p148
(lp149
S'friends roll'
p150
aS'bucca beppo nuff said'
p151
aS'dream owned stingray cuteaf'
p152
ag17
aS'talking frozen yogurt desert right shiiiit'
p153
asS'2013_27'
p154
(lp155
S'wolf pack minus'
p156
aS'crying roommates check'
p157
ag17
asS'2013_20'
p158
(lp159
S'lives godragan'
p160
aS'im4life'
p161
aS'shout congrats brah'
p162
asS'2013_21'
p163
(lp164
S'quote summer race going gets tough black poop pants'
p165
aS'best handle dome home ladies gents skynation domeofchampions'
p166
aS'home ladies gents skynation domeofchampions'
p167
aS'wont meet church'
p168
aS'life sorry'
p169
aS'friends look like fucks weights cashinout rudy edelen nate bond'
p170
aS'gisselle kohoyda 1500m breaststroke champion'
p171
asS'2013_22'
p172
(lp173
g17
aS'wait next time coming practice fastenough bespontaneous'
p174
aS'gonna show picture phone please look pictures'
p175
aS'finally roommates home'
p176
aS'creek life'
p177
asS'2013_23'
p178
(lp179
S'gotta love people stick rough imsets'
p180
aS'blow whistle baby'
p181
aS'crazy'
p182
asS'2012_49'
p183
(lp184
S'mwahahahaha'
p185
ag17
aS'welcome stop christmas dinner parents dying meet'
p186
aS'distraught'
p187
aS'norman distraught'
p188
asS'2012_25'
p189
(lp190
S'need meet trials'
p191
aS'thanks guys really hope able watch olympic trials wemissyou goodluck\xe2\x80\x9d'
p192
asS'2012_24'
p193
(lp194
S'thats sick dude whoop secs pool year next year bestnewsever\xe2\x80\x9d'
p195
aS'entries missy omaha'
p196
aS'love reading tweets excited everyone olympictrials2012 cantwait'
p197
aS'swimming cuts time trials omaha schedule'
p198
aS'louisvilles joao lucca added brazilian olympic roster'
p199
aS'august 13th'
p200
aS'much change beginning growing sucks'
p201
aS'dont steep stairs socks'
p202
aS'miss miss'
p203
asS'2013_28'
p204
(lp205
S'brittany spears still'
p206
aS'longest three weeks history'
p207
aS'would james franco askyourself'
p208
aS'would mimic mental breakdown'
p209
aS'venture past lilly'
p210
aS'crying'
p211
aS'dont like havent tried home watching wipeout'
p212
asS'2013_29'
p213
(lp214
S'well thanks letting know short notice'
p215
aS'gotta love jimmy johns delivery'
p216
aS'ocho champions'
p217
asS'2012_21'
p218
(lp219
S'swass graduation gown'
p220
aS'changed password itrt looks like someone sending nasty spam people'
p221
aS'really attractive awesome girls fall guys cause cant help'
p222
asS'2012_48'
p223
(lp224
S'bahahaha'
p225
aS'shout four distance vlad'
p226
ag17
aS'watching game pizza delivery lady gocards'
p227
aS'louisville join 20142015 season'
p228
aS'want birthdayyyyy booty'
p229
aS'bouttime'
p230
asS'2013_5'
p231
(lp232
S'eating pure estrogen'
p233
aS'would like waaaamburger french cries'
p234
aS'wants moment animals look inside soul'
p235
aS'doesevery time nogusta'
p236
asS'2013_4'
p237
(lp238
S'mass lady offered blood christ however refused simply said season'
p239
aS'games fishbowl makes miss home aspen thatswhereimfrom right missing mountains'
p240
aS'great enjoy lizard life'
p241
asS'2013_7'
p242
(lp243
S'look like addict'
p244
aS'love glaze'
p245
aS'best valentines ever thank'
p246
aS'happening cant wait till tonight'
p247
aS'thanks mary yeah cant wait next year'
p248
ag17
aS'ready'
p249
aS'mary jealous world know'
p250
aS'baby ocelot'
p251
ag17
ag17
ag17
aS'harlem shake video coming wednesday recoverywednesday'
p252
aS'suggesting swim together free days'
p253
asS'2013_6'
p254
(lp255
S'pretty stoked spend next years guys shenanigans'
p256
aS'trying change outcome game free throw rituals'
p257
aS'triple overtime good taper gocards'
p258
ag17
aS'leave room'
p259
ag17
asS'2013_1'
p260
(lp261
S'wait jimmy johns start making breakfast nope freshman strike clepto'
p262
aS'cards fired skittles around tonight'
p263
aS'holy shit cardnation'
p264
aS'ehhh wouldnt good breaststroke like'
p265
asS'2013_3'
p266
(lp267
S'sweet talkin sugar coated candyman dotdotdot'
p268
aS'finished mens classic good meet around ready dual meet next l1c4'
p269
aS'classic'
p270
aS'classic'
p271
aS'thanks love even made words'
p272
aS'ijustwantyoutoknow miss like crazy'
p273
aS'hahaha dude choice gotta accept beat fitty'
p274
aS'disgusting getofftwitter'
p275
asS'2013_2'
p276
(lp277
S'yorks hottest club booooooooof yeah nine'
p278
aS'digimon digital monsters digimon champions stuckinmyhead'
p279
aS'beeping noise doesnt stop things happen'
p280
aS'ihatethat'
p281
asS'2012_23'
p282
(lp283
S'sons last tweet died dont tweet drive'
p284
aS'blasphemy know nothing voice made multiple times tonight legit hurt feelings\xe2\x80\x9d'
p285
aS'hate waking impression bunch stuff happened realizing dreams later'
p286
aS'didnt tell going subway'
p287
aS'second diablo character today truly love taper time'
p288
aS'epic scene ever seen ever'
p289
aS'swimmerproblems'
p290
aS'hates people work already past bedtime'
p291
aS'sitting listening music beautiful night need someone spend darn'
p292
aS'votekatniss'
p293
asS'2013_9'
p294
(lp295
S'shout afinal villa represent'
p296
aS'love thanks'
p297
aS'another freshman wins ville nolan tesone goes 34890 400im freshiesrule'
p298
ag17
ag17
aS'thanks dood hollidayinn lovegame'
p299
aS'thanks katie wait charger back'
p300
aS'ready east 2013 gocards'
p301
asS'2013_8'
p302
(lp303
S'yeah like times listen bruno mars'
p304
aS'ashley miss wish wasnt dream long'
p305
aS'raining water bottles kentucky bench sec2013 hauntedpool'
p306
aS'believe'
p307
aS'good times'
p308
aS'many plots thick clue thickplotseverywhere'
p309
aS'haha glad like trying pull convict look embarrassing taperstupid'
p310
asS'2012_22'
p311
(lp312
S'doesnt look beautiful swimtrials12 tminus days'
p313
aS'bottom food chain great frshmn16prblms'
p314
aS'miss hope yall haven team kentucky sadtweet'
p315
aS'back gonna rough days back water loving team gocards'
p316
aS'pokemon used shit\xe2\x80\x9d'
p317
asS'2012_36'
p318
(lp319
S'awkward moment'
p320
aS'freshmeat'
p321
aS'welcome home bukakke give best lizard care ever'
p322
asS'2012_4'
p323
(lp324
S'happy 21st hope good nighttoremember'
p325
asS'2012_6'
p326
(lp327
S'canadians fast swimmers'
p328
aS'wanna valentine excited valentines happy'
p329
asS'2012_20'
p330
(lp331
S'ultrataper liarliarpumpkineater'
p332
asS'2013_17'
p333
(lp334
S'dude okay'
p335
aS'shout boss inspired'
p336
ag17
asS'2012_1'
p337
(lp338
S'much club timeeeee love bestfriends'
p339
asS'2012_35'
p340
(lp341
S'gotta love theres cute laxer sitting next college'
p342
aS'attention everyone pryor went real date last night making eyes tell'
p343
aS'secret love affiar isnt secret anymore'
p344
asS'2012_52'
p345
(lp346
g17
aS'maybe would crawl hole colorado springs'
p347
aS'love'
p348
aS'rain instead snow christmas louisvilleproblems'
p349
aS'peoplewhomademy2012 nevergoingtostop'
p350
asS'2012_50'
p351
(lp352
g17
aS'happppppening trainingtrip2012'
p353
aS'cant major skyrim would study butreallytho'
p354
aS'touch\xc3\xa9'
p355
aS'announce alone time needs world dont'
p356
asS'2012_51'
p357
(lp358
S'still havent back bettie alive miracle ripprobably'
p359
aS'time giving speech game life louisville swim spoke broken'
p360
aS'really shit'
p361
aS'need work backwards start'
p362
aS'glad last night'
p363
aS'cards gave motivational talk louisville swimming diving team broken siesta training'
p364
aS'hardgeneration 17x4imers'
p365
aS'interesting great'
p366
aS'freshmeeeen'
p367
aS'wait'
p368
asS'2012_18'
p369
(lp370
S'delusional burrito mylife'
p371
aS'alien humans receive message alien named dubstep dance'
p372
aS'breaking speedo degree weather friday'
p373
asS'2013_37'
p374
(lp375
S'annual swimmer dinner soon\xf0\x9f\x8d\x9d'
p376
aS'salmon veggies'
p377
aS'thank swimmers'
p378
aS'yeah doesnt mean wont'
p379
aS'spot difference wreckingball miley dontjudge funny loop'
p380
aS'world record free physicsbook'
p381
asS'2013_36'
p382
(lp383
S'always back comes wardrobe'
p384
aS'lilly always welcoming nights like'
p385
aS'haha feel worries plenty long course season'
p386
aS'going take sarcasm champ youre serious paintrain'
p387
aS'sometimes start fall asleep class pinch nipples really hard stay awake'
p388
asS'2013_35'
p389
(lp390
S'found picture phone saturday'
p391
asS'2013_34'
p392
(lp393
S'know gurl good catch colorado united know talking haha love'
p394
aS'amiunderarrest'
p395
asS'2013_33'
p396
(lp397
S'singin momutz tori kelly dontjudge moms singing'
p398
aS'whenever invite hang'
p399
aS'miss youre woman'
p400
aS'hahaha appreciate dude miss life'
p401
asS'2012_39'
p402
(lp403
S'look found section'
p404
aS'going library whaaaaa proud'
p405
aS'maybe uofl swim team field flooded game'
p406
aS'images keep replaying mind scarred'
p407
aS'better letting sleep'
p408
aS'hours till demise'
p409
aS'thunder storms ruining recovery night sleep'
p410
aS'gocards'
p411
aS'tower power cheer'
p412
aS'black week begins tomorrow redsquad pumped'
p413
asS'2013_31'
p414
(lp415
g17
aS'dumb'
p416
ag17
aS'wait irvine'
p417
aS'louisville swimming taper twerk dontjudge twerk usopen13'
p418
aS'drinking game watching breaking every time walter hangs phone without finishing conversation take drink'
p419
asS'2013_30'
p420
(lp421
S'know girl dontjudge lopsided'
p422
aS'king questionableasfck'
p423
aS'arent home bryans'
p424
aS'tits tots'
p425
aS'whats'
p426
ag17
aS'coning remake'
p427
aS'plan weekend soon'
p428
asS'2013_19'
p429
(lp430
S'knoxville stopping zaxbys please'
p431
ag17
asS'2013_18'
p432
(lp433
S'pok\xc3\xa9mon stadium wait'
p434
ag17
asS'2013_16'
p435
(lp436
S'wouldnt werent'
p437
aS'agreed'
p438
aS'booty indeed'
p439
asS'2012_37'
p440
(lp441
S'currently riding paintrain strugglebus'
p442
aS'pretty sure fell asleep todays class even started wakemeup'
p443
aS'backintimetuesday mademyday'
p444
aS'happy belated emabarassyourbestfriend'
p445
aS'emabarassyourbestfriend'
p446
aS'udiligence'
p447
aS'rounds freshman'
p448
aS'first hour week herewego gocards'
p449
asS'2012_30'
p450
(lp451
S'thank badass commercial greatstarts chills'
p452
aS'could hood western sectionals deck pass please needresults'
p453
aS'would nice results western sectional meet gresham oregon'
p454
aS'deserved pizza chicken pineapple smothered sauce'
p455
asS'2013_39'
p456
(lp457
S'lilly nuketown 2025'
p458
aS'doesnt happen regular basis'
p459
aS'colombian prince thank backstrokegroup4lyfe'
p460
ag17
aS'whats love brett carmen ashely best people earth produce great swimmers'
p461
asS'2013_38'
p462
(lp463
S'gotta love jeffco something tells quite done either'
p464
ag17
aS'louisville boys speedos pushed close 20000 followers rehash edge'
p465
aS'despite everything happened love everyone'
p466
aS'love team'
p467
aS'shout fire last night killedit'
p468
aS'louisville mens swim team supporting louisville womens volleyball tonight little girl'
p469
asS'2012_26'
p470
(lp471
S'swimtrials12 poorclary'
p472
asS'2013_10'
p473
(lp474
S'andrew torres denver 14487 austin leaves bubble ncaa qualifying 30th presen'
p475
ag17
aS'avett brothers'
p476
asS'2013_32'
p477
(lp478
S'haha well youre always dreams miss though'
p479
aS'miss'
p480
aS'haha back colorado awesome meet pissed couldnt irvine'
p481
asS'2013_13'
p482
(lp483
S'winitforware'
p484
aS'time time time illusion society unless course thats'
p485
aS'something wrong world someone breaststroke prelims mncaaswim'
p486
aS'joao lucca dubstep'
p487
aS'lucca crushed 13151 colupaev 13307 mncaaswim third fastest swim history lsup'
p488
aS'didnt like hahaha'
p489
aS'thats pretty good right mncaaswim'
p490
aS'lucca wins 1951 1979 race free swimoff mncaaswim'
p491
ag17
aS'haha soooo true'
p492
aS'trust'
p493
asS'2012_29'
p494
(lp495
S'everybody doesnt internet phone razor'
p496
aS'lockin dates west coast everyone three hours back'
p497
asS'2013_12'
p498
(lp499
S'norman joker toots'
p500
aS'imust'
p501
aS'kelsi worrell split louisville medley wncaaswim'
p502
asS'2012_34'
p503
(lp504
S'20122013 college swimming mens preview louisville look continue success'
p505
aS'wishin jorts tonight'
p506
asS'2011_32'
p507
(lp508
S'altitude home cant breathe alone take stairs offseason lazydays'
p509
aS'thanks congrats gentlemen'
p510
aS'guys come colorado'
p511
aS'penguin'
p512
aS'bubbaleee champaign'
p513
aS'slurping oysters fishmarket'
p514
aS'chillin diva bitch rest swim bros andrew torres'
p515
asS'2013_15'
p516
(lp517
S'saving best last'
p518
aS'make good team'
p519
aS'coach nolans extravaganza killinit'
p520
aS'know feel'
p521
asS'2013_11'
p522
(lp523
S'guys lets make best situation sb13'
p524
asS'2012_38'
p525
(lp526
S'waiting'
p527
aS'amazing feeling sure failed test gocards'
p528
asS'2013_14'
p529
(lp530
g17
aS'well mean tell everyday chance today notkidding'
p531
aS'thanks yeah something special place love hope well'
p532
aS'impressive louisville wins'
p533
aS'cards cant stop wont stop dominate every sport women'
p534
as.