(dp0
S'2013_42'
p1
(lp2
S'theperksofbeingwallflower makes errrry time'
p3
aS'lmfao legit'
p4
aS'problems would solved stopped overthinking everything calmed fuck stopped anxi\xe2\x80\xa6'
p5
aS'cereal acceptable meal times'
p6
aS'like tryna ruin happy'
p7
aS'cant even fuck anymore'
p8
aS'awkward marathonn'
p9
aS'math anxiety psychological disorder causes stress anxiety math problems'
p10
aS'psychology says lose someone never exactly person comes back'
p11
aS'chris brown perfection'
p12
aS'youre teambreezy'
p13
aS'psats death'
p14
aS'trying happy easy people make look sometimes'
p15
aS'party someone cries liking'
p16
aS'need mind'
p17
aS'accepting fact someone life ltltlt'
p18
aS'worst thing cancer fake second worst thing mean'
p19
aS'never follow unless like subtweets'
p20
aS'need damn'
p21
aS'abouuut haha'
p22
aS'life like rollercoaster'
p23
aS'lost many amazing teacherscoachesmentors past year sliv\xe2\x99\xa1\xe2\x99\xa1'
p24
aS''
p25
aS'okay haha vive'
p26
aS'appologize face today fellow classmates'
p27
aS'mean thanks'
p28
aS'love aint simple cant'
p29
aS'thought'
p30
ag25
aS'love long youre gone'
p31
aS'ipod shuffle goes lmfao even real'
p32
aS'pull ghost bitch mossssst'
p33
aS'rich tryin havent died yetttt'
p34
aS'sleep sounds pretty good'
p35
aS'body party'
p36
aS'called slut today wait getting called slut even insult anymore'
p37
aS'dreaming everything dream you\xe2\x80\x99ve actually seen real life'
p38
aS'tweet text'
p39
aS'mills cause trigga finga'
p40
aS'nigga month might turn loyal nigga knew since grade time doesnt'
p41
aS'bumpin tupac homework'
p42
aS'tupac always dime opinion'
p43
aS'blew speakers notagain'
p44
aS'ride till bury'
p45
aS'trippin'
p46
aS'headaches homework dont well'
p47
aS'kinda funny older start enjoy things hated like taking naps getting spanked'
p48
aS'dont love nobody'
p49
aS'getting home cheer realizing brother didnt leave dinner solid'
p50
ag25
aS'hahahahahaha like omfg erica like lmao made miss need hangout sooon'
p51
aS'kendall wishes prettier instead looks like piece asparagus said'
p52
aS'beaten kicked around'
p53
aS'sleepovers reminded reason lololol'
p54
aS'swear boobs girlprobs'
p55
aS'people hangout boyfriend fighting cool'
p56
aS'lolol suckstosuck itttt'
p57
aS'gotta homework'
p58
aS'essay feel'
p59
aS'stay humble stay hungry'
p60
aS'dont even know want'
p61
aS'practicing dance'
p62
aS'okey'
p63
aS'think know mean text'
p64
aS'dont know issssss'
p65
ag25
aS'waste time waste energy'
p66
aS'never comfortable youll rude awakening'
p67
aS'yeeeeeeee love'
p68
aS'know start misss freakin face'
p69
aS'stop threatening leave want fucking'
p70
aS'relationship could make never want fall love'
p71
aS'youre like real friend lolol come back life'
p72
aS'name chelsea miss friend kelsey truly deals bullshit truefriendfo\xe2\x80\xa6'
p73
aS'name kelsey miss frand chelsea'
p74
aS'miss lt333'
p75
aS'miss'
p76
aS'done bullshit'
p77
aS'mancrushmonday guys suck\xe2\x9c\x8c\xef\xb8\x8f'
p78
aS'friends happy worries overthink till drive'
p79
aS'youre funnow stop fucking snapchatting dont give shit youre byeeeee'
p80
aS'okay understand wouldnt choose either'
p81
asS'2013_43'
p82
(lp83
S'pointing flaws like dont already haaa'
p84
aS'sometimes need hurt order grow must lose order gain sometimes lessons learned best thro\xe2\x80\xa6'
p85
aS'created shoe made legos step lego doesnt hurt taller'
p86
aS'used called jumpolines jumped back 1972'
p87
aS'ohhh well right haha'
p88
aS'stay happy stay high stay stay positive stay creative stay weird stay'
p89
aS'went look'
p90
aS'acts like summer walks like rain reminds time changetrain'
p91
aS'brought math grade'
p92
aS'everything'
p93
aS'love elephants'
p94
aS'never understood'
p95
aS'cant called rivalry team never wins birdgang'
p96
aS'right haha legit like highscho girls saying gonna beat like deal'
p97
aS'true never anyone mess sister hate seeing upset always wished'
p98
aS'words love loyalty'
p99
aS'absolutely hate girls mean little sister'
p100
aS'retweet follow back'
p101
aS'retweet gtthen follow everyone retweets gain 1500 followers teamfo\xe2\x80\xa6'
p102
aS'sweatpants without pockets worst'
p103
aS'accepting everything'
p104
aS'wanna carve pumpkins make pies cookies watch halloween movies'
p105
aS'allow hope believe trust dont memories stop good life'
p106
aS'things cant forgive'
p107
aS'boyfriend problem'
p108
aS'literally cute friends like like little sister jokes dont make sandwiches brothers'
p109
aS'candles gtgtgt'
p110
aS'exactly happened booboo'
p111
aS'prayin'
p112
aS'makeup'
p113
aS'tweets lyrics dont take shit seriously'
p114
aS'love people keep conversation going hours'
p115
aS'waste time could happy'
p116
aS'mindset perspective'
p117
aS'nail polish fingernails lasts week toenails lasts decades'
p118
aS'everything everything cant complain'
p119
aS'yeah thats usually learn better explain moves instead watching'
p120
aS'well last dance looked video instructors confused hard figure'
p121
aS'hahah dance video people like girls'
p122
aS'probably clean room'
p123
aS'something would lolol good luck though pretty hard learning videos'
p124
aS'pandora'
p125
aS'chris brown gtgt'
p126
aS'positive vibes'
p127
aS'hope kills know happy'
p128
asS'2013_41'
p129
(lp130
S'think worst feeling world missing someone sitting right next'
p131
aS'missssss'
p132
aS'follow tumblrr'
p133
aS'upstairs 1030 youre early early anyways'
p134
aS'exes number fuck'
p135
aS'cancers protective care'
p136
asS'2013_46'
p137
(lp138
S'woooo'
p139
aS'probably used alone'
p140
aS'glad friends'
p141
aS'frank ocean soothes hurting soul'
p142
aS'andddd skips listen tourture'
p143
aS'song song banned pandora makes miss'
p144
aS'ahhhhh hate feeling like'
p145
aS'trust true'
p146
aS'dont like gatorade okay nice thought'
p147
aS'probs last people dont like like'
p148
aS'said sister'
p149
aS'share cookies youre pretty important'
p150
aS'okay might couch'
p151
aS'haha gonna tell like sister'
p152
aS'song loser would walk anyone'
p153
aS'think love someone never love back'
p154
aS'problem'
p155
aS'brittany okay youre adorable'
p156
aS'kelsey love'
p157
aS'trust always good thing'
p158
aS'would crawl york california'
p159
aS'brittany stop stalking'
p160
aS'dont fall love best friend thats idea'
p161
aS'moving impossible still head'
p162
aS'chapstick bobby pins hair ties hardest things keep'
p163
aS'amen'
p164
aS'hope realize lost'
p165
aS'deleting messages something shouldve done forever'
p166
aS'theres really need much drama'
p167
aS'chelsea take best selfies tasha dont confident bitch'
p168
aS'week stressful ready carefree weekend'
p169
aS'good night gymnastics girls progress'
p170
aS'hooray staying night studying chem test blah'
p171
aS'boys wont remember cancelled plans month girlfriend always remember always trial\xe2\x80\xa6'
p172
aS'point cleaning room sounds homework'
p173
aS'well pretty much highlight night guys lololol'
p174
aS'probably know going need ride practice'
p175
aS'dare lift floor'
p176
aS'feel like always tired'
p177
aS'process taking makeup ltltltlt'
p178
aS'hate feel like take friends family granted'
p179
aS'count blessings instead problems'
p180
aS'gonna stop procrastinating tomorrow'
p181
aS'tired'
p182
aS'blunt person'
p183
aS'patiently waiting annoying chloe accounts'
p184
aS'well hope know like'
p185
aS'depressing full time'
p186
aS'like pretty girls make feel even worse thank'
p187
aS'night singing love songs'
p188
aS'love someone dont come back text youre drunk'
p189
ag25
aS'cause youve never'
p190
aS'obligatory tweet waiting last moment homework'
p191
aS'watching spongebob dont care judgeme'
p192
aS'shit crush monday youve dating like year post every damn week'
p193
aS'friends monster thats along voices inside head tryin save stop holding breath'
p194
aS'everyone deserves second chance'
p195
aS'chicken wings dont stand chance aricjdreamavhiever'
p196
aS'dont feel dont feel thats okay face'
p197
aS'girl sorry cant rock curves like favorite things said'
p198
aS'cool haha wanted'
p199
aS'youre going hashtag jealous'
p200
aS'never leave terms could last time person ever remember'
p201
aS'unbelievable atmosphere yesterday barnes park final attendance numbers avail last night well'
p202
aS'waking good mood gtgtgt'
p203
aS'mistreated needing'
p204
aS'stay positive\xe2\x9c\x8c\xef\xb8\x8f'
p205
aS'love sleeping struggle getting time'
p206
aS'you\xe2\x80\x99re struggling life really means you\xe2\x80\x99re progressing'
p207
aS'dont fuck anymore'
p208
aS'make feel type'
p209
ag25
aS'want'
p210
aS'nikki favoriting everything tweet'
p211
aS'slowly giving idea relationship thestruggle'
p212
aS'foreal best friend cant even back tell miss damn distance shouldnt change shit'
p213
aS'head baby'
p214
aS'ewwww hate basic bitches'
p215
aS'retweet follow everyone else retweets followers fast teamfollowback follow2befollowed'
p216
aS'ever gotten period like well explains'
p217
aS'lift people instead bringing people'
p218
aS'used talk like else'
p219
aS'hurt girl would never hurt'
p220
aS'excited dally keep following dreams girl believe near future\xe2\x99\xa1'
p221
aS'loved darkest left lowest'
p222
aS'watching disney channel little brother whenever leave room gets'
p223
aS'smiling scissors hand hair time'
p224
ag25
ag25
asS'2013_47'
p225
(lp226
S'stay true thats'
p227
aS'number talent procrastinating'
p228
aS'ever felt like werent even given chance'
p229
aS'habbit feeding food sits next looks like socute'
p230
ag25
aS'heard like girls dont mean brag anything really really everything'
p231
aS'mean sure thanksgiving days pumped christmas'
p232
aS'tired inconvenient times'
p233
aS'sweatshirt take sweatshirt cold'
p234
aS'youre skinny doesnt mean youre shape stop'
p235
aS'definitely worst critic'
p236
aS'fine'
p237
aS'spam accounts keep tweeting links site need damn'
p238
aS'raised older brothers whoops'
p239
ag25
ag25
aS'lmao seriously thougghh'
p240
aS'hahaha'
p241
aS'killlll emmmm'
p242
aS'love babe keep head lt33'
p243
aS'people like isnt attractive swear well bitch never attractive fuck yaself'
p244
aS'mama didnt raise fuckin fool'
p245
aS'ooooh'
p246
aS'championship game tomorrow rockthered'
p247
aS'youre slut nobody knows keep quiet hahah girlcode'
p248
aS'promo made state title game saturday spread word'
p249
aS'hear dont listen'
p250
aS'scaring shit literally funny'
p251
aS'sooo good procrastinating'
p252
aS'hadsnt crossed mind love mean differently'
p253
aS'chemistry'
p254
aS'cause fashion killa trendy nigga'
p255
aS'finally'
p256
aS'next time fuck dont wanna fuck wanna make love next time talk dont wanna talk wanna trust'
p257
aS'missing someone able worst feeling ever'
p258
aS'cant'
p259
aS'dont know'
p260
aS'asked alexis weekend seemed last time talked'
p261
aS'awks'
p262
aS'youre allowed cute unless like stop'
p263
aS'cant like tell like something stop puss tell feel wahhh'
p264
aS'honestly scary much mean'
p265
aS'youre annoying stop stalking instagram'
p266
aS'dont ever anyone eyebrows tell shit life'
p267
aS'junior year kicking butt'
p268
aS'sorry nobody wants boyfriend stfu'
p269
aS'sisters honks drives gtfo youre life reason scumbag'
p270
aS'love youu\xe2\x99\xa1'
p271
aS'went today first college visited definitely considering going'
p272
asS'2013_44'
p273
(lp274
S'knowing youll never chance someone sucks'
p275
aS'couldnt imagine life without sport'
p276
aS'cause youre team breezy know ittttt'
p277
aS'wont stop sevyn chris brown gtgtgt\xe2\x80\x9d'
p278
aS'fuck heard recognize'
p279
aS'someone desires mean value words resonate mind'
p280
aS'power boys soccer game'
p281
aS'miss toooo\xe2\x99\xa1'
p282
aS'agree lolol'
p283
aS'misss'
p284
aS'really miss right'
p285
aS'girrrrl'
p286
aS'make morning playlist songs going relaxed energetic youll able tell youre'
p287
aS'lololol instantly thought'
p288
ag25
aS'feeling stevie wonderful'
p289
aS'reunited'
p290
aS'things dont need life wasps stringy things banana commercials youtube'
p291
aS'never actually friends make creepy faces distance'
p292
aS'right person wrong time hate'
p293
aS'sleeping disorder called twitter anyone else'
p294
aS'kiss brother time yeah youre also'
p295
aS'either never find anything good like things wanna watch come'
p296
aS'boyfriend november'
p297
aS'brothers senior night tonight holy crap time flies'
p298
aS'dont someone gave feel sorry gave someone would never\xe2\x80\xa6'
p299
aS'happen'
p300
aS'swear october lasted like minutes'
p301
aS'lock doors leave keys smalltownpride'
p302
aS'youve spent life known sibling smalltownproblems'
p303
aS'boyfriend isnt allowed talk anyone replaced contacts number ahead call imma'
p304
aS'honestly laugh everything that\xe2\x80\x99s great friend cause laugh everything'
p305
aS'fuck homework projects going night'
p306
aS'send girl loses respect'
p307
aS'know place free know place everybody loves called'
p308
aS'sometimes wonderwho fuck names hurricanes'
p309
aS'always forgive someone apology sincere'
p310
aS'seat straight hell everyone cheats someone'
p311
aS'hahaha pweaseee\xe2\x99\xa1'
p312
aS'couldnt resist lolol'
p313
aS'thank every person ever told cant another reason'
p314
aS'stop complaining appreciate life'
p315
aS'cant someone dont want'
p316
aS'need others approval live life makes happy life make decisions happy'
p317
aS'like crab cancer hides everything protective shell'
p318
aS'short girls cutest'
p319
ag25
aS'messy buns harder think'
p320
aS'everyone would give anything give fighting regardless much'
p321
aS'stay away cancer youre insensitive selfish'
p322
aS'tomorrow halloween night year girls dress like total slut girls anything'
p323
aS'anyone want make check 500000 dollars'
p324
aS'people deserve second chances'
p325
aS'girl ticket best friends'
p326
aS'write voice inside still'
p327
aS'compound beryllium barium youre total babe'
p328
aS'holy fuck doctor raging cunt saaaame dawggg'
p329
aS'turn everything'
p330
aS'endless inspiration never thing'
p331
aS'dont future waste present time valuable lost time cant retrieve'
p332
aS'people complain going shampoo faster conditioner opposite problem longhairprobs'
p333
aS'hears noise coming attic slowly opens door khaled'
p334
aS'stay strong even feels like everything falling apart'
p335
aS'past start'
p336
aS'like books music coffee'
p337
aS'five extra minutes sleep matter'
p338
aS'honey call honey booboo'
p339
aS'past equal future'
p340
aS'past start'
p341
aS'every night exactly hours minutes seconds sleep fall asleep right'
p342
aS'always leave loved ones loving words last time'
p343
aS'cancer friend tell everything'
p344
aS'would good together'
p345
aS'shit seems clear head'
p346
aS'ever wonder many people\xe2\x80\x99s dreams'
p347
ag25
aS'lololol funny lord hahaha'
p348
aS'wait milkshake'
p349
aS'really haha confused'
p350
aS'wanna haha addicted vine'
p351
aS'iiiit'
p352
aS'dont understand someone dislike taking pictures amount memories emotions'
p353
aS'youve found someone starting think maybe shouldve given chance everything happens reason right'
p354
aS'little used wear crocs'
p355
aS'thats like response everything lolol'
p356
aS'rollin around like theres nothing better doooo'
p357
aS'need someone wont give person'
p358
aS'defending isnt crime pretty sure would attacked'
p359
aS'dont wanna wanna smile'
p360
aS'stop going jail anyways'
p361
aS'trying thanks love'
p362
aS'youre going talk like leave alone thats even yesterday'
p363
aS'staying positive really hard everyone'
p364
aS'even talk shit doesnt know youre'
p365
aS'probably soon'
p366
aS'dating athlete accept fact going busy'
p367
aS'sext bring starbucks'
p368
aS'cancers dont like loneliness forever find'
p369
aS'accept past regrets handle present confidence face future fear'
p370
aS'discover bruise first thing think second thing poke'
p371
aS'kardashian wouldnt deal'
p372
aS'fornicate thyself'
p373
aS'sports take mind problem life might'
p374
aS'text first know real'
p375
ag25
aS'missing someone causes insomnia like symptoms frustration without person keeps awake night'
p376
aS'dont judge book cover math textbook picture someone enjoying enjo\xe2\x80\xa6'
p377
aS'dont like chris thats fine gonna force like least make sense dont'
p378
aS'wanna cuddle repell every form attractive male species'
p379
aS'copy paste'
p380
aS'realest nigga'
p381
aS'stress something cant change'
p382
aS'make happen best possible'
p383
aS'love'
p384
aS'sometimes open mind look things positively instead negatively'
p385
aS'dont faithful girl chase hoes'
p386
aS'zack seriously stop defending even matters years dwell past'
p387
ag25
aS'lately everyone turning'
p388
aS'person thanks means'
p389
aS'fault'
p390
aS'dont fall love theres much lose'
p391
aS'family course messed tweet rough guess'
p392
aS'happen year'
p393
aS'gotta whip homework real quick cheer'
p394
aS'dont even start defending'
p395
aS'wind outside crazy'
p396
aS'real friends real friends real friends reallll'
p397
aS'lmfao hear talking'
p398
aS'learn yesterday live today hope tomorrow'
p399
aS'still smiling saturday'
p400
aS'people life reason find'
p401
aS'friday'
p402
aS'stop complaining appreciate life'
p403
aS'freechrisbrown'
p404
aS'type person music like everyday'
p405
aS'today already going super slow fuckmondays'
p406
aS'always kills serious moments'
p407
aS'ever pretend like didn\xe2\x80\x99t something person doesn\xe2\x80\x99t feel embarrassed'
p408
aS'notice wont tweet chris going thru something serious respect'
p409
aS'pretty sure high school supposed suck fitting right'
p410
aS'sure half shit'
p411
aS'open mind mouth'
p412
aS'happens'
p413
aS'dont think itll kill'
p414
aS'youre interesting different like'
p415
aS'change apart life'
p416
aS'sleep play sports'
p417
aS'true friend chris real shit period'
p418
aS'never sadness past fear future ruin happiness present'
p419
aS'better gotta stay positive'
p420
aS'rappin call wiska lifa'
p421
aS'best friends supposed support anything matter least thats thought'
p422
aS'keep head princess'
p423
aS'watching keeping kardashians'
p424
aS'remember hard days make stronger days make realize good'
p425
aS'whenever message talk kinda annoys point really dont care problems anymore'
p426
aS'life'
p427
aS'anyone make group women laugh period deserves standing ovulation'
p428
aS'sunday night tomorrows monday sadness'
p429
aS'look sexy hair pushed back'
p430
aS'never past imprison'
p431
aS'yikeees'
p432
aS'always tell homework done sunday night homework sunday night'
p433
aS'holdin grudges love ancient artifacts'
p434
ag25
aS'support rights must support animal rights look like fucking alpaca'
p435
asS'2013_45'
p436
(lp437
S'kush loud helen keller hear itlol thats homie cant roll shit'
p438
aS'deleted stuff story'
p439
aS'hate texting love talking people'
p440
aS'dont understand wrong'
p441
aS'isnt best part breaking finding someone else cant enough someone wants'
p442
aS'snapchat acting weird'
p443
aS'fall mountain exist'
p444
aS'dont like spend sooo much time talking'
p445
aS'stop looking reasons unhappy focus things reasons happy'
p446
aS'youre goofy goober pussy'
p447
aS'starting fuck feeling everything'
p448
aS'waiting years'
p449
aS'remember next time need someone since never'
p450
aS'wish good enough mood appreciate said never gets better matter'
p451
aS'easier said done'
p452
aS'good like left everything left alone especially arguably worst week life'
p453
aS'hours sleep past hours dead'
p454
aS'kill'
p455
aS'dont text always shit'
p456
aS'haha stevens newport whos better team takeaseat'
p457
aS'dont know someone could love dont love'
p458
aS'keep exit life'
p459
ag25
aS'cancer texts sweet random funny stuff acts silly\xe2\x80\x9d cancer likes'
p460
aS'anyone think michael buble perfect'
p461
aS'ready'
p462
aS'stupid little girls like downgraded long bitch moved happy'
p463
aS'still'
p464
aS'lose followers often want'
p465
ag25
aS'cant wait chris brown kendrick lamar collaboration'
p466
ag25
aS'mine either'
p467
aS'honestly homework weekend'
p468
aS'please stop playing song breakfast'
p469
aS'havent eaten since morning waterville eating whole frickin house sounds like plan'
p470
aS'thankful able meet many great people conference waterville13'
p471
aS'waterville watch stevens boys kick playoff game lets birdgang'
p472
aS'chillin'
p473
aS'dont forget else'
p474
aS'hungry happy sleepy thats'
p475
aS'shawty want thug'
p476
aS'people pretend okay dont want complicate everyone else problems'
p477
aS'cheerleaders sacrifice anything make team look better sportsmanship'
p478
aS'tonight gonna good'
p479
aS'live cities youll never screen pretty still know free'
p480
aS'awkward moment twin prettier haha'
p481
aS'packing either forget everything pack entire closetbedroom ahhh'
p482
aS'dont molly rock forddd'
p483
aS'really hard lose weight pmsing wanna everything world'
p484
aS'pumped long weekend'
p485
aS'guys complain girls making duckfaces theyre biting lipampsquinting like theyre trying read something'
p486
aS'perfect lord knows need'
p487
aS'dont flirt sister'
p488
aS'dont destroy others enjoy'
p489
aS'deep shit right dereeee'
p490
aS'maybe make milkshake boys come yard solutiontobeingsingle'
p491
ag25
aS'inner feminist couldnt agree'
p492
aS'2013 almost 2014we help another'
p493
aS'love sunshine'
p494
aS'seriously accuracy made like explode haha love much youre welcome'
p495
aS'barely haha youre nice'
p496
ag25
aS'anyone sees look like school still friend bless'
p497
ag25
ag25
aS'feel better booooo\xe2\x99\xa1'
p498
aS'things person never angry help cannot plato'
p499
aS'thanks always back'
p500
ag25
ag25
aS'come back life bring nothappening imstrongerthanbefore'
p501
aS'become poetry'
p502
aS'won\xe2\x80\x99t impressed technology close youtube music continues playing'
p503
aS'heres good times'
p504
aS'matter good youre feeling remember entire universe briefly experiencing'
p505
aS'dear wont block delete keeping youll able happy without'
p506
aS'tacos dinner best news heard'
p507
aS'lmfao cant even deal bahaha'
p508
aS'first color lines fuck bitch'
p509
aS'school'
p510
aS'want sexually mentally physically emotionally ever possible'
p511
aS'gotta fight want'
p512
aS'weekend though gtgtgt'
p513
aS'take every chance drop every fear'
p514
aS'ever trouble test write \xe2\x80\x9cjesus\xe2\x80\x9d answer jesus always answer bless'
p515
aS'early bedtime means still wake late morning'
p516
aS'tonights decisions lead tomorrow mornings epic stories'
p517
aS'golf wang'
p518
aS'really wish everyone picture sucha night hahaha lord'
p519
aS'fimilar feeling heartbrake feeling love'
p520
asS'2013_48'
p521
(lp522
S'play boobs heart'
p523
aS'cant even button work pants'
p524
aS'retweet officially less attractive'
p525
aS'slides away responsibilities'
p526
aS'dont forget sharpen pencils incase need stab basic bitch'
p527
aS'told taco bell well actually said less mcdonalds\xe2\x80\x9d pretty sure know'
p528
aS'theres crusty stuff probably pebbles snatch'
p529
aS'dream last night someone ordered pizza chuck cheese meat itthat makes uncomfortable'
p530
aS'school tomorrow'
p531
aS'type girlfriend worst fall love even'
p532
aS'people hard trust others real question hard others tell truth'
p533
aS'whatve learned forget guys live life come around eventually'
p534
aS'boys dumb thats dont like anyone'
p535
aS'everyone getting boyfriend know getting fatter'
p536
ag25
aS'cant anyone crush'
p537
aS'want show proud'
p538
aS'youre caressing sleep'
p539
aS'time ever proud going zeeland west'
p540
aS'state championship 3427 yeaaaaah buddy soproud westpride'
p541
aS'titles years'
p542
aS'heck yeah'
p543
aS'seconds come'
p544
aS'many cramps guys gonna like'
p545
aS'cant catch'
p546
aS'shit'
p547
aS'plugging melissas heated blanket best decision ever made'
p548
ag25
aS'amount money right betting someone many times coles last name wrong ridiculous'
p549
aS'\xf0\x9f\x91\x90hatever'
p550
aS'game right'
p551
aS'feel like annoy everyone doesnt start conversation first'
p552
aS'want something real'
p553
aS'youre gonna zeeland shit dude'
p554
aS'almost pooped'
p555
aS'apologize advance basically everything ever'
p556
aS'thebiggestlies going start working running often eating healthier\xe2\x80\x9d'
p557
aS'dads hitting'
p558
aS'hate someone comes unexpectedly literally look like'
p559
aS'girls hate texting guys first'
p560
aS'finally home alone rips pants blasts music eats cookies'
p561
aS'youre interested making eating taco bell'
p562
aS'waiting crush text back'
p563
aS'remember'
p564
aS'creeping peoples facebooks thorn'
p565
aS'leggings pants agree'
p566
aS'really hoping something good happens'
p567
aS'know hard laid smell like coleslaw'
p568
aS'black friday specials getting pretty'
p569
aS'probably single never forwarded chain messages 2008'
p570
aS'couples hallways'
p571
aS'bitches taller shouldnt wearing heels fuck tryna whisper'
p572
aS'dont usually share personal things feelings share trust'
p573
aS'know watching movies night'
p574
aS'expectations flow whatever happens happens'
p575
aS'nice body without moving'
p576
aS'best friends'
p577
aS'hahahaha shouldnt proud dumbasses'
p578
aS'waiting crush text back'
p579
aS'wanna hangout people make friends'
p580
aS'evrytiem'
p581
aS'guys send long paragraphs know shes sleeping change entire mood wakes'
p582
aS'good deals boyfriends black friday'
p583
aS'dress nicer dont money body'
p584
aS'deprived right'
p585
aS'couples dont break anymore person acts like asshole person cant take anymore'
p586
aS'perksofdatingme think cute nicknames'
p587
aS'thanks guessing itll another like years screw cute couples daily'
p588
aS'literally cant wait relationship cute boyfriend'
p589
aS'havent worked since last week friday basically next check like dollars'
p590
aS'pull wiener thats magic happens okay extreme cheapskates'
p591
aS'thankful boyfriend ohwait'
p592
aS'basically'
p593
aS'wanna know like feel safe relationship'
p594
aS'cold cuddle'
p595
aS'don\xe2\x80\x99t understand room gets messy literally spot phone'
p596
aS'dont reply starting next conversation'
p597
aS'thank whoever took shift tonight'
p598
aS'person didnt black friday shopping'
p599
aS'wear leggings everyday really could care less anyone thinks theyre comfy'
p600
aS'backwards good smile'
p601
aS'wills someone come hold tell much better someday'
p602
aS'someone tells dont like'
p603
aS'thankful butt wait dont'
p604
aS'drugs'
p605
aS'today'
p606
aS'thanksgiving'
p607
aS'table looking cousins like'
p608
aS'cant wait take home thanksgiving'
p609
aS'came asshole'
p610
aS'youre thankful boyfriend thankful cheated last month nobody told'
p611
aS'first thing asked boyfriend sorry dont college like thanksgiving family reunion'
p612
aS'seeing food thanksgiving'
p613
aS'dream date date'
p614
aS'relationship status eating'
p615
aS'back second plate'
p616
aS'imthankfulfor'
p617
aS'moment realize cant anyone'
p618
aS'hours saturday hours monday hours today'
p619
aS'tells shes trying hook panera ever since given free stuff'
p620
aS'light stop'
p621
aS'everyone getting relationships growing getting lazier finding series watch'
p622
aS'almost 2014 every still forget 2012 anymore'
p623
aS'want relationship like'
p624
aS'imagine someone wanted didn\xe2\x80\x99t flirt anyone else didn\xe2\x80\x99t make uncertain whether they\xe2\x80\xa6'
p625
aS'dont wanna nowhere'
p626
aS'know love know shes watching youll babydoll need thank'
p627
aS'heart truly breaking idea please stay strong ever need anything\xe2\x99\xa1'
p628
aS'stay push away mind games cruel someone venerable cant always want'
p629
aS'know youre hearing lately youre thoughts prayers every'
p630
aS'youre dont creep little sister'
p631
aS'youre bringing sorry time leave life'
p632
aS'come accross table urethra tubes'
p633
aS'want body also want wings'
p634
aS'help want helped'
p635
aS'gonna start eating healthy itll tomorrow noshame'
p636
aS'cant find actual video reaction videos'
p637
aS'cool even part family anymore guess'
p638
ag25
aS'kind stupid childish high school'
p639
aS'single teacher cant teach subjects expect single student learn subjects'
p640
aS'would really love artworks herhelp please'
p641
aS'cherries skake mcdonalds playin favorites'
p642
aS'eggnog shake cant decide like'
p643
aS'cruise lyfe'
p644
aS'couldve'
p645
aS'said'
p646
aS'gotta dinossss'
p647
aS'dont wanna vegan restaurant'
p648
aS'cats love every kind love want every cannot'
p649
aS'fine scurredd'
p650
aS'sharkeisha lmaoo'
p651
aS'watching dinosaur movie'
p652
aS'making breakfast nikki actually chefs'
p653
aS'vagina seats comfortably'
p654
aS'dreaming kangaroo pouch like purse could hide snacks'
p655
aS'times'
p656
aS'sure hungry gonna anyway case'
p657
aS'friends crushes'
p658
aS'ever disappointed upon discovering whats dinner'
p659
aS'mind says november heart says christmas'
p660
aS'don\xe2\x80\x99t like disney kids need bibbity bobbity back fuck life'
p661
aS'literally never cuddle\xe2\x80\x9d answer always'
p662
aS'baby look like camera'
p663
aS'whatever need back gang thanks dinner'
p664
aS'would fall pieces never came back'
p665
aS'helado chocolate mejor helado'
p666
aS'hurt fell heaven'
p667
aS'drake gtgtgtgt'
p668
aS'eats snack making snack'
p669
aS'cardworthy'
p670
aS'thank lawd dont school tomorrow'
p671
aS'gucci socks like biggy papa'
p672
aS'lost thrill'
p673
aS'walk away anything anyone takes away life short fools'
p674
aS'you\xe2\x80\x99re fucking cute want kiss cute stupid face cuddle shit hold fucking'
p675
aS'watching help fourth block gtgtgt'
p676
aS'friends tell proud gtgtgtgt needless today good'
p677
aS'playing jeopardy english'
p678
aS'jealous really like'
p679
aS'made whole pumped right wooo'
p680
ag25
aS'youre faced'
p681
aS'lmfao love'
p682
aS'youre fully white'
p683
aS'haha thank'
p684
aS'keep calling like dont called shit like every single dumb twat'
p685
aS'catfish really pissing'
p686
aS'even gonna scared tryouts'
p687
aS'vessilina maybe vill teach'
p688
aS'actually understand stuff chemistry gtgtgt'
p689
aS'literally falling love huge problem'
p690
aS'gonna hunt caps'
p691
aS'worddd'
p692
ag25
aS'yeah girll'
p693
aS'didnt hours wasnt'
p694
ag25
aS'given dont shit return dont bitchy realize fuckafakefriend'
p695
asS'2013_49'
p696
(lp697
S'dont comment instagram picture calling cute thanks'
p698
aS'tipsforguys shed probably rather called beautiful'
p699
aS'always cuddly mood'
p700
aS'leggings pants'
p701
aS'want good using liquid eyeliner'
p702
aS'youre tweeting sports right dont ones complain people tweeting pretty little'
p703
aS'emoji every situation'
p704
aS'awww love getting cute texts'
p705
aS'last thing want today work'
p706
aS'emphasis yeah know cheated hahaha\xf0\x9f\x98\x82\xf0\x9f\x98\xac'
p707
aS'weve pizza rolls weeks grocery shopping'
p708
aS'grandma still single'
p709
aS'fuck asleep'
p710
aS'said went tennessee never haha'
p711
aS'choose lose backup plan definitely second choice'
p712
aS'dont know theres anything discouraging used someone'
p713
aS'could literally complain people months straight'
p714
aS'totally weekend'
p715
aS'dont care talk absolutely nothing want talk'
p716
aS'realized havent decorated christmas tree year cant year'
p717
aS'sucks'
p718
aS'long hair dont care'
p719
aS'care fucking like'
p720
aS'thanks screaming throwing phone sure made times better'
p721
aS'chuck cheese commercial working'
p722
aS'couples make realize someone love forever'
p723
aS'fall love fall lava'
p724
aS'boobs always pictures people need understand matter much pull shirt itll fall back bigboobproblems'
p725
aS'best relationship advice taco bell packets'
p726
aS'want date best possible person want date someone theyre proud maybe thats tryin\xe2\x80\xa6'
p727
aS'would cute girl came snowed someone wrote snow finger cute'
p728
aS'you\xe2\x80\x99re sarcastic asshole come'
p729
aS'cant wait tulip time cause fresh lemonade elephant ears'
p730
aS'glitter uggs probably ugliest shoe ever seen'
p731
aS'everyone fucked played tried lied youre dead'
p732
aS'favorite hobby pretending look good'
p733
aS'fucked dont think forgot'
p734
aS'diet'
p735
aS'ifwedate romantic things like'
p736
aS'rude nude'
p737
aS'sleep'
p738
aS'rebecca black released saturday'
p739
aS'life gives lemons make lemonade give back taco bell'
p740
aS'actually attractive stand away enough'
p741
aS'like food people'
p742
aS'someone come watch movies cuddle'
p743
aS'hate people tryna look good bitch'
p744
aS'girls need stop posting singing videos instagram youre even good'
p745
aS'takes'
p746
aS'deserve someone deserves'
p747
ag25
aS'sister talking boys liking shes'
p748
aS'school hasnt made consider stripper twice youre liar'
p749
aS'girl'
p750
aS'dont date december'
p751
aS'hahahaha oops totally forgot cause barely relationship'
p752
aS'adam haha dated person october nobody since'
p753
aS'dont like please dont pretend like ever'
p754
aS'shes shes hurt theres difference'
p755
aS'fuck'
p756
ag25
aS'scale zero zero many plans think tonight'
p757
aS'well today learned absolutely hate driving snow'
p758
aS'send know youre asleep text like'
p759
aS'freshman girls senior girls'
p760
aS'going regret eating chips work'
p761
aS'never would thought would text glad'
p762
aS'5painfulfeelings feeling unappreciated worthless'
p763
aS'friends house come friend yeah take shoes'
p764
aS'illegal able wake early'
p765
aS'look pretty dont look'
p766
aS'peoples contact name phone'
p767
aS'magically turn'
p768
aS'girls hard understand like taco bell starbucks cuddling compliments naps disney movies yoga pants'
p769
aS'cant fricken fall asleep'
p770
aS'please punch everyone says wish know better'
p771
aS'dont diet december'
p772
aS'mock elections work'
p773
ag25
aS'basically load laundry wear leggings tomorrow'
p774
aS'managers conference call alone front'
p775
aS'walk infront dont yell nice twice heard first time'
p776
aS'face looks clear today'
p777
aS'ipad finally dead teachers proud'
p778
aS'midnight snack like midnight course meal dessert'
p779
aS'even sorry havent worn jeans weeks'
p780
ag25
aS'trying physics packet twitter distracting'
p781
aS'puts selfie christmas tree star'
p782
aS'perfect'
p783
aS'babies fault shit father words wisdom courtney'
p784
aS'going anywhere family stay'
p785
aS'really dont wanna backpack decisions'
p786
aS'gonna whole physics packet show asshole whats'
p787
aS'congrats cause hate'
p788
aS'like want fail class graduate year like fuck'
p789
aS'accounting burn hole make sense'
p790
aS'alright everyone lets make deal dont make reindeer year thanks'
p791
aS'waking cant wait sleep tonight'
p792
aS'want hour delay'
p793
aS'concert geez hard'
p794
aS'parttime prostitute club penguin'
p795
aS'kisses raindrops send showers hugs minutes give hours'
p796
aS'squirrels don\xe2\x80\x99t know square root seem fine'
p797
aS'guys take notes'
p798
aS'motto leggings yoga pants leggings pants'
p799
aS'teacher late'
p800
aS'smoke rings cool onion rings cooler dont drugs'
p801
aS'back sleep'
p802
aS'always wanted walk work school cute draw windows markers dreamon'
p803
aS'confession need someone wont give matter hard push away'
p804
aS'starting tomorrow right leggings scarf'
p805
aS'dont like please dont pretend like ever'
p806
aS'dont lonely'
p807
asS'2014_36'
p808
(lp809
S'easier needed much need'
p810
asS'2014_37'
p811
(lp812
S'wish could ignore like ignore'
p813
aS'list people cant stand'
p814
aS'really carded water'
p815
aS'told manager want weeks said know change mind would'
p816
asS'2014_34'
p817
(lp818
S'money went'
p819
asS'2014_35'
p820
(lp821
S'wish could turn thoughts could sleep'
p822
aS'even sometimes'
p823
aS'guess never sure person seems like never thought would'
p824
asS'2014_32'
p825
(lp826
S'workout'
p827
aS'emoji find something funny'
p828
ag25
aS'want come home guatemala'
p829
aS'season oitnb comes'
p830
aS'even include 2014 option selecting birth year online like fresh womb ready join'
p831
aS'money spent food year'
p832
aS'says mins leaving think playing'
p833
aS'open this\xe2\x98\xba\xef\xb8\x8f\xe2\x98\xba\xef\xb8\x8f'
p834
aS'trying college like'
p835
asS'2014_33'
p836
(lp837
S'parents'
p838
aS'finally back guatemalan blanket'
p839
asS'2014_30'
p840
(lp841
S'tell little'
p842
aS'energy photoshoot'
p843
aS'looking graduation pictures thinking glad thats'
p844
aS'netflix gives seconds episodes decide whether you\xe2\x80\x99re anything life today'
p845
aS'trying figure someone elses shower'
p846
aS'ever shave legs later realize missed spot like'
p847
aS'anatomy spider'
p848
aS'present project youre waiting class quiet'
p849
aS'made list kimkardashiangameproblems'
p850
aS'jason'
p851
aS'hahahaha came goes check jason like'
p852
aS'came days asked goes someone actually wants work'
p853
aS'crash guys christmas party year'
p854
aS'miss kelli'
p855
aS'somedays regret quitting chuck cheese somedays happy quit'
p856
aS'boyfriend seriously best gonna miss much leaves guatamela week'
p857
ag25
asS'2014_31'
p858
(lp859
S'driving school first like'
p860
aS'want sorry really focusing career'
p861
aS'beauty comes shapes sizes small large circle square thin crust thick crust stuffed crust extra toppings'
p862
aS'straighten hair'
p863
aS'parent'
p864
asS'2014_38'
p865
(lp866
S'youre bitch'
p867
aS'apple gonna tell space could album phone'
p868
aS'hate netflix stop asks still watchin like think started doin somethin life bitch'
p869
aS'trying understand someones order speaks spanish probably worst scenario ever'
p870
aS'raise hand dont enough memory ios8'
p871
aS'everyone else sims dont'
p872
asS'2014_39'
p873
(lp874
S'morning barking'
p875
aS'left nice house warming gift neighbors house broken microwave doorstep'
p876
aS'dodged bullet'
p877
aS'kelsey almost person backing joke missed inches probably'
p878
aS'days house already marked territory stairs pink puke college'
p879
aS'prices lower theyll semi close highschool'
p880
asS'2014_18'
p881
(lp882
S'list every person crush'
p883
aS'drove downtown cheddar popcorn none'
p884
aS'popcorn downtown lemonade sounds good right'
p885
aS'perks dating you\xe2\x80\x99ll'
p886
aS'senior year still care peoples opinions high school taught nothing'
p887
aS'realization almost everything senior year related besides graduation'
p888
aS'almost turn present class'
p889
aS'girl youre meeting'
p890
aS'makes hard breathe makes boobs look banging story'
p891
aS'holland'
p892
aS'going true'
p893
aS'look good fireworks'
p894
aS'today really productive gotten relationship sims'
p895
aS'couple make public'
p896
aS'people start conversations continue'
p897
aS'feel like graduate high school life already greatly improved'
p898
aS'love genuine'
p899
aS'tonight'
p900
aS'glad senior year ready away people start somewhere else'
p901
aS'thanks fans\xe2\x80\xa6without never would possible'
p902
aS'dont know like people leave cake leave balloons suck helium'
p903
aS'trying take pretending youre paying attention time like'
p904
aS'school today'
p905
aS'perks wallflower'
p906
aS'ooooooohhhhh hahah makes sense'
p907
aS'wanna date drive movies'
p908
aS'need'
p909
aS'wanna thank making feel like nothing'
p910
aS'make brownies hate'
p911
aS'everything going alright maybe today eventually'
p912
aS'icarly ended waking coma drake josh calling megan'
p913
aS'people come'
p914
aS'trying work snapchat update like'
p915
aS'senior prank schools seniors another schools seniors switch schools'
p916
aS'snapchat best friends change really randomly inaccurate'
p917
aS'bottle vodka'
p918
ag25
aS'someone stare'
p919
aS'ummmm last night salty'
p920
aS'someone wont text back twitter'
p921
aS'sick everyone really'
p922
aS'world'
p923
aS'wanting split ends wanting hair shorter eternal struggle'
p924
aS'maybe take napuntil like summer'
p925
aS'dont like room freezing cold cuddled blankets youre weird'
p926
aS'world would much better place people less judgmental accepting others'
p927
aS'biggest decision whether keep tweeting first usually wins whoops'
p928
aS'semester feels like'
p929
aS'library finals like church christmas'
p930
aS'fuck would fine seen fine hell'
p931
aS'funny younger used fight taking naps time theyre things look forward'
p932
aS'cant wait school tomorrow'
p933
aS'wish hours boys werent mean bread didnt make'
p934
ag25
aS'great idea lets close main school entrance last month school itll hilarious'
p935
aS'take shower forget towel'
p936
aS'always feeling unimportant'
p937
aS'seeeing grades like'
p938
aS'basically shit pants'
p939
aS'bright side found chocolate backpack'
p940
aS'forgot coat headphones home happy tuesday'
p941
aS'spending food wont shirt'
p942
aS'yeah zeros bank account 0000'
p943
aS'there\xe2\x80\x99s reason look back much look forward'
p944
aS'senior year best worst year'
p945
aS'love work scheduled talk manager life always seems help'
p946
aS'make stanky'
p947
aS'johnny travoltage dumb'
p948
aS'feelin salty\xc2\xbf'
p949
aS'think burned'
p950
aS'subway sounds good right'
p951
aS'point semester'
p952
aS'youd think point senior year would show'
p953
asS'2014_19'
p954
(lp955
S'singlebecause supposedly good enough anyone'
p956
ag25
aS'people hands raised teacher calls'
p957
aS'every mother gave birth normal kids gave birth princess congrats'
p958
aS'damn drive like grandma'
p959
aS'carnival food still downtown'
p960
aS'face'
p961
aS'spent high school wondering wanted rest life makes happy know'
p962
aS'walkie talkie conversations work'
p963
aS'best decision today bringing subway work dinner'
p964
aS'saddest movie ever'
p965
aS'cool plans downtown'
p966
aS'second semester nutshell'
p967
aS'send ugly snapchat wrong person'
p968
aS'\xe2\x80\x9ccould could faces'
p969
ag25
aS'shatter knees cleaning tubes'
p970
aS'name written sitting sorry'
p971
aS'netflix'
p972
aS'park like douche senior prank'
p973
aS'fault stars neighbors must'
p974
aS'hate ugly stage need eyebrows done skin shit hair shit feel shit'
p975
aS'accurate'
p976
aS'youre ever feeling something remember werent shovel'
p977
aS'perfect natural makeup look step need cosmetic products'
p978
aS'twenty three nineteen'
p979
aS'cinco want pass exams'
p980
aS'first time going like years'
p981
aS'wanna taken date carnival'
p982
aS'days till fault stars'
p983
aS'parent'
p984
aS'woah boobs huge'
p985
aS'call shotgun friend still runs'
p986
aS'come school phone every hour anyways'
p987
aS'seeing couples post everything online'
p988
aS'realizing screwed finals'
p989
aS'happy cinco mayo'
p990
aS'cinco home'
p991
aS'found jean pockets laundry betchya excited'
p992
aS'friends baes like'
p993
aS'wash spoon'
p994
aS'walk school tomorrow like'
p995
aS'outfit school tomorrow'
p996
aS'dear underclassmen word advice never take interior design truly kelsey'
p997
aS'said'
p998
asS'2014_14'
p999
(lp1000
S'addiction'
p1001
aS'teachers homework weekend'
p1002
aS'hurts'
p1003
aS'someone kiss'
p1004
aS'true friendship'
p1005
aS'tonight'
p1006
aS'you\xe2\x80\x99re bagel'
p1007
aS'start catching feelings someone'
p1008
aS'still cant believe graduating high school year time gone'
p1009
aS'dads cause bought jeans sorry sorry'
p1010
aS'april still joke'
p1011
aS'goodness hate people much'
p1012
aS'ohmygod read'
p1013
aS'wearing jeans today goin onnnnn'
p1014
aS'done'
p1015
aS'supposed getting ready right mmmm probably wont happen'
p1016
aS'ones break don\xe2\x80\x99t know'
p1017
ag25
aS'exam easy gets'
p1018
aS'question'
p1019
aS'dont randomly text telling youre coming thing called'
p1020
aS'dont talk anymore'
p1021
aS'betcha bought chuck cheese shirt gonna rock back break'
p1022
aS'someone visit next week work yeah okay'
p1023
aS'cant wait older want ticket next flight'
p1024
aS'dont homework done'
p1025
aS'bring whole bottle turnt work please'
p1026
aS'cool youre florida nobody gives shit stop'
p1027
aS'senior prank dont school ever'
p1028
aS'first night break going 1130 turn'
p1029
aS'funny talk nice time cause much drama'
p1030
aS'politely slam wall make'
p1031
aS'mindset want stay home probably back sleep'
p1032
aS'raise hand didnt enough sleep'
p1033
aS'semester'
p1034
aS'showed swim suit bought online today first thing says boobs'
p1035
aS'really miss driving grand haven every week'
p1036
aS'everybody class failed test yall talk teacher like'
p1037
aS'stars beautiful tonight'
p1038
aS'good news time stop frappe'
p1039
aS'cares hashtags there\xe2\x80\x99s hashbrowns'
p1040
aS'everyones april fools jokes today'
p1041
aS'point semester hoping future husband really good school right'
p1042
aS'april fools prank replace sugar house cocaine'
p1043
aS'look good today haha april fools'
p1044
aS'somehow need block victorias secret ipad phone need banned store paycheck gone'
p1045
aS'walking around pants underwear hopefully doesnt wake'
p1046
aS'ever realise you\xe2\x80\x99re almost adult money'
p1047
aS'dora find bobby pins'
p1048
aS'second semester'
p1049
aS'monday'
p1050
aS'know monday drop food shirt lose middle class'
p1051
aS'basically'
p1052
aS'turn'
p1053
aS'earlier work year lost helping find held tight index finger cutest thing'
p1054
aS'ripping movie ticket enjoy movie'
p1055
aS'sleep schedule fucked grades'
p1056
aS'lack motivation going last stretch high school unreal done'
p1057
aS'senior year slowest year thus graduation taking precious time'
p1058
asS'2014_15'
p1059
(lp1060
S'break homework still procrastinate till sunday night'
p1061
aS'boobs tell gonna rain'
p1062
aS'mean girls'
p1063
aS'first thing eating today thing breadsticks sorry sorry'
p1064
aS'anyone else still awake cause sure'
p1065
aS'list people thinks attractive'
p1066
aS'never think twitter name months'
p1067
aS'cant believe senior year almost cant believe high school almost'
p1068
aS'high school students 2014 anxiety levels insane asylum patients 1950s well explains\xe2\x80\xa6'
p1069
aS'millionaire life'
p1070
aS'reason likes picture youre bending tits half'
p1071
aS'cremated last hope getting smoking body'
p1072
aS'today yeah'
p1073
aS'best'
p1074
aS'know gonna check lease pretty sure arent allowed meth hahaaha modern family always crackin'
p1075
aS'driver starts driving even seat'
p1076
aS'done trying friend friends seem important'
p1077
aS'taco'
p1078
aS'went work hour early cause didnt want waste going home completely called'
p1079
aS'throne'
p1080
aS'dang mine week'
p1081
aS'need spend time instead people dont matter'
p1082
aS'wheres spring break'
p1083
aS'bath water smells like pool guess kinda florida right'
p1084
aS'fuck little sisters messaging kids grade'
p1085
aS'instead laughing screamed \xe2\x80\x9chumor\xe2\x80\x9d thought something funny'
p1086
aS'moment bestfriend becomes stranger'
p1087
aS'seriously feels like freshman nervous highschool senior year'
p1088
aS'wish going somewhere cool spring break hate everyone'
p1089
aS'napping together kind date'
p1090
aS'walks past smells really good'
p1091
aS'spoiled'
p1092
aS'better visiting'
p1093
aS'want someone miss'
p1094
ag25
aS'could literally watch mean girls every single'
p1095
aS'cant toes boobs bigboobprobs'
p1096
aS'haven\xe2\x80\x99t phone ring like years'
p1097
aS'right girl chance sleep james franco leaked text messages instead'
p1098
aS'work talking cream'
p1099
aS'snitches bitches'
p1100
aS'cute swim suits'
p1101
aS'miss looking good'
p1102
aS'would engage twitter drama graduated middle school couple years'
p1103
aS'mostheartbreakinglines'
p1104
aS'ineedprettylittleliars'
p1105
aS'apparently wearing makeup makes shit'
p1106
aS'except barely talk anymore'
p1107
aS'beach summer'
p1108
aS'ever looked someones tweets realized guys could bestfriends like twitter bestfriends'
p1109
aS'amount friends lost past year unbelievable'
p1110
aS'real talk often meant change'
p1111
aS'tweet something class someone else class retweets'
p1112
ag25
asS'2014_16'
p1113
(lp1114
S'somewhere jesus dying cross giant bunny hiding eggs seems information'
p1115
aS'deal personal problems study tests don\xe2\x80\x99t'
p1116
aS'waited whole year post happy easter'
p1117
aS'prayforterrio'
p1118
aS'flirting applebees waiter failed'
p1119
aS'condition prevents dieting called freaking hungry'
p1120
aS'remember everyone facebook made status pretend airplanes night like shooting'
p1121
aS'glad graduating soon getting away immature high school drama'
p1122
aS'goodnight like these\xf0\x9f\x98\x8d'
p1123
aS'side highway people walking flashlights dragging garbage'
p1124
aS'hate summer girls prettier 100x uglier'
p1125
aS'tired since like 2004'
p1126
aS'days till fault stars'
p1127
aS'well first parked today'
p1128
aS'school start like 11am'
p1129
aS'life lessons kelsey interior design wrap'
p1130
aS'bright side tomorrow friday'
p1131
aS'dating dont'
p1132
aS'want punch face'
p1133
aS'graduation'
p1134
aS'people change things wrong remember life goes'
p1135
aS'spring 41214 41414 missed'
p1136
aS'want know cannot everything home'
p1137
aS'ting tang walla walla bing bang'
p1138
aS'yeah probably'
p1139
aS'gotta bring heated blanket tomorrow'
p1140
aS'thatd cool'
p1141
aS'easter michigan year miproblems'
p1142
aS'school colder inside middle winter'
p1143
aS'motivation ready today'
p1144
aS'lovely winter spring'
p1145
aS'really'
p1146
aS'rather fall lava fall love'
p1147
aS'honor awkward starting back tonight'
p1148
aS'cool girls asked proms sitting never getting asked'
p1149
aS'trying grades'
p1150
aS'whos graduating'
p1151
aS'wait till december warmth'
p1152
aS'thought done brushing snow'
p1153
ag25
aS'guess ibuprofens isnt good enough take migraine away damnit'
p1154
aS'amount orange people seen already today'
p1155
aS'good morning texts'
p1156
aS'forgot straighten back hair happy monday'
p1157
aS'never jealous person realized easily guys cheat'
p1158
aS'tomorrow monday nope denial'
p1159
aS'unlimited texting text people ever think phone company looks bill laughs'
p1160
aS'wedding'
p1161
aS'everyones tweeting hanging boyfriends laying break'
p1162
aS'shit still laundry'
p1163
aS'thundering'
p1164
ag25
asS'2014_17'
p1165
(lp1166
S'please come chuck cheese make whole store smell like weed cecprobs'
p1167
aS'studied first hour aced midterm'
p1168
aS'hahahaha bitch leave like weeks mouse trap dont leeeeeeeeee'
p1169
aS'bitch buying fluffles without'
p1170
aS'delete picture prime jalo actually right infront'
p1171
aS'whos hottie right corner'
p1172
aS'going punch across room'
p1173
aS'please punch everyone says wish know better\xe2\x80\x9d'
p1174
aS'probs'
p1175
aS'killed'
p1176
aS'feelin good midterm'
p1177
aS'sophomore sits next always asks throw away food'
p1178
aS'trying college like'
p1179
aS'girl wearing shorts fuck wrong'
p1180
aS'getting gown makes seem real'
p1181
aS'dont text back within like seconds forget text back like week sorry'
p1182
aS'girl gets doesnt want talk gets extra dont even talk'
p1183
aS'mean whats school without life falling apart times'
p1184
aS'reaches'
p1185
aS'teacher expects badly test really well'
p1186
aS'wife oops sorry babe couldnt pick'
p1187
aS'shooting star actually someone driving rainbow road'
p1188
aS'breathe life'
p1189
aS'still care grades motivation type work'
p1190
aS'hatred school gets bigger bigger every single'
p1191
aS'catch someone staring keep staring'
p1192
aS'taser probably curious taser thats dont taser'
p1193
aS'show half face selfies'
p1194
aS'can\xe2\x80\x99t handle sass can\xe2\x80\x99t handle'
p1195
aS'shit like happens mondays'
p1196
aS'brought chocolate every hour today well finished within minutes school'
p1197
aS'getting ignored literally makes heart sink ground'
p1198
aS'american horror story internet'
p1199
aS'american horror story favorite show'
p1200
aS'ever leave phone like hour expect come back like texts none yeah'
p1201
aS'need dressed picking breakfast kinda'
p1202
aS'props boys still girls dates'
p1203
asS'2014_10'
p1204
(lp1205
S'heard like girls dont mean brag anything really really everything'
p1206
aS'999999999999 sure going school tomorrow'
p1207
aS'sorry cars morning'
p1208
aS'ever hear song radio cant figure sounds weird suddenly hits chuck voice\xe2\x80\xa6'
p1209
aS'time changed clock finally right time'
p1210
aS'year sister told calm tits'
p1211
aS'smashes phone door karma bitch'
p1212
aS'cashier gives keep change'
p1213
aS'prepped pizzas morning call chef kelsey'
p1214
aS'shaved shit point lives'
p1215
aS'cant fuck people waste time'
p1216
aS'district manager gave lanyard says district star given past years'
p1217
aS'please talk shit right'
p1218
aS'thot walmart helpmeimnothip'
p1219
aS'people bullies nice like really'
p1220
aS'school find senior skip good know'
p1221
aS'thought wearing jeans going'
p1222
aS'damnit sutton'
p1223
aS'helping manager take trash stuck said pulling never said anything awkward manager'
p1224
aS'victorias secret three times past week thats obsession'
p1225
aS'fasfa likehave college'
p1226
ag25
aS'classes today watched movie tell came school today'
p1227
aS'juniors bitching school tomorrow suck like everyone else gone'
p1228
aS'well driving next semi trucks gives anxiety theyre building truck stop right street thanks holland'
p1229
aS'doesnt'
p1230
aS'happens every time'
p1231
aS'finally done psych presentation means sleep finally'
p1232
aS'ahhahaa thats wanna'
p1233
ag25
aS'high school career proud grades'
p1234
aS'jump conclusions overreact everything\xe2\x80\x99 four part novel written'
p1235
aS'every week reevaluate life please'
p1236
aS'took hour forgot told psych teacher would turn presentation right home sorry minnear'
p1237
aS'bored'
p1238
aS'hour shift like'
p1239
aS'cant fall asleep cool'
p1240
aS'ihop found pancakes free today'
p1241
aS'guess start psychology personality presentation'
p1242
aS'probably gonna dateless prom'
p1243
aS'hell wedding come watching show beginning still hell'
p1244
aS'cant boys real life look like boys'
p1245
aS'much time spare like putting dirt peoples beds shit'
p1246
aS'mind blown'
p1247
aS'family pronounce audi outtie'
p1248
aS'purposely letting hair hang back suit hopes ruining childhood dreams cecprobs'
p1249
aS'summer still thing warm weather still exist ever come back'
p1250
aS'pancake like valentines single people'
p1251
aS'good luck juniors tomorrow sleeping'
p1252
aS'people upload photos weed'
p1253
aS'never feel productive working monday nights'
p1254
aS'balloons bought nice life'
p1255
aS'guess starting friday nights yeah'
p1256
aS'torn looking cute tomorrow turning comforter outfit'
p1257
aS'regret laundry last week cause packed weeks worth clothes washer'
p1258
aS'careful post online future employers might want hang you\xe2\x80\x99re cool'
p1259
aS'asses'
p1260
aS'remember'
p1261
aS'also perks senior'
p1262
aS'finally senior means writing prep prompts testing means half days wednesday thursday'
p1263
aS'walking school tomorrow'
p1264
asS'2014_11'
p1265
(lp1266
S'school tomorrow'
p1267
aS'youre gonna late school'
p1268
aS'boyfriend doesnt touch butt time even boyfriend'
p1269
aS'sexting'
p1270
aS'year today working chuck cheese ayeeeeeee'
p1271
aS'doesnt'
p1272
aS'hate teachers dont bathroom many people went already\xe2\x80\x9d like none people'
p1273
aS'next physics wont stop looking tits eyes looking stop'
p1274
aS'favorite singers crowd surfed concert would carry away house'
p1275
aS'still exactly sure studying'
p1276
aS'feelin taco bell today also feelin money wallet'
p1277
aS'youd think exacto knife nope foam board'
p1278
aS'could married like kids still scared text first'
p1279
aS'stay strong even things begin fall apart stay strong'
p1280
aS'actually take relationships seriously'
p1281
aS'dont appreciate dont deserve'
p1282
aS'reasons date single'
p1283
aS'wouldnt shame took nyquil tomorrow morning instead dayquil'
p1284
aS'kitten wearing'
p1285
aS'omgmomg'
p1286
aS'finally going home'
p1287
aS'home pants aren\xe2\x80\x99t'
p1288
aS'school'
p1289
aS'miss relationship feeling special someone'
p1290
aS'show unless start girl wedding dress walking woods'
p1291
aS'minutes till pretty little liars'
p1292
aS'minutes'
p1293
aS'today psych asked stresses went around class shyest girl yells menopause mean accidents'
p1294
aS'didnt even till'
p1295
aS'perks dating you\xe2\x80\x99ll'
p1296
aS'describes life hahaha'
p1297
aS'sick guys talking think send nudes straight right wont send pictures'
p1298
aS'couldnt proud semester'
p1299
aS'basically found prettiest prom dress ever even going cause wont asked'
p1300
aS'soulmates probably gonna chicken nugget slice pizza'
p1301
aS'shoutout deer almost killing kelsey'
p1302
aS'accidentally forgetting headphones home like accidentally leaving first born child gates hell'
p1303
aS'sluts going spring break'
p1304
aS'want cuddle watch movies cute'
p1305
aS'move order pizza'
p1306
aS'kidnapped'
p1307
aS'daily reminder'
p1308
aS'someone come bring soup panera mmmmm'
p1309
aS'accomplish talk shit nothing stop doesnt make better person'
p1310
aS'prom'
p1311
aS'nice meet actually gives shit'
p1312
asS'2014_12'
p1313
(lp1314
S'apparently snowing'
p1315
aS'trampoline house there\xe2\x80\x99s chance thinking'
p1316
aS'school punishments stupid like someones ditching school fucking suspend continue coming'
p1317
aS'people single'
p1318
aS'free cookie subway cause took forever food'
p1319
aS'never goodbye goodbye means going away going away means forgetting peter'
p1320
aS'years cosmo idea'
p1321
aS'wish paid hating pants'
p1322
aS'finally hopefully nobody steals'
p1323
aS'people last school right time first school'
p1324
aS'leaving school today like'
p1325
aS'best thing ever read'
p1326
aS'party kitchen chuck cheese'
p1327
aS'school forget heat bill'
p1328
aS'thinking college weird thinking adult weird sure pretty sure still'
p1329
aS'freshman school supplies juniors seniors'
p1330
aS'months school left'
p1331
aS'cant wait till june next episode'
p1332
aS'girl next psychology told wear jeans tomorrow give mampms needless wearing jeans tomorrow'
p1333
aS'minutes alitellsall feel'
p1334
aS'verizon pain'
p1335
aS'wish tuesday night pretty little liars'
p1336
aS'said birthday bash'
p1337
aS'someone birthday bash year'
p1338
asS'2014_13'
p1339
(lp1340
S'plus went menards someone asked work like look like wearing blue'
p1341
aS'hate coming meijer wearing work clothes dont work'
p1342
aS'april fools coming cares cause life joke every year'
p1343
aS'congrats everything life parents youre'
p1344
aS'everyones stuff home like'
p1345
aS'country music reason high expectations'
p1346
aS'tonight bottoms'
p1347
aS'leggings pants'
p1348
aS'love falling asleep boyfriend dont'
p1349
aS'fuck think hate ever fucking yell'
p1350
aS'girl prom'
p1351
aS'holla phone number'
p1352
aS'courtney gave gift card taco bell life complete'
p1353
aS'left lane means fast lane'
p1354
aS'seeing girls asked prom makes jealous'
p1355
ag25
aS'senioritis'
p1356
aS'shout path built cheetah print leggings today'
p1357
aS'wasnt best idea stay till wake'
p1358
aS'thankful mangers keys jingle know theyre coming know phone cecprobs'
p1359
aS'always remember better arrive late arrive ugly'
p1360
aS'emoji'
p1361
aS'didnt high metabolism would least pounds guaranteed'
p1362
aS'honestly screw cute couples'
p1363
aS'could playin'
p1364
aS'stop looking quiz answers'
p1365
aS'teacher says bring food class'
p1366
aS'skip rest senior year graduate'
p1367
aS'tonight'
p1368
aS'sorry taking paint swatches menards'
p1369
aS'imma look good tomorrow watch cause wearing jeans'
p1370
aS'nothing frustrates isnt finger middle'
p1371
aS'physics class stares tits gave sucker wants'
p1372
aS'sometimes hungry times asleep'
p1373
aS'think half zeeland asked prom today'
p1374
aS'craving wings'
p1375
aS'describeyourlifeinapicture'
p1376
aS'cling anything dick'
p1377
aS'always like neighbor decides clean windshield'
p1378
aS'like puppy need attention need curl next need tell cute'
p1379
aS'today national girl like pizza touch butt retweet raise awareness'
p1380
aS'frozen first disney movie teaches girls dont need save'
p1381
asS'2013_51'
p1382
(lp1383
S'ever cheated dump make wear fucking sign walk around mall like dumb'
p1384
aS'must know looks stupider'
p1385
aS'cant wait college fall someone might actually chance'
p1386
aS'want unfollow unfriend everything time dont wanna immature little twat'
p1387
aS'manager called phone knows stolen howd know already'
p1388
aS'pretty much live leggings'
p1389
aS'love called work birthday party kids'
p1390
aS'basically'
p1391
aS'everyone break home like'
p1392
aS'sent dick snap chat needless blocked'
p1393
aS'ever flowers prolly start bawling happy\xf0\x9f\x98\x85\xf0\x9f\x99\x88'
p1394
aS'weird think last christmas barely even stable'
p1395
aS'actually think pelting random people snowballs path funny youre wrong growup immaturechildren'
p1396
aS'college applications free rejected'
p1397
aS'grinch stole bitch'
p1398
aS'itunes wrong hottest single 2013'
p1399
aS'texted happy birthday least could respond thanks'
p1400
aS'whoever invented online software parents grades online real dick head'
p1401
aS'basically don\xe2\x80\x99t talk first never talk'
p1402
aS'burn like 2000 calories everytime sheets'
p1403
aS'nights want cuddle next someone realize youre single'
p1404
aS'don\xe2\x80\x99t girlfriend unless smacking'
p1405
aS'four stop calculus exam hard'
p1406
aS'yessss upstairs'
p1407
aS'much honestly disgusting'
p1408
aS'2013taughtme'
p1409
aS'today saturday yeah yesterday friday yeah lexie struggle life'
p1410
aS'funny easy kick someone life realize nothing bringing'
p1411
aS'refuse compete anyones attention'
p1412
ag25
aS'single holidays makes redheaded stepchild social situations'
p1413
aS'bdubs ladies sleepover great friday\xe2\x99\xa1'
p1414
aS'almost bought belly ring says shit'
p1415
aS'ever accidentally throw something away later realize actually needed haha life'
p1416
aS'cant fucking enough'
p1417
aS'want keep thinking long time'
p1418
aS'want someone look look chocolate cake'
p1419
aS'vegetable cutecumber'
p1420
aS'fucking losing sleep come take'
p1421
aS'story life'
p1422
aS'ifwedate really enjoy'
p1423
aS'okay smile'
p1424
aS'want everything need'
p1425
aS'wish wasnt dream felt real'
p1426
aS'yeah myspace'
p1427
aS'bright side cause phone isnt iphone people wont know read messages'
p1428
aS'person stole phone youre even able anything blocked everything give back'
p1429
aS'single take relationships seriously'
p1430
aS'heres snow everyone bitching didnt last week'
p1431
ag25
aS'want real relationship'
p1432
aS'hours miss phone already'
p1433
aS'dont hate disappointed turned everything said youd never'
p1434
aS'phone stolen think texted number ipad'
p1435
aS'shout people stole phone work today hope like iphone much'
p1436
aS'watch closely take tests mouthing cuss words test paper'
p1437
aS'masters degree ignored'
p1438
aS'always miss trust'
p1439
aS'nice fuck every'
p1440
aS'walking past people school like'
p1441
aS'glue tiny mirror drivers license photo hand police confused arres\xe2\x80\xa6'
p1442
aS'imma beat'
p1443
aS'recent studies show hate everything'
p1444
aS'shout girl told bathroom good pretty'
p1445
aS'thank gods'
p1446
aS'tired shit'
p1447
aS'suppose drugs gift card'
p1448
aS'life pizza plastic fork oven heating heavy breathing dont care carbs eating'
p1449
aS'dont make permanent choice temporary feeling'
p1450
aS'female remains loyal without relationship female marry'
p1451
aS'gain points send know asleep texts theyre'
p1452
aS'basically'
p1453
aS'sexually active middle schoolers'
p1454
aS'shake like nose'
p1455
aS'dollar every time overheard white girl complain snow ruining already raggedy uggs'
p1456
aS'free food'
p1457
aS'youre going sleep realize test next'
p1458
aS'2013 almost lost weight didnt learn anything havent made effort save money still ugly'
p1459
aS'next essay include'
p1460
aS'another wednesday nobodys'
p1461
aS'needless going another sleepless night'
p1462
aS'amen'
p1463
aS'said check tomorrow dont wake dead'
p1464
aS'ever someone looking public think might checking remember'
p1465
aS'everyone earth wants feel like exist'
p1466
aS'santa naughty nice year young lady'
p1467
aS'girls getting wcws sitting like'
p1468
aS'dying know killing like killing'
p1469
aS'dating dont'
p1470
aS'sorry late class paparazzi stopped hallway quick interview'
p1471
aS'knowing everyone blaming ridiculous makes even want school anymoreso thanks'
p1472
aS'ever someone like human version period cramps'
p1473
aS'probably taking half today fuck'
p1474
aS'dont leave girl need girl want'
p1475
aS'always nervous people stop replying like something wrong scare away'
p1476
aS'wheres need'
p1477
aS'decide school tomorrow nobody fucking talk thanks'
p1478
aS'doctor sexually active even physically active'
p1479
aS'kind fucking teenager spot works times fucking week gets paid less wage'
p1480
aS'dont know going dont think coming home'
p1481
aS'every cast member designated texting safe spots cecprobs'
p1482
aS'930pm store empty youre almost done cleaning pullup like'
p1483
aS'leggings life'
p1484
aS'smoke meth inject heroin recess'
p1485
aS'even half year still fucking hate friends'
p1486
aS'well better start working corner next month'
p1487
aS'things love deck card shitlike cant even think things love'
p1488
aS'staying past midnight school nights'
p1489
aS'marriage like'
p1490
aS'thingsimgratefulfor boyz motion motion giving devotion'
p1491
aS'don\xe2\x80\x99t realize attached someone without talking'
p1492
aS'creative someone'
p1493
aS'dylan sprouses nudes feature next episode starring london tipton'
p1494
aS'forget yolo motto living like larry'
p1495
ag25
aS'wonder miss'
p1496
aS'leggings pants'
p1497
aS'worst daughter award goes'
p1498
aS'much would surgery cost remove feelings'
p1499
aS'true life christmas time suck dickhole wrapping presents'
p1500
aS'krusty krab pizza pizza meeheeehheeeeeeeemeeeeeeeeeeeeeeeeeeeeeeeeeeeeeeeeee'
p1501
aS'advice never shop lift stupid itll shit'
p1502
aS'wish luck today prayers needed'
p1503
aS'everyones saying gonna snow like'
p1504
aS'major netflix avoiding people'
p1505
ag25
aS'cant find anything wear'
p1506
aS'single bells single bells single'
p1507
aS'taking every ounce energy reply'
p1508
aS'come sleep wont make love love make'
p1509
aS'make hate already'
p1510
aS'sorry disappointment pushed away'
p1511
aS'cute things call partner sugar honey flour salt'
p1512
aS'needs boys bread'
p1513
aS'moms person ever post facebook'
p1514
aS'shout paying'
p1515
aS'well fuck'
p1516
aS'next shop thing help breathe happens stops breathing nobody else'
p1517
aS'makes clothes hate'
p1518
aS'cant blame someone walking away didnt anything make stay'
p1519
aS'pretty sure didnt park parking spot place oooooh killin'
p1520
aS'least hanging pick music'
p1521
aS'hours even slightly tired'
p1522
aS'sorry'
p1523
aS'would'
p1524
aS'dylan sprouse watching disney channel whips dick swings around makes glowing mickey mouse symbol'
p1525
aS'guess another sleepless night'
p1526
aS'suite life dick pics cody'
p1527
aS'shout boyfriend hospital severe case nonexistence'
p1528
aS'order parts told take back'
p1529
aS'bringing seeing within hours bring back tell needed'
p1530
aS'nooooo motor cause snow gets gets fucked'
p1531
aS'dylan puts disney'
p1532
aS'dylan sprouses nudes esteban like'
p1533
aS'windshield wipers broke take shop tkmorrow school dont think itll ready'
p1534
aS'holland court house'
p1535
aS'fucked'
p1536
aS'idea need ride somewhere tuesday morning fricken'
p1537
aS'know person especially excited dylan sprouses nudes'
p1538
aS'tripped fell heelys jesus take wheelys'
p1539
aS'partied taco bell made friendship bracelet'
p1540
aS'friends'
p1541
aS'cant stop laughing chuckecheese cecprobs'
p1542
aS'somebody asks picture walking back chuck room'
p1543
aS'guest straws'
p1544
aS'face reminds crimson chin fairly parents'
p1545
aS'leggings'
p1546
aS'remember didnt worry shaving makeup periods bras'
p1547
aS'getting laid tonight definitely banging snooze morning'
p1548
aS'closer isn\xe2\x80\x99t good'
p1549
aS'years'
p1550
aS'forgetting take phone bathroom take shit like forgetting take'
p1551
aS'hopefully doesnt snow tomorrow cause fucked windshield wiper life'
p1552
aS'need boyfriend would send good morning texts like'
p1553
aS'nipples bigger future'
p1554
asS'2013_50'
p1555
(lp1556
S'know work much find chuck cheese tokens around house'
p1557
aS'dearfutureboyfriend please'
p1558
aS'trying flirt'
p1559
aS'dont steal boyfriends hoodie steal'
p1560
aS'things keep happening'
p1561
aS'sometimes need order ridiculous amount food feelings'
p1562
aS'comes easy wont last lasts wont come easy'
p1563
aS'like broken clock whose hands dont move youve stuck point time long'
p1564
aS'argue lose look like complete idiot systematically dismantle self esteem'
p1565
aS'girl says done usually means fight'
p1566
aS'matter hard dont recognize hard'
p1567
aS'small things mean cute texts tight hugs long replies holding hands remembering little thingsamp kiss\xe2\x80\xa6'
p1568
aS'anyone needs watching movies eating cookie dough'
p1569
aS'christmas time worst time single'
p1570
aS'fuck'
p1571
aS'whatever date'
p1572
aS'seeing night might well clean room'
p1573
aS'shoe fits wear'
p1574
aS'thank burning hatred humanity keeps warm throughout cold winter months'
p1575
aS'dance style ranges white barbecue stripper whose rent tomorrow'
p1576
aS'know bitch named danielle'
p1577
aS'shades dark circles eyes'
p1578
aS'even trying hair work know youll helmet hair putting chuck head'
p1579
aS'want cuddle watch'
p1580
aS'presence present merry christmas everyone'
p1581
aS'remember kindergarten holland christian asked question windows said clean'
p1582
aS'like getting paragraph texts'
p1583
aS'could things better towards cause windshield wipers broke cool'
p1584
aS'people addicted weed alcohol addicted shopping victorias secret'
p1585
aS'hahah dont even take seriously huge attitude subtweetbitch'
p1586
aS'humor cover fact want jump bridge'
p1587
aS'adult know college want sweats nervously monsters university'
p1588
aS'christmas pictures today lets pissed gets cause wearing leggings'
p1589
aS'sleep happy'
p1590
aS'life'
p1591
aS'dont text first wont hearing'
p1592
aS'dark scared dont worry baby stomps foot sketchers light'
p1593
aS'backup plan definitely second choice'
p1594
aS'well went back victorias secret spent another fuck'
p1595
aS'santa wants'
p1596
aS'kidding'
p1597
ag25
aS'bright side cute underwear leggings'
p1598
aS'week pretty sure fridaysunday forsure friday youuu'
p1599
aS'need stop going victorias secret cant affording anything'
p1600
aS'everybody physics class want drop kick across school'
p1601
aS'cant right'
p1602
aS'raise grade tomorrow'
p1603
aS'saying girl probably cutest fucking thing'
p1604
aS'dont give girls fuckin weak shit know whats fuckin weak getting boner makin'
p1605
aS'hate seeing happy couples holy shit'
p1606
aS'places rather instead school north korea chernobyl dentist syria hell'
p1607
aS'black friday 1000 ways'
p1608
aS'coworkers bribes chuck secret rewards card victorias secret'
p1609
aS'illegal sneeze driving shits dangerous'
p1610
aS'nothing pisses youre middle conversation someone stop talking'
p1611
ag25
aS'would trip shit room smash fingers door'
p1612
aS'back'
p1613
aS'text back'
p1614
aS'every forced another name list people kiss'
p1615
aS'shirt girl comes like pink victorias secret said actually penis'
p1616
aS'always really hope work didnt need past days'
p1617
aS'cant beileve'
p1618
aS'need find someone enjoys awkwardness loves even mean laughs jokes even they\xe2\x80\xa6'
p1619
aS'love relationship commitment needed sleep together every night'
p1620
aS'wanting relationship like christmas'
p1621
aS'nobody deserves treated like option'
p1622
aS'tweet much'
p1623
aS'cant come someones life make feel special leave'
p1624
aS'love people shut fuck'
p1625
aS'always plan really cute movie nights fall asleep'
p1626
aS'seriously gordita cheese roll doritos thing cinnamon twists hell yeah'
p1627
aS'seriously drivers training hours dont need'
p1628
aS'life hack drink alcohol house forget you\xe2\x80\x99re useless unloveable'
p1629
aS'couple sucks face right middle hall'
p1630
aS'damn girl banker leave loan'
p1631
aS'want done'
p1632
aS'people beautifully wrapped boxes bullshit'
p1633
aS'told wouldnt snow'
p1634
aS'thatd cool could right'
p1635
aS'fuck never sleep night wish could switch thoughts'
p1636
aS'still wanna'
p1637
aS'want kind relationship'
p1638
aS'sleep'
p1639
aS'twitter closes'
p1640
aS'christmas tree'
p1641
aS'socially acceptable bring heated blanket school tomorrow'
p1642
aS'gonna live heated blanket till winter move'
p1643
aS'could married still wouldnt text first'
p1644
aS'save ride'
p1645
aS'dont understand'
p1646
ag25
aS'african african bitch'
p1647
aS'watch whos going right'
p1648
aS'guys arent gonna like tacos arent dont tacos tacos'
p1649
aS'really wanted look girls strutting bras undies look mirror'
p1650
aS'miss'
p1651
aS'wants feel sexual tension'
p1652
aS'touch snatch'
p1653
aS'pebs'
p1654
ag25
aS'piercing place clit ring'
p1655
aS'bday getting chuck pillow'
p1656
aS'well replaced come next weekend'
p1657
aS'bitches stare'
p1658
aS'hope spooning buddies'
p1659
aS'told drooled pillow leaving'
p1660
aS'left like awake'
p1661
aS'going snow snowing roads arent even stfu snow days rest week'
p1662
aS'getting backpack jingle jingle mutherfucker'
p1663
aS'cause people'
p1664
aS'know good drool pillow'
p1665
aS'going school delays closings weektheyll tomorrow wmiwx'
p1666
aS'olive garden breadstick want'
p1667
aS'stressed depressed even well dressed'
p1668
aS'sleep night'
p1669
aS'well obviously cause mines existent'
p1670
aS'least gravity attracted'
p1671
aS'pebbles gonna overwhelmed next week'
p1672
aS'dropped face earth'
p1673
aS'shine bright like knife gonna stab'
p1674
aS'lets play game called feel like bothering everything wont make attempts contact'
p1675
aS'cant accept bitch'
p1676
aS'wearing leggings tomorrow going'
p1677
aS'christmas want someone loves santa lets realistic'
p1678
aS'lets cuddle watch illegally downloaded movies'
p1679
aS'awkward moment tits away class whole class gets quiet hears'
p1680
aS'christmas list killer eyebrows boyfriend anything edible really selfie skills'
p1681
aS'hate bitches like free baby booboo booboo done shot people raped women stole kids nigga'
p1682
aS'burnt really fucking holy asdfghjklalaakpqpqhwhwiwp'
p1683
aS'everyones complaining dont snow dont rely dumb website internet'
p1684
aS'fuck would fine seen fine hell'
p1685
aS'christmas want'
p1686
aS'cool another sleepless night'
p1687
aS'midnight craving fried chicken'
p1688
aS'date touch butt whenever want'
p1689
aS'valentines every year'
p1690
aS'case lose retainer last name dont worry'
p1691
aS'literally never cuddle\xe2\x80\x9d answer always'
p1692
aS'pretty sure whole home wasnt even driving lane sorry cant lines'
p1693
aS'shout person text tonight'
p1694
aS'ever looked like nope'
p1695
asS'2014_8'
p1696
(lp1697
S'actually regret wearing jeans later'
p1698
aS'well going sledding going wear jeans later lets much regret half'
p1699
aS'wish ability fall asleep seconds least minutes please'
p1700
aS'cuddling chuck cheese pillow'
p1701
aS'yeah twitter world dyed hair'
p1702
aS'much could white girl literally could'
p1703
aS'making decisions friends'
p1704
aS'leave work minutes still pajamas really feeling today'
p1705
aS'shout hugged chuck head butted'
p1706
aS'girls sitting next talking dealers getting lunch'
p1707
aS'cool walking schools makes leggings soaked'
p1708
aS'cant find headphones well goes'
p1709
aS'cecprobs something jason would'
p1710
aS'really wish payday tomorrow spend check victorias secret'
p1711
aS'wish knew tumblr followers'
p1712
aS'honestly wasnt social media girls would higher self esteem'
p1713
aS'hopefully nobody family eats crackers cause sick life'
p1714
aS'would like sign napping'
p1715
aS'pandora sleeping medicine heated blanket tonights sleep need\xf0\x9f\x91\x8c'
p1716
aS'know eating fried chicken'
p1717
aS'dont guys fucking text dont back forth shit homepage thanks'
p1718
aS'throw snowballs path theres chance hate'
p1719
aS'rather take brick head migraine'
p1720
aS'always spending money victorias secret matter much tell wont'
p1721
aS'okay girl homeroom'
p1722
aS'almost fell died times walking'
p1723
aS'average chocolate contains eight insect legs'
p1724
ag25
aS'tuesday'
p1725
aS'school canceled wednesday intense episode region late last night'
p1726
aS'texts telling year sister asked boner'
p1727
aS'think spelled name wrong\xc2\xbf\xc2\xbf'
p1728
ag25
aS'never fails give heart attack'
p1729
aS'ariashould stab ezra'
p1730
aS'literally'
p1731
aS'woop'
p1732
aS'school tomorrow'
p1733
aS'parents upset little things like goddamn left plate sink dead body'
p1734
aS'love'
p1735
aS'whoever said diamonds girls best friend obviously never wore leggings'
p1736
aS'would never guessed boyfriend thank posted 54th week'
p1737
aS'look selfie last week'
p1738
aS'somedays girl jokes around somedays girl emotionless'
p1739
aS'assholes make textbooks'
p1740
aS'well good thing school cause till'
p1741
aS'you\xe2\x80\x99ll present front class'
p1742
aS'yeah finishing tonight might help title'
p1743
aS'guess start paper'
p1744
aS'still look online hoping find'
p1745
aS'well still havent started paper'
p1746
aS'cant deleted number faggot'
p1747
aS'yeah cause spell check dumby'
p1748
aS'youre texting'
p1749
aS'youre'
p1750
aS'better start page paper thats tomorrow know nothing'
p1751
aS'really like guys look nice suits like wear bedroom'
p1752
aS'argument shut like'
p1753
aS'snapchat story fuckin seconds first fuck wrong'
p1754
aS'guest jackpot game didnt give tickets'
p1755
aS'reason scared leave college fact wont sisters grow'
p1756
aS'ruins everything'
p1757
aS'fuck'
p1758
aS'frank'
p1759
aS'deserve someone gives shit'
p1760
aS'don\xe2\x80\x99t participate school look'
p1761
aS'prisons prisoners take shots cellfies'
p1762
asS'2013_52'
p1763
(lp1764
S'hardest part acting like dont care knowing much actually'
p1765
aS'straighten hair higher temperature cook food safe'
p1766
aS'delete peoples tweets'
p1767
aS'wearing jeans first time month regret minutes'
p1768
aS'scared alone cause movie call'
p1769
aS'yeah friends'
p1770
aS'anyone wanna mall'
p1771
aS'dont know life would without invention sweatpants yoga pants also leggings bless'
p1772
aS'single sucks wake need body heat keep warm reach nobodies'
p1773
aS'piece shit ground today reminded'
p1774
aS'drugs pugs'
p1775
ag25
aS'princess yeah thats'
p1776
aS'parents good'
p1777
aS'dont want want want good grades thank'
p1778
aS'everyone stops telling huge boobs nice boobs think dont know live thanks'
p1779
aS'move michigan nope'
p1780
aS'white girl stop signs'
p1781
aS'hahahhahahahahahah school'
p1782
aS'obsessed country music judgeme'
p1783
aS'defensive thinking gonna take custody sisters custody didnt fighting thanks'
p1784
aS'hear someone talking shit'
p1785
aS'heres 2014'
p1786
aS'ugly'
p1787
aS'taking hard bitch gtgt'
p1788
aS'parents don\xe2\x80\x99t realize perfectly happy avoiding humanity'
p1789
aS'holding girls hand public another saying youre proud'
p1790
aS'spelling erica wrong whole life'
p1791
aS'people never appreciate'
p1792
aS'dearfuturehusband completely aware fact difficult hard handle takes strong'
p1793
aS'show affection friends gently bullying'
p1794
aS'guess youre gonna miss panty raid'
p1795
aS'backpack dont want transfer school stuff struggle'
p1796
aS'dont look back dont regret'
p1797
aS'like alot'
p1798
aS'phineas know gonna today sparks blunt'
p1799
aS'someone talks'
p1800
aS'could fall asleep thatd cool'
p1801
aS'yeah lady asked acid shout night'
p1802
aS'changed mind couldnt change'
p1803
aS'coworkers says youre stuffing face wearing makeup today okay thanks'
p1804
aS'dying'
p1805
aS'screw coworkers'
p1806
aS'wanna dirty stuff like farming'
p1807
aS'else walking 2014 single'
p1808
aS'heart'
p1809
aS'thanks invite'
p1810
aS'start wondered dont'
p1811
aS'think hate probably'
p1812
aS'walk victorias secret'
p1813
aS'everyone break home like'
p1814
aS'right years'
p1815
aS'guys blue eyes best kind guys'
p1816
aS'combined pitch perfect mean girls bridesmaids'
p1817
aS'life'
p1818
aS'could together wanted'
p1819
aS'everyone wont kissed mistletoe year'
p1820
aS'calls chuck cheese asking leave store doesnt freeze outside lmao'
p1821
aS'seriously think everything makes stress create problems werent even'
p1822
aS'seat take'
p1823
aS'girl front christmas tree boyfriend caption greatest present'
p1824
aS'know youre getting older gift cards give boner'
p1825
aS'ways steal food'
p1826
aS'want head resting guys chest plays hair kisses forehead'
p1827
aS'nobody christmas'
p1828
aS'yeah dinner spilled whole thing salad leggings brightside olive garden dressing'
p1829
aS'someone comes massages whole body seriously love forever'
p1830
aS'miley secretly performing years literally comes swinging ball drops'
p1831
aS'doctor surgery right person goes anesthesia going pull'
p1832
aS'thanks blame stole phone'
p1833
aS'anyone trying ahold messages trying send imessages hold itll turn text'
p1834
aS'mcdonalds even open christmas'
p1835
aS'merry christmas filthy animals'
p1836
aS'girl laughs talks seems happy also girl sleep'
p1837
aS'cancelled christmas'
p1838
aS'wrapping paper'
p1839
aS'white girls like getting victorias secret stuff christmas'
p1840
aS'almost time white girls post christmas presents instagram'
p1841
aS'happy elfin holidays'
p1842
aS'tweetyourlifeinapicture'
p1843
aS'ever text like'
p1844
aS'seriously amount time spend imagining reimagining totally madeup scenarios head unhe\xe2\x80\xa6'
p1845
aS'snap vision santa coming tomorrow'
p1846
aS'heres 2014'
p1847
aS'family dinner table talking porn name would porn stars'
p1848
aS'quit acting like youre never'
p1849
aS'know tomorrow drive back detroit dads side'
p1850
aS'moms cause wont ready'
p1851
aS'leggings gonna wear sorry sorry'
p1852
aS'almost 2014 still piece shit'
p1853
aS'never kissed mistletoe kissed years\xe2\x98\xba\xef\xb8\x8f\xf0\x9f\x98\x81'
p1854
aS'motivation ready hour drive really'
p1855
aS'asked manager hours well days next week'
p1856
aS'probably'
p1857
aS'you\xe2\x80\x99re build blanket fort you\xe2\x80\x99re'
p1858
aS'crossing fingers found stole phone thursday'
p1859
aS'knowing theres school tomorrow'
p1860
aS'dyed part hair needed something'
p1861
aS'happens chuck cheese christmas parties stays chuck cheese christmas parties'
p1862
aS'maybe dont show care'
p1863
aS'cute relationship sight can\xe2\x80\x99t busy alone bitter disgusting'
p1864
aS'dream back caught'
p1865
aS'dont youuuu forget'
p1866
aS'riding school winter break'
p1867
aS'question heck awake right'
p1868
aS'guest could lower volume show pretty loud'
p1869
aS'remembering theres school tomorrow christmas break'
p1870
aS'fullhousememories cried uncle jessie moving michelle gave bunny remember they\xe2\x80\xa6'
p1871
aS'last years asked hahahaha joke'
p1872
aS'things shark bait'
p1873
asS'2014_6'
p1874
(lp1875
S'flappy bird childhood'
p1876
aS'couples'
p1877
aS'walking everywhere prices stay like'
p1878
aS'hate people call grandparents weird names instead grandma grandpa like babooshka salami'
p1879
aS'freezing someone please cuddle fire either fine'
p1880
aS'worst thing someone insults they\xe2\x80\x99re right'
p1881
aS'twitter drama'
p1882
aS'accurate'
p1883
aS'parent hell blue straw dont blue parent theres blue case'
p1884
aS'gets chicken tenders fries almost every restaurant'
p1885
aS'valentines'
p1886
aS'price higher'
p1887
aS'wish lost weight like lost bobbypins'
p1888
aS'know next month year working chuck cheese cecprobs'
p1889
aS'never trust girl doesn\xe2\x80\x99t backwards twist round front probably satan\xe2\x80\xa6'
p1890
aS'summer'
p1891
aS'every girl wants thats little protective'
p1892
aS'want upfront'
p1893
aS'thought farted dancing turns actually sharted noshame temple university'
p1894
aS'find alone night'
p1895
aS'bother else neigal sasquash doesnt like pictures taken issue camera'
p1896
aS'tipsforguys valentines'
p1897
aS'best'
p1898
aS'list people hate'
p1899
aS'grades throughout semester'
p1900
aS'dont care football player signed college sorry'
p1901
aS'taking cute selfies really hard youre cute'
p1902
aS'cancel school tomorrow cancel school forever isnt worth anymore weather'
p1903
aS'need like please'
p1904
aS'keep friends close taco bell closer'
p1905
aS'impossible walk victorias secret leave thing'
p1906
aS'silly'
p1907
aS'dont like pretty little liars'
p1908
aS'away sometimes'
p1909
aS'sleeping become least important thing life'
p1910
aS'pisses wants'
p1911
aS'huge family walking past cecprobs'
p1912
aS'clear mind tell fine'
p1913
aS'imagine went horror movie slide show middle school selfies hour'
p1914
aS'find position every night wide awake mind full thoughts nothing'
p1915
aS'literally second walk door bitched homesweethome'
p1916
aS'gives relationship advice remains single'
p1917
aS'massage sounds good right'
p1918
aS'tickets older cecproblems'
p1919
aS'past hour'
p1920
aS'dropping cookies floor life probably telling cookies'
p1921
aS'ever good enough anyone probably'
p1922
aS'headline great start finish'
p1923
aS'valentines'
p1924
asS'2014_7'
p1925
(lp1926
S'lovely moment shatter iphone there\xe2\x80\x99s touching peniss back'
p1927
aS'ungrounded week early didnt complain month grounding nobody ever wants hangout'
p1928
aS'french speak'
p1929
aS'even lift'
p1930
aS'afraid doesnt give fuck hell fuck nigga years slammer aint afraid'
p1931
aS'magic conch plans tonight haha'
p1932
aS'smiths house away still home'
p1933
aS'shout first person ever visit work except family'
p1934
aS'like fast forward tonight'
p1935
aS'walk steak shake lady asks table'
p1936
aS'couples tonight'
p1937
aS'thats thing pain demands felt'
p1938
aS'dumping boyfriend nintendo pictochat'
p1939
aS'chuck cheese busy today shouldnt getting poon tang'
p1940
aS'left door'
p1941
aS'pizza delivery driver great literally disappointed'
p1942
aS'must valentines cards didnt show'
p1943
aS'single happy couple'
p1944
aS'wakin lookin food'
p1945
aS'want sleep supposed night'
p1946
aS'want date fountain downtown zeeland lights different colors water'
p1947
aS'know manager thinks highly schedule work valentines'
p1948
aS'want hard leave want someone staying night thinking'
p1949
aS'hahahaha woke asked skip half sleep totally fine'
p1950
aS'secret hidden device check'
p1951
aS'feeling little sick take doctor'
p1952
aS'look like give'
p1953
aS'cashier thatll 1979 hands cashier heres receipt chan keep change'
p1954
aS'know need read whole page chance'
p1955
aS'hahhahaha found awhile literally died tweets'
p1956
aS'guest salad guest want pizza'
p1957
aS'thats awsome gonna next time snows lmao cecprobs'
p1958
aS'notice everything'
p1959
aS'congrats boyfriend knows operate toaster'
p1960
aS'leaving house tomorrow'
p1961
aS'days valentines importantly days discount chocolate'
p1962
aS'whats valentines participate'
p1963
aS'always wanted dead truly cares'
p1964
aS'need life heated blanket food'
p1965
aS'average giant teddy bear costs pizzas wings around price'
p1966
aS'look like thank'
p1967
aS'never lose sight whats important'
p1968
aS'hate kind couples'
p1969
aS'think hate probably'
p1970
aS'wear school tomorrow'
p1971
aS'think gonna wear jeans tomorrow might miracle'
p1972
aS'gets good'
p1973
aS'fact girls wear extensions false eyelashes every astounds cant bothered'
p1974
aS'dating life'
p1975
aS'dont text first probably never hear'
p1976
aS'find someone sees nothing potential flaws'
p1977
aS'hated show came'
p1978
ag25
aS'isnt weird hand knows everything hand sits like dont know'
p1979
asS'2014_4'
p1980
(lp1981
S'look everyone'
p1982
aS'holland pussies already closing'
p1983
aS'dont feel anymore used numb'
p1984
aS'really want sour patch watermelons massage'
p1985
aS'valentines'
p1986
aS'every time blowjob killing like million potential babies like holocaust swallowcaust'
p1987
aS'done playing flappy bird'
p1988
aS'cant find anything wear'
p1989
aS'senior year never asked school dance'
p1990
aS'notice little things'
p1991
aS'left boots today jason walks like whos hooker boots'
p1992
aS'might need shoes left work'
p1993
aS'hate jeans leggings everyday'
p1994
aS'someone give valentines'
p1995
aS'dont work secretly home'
p1996
aS'actually means heart ripped million pieces won\xe2\x80\x99t tell wouldn\xe2\x80\x99t care'
p1997
aS'cant wait till work cause tonight another movie night'
p1998
aS'school lunch lines like'
p1999
aS'want relationship like'
p2000
aS'random guys drive damn parking'
p2001
aS'heated blanket body pillow'
p2002
aS'ever feel friends drifting apart theres really nothing'
p2003
aS'next tuesday'
p2004
aS'feel unwanted sometimes'
p2005
aS'you\xe2\x80\x99re gonna keep cute you\xe2\x80\x99ll kiss sorry don\xe2\x80\x99t make rules'
p2006
aS'never good enough anyone damn'
p2007
aS'whales large laid longways basketball court game would canceled'
p2008
aS'look driving kind weather adventure\xf0\x9f\x98\x88'
p2009
aS'housing application asks want room acceptable write nobody zeeland west east'
p2010
aS'didnt talk probably saddest thing'
p2011
aS'stuck city dont belong'
p2012
aS'town september'
p2013
aS'havent slept text awhile today told person dont work today told work'
p2014
aS'like literally never realize tell like even still sure'
p2015
aS'randomly stop replying wont texting first'
p2016
aS'someone brings'
p2017
aS'finally career'
p2018
aS'days like zeeland school'
p2019
aS'reflects work ethic intelligence smart people lazy came chea\xe2\x80\xa6'
p2020
aS'tomorrow morning school'
p2021
aS'girl scout cookies season turn'
p2022
aS'miss texting every night'
p2023
aS'walking east west like'
p2024
aS'person hour doesnt flower valentines'
p2025
aS'infront today light basically shit pants'
p2026
ag25
aS'cellphone basically clock sitting pocket nobody contacts'
p2027
aS'like sassy you\xe2\x80\x99re mean chance'
p2028
aS'fuck putting hell'
p2029
aS'couple thats dating week caption longer cheesecake factory menu'
p2030
aS'past mistakes changes caused things simply fall apart'
p2031
aS'reason school drug dogs could come today'
p2032
aS'chew like stop'
p2033
aS'stop'
p2034
aS'croc'
p2035
aS'roads okay'
p2036
aS'havent even left oops'
p2037
aS'looking ratchet today sorry'
p2038
aS'school dropping'
p2039
aS'school today well hated anyways'
p2040
aS'prolly wont school ditch somewhere thanks'
p2041
aS'okay many kids want dead path today cancel please'
p2042
aS'reason number 2442664 zeeland sucks'
p2043
aS'feel zeel feel frostbite'
p2044
aS'probs gonna frost bite everywhere today walking path thanks school'
p2045
aS'whatever later haterz'
p2046
aS'thenk obama'
p2047
aS'candy'
p2048
aS'girls school extensions'
p2049
aS'done lmaooo'
p2050
aS'nash grier emoji'
p2051
aS'yelled driving taco bell weather wanted taco bell'
p2052
aS'walked doors east walk west course right walk slip fall shout everyone that\xe2\x9c\x8c\xef\xb8\x8f'
p2053
aS'talk shit'
p2054
aS'behind every beautiful girl ugly relationship made scared love'
p2055
aS'think miracle wore jeans'
p2056
aS'youre always last like pictures'
p2057
aS'bouquet underwear victorias secret valentines would perfect'
p2058
aS'mine'
p2059
aS'need life back normal'
p2060
aS'like warm hugs butt touches'
p2061
aS'probably someone'
p2062
aS'ever look back boys you\xe2\x80\x99ve liked realized assholes wonder'
p2063
aS'dont think ever look back life highschool best years life'
p2064
aS'still trying comfortable skin'
p2065
aS'fall apart eventually'
p2066
aS'lmao swiped card station literally minutes later facebook request cash'
p2067
aS'flowers valentines thatd pretty cool'
p2068
aS'creeped atleast someone thinks good looking enough'
p2069
aS'googled name found like second page dont family texas mothers'
p2070
aS'busy tonight'
p2071
aS'shout whoever pretending online'
p2072
aS'flattered someone pretending online'
p2073
ag25
aS'sorry'
p2074
aS'worst feeling ever parents tell theyre disappointed'
p2075
aS'text girl beautiful trust could make whole'
p2076
aS'text want means want text'
p2077
aS'yahoo chat'
p2078
aS'accounting first hour death'
p2079
aS'hours people hate'
p2080
aS'forever'
p2081
aS'cares girls wear leggings pants like wear leggings scarf want shut fuck'
p2082
aS'hard love'
p2083
aS'feel like stuck hole deeper becomes'
p2084
aS'confused'
p2085
aS'best feeling would stab'
p2086
aS'almost midnight eating pizza'
p2087
aS'imma look good tomorrow'
p2088
aS'exes texted today like tolerate exes obviously arent'
p2089
ag25
aS'hell makes think happy right'
p2090
aS'reality hard tonight'
p2091
aS'outfit school tomorrow'
p2092
aS'person zeeland gets hired chuck cheese quitting work everyone hate'
p2093
aS'feel lonely lately dont like'
p2094
aS'youre making decisions friends'
p2095
aS'guess somehow wandered victorias secret today spent even money'
p2096
aS'went courtneys house tonight stray house cause looked cold proceeded chase cats sorry'
p2097
aS'funny option'
p2098
aS'took expect able live fill tank next weeks fucking kidding'
p2099
aS'everyone pregnant didnt everyone learn mean girls pregnant youll'
p2100
aS'feel like complete shit like throw work hour shift'
p2101
aS'need stop'
p2102
aS'wants rave badly'
p2103
aS'honestly cant wait till move muskegon graduation lets real hate everyone town'
p2104
aS'hide problems behind smile behind smile world pain think know idea'
p2105
aS'corner someday puddle puddle splash'
p2106
aS'thats work streets'
p2107
aS'license drive'
p2108
aS'whenever dress nice event'
p2109
aS'funny talking people cause dont know naked like could right youll never know'
p2110
aS'cause'
p2111
aS'ever heard yolo swag'
p2112
aS'come pick school saying itll'
p2113
aS'1pm6pm'
p2114
aS'going come ihop tomorrow work remembered much hate'
p2115
aS'deca tomorrow'
p2116
aS'finally texting back like nobody talked'
p2117
aS'shop online'
p2118
aS'anyone needs watching extreme cheapskates night'
p2119
asS'2014_5'
p2120
(lp2121
S'really hate feeling like'
p2122
aS'nobody ever able beat halftime show'
p2123
aS'rooting commercials super bowl'
p2124
aS'parents tell'
p2125
aS'wish girls think ugly really pretty instead girls thinks'
p2126
aS'work 4close tonight therefore cant watch super bowl'
p2127
aS'best things ever read'
p2128
aS'couldnt ever imagined life without livin'
p2129
aS'plans valentines'
p2130
aS'problem tell everyone else'
p2131
aS'saturday night turn'
p2132
aS'ifwedate'
p2133
aS'right salad gloves someone needs help feels like'
p2134
aS'reasons fall love'
p2135
aS'ugly least ugly personality consistency'
p2136
ag25
aS'hate feeling'
p2137
aS'couples valentines'
p2138
aS'someone doesnt text back'
p2139
aS'snapchat conversations hard eventually selfie poses taking pictures'
p2140
aS'dont shit dont know truth life thanks'
p2141
aS'weeds'
p2142
aS'certain kind prom'
p2143
aS'thats okay wantttt'
p2144
aS'teddy bear'
p2145
aS'everytime clocks save receipt take picture scrap book'
p2146
aS'know thought late'
p2147
aS'request work together hahah damn kelsey flood today'
p2148
aS'valentines elementary school'
p2149
aS'boyfriend remembers colour first date probably small tits'
p2150
aS'youve never gotten flowers dude used give like every month pick'
p2151
aS'surprise school flowers'
p2152
aS'thats flowers school'
p2153
aS'first year like years dont valentine sure feel'
p2154
aS'plot twist think'
p2155
aS'secretly hoping someone something really cute valentines'
p2156
aS'sure face school'
p2157
aS'made contact today really cute stranger like damn lemme digits'
p2158
aS'true'
p2159
aS'think valentines crappiest'
p2160
aS'heelys dont brakes swag rides forever'
p2161
aS'hate jeans leggings everyday'
p2162
aS'yeah drive school like'
p2163
aS'getting cute goodnight texts'
p2164
aS'want someone worth time'
p2165
aS'realist ever seen'
p2166
aS'shoutout teacher clearly drop mampm shirt'
p2167
aS'prom food know real'
p2168
aS'mood done everything'
p2169
aS'dollar every time told nice boobs boobs millionaire'
p2170
aS'going yearbook'
p2171
aS'prom like'
p2172
aS'morning texts like shit'
p2173
aS'tracking snow snow snow yikes wmiwx earlyclub'
p2174
aS'don\xe2\x80\x99t understand people make multiple facebook statuses every like haven\xe2\x80\x99t made facebook status since like\xe2\x80\xa6'
p2175
aS'hardest things life trying boredom taking hour naps school'
p2176
ag25
aS'valentines'
p2177
aS'boys dress nice clothes dont care anyone says fact'
p2178
aS'watch closely take tests mouthing profanity test paper'
p2179
aS'cant wait'
p2180
aS'benefits living alone nagging pants sharing food dance parties nagging'
p2181
aS'ever gotten certain point school year'
p2182
aS'look like zombie school cause hours sleep even sorry'
p2183
aS'seven billion people planet friends'
p2184
aS'fault stars tfiostrailer'
p2185
aS'honest stay away simple'
p2186
aS'open mind stop closed minded bitch'
p2187
aS'feeling words express'
p2188
aS'live head makes sense'
p2189
aS'school tomorrow'
p2190
aS'every girl wants told theyre pretty even year'
p2191
aS'sorry doesnt mean shit anymore'
p2192
aS'weve days valentines youre secretly love time speak'
p2193
aS'already done tomorrow already'
p2194
aS'pretty sure dont school tomorrow'
p2195
aS'thanks thought'
p2196
aS'selfie sent awhile back saved phone'
p2197
ag25
ag25
aS'ripped charger ipad cause stuck half charger stuck charger hole noragrets'
p2198
aS'right flappybird'
p2199
aS'couples hallways like'
p2200
aS'hahahahaahaahaaha'
p2201
aS'dont want perfect person want someone silly someone treats well loves'
p2202
aS'dont love people ignore texts'
p2203
aS'really wish cute boyfriend like'
p2204
aS'school school 6dayweekend toomanysnowdays'
p2205
aS'cutest fucking thing smiles kissing kisses'
p2206
aS'perfect valentines date would endless love build bear youre welcome boyzzzz\xf0\x9f\x92\x81'
p2207
aS'north south snows'
p2208
aS'college application essay wanna life accept give scholarships school pric\xe2\x80\xa6'
p2209
aS'reality school tomorrow'
p2210
aS'getting invited anything feel spence'
p2211
aS'weve snow days friends'
p2212
aS'another snow tomorrow moving south'
p2213
aS'everyone whos school didnt cancelled'
p2214
aS'need people life'
p2215
aS'sour patch watermelons'
p2216
aS'half left dont know anything'
p2217
aS'good movies'
p2218
aS'sorry'
p2219
aS'snow days half senior year rest highschool career'
p2220
aS'sometimes wonder people around'
p2221
aS'remember hilary duff afraid sing hilary duff helped hilary duff sang duet hilary duff'
p2222
aS'close chuck cheese'
p2223
aS'getting paid standing nobody work right thats cool'
p2224
aS'rate snow days going extended school till like august'
p2225
aS'evritiem'
p2226
aS'life summed picture'
p2227
aS'feel like weve gone school month shout weather'
p2228
aS'work hours havent plowed road live since thursday lets goes'
p2229
aS'can\xe2\x80\x99t even play hard already hard want'
p2230
aS'forget forget'
p2231
aS'zeeland girls shit boyfriends hand feel zeel puremichigan'
p2232
aS'best thing happen zeeland high school confession page'
p2233
aS'justin bieber grammys'
p2234
aS'kanye somewhere right hosting grammys presenting every award'
p2235
aS'pink sing time barely sing shower without almost drowning'
p2236
aS'twitter makes seem like bitch really nice'
p2237
aS'girls flowers teddy bears valentines smack hands yourewelcome'
p2238
aS'want want want want want'
p2239
aS'expensive restaurants like 9467'
p2240
aS'need company'
p2241
aS'getting married playtime divorced lunch'
p2242
asS'2014_2'
p2243
(lp2244
S'slowly learning give fuck shit'
p2245
aS'express feel chance'
p2246
aS'rather shot school tomorrow'
p2247
aS'wakes wheres phone rips blankets hears loud thud'
p2248
aS'victorias secret could walk closet'
p2249
aS'dont respond message going text first'
p2250
aS'family members twitter'
p2251
aS'music heated blanket'
p2252
aS'gettin\xe2\x80\x99 real sick underwear responsibilities'
p2253
ag25
aS'lonely stoner seems free mind night night'
p2254
aS'feel like life dont work'
p2255
aS'officially dropped tech tuesday'
p2256
aS'follow instagram well proposed girlfriend chuck cheese'
p2257
aS'gotten good lying parents'
p2258
aS'accidentally forgetting headphones home like accidentally leaving first born child gates hell'
p2259
aS'funny dont want cheats girl cheated months'
p2260
aS'ready annoying faces people dont like tomorrow'
p2261
aS'zeeland'
p2262
aS'know clap thighs'
p2263
aS'hate people tryna look good bitch'
p2264
aS'pulled piece hair butt'
p2265
aS'shout leaving belly button rings found'
p2266
aS'missed burger king'
p2267
aS'can\xe2\x80\x99t afford pizza can\xe2\x80\x99t afford'
p2268
aS'coworkers says thinks really beautiful like barbie'
p2269
aS'going attempt online shop well interesting'
p2270
aS'adult sucks cause people hang cant like said change'
p2271
aS'pizza rolls monsters university macaroni'
p2272
aS'literally woke oops'
p2273
aS'days zero snow drifts tonight rain'
p2274
aS'lawyers argue without crying swearing'
p2275
aS'heated blanket calling name'
p2276
aS'wish granted'
p2277
aS'someone says long hair dont care extensions'
p2278
aS'perfect'
p2279
aS'everyones partying sitting home like'
p2280
aS'lady work today told nice sweetest girl ever'
p2281
aS'shout person texted since'
p2282
aS'know partying friends work night'
p2283
ag25
aS'sorry late class paparazzi stopped hallway quick interview'
p2284
aS'think actually'
p2285
aS'tell dropping classes response finally lmao'
p2286
aS'change chuck'
p2287
aS'wanna devils'
p2288
aS'anything able sleep night'
p2289
aS'happy couple'
p2290
aS'leave work minutes ripped pants'
p2291
aS'live picture'
p2292
aS'scary thing dating either going marry person break'
p2293
aS'life goal'
p2294
aS'current mood'
p2295
aS'takin trash night'
p2296
aS'mistreated needing'
p2297
aS'grades going yelling timber'
p2298
aS'money goes towards filling tank'
p2299
aS'skipped school snort concrete'
p2300
aS'girl school doesnt dance'
p2301
aS'actually pretty attractive stand away enough'
p2302
aS'purposely slept today could take half oops'
p2303
aS'teacher wheres essay'
p2304
aS'thoughts going head million miles hour'
p2305
aS'cant read kids stamp normally stare cecproblems'
p2306
aS'foot massage olive garden sounds like heaven earth'
p2307
aS'room freezing'
p2308
aS'second walked school today realized much really hate zeeland'
p2309
aS'tells nice butt'
p2310
aS'first three pizzas made work today stuck done'
p2311
aS'really nice people actually start conversations first makes feel like really care'
p2312
aS'okay'
p2313
aS'shout locking keys thanks'
p2314
aS'quit bitching extra days break school days maybe education assholes'
p2315
aS'bryan texted last night asking cover shift'
p2316
aS'actual picture tomorrow'
p2317
aS'thing think giving'
p2318
aS'take selfie'
p2319
aS'10th wedding anniversary sure like like'
p2320
aS'reason looking forward work tomorrow work'
p2321
aS'please tell youre love dating month'
p2322
aS'outside right'
p2323
aS'girls school'
p2324
aS'wheres customize button face'
p2325
aS'whats schedule wheres backpack whats pencil drive school thoughts tomorrow'
p2326
aS'previously ravenswood leaves'
p2327
aS'pretending babys hamster'
p2328
aS'toby baby'
p2329
aS'ezra babies'
p2330
aS'dead path tomorrow please leave'
p2331
aS'graduate'
p2332
aS'bout recordtime sprinters path tomorrow zeelandprobs'
p2333
aS'bringing snowmobile school tomorrow'
p2334
aS'path tomorrow'
p2335
aS'well person walking schools snow pants tomorrow'
p2336
aS'dads fianc\xc3\xa9 visiting canada past days saying weather warm'
p2337
aS'snow proof'
p2338
aS'everyones feeling right'
p2339
aS'favor hanging people started rumor toes beating like pi\xc3\xb1atas'
p2340
aS'even knows person tweeted something went crazy haha'
p2341
aS'snow days enough'
p2342
aS'twitter rage coming zeeland'
p2343
aS'body keep producing acne can\xe2\x80\x99t focus important things like growing wings making'
p2344
aS'sometimes check messages make sure still none'
p2345
aS'forget even school'
p2346
aS'walking outside like'
p2347
aS'cant even past level candy crush'
p2348
aS'zeeland public schools school board'
p2349
aS'chirp'
p2350
aS'spun sunday night even minutes getting work better school tomorrow probs dead'
p2351
aS'whaaaa'
p2352
aS'outside loud subs stfu please'
p2353
aS'well dont hate cause aint'
p2354
aS'favorite tweet automatically think think attractive agree yeah'
p2355
aS'many people pregnant babies'
p2356
aS'list sweg'
p2357
aS'missed break'
p2358
aS'cousins'
p2359
aS'havent school since 19th'
p2360
aS'chicks think youre stalking instagram like reality havent looked good'
p2361
aS'glad school'
p2362
aS'thinking going outside today dont'
p2363
aS'faces make'
p2364
aS'well going hibernate'
p2365
aS'wanna change belly ring cant another month'
p2366
ag25
aS'chuck cheese call morning thinking come'
p2367
aS'don\xe2\x80\x99t babies restaurants like nigga cryin there\xe2\x80\x99s food around rejoice'
p2368
aS'surviving antarctica'
p2369
aS'team sleep'
p2370
aS'know youre happy'
p2371
aS'seriously wanna friends gotta message saying friends like friend'
p2372
ag25
aS'look walking around school'
p2373
aS'many questions'
p2374
aS'current mood'
p2375
ag25
aS'even best fall sometimes'
p2376
aS'tired seeing things every single'
p2377
aS'read receipts people know ignoring'
p2378
aS'moody shake booty'
p2379
aS'liking selfie could either mean \xe2\x80\x9cthat\xe2\x80\x99s nice picture friend\xe2\x80\x9d want bend table\xe2\x80\x9d you\xe2\x80\x99ll'
p2380
aS'mood deep conversation theres nobody'
p2381
aS'doctors detroit dont snowday atleast everyone else know'
p2382
aS'secretly like getting assigned seats school takes away awkward friends class'
p2383
aS'together'
p2384
aS'girls upload photos boyfriend kissing'
p2385
aS'please tell real'
p2386
aS'pretty much'
p2387
aS'wish college easy payments 1999'
p2388
aS'insult probably agree'
p2389
aS'text like text forever'
p2390
aS'wanna complain tweets tomorrow night highly suggest give break twitter couple'
p2391
aS'krabby patty secret formula heroine'
p2392
aS'sister called loner cause texting anybody sorry'
p2393
aS'whose watching bachelor orrrrr'
p2394
aS'victoria secret take'
p2395
aS'plus football tweets'
p2396
aS'throw phone window tweets bachelor'
p2397
aS'meanwhile michigan'
p2398
aS'boner garage'
p2399
aS'white girl selfie'
p2400
aS'mood depends good hair looks'
p2401
aS'mean don\xe2\x80\x99t social life went grocery shopping'
p2402
aS'life'
p2403
aS'congrats'
p2404
aS'thing done today productive play sims even'
p2405
ag25
aS'obsessed sponge ones monsters university'
p2406
aS'preach'
p2407
aS'fault'
p2408
aS'mood olive garden breadsticks'
p2409
aS'screw school going dealer offer many types pots kitchen utensils'
p2410
aS'snow selfie'
p2411
aS'understand another stfu'
p2412
aS'like antarctica outside'
p2413
aS'currently michigan'
p2414
aS'went michigan woke alaska'
p2415
aS'hell supposed tomorrow another snow'
p2416
aS'knew disney real'
p2417
aS'basically response everything'
p2418
aS'zeeland doesnt need another snow half guys probably already getting pregnant'
p2419
aS'really nothing'
p2420
aS'know outside chuck cheese closes middle'
p2421
aS'leggings life'
p2422
aS'head work tomorrow michiganprobz'
p2423
aS'nudes nash grier cameron'
p2424
aS'indirect nash grier nudes'
p2425
aS'senior quote nudes'
p2426
ag25
aS'update requires restart laptop update never getting installed'
p2427
ag25
aS'michigan winters true'
p2428
aS'michiganproblems south cant handle snow'
p2429
aS'pilot speaking\xe2\x80\xa6\xe2\x80\xa6fuck'
p2430
asS'2014_3'
p2431
(lp2432
S'want date bigger chuck cheeses'
p2433
aS'chuck cheeses worth billion still getting paid cents minimum wage cecprobs'
p2434
ag25
aS'even phone nobody texts anyways'
p2435
aS'people reply super fast favourite kind people'
p2436
ag25
aS'simple answer everything usually'
p2437
aS'doesnt like'
p2438
ag25
aS'pizza chuck cheese beyond delicious'
p2439
aS'period hate period hate'
p2440
aS'want relationship like'
p2441
aS'everyones posting theres something zeeland tonight congrats getting wasted zeeland proud'
p2442
aS'boys dont wear pair leggings everyday'
p2443
ag25
aS'leggings arent pants'
p2444
aS'movie carrie holy shit'
p2445
aS'craving ihop'
p2446
aS'this\xf0\x9f\x98\x82'
p2447
aS'cute'
p2448
aS'pretty girls instagram'
p2449
aS'funnyyyy'
p2450
aS'better paying money'
p2451
aS'hahahaha'
p2452
aS'crazy saturday night'
p2453
aS'need stop spending checks victorias secret'
p2454
aS'sometimes life survive keep going like'
p2455
aS'even going senior prom noragrets'
p2456
aS'done anal chuck cheese ball lmao'
p2457
aS'long week finally texting back'
p2458
aS'know lost parents trust tells tracking phone'
p2459
aS'cant'
p2460
aS'senior year seems pointless youve already accepted colleges'
p2461
aS'know youre spill taco juice steeling wheel somehow window'
p2462
aS'puddle youre wearing shoes'
p2463
aS'think thats personal issue'
p2464
aS'yesterday work little girl came told balls stuck like'
p2465
aS'imagine waking birthday'
p2466
aS'girl seriously cook cookies dashboard'
p2467
aS'right'
p2468
aS'girl wants valentines'
p2469
aS'childhood'
p2470
aS'famous would knock peoples doors like hello'
p2471
aS'supposed pizza without drink'
p2472
aS'somebody actually asks hang friday night'
p2473
aS'basically home work working since back tomorrow'
p2474
aS'used ringtones'
p2475
aS'everyone'
p2476
aS'hate change falls pocket'
p2477
aS'order pretty face'
p2478
aS'physics exam hour'
p2479
aS'cant beileve craigslist saying someone finds lmao'
p2480
aS'quit tweeting youre crying cause boyfriend month broke obsessed much damn'
p2481
aS'happen february'
p2482
aS'haven\xe2\x80\x99t said something extremely sexual probably aren\xe2\x80\x99t good friends'
p2483
aS'shit want texting back imessage text week isnt good enough punishment'
p2484
aS'good thing tomorrow exactly'
p2485
aS'coats zumiez'
p2486
aS'tell people text work forget oops sorry'
p2487
aS'take really good selfie sorry\xe2\x80\xa6 sorry'
p2488
aS'pissed cause stole today lmao fuck maybe shouldnt wear damn everyday'
p2489
aS'class wonder teachers slut'
p2490
aS'feels good sleep late'
p2491
aS'never cared someone much care'
p2492
aS'endless thoughts night'
p2493
aS'baths escape'
p2494
aS'stomach fucking stutter'
p2495
aS'slut much'
p2496
aS'failed exam'
p2497
aS'girlfriend doesnt mean post woman candy wednesday every week'
p2498
aS'bouquet underwear victorias secret valentines would perfect'
p2499
aS'next friends'
p2500
aS'school selling flowers valentines passing hour shit none'
p2501
aS'people dont understand joking time'
p2502
aS'become pretty'
p2503
aS'still texting struggle'
p2504
ag25
aS'kidding dont even size bikini tops'
p2505
aS'even look victorias secret swim suits beyond know wont even'
p2506
aS'trying flirt'
p2507
aS'bras come today'
p2508
aS'creepy talk'
p2509
aS'school'
p2510
ag25
aS'today cause pretty probs looks huge work pants'
p2511
aS'supposed 1020'
p2512
aS'minute accounting prime'
p2513
aS'feel eyes slowly shutting'
p2514
aS'every morning alarm goes school'
p2515
aS'sending girl text says good morning beautiful change attitude whole'
p2516
aS'dream nash grier'
p2517
aS'bury heart taco bell'
p2518
aS'could fall asleep thatd great'
p2519
aS'always wanted girls everyone like shes beautiful hahahahahaha life thatll never happen'
p2520
aS'someone explain onlyatzeeland'
p2521
aS'stop world melt'
p2522
aS'havent threatened beat crap atleast congratulations youre shit list'
p2523
aS'can\xe2\x80\x99t wait married like sleepover every night best friend'
p2524
aS'pedal exam version slow grab pencil study like youre trying reach full potential pass exams'
p2525
aS'congrats boyfriend sends long text messages stop posting understand'
p2526
aS'better like early birthday present tomorrow\xf0\x9f\x98\x8a'
p2527
aS'evry fukn tiem'
p2528
aS'asked prom thatd cool'
p2529
aS'couples hallway like'
p2530
aS'nice people morning'
p2531
aS'regret decision soon walk school'
p2532
aS'well thought probably look good week todays going wearing jeans'
p2533
aS'current mood'
p2534
aS'whoever gets chocolate best friend life maybe massage legs'
p2535
aS'dropping school become full time piece shit'
p2536
aS'died little inside cause thought spider'
p2537
aS'anyone tried texting restricted phone still imessage'
p2538
aS'well english paper wont write'
p2539
aS'mood boxes cheese'
p2540
aS'heated blanket prime\xf0\x9f\x91\x8c'
p2541
aS'ladies wont getting goodnight text tonight either'
p2542
aS'extremely tough time falling asleep moment thats wanna'
p2543
aS'ready monday'
p2544
aS'prank stand middle class school keep running turn back start life'
p2545
ag25
aS'dont compare anyone'
p2546
aS'want know ocean leaks eyes time time'
p2547
aS'friend wanna hang sometime week sorry busy friend never said'
p2548
aS'dream relationship'
p2549
aS'says dinner ready'
p2550
aS'accurate'
p2551
aS'look like want write paper tonight'
p2552
aS'trying raise money bitchass away'
p2553
asS'2014_1'
p2554
(lp2555
S'finally another iphone went hopefully done buying phones'
p2556
aS'congrats ignorant holes snow wanted'
p2557
aS'court fines days short fuck'
p2558
aS'reasons mermaid periods pants perfect hair lure death also free clam'
p2559
aS'spun'
p2560
aS'feel like legs giving birth'
p2561
aS'please punch everyone says wish know better'
p2562
aS'would describe'
p2563
aS'texts'
p2564
aS'room like sauna legs crazy cramping coooooooool'
p2565
aS'yeah right might freeze whatevs'
p2566
aS'shout snow plow like fricken'
p2567
ag25
aS'please tell birthday party sunday morning church something'
p2568
aS'shes good gone good'
p2569
aS'maybe attention damn kids fiance geez'
p2570
aS'shower tweet sleep'
p2571
aS'anywhere anywhere'
p2572
aS'finally twitter major event'
p2573
aS'teacher wishes good luck test'
p2574
aS'round applause keeping conversation going longer minutes'
p2575
aS'lmao cecprobs'
p2576
aS'kidding kinda'
p2577
aS'mascara called better judge'
p2578
aS'take selfie dont realize zoomed'
p2579
aS'leggings made realize uncomfortable jeans really'
p2580
aS'week seems speed snail unless weekend snail driving ferrari'
p2581
aS'offense want fire'
p2582
aS'wish school monday'
p2583
aS'hell'
p2584
aS'threw iphone wall cool look shits give'
p2585
aS'munch made tiara'
p2586
aS'everyone zeeland immature grow hell'
p2587
aS'parents wants magic wand'
p2588
aS'guests still receive smiles death stares home cecprobs'
p2589
aS'didnt hate cops sure hell hate'
p2590
aS'going long restless night'
p2591
aS'fucking kidding'
p2592
aS'feel crabs'
p2593
aS'long good morning texts'
p2594
aS'flipagram cliff'
p2595
aS'girls rings dresses weddings tacos'
p2596
aS'working hours think fucking done everything night'
p2597
aS'might working open close today making today'
p2598
aS'heck manager'
p2599
aS'shitty thing able parking spots work fact parked street spot'
p2600
aS'perfect holy cowlt3'
p2601
aS'geez sorry good enough'
p2602
aS'troy gabriella years today'
p2603
aS'ball drops'
p2604
aS'dont gibbler drive drunk tonight'
p2605
aS'glad work morning'
p2606
aS'people tomorrow'
p2607
aS'rather look flipagram thats saying something cause ugly'
p2608
aS'mary little lamb whos fleece white snow went club night dropped hella'
p2609
aS'saying hashtag everything'
p2610
aS'youre going shitty person tomorrow past year please shut'
p2611
aS'wish times square tonight'
p2612
aS'hurry leave trip gtfo house'
p2613
aS'lets leave pants 2013'
p2614
aS'year\xe2\x80\x99s resolution less prefect'
p2615
aS'\xe2\x80\x9cjinkies lost glasses\xe2\x80\x9d velma every fucking episode scooby like damn bitch contacts'
p2616
aS'made flipagram 2013'
p2617
aS'many flipagrams insta'
p2618
aS'laughed hard'
p2619
aS'year consisted working sleeping stuffing face getting heart broken'
p2620
aS'wish wore lipstick broke boys heart daily sadly boys break heart look lipstick'
p2621
aS'remembered butthole girl'
p2622
aS'attending huge years party tonight sims'
p2623
aS'want know whats okay fault stars nothing augustus dead'
p2624
aS'bought fault stars yesterday already done reading'
p2625
aS'reminder don\xe2\x80\x99t tell facebook twitter goodnight shut fuck'
p2626
aS'deodorant girl shitting hahahahaha'
p2627
aS'feeling passed fuck'
p2628
aS'sorry replying hours please text back'
p2629
aS'fuck'
p2630
aS'moment manager takes phone hour shift finally back text life'
p2631
aS'freezing someone please cuddle fire either fine'
p2632
aS'cold heart'
p2633
aS'youre around someone long become part leave dont know with\xe2\x80\xa6'
p2634
aS'fuck would hangout youre boyfriends whatever youre ratchet'
p2635
aS'hell text'
p2636
aS'sahara desert room'
p2637
aS'return school 2014'
p2638
aS'someone ignores text'
p2639
aS'someone asks want'
p2640
aS'shout sister threw stop room carpet'
p2641
aS'time christmas years'
p2642
asS'2014_43'
p2643
(lp2644
S'wanna sleep attendance worth final grade'
p2645
aS'today wearing nice dark shade exhaustion eyes'
p2646
aS'people tell many calories something'
p2647
aS'boyfriend says shit bitch bdubs open'
p2648
aS'boyfriend flowers teddy bear delivered house'
p2649
aS'also illegal required class birthday'
p2650
aS'illegal sick birthday'
p2651
aS'forgot real pants chef pants seriously'
p2652
aS'really lotto ticket minutes midnight cause finally'
p2653
aS'screw sick hour class night'
p2654
aS'straighten hair'
p2655
aS'tired school wanna quit future tough life'
p2656
aS'class ends today'
p2657
aS'survive hours high school barely make hour class'
p2658
asS'2014_42'
p2659
(lp2660
S'life lesson never mcdonalds'
p2661
aS'ready monday'
p2662
aS'accidentally forgetting headphones home like accidentally leaving first born child gates hell'
p2663
aS'even eyeliner'
p2664
aS'walks room school night'
p2665
aS'sober friend trying leave party'
p2666
aS'realize wait june season'
p2667
aS'hungry taking bath take toaster'
p2668
aS'youre sober drag drunk friend home'
p2669
aS'nobody fucking helps house'
p2670
aS'shout straightener breaking halfway straightening hair'
p2671
aS'white people dollar general sure feel'
p2672
aS'thought best kind movie theatre ever gonna multi millionaire'
p2673
aS'whats even point college cant find someone take shoes'
p2674
aS'truth dare dare order pizza'
p2675
aS'hate cause didnt neck chiropractor appointment'
p2676
aS'hows semester going'
p2677
aS'cant wait till tuesday betchya getting triple forward helix piercing nose pierced celebrate bitches\xf0\x9f\x8e\x89'
p2678
aS'someone outside playing penis game yells window penis anymore'
p2679
aS'mind blown found bedroom windows house open sides applause'
p2680
aS'looking grades like'
p2681
aS'sour patch giving sour patch head'
p2682
aS'dont leave rolls toilet paper sink house bathroom butt naked closet'
p2683
aS'bathroom commercial break hear show come back'
p2684
aS'girl class told hairs really cute thanks yesterday night'
p2685
aS'shit night classes girl smacking weave'
p2686
aS'class hasnt even started annoying bitch last week wont shut'
p2687
aS'college'
p2688
aS'yessss'
p2689
aS'miss went weeks'
p2690
aS'whys everyone leaving weekend isnt thanksgiving weekend shit'
p2691
aS'youre already clock boss asks favor'
p2692
asS'2014_41'
p2693
(lp2694
S'typical white girl cause hate pumpkin spice hate coffee never liked halloweentown'
p2695
aS'might need pepper spray holy water'
p2696
aS'always thought hear sirens outside house remember live next fire station'
p2697
aS'college youre sure whether youre scared check blackboard bank account'
p2698
aS'must tall house wifi signal'
p2699
aS'didiask'
p2700
aS'headphones dont talk headphone dont talk headphones dont talk'
p2701
aS'nice sweater whered thanks closet'
p2702
aS'teacher power point theres animation mouse jumping humping head'
p2703
aS'shit class'
p2704
aS'slim fast like throw fast'
p2705
aS'college life chili travel'
p2706
aS'never realize badly messed high school time apply college'
p2707
aS'always drive without closing tank damnit kelsey'
p2708
aS'attention class'
p2709
aS'everyday midget midget sighting like bird watching'
p2710
aS'passing living room floor hours pretty great'
p2711
aS'wheelie backpack'
p2712
aS'miss coming friday youre anything take'
p2713
aS'real friendship friend comes house take'
p2714
aS'whats wheelie backpacks year college school'
p2715
aS'girl math class ever shut'
p2716
aS'took laptop math homework instead watching netflix damnit tried'
p2717
aS'dream check 2000 bummer woke'
p2718
asS'2014_40'
p2719
(lp2720
S'lesson keep kelsey away windows'
p2721
aS'every morning alarm goes school'
p2722
aS'feeling school tomorrow ever'
p2723
aS'bought cutest boots yesterday love wallet hates'
p2724
aS'police officers pulled another police officer'
p2725
aS'heated seats amazing'
p2726
aS'nice back yearbook sparta'
p2727
aS'good morning bitchesssss october3rd'
p2728
aS'math'
p2729
aS'teacher talks shops guess college like'
p2730
aS'class already dropped bomb front teacher'
p2731
aS'starting exercise idiot cant walk campus exercising pains'
p2732
aS'driving muskegon night kinda really ghetto'
p2733
aS'amount times booked house randomly today'
p2734
aS'moved home week already gained freshman'
p2735
aS'flip'
p2736
aS'adventures laundromat'
p2737
aS'yelling window wide open instead falling straight window missed window fell'
p2738
aS'time class debate dropping'
p2739
aS'college math class literally questions like waste hours waste money thats sure'
p2740
asS'2014_44'
p2741
(lp2742
S'boyfriend left note ring bathroom morning'
p2743
aS'heck yeahhhh'
p2744
aS'needs stop talking'
p2745
aS'trying pull semester like'
p2746
aS'plans tonight'
p2747
aS'boyfriend took olive garden tonight'
p2748
aS'minutes class teacher still hasnt said word tell'
p2749
aS'wearing pigtails college first grade'
p2750
aS'miss last step stairs'
p2751
aS'enjoy weather today friday might snow michiganprobz'
p2752
aS'free cookie dough ouija board like gonna bake cookies satan'
p2753
asS'2014_9'
p2754
(lp2755
S'dear every girl school'
p2756
aS'march already wasnt years like last week'
p2757
aS'whats weekend cecprobs'
p2758
aS'sending prayer working month cecprobs'
p2759
aS'tweetyourlifeinapicture'
p2760
aS'sitting lunch friends'
p2761
aS'like sorry never wear jeans'
p2762
aS'someone asked ever wear pants'
p2763
aS'life chuck'
p2764
aS'keep dreamin even breaks heart'
p2765
aS'every storm runs rain'
p2766
aS'macaroni spicy chicken strips'
p2767
aS'pandora commercials middle country music thats'
p2768
aS'tells goodnight told setting alarm morning sorry sorry really feelin'
p2769
ag25
aS'country music late night best'
p2770
aS'know teacher doesnt give shit turn page paper week late less pages still'
p2771
aS'control something controls free things take natural'
p2772
aS'almost swimsuit season like'
p2773
aS'wednesday hear crying'
p2774
aS'little scared things really worth saying'
p2775
aS'shout whoever drop cheeto shirt chill boobs'
p2776
aS'personality varies unbearably clingy disturbingly distant inbetween'
p2777
aS'dont wanna awake'
p2778
aS'want relationship everyone like damn theyre still together'
p2779
aS'mystery person please clean snow'
p2780
aS'slice keeps away'
p2781
aS'well thats cool'
p2782
aS'taco bell life'
p2783
aS'well minutes turn word paper lets'
p2784
aS'hurry slow'
p2785
aS'know youre tired realize youre cleaning bathroom grease cutter instead sanitizer'
p2786
aS'anxiety attacks drive next semi truck closed'
p2787
aS'shits goin physics'
p2788
aS'thank goodness teacher wasnt class today cause didnt minute presentation today'
p2789
aS'feeling whole minute presentation tomorrow'
p2790
aS'worst kind couples'
p2791
asS'2014_29'
p2792
(lp2793
S'hate pouring cereal handbag'
p2794
aS'dont want want paychecks'
p2795
aS'healthy'
p2796
aS'fergie allthetimeicomearoundbrothersgatherroundalwayslookinatmeupanddownlookinatmyuhhhhh'
p2797
aS'imagine great life would pizza made skinny'
p2798
aS'hate netflix stop asks still watchin like think started doin somethin life bitch\xe2\x80\xa6'
p2799
aS'mood receive check nine hundred thousand dollars also bags sour gummy worms'
p2800
aS'sends cute text'
p2801
ag25
aS'work still pajamas hair soaking'
p2802
aS'friend done summer traveled'
p2803
aS'realise summer half'
p2804
aS'every party'
p2805
asS'2014_28'
p2806
(lp2807
S'watching riolive2014 story like'
p2808
aS'check bank account'
p2809
aS'yesterday drive thru asked want hard soft like hard completely lost'
p2810
aS'school picture'
p2811
aS'went chuck cheese asked manager goes somebody actually wants work ouch'
p2812
aS'imattractedto guys protective tall sweet cute smell good give good hugs like'
p2813
aS'yelling chores youre already chores youre like'
p2814
aS'havent home week found potato chip'
p2815
aS'relationship goals'
p2816
aS'yesterday working chuck cheese anymore'
p2817
aS'hours mall america isnt enough like years'
p2818
aS'college like housing 2980 meal plan 1457 books 2429 enrollment 3274 grass 4284 sidewalk'
p2819
asS'2014_21'
p2820
(lp2821
S'awkward moment youre drive thru cant find debit card'
p2822
aS'welllll idiot'
p2823
aS'relationship goals'
p2824
aS'manager lets work early thinking friends'
p2825
aS'shots head great start summer'
p2826
aS'days fault stars'
p2827
aS'today learned jeans right come dryer metal buttons burn shit legs'
p2828
aS'relationship like'
p2829
aS'finally going long best feeling ever'
p2830
aS'mean muggin fishin'
p2831
aS'wanna jump building relieve stress slamming onto sidewalk slur\xe2\x80\xa6'
p2832
aS'week june going amazing birthday bash weekend fault stars comes'
p2833
aS'perfect'
p2834
aS'going heart attack waiting movie'
p2835
aS'this\xf0\x9f\x98\x82'
p2836
aS'mean guess pants work'
p2837
aS'wishing remembered turn ipad charger yesterday cause gotta drive drop'
p2838
aS'cops'
p2839
aS'sisters grade camp breakfast thing asks middle school like'
p2840
aS'tuesdays pretty little liars returns'
p2841
aS'always sleep hours right school'
p2842
aS'even right attractive luke bryan'
p2843
aS'bird flew window thats waking dang early weekends chirping'
p2844
asS'2014_20'
p2845
(lp2846
S'still really sure feel tuesday last highschool'
p2847
aS'always dreams tornadoes'
p2848
aS'cannot wait fault stars'
p2849
aS'know sitting claire listens bird calls'
p2850
aS'weather like tues thurs chance snow'
p2851
aS'people said senior year flies werent kidding'
p2852
aS'want someone actually gives shit treats like matter months'
p2853
aS'hungry howies'
p2854
aS'need right also five hundred thousand dollars cash'
p2855
aS'foot massage much needed'
p2856
aS'amount clothes shit back makes look like live'
p2857
aS'late night drawing pandora'
p2858
aS'every time someone says highschool best four years life vomit little'
p2859
aS'sleeping since still exhausted\xc2\xbf\xc2\xbf'
p2860
aS'heated blanket'
p2861
aS'witnessed little freshman tell eachother like eachother lifes joke'
p2862
aS'finally find bikini fits\xf0\x9f\x98\x83 bigboobprobs'
p2863
aS'showers loud music reason slightly enjoy life'
p2864
aS'wish could boys perspective'
p2865
aS'basically'
p2866
aS'trying dress stuck huge panic attack'
p2867
aS'without headphones theres probably something terribly wrong going'
p2868
aS'honestly best transformation tuesday ever tomorrow wait'
p2869
aS'gonna best weekend life'
p2870
aS'teacher passing back papers looked mine answers something theyre poor effort right'
p2871
aS'motivation school anymore looking forward summer nights able sleep till'
p2872
aS'want home watch movies night'
p2873
aS'driving texting dangerous guarantee potholes michiganprobz'
p2874
aS'wanna dressed nice date'
p2875
aS'well interior design project shows much really dont care anymore'
p2876
aS'brain finals week'
p2877
aS'honest really dont give fuck lose friends make friends make enemies everyday regardless still\xe2\x80\xa6'
p2878
aS'past bedtime still badass'
p2879
aS'throws shovel problems'
p2880
aS'well olive gardens valentine year whos real winner'
p2881
aS'walk living room dads listening eminem'
p2882
aS'movie going break million tiny pieces'
p2883
aS'shaving season back mentally prepared amount effort task takes'
p2884
asS'2014_23'
p2885
(lp2886
S'last week back like normal cool'
p2887
aS'getting ready fault stars'
p2888
aS'three year olds death'
p2889
aS'would spill buffalo sauce laundry room'
p2890
aS'kinda want kinda want'
p2891
aS'watch fault stars'
p2892
aS'right people bitching exams'
p2893
aS'best part wearing pants everything'
p2894
aS'cops paid store visit least cecprobs'
p2895
aS'cover dark circles'
p2896
aS'days heart ripped chest'
p2897
aS'story life'
p2898
aS'whenever refresh tweeting'
p2899
aS'flat stomach summer'
p2900
aS'ends every piece advice though\xe2\x80\x9d fault ruin life'
p2901
ag25
aS'fault stars comes friday pretty little liars starts tuesday'
p2902
aS'check rule makes feel like caged animal cecprobs'
p2903
ag25
aS'realist shit seen'
p2904
aS'plan adult'
p2905
aS'people nasty habit annoying'
p2906
aS'incomingfreshmanadvice'
p2907
aS'think ugly without makeup youre right'
p2908
aS'pizza always tells truth'
p2909
aS'date would'
p2910
aS'let\xe2\x80\x99s take minute thankful bugs aren\xe2\x80\x99t size'
p2911
asS'2014_22'
p2912
(lp2913
S'june national doughnut save life'
p2914
aS'shampoo bottles weigh hardly anything drop shower turn meteor'
p2915
aS'build snowman'
p2916
aS'saturday nights'
p2917
aS'hungry'
p2918
aS'girls trying summer bodies like'
p2919
aS'turnt watching middle night laying heated blanket'
p2920
aS'days heart ripped chest'
p2921
aS'seem like asshole deep good person even deeper bigger asshole'
p2922
aS'grandma still single'
p2923
aS'tomorrow june means fault stars jump street season season teen'
p2924
aS'perfect date would'
p2925
aS'asian nothing'
p2926
aS'reason happy june tomorrow'
p2927
aS'cant hangout battery life left'
p2928
aS'well getting ready still hitting graduating hours'
p2929
aS'almost said screw went back sleep remembered graduation practice mandatory'
p2930
aS'accurate'
p2931
aS'people treat like treat'
p2932
aS'kinda wanna catfished meet catfish'
p2933
aS'sorry bitch deserve'
p2934
aS'dont even follow shit pops feed time'
p2935
aS'wonder'
p2936
aS'family members boyfriend'
p2937
aS'doesnt like comments'
p2938
aS'went whole thinking sunday'
p2939
aS'eating cream wearing pants life graduating high school'
p2940
aS'sing'
p2941
aS'arent friends anymore\xe2\x80\x9d'
p2942
aS'graders'
p2943
aS'whatever people thats'
p2944
aS'hate watching shows week season kind person'
p2945
asS'2014_25'
p2946
(lp2947
S'brand 16th birthday graduating youre probably spoiled shit'
p2948
aS'waiting season like'
p2949
aS'manager asked quiet tonight took favorite coworker away fridays thats'
p2950
aS'work fake cakes sprinkles smart kelsey decides sprinkle realizes fake'
p2951
aS'kelsey scared shes coming hide basement'
p2952
aS'pathetic'
p2953
aS'shitting courtneys storms'
p2954
aS'sister woke middle sleep eating chicken alfredo asked wanted looked like'
p2955
aS'youre watching netflix long think youre watching anymore'
p2956
aS'know subtweet'
p2957
aS'nice person hate'
p2958
aS'story life'
p2959
aS'reminder'
p2960
aS'recent studies show hate everything'
p2961
aS'youre bitch'
p2962
aS'people complain driving'
p2963
aS'talents eating'
p2964
asS'2014_24'
p2965
(lp2966
S'john green ruined life slowly'
p2967
aS'tacos tacos'
p2968
aS'selfies work'
p2969
aS'realizing leave work soon makes want'
p2970
aS'girl told shes going like shes senior said response going bitch everyone'
p2971
aS'marathons netflix'
p2972
aS'needs friday 13th luck naturally'
p2973
aS'10pm'
p2974
aS'burning time consuming'
p2975
aS'snapchat stories everything werent invited'
p2976
aS'please touch sunburn'
p2977
aS'maybe tomorrow'
p2978
aS'someone hate'
p2979
aS'pretty little liars comes tonight life starts'
p2980
aS'friend threw sunday took b93bash'
p2981
aS'tonight couldnt come faster'
p2982
aS'netflix going slow come buddy'
p2983
asS'2014_27'
p2984
(lp2985
S'forgot going mall america tomorrow'
p2986
aS'describeyoursummerinonepicture'
p2987
aS'foot long charger really comes handy'
p2988
aS'could take charger half around world'
p2989
aS'everyone care mature maybe like drinking juice boxes eating popcorn like lizard'
p2990
aS'probably spend sprinting laps around pretending wipeout'
p2991
aS'days finally made north dakota'
p2992
aS'still cant believe quit chuck cheese'
p2993
aS'today augustus waters died'
p2994
aS'waiting orange black theme song'
p2995
aS'someones snapchat seconds long'
p2996
aS'neck back netflix snacks'
p2997
aS'need clothes enough already'
p2998
aS'know work pizza place realize morning worked pizza sauce'
p2999
aS'texting twitter tweeting'
p3000
aS'come pictures storm'
p3001
aS'wish could block people real life'
p3002
ag25
asS'2014_26'
p3003
(lp3004
S'accidentally drop phone face'
p3005
aS'basically'
p3006
aS'face'
p3007
aS'someone slaps sunburn'
p3008
aS'order something online finally comes'
p3009
aS'swimming night best'
p3010
aS'manager chuck cheese happy weeks cause hangout'
p3011
aS'writing essay trying bullshit make word count'
p3012
aS'like tired'
p3013
aS'weigh could fire roll broken glass feel'
p3014
aS'little wanted grow disney princess pretty sure became yzma'
p3015
aS'bought pounds mampms better hide'
p3016
aS'well slept away work fuck'
p3017
aS'heard talkin shit'
p3018
aS'someone screen shots ugly snapchat'
p3019
aS'best scene jump street'
p3020
aS'think bottomless stomach tonight froyo hungry howies pretzel taco bell within hours'
p3021
aS'sees friends shopping'
p3022
aS'nails'
p3023
as.