(dp0
S'2013_42'
p1
(lp2
S'also setting home studio soon aswell immense'
p3
aS'last night ever performing'
p4
asS'2013_43'
p5
(lp6
S'fuck'
p7
asS'2013_41'
p8
(lp9
S'although first hedgehog today bigchild'
p10
aS'seriously thursdays seeing severly upsetting item animals'
p11
asS'2012_49'
p12
(lp13
S'think'
p14
aS'already'
p15
aS'imagine chrome tattoo'
p16
aS'naked'
p17
aS'remember'
p18
aS'twitter sucks idea think referring picture'
p19
aS'shit respect'
p20
aS'also chavsoya know'
p21
aS'know'
p22
aS'stole'
p23
aS'dont belong gotta move escape afterlife'
p24
aS'slipknot snuff'
p25
aS'take three winks hands money eats'
p26
aS'push'
p27
aS'happening selftitled album april 2013 also happens grandparents weddin'
p28
aS'finally seen coca cola advert'
p29
aS'chocolate digestives'
p30
aS'blessthefall quite good'
p31
aS'uhwaiting line'
p32
aS'everyone cocacola advert except'
p33
aS'multi coloured dragon'
p34
aS'imagine chrome tattoo'
p35
aS'grand theft auto four lost damned'
p36
aS'pour sugar sugar'
p37
aS'look'
p38
aS'interesting experience'
p39
aS'damn auto correct meant eeeppp'
p40
aS'operation poll'
p41
aS'alot work'
p42
aS'proud'
p43
aS'spell tomorrow right'
p44
aS'operation tomorrow'
p45
aS'scouts'
p46
aS''
p47
aS'urgh sick sickhly terrible'
p48
aS'homesick good album'
p49
asS'2012_29'
p50
(lp51
S'love need someone'
p52
aS'dont people call music aint music computer generated noise'
p53
aS'jumped aswell plastic tooth'
p54
aS'constantly stupid things hurt like trying jump swining swing remember'
p55
aS'tshirt'
p56
aS'shoutout first followers'
p57
aS'iguanas commit suicide'
p58
ag47
ag47
aS'aint veggie'
p59
aS'laptop'
p60
aS'meant bowl cereal lost 20kg decided beans toast instead'
p61
aS'freckin scary'
p62
aS'left grill long thank goodness smoke alarm'
p63
aS'nearly burnt house'
p64
aS'gonna lose 20kg summer'
p65
aS'scary milf'
p66
aS'still scares'
p67
aS'aaww'
p68
aS'shes milf'
p69
aS'followers'
p70
aS'momma'
p71
ag47
aS'omegal pussy version chat roulette'
p72
ag47
aS'yous trampoline'
p73
aS'join black veil brides\xe2\x80\x99s official list receive news events'
p74
aS'scary aint supposed happen'
p75
asS'2012_45'
p76
(lp77
S'consider starting revise gcse tomorrow'
p78
aS'like'
p79
aS'like'
p80
aS'damn nuclear fallout'
p81
aS'nuclear fallour'
p82
aS'barry didnt show give lift'
p83
aS'heard explorers good last night damn'
p84
aS'aint even started'
p85
aS'late'
p86
aS'possibly possibly'
p87
aS'extreme crash diet come'
p88
aS'requiem'
p89
asS'2012_44'
p90
(lp91
S'bona'
p92
aS'love game'
p93
aS'getting scooter today'
p94
aS'tell likes'
p95
aS'poision'
p96
aS'damned damned dont'
p97
asS'2012_47'
p98
(lp99
S'youre getting arrow knee riding horse across afghanistan'
p100
aS'today'
p101
aS'feel like monster'
p102
aS'range increased woop'
p103
aS'twitter quiet'
p104
aS'ooohhhh'
p105
ag47
aS'twitters quiet today'
p106
asS'2012_46'
p107
(lp108
g47
aS'pfft'
p109
ag47
aS'wait help helium'
p110
aS'right helium breathe float wont kill'
p111
aS'work getting helium body'
p112
aS'even helium'
p113
aS'could dead body take organs fill helium maybe maybe could'
p114
aS'lung capacity isnt great enough squeaky voices almost good floating'
p115
aS'band finished goes stage'
p116
aS'youre fucking nightmare'
p117
aS'cant wait read rest game thrones good'
p118
aS'cause good game'
p119
aS'text'
p120
aS'immature cunt think annoys also fucking retarded'
p121
aS'three late homeworks load bollocks'
p122
aS'school detention result unable attend'
p123
aS'miss scouts'
p124
aS'total wipeout'
p125
aS'alcohol cause hangover cheese cause mine'
p126
aS'swear headphones tangle'
p127
asS'2012_41'
p128
(lp129
S'happened'
p130
aS'amanda todd'
p131
aS'dmtext'
p132
aS'yesh quite disgusting'
p133
aS'remember problem toes'
p134
aS'need surgery damn'
p135
aS'must album pretty good dontpanic'
p136
aS'another death walking dead'
p137
aS'belfastdublin nnnnnnooooo'
p138
aS'today already turning'
p139
aS'wake bvbworldtour2013 dates'
p140
asS'2012_40'
p141
(lp142
S'good'
p143
aS'scooter'
p144
aS'many people walking undead'
p145
aS'good need surgery'
p146
aS'really pissed miss xplorers tonight'
p147
aS'barely walk today'
p148
aS'spare time turn sink'
p149
asS'2012_43'
p150
(lp151
S'jeans superman belt'
p152
aS'heard black veil bridesin'
p153
aS'presidential debate quite good'
p154
aS'words choke upon'
p155
aS'must music composition coming nicely'
p156
aS'person fucked peggy mitchell arsehole sucked mitchell\xe2\x80\x9d google'
p157
asS'2012_42'
p158
(lp159
S'walking dead season'
p160
aS'away oxford island today weather'
p161
aS'someone belfast hung cruel dicks'
p162
aS'also happy birthday'
p163
aS'hair dryers useful'
p164
aS'hair dryers favourite thing'
p165
asS'2013_24'
p166
(lp167
S'since citybeat play good music green'
p168
aS'people need tweet'
p169
aS'planning gosford tomorrow hopefully'
p170
aS'coming belfast infamous tour september whooo'
p171
aS'looks sick'
p172
asS'2013_25'
p173
(lp174
S'despises jamies world'
p175
asS'2012_35'
p176
(lp177
S'whats point knives forks whats point living'
p178
aS'dont blink wont even miss'
p179
aS'forgot telescope'
p180
aS'gave challenge listening mcrs danger days whole really hard'
p181
aS'also everyone likes'
p182
aS'better making know know related nicest things'
p183
aS'grandad'
p184
aS'mention build house neighbours house wanted even many people'
p185
aS'every hour lessons bought violin also guitar bought sound spoilt'
p186
aS'pays basically everything music lessons hour plus organ church pushed even sets back'
p187
aS'uncertain long better safe sorry grandad best bought pianos past years'
p188
aS'grandad'
p189
aS'maths physics'
p190
aS'getting maths gcse physics aswell damn'
p191
aS'google'
p192
aS'make sure mode'
p193
aS'dont mess properly'
p194
aS'sweet gonna jailbreak'
p195
aS'bout time model'
p196
aS'bored'
p197
aS'pastaaaaaaa'
p198
aS'rowling stated lord voldemort pronounced without'
p199
aS'anything'
p200
aS'bieber biersack'
p201
aS'seen deathly hallows part best movie'
p202
aS'idec think farming simulator 2012 best games iphone'
p203
aS'took hours upload video minutes download'
p204
aS'jake'
p205
ag47
aS'long'
p206
aS'something'
p207
asS'2013_20'
p208
(lp209
g47
aS'xbox revel console tuesday cant wait store maybe picture better sony anyway'
p210
aS'phone also remote'
p211
aS'seriously hate jackass everyone really starting tonwonder whats point'
p212
aS'every obstacle farewell friend'
p213
aS'farewell friend'
p214
aS'last full iphone survived years original screen intact worthy opponent succeeded'
p215
aS'getting contact lenses today preparing pain'
p216
aS'fuck looking'
p217
aS'america'
p218
aS'fuck first breakdown fucking raining'
p219
asS'2013_21'
p220
(lp221
S'paramore'
p222
aS'whooo back future'
p223
aS'nice xbox actually showed console'
p224
aS'used falling reverse alone feel disgusted ronnie feel sorry band members fuck'
p225
asS'2013_22'
p226
(lp227
S'mums allowing tattoo condition hair'
p228
aS'remebered game thrones tonight'
p229
asS'2013_23'
p230
(lp231
S'theres much blood'
p232
aS'holy shit gameofthrones'
p233
asS'2012_27'
p234
(lp235
S'love black veil brides want follow'
p236
aS'watching park niki manaj whatever hell shes called cant sing note even better'
p237
aS'days till bvbs album guys whos gunna georgia'
p238
aS'lovefilm cards months free wants'
p239
aS'stoichiometric ratio methane'
p240
aS'agree'
p241
ag47
ag47
aS'pulled scarf neck magic'
p242
aS'thats fuck gonna throw'
p243
aS'nuts'
p244
aS'time luke caps voice'
p245
aS'aint word tuesday'
p246
aS'physical letters stand attending lukes brothel'
p247
aS'matt'
p248
aS'baby hippo'
p249
ag47
ag47
aS'slapper'
p250
aS'damn right'
p251
aS'expecting another important'
p252
aS'wrong time gtlt'
p253
aS'tweet came phone'
p254
aS'scared crap outta'
p255
aS'follow'
p256
aS'nnnnoooo'
p257
aS'name'
p258
aS'blueberry hazelnut flavored pringles really exist'
p259
aS'tomyfuturekids dare turn jackass recently enoubloodyough'
p260
aS'feel qampa session went keep'
p261
aS'claims fighter fighter doesnt quit hears bell havent heard bell'
p262
aS'someonebrandnew seth green previous superstar'
p263
aS'please keep family friend steven prayers thoughts hospital problems'
p264
aS'played believed lied youre backstabber youre nothing'
p265
aS'youve lost everyone really hope worth'
p266
asS'2012_26'
p267
(lp268
S'dislike hurt alot people probly know cant bring self hate damn'
p269
asS'2012_24'
p270
(lp271
g47
asS'2013_28'
p272
(lp273
S'monsters good movie'
p274
aS'star wars episode tampon replaceawordinamoviewithtampon'
p275
aS'anyone like nelson'
p276
aS'scale pumpernickel drunkhigh'
p277
aS'give'
p278
aS'fuck'
p279
aS'aaww'
p280
aS'text eachother guys haha'
p281
aS'spent like half hour playibg club penguin warm anything else'
p282
aS'fucking warm'
p283
aS'filming season game thrones begins today wwwwoooooo'
p284
asS'2013_29'
p285
(lp286
S'climbing mountains'
p287
aS'shit'
p288
aS'fair enough hahaha'
p289
aS'climb mountains'
p290
aS'sounds like gonna mountains'
p291
aS'didnt even know haha'
p292
ag47
aS'thought'
p293
aS'pornhub'
p294
aS'need another operation'
p295
asS'2013_14'
p296
(lp297
S'wait paramores album tomorrow great'
p298
aS'coffee effect'
p299
aS'northern ireland proper shit hole'
p300
aS'game'
p301
aS'damn like cappuccino'
p302
aS'want dragon gameofthrones'
p303
aS'whoa magnificent speech'
p304
aS'time gameofthrones'
p305
aS'premiers tonight gameofthrones'
p306
aS'house pulled april fools thing today hmmm'
p307
asS'2012_48'
p308
(lp309
S'dont even advent calendar'
p310
aS'crawford burn'
p311
aS'christmas decorations today'
p312
aS'avengers assemble arrived today'
p313
aS'time remember scuzz'
p314
aS'training mechanic training genuine question'
p315
aS'help help crawfordsburn saturday hmmm'
p316
ag47
aS'worth'
p317
aS'laptop'
p318
aS'good counsellor sometimes feel good'
p319
aS'create account'
p320
aS'give first abuse'
p321
aS'ignore abuse'
p322
aS'first question'
p323
ag47
asS'2013_5'
p324
(lp325
S'question please'
p326
aS'place always wanted visit america plain simple'
p327
aS'gameofthrones back'
p328
aS'question dont bore'
p329
aS'question finally'
p330
aS'cooking cornflakes anything'
p331
aS'thee language coming first years pure disgrace'
p332
aS'miss'
p333
aS'waterloo road also tonight'
p334
aS'moons morning like'
p335
aS'peaches good'
p336
aS'obviously'
p337
aS'safest school'
p338
aS'within year doors busted windows broken'
p339
aS'quite annoyed'
p340
aS'damn scouts tonight'
p341
asS'2013_4'
p342
(lp343
S'found chromatography tests year pretty cool looking'
p344
aS'time look'
p345
aS'reception useless'
p346
aS'like seriously idea supposed'
p347
aS'school freaking useless'
p348
asS'2013_7'
p349
(lp350
S'dosent'
p351
aS'computer euro truck shall happy'
p352
aS'making whole thing better'
p353
aS'whole thing better'
p354
aS'week today diagnosed depression seriously friends every single even dont know'
p355
aS'starting feel sick eurgh'
p356
aS'really nice'
p357
aS'spicy tomato soup nice'
p358
aS'also dragonborn'
p359
aS'benefit without windows'
p360
aS'actually'
p361
aS'finally dragonborn half price'
p362
aS'hello brooklyn'
p363
aS'water turn white drive puddle'
p364
aS'warned'
p365
aS'better'
p366
aS'tonight twitter based thoughts particular time like diary'
p367
aS'thats good point suppose'
p368
aS'maybe actually'
p369
aS'gonna lost'
p370
aS'missed preparation hikes'
p371
aS'even though twas scouts'
p372
aS'tonight twas also night shits getting fucked'
p373
aS'thought share'
p374
aS'havent pancake today'
p375
aS'must good iphone screen pretty much floor fine'
p376
aS'better note application form sent today'
p377
aS'shall change dont like prospect'
p378
aS'keith mildred shattered window cant take also freezing'
p379
asS'2013_6'
p380
(lp381
S'number blocked obviously wont answer'
p382
aS'form filled need reference'
p383
aS'minecraft working'
p384
aS'understand'
p385
aS'want give'
p386
aS'tonight made want leave scouts displeasing'
p387
aS'repeat second series'
p388
aS'snowing'
p389
aS'maybe dont'
p390
aS'think remember'
p391
aS'first time youve purple isnt'
p392
aS'imagine better'
p393
ag47
aS'damnyes'
p394
aS'hair amazing'
p395
asS'2013_1'
p396
(lp397
S'pussy'
p398
aS'imagine owning leather robe'
p399
aS'pages long though'
p400
aS'sounds good'
p401
aS'currently learning afterlife piano'
p402
aS'botdf scuzz'
p403
aS'cats lick noses eating'
p404
aS'cowboy supper three sausages three sausages'
p405
aS'mocks'
p406
aS'start year thanks making amazing'
p407
aS'xbox actually works'
p408
aS'present finally arrived'
p409
aS'time know right'
p410
asS'2013_3'
p411
(lp412
S'finally getting skyrim dlcs'
p413
aS'still love snow'
p414
aS'back'
p415
aS'stopping'
p416
aS'damn snow stupid'
p417
aS'wont stay'
p418
aS'finally snow shows'
p419
aS'person hoping snow'
p420
aS'weird'
p421
aS'bought whole thing'
p422
aS'premium means paid paid says anymore'
p423
aS'cant according mojang premium'
p424
aS'minecraft broke'
p425
aS'shadows'
p426
aS'dont belong'
p427
aS'actually starting like album wretchedanddivine'
p428
aS'well failed exam'
p429
asS'2013_2'
p430
(lp431
S'painful frustrating'
p432
aS'torture'
p433
aS'gonna dead tomorrow'
p434
aS'drank much bull tonight'
p435
aS'happy'
p436
aS'biology chemistry'
p437
aS'really dont know think wretched divine sounds like'
p438
aS'woops'
p439
aS'late start revising'
p440
asS'2013_31'
p441
(lp442
S'biggest faggot'
p443
asS'2013_9'
p444
(lp445
S'vampire would cool'
p446
aS'carpet wall doors'
p447
aS'update beccas landing comfiest places sleep'
p448
aS'three playing crap movies'
p449
aS'aint'
p450
aS'dosent hungover'
p451
aS'granda aint chinese'
p452
aS'barry'
p453
aS'chillin avec andreas news'
p454
aS'believed good'
p455
ag47
aS'also thought tweeting drunk turns texting'
p456
aS'last night great parts remember anyway'
p457
aS'woooo walking dead'
p458
aS'chips'
p459
aS'sorry cant future without'
p460
asS'2013_8'
p461
(lp462
S'snowing'
p463
aS'realised game thrones season three starts immediately hike'
p464
aS'however cost tescos shall last tomorrow'
p465
aS'good earphones'
p466
ag47
aS'spilled blood many times'
p467
aS'also sounds amazing'
p468
aS'love playing pirate music piano amazing'
p469
aS'actually warm today'
p470
aS'magically turned tragedy melody'
p471
asS'2012_36'
p472
(lp473
S'suicide hotline 18002738255 ltrt might save life'
p474
aS'warm'
p475
aS'tomorrow suicide awareness dont forget show support wearing something yellow writing word'
p476
aS'people born 19941999 lived three decades centuries millenniums even'
p477
aS'sure'
p478
aS'thats shell take week'
p479
aS'thought meant youd give full sure shell accept theyre'
p480
aS'sure like youll'
p481
aS'says thats bring tues'
p482
aS'coral says'
p483
aS'offers highest possible offer'
p484
aS'arranged explorers'
p485
aS'rock boots small fitting would like'
p486
aS'size converse wear'
p487
aS'size'
p488
aS'size'
p489
ag47
aS'best friend'
p490
aS'hate unbelievably tired cant sleep'
p491
aS'sometimes wonder even wanted'
p492
aS'dont anything youll dream forgotten pride hear sing never steal coffin'
p493
aS'waterloo road'
p494
aS'chase better'
p495
aS'school'
p496
aS'last summer holidays spend whipping wine floor'
p497
aS'justin trending want'
p498
aS'found catipillar today'
p499
aS'happy pftsistcbisacpday nireland'
p500
aS'rebel love song'
p501
asS'2012_16'
p502
(lp503
S'gimmes load crap'
p504
asS'2011_26'
p505
(lp506
S'ooohhhh sexy ryan'
p507
asS'2011_27'
p508
(lp509
S'paradin tgee'
p510
aS'found another british soldier killed making biggest sacrifice anyone could bless army'
p511
asS'2011_24'
p512
(lp513
S'finial gettin iphone'
p514
asS'2012_4'
p515
(lp516
S'really'
p517
asS'2011_28'
p518
(lp519
S'woop woop airport'
p520
aS'leavin sunny 2weeks good rain'
p521
aS'chop'
p522
asS'2012_33'
p523
(lp524
S'awesome night tonight could paramore made'
p525
aS'referred awesomeparawhore eerm thanks guess'
p526
aS'paramore belfast take look'
p527
aS'looks like going good paramore'
p528
aS'irksome'
p529
aS'drained phones battery hour seriously'
p530
aS'people longer friends someone called best friend\xe2\x80\x9d damn right'
p531
aS'country paramore'
p532
aS'shit went work today come home find fridge'
p533
aS'drop kicked door open'
p534
aS'also tree'
p535
aS'confesssomethingstupid matter much someone hurt find amazingly hard goodbye'
p536
aS'people hearing name makes want extremely insane'
p537
aS'staying awake hours effect body drinking glasses wine\xe2\x80\x9d lets'
p538
aS'staying awake hours effect body drinking glasses wine'
p539
aS'time year seen 30stm jenny'
p540
aS'seriously need quiltbed sheet dressing gown much better\xf0\x9f\x91\xaf'
p541
aS'nicki minaj beautiful amazing singer'
p542
aS'final episode game thrones cannat wait'
p543
aS'listening alestorm really'
p544
ag47
aS'theres much askfm links gtlt'
p545
ag47
asS'2011_44'
p546
(lp547
g47
asS'2012_28'
p548
(lp549
S'love black veil brides follow follow back'
p550
aS'name harry potter mentioned 18956 times throughout entire harry potter book series'
p551
aS'mosquitoes killed humans wars history'
p552
aS'sexy python'
p553
aS'strawberries coffee best thing imaginable'
p554
aS'still outta early'
p555
aS'people blue eyes better able dark'
p556
aS'spilled blood many times'
p557
asS'2012_52'
p558
(lp559
S'like fires'
p560
aS'present still hasnt arrived'
p561
aS'tired half'
p562
aS'christmas present still hasnt arrived gtlt'
p563
aS'forever'
p564
aS'dishonoured'
p565
aS'game thrones season boxset calender'
p566
aS'pimp billion'
p567
aS'everyone report account fucking vile'
p568
asS'2012_50'
p569
(lp570
S'church'
p571
aS'broke chuch'
p572
aS'look like jellyfish without'
p573
aS'look zombie dance floor'
p574
aS'isnt best song seems repetitive'
p575
aS'mannnn good youtube'
p576
ag47
ag47
aS'avenged sevenfold carry segment'
p577
aS'tears dont fall'
p578
aS'season break walking dead brilliant'
p579
asS'2012_51'
p580
(lp581
S'finally decided christmas'
p582
aS'fuck survivor'
p583
ag47
aS'love'
p584
asS'2013_11'
p585
(lp586
S'warts discovered'
p587
aS'mean least self righteous possible'
p588
aS'dont damn'
p589
aS'tonight realised best piano player know person title could proud'
p590
aS'really hurt feels terrible'
p591
aS'eeeewwwwwe contact lenses hurt'
p592
aS'much freaking snow'
p593
aS'remember'
p594
aS'found earphones'
p595
asS'2013_10'
p596
(lp597
S'convinced card warm place'
p598
aS'fire like fire'
p599
aS'like would'
p600
aS'said'
p601
aS'really want vampire'
p602
aS'damn'
p603
aS'feck geck peck beck'
p604
aS'bloody happening'
p605
aS'theres side idea damn ready kick'
p606
aS'lizard lick towing things great'
p607
aS'live apollo crap live apollo nelson kill'
p608
aS'shadows'
p609
asS'2013_13'
p610
(lp611
S'week sign'
p612
aS'still'
p613
aS'freakin awkward'
p614
aS'doesnt every accept human different feelings unbelievably frustrating'
p615
aS'still'
p616
asS'2013_12'
p617
(lp618
S'always deep respect represented thanks fighting good fight giving people hope'
p619
aS'every lift fire'
p620
asS'2013_15'
p621
(lp622
S'nothing rewarding peeling cheese string'
p623
aS'went shit'
p624
aS'hahahahahahahaha wrestlemainia really good results'
p625
asS'2012_39'
p626
(lp627
S'moons bright'
p628
aS'share'
p629
asS'2013_17'
p630
(lp631
S'guitar solo alestorms captain morgans revenge perfection'
p632
aS'passed grade piano moon'
p633
asS'2013_30'
p634
(lp635
S'well hahah'
p636
aS'called katie much sence yeah'
p637
aS'look'
p638
aS'havent worked watch youll mean'
p639
aS'wife woman'
p640
aS'girl paranormal activity looks like'
p641
ag47
aS'image looked much better phone'
p642
aS'heres first legal shot'
p643
aS'happy birthday'
p644
asS'2013_19'
p645
(lp646
S'motionless white great'
p647
aS'fall hahahahahahahahahahahahahahahahahah'
p648
aS'star wars movie done'
p649
aS'exam piss take anything else like easier average'
p650
aS'dead still alive dont care'
p651
asS'2013_18'
p652
(lp653
S'really need listen avenged'
p654
aS'lemons repel spiders\xe2\x80\x9d'
p655
asS'2013_16'
p656
(lp657
S'tech'
p658
aS'legal road watch'
p659
aS'piano solo duet moped test today'
p660
aS'seriously need play music need enjoy'
p661
aS'thankin'
p662
aS'hopefully next week'
p663
aS'cant sure'
p664
aS'dont even know'
p665
aS'shall hahah'
p666
aS'joking plus like stairs hahaha'
p667
aS'hahaha dont want simply youre'
p668
aS'test hahaha'
p669
aS'said high chance getting though'
p670
aS'last tuesday thats wearing funny shoes explorers hahahaha'
p671
aS'good enjoy'
p672
aS'haha name reminds song burn marionette'
p673
aS'drunk'
p674
asS'2012_37'
p675
(lp676
S'iphone battery lifelt'
p677
aS'coughing sneezing timelt'
p678
aS'much cuteness waterloo road omfg'
p679
aS'ever stop watching simpsons'
p680
aS'unreal much pasta making survive 698267 nuclear wars still shells left'
p681
aS'happened'
p682
aS'chance chance'
p683
aS'everyone gets chance'
p684
aS'andyperrinfollowme'
p685
ag47
aS'beautiful people heart goes people affected stay strong'
p686
aS'anything happen'
p687
aS'apart injurys'
p688
aS'great'
p689
aS'dont stop retweeting'
p690
aS'first bens jereys'
p691
aS'suicideawarenessday'
p692
asS'2012_30'
p693
(lp694
S'falling reverse escape fate favorite'
p695
aS'greatbritain hockey'
p696
aS'awesome greatbritain'
p697
aS'good though'
p698
aS'fallen angels download festival watch'
p699
aS'love people life'
p700
aS'columbia gold dodge coke raid event'
p701
aS'kinda like thought'
p702
aS'sideburns yesno'
p703
aS'quite hard forget'
p704
aS'ending'
p705
aS'dont deserve girl head clean kitchen dont problem'
p706
aS'seen ending game thrones'
p707
aS'game thrones'
p708
ag47
aS'recent video another minecraft complaint video done well probably said minecraft'
p709
asS'2012_31'
p710
(lp711
S'trying download slender internet speed'
p712
aS'love cleverbot'
p713
aS'weeks paramore'
p714
aS'retweet like bmth bfmv shinedown botdf patd slipknot paramore blink182'
p715
aS'love jailbreak'
p716
aS'days paramore actually cannot wait'
p717
aS'hurt mush think baby hippos'
p718
aS'followers please'
p719
aS'dont forget 30stm'
p720
asS'2013_39'
p721
(lp722
S'definitely'
p723
aS'stop chorus'
p724
ag47
aS'walks towards'
p725
aS'turns around'
p726
aS'knew youd remember walks away'
p727
aS'awake unafraid asleep dead shakes hand'
p728
aS'rarely tweet spent weekend playing gta5 result completed main storyline ashamed'
p729
asS'2013_38'
p730
(lp731
S'gta5 downloaded cant wait midnight unlocked actually play thing'
p732
asS'2011_37'
p733
(lp734
S'waking mornin warm good oclock week'
p735
asS'2012_34'
p736
(lp737
S'comes beliebers time directioners direction normal people'
p738
aS'talking rectums great friend'
p739
aS'hate'
p740
aS'ever done'
p741
aS'username password incorrect bloody'
p742
aS'songs could something serious across'
p743
aS'replacebandnameswithpoo chemical'
p744
aS'looking back footage paramore last night happy seen live brilliant word describe'
p745
asS'2011_30'
p746
(lp747
S'home come'
p748
asS'2012_38'
p749
(lp750
S'bought walking dead season pass cant wait'
p751
aS'really dont want kill'
p752
aS'trying genuinely nice swear stabbed would less painful'
p753
asS'2013_32'
p754
(lp755
S'hahah'
p756
aS'short blue'
p757
aS'pretty freaking good edits'
p758
as.