(dp0
S'2013_42'
p1
(lp2
S'aloooot pictures good memories though'
p3
aS''
p4
aS'hoes super'
p5
aS'found camera pictures'
p6
aS'goin'
p7
aS'unhealthy baby fuck world'
p8
aS'hoes aint nothing'
p9
aS'always appreciate ones'
p10
aS'dont care still getting candy halloween'
p11
aS'children arent excuse together make anything work youre happy dead shit'
p12
aS'fuck bullshit'
p13
aS'number soon changed'
p14
aS'found followers thanks androidapp'
p15
aS'miss brother'
p16
aS'feel like aint livin dealin much actin tough aint happy minute'
p17
aS'aint funny money everything change'
p18
aS'dont hurt deep inside niggas turn bitch'
p19
aS'change everything'
p20
aS'business bullshit'
p21
aS'boosie words real nigga gtgt'
p22
aS'could make whole world trill'
p23
aS'stories wont ever tell'
p24
aS'neva niggas rideyuhhh'
p25
aS'attention feeling disrespected'
p26
aS'bitches think cause never aint making moves sureee'
p27
aS'never fucked bitches stepped toes wanted stepped'
p28
aS'typa person gives chances folks certain extent fuck last time done'
p29
aS'dont announce business'
p30
aS'everything happen holidays'
p31
aS'wish damn dream foreal'
p32
aS'like going'
p33
aS'keeps getting worse'
p34
aS'sitting outside place like already need hurry'
p35
aS'interesting'
p36
aS'staying night mother pcmc'
p37
aS'retweeted basically saying feel nigga'
p38
aS'smoke weed like oxygen'
p39
aS'finally take'
p40
aS'swear shit sometimes'
p41
aS'putting saying even funny lmao'
p42
aS'made sister make homemade breakfast tacos gatorade'
p43
aS'anything tlady'
p44
aS'weve since imtired'
p45
aS'thank moms surgery went good shes recovery'
p46
aS'better picture first'
p47
aS'fuuuck'
p48
aS'well people'
p49
aS'damn everyones getting locked'
p50
asS'2013_43'
p51
(lp52
S'aight wassup'
p53
aS'party whose throwing'
p54
aS'wasnt hahaha yall gettin tomorrow night come thru party cliff'
p55
ag4
aS'firm believer sometimes right wrong thing'
p56
aS'happy thats something cant bought'
p57
aS'hopefully phone tomorrow'
p58
aS'twitter tripping'
p59
aS'getting someone elses notifications'
p60
aS'bitch muthafucking soulja'
p61
aS'dont past relationships ruin future happiness'
p62
aS'getting high friends talking times high'
p63
aS'dont give things make smile'
p64
aS'feel like havent twitter long time like days shit'
p65
aS'hell yeah almost blew niggas high shit know heart pounding lmao'
p66
aS'know fucking scared'
p67
aS'good good catchin crew fuck rolled hahaha'
p68
aS'respect'
p69
aS'nigga nothing sexier titties perfect nipples nothin sexier'
p70
aS'mexican candy good'
p71
aS'sometimes youve monster inside free hope dont alone cleaning mess'
p72
aS'guess call night'
p73
aS'lets goes'
p74
aS'know cant drive nigga back seat belt realtalk'
p75
aS'bitch texting niggas shes boyfriend worst type bitch'
p76
aS'make happiness priority wordup'
p77
aS'best things life usually found looking'
p78
aS'onpoint'
p79
aS'last though'
p80
aS'things life never bring streets home take whats home streets'
p81
aS'smoke little weed shit together'
p82
aS'skyline bitches ratchet'
p83
aS'dont want nobody funeral stay home yall forget died couple weeks\xe2\x80\xa6'
p84
aS'dont like snakes keep grass'
p85
aS'remind sometimes'
p86
aS'trying rich aint trying make friends dont ever fucked'
p87
aS'nigga nigga'
p88
aS'lmfao'
p89
aS'girls look like sloths ltltlt'
p90
aS'shoe fits lace damn thing wear'
p91
aS'long year ready'
p92
aS'together people opinions shouldnt mean gtgtgtgtgt\xe2\x9d\xa4\xf0\x9f\x92\x8f\xf0\x9f\x92\xaf'
p93
aS'long'
p94
aS'female really many things matter always stick aroun\xe2\x80\xa6'
p95
aS'name'
p96
aS'made nams'
p97
aS'found followers thanks androidapp'
p98
aS'chill side town'
p99
aS'going miss cliff though'
p100
aS'well able chill like times'
p101
aS'wont guttah okayden'
p102
aS'finally moving back north'
p103
aS'watch guttah'
p104
aS'miss'
p105
aS'weve apart long'
p106
aS'miss guttah already'
p107
aS'paisa hoochie'
p108
aS'paisa hoochie lmfao'
p109
asS'2013_40'
p110
(lp111
S'smfh'
p112
aS'realtalk'
p113
aS'feel like fucking someone right'
p114
aS'swear something always gots fuck plans'
p115
aS'told brother borrow shirt niece threw gave'
p116
aS'might'
p117
aS'havent since like graduation'
p118
aS'want'
p119
aS'scared itll high fucked'
p120
aS'gtgtgt'
p121
aS'always crying like girl shit'
p122
aS'nephew worser fucking girl'
p123
aS'finna take'
p124
aS'finally talked brother'
p125
aS'cannot live positive life negative mind'
p126
aS'\xe2\x9d\x92single \xe2\x9d\x92taken \xe2\x9c\x94smoking blunt'
p127
aS'sniffs licks balls bitches wanna kiss mouth nasty lmao true'
p128
aS'twatch everybody dont care could convo read whole convo like something\xe2\x80\xa6'
p129
aS'learn life levels shit young'
p130
aS'take back haha'
p131
ag4
aS'tried putting pics ends putting'
p132
aS'phone mind tripping'
p133
aS'mean'
p134
aS'rtlt older less patience bullshit'
p135
aS'people cant live without love think oxygen important'
p136
aS'miss'
p137
aS'dissapointing know'
p138
aS'asked sign sure give'
p139
aS'cant'
p140
aS'kids gone kids'
p141
ag4
aS'lmao'
p142
aS'little know grandpa going call know'
p143
aS'trouble decided give gradnpas thinking wouldnt find'
p144
aS'nephew'
p145
aS'really want reading'
p146
aS'niggaz wanna fold catch pussy comes real shit fuckboyz'
p147
aS'tired pussy niggaz chea'
p148
aS'wake bakes made morning person'
p149
aS'yall fell chick aint real nigga'
p150
aS'hate police passion'
p151
aS'hardly give people compliments thats'
p152
aS'pretty'
p153
aS'come'
p154
aS'nervous today'
p155
aS'bankrolls fuck bitch'
p156
aS'baby blaze sleep'
p157
aS'fuck lifeeee'
p158
aS'going home tonight'
p159
aS'forgot money wanna smoke'
p160
aS'mind gone heart soul pissed'
p161
aS'gone ride dont mean loyal dawg'
p162
aS'niggas dont keep real nomo'
p163
aS'everybody always weekends mannn whatever happens happens'
p164
aS'iamtour2013'
p165
aS'nigga gtgtgt'
p166
aS'bullshit coming everywhere'
p167
aS'past days unrealistic'
p168
aS'wake bake'
p169
aS'wild'
p170
aS'shits funny'
p171
aS'whoooa'
p172
aS'denisia play night sunday morning hahaha'
p173
aS'still cant stop thinking shit saturday night lmfao'
p174
aS'forreal'
p175
aS'bitch couldnt kill vibe tried'
p176
aS'havent smoked forever feels like decade shit'
p177
aS'love watching chelsealately'
p178
aS'wasnt ready shit ltlt'
p179
aS'part game taking losses'
p180
aS'away reality night'
p181
aS'lmfao'
p182
aS'know cazy weekend blackout'
p183
aS'webbie concert sayurday club carnaval 2142299957'
p184
aS'ever wreck'
p185
asS'2013_41'
p186
(lp187
S'drinking brother'
p188
aS'sisters trip'
p189
aS'chilling'
p190
aS'want though'
p191
aS'haha'
p192
aS'yall tripping balls'
p193
aS'fuck everybody decide start calling trying take'
p194
aS'right left shawty'
p195
aS'quieres alguien busque deja buscarle quieres quiera deja quererle quieres regres\xe2\x80\xa6'
p196
aS'never compare relationship ones thats unfair partner disaster waiting'
p197
aS'would give somebody something later want back sounds like bitch nigga'
p198
ag4
aS'wrote back respond back cousins letter jpay'
p199
aS'swear wish home'
p200
aS'feels good hear brother'
p201
aS'cant trust everybody cant believe everybody damn sure cant make someone person want'
p202
aS'would hold realest nigga down\xe2\x80\x9d'
p203
aS'never bullshit stress'
p204
aS'really dont want since nephew wants guess think'
p205
aS'might fair today'
p206
aS'dont stress anymore type shit'
p207
aS'cant control people think loosing battle victims sanity stop'
p208
aS'older realize really matters life'
p209
aS'whatever wanna'
p210
aS'hold best believe imma return'
p211
aS'cant wait nigga home'
p212
aS'tripping'
p213
aS'havent tweeting much lately'
p214
aS'finna throw water shut haha'
p215
aS'denisia snoring shit hellnoooo'
p216
aS'javisbday fuckeduptx'
p217
aS'niggas worried'
p218
aS'brother'
p219
aS'finally hearing cousin like month'
p220
ag4
aS'like duhh mexican female'
p221
aS'everybody shocked throwing kitchen'
p222
aS'preferably quote'
p223
aS'want another tattoo'
p224
aS'pretty good movie'
p225
aS'watching faster'
p226
aS'swear'
p227
aS'yayo know yayo everytime block mode'
p228
aS'someone shit together gtgtgtgtgt'
p229
aS'streets aint'
p230
aS'errbody goons catch case'
p231
aS'guess thugging better bout pistol play'
p232
aS'watch friends real close mayne chill give life court nigga chill'
p233
aS'secret happiness expect much'
p234
aS'never someone walk gonna used treating like shit'
p235
aS'lmao true thoe'
p236
aS'wanna look niggas different cant wanna trust bitches cant'
p237
aS'cant fuck certain people used'
p238
aS'sometimes best cant appreciate theyre worth'
p239
aS'dont wanna hear excuses important anymore shut'
p240
aS'gotta early fuuuuck'
p241
aS'quiet sleep'
p242
aS'lemme find haha'
p243
aS'quiet second sirens back'
p244
aS'wonder going'
p245
aS'aaaaannd someone crashed'
p246
aS'shit someones getting chased laws hear shit'
p247
aS'according'
p248
aS'shits crazyy'
p249
aS'never thousand years would thought things like would happen'
p250
aS'sucks'
p251
aS'miss much'
p252
aS'found fans thanks androidapp'
p253
aS'found followers thanks androidapp'
p254
aS'bands'
p255
aS'sometimes gotta watch niggas third'
p256
aS'love watching longislandmedium'
p257
asS'2013_46'
p258
(lp259
S'goodnight goodmorning yall'
p260
aS'time take sleep'
p261
aS'damn good night'
p262
aS'bearly getting home'
p263
aS'finally sleep'
p264
aS'home sweet muthafucking home'
p265
aS'long family straight fuck grammys'
p266
aS'yeah noticed good alone fucks'
p267
aS'awww stay around nephews thing thatll keep mind bullshit'
p268
aS'want enough reality dont fucking want want lust'
p269
aS'yeah getting homesick quick'
p270
aS'gone since monday haha'
p271
aS'anxious home things ready'
p272
aS'fade away need first ones knocking door'
p273
aS'fact month nephew scared fart lmao'
p274
aS'starting feel kind homesick haha'
p275
aS'home yaay'
p276
aS'thank sister works 1230 today'
p277
ag4
aS'getting paid yesterday today ayeee'
p278
aS'girl wants bitch nigga'
p279
aS'full body workout'
p280
aS'dont hurt deep inside niggas turn bitch'
p281
aS'living mansion full'
p282
aS'every nigga done stood aint fall okiedok fuck niggaz'
p283
aS'nigga come home holding'
p284
aS'hopefully soon'
p285
aS'maybe maybe itll help clear mind'
p286
aS'want brother'
p287
aS'tired loosing niggas chain gang'
p288
aS'kept real gtgtgt'
p289
aS'crazy another child'
p290
aS'stressed fucked facing time'
p291
aS'shit brother like kids mine'
p292
ag4
aS'convicted felon cant press rewind gotta think like cent rich trying'
p293
aS'last gtgtgt'
p294
aS'could moment'
p295
aS'fuck lawmakers\xf0\x9f\x91\xbf'
p296
aS'fucks followers'
p297
aS'nothing means alot dreams chasing dreams years straight paying canidate'
p298
aS'feel good wake knowing blow time saying want play tupac available'
p299
aS'bottem tops place'
p300
aS'hear pussy niggas barking aint shit'
p301
aS'hope snows year'
p302
aS'hard work dreams dedication success'
p303
aS'south beach might fake shit damn funny entertaining'
p304
aS'love winter'
p305
aS'shall shopping winter clothes since season'
p306
aS'today payday okayden'
p307
aS'hard stay positive nothing negative shit happens'
p308
aS'everything bless someones missing'
p309
aS'strangest twitter phenomenon become less funny less retweet people funny'
p310
aS'aint disrespect thats'
p311
ag4
aS'know know call every female bitch every nigga'
p312
aS'bless pussy niggas'
p313
aS'gettin money fuck'
p314
ag4
ag4
aS'people havent talked minute hitting outta'
p315
aS'money make life better fuck'
p316
aS'cant emojis yeah saturday'
p317
aS'damn long'
p318
aS'miss need chill soon'
p319
aS'fuck world shit lately truuuu'
p320
aS'fuck nigga high hell'
p321
aS'gone didnt write'
p322
aS'cousin getting released today happytweet'
p323
aS'time flies'
p324
aS'believe sometimes biggest'
p325
aS'wanna forget things'
p326
aS'weekend better good'
p327
aS'look around dick riding hoes hating niggas lord please protect'
p328
aS'niggaz worst hoes'
p329
aS'thing never told niggaz thing never sold soul bches'
p330
aS'poor rich poor gone'
p331
aS'wanna right take time apologize family friends industry fans'
p332
aS'wrote hard shit cant wait hell hole yall hear shit'
p333
aS'happy 1017 nationalguwopday'
p334
aS'early kids awake'
p335
aS'like'
p336
aS'woken cant back sleep'
p337
aS'time foreal goodnight'
p338
aS'cool people friends family showed true colors year'
p339
aS'dont forget ones else'
p340
aS'tired'
p341
aS'sinceimbeinghonest extremely baked'
p342
aS'fasho'
p343
aS'getting teachers nerves shit'
p344
aS'miss fucking around school'
p345
aS'weekend maybe drink chill spot'
p346
aS'miss needa blow asap'
p347
aS'miss'
p348
aS'guess call night already'
p349
aS'still'
p350
ag4
aS'gotta'
p351
aS'feeling sick ltltltltlt'
p352
aS'don\xef\xbf\xbdt care long know there\xef\xbf\xbds nobody'
p353
aS'seeds fault grows'
p354
aS'ready thanksgiving mannnn'
p355
aS'difference rather money flip somethingyou can\xe2\x80\x99t tell nothing'
p356
aS'hold'
p357
aS'time went quick'
p358
aS'month next week already damn'
p359
aS'relationship perfect might well pick perfect person wanna hell with\xe2\x80\x9d'
p360
aS'even though shit aint going good honestly good happy life miss brother'
p361
asS'2013_47'
p362
(lp363
S'tripping hard sometimes'
p364
aS'delete post sounded stupid lmfao'
p365
aS'high fuuck'
p366
aS'want million dollar account'
p367
aS'painful goodbye someone dont want painful someone stay know'
p368
ag4
aS'dont explanations anyone want'
p369
aS'wish simple life didnt shit worry'
p370
aS'miss brother much like part missing'
p371
aS'tired'
p372
aS'makes fucking'
p373
aS'hate people theyre gunna something'
p374
aS'know shes haha'
p375
aS'hear nephew screaming sisters trying sleep'
p376
aS'life like elevator sometimes stop people'
p377
aS'damnn change nigga life'
p378
aS'honest futures voice hahaha'
p379
aS'school tomorrow well rested hahah'
p380
aS'looking haha'
p381
aS'school tomorrow well rested'
p382
aS'take sleep bitch'
p383
aS'hahaha duuuumb'
p384
aS'lmao guttah talking bout'
p385
aS'haha never serious even'
p386
aS'guttah play much'
p387
aS'goodnight slut bucket'
p388
aS'diiiiiiiiiick'
p389
aS'haha know lmao getting gift'
p390
aS'hahah thats extra lmao lmao bitch aint dont play'
p391
aS'pretty interesting'
p392
aS'watching shit called returningtoarea51'
p393
aS'vagina'
p394
aS'need upgrade'
p395
aS'long'
p396
aS'phone aint workin anymore'
p397
aS'hopefully phone tomorrow'
p398
aS'\xe2\x80\x9ceventually things fall place laugh confusion live moments know everything'
p399
aS'real'
p400
aS'timeeee'
p401
aS'used living cliff sett trippin'
p402
aS'wonder gunna moved back north'
p403
aS'niggaz dumb sometimes'
p404
aS'single lifeeeee'
p405
aS'miss brother soooo much like words cant even explain pain\xe2\x80\x9d'
p406
aS'gotta means'
p407
aS'time focus right'
p408
aS'good lasted though cant complain'
p409
aS'mind somewhere else'
p410
aS'love company right worried money successful'
p411
aS'taco bell sounds good'
p412
aS'making mission'
p413
aS'thought ready relationship fuck'
p414
aS'remove negative people life people spend time influence attitude thoughts success'
p415
aS'stoped fuckin niggas wont ride'
p416
aS'accepting things cant change save headaches heartbreaks'
p417
aS'best thing know whether step back catch breath walk away never look'
p418
aS'like chase bout laps bitch neither nigga'
p419
aS'french american youre america okay greatest country planet'
p420
aS'really like smoke weed like'
p421
aS'dont give shit'
p422
aS'yall lookin relationship ends marriage yall lost yall damn selves yall tryna grow'
p423
aS'ughhh ltltlt'
p424
aS'even hurts sometimes'
p425
aS'annoying'
p426
aS'hate starting panic attacks'
p427
aS'yeah long good okay'
p428
aS'tell hoesniggas bitch'
p429
aS'money doesnt happiness buys weed thats pretty close happiness\xe2\x80\x9d'
p430
aS'trying hard know close brothers theyre'
p431
aS'stay strong gabbo'
p432
aS'wish blunt'
p433
aS'never noticed real shit outhere without'
p434
aS'broke emailing like fuuuuckk'
p435
aS'miss brother soooo much like words cant even explain pain'
p436
ag4
aS'lmao'
p437
aS'damn jose cuervo dont play foreal'
p438
aS'looking thru pictures seen pictures dont remember taking'
p439
aS'still hustlin paletero'
p440
aS'lmao hell yeah know fatass hahah'
p441
aS'good hows baby'
p442
aS'shit touch well holding'
p443
aS'know mamacita teared jammin songs hector loved hate lito'
p444
aS'outta haha'
p445
aS'thenchasing shots beer'
p446
aS'even lost count many shots took'
p447
aS'still feeling hungover'
p448
aS'boyyy gone jose cuervo last night'
p449
asS'2013_44'
p450
(lp451
S'youre baby babies'
p452
aS'matta fact dont even know name'
p453
aS'bitch dont know talking shit'
p454
aS'anthonys taking guess take'
p455
aS'nigga wrecked freshouttajail'
p456
aS'streetlottery2'
p457
aS'think gone fuck feel like fucked'
p458
aS'together\xf0\x9f\x91\xab\xf0\x9f\x92\x8f hoes gotta gotta bullshit gotta cause'
p459
aS'show young nigga'
p460
aS'sister needs come home already'
p461
aS'eyes feel heavy'
p462
aS'damn still havent tooken tired fuck'
p463
aS'definitely think boys need space friends deserve girls'
p464
aS'versace cologne ughhhhhh'
p465
aS'snitches gets stiches'
p466
aS'turn around stick show world'
p467
aS'coldness feel face face wash'
p468
aS'made boss'
p469
aS'weed beer cure'
p470
aS'certain things time tell'
p471
aS'you\xe2\x80\x99re dont even text check'
p472
aS'still aint time bitch actin iffy'
p473
aS'bitch accurate compare'
p474
aS'like foreal need change number asap'
p475
aS'like past calls never answer'
p476
aS'nigga move fuck around'
p477
aS'swear love straight'
p478
aS'must leave little sisters enough deal remember words'
p479
aS'stop assuming worst stop trying make something arent going happen judge'
p480
aS'sick tired people talking shit family last night posted picture little sisters conc\xe2\x80\xa6'
p481
aS'hardly comes visit shes always yesimjealous'
p482
aS'stays cakin like'
p483
aS'inlovetx'
p484
aS'like teddy different clothes poses'
p485
aS'last time going thru guttahs pics like 10th gave'
p486
aS'bitch early morning still early'
p487
aS'guttah lazy'
p488
aS'mommy lmao'
p489
aS'find mona'
p490
aS'manuel'
p491
aS'pregnant lmfao makes sense shawty'
p492
aS'stopblackgirls2013'
p493
aS'wakeandbake'
p494
aS'gain followers gtgt'
p495
aS'horoscope though'
p496
aS'young niggas running shit'
p497
aS'want take thats impossible baybay kids haha'
p498
ag4
aS'awake since'
p499
aS'like super early'
p500
aS'wish sister knock hoes left right shes'
p501
aS'ifwedate'
p502
aS'bitch tells business yall speaking\xf0\x9f\x91\x8b\xf0\x9f\x99\x85\xf0\x9f\x94\x87is bitch hating gate\xf0\x9f\x9a\xa7 could\xe2\x80\xa6'
p503
aS'idgaf dont like aint going shit stare walk lurk shit wish\xe2\x80\xa6'
p504
aS'seriously though time pull shit together months later seriously though time pull shit'
p505
aS'something else haha'
p506
aS'feel weird saying boyfriend rather nigga lmao'
p507
aS'thats shit gtgtgt'
p508
aS'soldier'
p509
aS'bills worth since days'
p510
aS'taking care four kids damn near bills aint'
p511
aS'2020'
p512
ag4
aS'dream fixing locked smelled like weed'
p513
aS'morning fuckers'
p514
aS'actually death toll marijuana probably negative number'
p515
aS'keep grinding someone dont even know rooting someone know isnt'
p516
aS'gotta learn stop trying'
p517
aS'force nobody shit'
p518
aS'never gave fuck people never'
p519
aS'wecantbetogetherif problem smoking weed wont work'
p520
asS'2013_45'
p521
(lp522
S'never change never'
p523
aS'trust loyalty everything'
p524
aS'tell niggaz said cuban links'
p525
aS'swear nigga spitting real shit'
p526
aS'nigga take'
p527
aS'first question happened gcode back days pussy niggas ones told'
p528
aS'niggas playing real pussy niggas fake'
p529
aS'keep niggas business including lady'
p530
aS'shut lawyer patient'
p531
aS'tatted baby first stuttering shaking already know mean finna start saying'
p532
aS'aint stand nigga right chea'
p533
aS'confessing shit think gone help'
p534
aS'disgusted niggaz tell yoself'
p535
aS'errbody goons catch case'
p536
aS'learning forget past behind'
p537
aS'money change people aint used getting'
p538
aS'hate wake good sleep'
p539
aS'blow kush like candle'
p540
aS'life make'
p541
aS'wanttttttt free shipping'
p542
aS'hell gucci mane'
p543
aS'people need stop hating others dont anyone want work hard think'
p544
aS'point'
p545
aS'last gtgtgt'
p546
aS'tryna stay focused\xee\x90\xa0 money hold family\xee\x90\x85 successful\xee\x80\x8e'
p547
aS'relationship isnt kissindatesor showing bout bein some1 makes happy'
p548
aS'dont feelings reply slow life shiiiit'
p549
aS'sometimes feel grinding looks amazing'
p550
aS'found half blunt cleaning sisters house okden'
p551
aS'call good movie'
p552
aS'know'
p553
aS'kuwtk'
p554
aS'maturity comes stop making excuses start making changes'
p555
aS'everything'
p556
asS'2013_48'
p557
(lp558
S'nasty taste ltltlt'
p559
asS'2013_24'
p560
(lp561
g4
ag4
aS'going danny'
p562
aS'drunk already'
p563
aS'tonight'
p564
aS'drunk bitch lmfao'
p565
aS'texted address everythang'
p566
aS'bout guttah graduate love'
p567
aS'invited grad nigga'
p568
aS'gabbo good shit nigga dont throwed invite nigga haga'
p569
aS'sleepy'
p570
aS'daaaamn todays'
p571
aS'keep waiting'
p572
aS'aunt antonio sent money'
p573
aS'guttah getting ready'
p574
aS'favorite couplestherapy quotes miss'
p575
ag4
aS'wake bake'
p576
aS'mean'
p577
aS'like awake sisters apartment'
p578
aS'loyalty royalty'
p579
aS'werr kushh attttt'
p580
aS'home saturday finna graduation'
p581
aS'bottle tonight'
p582
aS'think starting sink'
p583
aS'muthafucking days left graduation guys'
p584
aS'unfollowers fuck'
p585
aS'want everybody graduation'
p586
aS'theres thing high keep smoking'
p587
aS'keep calm asshole time dont even mean happens'
p588
aS'real woman avoids drama knows time precious shes wasting unimportant people things'
p589
aS'riding niggas grave yard'
p590
aS'chilling guttah'
p591
aS'taurus hard deal times stay result well worth'
p592
aS'know perfect swear loyal'
p593
aS'like ciara nevergetsold'
p594
aS'cartels mexico hell yeah crazy'
p595
aS'nigga'
p596
aS'acting like smart ltlt'
p597
aS'hopefully things fall place soon'
p598
aS'fuuuck'
p599
aS'realize nigga actually cared didnt anything'
p600
aS'ciara'
p601
aS'aint anymore'
p602
aS'aint'
p603
aS'supposed coming today talk goin'
p604
aS'aint bout life'
p605
aS'dentist appointment today'
p606
aS'tell lmao'
p607
aS'take shot bday june22 okayden'
p608
aS'guessing drunk'
p609
aS'brother getting fucked thursday yeaaahboiii'
p610
aS'ready'
p611
aS'graduation three days'
p612
aS'still'
p613
aS'tend fall things good'
p614
aS'eyes visine'
p615
aS'rule rapper gets robbed people usually post items taken rings chains watch money answer that\xe2\x80\xa6'
p616
aS'calledtexted yesterday bitchass didnt respond'
p617
aS'said pictures would done yesterday'
p618
aS'nigga took graduation pictures pissing fuck'
p619
aS'older realize many things'
p620
aS'tired'
p621
aS'cant sleep'
p622
aS'fuuuuuck'
p623
aS'reason would first'
p624
aS'choose walk away either tired fighting loosing battle aint nothing anymore'
p625
aS'sucks'
p626
aS'like together good away eachother aint bullshit drama'
p627
ag4
aS'thats'
p628
aS'always chilling mainly time shit'
p629
aS'missed muthafuckin'
p630
aS'still visit crib guess still counts'
p631
aS'right finna visit nigga teresa told going home later bummer'
p632
aS'real dont wanna'
p633
asS'2013_25'
p634
(lp635
S'emotional nigguhhh'
p636
aS'taught suck dick'
p637
aS'talking sidewayz nigga thatll whacked'
p638
aS'wake bake long night drinking'
p639
aS'tell like nigga told cash rules everythang round'
p640
aS'slapping money lmfao graduationweekend lapdance drunk blowed fuckeduptx'
p641
aS'fuck broke nigga'
p642
aS'sister asshole'
p643
aS'pandora nevergetsold'
p644
aS'wonder coming'
p645
aS'hear fire alarm going'
p646
aS'gotta stay headstrong regardless'
p647
aS'well know rolled soooo guess smoke'
p648
aS'early shit'
p649
aS'went sleep awake'
p650
aS'late shit next time'
p651
aS'gtgtgtgt'
p652
aS'whataburger right naaaa'
p653
aS'thanks came'
p654
aS'errbody drunk sober shit'
p655
aS'young niggas club fuck'
p656
aS'came bottom uoeno'
p657
aS'still gotta pick kush night'
p658
aS'bottle hipnotiq half ciroc'
p659
aS'convinced latinas bitch faces permanently make look time still cute'
p660
aS'yeah know black nigga part daily vocabulary dont like fuck nigga'
p661
aS'drunk pints today tryna drank pain away'
p662
aS'need nigga perform though'
p663
aS'wanna count money'
p664
aS'wanna count money'
p665
aS'real bitches'
p666
aS'bands'
p667
aS'murders year took good away'
p668
aS'cooker cook dope left hand'
p669
aS'lately thinking alot smoking anymore'
p670
aS'cant fucked shes pregnant'
p671
aS'todays sisters bday'
p672
aS'kill nigga reason'
p673
aS'finna chill'
p674
aS'help undastand'
p675
aS'dont undastand'
p676
aS'turn shit offfffff'
p677
aS'moms alarm keeps going'
p678
aS'using track unfollowed androidapp'
p679
aS'rest peace snupe'
p680
aS'sometimes need distance people'
p681
aS'text would great right'
p682
aS'yaaay shipment finally came itworks'
p683
aS'hope'
p684
aS'please dont tell lost damn laptop'
p685
aS'phone disconnectd forgot'
p686
aS'wondering msgs werent going thru'
p687
aS'wheres molly'
p688
aS'really want theblingring'
p689
aS'still laying lazy'
p690
aS'prettywild'
p691
aS'smoked kush blunts niggas desiree natalie'
p692
aS'high'
p693
aS'blowed'
p694
aS'fucking nigga lilsnupe tried everything power streets'
p695
aS'fucking nigga lilsnupe'
p696
aS'hell yeah snupe went hard'
p697
aS'mommas cooking though gtgtgt'
p698
aS'know dumb fucks'
p699
aS'hate people wait till follow back unfollow'
p700
aS'graduation weekendgtgtgtgtgtgtgtgtgt'
p701
aS'going follow unfollow makesnodamnsense'
p702
aS'mylifewouldbecompleteif endless supply money'
p703
aS'craving tostadas'
p704
aS'cleaning twitter using anyone tried seems useful androidapp'
p705
aS'fixing unfollow irrelevant followers'
p706
aS'flex cant stand'
p707
aS'found followers thanks androidapp'
p708
aS'upload videos instagram okayden'
p709
aS'longislandmedium'
p710
aS'damn still call'
p711
aS'never fear striking keep playing game'
p712
aS'karate chop always gets crunk matter'
p713
aS'hate smoking alone weed guess good thing'
p714
ag4
aS'everyone keeps telling look like graduation pictures gtlt'
p715
aS'wish legs shaved'
p716
aS'shout taylors mexico cool shit'
p717
aS'vacation dubai thatsfasho'
p718
aS'amazing building construction dubai'
p719
aS'never fear striking keep playing game'
p720
aS'hate rolling love smoking killa shit'
p721
aS'think walking store walk dubz'
p722
aS'need rillos'
p723
aS'hmmm'
p724
aS'coast guard'
p725
aS'aint shit else'
p726
aS'fuck finna smoke'
p727
aS'bored'
p728
aS'sleeping schedule fucked'
p729
aS'caneloalltheway cant wait face floyd sept iwill bornready canelo'
p730
aS'back brooklyn pauliebroner doors open broadcas\xe2\x80\xa6'
p731
aS'good morning world wakenbake kushfactor'
p732
aS'love high publicand public'
p733
aS'even though things aint looking good right stay positive faith'
p734
aS'wake baby mans calling lmao'
p735
aS'atleast didnt call like yesterday'
p736
aS'nigga woke early calling shit'
p737
aS'shaaaraaa'
p738
aS'fuckyou hoeski'
p739
aS'smoking alone whack'
p740
aS'callame cuando mantengastx nigga lmao calm mojada'
p741
aS'shed many tears 2pac'
p742
aS'whats crazy thats gunna'
p743
aS'wierd literally home alone'
p744
aS'fans want shoutout retweet mention giving youtube shoutouts right'
p745
aS'hood youu think shit'
p746
aS'dont anything nice anyway bitches need hear truth'
p747
aS'time really done'
p748
ag4
aS'lights turned turned right back thought know'
p749
ag4
aS'lmao foreal'
p750
aS'holla yall layyyta dueces ghetto voice'
p751
aS'eyes closing type'
p752
aS'lmfao people'
p753
aS'shawty'
p754
aS'three hours later starting sleepy'
p755
aS'girl gone'
p756
aS'years long'
p757
aS'taurus worst quality dont hesitate tell like place'
p758
aS'taurus worst quality dont hesitate tell like place'
p759
aS'taurus phony'
p760
aS'done told youll miss taurus tourist'
p761
aS'rollys dont tick tock lmao stevie'
p762
aS'cant keep second choicenot youre first'
p763
aS'love even hate'
p764
aS'somebody died last night didnt somebody didnt wake morning lucky blessed'
p765
aS'youre religious person power hide behind bible cant support'
p766
aS'slapyourself still think weed kills people'
p767
aS'bitches talk shit cause dont know truth dick theyd first blow'
p768
aS'missed always worth wait'
p769
aS'dont chase people thing work hard right people belong life come'
p770
aS'cant back sleep'
p771
aS'nigga know even terms still riding realniggawassup'
p772
aS'long talk good'
p773
aS'fuck'
p774
aS'sucks getting minutes phone'
p775
aS'money account hopefully bitchass calls soon'
p776
aS'really'
p777
aS'havent tweeting lately'
p778
aS'playin moneyy'
p779
aS'lhhatl'
p780
aS'growing young nigga young nigga runnin'
p781
aS'really wanna tattoo'
p782
aS'nigga gone nigga'
p783
aS'mosquitos dont play'
p784
aS'growing young nigga young nigga runnin'
p785
aS'pandora'
p786
aS'couldnt asked'
p787
aS'weekend badass'
p788
aS'finna spark bleezy watch identity thief relaxinnn'
p789
aS'sayin'
p790
aS'finally rest house party friday graduation saturday show ojos locos sunday hell week\xe2\x80\xa6'
p791
asS'2013_26'
p792
(lp793
S'stop fucking following unfollow bitches'
p794
aS'solo dolo bleezy think'
p795
aS'pandora makes realize cant live without music'
p796
aS'start listening pandora'
p797
aS'want smoke'
p798
aS'time start noticing people arent worth anymore'
p799
aS'taurus doesnt forgive forget easily'
p800
aS'thats crazy feel sorry wife kids'
p801
ag4
aS'think swear please fucking know fucking stop'
p802
aS'youll always baby love unconditional even though played'
p803
ag4
aS'asap'
p804
ag4
aS'back summer school days lmao'
p805
aS'gaby know wassup'
p806
aS'gaby know wassup saying'
p807
aS'point situation'
p808
aS'tweets'
p809
aS'dont know front girl always come back shit real fuckin talk'
p810
aS'gtgtgtgt'
p811
aS'stop coming life making think something wont came realization happy'
p812
aS'nothing trouble heart aches tears'
p813
aS'friends family keep busy instead worrying'
p814
aS'lmao high bitch movies watching theheat'
p815
ag4
aS'shoutout followers'
p816
aS'sometimes youve care less they\xe2\x80\x99ll care'
p817
aS'going stay home mexican pain killers smoke sleep'
p818
aS'going tonight'
p819
aS'subtweet mention depressed cuss muthafuckin account'
p820
aS'need home pain unbearable'
p821
aS'aaronhernandez gone boyyyy'
p822
aS'sister hooked codone'
p823
aS'fuck tylenol need damn hydrocodones'
p824
aS'wanna home'
p825
aS'september 14th cantwait teamcanelo caneloalltheway makemeproud'
p826
aS'need hurry shit wears though'
p827
aS'like shit'
p828
aS'mouth sooo numb'
p829
aS'please explain fuck dont follow back lucky still even following'
p830
aS'well looks like going root canal gtlt'
p831
aS'step closer shit'
p832
aS'xrays'
p833
aS'later guys hear whinning prepared'
p834
aS'lord knows going need'
p835
aS'lmaoo truuugtgtgt'
p836
aS'know smoke fatass kush blunt dentist office'
p837
aS'stay high'
p838
aS'whats point holding pushed away'
p839
aS'good thing nomore pain head'
p840
aS'damn tooth finna pulled'
p841
aS'royal blue bands gtgt'
p842
aS'unfollow find'
p843
aS'retweet less 20000 followers would help gain first'
p844
aS'aint turning back'
p845
aS'fuuuuuck'
p846
aS'thinking bigass needle makes wanna walk right back dentist office'
p847
aS'hopefully give codones'
p848
ag4
aS'dentist think gunna tooth pulled plus adjustments'
p849
aS'damn finna pain'
p850
aS'whip game sowed'
p851
aS'well damm'
p852
ag4
aS'early fucking'
p853
aS'stop running back person wont treat right'
p854
aS'goodnight guys'
p855
aS'shit well call night'
p856
aS'doesnt mean stupid'
p857
aS'fuck respect woman love lady'
p858
aS'head less headaches'
p859
aS'automaticturnons girl wants smoke weed chill'
p860
aS'really bull'
p861
aS'codeine cups paint picture vivid'
p862
aS'tooth ache aint playing'
p863
aS'good thing going dentist tomorrow'
p864
aS'found followers thanks androidapp'
p865
aS'getting drunk always good idea'
p866
aS'trying good summer'
p867
aS'anyone else'
p868
aS'devils chea'
p869
aS'cooking dinner'
p870
aS'always looks'
p871
aS'want damn pictures'
p872
aS'nigga taking forevaaaa'
p873
ag4
aS'cause'
p874
aS'didnt know'
p875
aS'lmao edwin dont booty hurt'
p876
aS'telling older sister ohhh housewife fucking slut lmfao'
p877
aS'mama pendejo lmfao pinche mona'
p878
ag4
aS'bout running part bitch bearly wanna walk lmfao'
p879
aS'found followers thanks androidapp'
p880
aS'gotta gotta'
p881
aS'guess'
p882
aS'told give ride said take means walk fuckinbitch'
p883
aS'sister'
p884
aS'real niggas known real thing'
p885
aS'phones trippin wont instagram'
p886
aS'fuck gotta productive'
p887
aS'people call look like'
p888
aS'appointment tomorrow ogle happytweet'
p889
aS'lets voice'
p890
aS'know woke late time'
p891
aS'wake bake'
p892
aS'bearly waking'
p893
aS'goooodmorning goodafternoon yall'
p894
aS'thru downs bitch thatll since'
p895
aS'always taurus hurt start ignoring'
p896
aS'tego calderon late night jamming bandoleros'
p897
aS'pregnant bitch talking shit maybe would apply haha'
p898
ag4
aS'maybe'
p899
aS'time wont ever shes pregnant'
p900
aS'lmfao'
p901
aS'bitch still slap wont touch stomach'
p902
aS'wrong'
p903
aS'away'
p904
aS'sister think shes pregnant talk shit'
p905
aS'laying finna roll'
p906
aS'lmfao fuck'
p907
aS'miss words since graduated lmao dont'
p908
aS'comes town much commotion however fuck spell word lmao'
p909
aS'lamaaar'
p910
aS'went outside came back right nigga'
p911
aS'wasnt fukin thendont lilsnupe'
p912
aS'fucking done'
p913
aS'plies hunna'
p914
aS'shoot clique houses really bring bitch chea'
p915
aS'idgaf disrespect bitch gone wish never thatsfasho'
p916
aS'shit feel disrespected kind quick address situation'
p917
aS'anybody knows'
p918
aS'respect loyalty'
p919
aS'dont bake cook came good though give props banana pudding gtgtgt'
p920
aS'sick tired bullshit'
p921
aS'dont save dont wanna saved'
p922
aS'arguing bout bitch shes gahdamn slut'
p923
aS'bottle grey goose aint bout life'
p924
aS'deserve better baby'
p925
aS'aunts mexico havent seen years town happytweet'
p926
aS'dont even care anymore wanna talk gonna start conversation anymore left'
p927
aS'nigga marly always kept real quotes gtgtgt'
p928
aS'hard head makes soft'
p929
aS'crazy crooked enforcement'
p930
aS'movie damn intense mercuryrising'
p931
aS'pill better work'
p932
aS'thankyou'
p933
aS'hell popped pain pill hopefully works'
p934
aS'damn aint bitch hell yeah thats need would painless'
p935
aS'though'
p936
aS'codone painless right naaaa'
p937
aS'tooth ache gots whole right side hurting dont even wanna roll need muthafuckin codone'
p938
aS'well smoke'
p939
aS'happy birthday muhnika robins voice miss'
p940
aS'smoke blunt relax tried doesnt fucking work'
p941
aS'smoke blunt relax'
p942
aS'happy birthday guttah love'
p943
aS'laughing matter pain asshole'
p944
aS'edwin tryna funny mothafucker'
p945
aS'fuck life gaby'
p946
ag4
aS'guys'
p947
aS'tooth hurting sooo'
p948
aS'female ride since reguardless shit'
p949
aS'gotta look back situation fuck fucked aswell'
p950
aS'never thats lowest'
p951
aS'hate smart teachers bathroom teacher dont know bitch shit'
p952
aS'chillin nigga'
p953
aS'swear niggas lucky away'
p954
aS'dont know want slap shit outta'
p955
aS'homie good'
p956
aS'going waiste time trying make work fuck'
p957
aS'aint gunna shit atleast odumbass nigga'
p958
aS'ever asked keep'
p959
aS'getting thru worse'
p960
aS'found followers thanks androidapp'
p961
aS'vacation something'
p962
aS'need away'
p963
aS'chilling smoking solo'
p964
aS'laying since eleven'
p965
aS'dont understand fucking stupid felt told news'
p966
aS'changing plans going work getting cosmetology license'
p967
aS'everyone seems feelings tonight'
p968
aS'nigga fuck'
p969
aS'nigga'
p970
aS'shine gotta grind'
p971
aS'bitch nigga'
p972
aS'cant stand fagget niggas make sick'
p973
aS'fasho'
p974
aS'dont fuckin like emotional'
p975
aS'whenever still stay cliff'
p976
aS'shit always smoke anytime lmao foreal haha shall smoke session'
p977
aS'lmao mannnnnn need friend like alot people always smoke like'
p978
aS'never leave streets alone made'
p979
aS'always gotta keep rolled crisis like'
p980
aS'hardest thing life maintain nigga aint rules dopegame'
p981
aS'thats exactly right'
p982
aS'youre welcome smoke blunt feel better'
p983
aS'fuuuuuck shit sparks blunt'
p984
aS'keep head'
p985
aS'yeah good thanks'
p986
aS'aint worried bout haters aint worried bout bitch nigga know'
p987
aS'dang everybodys feelings hell yeah including lmao'
p988
aS'weed pills drank thats trippy'
p989
aS'high heaven eyes hell'
p990
aS'fuck nigga'
p991
aS'shoes fits wear'
p992
aS'shouldve known thanks'
p993
aS'stay love much hate'
p994
aS'real niggas extinct theres fucking fuck niggas aint true'
p995
aS'cause fuck niggas aint true'
p996
aS'back aint never nothin locked godblessyoupussyassniggaz'
p997
aS'soon niggas dawg fuck niggas aint never give nigga'
p998
aS'wasnt fuck niggas nigga still showing love right dawg still walkin thru muthafucking blind'
p999
aS'real niggas extinct theres fucking fuck niggas aint true'
p1000
aS'better running knew'
p1001
aS'fuck nigga gone fuck nigga gone'
p1002
aS'matter nigga done thru nigga dawg turn pussy blue'
p1003
aS'thug nigga dont mean love true'
p1004
aS'feelings'
p1005
aS'needed pussy came thru everytime wether right wrong fuck nigga riding'
p1006
aS'busy showing love didnt sign'
p1007
aS'kept muthafucking real blind'
p1008
aS'nigga locked broke thats claim love okayden'
p1009
aS'fooled dawg thought fuckin nigga wouldve fucked'
p1010
aS'nigga locked broke thats claim love'
p1011
aS'treated pussy better'
p1012
aS'hurt found pussy heart nigga'
p1013
aS'fooled dawg thought fuckin nigga wouldve years fucked'
p1014
aS'stop looking like bullshit stop dressing like bullshit fucking bullshit bullshit'
p1015
aS'like left'
p1016
aS'hate couch charger really comfortable'
p1017
aS'people never going change'
p1018
aS'play least play cards right'
p1019
aS'never thought come'
p1020
aS'dont look nomore nigga itll never nomore nigga dont wanna play game nomore nigga'
p1021
aS'looking love gone fall tryna maintain play keeps keep street thang shownolove'
p1022
aS'finding niggas turned bitch'
p1023
aS'show muthafuckin love fuck niggas'
p1024
aS'sukka niggas'
p1025
aS'like days like sweet shit fucked treated like shit fault though being\xe2\x80\xa6'
p1026
aS'guwop nigga'
p1027
aS'always dissapoint'
p1028
aS'never fails'
p1029
aS'dallas trapgod guwop'
p1030
aS'triple goin tomorrow sunday june calling homies ladies carnaval night club burrrr'
p1031
aS'club carnaval ready bricksquad city burrr'
p1032
aS'cant believe shit mean damn dont want fuckit'
p1033
aS'nigga'
p1034
aS'woooooooow thats something'
p1035
asS'2013_27'
p1036
(lp1037
S'seems like everybody last night drunk people annoy shit drunk'
p1038
aS'geekd barzzzz'
p1039
aS'life isnt hard people make unnecessary bullshit'
p1040
aS'real street nigga dont depend nigga mayne'
p1041
aS'thinking bout instead thinking bout thing called'
p1042
aS'dont time anyone else right'
p1043
aS'everything better high'
p1044
aS'quer\xc3\xadas resulte necesitabas pero cosa cierta merec\xc3\xadas'
p1045
aS'dedicated workout buddy'
p1046
aS'wish membership'
p1047
aS'building walmart hood shit long going last niggas going stealing shit'
p1048
aS'quote johnny depp gtgtgt'
p1049
aS'always keep priorities straight mind right okayden'
p1050
aS'eyes feel heavyyy'
p1051
aS'wanna sleeep alllll'
p1052
aS'real talk though'
p1053
aS'bitches'
p1054
aS'hate people know personally dont follow back'
p1055
aS'found followers thanks androidapp'
p1056
aS'could hardly sleep throughout night'
p1057
aS'shit sucks'
p1058
aS'sore throat'
p1059
aS'fuuuuuuuuck'
p1060
aS'scale noexcuse'
p1061
aS'fuckin money patna'
p1062
aS'going forget much weigh'
p1063
aS'sister fucking'
p1064
aS'fight lady fuck night straightlikethat'
p1065
aS'lmao'
p1066
aS'came walmart looking ratchet thuglife'
p1067
aS'guess aint lmao'
p1068
aS'thought ghetto'
p1069
aS'cant believe someones username instagram qu33nratch3t lmfao'
p1070
aS'aint gunna help situation'
p1071
aS'stop thinking negative shit bitch'
p1072
aS'people never give sometimes giving best option realize youre wasting time'
p1073
aS'heated argument bring peoples true feelings colors'
p1074
aS'would wake niece right next asleep dont want wake bummer'
p1075
aS'muthafuckas asleep like hours already'
p1076
aS'brother still asleep though'
p1077
aS'hate sick'
p1078
aS'hope getting sick'
p1079
aS'woke feeling sick'
p1080
aS'hear snoring living room welldamn'
p1081
aS'compa todo theone boxing teamcanelo'
p1082
aS'thankful people stood shit real'
p1083
aS'crazy talk someone daily years later strangers'
p1084
aS'seen shit back 2011'
p1085
aS'want'
p1086
aS'wake bake'
p1087
aS'lmfao angie'
p1088
aS'watching george lopez'
p1089
aS'loooove smoking brother qualitytime'
p1090
aS'bored shit'
p1091
aS'going stay night brothers crib tonight'
p1092
aS'rosary goin dads side family'
p1093
aS'denisia overhere snoring shit'
p1094
aS'realtalk though'
p1095
aS'lmao'
p1096
aS'super duper sleepy'
p1097
aS'today good dayy'
p1098
aS'bitch nigga'
p1099
aS'hahaha'
p1100
aS'fuck turned'
p1101
aS'taking forever shit'
p1102
aS'ughh sister pissing fuck'
p1103
ag4
aS'nappy long hair mine aint helping'
p1104
aS'aint joke'
p1105
ag4
aS'people taking foreverrrr'
p1106
aS'never show first lake find spot'
p1107
aS'superr sleey hotness aint helping'
p1108
aS'damn early'
p1109
aS'lake already'
p1110
aS'goodnight twittaa'
p1111
aS'going paying later'
p1112
aS'damn'
p1113
aS'reason sleepy'
p1114
aS'really asleep right'
p1115
aS'stand sister till'
p1116
aS'sucks wake early though'
p1117
aS'lets hope good spot'
p1118
aS'looks like theres going alot people lake tomorrow'
p1119
aS'early lake tomorrow'
p1120
aS'happy july aomf'
p1121
aS'dick'
p1122
aS'havent chilledsmoked nigga minute'
p1123
aS'nigga jesse finna come smoke'
p1124
aS'likely lake'
p1125
aS'still sure going tomorrow'
p1126
aS'cousin making spread shit'
p1127
aS'dont itsdateasy'
p1128
aS'phone jamming look shes smiling flipping'
p1129
aS'moms trip'
p1130
aS'shit like'
p1131
aS'take back whole crib smells like kush'
p1132
aS'room smells like kush'
p1133
aS'everybody came crib outta'
p1134
aS'writing cousin brother jpay'
p1135
aS'love sending aint making thru heart bitchass nigga'
p1136
aS'dont lose sleep nigga probably somewhere sleeping another bitch'
p1137
aS'gone means'
p1138
aS'gone pull tequila'
p1139
aS'ohhhh mayne'
p1140
aS'tragos amargos ramon ayala'
p1141
aS'despite bullshit thankful'
p1142
aS'starbucks sounds good right naaa'
p1143
aS'hate seeing next didnt treat right chance'
p1144
aS'ladies always choose words wisely fighting dont ever tell cause'
p1145
aS'lhhatl'
p1146
ag4
aS'quick take dive treat like slut'
p1147
aS'stick around love stupid struggle'
p1148
aS'bout drive bitch craaaaazy'
p1149
aS'hate people certain next actin different fuck'
p1150
aS'intocable'
p1151
aS'finally smoking guttah'
p1152
ag4
aS'smoke'
p1153
aS'oookay glen coco'
p1154
aS'mona finna make solo dolo blunt'
p1155
aS'real talk though'
p1156
aS'liked hope means close'
p1157
aS'tryna smoke taking foevaaaa'
p1158
aS'wheres guttah'
p1159
aS'females cause niggas yall wrong isnt find right nigga going right back sucking dick lmao'
p1160
aS'pregnant sister would baking cake right naaa fatgirlprobz'
p1161
aS'unemployed'
p1162
aS'finally listen pandora haha'
p1163
aS'yaaaaay'
p1164
aS'kaykay becareful'
p1165
aS'thanks thats love 2hrs'
p1166
aS'want swimming right fuck getting sunburned'
p1167
aS'money brang power'
p1168
aS'bitch casa casa slut'
p1169
asS'2013_23'
p1170
(lp1171
S'wanna shmooke'
p1172
aS'fuck hitman paid aint shit'
p1173
aS'niggas wearing purple shirt tight skinny jeans high white purple forces killyoself'
p1174
aS'mojos skinny jeans shit'
p1175
aS'real street nigga dont depend nigga mayne'
p1176
aS'choking sour bitches'
p1177
aS'money bring power'
p1178
aS'heaven visiting hours'
p1179
aS'alive blessed thankful'
p1180
aS'fucks'
p1181
aS'hustlin days cant right'
p1182
aS'bands'
p1183
aS'bitch'
p1184
aS'seriously came word always fuck'
p1185
aS'everythang purrrty pourin dirty presidential rolly cost birdy beautifulday'
p1186
aS'boosie'
p1187
aS'mama told money make moneeeyyy'
p1188
aS'needs hurry home ready lake'
p1189
aS'salon'
p1190
aS'high bitch watching george lopez comedy show laughing'
p1191
aS'ayyeee already'
p1192
aS'hating aint'
p1193
aS'sucks gunna graduation'
p1194
ag4
aS'days graduation'
p1195
aS'guess cool'
p1196
aS'bros babymama annoying sometimes'
p1197
aS'phones tripping'
p1198
aS'smoking brothers best times'
p1199
aS'asshole kinda arrogant'
p1200
aS'focus matters doesnt'
p1201
aS'know watching better place'
p1202
aS'girl gives doesnt love shes tired getting hurt feels like youl\xe2\x80\xa6'
p1203
aS'singing jamming todas fucked haha'
p1204
aS'drunk bitch lmfao'
p1205
aS'crazy'
p1206
aS'mean tias'
p1207
ag4
aS'dont think able hang drinkin'
p1208
aS'damn'
p1209
aS'came tias crib still goin'
p1210
aS'drunk since morning lmao'
p1211
aS'fucking irritated'
p1212
aS'ughhh'
p1213
aS'tryna find little reason fucking argue'
p1214
aS'lady fucking trippin'
p1215
aS'retweet pass prayer'
p1216
aS'hear everybody talkin'
p1217
ag4
aS'2013 graduates'
p1218
aS'takes person change life'
p1219
aS'everything aint seems'
p1220
aS'dont trust promises anymore learned theyre never kept'
p1221
aS'guys nowadays wanna fuck thirthirsty'
p1222
aS'matter shit'
p1223
aS'live life fullest'
p1224
aS'sometimes back look things different perspective'
p1225
aS'blessed living life living know everybody chance like'
p1226
aS'like things'
p1227
aS'makes realize alot things'
p1228
aS'theres alot shit happening lately aint even funny'
p1229
aS'next gone'
p1230
aS'damn mayne'
p1231
aS'tomorrow fasho'
p1232
aS'hope shes'
p1233
aS'walked store nigga already rillos counter wassup'
p1234
aS'photoshoot went great'
p1235
aS'never text drive youre phone'
p1236
aS'sleepy driving'
p1237
aS'early shit cuzz'
p1238
aS'wakin pick waaaay cherrywood'
p1239
aS'ohhhh'
p1240
aS'problem cuzzz aite later'
p1241
aS'nigga happy birthday candies later safe turnup'
p1242
aS'talking bout'
p1243
aS'hope aint allergic shit ltlt'
p1244
ag4
aS'mask face burns'
p1245
aS'clean tonight'
p1246
aS'fact theyre coming house take picturesgtgtgt'
p1247
aS'subtweeting hahaha like shit'
p1248
aS'oomf acting'
p1249
aS'oakcliff'
p1250
aS'first48'
p1251
aS'stay solid love'
p1252
aS'shes guttah love female struggles aint fake shit love rideordi\xe2\x80\xa6'
p1253
aS'ifthepurgewashappeninginreallife lmao'
p1254
aS'stupid mutha fucka'
p1255
aS'care next dont make damn mind'
p1256
aS'fuck fuck niggas'
p1257
aS'fasho purge'
p1258
ag4
aS'swimming tomorrow night'
p1259
aS'ayee already'
p1260
aS'wassup lets swimming tomorrow'
p1261
aS'aint bout life'
p1262
aS'finally everything jostens'
p1263
aS'swimming fucked tomorrow night lmao'
p1264
aS'pools open'
p1265
aS'think ayee already nigga'
p1266
aS'ready shit'
p1267
aS'tryna wassup right know'
p1268
aS'think overthere know wassup'
p1269
aS'standing strong bcuz showed never show weakness miss nigga feel'
p1270
aS'18thingsiwant'
p1271
aS'finna crib tomorrow'
p1272
aS'duhh bitch'
p1273
aS'many tryna'
p1274
aS'thang'
p1275
ag4
aS'someone talks everybodys business aroundltltltltlt'
p1276
aS'money making mission'
p1277
aS'jostens taking ever people'
p1278
aS'next saturday'
p1279
aS'chillin crib finna diana take girls take pics jostens pick gown shit'
p1280
aS'good'
p1281
aS'know count brothers know count mother'
p1282
aS'could count everything didnt planned saying could count'
p1283
aS'stop letting people control happiness'
p1284
aS'time serious'
p1285
aS'free many yall'
p1286
aS'days without talking obviously important'
p1287
aS'azzz titties booty bitches'
p1288
aS'dont follow unfollow bitch'
p1289
aS'bitch tall swat blockin yall lmfao'
p1290
aS'awake nothing tweet sleepy'
p1291
aS'maybe'
p1292
ag4
aS'guess graduation itll sink'
p1293
aS'reality graduating hasnt'
p1294
aS'swore gunna back sleep'
p1295
aS'jostens later today'
p1296
aS'taking graduation pictures tomorrow yaaaaaaaaay'
p1297
aS'think need shopping graduation asap'
p1298
aS'outfit graduation'
p1299
aS'didnt give fuck yesterday dont give fuck today probably wont give fuck tomorrow'
p1300
aS'room'
p1301
aS'dont understand person tell many lies never feel'
p1302
aS'cant judge business'
p1303
aS'marijuana illegal pain reliever antidepressant world cigarettes legal cause death world'
p1304
aS'theres looking back thats sure'
p1305
asS'2013_28'
p1306
(lp1307
S'sure ready relationship right mayne\xe2\x80\x9d'
p1308
aS'drunk talk lmao'
p1309
aS'unexpected people'
p1310
aS'crazyy well atleast think'
p1311
aS'doubts wont ever know'
p1312
aS'brand start brand person'
p1313
aS'want worry future whatevers store'
p1314
aS'fuck errthang'
p1315
aS'fuck past'
p1316
aS'want start whole begining'
p1317
aS'cant olboy made smile'
p1318
aS'think'
p1319
aS'emotionally fucked dont want thru feel'
p1320
aS'niggas trying minute'
p1321
aS'ughhh wanna home'
p1322
aS'much'
p1323
aS'sure ready relationship right mayne'
p1324
aS'came north dallas make'
p1325
aS'emotinal nigga'
p1326
aS'nigga wanna called nigga'
p1327
aS'llab'
p1328
aS'niggagoneon'
p1329
aS'nigga wanna called nigga'
p1330
aS'goodnight slut'
p1331
aS'goodnight slut'
p1332
aS'well damn ight goodnight'
p1333
aS'denisia dont ride'
p1334
aS'lmao gone hahaha'
p1335
aS'chillin right betos tryna fina ride home'
p1336
aS'aint bucking ceiling aint rollin'
p1337
aS'riding partner balling'
p1338
aS'hustle never stops'
p1339
aS'dislike hotness'
p1340
aS'talk trash moved'
p1341
aS'feel'
p1342
aS'heart broken trying heartless'
p1343
aS'fuck nigga light fuck bullshit'
p1344
aS'damned nigga take smile away'
p1345
aS'another nigga bitch'
p1346
aS'wake bake goodmorningafternoon'
p1347
aS'woke'
p1348
aS'finally home'
p1349
aS'need'
p1350
aS'mona dont wanna smoke aint bout bout'
p1351
aS'ayee come come scoop'
p1352
aS'need blunt'
p1353
aS'swear mona wouldve knocked hoes showing damn crib straight'
p1354
aS'hoes coming house talking bout telling people stds'
p1355
aS'zodiac sign'
p1356
aS'wish hoes would pull shit like around'
p1357
aS'bitches days dumb shit'
p1358
aS'hoes trippin foreal'
p1359
aS'know exactly talking'
p1360
aS'wish hoes would pull shit like around'
p1361
aS'lmao talking'
p1362
aS'haha know talkin'
p1363
aS'bitch know'
p1364
aS'mondayy'
p1365
aS'bitch dezaray lets house lmao'
p1366
aS'seen monday hsrdly check phonebut reschedule'
p1367
aS'hoes coming house talking bout telling people stds bitch imdown street dont play'
p1368
aS'shit aint cool mayne'
p1369
aS'swollen shit'
p1370
aS'wassup everybody smacking shit tattoo'
p1371
aS'cousin answering calls hoeinnnn'
p1372
aS'shit hurt'
p1373
aS'fucking slapped tattoo'
p1374
aS'damn'
p1375
aS'okay'
p1376
aS'text hoeski'
p1377
aS'niggas talking tough steady hiding shit'
p1378
aS'allot young jeezy'
p1379
aS'smoking apple'
p1380
aS'stay grind\xf0\x9f\x8e\xb6'
p1381
aS'hate seeing struggle'
p1382
aS'need blunt\xf0\x9f\x98\x8c'
p1383
aS'think'
p1384
aS'bipolar much'
p1385
aS'coming'
p1386
aS'hate mood swings havin'
p1387
aS'tlady tripping balls shit'
p1388
aS'know bearly seeing haha nigga straightup'
p1389
aS'twitterbeef'
p1390
aS'marlons keeping entertained tweets shit'
p1391
aS'never nigga think need'
p1392
aS'fuck friend nigga bidness'
p1393
aS'standin corner slangin caaane'
p1394
aS'swear acts like little bitch like party crying stupid shit little bitch\xe2\x80\xa6'
p1395
ag4
aS'hard decision'
p1396
ag4
aS'want dont'
p1397
aS'tonight make mind though'
p1398
aS'still debating wether saturday'
p1399
aS'shit scary'
p1400
aS'watching haunted house'
p1401
ag4
aS'smoke boorrrrrriiiiingggg'
p1402
aS'jpaying cousin onelove'
p1403
aS'fuck look like stressing friends family walk past dont even speak'
p1404
aS'ohhh'
p1405
ag4
aS'work'
p1406
aS'rico'
p1407
aS'dont regret fall'
p1408
aS'summer needs slow'
p1409
aS'cant find nobody weed'
p1410
aS'like suuuuuperrrr overhere live'
p1411
aS'reefer really makes happy nigga blaze'
p1412
aS'ugly horse looking niggas thinking sweet emotional tweets gonna pussy twitter'
p1413
aS'miss youre cunt'
p1414
aS'finna crash goodnight twitter users'
p1415
aS'yeah smoke weed people still managing life'
p1416
aS'7eleven west dallas finally open'
p1417
aS'even though hard understand carry'
p1418
aS'never know someones gone good till happens'
p1419
aS'gtgtgtgt last retweet'
p1420
aS'white house pretty good movie though'
p1421
aS'crunk playlist playing youtube'
p1422
aS'tell bitch give head ochocinco'
p1423
aS'tell bitch give head ochocinco'
p1424
aS'hear niggas talkin talkin bout'
p1425
aS'know never fucking clean'
p1426
aS'lmfao helllllll yeah like sleep cleaned damn already'
p1427
aS'haha song goin hard'
p1428
aS'nigga aint worried bout nothin'
p1429
aS'foreal energized tryna spring clean shit blowed chillin like away'
p1430
aS'like sleeeeeep'
p1431
aS'crazy ladies'
p1432
aS'tlady wants help clean time\xe2\x80\x9d lmao dammmmm'
p1433
aS'dont think'
p1434
aS'tlady wants help clean time'
p1435
aS'tattoo session'
p1436
aS'thats real talk'
p1437
aS'homewrecking hoes beat fuck'
p1438
aS'fucking disgusting'
p1439
aS'yall pathetic'
p1440
aS'snorting condoms fucking serious'
p1441
aS'liberty comes refuse leashed'
p1442
aS'calls trying like someone else nigga fucking sucks knew fail'
p1443
ag4
aS'like stfu already'
p1444
aS'nigga edwin always bitchass'
p1445
aS'nigga fuckk youu'
p1446
aS'wake bake'
p1447
aS'guttah gone fuck shit lmao okayden'
p1448
aS'guttah gone fuck shit lmao'
p1449
aS'couple mistakes always right always real'
p1450
aS'jordan saturday gtgtgtgt yassssss'
p1451
aS'sent intro bricksquad album coming soon'
p1452
aS'smoke session'
p1453
aS'wanna fucking explore universe shit'
p1454
aS'changed gettin paper flashy like better fucked ashy'
p1455
aS'love fuck still hate blowing'
p1456
aS'thought really lost'
p1457
aS'finally found weeeed happytweet'
p1458
aS'muthafuckin memories real shit neva forget'
p1459
aS'cleaning room find misplaced damn kush'
p1460
aS'night'
p1461
aS'wanna smoke'
p1462
aS'damn need find'
p1463
aS'thatsthatgoodshit'
p1464
aS'talkin phone hear background nigga danny coughing hard bitch'
p1465
aS'fuck trippy better section july 20th'
p1466
aS'show emotion ever dont love mothafucking hoes'
p1467
aS'hungraaay'
p1468
aS'sold'
p1469
aS'streets never nobody wanna jail nomore'
p1470
aS'nigga future song though'
p1471
aS'dare make accusation nigga check verification whateva protect reputation'
p1472
aS'guilty association'
p1473
aS'young rich niggas bottom came cant loose'
p1474
aS'goons around nigga keep shootas round fool'
p1475
aS'rich nigga since birth'
p1476
aS'make bottom chosen'
p1477
aS'street nigga rich junkies'
p1478
aS'lmao hahaha crazyfemales'
p1479
aS'know waaaaah'
p1480
aS'know damn sure sister didnt cant smoke whats'
p1481
aS'lost kush stonerprobs'
p1482
aS'know rolled dinning room table'
p1483
aS'lost kush'
p1484
aS'ohhhh'
p1485
aS'remember little would always catch watching news'
p1486
aS'guttah muthafucking mission'
p1487
aS'wassup fuckery'
p1488
aS'noworries'
p1489
aS'hahaha'
p1490
aS'like times'
p1491
aS'bitch baby hell back'
p1492
aS'lmao instagram'
p1493
aS'company come time'
p1494
aS'smokingonpurple'
p1495
aS'fuck cold shower feel good'
p1496
aS'damn drippin sweat'
p1497
aS'like supa outside'
p1498
aS'wish fatass blunt smoke afterwards'
p1499
aS'well someone'
p1500
ag4
aS'gunna take foevaa'
p1501
aS'muthafuckas bigg'
p1502
aS'drag taking dubz bath'
p1503
aS'dont care overlooked shit'
p1504
aS'nigga keep wrong keep taking back cant complain everytime dumbass thats'
p1505
aS'wish could emojis flicking'
p1506
aS'crush monday'
p1507
aS'violating amendment'
p1508
aS'daswassup'
p1509
aS'problems moved cliff'
p1510
aS'week didnt evenknow females'
p1511
aS'type drama black females jumped sister'
p1512
aS'still fuking around didnt much drama'
p1513
aS'honestly moved pinkston changed'
p1514
aS'reason school socialize lmao'
p1515
ag4
aS'drama around'
p1516
aS'wasnt drama hoes drama dumbass administrators'
p1517
aS'moved'
p1518
aS'never wanted move think glad koved shitty school'
p1519
aS'think main reason alot drama ndhs knew alot people'
p1520
aS'niggas fucked head realize wassup'
p1521
aS'gotta female cuts thru thick thin fuck'
p1522
aS'biggest fear losing mother'
p1523
aS'retweet pass twitter blunt'
p1524
aS'wake stay like hours phone shit'
p1525
aS'matta fact music getaway'
p1526
aS'shows much love listening music'
p1527
aS'days month hours left pandora waaaaah'
p1528
aS'riding devil side uoeno theworstfeeling'
p1529
aS'sister moved living room couches around could chill comfortable lazzzyness'
p1530
aS'alone think think think'
p1531
aS'fuck feelings cause business business strictly financial'
p1532
aS'everyone dies time gods telling youve done sent'
p1533
aS'saying damn well knowing nothing happened thatniggashit'
p1534
aS'seeing struggle stressed ltltltltltltltltltltltltltltltltltltltlt'
p1535
aS'wonder'
p1536
aS'hmmm'
p1537
aS'feelings night'
p1538
aS'cousin needs hurry pull'
p1539
aS'wanna smoke'
p1540
aS'females chill lowkey\xf0\x9f\x98\x8d\xf0\x9f\x91\x8c gtgtgtgtgtgtgtgtgtgtgt'
p1541
aS'hate drinking white milk alone'
p1542
asS'2013_29'
p1543
(lp1544
S'aint thing friends associates'
p1545
aS'trippin'
p1546
aS'lmao'
p1547
aS'whoop bazz'
p1548
aS'youre ready'
p1549
aS'dont ever nigga think need fuck friend bizness'
p1550
aS'youu cant tell youu dont want'
p1551
aS'football seasonnnn gtgt'
p1552
aS'honestly miley cyrus looks like look haha'
p1553
aS'find'
p1554
ag4
aS'door yesterday drinking lmao'
p1555
aS'bump head'
p1556
aS'spanish girls naturally beautiful'
p1557
aS'equis'
p1558
aS'high fuuuckk'
p1559
aS'nigga 3hunnit'
p1560
aS'ooooo weeee went walmart looking raaaaatchet'
p1561
aS'never depend anyone nobody like'
p1562
aS'nobody wants jail 100yrs stop trying hard leave real street nigga\xe2\x80\xa6'
p1563
aS'life love death'
p1564
aS'attention price'
p1565
aS'deserve happy fuck bullshit'
p1566
aS'always tryna fuck shit'
p1567
aS'aint even funny'
p1568
aS'oomf obsessed bitch foreal mayne'
p1569
aS'whenu already fuckwith hmbys'
p1570
aS'always niggas dick'
p1571
aS'like damnbitch leave fuck alone'
p1572
aS'posting somedumb shit'
p1573
aS'hate bitches tryna anigga caught upand shit'
p1574
aS'cousinover drunk fuck snoring shit'
p1575
aS'drunk fuckkkkkk'
p1576
aS'good time'
p1577
aS'looooong fucking night mayne'
p1578
aS'finally going sleep'
p1579
aS'fuck outta'
p1580
aS'passed like times'
p1581
aS'bitchass nigga finna fuck around catch anass whooping'
p1582
aS'nigga drunk fuck keep passing crib creeping shit'
p1583
aS'drunk idgaf'
p1584
aS'damnthat lady dying 6flags crazy'
p1585
ag4
aS'fuuuucccckkk'
p1586
aS'drunk fuckkkkkk'
p1587
aS'call need dope nigga dont need friend'
p1588
ag4
aS'still considered thursday since havent went sleep woke back'
p1589
aS'couldve sworn going sleep like hour'
p1590
aS'night busta'
p1591
aS'finna crash goodnight twittaaaa'
p1592
aS'night sukka'
p1593
aS'aint'
p1594
aS'time'
p1595
ag4
aS'deserve happy fuck think'
p1596
aS'liking going'
p1597
aS'haha'
p1598
aS'lmao okden'
p1599
aS'woman'
p1600
aS'money speak bullshit keep waking'
p1601
aS'like fire gasoline good youre good'
p1602
aS'hate phone freezes'
p1603
aS'life choices mistakes lessons business'
p1604
aS'niggas walkin crib didnt fucking screamed loud ended scaring lmao'
p1605
aS'wanna smoke mayne'
p1606
aS'fucking niggas snitching fuck away'
p1607
ag4
aS'thats shit crayy'
p1608
aS'anybody everything twitter googling username'
p1609
aS'damn'
p1610
aS'everyone gets eventually'
p1611
aS'mind right'
p1612
aS'retweet story life'
p1613
aS'hate people don\xe2\x80\x99t assume shit looks obvious bitch course going assume'
p1614
aS'dont stop retweeting'
p1615
aS'fuck many times'
p1616
aS'intime good movie'
p1617
aS'even though thru love talking threeletters frontndback freemycuzzin'
p1618
aS'want much pride standing infront trying talk thats want like good'
p1619
aS'dont want like dont talk'
p1620
aS'seeingtalking long time trick'
p1621
aS'time space needed'
p1622
aS'makes feel really proud'
p1623
aS'aint anymore sukka'
p1624
aS'sign actually getting person'
p1625
aS'seeing picture someone head overheels another female feeling hurt like okden'
p1626
aS'yall niggas gotta better'
p1627
aS'damn marijuana pipe found kids meal'
p1628
aS'llab outta'
p1629
aS'landlord overhere crib fixing shit thinkin sounds cute singing shit'
p1630
aS'either blessing lesson'
p1631
aS'youre either real fakeaint'
p1632
aS'need spanish plug'
p1633
ag4
aS'might well stay awake wake niece school'
p1634
aS'done finally'
p1635
aS'like hours'
p1636
aS'knock'
p1637
aS'gunna smoke session'
p1638
aS'little'
p1639
aS'almost finished'
p1640
aS'yaaaay'
p1641
aS'nomore tattoos maybe'
p1642
aS'cant wait done name'
p1643
aS'trying keep mind muthafucking pain'
p1644
aS'trying sound smart epicfail'
p1645
aS'mean fore lmao'
p1646
aS'feel forehand vibrating'
p1647
aS'ohmygoshhh'
p1648
aS'oomf needs entertain something'
p1649
aS'wassup mayne'
p1650
aS'soooo dead'
p1651
aS'hurts'
p1652
aS'fuuuuuuuckkk life'
p1653
aS'must finish going sleep'
p1654
aS'want sleep already'
p1655
aS'fixing start mothers name'
p1656
aS'dont quit'
p1657
aS'pops worth pain'
p1658
aS'hurts'
p1659
aS'currently daddysname'
p1660
aS'nigga fell asleep early whackass'
p1661
aS'phones fucking need asap'
p1662
aS'meanwhile jamming nigga'
p1663
aS'getting nerrrrrvous'
p1664
aS'fuck'
p1665
aS'hopefully shit dont hurt'
p1666
aS'think mayne'
p1667
aS'tladys pops name wrist'
p1668
aS'mayne done done'
p1669
aS'grew screw'
p1670
aS'prices lower shawty'
p1671
aS'hatin fuck niggas thats feel'
p1672
aS'baby'
p1673
aS'always savage'
p1674
aS'getcho year dick somewhere dismissed'
p1675
aS'kush strong know smell fuck boys snitchin know tellin'
p1676
aS'remind good time decision'
p1677
aS'wish knew truth shit'
p1678
aS'bullshit made strong'
p1679
aS'respects veteran soldiers'
p1680
aS'young scooter stay point'
p1681
aS'currently'
p1682
aS'smfh'
p1683
aS'dont want believe cant'
p1684
aS'never million years would thought shit would happen'
p1685
aS'shits crazy'
p1686
aS'dont even know feel'
p1687
aS'damn'
p1688
aS'niggas days confusuing make wanna start fucking bitches'
p1689
aS'workat forever'
p1690
aS'trying speak native language estupido lmfao fool'
p1691
aS'drug test'
p1692
aS'test lmao'
p1693
aS'whaaaat never heard well heard water cranberry juice possible want doesnt'
p1694
aS'unless know anything else'
p1695
aS'thats hoes like 6070 leaves clean hour rather clean'
p1696
aS'lmao know though trying find really chillin smokin sippin'
p1697
aS'back overthere yesterday overthere weekend plus dont ride overthere smoking'
p1698
aS'know'
p1699
aS'going back past isnt problem problem staying'
p1700
aS'damn hood'
p1701
aS'zimmerman supporters explain justicefortrayvon zimmermantrial zimmerman'
p1702
aS'never date anyone thats hairy\xf0\x9f\x91\xb9 nasty breathugly personalityputs downflirts\xf0\x9f\x92\x81 talks picky'
p1703
aS'earlyy'
p1704
aS'hate people hold back want speak fucking mind'
p1705
aS'fucking bitch'
p1706
aS'denisias bitchass sick'
p1707
aS'girl crazyu house'
p1708
ag4
aS'havent seen movie minute'
p1709
aS'watching little nicky'
p1710
aS'like'
p1711
aS'shit thats good thing'
p1712
aS'wana stop tweeting contagious guys'
p1713
aS'lmao thought'
p1714
aS'fuck lmao damn sucks'
p1715
aS'hear word around street contagious lmao cough sounds horrible runny\xe2\x80\xa6'
p1716
aS'people tell smoke cause trait girls cares nigga cause aint hittin'
p1717
aS'going stop smoking like starting tomorrow smoking today'
p1718
aS'probably know real contagious'
p1719
aS'abot monday cabt takibg marilyn doctors tottally passed since kast mond\xe2\x80\xa6'
p1720
aS'instagram twitter'
p1721
aS'straight scoring cant emojis'
p1722
ag4
aS'fine guhhh'
p1723
ag4
aS'jocelyns tryna funny'
p1724
aS'damnnn lmao fuck life'
p1725
aS'know tell stop fucking putting'
p1726
aS'chilling watching niggas play pool'
p1727
aS'cant emojis androidproblemz lmao'
p1728
aS'wanna wuuuut nooooo lmao'
p1729
aS'smoking blunt blunt blunt blunt blunt blunt'
p1730
asS'2013_37'
p1731
(lp1732
S'love eyes look mascara theyre blood shot'
p1733
aS'fooling even dreams nigga'
p1734
aS'funny'
p1735
aS'name dezeray think thats spell'
p1736
aS'think dream night fought female used rusk'
p1737
aS'tellem homicide'
p1738
aS'teamcanelo'
p1739
aS'teamcanelo coronas smirnoff okayden'
p1740
aS'fight later tonight brothers spot teamcanelo'
p1741
aS'found followers thanks androidapp'
p1742
ag4
aS'haunted houses'
p1743
aS'friday 13th'
p1744
aS'barz days behind like'
p1745
aS'thought tuesday yesterday lmao'
p1746
aS'needa spend night guttahs house kick parents ofcourse'
p1747
aS'yaay might phone soon'
p1748
aS'saying date reguardless shed respect whatsitgonnabe'
p1749
aS'says hates family doesnt want dating cant help care feel'
p1750
aS'loooove eating dumdums'
p1751
aS'yall thought game okay'
p1752
aS'defeated north dallas congrats bitch'
p1753
aS'sometimes niggas cant make mind amen'
p1754
aS'canelo gone sleep bitch nigga'
p1755
aS'aint hating thing nigga haha'
p1756
aS'ones fuck niggas'
p1757
aS'know'
p1758
aS'needa spend night guttahs house kick parents ofcourse'
p1759
aS'smoking blunt yuhhhh'
p1760
aS'fuck already popped yellow half haaa'
p1761
aS'ironic'
p1762
aS'didnt know know niggggggga'
p1763
aS'detached distant cold times spark interest become clingy become important'
p1764
aS'cold corona yeslawwwwwd'
p1765
aS'everythang hunnet'
p1766
aS'anyways watching breakingbad though'
p1767
aS'scared whole start tripping'
p1768
aS'yellow ones'
p1769
aS'popped half'
p1770
aS'hate niggas worse bitch'
p1771
aS'biggest ranch party denton teamsavage parties'
p1772
aS'dads mind alot lately restinpeacemyangel'
p1773
aS'nothing important money'
p1774
aS'rolling'
p1775
aS'stoves pots trap blocks show niggas white power'
p1776
aS'waching'
p1777
aS'somebody needa teach gucci spell fahreal'
p1778
aS'single niggas take long time reply stupid reason single lmao'
p1779
ag4
aS'dont think nigga love steady coming back nigga love power know gone take'
p1780
aS'smash first night imjusthonest aint judge fell nigga imjustbeinghonest'
p1781
aS'relationship week later realize never even liked person crazy'
p1782
aS'geeked barz'
p1783
aS'swear tlady trippin'
p1784
aS'hope'
p1785
aS'late'
p1786
aS'make kushed bard lmao'
p1787
aS'fatass kush blunts back back okayden'
p1788
aS'feeling type'
p1789
aS'best part waking getting bake'
p1790
aS'stole'
p1791
aS'bitch nigga'
p1792
aS'hurt dream slapped nigga stole'
p1793
aS'hate waking dream feels real'
p1794
aS'honestly hope shitll never happen deep inside know wassup'
p1795
aS'bitches crazy yall arguing nigga exist make piece'
p1796
aS'thats dream though'
p1797
aS'daaaamn'
p1798
aS'lolllllll dammmm dats baddd batch clownsanddrugsdontmixx'
p1799
aS'really wonder gucci really hacked'
p1800
aS'wooooow'
p1801
aS'rozay join list police nigga'
p1802
aS'straight exposing niggas bitches'
p1803
aS'lmao nigga going last night'
p1804
aS'waka fuck nikki minaj dats nothing burrrrrrned'
p1805
aS'yeah shot street shit shot yeah avoided shot good\xe2\x80\xa6'
p1806
aS'niggaz forgot made bricksquad niggaz know aint never bricks frfr'
p1807
aS'cant beef nigga grew behind picket fence struggle wasnt gone 32ent'
p1808
aS'want guwop feature bricksquad watered represent trap niggas'
p1809
aS'always tell truth even'
p1810
aS'must enough admit mistakes smart enough profit strong enough correct'
p1811
aS'travel half around world truth putting shoes bighomieflock'
p1812
aS'send lawyer information send little extra icecreamcone make hood look'
p1813
aS'fuck bitch niggah crying niggah stand grounds pussy niggah'
p1814
aS'everybody keep asking side aint choosing sides comes family fact\xe2\x80\xa6'
p1815
aS'never robbed facts'
p1816
aS'thang bout juice nigga aint took shit nigga know rocking real concrete solid type nigga better'
p1817
aS'tell stole 500k trapping texaco'
p1818
aS'atlantic offered waka fired lawyer passing dumb message honest daaaamn like'
p1819
aS'hell nigga take jacket face talking bout bitch bitch nigga murk dont play'
p1820
aS'think gone fuck feel like fucked'
p1821
aS'dats want denn'
p1822
aS'gucci aint hacked yall dumb think said beefin waka'
p1823
aS'fucking recklesss'
p1824
aS'fucking recklesss'
p1825
aS'fulla barzzz'
p1826
aS'found followers thanks androidapp'
p1827
aS'xantastic'
p1828
aS'high high'
p1829
asS'2013_36'
p1830
(lp1831
S'dont didnt shit stop talking'
p1832
aS'people remain ignorant guess never change'
p1833
aS'scarifice success'
p1834
aS'theres much somebody take fuck give'
p1835
aS'teamcanelo'
p1836
aS'hate people dont understand opinion nigga dislike like something dont gotta argue'
p1837
aS'takes time really realize want dont'
p1838
aS'natural make virgin make innocent life'
p1839
aS'miss guttah'
p1840
aS'tried everything already walking eating spicy food running stairs'
p1841
aS'sure works gets home know really tryna baby'
p1842
aS'hopefully baby already'
p1843
aS'pretty sure today tomorrow'
p1844
ag4
aS'sister contractions'
p1845
aS'okay well going give type thatll help baby'
p1846
aS'tell'
p1847
aS'might babies around time hospital yesterday reason'
p1848
aS'aint together dont worry bout'
p1849
aS'hopefully tonight though'
p1850
aS'false alarm baby'
p1851
aS'theyre admitting sister hospital babymanueljr'
p1852
aS'sister woke talking bout shes contractions damn early'
p1853
aS'maybe right might head'
p1854
aS'seeing annoys fuck'
p1855
aS'hate greedy ungrateful people passion'
p1856
aS'getting interesting'
p1857
aS'since didnt finish watching breakingbad yesterday finish today'
p1858
aS'never thought enrolling someone would take fucking long'
p1859
aS'came enroll nephew theyre taking foreverrrrrrrr'
p1860
aS'watching seasons breakingbad'
p1861
aS'dont give fuck people think wouldnt'
p1862
aS'gonna'
p1863
aS'dont messy hoes fuck world'
p1864
ag4
aS'fuck court imstillgoingthough'
p1865
aS'ughh since like gotta court getting sleepy'
p1866
aS'amazing high stay earth'
p1867
aS'heart mentality wont allow stop chasing dreams'
p1868
aS'like'
p1869
aS'fucked bitch week aint gone fuck'
p1870
aS'high though'
p1871
ag4
aS'lmao'
p1872
aS'lean molly ready'
p1873
aS'make called street niggas feel inse'
p1874
aS'like daddy hustla like mama stack bread winter ball summer'
p1875
aS'fuck though thuglife llab'
p1876
aS'sound real desperate lmao'
p1877
aS'dont wanna push back homie want girl back'
p1878
aS'need come dallas soon'
p1879
aS'kind feedback nigga'
p1880
aS'retweetfollow'
p1881
aS'denisias hurrr'
p1882
aS'braking dimes summa'
p1883
aS'hatas gone hate like anyway'
p1884
aS'goal today follow back retweet something nigga'
p1885
aS'gucci everyday time'
p1886
aS'denisias finally coming home work waiting like smoke felt like houurrrrrs'
p1887
aS'burp long time'
p1888
aS'keep hoes money stay'
p1889
aS'shit happens either dwell fuck'
p1890
aS'money root evil money reason rude people'
p1891
aS'beefing worrying whos screwing fighting shit dead class stack money'
p1892
aS'shouldnt gossip thats female trait'
p1893
aS'going never much keep smile keep everything looking like good'
p1894
aS'didnt change realized shit'
p1895
aS'high bitch'
p1896
aS'cousin started choking hard almost threw lmao'
p1897
aS'almost passed llab'
p1898
aS'brothers bong'
p1899
ag4
aS'loooking ahhhhh'
p1900
aS'goodmorning cuties'
p1901
aS'done'
p1902
aS'grumpy bitch lmao'
p1903
aS'else everyday time'
p1904
aS'good thing curtains dark'
p1905
aS'fuck around blind'
p1906
aS'bright outside open curtains'
p1907
aS'wonder whats going'
p1908
aS'hear lady outside talking come'
p1909
aS'early awake'
p1910
aS'know stay overhere'
p1911
aS'club'
p1912
aS'thats'
p1913
aS'mean'
p1914
ag4
aS'early birds'
p1915
aS'went ridgecrest luck wack'
p1916
asS'2013_35'
p1917
(lp1918
S'phones fucked'
p1919
aS'problems much pride help'
p1920
aS'sometimes trippin forgettin come fuck baby done share'
p1921
aS'miss miss slut'
p1922
aS'miss'
p1923
aS'problem hater place'
p1924
aS'miss bullshit'
p1925
aS'heard tricks mouth nigga'
p1926
aS'hate subtraction everyday gotta'
p1927
aS'think many blunts today'
p1928
aS'ugly hoes dont time'
p1929
aS'chiefing brother rigos bitchass'
p1930
aS'real early mayne'
p1931
aS'triggers pain memories heal pain time forget pain move'
p1932
aS'dont people reason stop fucking fucked something didnt like'
p1933
aS'rich homie quan bout shit lock shoutout richhomies'
p1934
aS'well atleast opinion'
p1935
aS'lyrics real'
p1936
aS'boosie never'
p1937
aS'like brothers come visit weekend even though come week'
p1938
aS'well yeah goes'
p1939
aS'hell yeah'
p1940
aS'spending money hoes nigga aint fuck shit'
p1941
aS'talk nana clips nigga aint shot shit'
p1942
aS'talking bout hundred bottles nigga aint popped shit'
p1943
aS'talking bout popping tags nigga aint bought shit'
p1944
aS'swear diss song future rich homie sounds funny crunk'
p1945
aS'gonna aite though'
p1946
aS'guess think grown'
p1947
aS'walks room locks door'
p1948
aS'didnt mean slap hard though close'
p1949
aS'nephew screaming face slapped'
p1950
aS'shit going syria crazy'
p1951
aS'dont settle less deserve'
p1952
aS'youre going hell keep going dont slow youre scared dont show'
p1953
aS'coming time another session'
p1954
aS'want follow back nigga though'
p1955
aS'migos table shots julio fucked bitch week iaint'
p1956
aS'boxx though want'
p1957
aS'live moment dont drama bring'
p1958
aS'pretend dont know'
p1959
aS'silly girls'
p1960
aS'cousin gots females going crazy locked'
p1961
aS'theres levels shit'
p1962
aS'everything happens reason stay positive faith'
p1963
aS'called today happy hear hell coming home'
p1964
aS'really asleep since court starts cant sleep'
p1965
aS'past month missed nigga much started jamming always jamming'
p1966
aS'fatass told wants elote chinese buffet'
p1967
aS'1251 anxious'
p1968
aS'fuck want nephew already'
p1969
aS'difference never'
p1970
aS'nigga attached mind gone things said youd never'
p1971
aS'people thought real turn fake fuck life goes'
p1972
aS'squad going broke nigga thats hell'
p1973
aS'game good'
p1974
aS'need face keep thing'
p1975
aS'habit giving fuck'
p1976
aS'tell'
p1977
aS'touch jealous'
p1978
aS'loved since first'
p1979
aS'money togetha'
p1980
aS'smoke fuck'
p1981
aS'actually thought gunna able today assholes'
p1982
aS'better pull bullshit like today'
p1983
aS'srsly cant wait nephew'
p1984
aS'sleep early tonight'
p1985
aS'started coming junkies recognized face'
p1986
aS'speaking devil'
p1987
aS'heard wanna fuck know feel type'
p1988
aS'said looks taller lost weight'
p1989
aS'anxious nephew'
p1990
aS'dropping julio remix feat dirtybirds falcons'
p1991
aS'tragedy hits makes stop realize whats really important life'
p1992
aS'money comes money goes thats goes'
p1993
aS'don\xe2\x80\x99t lower standards anyone anything self respect everything'
p1994
aS'holding fucking going make think nice'
p1995
aS'tryna balance'
p1996
aS'treat like dont need'
p1997
aS'differences rich homie quan'
p1998
aS'shit made'
p1999
aS'looooong fucking month hell home tomorrow'
p2000
aS'babys coming home'
p2001
aS'dont fuck fake bitches'
p2002
aS'bitch love'
p2003
aS'nobody understand situation except niggas'
p2004
aS'less friends money'
p2005
aS'family happy thats want'
p2006
aS'know fault dont talk'
p2007
aS'around talk eachother spread rumors'
p2008
aS'time come together funeral'
p2009
aS'aint close like taking'
p2010
aS'family luck wonder'
p2011
aS'cant even family reunion theres always drama'
p2012
aS'made mistake gotta love'
p2013
aS'keep circle tight many fuck niggas'
p2014
aS'gone change family hope change soon tired answering phone hearing news'
p2015
aS'aint bless silver spoon would never goon'
p2016
aS'money dont change every muthafucking thing'
p2017
aS'changes changes changes'
p2018
aS'today soon'
p2019
aS'time heals pain'
p2020
aS'reading letter seeing still fucked situation made tear'
p2021
aS'swear hurts seeing nigga'
p2022
aS'jpayed cousin brother'
p2023
aS'hunting online'
p2024
aS'weird someone move fast never feelings hurts'
p2025
aS'emojis copy paste nigga team android till october'
p2026
aS'cant explain cant explain'
p2027
aS'trust killed love hurt real gets hated'
p2028
aS'cant miss never'
p2029
aS'life aint perfect thank everything'
p2030
aS'rolling'
p2031
aS'finally watching conjuring'
p2032
aS'brothers idiot left business phone house'
p2033
aS'wanting conjuring tripping dont player'
p2034
ag4
aS'people anything friend stand alone\xe2\x9c\x8b break neck fuck somebody'
p2035
aS'hope make'
p2036
aS'maybe everyone straight mind wouldnt many shitty relationships single people\xe2\x80\xa6'
p2037
aS'fuck fame give money'
p2038
aS'miley cyrus keep embarrassing gurl'
p2039
aS'woman'
p2040
aS'find funny grown women puts personal business internet everyone'
p2041
aS'spicy mexican food making gtgt'
p2042
aS'crazy'
p2043
aS'like feel drained emotionally physically'
p2044
aS'shit'
p2045
aS'never knew felt like someone said words cant even explain feel'
p2046
aS'simple'
p2047
ag4
aS'thats know school started today'
p2048
aS'everytime come ridgecrest mothafuckas everywhere today theres none'
p2049
aS'phone pandora trippin'
p2050
ag4
aS'lets long lasts'
p2051
aS'deactivated'
p2052
aS'everythings easier said done'
p2053
aS'best college thats fasho'
p2054
aS'thing regret payin attention opportunities high school'
p2055
aS'college'
p2056
aS'wish couldve started though'
p2057
ag4
aS'else wouldve fucked senior'
p2058
aS'good thing graduated'
p2059
aS'like fuck nigga dont even wanna discuss nigga call girls like really love nigga'
p2060
aS'enough time talk someone else aint worried dont correctly'
p2061
aS'wanna wanna slow'
p2062
aS'love matter matter much argue know she\xe2\x80\x99ll always'
p2063
aS'keep guessing'
p2064
aS'nigga message giving orders aint together almost years face'
p2065
aS'take family straight'
p2066
aS'never changed shit differently'
p2067
aS'even bullshit still'
p2068
asS'2013_34'
p2069
(lp2070
S'bend lemme'
p2071
aS'ever want redecorate bedroom clothes completely reinvent realize take\xe2\x80\xa6'
p2072
ag4
aS'finally nails done'
p2073
aS'since like'
p2074
aS'hate waking early able back sleep'
p2075
aS'nomas pinchis huevos'
p2076
aS'sisters babyshower going fuck'
p2077
aS'swear weekend gone'
p2078
aS'chalino sanchez done guuurl drinking mode'
p2079
aS'mayyyyyne pull bottle'
p2080
aS'song'
p2081
aS'espere mucho tiempo cambiabas miraaaaaas'
p2082
aS'never damn ride'
p2083
aS'like asap'
p2084
aS'need visit pops'
p2085
aS'thats month days'
p2086
ag4
aS'stress'
p2087
aS'went weighing weighs'
p2088
aS'much nigga'
p2089
aS'blood makes related loyalty makes family'
p2090
aS'smile camera really hurting'
p2091
aS'theres soooo much going'
p2092
aS'cant'
p2093
aS'fuck cleaning smoke'
p2094
aS'going clean'
p2095
aS'bored'
p2096
aS'dont fuck give'
p2097
aS'take whole world'
p2098
aS'beef bitches keep brief bitches'
p2099
aS'even comes falling bitch still high'
p2100
aS'hate people talk shit someone hang next'
p2101
aS'would look'
p2102
aS'entertaining bitches none yall making noise'
p2103
aS'whatimissaboutschool'
p2104
aS'dont hold back'
p2105
aS'aint even something else'
p2106
aS'made sure deleted started talking shit though'
p2107
aS'fuck though'
p2108
aS'sister'
p2109
aS'tripping talking shit'
p2110
aS'wish rich could straight university though'
p2111
aS'haha fuck makes'
p2112
aS'hahah nolife'
p2113
aS'really nolie confessions101 lmao'
p2114
aS'thats weird'
p2115
aS'didnt even know already manuels number stored'
p2116
aS'already yeah figured'
p2117
aS'okay tweet look'
p2118
aS'didnt bring yogurt weekend smoke'
p2119
aS'closed mouths already thats'
p2120
aS'yeah know told karen took yogurtland yall shouldve waited assholes'
p2121
aS'real right smoked last time denisa spelled name right beto'
p2122
aS'different everyone crib smoking yeah thats true damn havent smoked blunt'
p2123
aS'yeah hear thats used buuuuut happened'
p2124
aS'yeah know knows still smoking rather infront respect'
p2125
aS'yeah know thats asked seen drunk'
p2126
aS'dark'
p2127
aS'dang remember told blunt infront wonder said thats fault'
p2128
aS'hahah dummy whenever come betos well night cant seen blowing haha'
p2129
aS'thats wassup gunna wheere seen like lmao'
p2130
aS'ohhh okay work right'
p2131
aS'cant emojis nigga arent suppose working ponte trabajar ever fuck spell hahaha'
p2132
aS'suspends antonio smith game preseason games national football post'
p2133
aS'hungraaaaay manny nice smart'
p2134
aS'hungraaaaay'
p2135
aS'like awake house'
p2136
aS'think situation bring closer'
p2137
aS'time'
p2138
aS'devils time haha'
p2139
ag4
ag4
aS'cant sleep sleepy'
p2140
aS'lies magic'
p2141
aS'hitting couple bowls going sleep'
p2142
aS'hate wake missed calls call back dont answer'
p2143
aS'everytime listen dear mama bruh love much'
p2144
aS'sometimes stand alone prove still stand'
p2145
aS'momma wanna hustling wanna momma struggling'
p2146
aS'start workingampget first check swear gonna sams clubampbuy fatass pack rillos'
p2147
aS'hate dumb bitches'
p2148
aS'bluemoon'
p2149
aS'love much whyd'
p2150
aS'first week school always fashion show niggas clothes'
p2151
aS'love fucking calls'
p2152
aS'never tired movies'
p2153
aS'taken'
p2154
aS'girls club'
p2155
aS'never people didnt starve never ride people didnt walk'
p2156
aS'feel alone everyones around'
p2157
aS'like gotten point dont even anymore cant'
p2158
aS'swear hate feeling like'
p2159
aS'running thru types emotions'
p2160
ag4
aS'want point able everythings okay'
p2161
aS'want nephew home already'
p2162
aS'baby still'
p2163
aS'threw nigga curve fronted like didnt even care'
p2164
aS'nigga round best heart'
p2165
aS'ever knows dezaray raitt yessely chavez tell said hands scary'
p2166
aS'ever knows dezaray raitt yessely chavez tell said hands scary'
p2167
aS'found followers thanks androidapp'
p2168
aS'togethor held gave look easy dont deser\xe2\x80\xa6'
p2169
aS'full moon'
p2170
aS'hate fucking junvenile system'
p2171
ag4
aS'goes fucking days wait'
p2172
aS'want sleep'
p2173
aS'fingers crossed tomorrow'
p2174
aS'dont tell sayin explain feel safe talkin shit around'
p2175
aS'anybody bitches bitches\xf0\x9f\x91\xa9 bitches bitches\xf0\x9f\x91\xad\xf0\x9f\x91\xad bitch bitches\xf0\x9f\x91\xaf'
p2176
aS'eating mango gtgt'
p2177
asS'2013_33'
p2178
(lp2179
S'gift made realize every blessing turn disaster every disaster blessing salute'
p2180
aS'dont everything want thankful everything'
p2181
aS'woke bong going back sleep'
p2182
aS'gurl feeling throwed'
p2183
aS'damn'
p2184
aS'aaaaand still drank coronas'
p2185
aS'aaaaand popped like codones'
p2186
aS'brother bong mayne fuck'
p2187
aS'feeling like extraa good'
p2188
aS'swear happiest bitch alive come home monday'
p2189
aS'hopefully gets released monday'
p2190
aS'test already done'
p2191
aS'trent nigga'
p2192
aS'fucked bitch week aint gone fuck'
p2193
aS'every boss started worker'
p2194
aS'wanna relationship aint trying catch feelings fucked'
p2195
ag4
aS'boats hoes'
p2196
aS'dont know shit dont shit'
p2197
aS'going'
p2198
aS'fuck snitches dont tell tellin'
p2199
aS'twitter really entertaining right followers'
p2200
aS'leanin hard dont want'
p2201
aS'fire feel fucked'
p2202
aS'codeine kush trees marijuana'
p2203
aS'getting high know thinking bout'
p2204
aS'gone work'
p2205
aS'lmao biiiiitch gone'
p2206
aS'wanna'
p2207
aS'mean wanns something'
p2208
aS'loves talkin shit'
p2209
aS'tania thats wassup really chillin lookin'
p2210
aS'know aint aint life lmao fukkin manuel'
p2211
aS'know aint aint life'
p2212
aS'wasssup'
p2213
aS'okay wasssup biotch'
p2214
aS'aint really shit might well enroll college'
p2215
aS'niggas rich lazy respect niggas still stay hungry success'
p2216
aS'mind right mine right'
p2217
aS'walked right sight without even speaking word like fuck'
p2218
aS'youll love gone'
p2219
aS'take headphones seriously'
p2220
aS'nephew calls'
p2221
aS'lined already errthang'
p2222
aS'damn need hurry turn already'
p2223
aS'bearly waking manuel fire shit fire shit fire shit'
p2224
aS'waiting ronni help fill paper work'
p2225
aS'changed mind gunna mountain view'
p2226
aS'wuuuuuuuurrrrrrrrk'
p2227
aS'fucked heated feel type'
p2228
aS'thru hell care'
p2229
aS'things'
p2230
aS'everyone meant cool leave friendly shit home'
p2231
aS'regardless situation together love loves fuck everyone else'
p2232
aS'arent together things life would understand'
p2233
aS'stupid medication eyes watever bitch high'
p2234
aS'right might head'
p2235
aS'bang muthafucka bang'
p2236
aS'chest hurting'
p2237
aS'want nephew home already'
p2238
aS'good woman wont wait forever'
p2239
aS'every rapper supposed feel like kendrick feels wanting murder niggas thats wrote'
p2240
aS'everybody dont fuck think remember shit'
p2241
aS'hopefully everything goes good court'
p2242
aS'lmao dumb swear sleep'
p2243
ag4
aS'felicia'
p2244
aS'letters done came action'
p2245
aS'sleep waaay past time'
p2246
aS'okay yeah thats lmao'
p2247
aS'lying nigga'
p2248
aS'haha couldve sworn xavier already asleep'
p2249
aS'donthatecongratulate bullshit'
p2250
aS'belong tomuthafuckinggether'
p2251
aS'strings attached thang'
p2252
aS'really wanna work dont think gonna change'
p2253
aS'yall nigga sleep stophating haha liestoldontwitter'
p2254
aS'punkass gaby book street smart juuheard watever helps sleep night\xe2\x80\xa6'
p2255
aS'youre youre care youre unfair'
p2256
aS'punkass gaby book street smart juuheard'
p2257
aS'punkass gaby book street smart juuheard watever helps sleep night'
p2258
aS'ones trust tell seen happen many times'
p2259
aS'many people wanna fall wonder attitude fuck'
p2260
aS'something baaabyyy'
p2261
aS'magic throwback'
p2262
aS'muthafucking questions'
p2263
aS'lmao think haha okay'
p2264
aS'yeah thats sign stop haha finna call night holla fucked'
p2265
ag4
aS'guess smart wants'
p2266
aS'money spend could used something else'
p2267
aS'welli guess xavier point'
p2268
aS'stop soon though chest trippin shit think asap haha'
p2269
aS'know saying spend bread else'
p2270
aS'foolish'
p2271
aS'know tried harf weed around money'
p2272
aS'aint hard tempting youll'
p2273
aS'dont want scrub nigga'
p2274
aS'thats wassup thinking stopping soon'
p2275
aS'lets hope lord lemme find callin world drunk lmao damn'
p2276
aS'dont wanaa miss youu'
p2277
aS'chill drink sometime dont getting introuble know tell'
p2278
aS'drink like mothafucka haha right cause everywhere drug testing'
p2279
aS'ultima carta'
p2280
aS'well shit thats wassup thats good maybe find good'
p2281
aS'sayin like weeks already cause feeling getting high tiring haha soun\xe2\x80\xa6'
p2282
aS'hell lmao yuhh saaaay since'
p2283
aS'rememberin tried roll dark went blunt ugly'
p2284
aS'finna spark'
p2285
aS'dang forgot doobie'
p2286
aS'chillinnnn'
p2287
aS'ensename olvidarte\xe2\x80\x9d'
p2288
aS'wish blunt'
p2289
aS'ensename olvidarte'
p2290
aS'getting fucked tripping stupid shit haha mayne hold needa chill sometime'
p2291
aS'hell yeah haha especially times would chill throwed'
p2292
aS'sure everybody getting fucked crib lmao foreal right hahaha thats wassup though'
p2293
aS'daddy yankeee gtgt'
p2294
aS'yeah thats chon know always park sippin smokin gettin fucked'
p2295
aS'lmao hell nigga stay stayed gettin fucked haha'
p2296
aS'thats kinda weird think'
p2297
aS'love listening spanish music crash'
p2298
aS'okay nigga hasnt changed talking allll drunk lmao crazy nigga'
p2299
aS'already thats wassup talk nigga tellem said good'
p2300
aS'know laredo might coming back like year hopefully'
p2301
aS'talked nigga chon damn aint seen nigga'
p2302
aS'fuuuuck'
p2303
aS'gave everything'
p2304
aS'miss nigga'
p2305
aS'hopefully come back soon'
p2306
aS'glad good'
p2307
aS'talked nigga chon'
p2308
aS'rollin good smoking bomb shit blow whole nigga thats boss shit'
p2309
aS'laying thinking things'
p2310
aS'droppin 3mixtapes tmrw 1017pm molly lean avail itunes guwop'
p2311
aS'hell gucci mane gtgtgt'
p2312
aS'know reasons'
p2313
aS'hate feeling ruining everything'
p2314
aS'wish people would mind damn business'
p2315
aS'mood fucking sucks'
p2316
aS'youre making shit worse'
p2317
aS'like nigga'
p2318
aS'call like everything okay'
p2319
aS'lying said everything gravy'
p2320
aS'thing goes wrong think wrong things fucks'
p2321
aS'swear best stay strong much sometimes'
p2322
aS'fucking lies'
p2323
aS'swear pisses'
p2324
aS'emotionally physically'
p2325
aS'shit nephew gots fucked'
p2326
ag4
aS'felt weird'
p2327
aS'talking family akwwaaard'
p2328
aS'dont come issues aint tryna mixture'
p2329
aS'keep squares circle'
p2330
aS'aint talk busy aint acting funny living life'
p2331
ag4
aS'finna blow monas bored'
p2332
aS'full purple rillo full sticky'
p2333
aS'went good'
p2334
aS'three hours cousin went quick'
p2335
asS'2013_32'
p2336
(lp2337
S'road visit cousin finally'
p2338
aS'didnt change realized shit real shit'
p2339
aS'guttah death stickin recipe'
p2340
aS'13th fuckwithit\xe2\x80\x9dgtgtgt nigga'
p2341
aS'everything going alright maybe today eventually'
p2342
aS'hoes'
p2343
aS'fuck benz fuck rolly life make homie'
p2344
aS'yaaaaa'
p2345
aS'sisters whippin kitchen manuel munchiez like bitch'
p2346
aS'high'
p2347
aS'jamming showering okyuh'
p2348
aS'free asap'
p2349
aS'kept real niggas honest'
p2350
aS'dont even feel like cleaning anymore room damn mess'
p2351
aS'next room'
p2352
aS'like fucking tired'
p2353
aS'cleaned whole house'
p2354
aS'goodnight badass followers lookin'
p2355
aS'head right every night'
p2356
aS'thats smell money killa'
p2357
aS'want black roses bday'
p2358
aS'keep telling baby come time leave arms forever mine dont think'
p2359
aS'stas pendeja haces'
p2360
aS'hate sober miss drugs'
p2361
aS'cant waste another minute given best best'
p2362
aS'swear hoes aint nothing'
p2363
aS'fighting struggling whole life money nothing getter fall start'
p2364
aS'hate bitch like argue shit'
p2365
aS'love'
p2366
aS'lmao soooo stupid feel like calkin neehh thang mama'
p2367
aS'smoke weed chill'
p2368
aS'wish could bitch towards truth wouldnt even chance'
p2369
aS'theres much history wouldnt able'
p2370
aS'like care'
p2371
aS'everyone someone cant even theyve thru bullshit'
p2372
aS'smoke andfuck'
p2373
aS'pandoras point tonight'
p2374
aS'anyways jamming loner room'
p2375
aS'wish could call'
p2376
aS'thats bullshit'
p2377
aS'fell asleep didnt dentist'
p2378
aS'breakfast'
p2379
aS'since didnt burned'
p2380
aS'tladys nice brought chila mcdonalds since dentist appt teeth finna sore later'
p2381
aS'standing kitchen'
p2382
ag4
aS'getting mexican'
p2383
aS'entierrenme cantando'
p2384
aS'jobs hoen callin back'
p2385
aS'even fight still want life'
p2386
aS'getting high balance lows'
p2387
aS'drama always depend mama'
p2388
aS'stay strong positive struggle sometimes'
p2389
aS'ironically forget want remember remember want forget'
p2390
aS'wears cologne want bury face chest sniff smell that\xe2\x80\xa6'
p2391
aS'high'
p2392
aS'fuck'
p2393
aS'even worse fuckin enemy'
p2394
aS'never million years would wish kind shit anybody'
p2395
ag4
ag4
ag4
ag4
aS'didnt want feel know going'
p2396
aS'fucking sucks seeing hurt'
p2397
aS'matter happens gunna'
p2398
aS'always told always thru thick thin right wrong going stay true word'
p2399
aS'jpaying nigga ricky back'
p2400
aS'hate seeing like'
p2401
aS'repost miss nephew sooo much wish home'
p2402
aS'aint perfect angels demons'
p2403
aS'tryna shit guess aint gtgtgt'
p2404
aS'done change heart gucci'
p2405
aS'waking early ltltlt'
p2406
aS'dont start appreciating whats right front lose'
p2407
aS'theres alot running mind'
p2408
aS'easing mind'
p2409
ag4
aS'since didnt watch lhhatlreunion yesterday watching today'
p2410
aS'chila manuel crashed fuck couch'
p2411
ag4
aS'shes backbone'
p2412
ag4
aS'means world would'
p2413
aS'gotta stay positive hope pray best'
p2414
aS'bearly going start life dont things shifted'
p2415
aS'bearly going'
p2416
aS'dont think ready shit like'
p2417
aS'hope everything comes back okay'
p2418
ag4
aS'shit told ltltltlt'
p2419
aS'wanna swimming'
p2420
aS'makeup smells loud'
p2421
aS'wish bullshit dream'
p2422
aS'feel damn frustrated'
p2423
aS'uggghhhh'
p2424
aS'wish could talk know whats going itll worsen situation'
p2425
aS'noticed outta since shit happened'
p2426
aS'hearing shit nephews going pisses'
p2427
aS'fuck everything though want nephew home'
p2428
aS'hate going shit like'
p2429
aS'dont wrong money aint thing comes thats paying shit like tlady'
p2430
aS'hate fact overhere paying shit lawyer sister sitting back chillin worryin bout shit'
p2431
asS'2013_31'
p2432
(lp2433
S'minor back major come back'
p2434
aS'needs hurry come home'
p2435
aS'miss much'
p2436
aS'phone call nephew gtgtgt'
p2437
aS'yeah thats'
p2438
aS'wake still feeling barred'
p2439
aS'fucking'
p2440
aS'clothes going wrinkled tomorrow time wake'
p2441
aS'hope stay awake fold clothes'
p2442
aS'smoking blunts back back'
p2443
aS'barredouttx'
p2444
aS'straight chillin mayne'
p2445
aS'bard washing clothes blunt haha'
p2446
aS'iknow madk'
p2447
aS'learn spell bitchit denisia'
p2448
aS'bitch ranch party tonight'
p2449
aS'biitch ridin talkin bout'
p2450
ag4
aS'gone'
p2451
aS'shit wait'
p2452
aS'tired staying home weekends'
p2453
aS'might party'
p2454
aS'remember popped half outta lmao lmfao outta shit funny'
p2455
aS'haha'
p2456
aS'wanna party bullshit'
p2457
aS'learn care less live life'
p2458
aS'fresh feeling walk restroom showering'
p2459
aS'funny'
p2460
aS'moms jamming type'
p2461
aS'hate wake'
p2462
aS'watching movie brother'
p2463
aS'probably fuck around pull nighter'
p2464
aS'lets night goes newborn aidenblaze'
p2465
aS'made brother come pick'
p2466
aS'brother misses'
p2467
aS'gotta high drunk niggas passed didnt walk'
p2468
aS'want fresas crema right noww'
p2469
aS'money motive'
p2470
aS'idgaf bout niggas manfuck feelings heartless come niggas respect relationsh\xe2\x80\xa6'
p2471
aS'good pussy aint shit legs loyal woman'
p2472
aS'high bitch haahaaa'
p2473
aS'extendos'
p2474
aS'dont wanna know'
p2475
aS'want commas'
p2476
aS'dont take hustle time'
p2477
aS'sister ready baby already dont wanna pregnant anymore'
p2478
aS'munchiez'
p2479
aS'nigga aint worried bout nothing'
p2480
aS'make feel type'
p2481
aS'fuck relationships really want life right focused school making money honest'
p2482
aS'twitter people think never stuck thoughts tweeting good shit'
p2483
aS'gonna wanna gonna wanna aint gonna give fcks feel play'
p2484
aS'trippin'
p2485
aS'blowing phone aint gunna talk stop'
p2486
aS'lmfao fina crash crib hahaa know maynee haha'
p2487
aS'bitch hahaa gone talking bout fuckeduptx lmao'
p2488
aS'another round weekend hell yeahhh shytt lookn weeknd needa'
p2489
aS'dont know care'
p2490
aS'cant help'
p2491
aS'another round weekend'
p2492
aS'gutta onehellofahnite'
p2493
aS'wanna successful'
p2494
aS'wildnout dying'
p2495
aS'know looking'
p2496
aS'damn'
p2497
aS'answering shit aint gotta explain shit dont wanna hear shit shut fuck'
p2498
aS'blessing'
p2499
aS'likemy drank stronger weed louder'
p2500
aS'joes crab shack gtgtgt'
p2501
aS'baby blaze'
p2502
aS'yall bitches yall still going school lmao'
p2503
aS'still diploma walked stage year early'
p2504
aS'thats cool'
p2505
aS'dallas easy'
p2506
aS'single okay pretty much smoke time'
p2507
ag4
aS'fuck though summer right haha'
p2508
aS'know lazy'
p2509
aS'usually wake around'
p2510
aS'todays first wake early'
p2511
ag4
aS'still call restricted'
p2512
aS'cant make scene without green'
p2513
aS'smoking nigga manuel like days'
p2514
aS'gtgt'
p2515
aS'pabloescobar documentary'
p2516
aS'thedayaftertomorrow'
p2517
aS'less closer done'
p2518
aS'chalino sanchez nieves enero gtgt'
p2519
aS'young shit'
p2520
aS'truth told aint ready relationship'
p2521
aS'woman held stuck worst deserves best aintnowayaroundit loyalty'
p2522
aS'gotta stay true word word trust something cant afford lose'
p2523
aS'dont slip dont fall grip nigga hold'
p2524
aS'marilyn keeps distractedlop'
p2525
aS'definitely options deck first meet make niggas irrelevant'
p2526
asS'2013_30'
p2527
(lp2528
S'told alotta lies jezz bitch believed'
p2529
aS'never mind people think'
p2530
aS'kushhh'
p2531
aS'last nite round tonight'
p2532
aS'stay smoking'
p2533
aS'hahaha cant thats bitch'
p2534
aS'mona shit though wont whoop hahahaa'
p2535
aS'skeeza'
p2536
aS'mona shit though'
p2537
aS'mona follow'
p2538
aS'mybad nigga next time fasho'
p2539
aS'fucked cant invite nigga'
p2540
aS'fucked'
p2541
aS'rolling blunt denisia crashed fuck haha'
p2542
aS'guttah guttah know mayne haha'
p2543
aS'guttah guttah'
p2544
aS'gona guttah later'
p2545
aS'right'
p2546
aS'shes lucky cool'
p2547
aS'denisias bitchass made drop phone broke screen bitch dumbass skank'
p2548
aS'denisias bitchass made drop phone broke screen bitch'
p2549
ag4
aS'fuuuckin biiiiitch'
p2550
aS'damn sister'
p2551
aS'thats wassup shit movies later bout'
p2552
ag4
aS'gone luck'
p2553
aS'everyone except girl dont play need'
p2554
aS'grll take sleep cant sleep lmao finna start washing clothes like haha'
p2555
aS'want fresas crema'
p2556
aS'destiny know baybay hahaha'
p2557
aS'makes happy makes smile'
p2558
aS'badass little girl'
p2559
aS'finished eating destiny dont want nomore well pick plate dont slaves'
p2560
aS'foreal'
p2561
aS'wonder raining'
p2562
aS'made breakfast todo'
p2563
aS'hahaha fuck'
p2564
aS'follows twitter uoeno swear didnt know'
p2565
aS'early'
p2566
aS'smacking sister forehead shes typing hahah'
p2567
aS'apologizing bitch knew already'
p2568
aS'pink lemonade gtgt'
p2569
aS'problem'
p2570
aS'aint worried bout muthafuckin thing nigga'
p2571
aS'hood bitch thinking shit aint bitch yous thirsty thirsty thirsty'
p2572
aS'look pretty braces'
p2573
aS'nigga faggot nigga lmao truuu'
p2574
aS'dont think cant touched nigga'
p2575
aS'feeling bulletproof nigga swear dont want'
p2576
aS'poured liquor homie rest peace ripmanny oneyeargone neverforgotten'
p2577
ag4
aS'nigga shakin muthafucking boots'
p2578
aS'aint worried bout muthafuckin thing nigga'
p2579
aS'hands aint wants round'
p2580
aS'stupid gabriela ovalle'
p2581
ag4
aS'already know'
p2582
aS'ayee thats wassup proud gettin shit done'
p2583
aS'better fucked'
p2584
aS'gotta chill soon'
p2585
aS'miss bitches marias bitchass'
p2586
aS'suckas keep downing know crownin'
p2587
aS'snaaaake'
p2588
aS'glad know creeping though hahaha'
p2589
aS'gone keep talking talking gone turn workin'
p2590
aS'talking shit status ohhhh okaaaay'
p2591
aS'telling stop social network talk lmao'
p2592
aS'ahaha knowthis still messaging'
p2593
aS'nigga cant hang haha'
p2594
aS'sucks comin believe'
p2595
aS'lmao fuuuuck'
p2596
aS'yeah still remember like yesterday haha already know whats coming'
p2597
aS'shit fuck consequences'
p2598
aS'saying'
p2599
aS'5150 chea'
p2600
aS'yuuh dont know handle things round huuuur'
p2601
aS'stephany'
p2602
aS'thats tombout'
p2603
aS'bitch cheaaa'
p2604
aS'hahaha shit chila aint gotta worry nothing'
p2605
aS'know dont whoop chilla gone whoop thats meant'
p2606
aS'okay thats saying'
p2607
aS'talking aint walking juuuheard haha'
p2608
aS'long clips choppas'
p2609
aS'shit dont need chila aint'
p2610
aS'already cause know gone done chilla know'
p2611
aS'ayeee hahaha fosho fuck hoes'
p2612
aS'tell aint talking bitch bout action'
p2613
aS'hahah nigga whenever make sure record haha'
p2614
aS'yeah know wassup nigga gaby haha thats asking gone tear braud'
p2615
aS'know mayne haha'
p2616
aS'know nigga gotta gotta'
p2617
aS'cant wait'
p2618
aS'nigga know wassup quick bitch spot'
p2619
aS'beat haha'
p2620
aS'whenever fuck sooner shit xavier nigga know wassup'
p2621
aS'hahaha fuck'
p2622
aS'hahahaha'
p2623
aS'dumbass braud'
p2624
aS'give fuck sees tweeting thats whole reason'
p2625
aS'gaby finna whoop'
p2626
aS'bitch everybody knows knows bout shit'
p2627
aS'dumbass named gabby ovalle'
p2628
aS'finna whoop'
p2629
aS'pussy hoes thinking mayne'
p2630
aS'however want however make'
p2631
aS'especially yous bitch think gonna think'
p2632
aS'form kicking chiefing nigga gots babymama idgaf situation'
p2633
aS'giving number problem biiiiiiiiiiiiiiiiiiiiiiiitch please'
p2634
aS'yous funny'
p2635
aS'bitch gtfoh hahahah'
p2636
aS'overthere calling people talking'
p2637
aS'talking shit'
p2638
aS'swear right finna beat fuck yeah talking gabby'
p2639
aS'hahah'
p2640
aS'okaay'
p2641
aS'telling quit talking shit typing statuses'
p2642
aS'naaaaaaah'
p2643
aS'goood homie'
p2644
aS'want'
p2645
aS'leanin like fifth henny'
p2646
aS'early shit fuckers'
p2647
aS'needs asses back inside watch damm cartoons something'
p2648
aS'fuckin summer'
p2649
aS'fuck awake damn early anyways'
p2650
aS'need keep fuck'
p2651
aS'though'
p2652
aS'foreal thouh'
p2653
ag4
aS'niggas better stfu outside'
p2654
aS'fuck little kids screaming outside fucking window'
p2655
aS'makes muthafucking sense'
p2656
aS'tired cant sleep'
p2657
aS'cant sleeep'
p2658
aS'like'
p2659
aS'found tweeps unfollowed thanks know androidapp'
p2660
aS'mayne goodmorning yall goodnight'
p2661
aS'watch'
p2662
ag4
aS'haha fuck thuglife'
p2663
aS'know thats ridiculous'
p2664
aS'someone like 100k tweets think damn fuck tweet much'
p2665
aS'4899'
p2666
aS'cant sleep'
p2667
aS'greeeeeat'
p2668
aS'perfect pizza gtgtgt'
p2669
aS'indeed mixed'
p2670
aS'good excuse high haha'
p2671
aS'uhhhhh'
p2672
aS'always mixed asian'
p2673
aS'eyes always looking shit'
p2674
ag4
aS'minutes'
p2675
aS'want sleep already'
p2676
aS'hurryyyy'
p2677
aS'youre underage want bottles working store swing byme wont yall 5001 lamar wont'
p2678
aS'mane hard reckless'
p2679
aS'weed earth'
p2680
aS'goodnight sugga tits dicks'
p2681
aS'real shit'
p2682
aS'dont know whats going shut fuck'
p2683
aS'hard think positive everything going wrong'
p2684
aS'want holdhug close'
p2685
ag4
aS'wish fucking dream'
p2686
aS'wouldve thought shit could happen'
p2687
aS'shit aint joke'
p2688
aS'shits fucked'
p2689
aS'young going thru shit mayne'
p2690
aS'tell stay strong keep chin'
p2691
ag4
aS'wish could much right'
p2692
aS'knowing cant anything even worse'
p2693
aS'thinking shit kills'
p2694
aS'pray things better'
p2695
aS'fucked situation'
p2696
aS'hopefully everything goes good friday gets come home'
p2697
aS'shouldnt going thru'
p2698
aS'nephew'
p2699
aS'fuck miss nphew damn much'
p2700
aS'laying thinking'
p2701
aS'sizzurp'
p2702
aS'taste straight like codeine'
p2703
aS'going hard'
p2704
aS'left'
p2705
aS'keep tweeting'
p2706
aS'trying sleep shut'
p2707
aS'shits funny'
p2708
aS'lmfao'
p2709
aS'talking come manim trying sleep'
p2710
aS'shes getting shit'
p2711
aS'lmao'
p2712
aS'denisias trying sleep phone makes loud sound typing'
p2713
aS'fuuuuuck mayne'
p2714
aS'heart broken'
p2715
ag4
aS'dropped lean'
p2716
aS'rules'
p2717
aS'goes around comes back around believedat'
p2718
ag4
aS'dont want anything serious right dont want played either'
p2719
aS'waking power'
p2720
aS'sleepy'
p2721
aS'shits finna real reunion'
p2722
aS'girls star battle reunion okayden'
p2723
aS'jump street'
p2724
aS'mojo keeps calling phone keep telling gots wrong number'
p2725
aS'felt like magic'
p2726
aS'ayeee turned onwassup'
p2727
aS'rooom'
p2728
aS'needs come'
p2729
aS'still'
p2730
aS'thats life goes miss brother another mother best believe finna smoke pound grav\xe2\x80\xa6'
p2731
aS'still awake though'
p2732
aS'hell lmao crazy days'
p2733
aS'thats high school live cause damn tripped'
p2734
aS'aint lyin good days haha'
p2735
aS'aint lyin good days haha hell yeah straight foolin'
p2736
aS'think shit'
p2737
aS'might though'
p2738
ag4
aS'ready call nigga'
p2739
aS'lmfao shit toofunnny haha'
p2740
aS'whack bothering finna whoop whoop like whooped braud'
p2741
aS'denisias whack bothering finna whoop'
p2742
aS'someone much damage fucking assholes karmas bitch glad okay'
p2743
aS'mimi breast years damn baby almost grown lhhatl'
p2744
ag4
aS'slacking need jpay cousin asap'
p2745
aS'like show'
p2746
aS'ialmostgotawaywithit'
p2747
aS'gabriel iglesias comedy'
p2748
aS'already mind shoes want come'
p2749
aS'haha'
p2750
aS'mames guey'
p2751
aS'fucked tweet deleted'
p2752
aS'dream'
p2753
asS'2013_39'
p2754
(lp2755
S'want bars'
p2756
aS'needed'
p2757
aS'plus drugz dont know thinkin'
p2758
aS'pray nigga make situation'
p2759
aS'thank made thru situation'
p2760
aS'street niggas many situations'
p2761
aS'really change number'
p2762
aS'alot shit running thru mind shit sucks'
p2763
aS'tripping'
p2764
aS'guess'
p2765
aS'thinking shit different'
p2766
aS'hearing shit shatters heart fuuuckkk'
p2767
aS'worse feeling ever'
p2768
aS'gotta faith'
p2769
aS'stressed fucked facing time'
p2770
aS'without badge bitch half'
p2771
aS'neva hold trill nigga'
p2772
aS'stay positive hope shit gets better'
p2773
aS'wanna wont'
p2774
aS'shit sucks'
p2775
aS'hope shit gets better tomorrow'
p2776
aS'happened'
p2777
aS'shit happens fast'
p2778
aS'today'
p2779
aS'fuck'
p2780
aS'feel'
p2781
aS'girl either haha fixin right lose damn mind haha'
p2782
aS'alright enjoy clouds haha havent smoked girl believe shit lmao'
p2783
aS'already preciate though'
p2784
aS'cant find kush'
p2785
aS'ijumpedoutaplanebiiiiitch'
p2786
aS'give time well whos still around decade thats real'
p2787
aS'respect must disrespect head bust'
p2788
aS'life aint worth shit watch talk dont step shoes watch walk'
p2789
aS'fuck around dead'
p2790
aS'playing games bread yous dead'
p2791
aS'lmao fuuuckkk'
p2792
aS'gunna spend night dennis still gunna chill lmao'
p2793
aS'everythang team100'
p2794
aS'never kiss friendship'
p2795
aS'rather youre around'
p2796
aS'good ones given finding good audacity heart courage stay open rhsr'
p2797
aS'going friday dads birthday house weekend'
p2798
aS'lowkey always something'
p2799
aS'keep calm stay trouble know mayne cuzz'
p2800
aS'think thats good though'
p2801
ag4
ag4
aS'shit dont twisted homie still bang bitch regardless kindness'
p2802
aS'like fighting wise'
p2803
aS'crazy'
p2804
aS'calmed much since moved north dallas'
p2805
aS'older understand things'
p2806
aS'found followers thanks androidapp'
p2807
aS'thats shes nigga'
p2808
aS'denisia woke smoke home'
p2809
aS'cant save someone doesnt wanna saved'
p2810
aS'always ridiculous times sleeping pattern fucked pornstars vagina'
p2811
aS'person irritates always loves much fails express'
p2812
asS'2013_38'
p2813
(lp2814
S'fuck boys chea'
p2815
aS'girl knew'
p2816
aS'though'
p2817
aS'6001 woah'
p2818
aS'think back sleep'
p2819
aS'still sleepy'
p2820
aS'hitting bong fuuuck'
p2821
aS'ahahah fuuck'
p2822
aS'daaaaamn feeling gooood'
p2823
aS'feeling'
p2824
aS'feelinh tipsy'
p2825
aS'high'
p2826
aS'barredouttxx'
p2827
aS'hish fuuuuuuuck'
p2828
aS'happy 52nd birthday ripmyangel'
p2829
aS'lames talk much shit'
p2830
aS'found give another'
p2831
aS'lemme make clear single fuckkkk haha straightlikethat'
p2832
aS'idgaf dont like stopped fuckin dont speak talk mestr8 sleep great every nite'
p2833
aS'momma good mood errbody good mood momma mood somehow errbody show side'
p2834
aS'take time understand'
p2835
aS'write cousin later'
p2836
aS'jpayed niggaz butterbean juanjo'
p2837
aS'found tweep unfollowed thanks know androidapp'
p2838
aS'like weeks'
p2839
aS'finally bought stamps jpay niggaz'
p2840
aS'miss much'
p2841
aS'going cemetary celebrate'
p2842
aS'tomorrows daddys birthday'
p2843
aS'earlyy'
p2844
aS'followers'
p2845
aS'remember said would never smoke weed look turned hell yeah'
p2846
aS'everything happen reason lessons'
p2847
aS'sometimes best left alone away'
p2848
aS'free boosie rapper jail months gtgtgt'
p2849
aS'dont patience anyone anymore'
p2850
aS'fuck though aint tripping'
p2851
aS'well guess wont smoke tonight gaaay'
p2852
aS'lazy nigga'
p2853
aS'doesnt want always make'
p2854
aS'fucking lame nigga'
p2855
aS'cousins aint tryna take'
p2856
aS'finna start using wraps'
p2857
aS'think might'
p2858
aS'blunt would good right'
p2859
aS'memories back'
p2860
aS'niggas talk shit like bitches'
p2861
aS'thing thinking future nothing else'
p2862
aS'never take life granted'
p2863
aS'first time stepping since april shit'
p2864
aS'need'
p2865
aS'havent replied cause busy upgrading ios7 teamandroid'
p2866
aS'need thank used'
p2867
aS'keep shit hunna'
p2868
aS'nigga aint worried bout'
p2869
aS'money gotta sick bond'
p2870
aS'drinkin smokin fuckin plottin schemin plottin schemin gettin money drinkin fuckin smokin plottin'
p2871
aS'regret give much importance someone deserves none'
p2872
aS'niggaz servin'
p2873
aS'gotta fuck feds hood'
p2874
aS'really want something youll hustle hard word'
p2875
aS'always remove makeup sleep word wrinkles dailymakeuptips'
p2876
aS'would chose love loves love'
p2877
aS'cant keep chasing someone doesnt want'
p2878
aS'hate stupid people question'
p2879
aS'lame niggas stay lame shit'
p2880
aS'never trip aint'
p2881
aS'screw gallon bitch game belong'
p2882
aS'bobby pound whitney'
p2883
aS'shooting dice playing cards selling blow park'
p2884
aS'niggas fuck'
p2885
aS'gave niggas hope fuck doubt'
p2886
aS'niggas opinionated dont know'
p2887
aS'fuck niggas thang dawg'
p2888
aS'major changes around'
p2889
aS'cokes good drinking fell'
p2890
aS'hahahah know'
p2891
aS'lmao calm bigboystatus'
p2892
aS'hahah dont need boys know bout playin haha'
p2893
aS'hahah thats decide pick haha dont booty hurt'
p2894
aS'rolling smoking'
p2895
aS'still fucked'
p2896
aS'dont matter week'
p2897
aS'bored hahah'
p2898
aS'death dishonor'
p2899
aS'fuck boys aint yall'
p2900
aS'battery'
p2901
aS'used time would fall asleep jamming'
p2902
aS'good thing pandora sleep timer shit'
p2903
aS'fuck yall hoes grip mothafucker'
p2904
aS'said'
p2905
aS'money problems'
p2906
aS'music heals heart music calms mind music saves life'
p2907
aS'good tonight'
p2908
aS'finna crassssh fuck'
p2909
aS'barz sneaking like'
p2910
aS'anybody unfollow know damn well make live dont front bitch'
p2911
aS'argue people actually give fuck'
p2912
aS'decide want believe believe deserve believe possible'
p2913
aS'somewhere sober lifted'
p2914
aS'whats dick nigga'
p2915
aS'guess solo dolo typa person'
p2916
aS'youve never experienced soul shattering pain dont understand battle takes stay sane'
p2917
aS'stay lowkey dont like everybody business'
p2918
aS'hood tryna make'
p2919
aS'know'
p2920
aS'losing homies grave fucking jail cell left right shit crazy'
p2921
aS'anything come person mouth real blood'
p2922
aS'home look ugly enjoy'
p2923
aS'left mark'
p2924
aS'didnt power powder'
p2925
aS'okay baby look cute'
p2926
ag4
aS'feel nerves back tense ltlt'
p2927
aS'cant help love stop looking stupid'
p2928
ag4
aS'dont play'
p2929
aS'getem hell tear'
p2930
aS'getting hand'
p2931
aS'finna dubz'
p2932
aS'isnt great'
p2933
aS'like dogs fucking barking'
p2934
aS'stfu already'
p2935
aS'right quiet bitchass starts going'
p2936
aS'shit starting fucking dogz start barking already'
p2937
aS'dont even lmao though nigga annoying'
p2938
aS'theres outside keeps barking finna blast bitchass'
p2939
aS'youll never understand happens'
p2940
aS'people expect somebody somebody thats made feel type like make happy'
p2941
aS'live life crazy make start smoking newports'
p2942
as.