(dp0
S'2013_42'
p1
(lp2
S'haha'
p3
aS'lmbo'
p4
aS'feeling good appetite today forced jello'
p5
aS'laughed point couldnt breath'
p6
aS'hambre'
p7
aS'true taken early mitch happybirthdaymitchlucker'
p8
aS''
p9
aS'happy birthday mitch miss'
p10
ag9
aS'exactly exactly'
p11
aS'fell lovei totally want cover handand theyre cool'
p12
ag9
ag9
aS'hasmyn'
p13
ag9
ag9
ag9
ag9
aS'basically'
p14
aS'friend violeta thursday kind like picture'
p15
aS'dont please'
p16
aS'since wouldnt make sense bring something'
p17
aS'cause since think passed dont want'
p18
aS'think youll violeta'
p19
aS'anymore told violeta'
p20
aS'mucho guess'
p21
aS'physically emotionally crap'
p22
aS'lying cold feeling'
p23
ag9
ag9
aS'tell said wish best birthday anyone ruin'
p24
aS'sisters pretty'
p25
aS'hehehe'
p26
ag9
ag9
ag9
aS'tony turtle'
p27
aS'hehe'
p28
aS'fault'
p29
ag9
aS'corn'
p30
aS'okay'
p31
ag9
aS'hello'
p32
aS'bmth'
p33
ag9
aS'dream time teddy bear trying haunt'
p34
ag9
aS'gonna haunt'
p35
aS'cute perfect'
p36
aS'love'
p37
aS'hehe'
p38
aS'theyre random'
p39
ag9
aS'watchbryanstars interviews'
p40
ag9
aS'bored'
p41
aS'phew'
p42
aS'honest like'
p43
aS'thats think positioned like'
p44
aS'always'
p45
aS'stupid xavier'
p46
aS'sure'
p47
aS'xaviet sent another picture'
p48
aS'true true'
p49
ag9
ag9
aS'well dayum'
p50
aS'many'
p51
ag9
aS'dayum thats lots'
p52
aS'totally want'
p53
aS'adore shes inspiration demi lovato'
p54
aS'hmmprobably'
p55
aS'feels'
p56
aS'know sleeping sirens wouldnt without jesse'
p57
aS'perfection'
p58
aS'ashley'
p59
aS'look like jane'
p60
aS'really'
p61
aS'yesterday today pardon face'
p62
aS'lungs could salvage'
p63
aS'ocean world inside lost abyss drowned deep'
p64
aS'correct youre best friend'
p65
aS'bring horizoncrucify'
p66
aS'hell believe seen heaven lets keep secret needs know'
p67
aS'song awesome'
p68
ag9
aS'tired'
p69
aS'talking'
p70
aS'need keep mouth shut whore leave friend alone okay okay'
p71
aS'funfact play bmth diamonds arent forever kill stop inst\xe2\x80\xa6'
p72
ag9
aS'definitely celesexual'
p73
ag9
aS'long live reckless bravei dont think wanna savemy song sung soooo long live uswoooo'
p74
aS'dont care bout make like better jeans ripped updont know keep mouth shutdont care\xe2\x80\xa6'
p75
aS'teamcmd'
p76
aS'yall awesome'
p77
aS'bestie hasmyn shes like sister never shes irreplaceable take place'
p78
aS'dont like seat bitches waiting give fuck attention'
p79
aS'real bands save fans real fans save bands'
p80
asS'2013_43'
p81
(lp82
S'problem education system school puts much pressure teenagers makes feel like failures'
p83
ag9
aS'retweet love bringmethehorizon'
p84
aS'thingsihavedoneproject'
p85
aS'tongue though'
p86
aS'like really hell'
p87
aS'mean'
p88
ag9
ag9
aS'okay'
p89
aS'youre welcome'
p90
aS'youre youre cool okay okay'
p91
aS'thanks guessand youre creep youre awesome'
p92
ag9
aS'high five'
p93
ag9
aS'also vampires everywhere'
p94
aS'hell yeah'
p95
aS'jamming'
p96
aS'music listening right pierce veil'
p97
ag9
ag9
ag9
aS'someday thoughts kill'
p98
aS'would feel every single person retweet even youre straight'
p99
aS'cases'
p100
aS'smokes weed cutforbieber zayn getting married cutforzerrie jesse leaves support'
p101
aS'sent cried alot oops'
p102
aS'watchingim weird whatever like spodermen'
p103
aS'dont belong'
p104
aS'hell'
p105
aS'true'
p106
aS'hate people call self harmers emos'
p107
aS'insult nicki minaj bieber direction told cause emos like hate'
p108
aS'love'
p109
aS'totally need'
p110
aS'true'
p111
ag9
ag9
ag9
aS'well thanks guess'
p112
aS'thanks youre perfect'
p113
ag9
aS'hell yeah'
p114
aS'bmth omampm adtr attila alesana paramore tonight alive evanescence many'
p115
aS'hell yeah bvbarmyforever'
p116
aS'absolutely love'
p117
aS'right thats type pony'
p118
aS'friends isolate memy family dont listenthe teachers ignoreno ones alone'
p119
aS'triedbut came weirdoops'
p120
aS'drunk words sober thoughts strippers beautiful'
p121
aS'yeah'
p122
aS'words hurt rumors distroy bullies kill'
p123
aS'fallen angel sing alone need feel sorrowwe scream shout wenare fallen angels'
p124
aS'mmhm'
p125
ag9
aS'going birthday cant wait'
p126
aS'explains'
p127
ag9
aS'quote alex time'
p128
aS'ermehgerd time alex gaskarth'
p129
aS'perfect'
p130
ag9
ag9
aS'fail'
p131
ag9
aS'done'
p132
ag9
aS'amor razon fuerte muerte'
p133
aS'evrytiem'
p134
ag9
ag9
aS'better'
p135
ag9
ag9
ag9
ag9
aS'hehe'
p136
aS'yolosjgfn'
p137
ag9
aS'mines ruin everything used'
p138
aS'lifes boring dumb hell'
p139
aS'bored'
p140
ag9
aS'emotional'
p141
aS'numb bored'
p142
aS'kellin'
p143
ag9
aS'larry'
p144
aS'know itll come handy'
p145
aS'narry'
p146
aS'zerrie'
p147
aS'know'
p148
aS'still bored'
p149
ag9
ag9
ag9
ag9
ag9
aS'bored'
p150
ag9
aS'haiden shes perfect'
p151
aS'okay'
p152
aS'hehe'
p153
aS'thanks'
p154
ag9
aS'applejuicethe coloryummy colorlmbo'
p155
aS'lmbo'
p156
aS'imagine peeing'
p157
aS'peeing'
p158
aS'potty business'
p159
aS'wouldnt able girls restroom'
p160
aS'probablyive crappy pathetic human'
p161
aS'wouldnt know'
p162
ag9
aS'know wont'
p163
aS'going avoid'
p164
aS'lord'
p165
ag9
aS'sounds accurate'
p166
aS'care done trying'
p167
aS'hate people talk need something like maybe'
p168
aS'think fallen hate'
p169
aS'nice doesnt mean like means rude'
p170
aS'friends dont make theyre true friends'
p171
aS'friends anymore strangers memories'
p172
aS'society society like'
p173
aS'attitude based treat'
p174
ag9
aS'thanks'
p175
aS'guysstop tagging getting utterly annoying'
p176
ag9
ag9
ag9
aS'part agree directioners nice'
p177
ag9
aS'dont care anymore'
p178
aS'exactlyguys feel much pain girlsi hate underestimated'
p179
aS'true'
p180
ag9
ag9
ag9
aS'feel insecure without'
p181
ag9
aS'hasmyn cruz'
p182
ag9
aS'face sure'
p183
ag9
aS'wanna text first know make less awkward person'
p184
ag9
ag9
ag9
aS'aight'
p185
aS'yeah'
p186
ag9
aS'shes bestfriend'
p187
ag9
aS'haha'
p188
aS'nevermind'
p189
aS'thats nice'
p190
aS'hehe'
p191
ag9
aS'want corn hehe'
p192
aS'know right'
p193
ag9
ag9
ag9
aS'conversations love bestie'
p194
aS'nothing'
p195
aS'nothing nothing'
p196
ag9
ag9
ag9
aS'hehe'
p197
aS'show hows like'
p198
asS'2013_46'
p199
(lp200
S'arent helping'
p201
aS'everybody need'
p202
aS'broken beyond repair'
p203
aS'think know mebut really dont'
p204
ag9
asS'2013_47'
p205
(lp206
S'actually kinda like'
p207
aS'look cute'
p208
aS'friendship isnt worth never treated like friend treated like'
p209
aS'feel like werent meant friends'
p210
aS'funny though'
p211
aS'lolol'
p212
asS'2013_44'
p213
(lp214
S'osvaldo romero'
p215
ag9
ag9
ag9
aS'perfect'
p216
ag9
ag9
aS'isnt perfect'
p217
aS'help poor'
p218
ag9
ag9
aS'told'
p219
ag9
aS'theyll leave swear theyll always know theyll leave'
p220
aS'yeah lied yeah made feel fine used'
p221
aS'youre lucky'
p222
aS'sadly want though like'
p223
ag9
aS'friends skinnier prettier talkto people without awkward annoying'
p224
aS'think ugly'
p225
aS'theyre awesome'
p226
ag9
aS'lucky'
p227
aS'guys days'
p228
aS'jaime beanies'
p229
aS'guys perfect'
p230
aS'follow instagram'
p231
aS'worry much always reason'
p232
ag9
aS'lonely'
p233
aS'bulletproof love'
p234
aS'love bulletproof youre shot'
p235
aS'thanks'
p236
aS'lazy butt come cunt starving'
p237
aS'give moms arroz leche cake'
p238
aS'pamela'
p239
aS'weird thing rubbery noses'
p240
aS'said love making music cant wait bring tunes ears future'
p241
aS'happy halloween love life wish could spend tonight soon'
p242
aS'cared theyll ever even tells cares'
p243
aS'would miss anyway'
p244
aS'feel like reason continue living'
p245
aS'unwanted isnt exactly thing'
p246
aS'cross line suicide date gonna'
p247
aS'cross line friends makes feel unappreciated'
p248
aS'cross line feel completely alone youre broken fixed cant years'
p249
aS'cross line youre close breaking person keeping together'
p250
aS'cross line want commit suicide youre afraid things going better soon dont want\xe2\x80\xa6'
p251
aS'cross line hard show people youre okay youre alone breakdown'
p252
aS'mitchlucker legendsneverdie ripmitchlucker luckerstomp'
p253
aS'sleep biatch'
p254
aS'fault'
p255
ag9
aS'nobody deserves suffer self harm depression'
p256
aS'self harm trend anorexia phase depression homosexuality choice sexual assa\xe2\x80\xa6'
p257
aS'suicide self harm depression cutting things laugh joke ever mental issues'
p258
aS'puedo quejar tengo mejores amigos'
p259
aS'weird dont wanna grow'
p260
aS'bryan dont crying hurt feels'
p261
aS'moments think life keep fucking dont know pissed'
p262
ag9
ag9
ag9
ag9
aS'thank'
p263
aS'please'
p264
aS'please'
p265
aS'please'
p266
ag9
aS'mines tangled messy burnt'
p267
aS'soft healthy short cute'
p268
aS'like hair'
p269
aS'fffffflllllliiiiiiipppppppp'
p270
aS'flip flip flip'
p271
aS'flip'
p272
aS'haha yeah'
p273
aS'flip hair gets overwhelmed flips hair haha'
p274
aS'okay'
p275
aS'skip class hehe lyrics board thoughdoes count'
p276
aS'teacher'
p277
aS'isnt class'
p278
aS'igual igual'
p279
aS'mekiyah'
p280
aS'improvement lulz'
p281
aS'hope comes true'
p282
ag9
aS'true true would know whats username'
p283
aS'dont think'
p284
aS'already know likes told person doesnt'
p285
aS'haha pretty much'
p286
aS'name picture nothing'
p287
aS'told anonymously'
p288
aS'wanna know'
p289
ag9
aS'said darker black'
p290
aS'live fucking nuts'
p291
aS'never trust friends bullshit'
p292
aS'coming back cementary stayed friend left hours miss great'
p293
aS'miss friend leave world love always well meet'
p294
aS'mitchlucker'
p295
aS'minutes'
p296
aS'thank'
p297
aS'sorry bother much'
p298
aS'youre welcome dont chance next time tell'
p299
aS'parents youre lucky'
p300
aS'youre freaking lucky'
p301
aS'lucky wish also johnnie'
p302
ag9
aS'lucky'
p303
aS'sometimes feel like living giant dont tell anyone goes head'
p304
aS'november ripmitchlucker missyoumitch'
p305
aS'lucky hope join friend'
p306
aS'friend stay midnight'
p307
aS'want things kiss'
p308
aS'really matter someone person always make time excuses'
p309
aS'dont feel someone gave feel sorry gave someone would never'
p310
aS'happy halloween'
p311
aS'happy birthday love brazil'
p312
aS'fuck probably bless knives pens saviour cannot chose love all3\xe2\x80\xa6'
p313
aS'perfection'
p314
ag9
aS'knows think'
p315
aS'hahaha true shit'
p316
aS'even though different still somehow heart wont need know miss'
p317
aS'bearly coming school'
p318
aS'hello'
p319
aS'happy halloween bitches'
p320
aS'shes perfect'
p321
aS'hell'
p322
aS'guess seen video congratulations awesome'
p323
aS'hell band isnt without jesse though'
p324
ag9
aS'love dream last night kellin jack jesse justin gabe giving gurlsplus meadvice move'
p325
aS'sleeping sirens fans cause fangirl'
p326
aS'ericka shes gorgeous'
p327
aS'demi lovato warrior'
p328
aS'mancrushmonday jack barakat'
p329
aS'today birthday well depressions today diagnosed officially year'
p330
aS'please dont'
p331
aS'kidding'
p332
aS'sorry'
p333
aS'kill'
p334
ag9
aS'someday promise'
p335
aS'cant'
p336
ag9
ag9
ag9
aS'soon soon'
p337
aS'please spread word projectstoppain'
p338
aS'dont think'
p339
ag9
aS'cant give want'
p340
aS'omampm'
p341
ag9
ag9
ag9
aS'rain'
p342
aS'like grey cloudy days'
p343
ag9
aS'haha'
p344
aS'going blacktop'
p345
ag9
aS'youre early'
p346
aS'thanks'
p347
aS'horror'
p348
ag9
ag9
ag9
ag9
aS'involves bringing something dont want wasting money person dont deserve'
p349
aS'never used'
p350
ag9
aS'cause'
p351
ag9
ag9
aS'know solving peoples problems easy person cant seem figure thomas james'
p352
aS'awkward talk tomeet someone first time'
p353
aS'death promise life fucking'
p354
ag9
aS'want crythis offensive triggering'
p355
aS'true'
p356
aS'editi hate itugh'
p357
asS'2013_45'
p358
(lp359
S'likes writingbailey\xe2\x99\xa5'
p360
aS'lost insecureyou found'
p361
aS'bitch'
p362
aS'yeah'
p363
aS'love beautiful thing hardest thing earn hurtful thing lose'
p364
aS'whatever reasons youre best thing ever happened'
p365
aS'ever happened'
p366
aS'must study starve'
p367
aS'nobody loves even friends family even'
p368
aS'people find cute vomit text like'
p369
aS'crushing realization nothing anyone anymore'
p370
aS'youve ever'
p371
aS'gets retweets wont throw away blades'
p372
aS'close'
p373
aS'people holes'
p374
aS'still funny'
p375
ag9
aS'dream death'
p376
aS'weird mood want'
p377
aS'give everyone tomorrow'
p378
aS'youre preoccupied runing doesnt even care dont ones actually'
p379
aS'broken scarred'
p380
aS'warning blade really sharp fuck talking tried didnt shit'
p381
aS'hate life'
p382
aS'higher lower sink'
p383
aS'grabbed hand looked deep tears eyes pleaded stay'
p384
aS'pretty fake happiness'
p385
aS'girl best friend ever'
p386
aS'sometimes gotta fall'
p387
aS'tired everything'
p388
aS'alone'
p389
aS'actually watching blood come body time made feel good'
p390
aS'started cutting hips feels good damn'
p391
aS'stressed depressed band obsessed'
p392
aS'darkness triggers'
p393
aS'pain never stops'
p394
aS'cross line dont think youll ever able stop selfharming'
p395
aS'basically'
p396
aS'wanna'
p397
aS'pain real'
p398
aS'waste perfectly good clean wrist'
p399
aS'paramore night'
p400
aS'cross line youre tired ignored'
p401
aS'cross line dont youre still alive'
p402
aS'feel'
p403
aS'correct'
p404
aS'stop acting like know everything'
p405
aS'hate'
p406
aS'feeling blade across skin make never want stop'
p407
aS'hate self'
p408
aS'cutting isnt cutting isnt girls dont ignorant'
p409
aS'cross line feel slipping back addiction self harm time dont want help'
p410
aS'retweet cares'
p411
aS'cant'
p412
aS'late cousin shes beyond beautiful'
p413
aS'love bulletproof youre shot bulletproof love pierce veil'
p414
aS'show dreams made dreaming face james dean youre audrey hepburn slee\xe2\x80\xa6'
p415
aS'made emotionally mentally sick dealt physically sick shit gettin\xe2\x80\xa6'
p416
aS'love forever forever need james dean youre audrey hepburn sleeping'
p417
aS'person everyone replaces'
p418
aS'late laurie shes gorgeous'
p419
aS'suicidal'
p420
aS'like bands wcar bmth adtr omampm ymas issues atilla follow'
p421
aS'smile lips cuts hips'
p422
aS'like bands wcar bmth omampm ymas adtr acdc paramore'
p423
aS'depression like holding something doesnt weigh much first gets heavier'
p424
aS'cross line youre always always nobody really picks'
p425
aS'dont want live anymore'
p426
ag9
ag9
aS'remember stay strong smile happy live time goes really fast love guys'
p427
aS'getting urges wanna help think think annoying attention seeker'
p428
aS'cant happy'
p429
aS'might made fool first night ages forgot everything'
p430
aS'life hate'
p431
aS'wish thoughts would leave fuck alone'
p432
aS'fuck'
p433
aS'youre freaking pretty'
p434
aS'cannot worse hurt everyone around'
p435
aS'cant cope intensity suicidal thoughts'
p436
aS'suicide always mind'
p437
aS'demi lovato inspiration'
p438
aS'depression'
p439
aS'battle slowly losing'
p440
aS'please dont'
p441
aS'exactly kept secret long'
p442
aS'fine'
p443
aS'keep tears back gets caught throat burst kinds emotions'
p444
aS'yeah'
p445
aS'wish could feel'
p446
aS'hardest part living taking breaths stay'
p447
aS'okay help write shit'
p448
aS'perfect'
p449
ag9
aS'real full fight andy like joking neither bryan youre soft lmao love'
p450
aS'lt333'
p451
aS'according psychological facts'
p452
as.