(dp0
S'2013_42'
p1
(lp2
S'wish'
p3
aS''
p4
aS'hiiiiiiiiiiiiiii'
p5
ag4
aS'keep swimming ellens voice'
p6
aS'lucky born human rather something like'
p7
aS'perth telethon loverly lady'
p8
ag4
aS'wakin find 15million followers nice guys thank love lots like jelly tots'
p9
aS'cant believe tours almost done loved every single show dont want endddd'
p10
aS'confused sometimes'
p11
aS'wanted thank everyone thats helped along'
p12
aS'midnight memories cant wait till hear album'
p13
aS'cant wait guys hear midnight memories think youre gona love tracks weve written'
p14
aS'video finally like share retweet follow'
p15
asS'2013_43'
p16
(lp17
S'dropped phone face'
p18
ag4
ag4
aS'niall\xf0\x9f\x99\x88 please follow would mean everything'
p19
aS'story life tomorrow wants follow today'
p20
aS'please follow'
p21
aS'right follow spree also remember preorder midnight memories youll story life tomorrow'
p22
aS'thank sydney everything expected next everybody'
p23
ag4
aS'think getting instagram soon hopefully better youtube think might easier'
p24
aS'thank support story life'
p25
aS'also follow check'
p26
aS'last sydneyyyy gotta cant believe visit many times thanks everyone getting'
p27
aS'also last gotta crowds great beans last lets something'
p28
aS'story life amazinggg cant wait album\xf0\x9f\x92\x95\xf0\x9f\x92\x97\xf0\x9f\x92\x9d'
p29
aS'story life prefect\xf0\x9f\x92\x95 love'
p30
aS'luke brooks janospy'
p31
aS'messy room traceo'
p32
aS'love much\xe2\x9d\xa4\xef\xb8\x8f'
p33
aS'hear story life radio guys think'
p34
aS'cant believe month till lovin suggestions keep coming'
p35
aS'nominated favourite band group amas thaaaaaaaank youuuuuuu'
p36
ag4
aS'thinking australia nobody shrimp barbies'
p37
aS'went perth concert best night life thankyou much love'
p38
asS'2013_40'
p39
(lp40
S'homemade hope like'
p41
aS'sydney lets ready'
p42
aS'goodmorning hours sleep later would love coffee'
p43
aS'youre coming tonights show sydney please bring love mill sign thank cooperation'
p44
aS'coming soon quite looking forward reckon'
p45
aS'perth amazing last days thank much struth'
p46
aS'amazin night last night concert didnt want'
p47
asS'2013_41'
p48
(lp49
S'back retweet follow'
p50
aS'would like come country'
p51
aS'luke cant tell'
p52
aS'sometimes sound someones voice make happy'
p53
aS'watching night concert movie\xf0\x9f\x8e\x80 love guys\xf0\x9f\x92\x95\xf0\x9f\x92\x97\xf0\x9f\x8c\xb8'
p54
aS'listening harry niall nova love guys niallsnurseryonnova harryshouse'
p55
aS'follow spree time follow gonna check night'
p56
aS'make fanboy mockumentary think good idea'
p57
aS'goodmorningafternoon whatever whats goin'
p58
aS'cant wait thursday night 700gonna listening\xf0\x9f\x8c\xb8\xf0\x9f\x92\x95'
p59
aS'sydney great last days soon'
p60
aS'midnight memories whos preordered'
p61
aS'harry niall nova full'
p62
aS'direction smallzy'
p63
asS'2013_46'
p64
(lp65
S'hahaha'
p66
ag4
aS'thats cute\xf0\x9f\x92\x97\xf0\x9f\x8e\x80'
p67
aS'theo'
p68
ag4
ag4
ag4
aS'like eggs morning'
p69
aS'millions philippines need clean water shelter donate haiyan appeal'
p70
ag4
ag4
asS'2013_47'
p71
(lp72
S'pudsey auction right great cause please give'
p73
aS'haha'
p74
ag4
aS'hahaha sorry thati twitter\xf0\x9f\x98\x82\xf0\x9f\x98\x98'
p75
asS'2013_44'
p76
(lp77
S'soml video comes hour hours make views boys done much'
p78
aS'sick tune babe lovely bandmates today'
p79
aS'wowweee tour finished thank everyone made brilliantttt'
p80
aS'shows wasnt bored show best fans planet ucoz'
p81
aS'amazing year thank much never forget tour tmhworldtour2013'
p82
aS'feels like years started freezing cold night february london'
p83
aS'thats tmht thank much everyone made year xxxx'
p84
ag4
aS'brother greg sittin room storyofmylife'
p85
aS'long suit storyofmylife'
p86
aS'today music station tokyo laugh lads love girl'
p87
aS'hiiiii heres video bowl sausages'
p88
aS'screen debut grandparents haha love'
p89
aS'think cricket jumper soml video'
p90
aS'confused different time zone halloweens think missed'
p91
aS'long till story life video'
p92
ag4
aS'happy halloween\xf0\x9f\x91\xbb\xf0\x9f\x8e\x83'
p93
aS'ello everyone whats'
p94
aS'much'
p95
aS'soooooo excited videooo'
p96
aS'cant wait guys video'
p97
ag4
aS'chillin listenin soml face'
p98
aS'happy birthday skipleeeeeeeett'
p99
aS'sapning halloween'
p100
aS'\xf0\x9f\x8e\x83happy halloween\xf0\x9f\x91\xbb'
p101
aS'fingers crossed weekend story life thank guys bought really means'
p102
aS'also thank crew make show happen band australian team course'
p103
aS'great amazing tour experience thank much something wont ever forget'
p104
aS'every audience simply incredible hard tell loudest every show give'
p105
aS'cant wait come back thanks crew everyone label lets keep great time'
p106
aS'shows cant believe nearly times ready year'
p107
aS'well mental australia thank much amazing tour gona miss shows tokyo'
p108
aS'gona miss australian crew comin japan great tour'
p109
aS'come back perth pleaseeee'
p110
aS'show sick tonight thank australia welcoming amazing love'
p111
aS'story life amazing\xf0\x9f\x98\x8d\xf0\x9f\x92\x97\xf0\x9f\x92\x95\xf0\x9f\x8e\x80'
p112
aS'messages amazzzzing cant believe many listening story life week'
p113
aS'storyofmylife amazing bought many times excited midnight memories love'
p114
aS'can\xe2\x80\x99t thank guys enough you\xe2\x80\x99ve bought single'
p115
ag4
aS'rigggght show done gonna follows story lifeeeee'
p116
ag4
aS'sorry line toooooo didnt expect glad made people happy'
p117
ag4
aS'thank downloading story life'
p118
aS'guys story lifeeeeeeeeeeee'
p119
ag4
aS'thanks melbourne sorry slow bloody back hurting getting'
p120
aS'would years harryi hope would touring direction fandom'
p121
aS'interviewer would years harry hope would touring direction right'
p122
aS'love story life'
p123
aS'single story life enjoy'
p124
asS'2013_45'
p125
(lp126
S'cheerleading afternoon\xe2\x9c\x8c\xef\xb8\x8f\xf0\x9f\x92\x97\xf0\x9f\x8e\x80love'
p127
aS'love rockers best ever'
p128
aS'everyone whats newwww'
p129
ag4
aS'sooo asleep days breakfast'
p130
aS'voice angel voice like combination fergie jesus'
p131
asS'2013_37'
p132
(lp133
S'posted photo'
p134
aS'everyone whats newwwwwww'
p135
aS'happy birthday'
p136
asS'2013_36'
p137
(lp138
S'sittin garden gona nothing'
p139
aS'like fields'
p140
aS'going cosentino november cant'
p141
asS'2013_35'
p142
(lp143
S'controversial award show moments featuring watch'
p144
aS'onedirectionfollowspree follow sound technician retweet youre done'
p145
aS'retweet want follow must following'
p146
aS'happy birthday great'
p147
aS'liamwillturn20followparty follow follow back follow realliampaynefollowparty'
p148
aS'rest time'
p149
aS'alright pablo'
p150
aS'thank fans come premier tonight support always recognized love guys'
p151
aS'excited premiere whos watching live stream carpet cant seen street make sure\xe2\x80\xa6'
p152
aS'posted photo'
p153
asS'2013_34'
p154
(lp155
S'good nypd'
p156
aS'nypd said 18000 people thereunbelievable'
p157
aS'back cant wait today show morning third time thanks back huge\xe2\x80\xa6'
p158
aS'retweet'
p159
aS'online \xe2\x95\xb0\xe2\x87\xa2\xe2\x87\xa2follow'
p160
ag4
aS'whats crazy mofos yall good lyin aint goin anywhere'
p161
aS'retweet want follow main must follow woahdirection'
p162
aS'giving away retweet chance'
p163
aS'cant believe amazing night hadddd thankyou cant wait film'
p164
aS'deffinately wearing nappies tonight excited'
p165
aS'pleaseeee follow'
p166
aS'1dmoviepremiere today'
p167
aS'tonight night 1dmoviepremiere'
p168
aS'happy well done'
p169
aS'leicester square tonight turn eachother like thank much'
p170
aS'talk dirty dance 700000 views'
p171
aS'excited movie though'
p172
aS'great back lads today cant wait movie'
p173
aS'press today havin laugh'
p174
aS'10000000 followers thankyou'
p175
aS'cant believe twoyearsofwhatmakesyoubeautiful week premiere movie thank'
p176
aS'caution surface 1dmovie'
p177
aS'killed well done love choo'
p178
aS'strike pose'
p179
asS'2013_33'
p180
(lp181
S'\xe2\x80\x9cthis presents payno'
p182
aS'back another state already miss baby'
p183
aS'profile photo looks like family photo hehe'
p184
aS'wish could meet real life\xf0\x9f\x98\xa2\xf0\x9f\x98\x9e\xf0\x9f\x92\x95'
p185
aS'look'
p186
aS'truth nice meeting'
p187
aS'bestfriends back shes sleepy'
p188
aS'friends dancing replayed like times directionlt3'
p189
aS'loved wentworth today sldr sick thanks guys sldr'
p190
aS'tommo action'
p191
aS'days till premiere cant wait'
p192
aS'almost million views holy hdfjggcgds girlnextdoorto1million'
p193
aS'come'
p194
aS'look whos glad'
p195
aS'soooooo excited premiere movie london'
p196
aS'starts playing best song ever start dancing'
p197
aS'went dentist today braces bottom teeth officially brace free'
p198
aS'cant freaking wait'
p199
aS'coming soon'
p200
aS'thisisusfollowspree'
p201
aS'thisisusfollowspree follow please zayn love'
p202
aS'hear live version last first kiss'
p203
aS'thanks'
p204
aS'cash looking cold'
p205
aS'buddy xoxox'
p206
asS'2013_32'
p207
(lp208
S'walk jacobs ladder steps think might'
p209
aS'love picture love'
p210
aS'sisterslt3'
p211
aS'unicorn\xf0\x9f\x8e\xa0\xf0\x9f\x92\x99\xf0\x9f\x8e\x80\xe2\x9c\x8c'
p212
aS'gewlt3'
p213
aS'girls love yalt3'
p214
aS'dogs hahahalt3'
p215
aS'love videos sent funny want join'
p216
aS'beau acting like sick cunt'
p217
asS'2013_31'
p218
(lp219
S'goodmorning'
p220
aS'went watch cirque soleil tonight feel bendy'
p221
aS'timelt3 beautiful sister cute little doggy loves them\xe2\x9c\x8c\xf0\x9f\x92\xa4\xe2\x9d\xa4'
p222
aS'follow dreams always'
p223
aS'defiantly cutest human'
p224
aS'cutie\xf0\x9f\x98\x98 please follow xoxox'
p225
asS'2013_30'
p226
(lp227
S'good night world\xf0\x9f\x92\xa4\xe2\x9c\x8c\xf0\x9f\x92\x99'
p228
asS'2013_39'
p229
(lp230
S'wanna meet'
p231
aS'walking road sings tshirt pictures'
p232
aS'yeah sisters friend meet unfair haha'
p233
aS'haha tomorrow'
p234
ag4
aS'excited sunday cant wait\xf0\x9f\x98\x86\xf0\x9f\x98\x86'
p235
aS'adelaide unbelievable couldnt believe loud doin tomorrow cant'
p236
aS'yessss adelaide loudest crowds ever night thats tmht back road'
p237
asS'2013_38'
p238
(lp239
S'harry\xf0\x9f\x92\x97\xf0\x9f\x92\x97'
p240
aS'direction movie good loved much\xe2\x9c\x8c\xef\xb8\x8f\xf0\x9f\x92\x95'
p241
aS'cant wait gonna tonight excited'
p242
aS'australia'
p243
as.