(dp0
S'2013_42'
p1
(lp2
S'dispatches years gaddafi lawless libya'
p3
aS'enough hours examines time surveys people allocate time'
p4
aS'newly discovered skull found dmanisi georgia suggests early single species'
p5
aS'full newsnight data revealing parts could lose built seen'
p6
aS'debate whether globalisation trouble reached rebuttal stage cast vote comment'
p7
aS'walked food oven couple hours away meeting everyone wedding partying'
p8
aS'judge whether leaked secrets sensitive report nick davies journalists selfcensorship'
p9
aS'good piece today impact lead poisoning children work issue nigeria'
p10
aS'secondly delighted introduce android free download google play store'
p11
aS'innovation could save skins cocoa beans turning paper environment'
p12
aS'archbishop tutu added voice global choir calling release greenpeace activists russia'
p13
aS'peter voser cheap shalegas exports myth driving energy prices europe'
p14
aS'azerbaijan pres alieyev electoral landslide built repression fraud signs confident winning'
p15
aS'freedom expression freedom harass'
p16
aS'study compound found wine could make cancer treatment effective heard'
p17
aS'believe grinch prechristmas warm beautiful yorkshire weather'
p18
aS'interview president yolanda kakabadse business partnerships greenwashing sustainability'
p19
aS'join twitter chat 12pm1pm discuss skills sustainability communicators need drive cons\xe2\x80\xa6'
p20
aS'editor govt shutdown five reasons fear october pass without deal'
p21
aS'watchdog questioned honesty integrity officers allegedly tried discredit tory chief whip andrew\xe2\x80\xa6'
p22
aS'says balances difference news harm public security seriously newsnight objectively'
p23
aS'journalist jailed eritreas gulag 4405 days without trial contact outside'
p24
aS'david jason return granville open hours xmas special really exactly'
p25
aS'spains prime minister mariano rajoy predicts economic country still long'
p26
aS'tell dont fund uzbekgovernment continues massive forcedlabor forcedchildlabor'
p27
aS'obama administrations chilling effect journalism scathing report obamaandthepress'
p28
aS'copywriting tips effective homepage'
p29
aS'matchfixing icsswpbsa global integrity partners sports marketed globally targeted need activ\xe2\x80\xa6'
p30
aS'examples circular models work facing challenges'
p31
aS'dont think youll like chocolate demand sends cocoa soaring'
p32
aS'study twitter referrals return news site within week journalism seem work'
p33
aS'journalists need keep investing learn things improves journalist says'
p34
aS'north korea uncovered main evening news bulletin live video translation'
p35
aS'russias presence processor recieved serious shot opened tobolskpolymer'
p36
aS'price increases witnessed chinas industry market realigning itslef'
p37
aS'thanks kind words retweets hope well'
p38
aS'official countdown catalonia know well eating tapas drinking coffee ramblas'
p39
aS'writing bangladeshs garment sector bring change'
p40
aS'really interesting research project develop 4dprinting many institutes still trying master 3dprinting'
p41
asS'2013_43'
p42
(lp43
S'honour johnpeelday listening revered broadcasters desert island disc choices'
p44
aS'think gondola might best mode transport work morning least ducks enjoying rain'
p45
aS'manchester police seize printed parts c4news astonishing story sounds much like inthelineoffire'
p46
aS'photos worker testimonies touch heart enddeathtraps bangladesh please share'
p47
aS'selfish stop climate change'
p48
aS'srilankas human rights abuses still havent independently investigated commonwealth leaders must speak'
p49
aS'interesting develops buzzfeed hires pulitzer winner head investigative unit'
p50
aS'qatar writing poetry seen threat national security poet serving years'
p51
aS'report oxford martin commission future generations advises world could better'
p52
aS'clcs judy gearharts take childlabor speech delivered brazil global conf child labor recently'
p53
aS'need talk bush fires climate change'
p54
asS'2013_40'
p55
(lp56
S'shows adapt technology 84yearold joan internet liste\xe2\x80\xa6'
p57
aS'stolen mums samsung tablet good coming christmas tabletenvy'
p58
aS'roses bacon also poems hard bacon'
p59
aS'glastonbury tickets sell record time mins looks like well going abroad instead'
p60
aS'thanks follow would possible preston tomorrow night show'
p61
aS'malign force others gifted journalist generation daily mail paul dacre'
p62
aS'video peak district mountain biking hope loop ladybower hagg farm beast peak'
p63
aS'reached 100th tweet mark thank followers whove come personal account professional'
p64
aS'fscinated innovations come across castor make polyamides latest report'
p65
aS'think people feel rather sick whoops'
p66
aS'incredible consistency schumacheresque'
p67
aS'lets quite clear independent journalist bearing witness time come home\xe2\x80\xa6'
p68
aS'worlds beyond solar system find exoplanets inourtime melvyn bragg'
p69
aS'whats michael buerk tune insident sunday legend looking forward finding'
p70
aS'william hague greenpeace executive director discuss charges british nationals russian authorit\xe2\x80\xa6'
p71
aS'david mellor steel light exhibition officially opened christopher frayling'
p72
aS'amazing textiles future biobased also becoming rampd topic'
p73
aS'devastating syriaschildren hard important watch'
p74
aS'different ways curate content online journos thought might interested'
p75
aS'different ways curate content online journalism'
p76
aS'clancy bestselling writer terrible shame thank creating jack ryan'
p77
aS'quite happy covered story researchers developed process turn plasticbags hightech materials'
p78
aS'hunt jack ripper prime suspect history today'
p79
aS'looks like watch boxing next years cant wait back glasgow'
p80
aS'efforts made educate cambodias garment factory workers health issues read'
p81
aS'better access disabled earns praise town hall yorkshire a11y congratulations hebdenbridge'
p82
aS'yorkshire renewing contract batsman phil jaques returned australia pursue coaching role'
p83
aS'what\xe2\x80\x99s yorkshire october 2013 guide best entertainment around county chosen'
p84
aS'voted syria knew inaction would lead images massacred children continuing highlighted tonight'
p85
aS'aftermath incendiary weapon attack north syria clothes hanging syriasch\xe2\x80\xa6'
p86
aS'peace talks fail turks saudis qataris rebels syria foreign minister full interview'
p87
aS'highlighting many challenges faced children doctors syria hard hitting reporting'
p88
aS'around million people syria made homeless nearly entire population syriaschildren'
p89
aS'watching bbcpanorama want something childrenofsyria'
p90
aS'news perform ngt2013'
p91
aS'finally watched gameofthrones awesome best word describe'
p92
aS'poet anne carson translation redwinged monsters morning starttheweek'
p93
aS'thousands fundraisers joined famous faces weekends great yorkshire sheffield'
p94
aS'labours party conf provoked much debate shape british public opinion excellent overview'
p95
asS'2013_41'
p96
(lp97
S'life changed much watching hercules sunday phil satyr awesome domesticated'
p98
aS'journalists marched today saint petersburg support photog denis sinyakov freethearctic30'
p99
aS'could help followers great cause wife helping grea\xe2\x80\xa6'
p100
aS'thanks follow back hope check music video'
p101
aS'police departments analytics predict \xe2\x80\x9chotspots\xe2\x80\x9d criminal activity based past incidents'
p102
aS'acceptable start planning christmas'
p103
aS'reputation seen strategic risk says deloitte survey'
p104
aS'written imposed controlled politicians newspapers verdict press regulation deal'
p105
aS'osborne plan energy efficiency funds fuel poor unforgivable'
p106
aS'editors respond daily mail calls guardian paper helps britains enemies honestjournalism'
p107
aS'journalism programme takes lessons teaching hospitals thought might like'
p108
aS'problem looking forward seeing everyone'
p109
aS'scott carpenter second astronaut orbit earth died aged'
p110
aS'looks like beautiful place hows hotelguest house'
p111
aS'plan going possible date group page weekend'
p112
aS'cheers mate much appreciated still looking forward jingers 2014 reunion'
p113
aS'looking biobased materials lately recycling fibre applications growing'
p114
aS'free arctic arrested whilst defending arctic need defend'
p115
aS'bangladeshaccord statementthe fire aswad mill'
p116
aS'journalists please sign petition free kieron bryan charged piracy russia'
p117
aS'would possible send recording mondays lair missed chance listen ducks'
p118
aS'good planning coming spare room available ch\xc3\xa2teau davidampkatie'
p119
aS'commentator murray walker years today bbcf1 legendinhisownlifetime'
p120
aS'help real hero today downloading help heroes game supportforlife'
p121
aS'supply chain transparency read fair tracetool help'
p122
aS'recent report says south africas economy grown slowly peers'
p123
aS'fire underlines need improvement working conditions garment workers bangladesh says andy york change heart'
p124
aS'space days fires taken lives innocent workers bangladesh must done stop tragic loss life'
p125
aS'hows life back north east planning trip soon chance catch'
p126
aS'yorkshirehour hello yorkshire people kids natures biggest playground countryside wkend'
p127
aS'peter higgs francois englert nobelprize work higgs boson hear profile higgs'
p128
aS'next mishal husain first indepth interview malala since shot taliban last year'
p129
aS'asiapacific economic cooperation forum apec pressure least three fronts'
p130
aS'prestonfm tonight music tune 1032fm'
p131
aS'free ebook journalism challenges centre journalism communication research'
p132
asS'2013_46'
p133
(lp134
S'weeks industrial green chemistry world convention ecosystem'
p135
aS'martin baitz speaks next week ecochem 2013 greenchemistry'
p136
asS'2013_47'
p137
(lp138
S'view exhibit ecochem escalator'
p139
aS'1906 meeting held albion hotel manchester journalists start campaign journalists\xe2\x80\x99 union'
p140
aS'left ecochem value chains meet sustain innovate grow greenchemi\xe2\x80\xa6'
p141
aS'greenbiz stories'
p142
asS'2013_44'
p143
(lp144
S'\xe2\x80\x9cwinded information\xe2\x80\x9d melvyn bragg recovers week\xe2\x80\x99s inourtime berlin conference'
p145
aS'pampg ready make mark packaging industry settingstandards packaging plantbasedma\xe2\x80\xa6'
p146
aS'france confirms french journalists killed kidal northern mali taken'
p147
aS'reduce working week hours economists'
p148
aS'ground central african republic india harasses critics surveillance daily brief wraps'
p149
aS'congrats gillards gold award dealing regularly always feel grip'
p150
aS'syria chemical weapon facilities decommissioned threat looms polio c4news'
p151
aS'weve started incredible innovations biobased materials automotives wonder research uncover'
p152
aS'start feeling talking someone earlier much younger constantly referred mygeneration'
p153
aS'biobased materials becoming major growth area lineup years ecochem extraordinary'
p154
asS'2013_45'
p155
(lp156
S'best thing autumn leaves create wild 50things'
p157
aS'looking forward tomorrow night leedso2 beautiful shes poweroflove'
p158
aS'thanks follows'
p159
aS'find amazing much investment going rampd biomaterials greenchemistry years ecochem cracker'
p160
aS'posted comment check 11pm tonight saddleworth radio'
p161
aS'breakthrough leader observes champions others ecochem'
p162
aS'model urban regeneration launched sheffield weekend academics university'
p163
aS'something rustled evenings haggerty thank love'
p164
aS'socialmedia great tool journalists produced exclusive article linkedin chinas reactive industry wtin'
p165
aS'dispatches bangladesh pollution horror story'
p166
aS'living wages women livingwageweek'
p167
aS'natchez second biorefinery based elevance\xe2\x80\x99s proprietary metathesis technology greench\xe2\x80\xa6'
p168
aS'remember gave lives year round removed'
p169
aS'budapest launch report domesticviolence hungary wednesday'
p170
asS'2013_37'
p171
(lp172
S'best radio news bulletin item you\xe2\x80\x99ll ever hear read hatsoff'
p173
aS'clegg calls supermarkets donate plastic charge charity'
p174
aS'week international travel lazy weekend awesome weve also sorted office organised'
p175
aS'diplomatic breakthrough geneva help people syria watch analysis'
p176
aS'good beer guide sell goodbeer congratulations indeed'
p177
aS'british author crace shortlisted years booker prize novel says last'
p178
aS'first series five articles lessons financial crisis definitely worth read'
p179
aS'hubbub activity whod thought like pint early beyond unlike'
p180
aS'writing lloyds split covering asia spearhead global supply manmade fibres varied life'
p181
aS'news cycling remains core sport olympic games mcquaid warns complacency'
p182
asS'2013_36'
p183
(lp184
S'well done great achievement'
p185
aS'excellent legends programme alainprost steve ryder showing great qualities interviewer'
p186
aS'pretty impressive socialshakeup presenter head socialmedia hear speak'
p187
aS'incredible dominant vettel redbull right great team effort'
p188
aS'live italian grand prix team view commentary bbcf1'
p189
aS'champagne sprays reaction sebastian vettel winning italian grand prix bbcf1 ital\xe2\x80\xa6'
p190
aS'lord tokyo celebrate days years isnt long master olympics'
p191
aS'apparently redarrows flown whitby brings back many childhood memories'
p192
aS'introduction blogging nonprofit organizations'
p193
aS'extremely happy tokyo think games wouldve interesting turkey tokyo2020'
p194
aS'always ambitious think lloyds split going happen without snag account holders struggling online seems'
p195
aS'american agriculture different european variety'
p196
aS'tokyo wins race host 2020 olympic games'
p197
aS'inspired lakes artists poets thinkers weekends ntuncovered'
p198
asS'2013_39'
p199
(lp200
S'watching senna first time terrible know incredible driver character track'
p201
aS'inourtime melvyn bragg mamluks hardened military also important patrons arts'
p202
aS'story live tomorrow 10am looks extent underage drinking read blog'
p203
aS'news frustrating swiss golfers verbier kinda even though silver gofoxy'
p204
aS'thanks supporting camra helping beer duty escalator cpc13'
p205
aS'manchester keep quacking rockingout'
p206
aS'first beer sell elderflowerblonde cracking stuff exactly said'
p207
aS'weve walked tarn pint broadside oldrosie'
p208
aS'watch kenyan interior minister press conference giving details investigation westgate attack'
p209
aS'sounds october sounds good think jingers grooving march'
p210
aS'remember time gave grim reaper newspaper subeditor thanks'
p211
aS'hope youre good weekend sorry properly touch come something'
p212
aS'sometimes placard isnt enough saveournhs'
p213
aS'seven people treated smoke inhalation taken hospital minor injuries tour boat caught'
p214
aS'true bluepeter style heres made earlier'
p215
aS'today'
p216
aS'hiya mate girlfriends sisters classic rock band always looking extra timeplayinglivetoday'
p217
aS'monday 10am exclusive figures show many teens visit aampe drinking much read blog'
p218
aS'good luck everyone great yorkshire sheffield today'
p219
aS'would like know heater instructions warning getting knobbed'
p220
aS'come back yorkshire hope well'
p221
aS'watch programme monday great interest keep great courageous work syria doctors'
p222
aS'peak district walker completes sevenyear challenge news peak'
p223
aS'great looking hope unpredictable weather stays open many ecpected attend'
p224
aS'incredible inisight doctors syria highvalue targets personal account written doctor'
p225
aS'yorkshire three peaks page updated includes challenge read'
p226
aS'excellent page anyone looking take walking challenge good look three peaks'
p227
aS'nicholas parsons show thats love saturdaylive'
p228
aS'minute nicholas parsons celebrates 90th birthday well done todays saturdaylive'
p229
aS'following journey listen'
p230
aS'bradford bradfords young novelists write lines yorkshire'
p231
aS'looking forward going back barcelona time cant wait evening'
p232
aS'promised today doubt walking boots coming unfortunately yorkshire weather'
p233
aS'book serialised telegraph reveals drew secret plans allow gaddafi escape libya'
p234
aS'home cooked italian food great friends accompany thats fridaynights'
p235
aS'recommend rice indian yeadon excellent service tasty food also free drink well nice touch yorkshirehour'
p236
aS'mins astronauts take space heading space station watch live'
p237
aS'looking forward ryedale book festival 19th october malton tales dales'
p238
aS'video peak district bouldering 20112012 excellent video great hope encourages'
p239
aS'video peak district bouldering 20112012 peak'
p240
aS'told lots shujournos passed since course started time flies good luck years cohort'
p241
aS'remember last firefighter strike family members involved fair govt wants remain active duty till'
p242
aS'tony blair warns dont assad hook chemical weapons'
p243
aS'front page miliband pledges freeze energy bills years labour'
p244
aS'bedroom scrapped blog facebook likes shows'
p245
as.