(dp0
S'2011_35'
p1
(lp2
S'freaking important think pathetic acts like needs like'
p3
aS'osteoarthrosis bursitis made intimacy painful 8mos edge hell edge anxiety memories'
p4
aS'events took place 1995 1997 husband still married living together wour teens events since last'
p5
aS'enough like public problem panicattackinducing confrontation'
p6
aS'tired tired irritable insomnia feeling worthless alone pain defensive'
p7
aS'become shutin talking handful people known friends problems'
p8
aS'family acted like never mentioned support problem didnt exist withdrew 0608 heavily drank stopped'
p9
aS'admitted friends family diagnosed rrptsd promptly treated like plague friends'
p10
aS'cool article invisible illness week working problem idea kind business start'
p11
aS'hypervigilance upside right ptsd'
p12
aS'look dogs force animals weird actually think'
p13
aS'screaming phone taken mins explain create folder cont'
p14
aS'phone wmil probs virus refuses complains problems virus shes fuckin dense'
p15
aS'crawled hole guess better crawl'
p16
aS'crying freakin reason'
p17
aS'sleepless'
p18
aS'feel sick'
p19
aS'jump thing every morning night ease aches away'
p20
aS'pain calming keeping awake tingling even foot throbbing tailors bunion'
p21
aS'cant sleep robaxin wheres drowsiness kinda need right'
p22
aS'didnt want school surprise spent cash saved pizza much easier please'
p23
aS'tired lots sorting cleaning hurt shoulders numb gonna find freaking kicking spoons left'
p24
asS'2011_34'
p25
(lp26
S'getting kids clothes sorted school havent grown anything'
p27
aS'hope everyone east coast stays safe irene'
p28
aS'last thought night wonder born 2mos premature born addicted heroin related health probs ponder'
p29
aS'late night better local channel elevator music sleep infomercialmarketing immunity'
p30
aS'sensa really work'
p31
aS'slept still sore went therapy appt short supposed think denial'
p32
aS'went garden stupid tripped tomato vines landed planter loaded meds huuuuurt'
p33
aS''
p34
asS'2011_36'
p35
(lp36
S'imie monroeville zombieville tshirt jammie pants usually halloween themed spoonie roll call'
p37
aS'apparently attempted rape funny tosh0 crowd watched 12am last night rape nightmare woke wpanic attack'
p38
asS'2011_40'
p39
(lp40
S'figured blogging tomorrow epiphany back black finally getting gear'
p41
aS'music writing thats good therapy suggit'
p42
aS'therapy made depressed ever cousin killed last wkend yeah fuck therapy doin makes happy instead'
p43
asS'2011_38'
p44
(lp45
S'lately thing lifts spirits wake seeing pups eagerly great every morning'
p46
as.