(dp0
S'2013_42'
p1
(lp2
S'volunteerhands getinvolvedasapmrw tonight wanna nothing'
p3
aS'present circumstances dont determine 1000 public appearances royalbabyabc'
p4
aS'americandream09 great thank really made galway ireland jobfairy chef'
p5
aS'real boyfriend knows girl like back hand knows hate trying text someone'
p6
aS'logged literally first thing rhiannamator described aries taurus tweet haha'
p7
aS'preordered copy gottabeyou everyone family sscottcawley yeah water polo didnt'
p8
aS'rihannas diamonds certified gold zealand congrats robyn bridge anniversary bagless listen lhnln'
p9
aS'kinds people shape support thniall lost 600000 followers used'
p10
aS'dont care many times seeing someone else kills meve idea pure really'
p11
aS'girls bathroom wait minutes tell cked playtime weekend'
p12
aS'love like miss dont worry youll catch anothightly crazy things k4pxt marlatabaka'
p13
asS'2013_43'
p14
(lp15
S'don\xc3\xa2\xe2\x82\xac\xe2\x84\xa2t compare others compare person yesterdayrd work learning failure'
p16
aS'\xc3\xa2\xe2\x82\xac\xc5\x93today many awaken fresh sense inspiration you\xc3\xa2\xe2\x82\xac\xc2\x9dmollypoppins long youre'
p17
aS'don\xc3\xa2\xe2\x82\xac\xe2\x84\xa2t forget face person last hope katniss everdeenyou back arthur rubinstein melodies'
p18
aS'forget cheesy pickup lines need better breakup lines baby yost sell shares yqnuz breitbartnews'
p19
aS'haveing funand careing look stupid teensdothissy wizard wizards waverly place childhood gone'
p20
aS'skill comes ralph waldo emerson regards android better note better specs'
p21
aS'friend need hang never happensing miracle though everything miracle'
p22
aS'dear guys never tell girl ugly remember 1hunnah follow back tbhshe'
p23
aS'things says make believe really likes meother thin leaderboards kills wins score hacked'
p24
aS'maxfisher offense taken course want right noted thachild love love'
p25
aS'million things world want need lt3e bill irresponsible teenagedreamsss'
p26
aS'either focus what\xc3\xa2\xe2\x82\xac\xe2\x84\xa2s tearing apae nativeproblems nativeproblems rezlife'
p27
aS'beauty living life happy inside youre amazing love mrlukebenson'
p28
aS'survive layoff dadu says something completely stupid burst laughter'
p29
aS'suppose force grav hypocrites misleading rulers umarra case today'
p30
aS'quotes looking forward going spain benidorm playiny yess askfma5ehp8faj'
p31
aS'high school made realize people change injarvismike take back foun'
p32
aS'sorry sorry defiantly sorry fabulous sorrybelieve feel girl brad paisley'
p33
aS'best stand stop trying rathbout investment chairman weber wef2013agenda'
p34
aS'rihannas love affair tattoos countingwhich chick flashed barge chick flashed'
p35
aS'good actions give strength inspire good actions othersmt abfalecbaldwin want followers'
p36
aS'youre openminded brains fall lawrence ferlinghetti wake'
p37
aS'youll never love half much love youll never case forgot name call'
p38
aS'inevitable fortified itthornton wilder quoteyour family admit youve done'
p39
aS'truebe kindbe truly kindbe kindly true sayquotes skinnier nicer calmer clearer stronger better'
p40
aS'someone always prettier someone always smarter soone elses would quick grab back'
p41
aS'teenagestories\xc3\xa2\xe2\x80\x9e\xc2\xa2 \xc3\xa2\xe2\x82\xac\xc2\x8fteenagestories theyre scared death thought losing'
p42
aS'never enough dont really want eric hoffer quotesmy boyfriend thinks stalker'
p43
aS'life isnt worth living unless lived someone elseast give less inherited'
p44
aS'momentosquenoolvidaredel2011 todos momentos risa terminan bumped president letlapa mphahlele'
p45
aS'awww thanks messages glad really awesome followers also disappear without love'
p46
aS'every child needs know alone least amount competence'
p47
aS'wish could fall asleep wake problems goneou make mistake choice'
p48
aS'katrinayork mayn\xc3\xb0\xc3\xbf\xe2\x84\xa2\xcb\x86 silver samsung laughing stock it\xc3\xb0\xc3\xbf\xcb\x9c\xe2\x80\x9aki walk dance celebrate life\xc3\xa2\xe2\x82\xac\xc2\x9d'
p49
aS'derekmarks half much missed pinning call 8004367734 crews respond thank'
p50
asS'2013_40'
p51
(lp52
S'waking checking twitter like morning papert much love william shakespeare melodies'
p53
aS'life consists thinking think stand dont blend inbroadcasting live'
p54
asS'2013_41'
p55
(lp56
S'dreams begin responsibilities yeatsin dont talk itll always feel like somethings missing'
p57
aS'silence means youre worth argumenting horrible stuff good things never reported'
p58
aS'risk going possibly sense obligation creator loves'
p59
aS'weak never forgive forgiveness tgets like buttons stuff page takes ages load'
p60
aS'idesirequotes faves pleaseeecy caboosey hated looked zits chubby'
p61
aS'wish would care little morefriendship like compatible perfect'
p62
aS'fixity habit generally direct hospital face without really messed'
p63
aS'never stop smiling even youre sadgary neville proved wrong brilliant article daily mail'
p64
aS'kissing language love anya brazilian girl shouts world champions yaaaay ahbless'
p65
aS'making person smile change worldted feelings dont judge hands arent even clean'
p66
aS'brave little toaster crossover alice human sacrificeto eyes seeing miracle cant'
p67
aS'overhearddublin irish customer service itll grand pictwittercomqzq67gawfie small ones phillips brooks quote'
p68
aS'portmanfox haha thanks definitely take tomorrow morningthey devotion loyalty pedestal'
p69
aS'play game women know score roger woddis cling desperately chains ultimatequotes'
p70
aS'retweet youre person year agol spill auspol instagrampbbfud4w51w'
p71
aS'awkward moment friend friends person hatell never really know strong love'
p72
aS'ifyoumarryme wont make promise perfect promise yout omgthatsateen'
p73
aS'1lesslonelybob please read story love scars promise youlone teamservants sk874e dothedownton downton'
p74
asS'2013_46'
p75
(lp76
S'people think people know like stop microwave make'
p77
aS'guess theres billion people worldomotes least twice shoutout wait'
p78
aS'0054 adopt sees like video become another stranger dont know'
p79
aS'relationship facebook real lifeth wout troubles wealth wicked'
p80
aS'everything happens reason purpose serves youh feel light happiness life'
p81
aS'matter much given woman forgive matter means cant them\xc3\xa2\xe2\x82\xac\xc2\x9d karen miller'
p82
aS'quotes really look like done eigen cared losing scared assuming nervous letting'
p83
aS'true athlete spends extra hour refuses give theapproval something fear avoid'
p84
aS'sleep broken apart letting knodhulhijjah starts dusk prophet muhammad'
p85
aS'smile tears dont show laugh like dont hurt allacrx days slow steady green screamin'
p86
aS'aaronlove4ever haha think repeat wasnt hirt bulls back rodney dangerfield'
p87
aS'anglotapes would cause anyone projectile vomitnfollow mustfollow 500aday teamhitfollow'
p88
aS'wondering anything tweets ddlovato 1lograzarumi aitbaar mera main karaan intezar'
p89
asS'2013_47'
p90
(lp91
S'billy gunn power house team unloadingday wisdom letting something every proverb'
p92
aS'kyle walker keep getting squado scale much allowed'
p93
aS'rereading michael horton said covenant grace chile ecuador'
p94
aS'love looks telescope envy microscope josh billingsitch mobile phones blueberry devices'
p95
aS'last ever french lesson last ever lesson happy days\xc3\xb0\xc3\xbf\xc5\xbe\xe2\x80\xb0she said shes biggest justin'
p96
aS'carien plessis \xc3\xa2\xe2\x82\xac\xc2\x8fcarienduplessis'
p97
asS'2013_44'
p98
(lp99
S'shut idea hard wanna fuck youtes \xc3\xa2\xe2\x82\xac\xc5\x93don\xc3\xa2\xe2\x82\xac\xe2\x84\xa2t ever anybody tell'
p100
aS'yearns nite cries wishin herethat anna kendrick song cups'
p101
aS'fact joel mccrea turned role frank chambers postman aluld never believe could ever changed'
p102
aS'youre mind time even wake middle the\xc5\x93pandy92 love people theres'
p103
aS'breaking wave cannot explain whole vladimir nabokov trying stalk boyband thats sure'
p104
aS'using phone strategically hits battery latest specs generation'
p105
aS'love someone tell hearts often broken words left unspokenopening book exaxct page'
p106
aS'best pictures used moving something youre'
p107
aS'sure loves everyone else thinks youre jerk wtfqzou family merry christmas'
p108
aS'hagel boston attack cruel terrore wall whisper love brantley gilbert whenever alone'
p109
aS'went stamford bridge hates tottenham hates tottlistening mariah carey feat bone thugsnharmo'
p110
aS'hope4hollywood propheticsound pastorbjgray holtsd jackyd1992 gelp solution hope laugh'
p111
aS'lalechuguita make promises keep promises lettu loser written forehead teensdothiss'
p112
aS'cant endure live good yiddish proverbave lots fine bands booked rf13'
p113
aS'behind charcoal skyconfluence snowall white glittery less charles lamb manhattanwriter'
p114
aS'good movie three good scenes scenes howard hawkspoleon bonaparte quote leadership'
p115
aS'breastcancer journal stisten live espngoespnradiochicagoplay nbafinals game1'
p116
aS'begin naughty easier sonot choose helps feel great right'
p117
asS'2013_45'
p118
(lp119
S'unless change always youve rohn quoteinstead think local bizitalk'
p120
aS'truth beauty beauty love love music music thesuccess good fortune comes'
p121
aS'find storm speak prevailsing incorrectly applying wrong remediesgroucho marx'
p122
aS'awkward moment youre waiting text realizegood humor health soul sadness'
p123
aS'enough religion make hate enough make love anotherdoesn\xc3\xa2\xe2\x82\xac\xe2\x84\xa2t actually anywhere'
p124
aS'totallymufc breaking manchester united everton reporwe friend gets called'
p125
aS'stay positive even feels like life falling apart taildeut 2813 think'
p126
aS'minute cant change lifebut utilisation every minute deht stunning well xfactorfinal'
p127
aS'often knowingly interest david humee good real love feelstake slowenjoy time'
p128
aS'umar alkhattaab said attend fajr prayer congt falling deeply love usually ended'
p129
aS'\xc3\xa2\xe2\x82\xac\xc5\x93when someone tells can\xc3\xa2\xe2\x82\xac\xe2\x84\xa2t done reflection theto magnify stretch dont'
p130
aS'goodmorning becbecbobec itona gleeforcoke'
p131
aS'imagine moving away starting fresh'
p132
aS'disconnect vacation anitafiander'
p133
aS''
p134
aS'really trying convert religion tweet 16years religious babbling didnt characters aint going work'
p135
aS'whenever diet lasts minutes girlproblems'
p136
aS'movie weekend\xc3\xa2\xe2\x82\xac\xc2\xa6 nowwatching paycheck\xc3\xa2\xe2\x82\xac\xc2\xa6 cant forget similar holographic screen built years'
p137
aS'everyone loves dirty bird dirtybirdsf back sankeys tonight vonstroke shadowchild mrjustinmartin bones ibiza ibiza2013'
p138
aS'people sing serious youre like youre shit'
p139
aS'firms respond customer queries average vithorky smi13'
p140
asS'2013_37'
p141
(lp142
S'megaupload trial never happen judge says torrentfreak'
p143
asS'2013_35'
p144
(lp145
S'says immigration bill reduces federal deficit also said obamacare would lower premiums tcot 13rwpkh'
p146
aS'every time developer talks cloud gaming iimgurcomyhgzt0vpng'
p147
aS'lady chopping fruit certainly seemed unhappy theprojecttv'
p148
aS'overcome difficult situations faith positive attitude'
p149
asS'2013_34'
p150
(lp151
S'ceiling settings slow slow detach ceiling kill freak ceiling accident'
p152
aS'wanna till dripping tease pussy dick smack around give twitterafterdark'
p153
aS'friends absolutely crazy love anyway\xf0\x9f\x92\x8b'
p154
aS'scientists recently discovered bitches fact trippin'
p155
aS'know power beliebers everybody mtvhottest justin bieber'
p156
aS'amen mareo17 str8edgeracer going disney today gonna churro youre behalf send good vibes'
p157
aS'looks michaelkors fall 2013 fashion show allaccesskors'
p158
aS'country artist miranda lambert wearing roberto cavalli grammyglam'
p159
aS'\xe2\x80\x9cselenalovato bieberpower'
p160
aS'hoes give real women name dont clean cook work know treat makes think theyre'
p161
aS'incident proves yall shouldnt even think trying drugs cory monteith much potential ripcorymonteith'
p162
aS'shelter people live irish proverb'
p163
aS'louis cardinals first baseman albert pujols backs mark mcgwire looks forward spring training albert pujol'
p164
aS'come love finding perfect person seeing imperfect person perfectly'
p165
asS'2013_39'
p166
(lp167
S'exist cannot deny whole cries ftgirlprblembigcartel orderorderorderorder'
p168
aS'honesty probably sexiest thing give womanto eyes lover saying love'
p169
aS'peter denied access marys house 1216 unbelief drudgereport outrage bananas'
p170
asS'2013_38'
p171
(lp172
S'quoteswhy would rivalry opinion sebastian committed loved cheated done'
p173
aS'blaine kurt times youve texted past daysou became friends suddenly friends'
p174
aS'sorry perfect good luck finding someone is\xc3\xa2\xe2\x82\xac\xc2\x9dhat today isnt birthday june hahahaha'
p175
aS'word biblical commentary psalms hardcover mirror pocket quick'
p176
aS'ginaaarrr first world problems considered worthy theredheadriter afternoon happy humpday'
p177
aS'everyone said young love knew much q4atows know never look back'
p178
aS'jaskarn listen song imran khan mccutchen available pinch needed\xc2\x9d'
p179
aS'justin make porno love like playing aninews advani attend todays'
p180
aS'boyfriend left decides sexicken bones thier windows driving'
p181
aS'theres endure mans inhumanity exemplify mans humanity alan paton'
p182
as.