(dp0
S'2013_42'
p1
(lp2
S'cant wait christmas music\xe2\x98\xba'
p3
aS'back studio working music today'
p4
aS'chance signed maroon laminate hondacivictour'
p5
aS'answers phone walks fifty laps around house talking'
p6
aS'never understand physics behind british people losing accents sing'
p7
aS'music makes happy'
p8
aS'apple cider donuts\xf0\x9f\x98\x8d'
p9
aS'arent enough hours'
p10
aS'mission means want'
p11
aS'whats frogs favorite drink croaka cola'
p12
aS'think stranger ever tweeted something done public'
p13
asS'2013_43'
p14
(lp15
S'leos enjoy travel especially tropical destinations'
p16
aS'every italian enjoys sunday food\xf0\x9f\x8d\x9d\xf0\x9f\x87\xae\xf0\x9f\x87\xb9'
p17
aS'tshirts pajamaas'
p18
aS'cannot wait family days christmas special\xf0\x9f\x8e\x84\xf0\x9f\x8e\x85'
p19
aS'stand side thick thin'
p20
aS'dogs puppies gtgtgt'
p21
aS'horoscope always accurate scary'
p22
aS'randomly cold'
p23
aS'never truly appreciate nice able breathe nose cold'
p24
aS'stop stop'
p25
aS'cell phones ruined pushing fully clothed person pool'
p26
aS''
p27
aS'dress makes happy catholicschoolprobems'
p28
aS'came home house decorated halloween smelling like vanilla\xf0\x9f\x8e\x83\xf0\x9f\x91\xbb'
p29
aS'want grow group people close phoebe rachel monica ross joey chandler'
p30
aS'david guetta feat person sings entire song'
p31
aS'never interest'
p32
aS'mondays summer'
p33
aS'cant believe october almost over\xf0\x9f\x8d\x81\xf0\x9f\x98\xb1'
p34
aS'tonight teamadam'
p35
aS'jersey thanks love soon welcometoparadisebooktour'
p36
aS'honor meet today sweet incredibly talented\xf0\x9f\x92\x97\xf0\x9f\x98\x8d'
p37
aS'paramus barnes nobles staying sign every book bring also playing'
p38
asS'2013_40'
p39
(lp40
S'hold whatever keeps happy'
p41
ag27
aS'looking forward spending tomorrow bestfriend'
p42
aS'best feelings world accomplishing something wanted'
p43
asS'2013_41'
p44
(lp45
S'love much\xf0\x9f\x92\x93'
p46
aS'leos trustworthy'
p47
aS'life full questions wait answered'
p48
aS'click button didnt mean click kinda hold click drag cursor around hoping'
p49
aS'monica chandlers twins would year pheobes triplets emma lets take moment'
p50
aS'inspiring girl reminder everybody reading kind everybodys fighting'
p51
aS'love coaches teamadam watchingblinds'
p52
asS'2013_46'
p53
(lp54
g27
aS'sounds good'
p55
aS'please dont house cause everyone else'
p56
aS'make this\xf0\x9f\x98\x8d'
p57
aS'cant wait christmas\xe2\x9d\x84\xef\xb8\x8f\xf0\x9f\x8e\x84\xf0\x9f\x8e\x85'
p58
aS'clothes gtgtgtgtgtgtgtgtgtgtgtgtgtgtgt'
p59
aS'love wearing scarves make outfit look better'
p60
aS'realize handwriting like personal font'
p61
aS'ready thanksgiving break'
p62
aS'adam levine gtgtgtgtgtgtgtgtgtgtgtgtgtgt'
p63
aS'monica chandlers twins would year pheobes triplets would would emma would sink'
p64
aS'fridaay\xf0\x9f\x8e\x89\xf0\x9f\x8e\x8a'
p65
aS'watch adams interview'
p66
aS'best wake like reason look clock realize three hours slee\xe2\x80\xa6'
p67
aS'disney world gtgt'
p68
aS'ross joey play hard ross already lives london joey tokyo friends'
p69
aS'exciting news'
p70
aS'miss'
p71
aS'every morning separation anxiety'
p72
aS'prefer talent antics'
p73
aS'obsessed christmas music'
p74
aS'love hairstyle voicetop12'
p75
aS'love seeing excited guys tweets make laugh post preview tomorrow pinky promise 8daysun\xe2\x80\xa6'
p76
aS'thank thank thank'
p77
aS'want skating year rockefeller center'
p78
aS'like staying unhumanly hours also like getting hours sleep problem'
p79
aS'back summer'
p80
aS'happy veterans'
p81
aS'clothes wear complain none'
p82
aS'thanksgiving christmas break cant come soon enough'
p83
aS'hate wake good dream realize real'
p84
asS'2013_47'
p85
(lp86
S'pregnant brandon excited best early christmas present ever'
p87
aS'voicesave austin retweet please hurry'
p88
aS'retweet voicesave austin'
p89
aS'voicesave austin'
p90
aS'voicesave'
p91
aS'cant wait black friday\xf0\x9f\x98\x81\xf0\x9f\x91\x97\xf0\x9f\x92\xb0'
p92
aS'cant describe excited tomorrow'
p93
aS'cant wait city christmas time\xe2\x9d\xa4\xef\xb8\x8f\xf0\x9f\x8e\x84\xf0\x9f\x94\x94'
p94
asS'2013_44'
p95
(lp96
S'people make people miserable horriblee'
p97
aS'answers easy find understand questions'
p98
aS'wanna hawaii california italy paris london'
p99
aS'vacations'
p100
aS'emojis make everything interesting'
p101
aS'clock change tonight means extra hour sleep'
p102
aS'amused'
p103
aS'staten island needs invest chipotle asap'
p104
aS'actually really like directions song'
p105
aS'comfortable people start using pillows foot rests used pillow foot rest'
p106
aS'complete'
p107
aS'2014 months away thats crazy'
p108
aS'another'
p109
aS'thanks thankyou miss'
p110
aS'happy birthday clarissa hope great birthday miss'
p111
aS'know someones best friend serious pictures together'
p112
aS'\xf0\x9f\x8d\x82\xf0\x9f\x8d\x81november here\xf0\x9f\x8d\x81\xf0\x9f\x8d\x82'
p113
aS'time start christmas list'
p114
aS'every single store playing christmas music absolutely love'
p115
aS'swear october lasted like minutes'
p116
aS'guest sunday etpt'
p117
aS'love fridays much'
p118
aS'hard work beats talent talent doesnt work hard\xf0\x9f\x91\x8a'
p119
aS'fact girls showed house come trickortreating made night love girls much\xf0\x9f\x92\x95\xf0\x9f\x8e\x83\xf0\x9f\x91\xbb'
p120
aS'currently drowning homework'
p121
ag27
aS'halloween done right kids'
p122
aS'love teachers give homework today'
p123
aS'doesnt feel like halloween'
p124
aS'awesome halloween itll city'
p125
asS'2013_45'
p126
(lp127
g27
ag27
aS'imagine shirt'
p128
aS'awwwww'
p129
aS'awwh thats cute miss'
p130
aS'ready surprise'
p131
aS'sweatshirts'
p132
aS'chipotle'
p133
aS'winter break needs hurry'
p134
aS'refreshing twitter hear little sound'
p135
aS'report cards today\xf0\x9f\x93\x9a'
p136
aS'november like thursday year'
p137
aS'fuzzy socks gtgtgtgtgtgt'
p138
aS'always exhausted'
p139
aS'maroon band peopleschoice'
p140
aS'thank fans nominating favorite band peopleschoice awards'
p141
aS'early dark'
p142
aS'monster perfect eminemanrihanna'
p143
aS'much hipster weigh instagram'
p144
aS'days thanksgiving\xf0\x9f\x8d\x97\xf0\x9f\x99\x8f days christmas days years\xf0\x9f\x8d\xb7\xf0\x9f\x8e\x89 days valentine\xe2\x80\x99s days'
p145
asS'2012_45'
p146
(lp147
S'treat right treat better'
p148
aS'knowing youve made someone happy'
p149
aS'ryan gosling gtgtgt'
p150
aS'love winter cozzy sweaters chocolate'
p151
aS'time winter jackets warm gloves cozy scarfs\xe2\x9b\x84\xe2\x9d\x84'
p152
aS'good things come wait great things come want'
p153
aS'feels late'
p154
aS'handwriting depends using notkidding'
p155
asS'2012_46'
p156
(lp157
S'love sweaters'
p158
aS'nothing else smile'
p159
aS'confidence don\xe2\x80\x99t believe nobody'
p160
aS'wake christmas'
p161
asS'2012_42'
p162
(lp163
S'snuggling cold gtgtgt'
p164
aS'summer nights'
p165
aS'cocoa winter daygt'
p166
asS'2013_24'
p167
(lp168
S'wanna beach'
p169
aS'according study spending money experiences rather material things bring enjoyment'
p170
aS'thinking ruins happiness'
p171
aS'psychologists suggest brains find simple things beautiful'
p172
aS'regents oveer\xf0\x9f\x8e\x89\xf0\x9f\x98\x8d'
p173
aS'need longer iphone charger'
p174
aS'dont stress could chances would'
p175
aS'prom tomorroww\xf0\x9f\x8e\x89'
p176
aS'never give hope maybe definitely lead want'
p177
aS'late night conversations'
p178
aS'believe theres someone waiting meet someone like'
p179
aS'nails done prom girls soexcited'
p180
asS'2013_25'
p181
(lp182
S'things make happy lazy weekends family friends food music cute texts concert tickets'
p183
asS'2013_27'
p184
(lp185
S'excited hondacivictour summer tickets sale today'
p186
aS'thank nominating lovesomebody choice group single vote'
p187
asS'2013_20'
p188
(lp189
S'thankyouu'
p190
aS'great show tonight proud'
p191
asS'2013_21'
p192
(lp193
S'love going vacation'
p194
aS'cold side pillow'
p195
aS'love beach\xf0\x9f\x8c\x8a\xe2\x98\x80'
p196
aS'great time ella'
p197
aS'whatever makes happy'
p198
aS'award tonight music awards thank everybody support'
p199
aS'coach open show performing lovesomebody watch video'
p200
asS'2013_22'
p201
(lp202
S'gosh phoebe think caught cold mean stole'
p203
aS'leos live love appreciation'
p204
aS'season going even better season chicagofire returns fall tuesdays 109c'
p205
aS'youre never young \xe2\x80\x93snow white'
p206
aS'really love friends happy lately'
p207
aS'eminem lady gaga megan liam payne taylor swift justin bieber miley cyrus demi lovato bullied'
p208
aS'best group girls bestfriends'
p209
aS'team wildcats\xf0\x9f\x8f\x80'
p210
aS'wish eyes could take pictures'
p211
asS'2013_23'
p212
(lp213
S'music change persons perception world'
p214
aS'stay loyal stay faithful stay true'
p215
aS'life journey experienced problem solved \xe2\x80\x93pooh'
p216
aS'women need partner passionate everything life strives best'
p217
aS'dream biggest dreams imagine nothing stop except'
p218
asS'2012_49'
p219
(lp220
S'makes beautiful dont know beautiful'
p221
aS'lovehate relationship hair'
p222
aS'really love people remember little things'
p223
aS'heartbreaking thing ever hurt'
p224
asS'2013_29'
p225
(lp226
S'moment time youngest person world'
p227
aS'want shopping trip shopping mall everything want free'
p228
aS'1220pet talk iheartradio music festival listen live'
p229
aS'forever long time make sure spend someone makes laugh'
p230
asS'2012_48'
p231
(lp232
S'watching'
p233
asS'2013_5'
p234
(lp235
S'dont think wait longer summer'
p236
aS'less 3hours believeacoustic'
p237
asS'2013_4'
p238
(lp239
S'cant wait ralphs ices opens again\xf0\x9f\x8d\xa8\xf0\x9f\x8d\xa7\xf0\x9f\x98\x8d'
p240
asS'2013_7'
p241
(lp242
S'amazing tonight best concert ever love'
p243
aS'xperiencemaroon5 super excited cant wait baby'
p244
aS'obsessed stay rihanna'
p245
aS'msglets dance'
p246
aS'tweet screen xperiencemaroon5'
p247
aS'excited concert xperiencemaroon5'
p248
aS'excited tonight'
p249
asS'2013_6'
p250
(lp251
S'wanna able read peoples mind'
p252
aS'sudden game'
p253
aS'super bowl'
p254
asS'2013_1'
p255
(lp256
S'miss beach'
p257
asS'2013_3'
p258
(lp259
S'thankyouu\xf0\x9f\x90\xa8\xf0\x9f\x92\x95'
p260
aS'made honors hill villa'
p261
asS'2013_2'
p262
(lp263
S'love shopping'
p264
asS'2013_9'
p265
(lp266
S'cant live without music'
p267
aS'thanks birthday love'
p268
asS'2013_8'
p269
(lp270
S'days summer\xe2\x98\x80\xf0\x9f\x91\x99\xf0\x9f\x8c\xb4'
p271
aS'life short makes happy'
p272
aS'really cant wait summer\xe2\x98\x80'
p273
aS'want pina colada'
p274
asS'2013_37'
p275
(lp276
S'honest year kinda flew fast'
p277
aS'thinking causes stress human mind someone suffering chronic depression'
p278
aS'takes seconds write text minutes pick emoji think goes'
p279
aS'adam levine'
p280
aS'hate cold love sweatshirts uggs\xf0\x9f\x8d\x82'
p281
aS'love music much'
p282
aS'would mean world followed'
p283
aS'life finding life creating'
p284
aS'summer hair gets lighter skin gets darker water gets warmer music gets louder nights longer life gets better'
p285
asS'2013_10'
p286
(lp287
S'waking finding snow gtgt'
p288
asS'2013_35'
p289
(lp290
S'cannot believe close touching maroon stage\xf0\x9f\x98\x8d hondacivictour'
p291
aS'beginnings usually scary endings usually everything makes worth living'
p292
aS'true friendship isnt inseparable separated nothing changes'
p293
aS'dear youtube always \xe2\x80\x9cskip'
p294
aS'fail stop trying'
p295
aS'vmas seriously used awesome'
p296
asS'2013_34'
p297
(lp298
S'miss bestfriend'
p299
aS'never forget start'
p300
aS'simple things life always beautiful'
p301
aS'dream believe achieve'
p302
aS'true ride unless blurred lines comes radio least times'
p303
aS'anyone doesn\xe2\x80\x99t like musicals starts singing dancing real life\xe2\x80\x9d clearly never visited\xe2\x80\xa6'
p304
aS'nothing good comes follower'
p305
aS'wish nights lasted forever'
p306
aS'summer lasted good seconds'
p307
aS'confessyourunpopularopinion reading'
p308
aS'wifi bracelets wear anywhere wifi connection'
p309
aS'family everything'
p310
aS'cant wear socks always kick'
p311
aS'messy buns harder think'
p312
aS'people funny without rude favorite kinds people'
p313
aS'cant find gone forever'
p314
aS'seriously think future everyday'
p315
asS'2013_33'
p316
(lp317
S'love summer cannot wait wear sweaters fall\xf0\x9f\x98\x8d'
p318
aS'breaking starts tonight time stage jones beach youre crowd dont yell'
p319
aS'drum roll wake call hondacivictour whos going tonight'
p320
asS'2013_14'
p321
(lp322
S'meant'
p323
aS'count blessings troubles'
p324
asS'2013_17'
p325
(lp326
S'love falling asleep music calms relieves stress'
p327
aS'starbucks heart'
p328
aS'familys everything'
p329
aS'york city gtgtgtgt'
p330
aS'someone says something breaks song word said'
p331
aS'vanilla bean frap starbucks gtgtgtgtgtgtgtgtgtgtgtgtgtgtgtgtgtgtgt'
p332
aS'sending love everyone boston'
p333
asS'2013_30'
p334
(lp335
S'ultimate friend'
p336
aS'beauty gets eyes personality gets attention'
p337
aS'comes easy won\xe2\x80\x99t last long lasts long won\xe2\x80\x99t come easy'
p338
asS'2012_34'
p339
(lp340
S'late summer night friendsgt'
p341
aS'great'
p342
asS'2013_16'
p343
(lp344
S'frappaccinos gtgtgtgtgtgtgtgt'
p345
aS'music everything'
p346
asS'2013_39'
p347
(lp348
S'today signed record deal records shits pretty since'
p349
aS'starbucksgtgtgtgtgtgt'
p350
aS'much goes behind closed doors people seem happy always nice people never know'
p351
aS'strong need express inner loving nature'
p352
aS'twice honda civic tour hope soon\xf0\x9f\x98\x8d'
p353
aS'thanks'
p354
aS'youre amazing\xf0\x9f\x92\x93'
p355
aS'create culture positivity inspiration everywhere smile kind laugh love live well live'
p356
aS'fear halloween pathetic cannot wait dress'
p357
aS'makes decisions based future present'
p358
aS'really want video yearbook\xf0\x9f\x92\x97'
p359
aS'york city'
p360
aS'every teacher drawing something artist'
p361
aS'calendar iphone software amazing'
p362
aS'love fans much'
p363
aS'utterly ruthless getting want obstacles stand'
p364
aS'hands best school entire world'
p365
aS'want video yearbook'
p366
aS'thanks everyone shows honestly favorite tours cant believe'
p367
aS'claps whole world claps least audience voicereunited'
p368
aS'served voicereunited'
p369
aS'weekends fast'
p370
aS'emmy tonight season premiere tomorrow best week ever'
p371
asS'2013_38'
p372
(lp373
g27
aS'unabashedly love writing performing music everyone around thats doesnt need'
p374
aS'week went soooo fast woah'
p375
aS'difference like love love forever'
p376
aS'lost 18946674 bobby pins whole entire life'
p377
aS'maybe doesn\xe2\x80\x99t want called maybe wants called \xe2\x80\x9cbeautiful\xe2\x80\x9d think speak'
p378
aS'dragging bestfriend tottenville game tomorrow'
p379
aS'person make happy'
p380
aS'okay'
p381
aS'believe something live'
p382
aS'starbucks\xe2\x98\x95'
p383
aS'loving beanies lately\xe2\x98\x85'
p384
asS'2013_11'
p385
(lp386
S'driving summer windows music gtgtgt'
p387
asS'2013_13'
p388
(lp389
S'braver believe stronger seem smarter think twice beautiful youd ever'
p390
aS'pretty sure gonna summer justin wear suits ties thats'
p391
aS'know early call itbut calling teamadam wins'
p392
aS'beautiful mind terrible thing waste'
p393
aS'cant wait degrees'
p394
asS'2013_12'
p395
(lp396
S'laughing gtgtgtgtgt'
p397
aS'looks like summer feels like winter'
p398
aS'wonderful winter spring'
p399
aS'always take high road'
p400
aS'yeah ever wonder havent made cool ranch dorito taco keeps nights'
p401
aS'staying night watch sunrise gtgtgt'
p402
aS'thought weather supposed nice march'
p403
aS'infinity scarves'
p404
asS'2013_15'
p405
(lp406
S'editing'
p407
asS'2013_32'
p408
(lp409
S'want dots'
p410
asS'2012_38'
p411
(lp412
S'dont know would without music'
p413
asS'2012_39'
p414
(lp415
S'youll treated treat people youll realize feels'
p416
aS'people dont know good'
p417
as.