(dp0
S'2013_42'
p1
(lp2
S''
p3
ag3
asS'2013_43'
p4
(lp5
S'love lord'
p6
aS'bblessed budie goodnight good rafikisyah'
p7
aS'rock lord'
p8
aS'days youre thank worship days'
p9
aS'ndiyo'
p10
ag3
aS'thank father need today thank helping'
p11
asS'2013_41'
p12
(lp13
g3
aS'patience winners'
p14
aS'gives happyness love prosperity need desires life'
p15
aS'posted photo facebook'
p16
asS'2013_46'
p17
(lp18
g3
ag3
ag3
ag3
asS'2012_29'
p19
(lp20
S'yyyuuummmmm jeyster yangu like'
p21
asS'2013_44'
p22
(lp23
S'jesus sides nights days'
p24
aS'good night friends blessed night guides week'
p25
aS'rastaman bless life budie'
p26
asS'2013_45'
p27
(lp28
S'happy moaning good friends shadda\xc3\xaf bless weekend much blessings'
p29
aS'thank lord plalns youve given love worship'
p30
aS'weed change'
p31
aS'lazy lion'
p32
aS'don\xc2\xb4t'
p33
aS'good night blessed friends sweet dreams reggae music'
p34
aS'thank everything done life'
p35
aS'thank youve done life'
p36
aS'come sweetking look haert know'
p37
aS'love lovely george'
p38
aS'waiting king love'
p39
aS'bless'
p40
asS'2012_28'
p41
(lp42
g3
aS'humanitarian improve food security kenyans affected food crisis particularly slums'
p43
aS'proud'
p44
aS'pasta rotat wewe'
p45
aS'good night dreams friends jahweh protects sleepinglt3'
p46
aS'pastor robert love miss much jeyster wangu toto blessed george children'
p47
ag3
aS'miss'
p48
aS'thxs yannick'
p49
aS'oohh longtime tonton david'
p50
asS'2013_24'
p51
(lp52
S'miss sweet blanket\xe2\x99\xaa\xe2\x99\xa5'
p53
aS'sicily proverbe rosso sera buon tempo spera'
p54
ag3
aS'nice\xe2\x99\xa5'
p55
aS'night'
p56
aS'love words miss lucky'
p57
aS'godill tell happy fathers youre father good fathers fathers'
p58
aS'viva kenya bless'
p59
aS'thank lord'
p60
aS'praise haert lt3lt3'
p61
aS'forever\xe2\x99\xaa\xe2\x99\xaalt3lt3\xe2\x99\xaa\xe2\x99\xaa\xe2\x99\xaa\xe2\x99\xa5'
p62
ag3
aS'posted photo facebook'
p63
aS'good moaning dears friends guides ways week love happiness'
p64
asS'2013_25'
p65
(lp66
S'jesus christs haert galatians lt3lt3'
p67
aS'ndiyo hear lord calls name lt3lt3'
p68
aS'lt3lt3lt3'
p69
aS'lt3lt3'
p70
ag3
ag3
aS'lt3lt3 good idea living room maybe white green olive color'
p71
aS'come lord come live haert welcome house gave buruburu brussels'
p72
aS'good night friends come haerts night'
p73
aS'amen'
p74
ag3
aS'true'
p75
asS'2013_26'
p76
(lp77
g3
aS'true'
p78
aS'lt3lt3 audi'
p79
aS'good friends yahve side said come thine sins wash'
p80
aS'youre lord ever lt3lt3 love without nothing world lt3lt3'
p81
aS'liked seven secrets bblessed lord john hagee good time nothing'
p82
ag3
ag3
aS'ndiyo gods good time lt3lt3'
p83
asS'2013_27'
p84
(lp85
g3
aS'walk'
p86
aS'foott better lord private doctor'
p87
aS'good sunday'
p88
aS'posted photo facebook'
p89
aS'friends world number phone good friend charles phone ready'
p90
ag3
aS'miss much lucky lt3lt3'
p91
aS'love shadda\xc3\xaf'
p92
aS'jeyster tell next studio kerry'
p93
aS'good moaning precious good friends blessed'
p94
aS'tobe thats'
p95
aS'amen'
p96
aS'true'
p97
aS'yeah charles mustis work proud bless projects guides'
p98
aS'good night sweet dreams good friends whole world protects guides month'
p99
aS'today need lord please come life want arms thank'
p100
aS'good night good friends lt3lt3'
p101
aS'thank welcome'
p102
asS'2013_20'
p103
(lp104
S'mmmmh yuuummy goodnight friends whole world lt3lt3'
p105
aS'please wrap arms around need lord lt3lt3'
p106
aS'thank lord giving heart living world'
p107
aS'great fighter army shadda\xc3\xaf ever winner bcoz jesus christs'
p108
ag3
aS'love lt3lt3'
p109
aS'prayer moanings prayer oclock'
p110
aS'thank lord every days uslt3lt3'
p111
aS'lt3lt3'
p112
aS'thank verses gave yesterday prayed heart tears isaiah'
p113
aS'remember every days every minutes life gave lt3lt3 lives haert'
p114
aS'1lt3'
p115
aS'thank'
p116
aS'thanks lt3lt3'
p117
aS'left bblessed'
p118
aS'thank much lt3lt3'
p119
ag3
aS'soldier lt3lt3'
p120
aS'lt3lt3'
p121
aS'yeah gods haert lt3lt3'
p122
aS'lt3lt3'
p123
ag3
ag3
ag3
aS'lord lt3lt3'
p124
aS'mbote papa jean marie wangu bless days love'
p125
aS'lt3lt3'
p126
aS'good moaning lovely geoge lt3lt3 youre heart ever lt3lt3'
p127
aS'moaning buruburu heart'
p128
aS'good morning lord welcome house happy every days mind moaning'
p129
aS'good moaning friends whole world protects bless lt3lt3'
p130
aS'good moaning pastor robert blessed blessed children lt3lt3 love'
p131
aS'sabalkhery blessed kenya bless people lt3lt3'
p132
aS'uganda'
p133
aS'thank lt3lt3'
p134
asS'2013_21'
p135
(lp136
S'blessed'
p137
aS'lt3lt3'
p138
aS'lt3lt3'
p139
aS'favorite verses'
p140
aS'lt3lt3'
p141
aS'woaw nice beautifull work'
p142
ag3
aS'asante sana release lord lt3lt3'
p143
aS'beautifull make silk black gold'
p144
aS'like look lakini trousers silklt3'
p145
asS'2013_22'
p146
(lp147
S'need lord thxs choise'
p148
aS'lt3lt3'
p149
aS'ndiyo smetimes'
p150
aS'thank cover nights blood jesus christ lt3lt3'
p151
aS'thank lord lt3lt3'
p152
aS'happyhappy friday good friends bless guides lt3lt3'
p153
aS'thank jesus christ time situations lt3lt3'
p154
aS'mmmmmwwwwoooouuuaaaaaaaahh youre heart ever bless lt3lt3'
p155
aS'moaning blessed george love much lt3lt3'
p156
aS'good moaning good friends whole world brings youve need life'
p157
aS'shoes waiting walk light ways lt3lt3'
p158
aS'ndiyo sometimes miss lucky lt3lt3'
p159
aS'listening jeyster moaning lt3lt3'
p160
aS'jesus christve suffering give health lord thank jeyster teach'
p161
aS'true lt3lt3'
p162
aS'lt3lt3'
p163
aS'prayer today dayslt3lt3 come life lord ampstay guides'
p164
aS'lord nights days lt3lt3'
p165
aS'success pappy bblessed'
p166
aS'good moning friends inthe whole world guides ways blessed'
p167
asS'2013_23'
p168
(lp169
S'good sunday blessed george heart\xe2\x99\xa5\xe2\x99\xa5'
p170
aS'nice picture oscar bless sunday'
p171
aS'lt3lt3 lt3lt3'
p172
aS'good night friends world thank cover king'
p173
aS'\xe2\x99\xaa\xe2\x99\xaa\xe2\x99\xaathank father done life'
p174
aS'thank lt3lt3'
p175
aS'listening want know love'
p176
aS'listening lucky moment miss'
p177
aS'good sleeping friends protects night lt3lt3 sleeping'
p178
aS'good moaning good friends wish blessed week guides week lt3lt3'
p179
asS'2012_26'
p180
(lp181
g3
asS'2012_25'
p182
(lp183
g3
aS'ndiyo annastacia youre familia kitale mungu akubariki sana'
p184
aS'tuff tape overstand 042013flv'
p185
aS'asante yesterday'
p186
ag3
ag3
asS'2012_24'
p187
(lp188
g3
aS'jeyster wangu watch video listen best friend lucky dube lt3lt3'
p189
ag3
aS'awww miss much lucky'
p190
aS'lt3lt3lt3 miss lucky wangu'
p191
aS'moja nyimbo zangu favoritelt3'
p192
aS'lt3lt3'
p193
aS'lt3lt3'
p194
aS'lt3lt3'
p195
aS'lt3lt3'
p196
ag3
ag3
aS'marley mode soul jazz'
p197
ag3
ag3
asS'2013_28'
p198
(lp199
S'plans chooises loves much'
p200
aS'interesting want know'
p201
aS'wish good friends wole world gives peace love friends'
p202
aS'like'
p203
aS'dont enemies disturb want pray'
p204
aS'good night good friends'
p205
aS'controls guides bcoz dont know today'
p206
aS'cake amazing'
p207
aS'need father help lord brings love happiness life haerts broken'
p208
asS'2013_29'
p209
(lp210
S'little lost moaning smart phone monday'
p211
aS'good moaning blessed friends world lt3lt3'
p212
aS'thanks children happy lord brings need theyr'
p213
aS'true love'
p214
aS'jeyster true good'
p215
ag3
aS'thank king princess forever lt3lt3'
p216
aS'mmoaning good sweet friends night lt3lt3'
p217
aS'come italy come truck kenya massa\xc3\xaf mara know jeyster'
p218
ag3
aS'white truck come italy'
p219
aS'country'
p220
aS'much trafic importexport today jeyster'
p221
aS'jesus christ loves lt3lt3'
p222
aS'posted photo facebook'
p223
asS'2012_21'
p224
(lp225
S'remain speechless photo talked yyyyeeeeaaaahhhhh sana nice picha'
p226
aS'amazing weight loss product worked didnt even change diet'
p227
aS'lose days'
p228
asS'2012_20'
p229
(lp230
S'soul rest peace friend adam people enjoy using name friends'
p231
aS'amazing weight loss product worked didnt even change diet'
p232
aS'yuummm good night friends'
p233
aS'like song title love respect'
p234
aS'like song title lt3love respect\xe2\x99\xa5'
p235
aS'loves mimi'
p236
aS'publi\xc3\xa9 nouvelle photo facebook'
p237
aS'publi\xc3\xa9 nouvelle photo facebook'
p238
aS'good night friends'
p239
asS'2013_4'
p240
(lp241
S'posted photo facebook'
p242
asS'2012_23'
p243
(lp244
S'peace respect voice people mkenyans kenya need lord hear song know'
p245
aS'peace respect voice people mkenyans kenya need lord hear song know'
p246
aS'nzuri kazi kerry lemmon jeyster wangult3 mungu akubariki kuleta mafanikio mengi'
p247
aS'thxs murphy love'
p248
ag3
ag3
asS'2013_9'
p249
(lp250
S'love nobody broken lt3lt3'
p251
asS'2012_22'
p252
(lp253
S'asante sana profesa james bless'
p254
aS'sweet reggae bless'
p255
aS'sweet reggae'
p256
aS'millan kerry ricky jeyster open door jahweh come lives'
p257
asS'2012_36'
p258
(lp259
S'much blessings familia nzima nanjero world'
p260
asS'2012_33'
p261
(lp262
S'lt3lt3lt3lt3lt3lt3lt3'
p263
aS'miss lucky'
p264
asS'2013_17'
p265
(lp266
S'trust viva sicilia lt3lt3'
p267
aS'lt3lt3 following'
p268
ag3
ag3
aS'love sleep musik sweet reggae musik musik piano without words playing'
p269
ag3
aS'merci aur\xc3\xa9lie lt3lt3'
p270
aS'miss 1lt3'
p271
aS'pappy wish successfull'
p272
aS'thank lord love much lt3lt3'
p273
aS'dont worry happy tututututututututututututututu mmmmmmmmmmmmmmmmmmmmmmm dont worry'
p274
aS'lt3lt3'
p275
aS'good moaning blessed people good friday loves lt3lt3'
p276
aS'hehe chick geoge bird singer collins lt3lt3'
p277
aS'shoes waitingwaitingwaiting'
p278
aS'miss lucky dube'
p279
aS'father papa jean marie mukadi kasadi'
p280
ag3
aS'nakupenda sana baby geoge loves lt3lt3'
p281
aS'happyness patience loves listening prayers maters times'
p282
aS'yeah stallone shwarzeneger jcvan dammegtone favorite actor martial arts blessed'
p283
aS'friends ways loves lt3lt3'
p284
aS'danger share friends'
p285
aS'nice yellow rose flower lt3lt3'
p286
asS'2012_16'
p287
(lp288
S'wish almy friend familia yangu buruburu kitale weekend chadda\xc3\xaf bless'
p289
aS'miss much'
p290
aS'lose week'
p291
ag3
aS'amazing weight loss product worked didnt even change diet'
p292
aS'lose days'
p293
aS'amazing weight loss product worked didnt even change diet'
p294
aS'lose week'
p295
aS'amazing weight loss product worked didnt even change diet'
p296
aS'amazing weight loss product worked didnt even change diet'
p297
aS'trim drops help weight drop'
p298
asS'2012_15'
p299
(lp300
S'amazing weight loss product worked didnt even change diet'
p301
aS'drop days'
p302
aS'found amazing lose weight increase energy read article'
p303
aS'found amazing lose weight increase energy read article'
p304
aS'amazing weight loss product worked didnt even change diet'
p305
aS'lose days'
p306
aS'amazing weight loss product worked didnt even change diet'
p307
aS'fastest lose weight removing toxins boost energy levels'
p308
asS'2012_13'
p309
(lp310
S'sweet super reggaeman habari gani'
p311
aS'kaboom bless'
p312
asS'2012_50'
p313
(lp314
S'much blessings'
p315
aS'thxs guides today ever feel desert alone since night'
p316
aS'thxs guides today ever feel desert alone since night'
p317
aS'ndiyo love'
p318
asS'2012_18'
p319
(lp320
S'sizzlagood morning'
p321
asS'2012_19'
p322
(lp323
S'blessed ricky marafiki wote'
p324
ag3
aS'remember diamond wangu'
p325
ag3
aS'cedrick habari gani longtime like song loves wewe'
p326
asS'2013_37'
p327
(lp328
g3
ag3
aS'lt3lt3'
p329
aS'knows want faith last minutes lord save faith'
p330
aS'sawa trust loves'
p331
aS'really true'
p332
aS'ninakileta chakula asubuhi kahawa moto chai'
p333
aS'sabalkheri rafiki yangu'
p334
aS'happy friday good friends smiling'
p335
aS'viva kenya studio sessionmp4'
p336
aS'good moaning blessed friends protects guides blessed'
p337
aS'father done life'
p338
aS'bless ricky guides projects bblessed'
p339
aS'miss'
p340
ag3
asS'2013_36'
p341
(lp342
S'good moaning friends good week guides plans uslt3'
p343
ag3
ag3
aS'lemmon longtime dont listen habari gani mungu akubariki sana bblessed'
p344
aS'miss much lucky'
p345
aS'yeaahhh dont worry happy tutu tutututututuuu tutu tutuuu dont worry'
p346
aS'ampi love ever'
p347
aS'posted photo facebook'
p348
aS'omoni'
p349
aS'proud christian'
p350
aS'need lord'
p351
aS'moaning friend'
p352
aS'sawai love'
p353
ag3
aS'prayers moaning love lord'
p354
asS'2013_35'
p355
(lp356
S'nice picha ricky kerry bless guides projects bblessed'
p357
asS'2013_34'
p358
(lp359
S'posted photo facebook'
p360
aS'posted photo facebook'
p361
aS'posted photo facebook'
p362
aS'posted photo facebook'
p363
aS'posted photo facebook'
p364
aS'posted photo facebook'
p365
aS'posted photo facebook'
p366
aS'posted photo facebook'
p367
aS'posted photo facebook'
p368
aS'posted photo facebook'
p369
aS'posted photo facebook'
p370
aS'posted photo facebook'
p371
aS'posted photo facebook'
p372
aS'posted photo facebook'
p373
aS'posted photo facebook'
p374
aS'posted photo facebook'
p375
aS'concert'
p376
ag3
ag3
aS'ndiyo praise every every moments lord song'
p377
ag3
asS'2013_15'
p378
(lp379
S'1lt3'
p380
aS'thank prophet bblessed'
p381
aS'especially sentence ltlt money cant gtgt'
p382
aS'true'
p383
asS'2013_14'
p384
(lp385
S'lt3lt3lt3lt3lt3lt3'
p386
aS'thank jahweh 1lt3'
p387
aS'thats true'
p388
aS'kweli'
p389
aS'woooww'
p390
aS'every moaning baby georges lovely toto love lots'
p391
aS'love sweet reggae lt3lt3'
p392
aS'protects'
p393
aS'blood diamond'
p394
aS'protects'
p395
aS'good moaning blessed friends guides ways today lt3lt3'
p396
aS'great fighters army shadda\xc3\xaf'
p397
aS'love familia wangu lt3lt3'
p398
aS'lt3lt3'
p399
aS'need jesus need come heart body mine galatians lt3lt3'
p400
aS'comment close lt3lt3'
p401
ag3
aS'finish calls'
p402
aS'thank give haert know thank choose ever love'
p403
aS'thank'
p404
asS'2013_31'
p405
(lp406
S'jeyster'
p407
aS'good moaning bless month august give lord love peace'
p408
aS'life lord'
p409
aS'yeah lt3lt3'
p410
aS'come lord need'
p411
aS'trust lord'
p412
asS'2013_30'
p413
(lp414
S'never forget okach wherere bless guides ways'
p415
aS'good good friends jesus christ'
p416
asS'2013_19'
p417
(lp418
g3
aS'good moaning friends bless guides week'
p419
aS'true lt3lt3 thank jesus christ plans done'
p420
aS'true lt3lt3 thank alls plans done lt3lt3'
p421
asS'2013_18'
p422
(lp423
S'thnk'
p424
aS'posted photo facebook'
p425
aS'thinking'
p426
aS'give help people'
p427
aS'lynda lt3lt3'
p428
aS'waiting help bblessedlt3'
p429
ag3
aS'budie share 1lt3'
p430
aS'album must artistes afrikans congoleses aaaaahhh za\xc3\xafre miss ult3lt3'
p431
aS'franco miss lt3lt3'
p432
aS'papa wemba koffi olomid\xc3\xa9'
p433
aS'must artistes congolese'
p434
ag3
aS'need jesus strenght arms lt3lt3'
p435
aS'come jesus christ lakini place haert ever'
p436
aS'love lt3lt3'
p437
aS'tell wath unblocked jeyster wangu'
p438
aS'lt3lt3'
p439
asS'2013_16'
p440
(lp441
S'love house family aindera rocco geoge children kitale thxs lord'
p442
aS'jeyster masa\xc3\xaf mara'
p443
aS'lt3lt3'
p444
aS'blessed'
p445
aS'alll possible lt3lt3'
p446
aS'moaning friends family'
p447
aS'ever'
p448
aS'matatu'
p449
aS'miss lucky lt3lt3 pitchou nice picture bblessed'
p450
asS'2012_37'
p451
(lp452
g3
aS'friends send poke filled blessings good night hands upon protects'
p453
ag3
aS'hahaha good'
p454
aS'recognized tribe could champion athletics'
p455
aS'love baby georges youre blessing gave lt3lt3'
p456
ag3
aS'friends'
p457
asS'2012_31'
p458
(lp459
S'bless'
p460
aS'welcome house lt3lt3'
p461
aS'kenya national olympic committee kenya national olympic committee'
p462
asS'2013_39'
p463
(lp464
S'ndiyo true'
p465
aS'sometimes woman understanding else understands work'
p466
aS'believe lt3lt3'
p467
asS'2013_38'
p468
(lp469
g3
aS'good sunday blessed friends listening prayers bless'
p470
aS'thank walking nights days'
p471
aS'posted photo facebook'
p472
aS'truemiss'
p473
aS'posted photo facebook'
p474
aS'posted photo facebook'
p475
aS'posted photo facebook'
p476
aS'posted photo facebook'
p477
aS'whers na\xc3\xafrobi'
p478
aS'whers na\xc3\xafrobi'
p479
aS'beauty came pure haert'
p480
aS'miss blessed children blessed family'
p481
aS'miss baby protects guides life'
p482
aS'ndiyo'
p483
ag3
ag3
aS'need godcome buruburu help give theyve need bless'
p484
aS'asante sana kijana love words bblessed'
p485
aS'good moaning blessed friends open bible read lord message today dont'
p486
asS'2013_13'
p487
(lp488
S'love buruburu'
p489
asS'2012_34'
p490
(lp491
S'tired night friends protects night'
p492
ag3
ag3
ag3
aS'lt3lt3'
p493
aS'miss'
p494
aS'lucky dube born ermelo dube pronounced south africas bestselling artists'
p495
aS'seigneur trouve avec gu\xc3\xa9rison bless yoult3'
p496
aS'true'
p497
asS'2012_38'
p498
(lp499
S'emotional touchy performance factor emmanuel'
p500
aS'posted photo facebook'
p501
aS'ragazzi miei andiamo shower subito presto'
p502
aS'lt3lt3'
p503
aS'buongiorno tutti lt3lt3'
p504
ag3
ag3
ag3
aS'lt3lt3'
p505
aS'wouhhhh lt3lt3'
p506
aS'wouhhh lt3lt3'
p507
aS'lt3lt3'
p508
ag3
ag3
aS'loves'
p509
asS'2012_39'
p510
(lp511
S'search work company french stableshed kenya'
p512
aS'tine tous besoin davoir \xc3\xa9paule solide pour pouvoir mettre sentir prot\xc3\xa9g\xc3\xa9e'
p513
aS'trying different things hope succeed'
p514
aS'dont know wholl tell words maybe'
p515
aS'good morning people bless'
p516
aS'respect'
p517
ag3
aS'lucky dube together reggaeriddimbox'
p518
aS'good moaning friends whish much blessings yahweh week'
p519
aS'like atmosphere street especially grandpa elliott'
p520
aS'like ambience street blessed'
p521
aS'miss michael'
p522
aS'sweet reggae'
p523
aS'cocoa tune'
p524
aS'1lt3 miss'
p525
as.