(dp0
S'2013_42'
p1
(lp2
S'good luck'
p3
asS'2013_40'
p4
(lp5
S'british drsworking syria devastating impact children film youtube'
p6
asS'2013_41'
p7
(lp8
S'anyone replaced esther mcvey disability minister another sign unimportant role gove\xe2\x80\xa6'
p9
aS'massive respect epic trip fantastic role model younger wheelchair users'
p10
asS'2013_46'
p11
(lp12
S'letter police officer gratitude'
p13
aS'watching christmasinaday unfold truly immense spreadsheet hero'
p14
asS'2013_47'
p15
(lp16
S'thank ladies choir'
p17
asS'2013_44'
p18
(lp19
S'watching supermarket secrets incredibly proud work'
p20
asS'2013_45'
p21
(lp22
S'well done inclusive'
p23
asS'2012_45'
p24
(lp25
S'favourite political wife ever didnt vote busy work husband lost vote'
p26
aS'truly amazing speech obama goosebumps'
p27
asS'2012_46'
p28
(lp29
S'half term courses great children produced brilliant work highlights'
p30
aS'launch inquiry effectiveness legislation relating transport disabled peopl'
p31
asS'2012_41'
p32
(lp33
S'astonishing report inside bloodstained hospital aleppo news'
p34
aS'working naan five dolly parton topofthepoppadoms'
p35
asS'2012_42'
p36
(lp37
S'twitter made brief video attack saturday night please please share around'
p38
asS'2012_27'
p39
(lp40
S'sainsburys little next door neighbour mates makes weepy'
p41
aS'fingers crossed royal brompton today closing specialist paeds services would terrible families rely sosbrompton'
p42
asS'2012_26'
p43
(lp44
S'hope catch soon maybe jims leaving'
p45
aS'laila sweeet lovely grauniad yesterday'
p46
aS'john terry spotted camera joining spanish celebrations euro2012'
p47
asS'2012_25'
p48
(lp49
S'twenty twenty commissioned produce gareth malone series sing work'
p50
asS'2012_24'
p51
(lp52
S'argyll bute council statement school dinners blog example'
p53
asS'2012_22'
p54
(lp55
S'sainsbury\xe2\x80\x99s celebrates colleagues carers trip lifetime part jubilee pageant'
p56
aS'carers work sainsburys boat pageant thank amazing efforts work'
p57
asS'2012_21'
p58
(lp59
S'lord lamont muttering idiot gibe think human pretty irritating person'
p60
aS'always brilliant dont laugh well maybe chuckle'
p61
asS'2012_48'
p62
(lp63
S'justin king supporting colleagues carers good business sense carersrightsday'
p64
asS'2013_4'
p65
(lp66
S'check story welshsharkwrestler paul star untoldstories'
p67
asS'2013_6'
p68
(lp69
S'case missed weeks work experience march working apply'
p70
asS'2013_3'
p71
(lp72
S'leaving inimitable c4news team mean brill grabs'
p73
asS'2013_9'
p74
(lp75
S'need guide disabled childs legal rights read cdcs disabled children legal handbook'
p76
asS'2013_8'
p77
(lp78
S'know aspiring disabled journalists guardian positive action scheme disability'
p79
asS'2012_8'
p80
(lp81
S'also winners c4news jamal osman mogadishus olympic hopefuls richly deserved'
p82
aS'hugest congratulations stuart webb c4news cameraman year filmed tsunami coverage misuratam'
p83
aS'avoidance doubt sainsburys pulled work experience scheme never'
p84
asS'2012_20'
p85
(lp86
S'shame gove moving right direction disability reforms making many wrong moves benefits'
p87
asS'2012_2'
p88
(lp89
S'good thanks hope manchester'
p90
aS'truth iphone game changer still number digital dude'
p91
aS'hellooo twitter thanks'
p92
asS'2012_3'
p93
(lp94
S'classic'
p95
asS'2012_14'
p96
(lp97
S'says doesnt want cramping style heartbreaker fives'
p98
aS'school hols back 17th text dates'
p99
aS'come back boys much quieter less humour without lone jester'
p100
aS'missing muchly love pics shall lunch soon'
p101
asS'2012_12'
p102
(lp103
S'john bishop legend sportrelief'
p104
asS'2012_52'
p105
(lp106
S'wimbledon theatre popped head round disabled door cripples door marked moron'
p107
aS'thanks hope good christmas'
p108
aS'tickets fulham saints game today meet front craven cottage'
p109
asS'2012_50'
p110
(lp111
S'women priests able marry church unless bishop agrees'
p112
asS'2012_51'
p113
(lp114
S'ferguson beckham bruise cantona slight overreaction keane haaland innocent mistake williams'
p115
asS'2012_18'
p116
(lp117
S'application soon itvnewstrainee open weeks'
p118
aS'come know chuckled'
p119
aS'need help'
p120
aS'krishnan'
p121
aS'orangutans look like london mayor boris johnson'
p122
asS'2013_10'
p123
(lp124
S'gwyn burr sainsbury words wisdom encouragement breakfast guildhall great role model'
p125
aS'customer advocate always paint smile face customerservice'
p126
aS'moving speech wendy turner webster gwyn burr sainsbury talking amazing'
p127
asS'2013_35'
p128
(lp129
S'lost much loved grey rabbit either upper essex thurs sooo grateful anyone\xe2\x80\xa6'
p130
aS'news handling 50th anniversary march washington'
p131
asS'2013_34'
p132
(lp133
S'great meeting today discussing possible future collaborations smaresearch smasupport'
p134
aS'we\xe2\x80\x99re campaigning parents disabled children rights support carers'
p135
asS'2013_33'
p136
(lp137
S'condolences especially mick deanes family pressfreedom'
p138
asS'2013_32'
p139
(lp140
S'ambassador welcomed distribution care packages pictured anglobongan economic assistance continues'
p141
asS'2013_31'
p142
(lp143
S'makes think young disabled indeed realinspirat\xe2\x80\xa6'
p144
asS'2012_34'
p145
(lp146
S'music gives disabled voice'
p147
aS'definitely great time hope ecosse rainy text back'
p148
aS'fine thanks definitely time another catch'
p149
aS'husband decided stuck killing boxset distract cabin fever postop child heat notlighteningthemood'
p150
aS'royal brompton named hospitals strong enough brand reputation centres overseas'
p151
aS''
p152
asS'2012_35'
p153
(lp154
S'guest blog childrens heart surgery review lansley must give answers serious questions asked'
p155
asS'2012_36'
p156
(lp157
S'jayz always live shadow brother author bestselling \xe2\x80\x98london\xe2\x80\x99'
p158
asS'2012_37'
p159
(lp160
S'ready great river race raise research funds spinalmuscularatrophy wish'
p161
aS'running 2moro would like sponsor visit giving page'
p162
aS'please come visit tomorrow sainsburys warrington raising funds'
p163
asS'2012_30'
p164
(lp165
S'keep tweeting thanks today amazing cakes'
p166
aS'theres even fart joke british'
p167
aS'phenomenal danny boyle proud london london2012 olympicceremony'
p168
aS'koreas like knew holyshet'
p169
asS'2012_31'
p170
(lp171
S'missing since friday shes partners niece thank'
p172
aS'britain cheering somalian immigrant mixed raced woman aidan burleys multicultural crap'
p173
aS'amazing piece syria tonight among finest foreign corrs calm unflashy unsentimental humane'
p174
asS'2012_33'
p175
(lp176
S'winnie johnson died without ever found keith lovely lady amazing determination interviewing always humbling'
p177
aS'lord morris disability campaigner years cant added lives disabled least life could'
p178
asS'2012_7'
p179
(lp180
S'thats brilliant good luck'
p181
asS'2012_38'
p182
(lp183
S'attended spinal muscular atrophy event hosted support'
p184
as.