(dp0
S'2011_44'
p1
(lp2
S'long isnt forum rules'
p3
aS'must inactive tweeter actually shit maybe write book'
p4
aS'according mantra antiracist codeword antiwhite'
p5
aS'found hidden wiki youtube search underfiveminute vids easy'
p6
aS'call fanbase creepy would sonic tgwtg final fantasy need answers people'
p7
aS'joss whedon patron living saint tropes knows'
p8
aS'fight cripple would turns wins cripple goes kamikaze falls'
p9
aS'regain legs gonna learn badass'
p10
aS'want friend'
p11
aS'torn cartlidge knee burning insecurity'
p12
asS'2012_17'
p13
(lp14
S'especially expressions rage'
p15
aS'window'
p16
aS'bang girlfriends head'
p17
aS'shave bitches extra marks originality'
p18
aS'babes watch theres chris brown prowling streets looking perform beatings'
p19
aS'transform mauling worse beating'
p20
asS'2012_14'
p21
(lp22
S'strange year diagnosed ptsd'
p23
asS'2011_52'
p24
(lp25
S'found music thanks facebooks infinte wisdom enjoying work immensly'
p26
asS'2011_51'
p27
(lp28
S'looks like cartels still havent cowards'
p29
aS'guess body gave christmas present allowing walk upon'
p30
asS'2011_50'
p31
(lp32
S'slender mythos blog'
p33
aS'steam cruel'
p34
asS'2011_48'
p35
(lp36
S'gaming'
p37
aS'whoop follower'
p38
asS'2011_46'
p39
(lp40
S'okay mexican drug cartels youre oversensitive fucks criminal dickheads denouce come find dick kill'
p41
asS'2012_18'
p42
(lp43
S'dont mean fuckin faces'
p44
asS'2012_1'
p45
(lp46
S'restarted ways despite twenty pressups every morning'
p47
aS'welcome brah'
p48
asS'2011_45'
p49
(lp50
S'getting point twitter supposed feel lonely'
p51
asS'2012_4'
p52
(lp53
S'twisted last night degrees clockwise agony bite hand twisted back stiff locks'
p54
aS'okay coughing hours hurts chest breath'
p55
aS'coughing cough causing quite pain sharp pain side also struggling things'
p56
asS'2012_5'
p57
(lp58
S'rocky patch'
p59
aS'fucking followed porn shit'
p60
asS'2012_6'
p61
(lp62
S'hurts breath stand'
p63
asS'2012_23'
p64
(lp65
S'listen real quick giving free applebees giftcards site mine'
p66
asS'2012_22'
p67
(lp68
S'believe tell good worked click ilnk'
p69
aS'know appreciate joke'
p70
asS'2012_21'
p71
(lp72
S'great idea working already'
p73
aS'cant even imagine seeing happen'
p74
aS'thought would want view link'
p75
aS'woman really'
p76
as.