(dp0
S'2013_14'
p1
(lp2
S'shmexy'
p3
asS'2013_30'
p4
(lp5
S''
p6
aS'true life addicted boybands'
p7
aS'theyre boyband'
p8
aS'neither theyre cute funny'
p9
aS'sound like hood bless'
p10
aS'laughing'
p11
aS'michael favorite 5sos'
p12
aS'tweet celebrities fuck'
p13
aS'seattle'
p14
ag6
ag6
aS'meant ally fuck'
p15
aS'lets something funny always gone'
p16
aS'shutup'
p17
aS'gurl'
p18
aS'darlin'
p19
aS'obvs ships something right'
p20
aS'guess fucking limit'
p21
asS'2013_8'
p22
(lp23
S'livid right youre sleeping couch tonight'
p24
aS'minutes limit'
p25
aS'make back'
p26
aS'twitter grade bullshit'
p27
ag6
aS'silent screaming right'
p28
aS'gawg'
p29
aS'fucking done'
p30
aS'fucking kidding back fucking minutes limit'
p31
aS'luff'
p32
aS'ally'
p33
aS'wonder limit'
p34
aS'tiredtho'
p35
aS'listen little punk bitch sheeran time drop ipod glass water'
p36
ag6
aS'miss'
p37
aS'probably sleep maxfield doesnt think transferring crack whore'
p38
aS'like jaysus imagined'
p39
aS'read voice holy hell laughing hard'
p40
aS'whenever wear sweats anything isnt jeans couple days wear jeans always walk funny like'
p41
aS'rolllll tonight daniel'
p42
aS'want'
p43
aS'legit stared nose like minutes busted laughing like grandma peirce nose'
p44
aS'want tongue pierced'
p45
aS'said always wanted done bought stud claires closed decided'
p46
aS'thing stopped deep tweet'
p47
aS'shes years dont need piercings'
p48
aS'omfg jeans comfy back like grade wore skirts despised jeans whats quicker'
p49
aS'understand hard correct youre daniel'
p50
aS'remember'
p51
aS'shes like anti girly lifes vicariously putting dainty clothing wanna wear jeans'
p52
aS'grandmas dumb'
p53
ag6
aS'wish think even knows straighter'
p54
aS'last night'
p55
aS'aint rejecting desperate date even youre like three years older sound like'
p56
aS'mine done professionally thirty bucks eats hair really great'
p57
aS'guys seriously grandma aint pussy shoved nose stud nose times last night sober'
p58
aS'always mean'
p59
aS'come hair'
p60
aS'gonna pierce mine noooo said might herpes thats even possible'
p61
ag6
aS'like four different holes nose didnt like'
p62
aS'forgot tell everyone grandma pierced nose'
p63
aS'wanna nose hips pierced already first like tattoos picked'
p64
aS'goddamn pretty smart funny dont boyfriend'
p65
aS'damn rice'
p66
aS'sorry'
p67
aS'back niggas ipod died'
p68
ag6
aS'hate boobs impossible find shirt justify girls femalepains'
p69
aS'think sleep whisking away good judgement tropical island leaving shame alot embarrassing stories'
p70
aS'hush'
p71
aS'fandom twitter different personal twitter'
p72
aS'fandom thing everyone partake followfriday'
p73
aS'tweet limit nights hour hashtag struggle'
p74
aS'dumb'
p75
aS'prindl'
p76
aS'really need limit facebook post every half hour'
p77
aS'cant believe limit shit together twitter'
p78
aS'tweet limit'
p79
aS'fact'
p80
aS'drafts account pretty great though'
p81
aS'sometimes daniel tries make feel better yell'
p82
aS'touch wouldnt work asked happend told'
p83
aS'million actually'
p84
aS'kellin quinn austin carlile jack barakat dream'
p85
aS'applys dropping onto cement apparently thats happened'
p86
aS'plastic surgeon mock sketch sometime'
p87
aS'fuck possible tweet refresh limit like kidding'
p88
aS'people cant prevent earthquakes japense couldnt fuck apple'
p89
aS'know'
p90
aS'mmhm million dollars took face reconstructed sloth payed getting laid everynight'
p91
aS'twitter larry twitter forgot password cause smart'
p92
aS'fuck'
p93
asS'2013_11'
p94
(lp95
S'since'
p96
aS'staying till ipod dies'
p97
aS'fixed'
p98
aS'elijah since youre sloths sweater'
p99
aS'cats better sloths'
p100
aS'going cats face'
p101
aS'youre idiot'
p102
aS'guys many sloth pictures makes'
p103
aS'either face carlis sloths please thank'
p104
aS'cutting carli oopps'
p105
aS'took hannah maybe missy photo maybe deleted'
p106
aS'words pain'
p107
aS'elijah never told still selfie disappointed wanted'
p108
aS'lost orange juice'
p109
aS'night earring fell literally left punch holes stabbed back slept'
p110
aS'still wants nuts dont worry'
p111
aS'sloth demons taken dont worry pray praying hands emoji'
p112
aS'sorry'
p113
aS'mariah found going tolo together came yelled called backstabbing bitch hilarious'
p114
ag6
aS'whyd want nuts poke lead friendship blame'
p115
aS'daniel'
p116
aS'stahl'
p117
ag6
aS'know reason mariah posse hate'
p118
aS'iwant know boys name'
p119
ag6
aS'take good pictures'
p120
aS'remember nariah went mazitlan tolo dinner best part still invisible'
p121
aS'deal everyday done another sloth personally kill every'
p122
aS'jaysus'
p123
aS'nice couldnt resist'
p124
aS'guys planning intervention shall call slothervention invited'
p125
aS'another question many sloth pictures'
p126
aS'chances iphone touch take pictures'
p127
aS'still selfies took phone delete whore'
p128
aS'doesnt touch phone taking random guys biceps'
p129
aS'like probably'
p130
aS'immense amount feels friends'
p131
aS'guys'
p132
aS'looks like belongs beatles laughing'
p133
aS'hate sometimes dont worry'
p134
aS'spread love except stds keep shit urself'
p135
aS'love people mean make horrible friend answer'
p136
aS'reference'
p137
aS'screeching thats right daniel sydney yell spreading loves'
p138
aS'bestie touches mellophone inappropriately band isnt cool'
p139
aS'prefer horn make dirty jokes good'
p140
aS'sydney went places would invite'
p141
aS'dont know emma sydney daniel yeah love guys'
p142
aS'swear touch horn time beating cold scares shit'
p143
aS'love much shall gigantic love fest sunday'
p144
aS'ally always bffl'
p145
aS'stop sending sloths theyre slowing becoming adorable'
p146
aS'basically thats people like ends except like'
p147
aS'rena sister basically could ever replace doesnt twitter feel leaving'
p148
aS'luffff'
p149
aS'missy missy love'
p150
aS'dumbass snuck best friend'
p151
aS'daniel funny love much fangirl relate panic attacks people likes'
p152
aS'wanna fight'
p153
aS'fucking love ally goddamn much'
p154
aS'emma stunning hilarious best cheering'
p155
aS'think sydneys really fucking gorgeous great personality'
p156
aS'guys completely ignored picture'
p157
aS'literally type juice'
p158
aS'thank'
p159
aS'slightly disappointed didnt kinda wanted orange juice'
p160
aS'made'
p161
aS'hush face'
p162
aS'sneak downstairs orange juice hard decision decision caught make free nariah shirts'
p163
aS'yerp'
p164
aS'still hoboing walmart last week'
p165
aS'bitch dick bomb'
p166
aS'tyler never came steroids goat little fucker'
p167
aS'dick bomb'
p168
aS'dont think boys pretty theres chance youre lying yourseld'
p169
aS'emma seems completely inappropriate illegal would like'
p170
aS'make grammar errors make quote story life'
p171
aS'pussies'
p172
aS'danielllll crushing someone'
p173
aS'sins toetotoe ohohoh'
p174
ag6
ag6
aS'literally cant days without getting limit'
p175
aS'make back back back'
p176
aS'limit least times week'
p177
aS'basically daily occurrence'
p178
aS'yall really obnoxious real life expect talk alot sunday'
p179
aS'tweet limit'
p180
aS'already tweet times shit like stop tweets hour'
p181
asS'2013_10'
p182
(lp183
S'mentionyourfavoritefollower nariah also tyler'
p184
aS'coughcoughbitchcoughcough'
p185
aS'pussywhipped'
p186
aS'wanna ride face like fucking horse'
p187
aS'thats right sorry'
p188
aS'emma want ride face like fucking horse good gets goats'
p189
aS'dont dafuq tyler'
p190
aS'oops meant feeling'
p191
aS'asked fuck niall horan bitch decides wanna fuck excuse'
p192
aS'youre ever felling shitty remember zayn malik prettier promptly corner'
p193
aS'halogens used pools'
p194
aS'please fuck niall horan'
p195
aS'pray emma'
p196
ag6
aS'overdosed gummy vitamins'
p197
aS'would prefer touch penis daniel'
p198
aS'hope twink slaps purse'
p199
aS'gettin steroids fuckers drug dealer'
p200
aS'excuse miss vagina releasing rather fowl odor'
p201
aS'pink like twink'
p202
aS'idfk sell drugs'
p203
aS'think'
p204
aS'dusk'
p205
aS'cummin'
p206
aS'quarter till dusk drugs half'
p207
aS'name jesus right'
p208
aS'waiting'
p209
aS'penises vaginas actually really fucking creepy gross looking'
p210
aS'actually louis hottie'
p211
aS'close doesnt know name'
p212
aS'dusk sale steroids dusk'
p213
aS'emma'
p214
aS'name dipwad'
p215
aS'hottie'
p216
aS'emma louisandharry favorite people'
p217
aS'jesus answer'
p218
aS'tyler louis'
p219
aS'twitter shit head'
p220
aS'would louis tomlinson fuck'
p221
aS'tyler doesnt follow twitter indirectin doesnt work'
p222
aS'good came afterward'
p223
aS'exactly emma'
p224
aS'damn fine could take equality vacation anytime'
p225
aS'sorry sydney'
p226
aS'like jackemiahlarry shit like'
p227
aS'dont worry daniel tights fire time wearing'
p228
aS'cops dont know'
p229
aS'holy shit laughing emma'
p230
aS'still love'
p231
aS'dont worry sydney almost threw describe apparently like jack rabbit'
p232
aS'theyre periodic table'
p233
aS'hope daniels penis gets caught zipper jeans'
p234
aS'halogens sounds like drug'
p235
aS'dont worry emma limit already'
p236
aS'sydney ruin romantic tweet'
p237
aS'grandma still night stands disgusting'
p238
aS'nigga'
p239
aS'emmas limit'
p240
aS'dusk high'
p241
aS'damn straight'
p242
aS'actually wouldnt know sucks'
p243
aS'course emma'
p244
aS'sucks suck dick'
p245
aS'since today apparently'
p246
aS'meet behind walmart dusk drugs'
p247
aS'aint show proud'
p248
aS'lucky shit arent'
p249
aS'tyler could hook steroids'
p250
aS'know everyone wants fuck'
p251
aS'emma wants fuck'
p252
aS'fuck daniel'
p253
aS'thats emma'
p254
aS'engima'
p255
aS'oops meant bitch'
p256
aS'thats right bith'
p257
aS'thats saying emma'
p258
aS'emma says always walmart would know thats right shes walmart time'
p259
aS'guys know named favorite pornstar'
p260
aS'could hook goat dealer sells cocaine side also pornstar'
p261
aS'thing found behind walmart gang almost mugged goat'
p262
aS'time started period behind walmart fucking goat sellin drugs'
p263
aS'sell drugs behind walmart goat dick daniel'
p264
aS'nariah always walmart'
p265
aS'fuck millions goats lining'
p266
aS'found willing goat behind walmart thank much'
p267
aS'whose dafuq find willing goat fuck'
p268
aS'usually find nariah'
p269
aS'usually looked like hood dont emma'
p270
aS'shit wants suppose sent'
p271
aS'time fucked goat'
p272
aS'shit emma'
p273
aS'lungs everyone stfu'
p274
aS'uterus therefore superior'
p275
aS'started period already ready done jesus need lose much blood'
p276
aS'rather penis much thing'
p277
aS'people'
p278
aS'even spotting fucking waterfall vagina month'
p279
aS'everyone vagina proven otherwise'
p280
aS'could actually unless youve seen penis know vagina'
p281
aS'maybe meds oops'
p282
aS'actually talking back song'
p283
aS'yeah bitch'
p284
aS'lucifer call dibs emma'
p285
aS'actually harry dont squeeze jeans right size'
p286
aS'fight therell need punching vaginal stabbings'
p287
aS'hate coffee'
p288
aS'everyone subtweeting cringing cuppycake listening direction sheeran threatening emma'
p289
aS'meant'
p290
aS'mind fucking weird messed people think'
p291
aS'weird find guys making stop rude'
p292
aS'sometimes wanna chop limbs'
p293
aS'dont cunt'
p294
aS'make fingers upset emma fucking time swear fucking jesus christ'
p295
aS'honestly dont think could relationship fucking bipolar feelings'
p296
aS'love single homies'
p297
aS'indirecting everyone calls subtweet indirect'
p298
aS'fact voice motherfucking breaks live version homeless makes want claw eyes'
p299
aS'havent sept past week hours aint enough'
p300
aS'sheerans music escape oops'
p301
aS'really fucking love sheeran wanna really fucking love'
p302
aS'pussypussypussy marijuannnnaaaaa'
p303
aS'bitch dick bomb'
p304
aS'still wanna make jesse mccartney oops sorrynotsorry'
p305
aS'whore'
p306
aS'tweet limit fucking much'
p307
aS'fuck tweet limit'
p308
asS'2013_12'
p309
(lp310
S'sigh knew coming'
p311
asS'2013_15'
p312
(lp313
g6
aS'like minutes internet goes letting know alive'
p314
aS'need talk someone cant'
p315
aS'message'
p316
aS'nope need cant'
p317
aS'feel like never enough people'
p318
aS'guys make good friends'
p319
aS'sometimes gets much'
p320
aS'\xf0\x9f\x98\xadthere tears youre great friend'
p321
aS'need'
p322
aS'kind hate thought living also hate thought dying leaves anxious'
p323
aS'hallelujah'
p324
aS'prefer pornstar'
p325
aS'saved allys phone'
p326
aS'buddy'
p327
aS'simply pornstar'
p328
aS'damn nariah really shes best'
p329
aS'emmas saved phone harry bottoms friends long story'
p330
aS'butthead need talk literally come likes likes'
p331
aS'sweet elijah marie'
p332
aS'nariahs phone nariah engleberthumperdink idek'
p333
aS'phones work hardly ever number 3605912551'
p334
aS'purpose need laugh'
p335
aS'thought went havent facebook need talk'
p336
aS'head game plays softly background'
p337
ag6
aS'falling apart need someone hold together'
p338
aS'feel like fest gonna happen sleep extremely'
p339
aS'make happy dont group misfits yeah happiest love gets'
p340
aS'heart hurts guys could take away pain keep would'
p341
aS'reason havent smoked drank dont think could stop started'
p342
aS'tell later'
p343
aS'going first much personal thats something emma half knows'
p344
aS'painful conversation ever'
p345
aS'wheres scars burning doesnt leave scars know youre lying'
p346
aS'fucking happy friends like guys'
p347
aS'think relieved chest'
p348
aS'getting harder keep smile plastered face jokes coming'
p349
aS'always talk matter people tell dont feel beautiful think annoying funny'
p350
aS'literally cant believe lucky guys even friends'
p351
aS'know'
p352
aS'confessionnight done shit proud'
p353
aS'think going throw'
p354
aS'confessionnight literally panic attack even tiny friendly dont know'
p355
aS'confessionnight literally cant bring trust older males moms childhood'
p356
aS'love'
p357
aS'confessionnight gonna really fucking matter'
p358
aS'sydney ever need talk dont care time chances awake'
p359
aS'confessionnight clue life'
p360
aS'confessionnight time thought eating makes feel sick'
p361
aS'confessionnight bite tongue alot cant handle moms rants'
p362
aS'confessionnight never thought depressed girl sees counselor week cope things'
p363
aS'confessionnight havent seen like weeks think thats wonky'
p364
aS'confessionnight last point month ally gone lost'
p365
aS'confessionnight refuse meds dont want even numb'
p366
aS'saying something sure annoy hell mean absolute world'
p367
aS'dont ever second think youre last choice goddamnit ally youre sister lorena thats'
p368
aS'confessionnight honestly dont think alive werent ally emma'
p369
aS'youre mine'
p370
aS'confessionnight could take away friends depression hurt pain heartbeat none deserve'
p371
aS'confessionnight ever open anyone'
p372
aS'really fucking love'
p373
aS'sobbing love daniel'
p374
aS'confessionnight diagnosed manic depression months dont know handle'
p375
aS'confessionnight almost months fucking proud'
p376
aS'confessionnight think slowly falling apart seams dont think keep together much longer'
p377
aS'confessionnight havent really really long time'
p378
aS'confessionnight dont think really know feel anymore numbness'
p379
aS'confessionnight hate people worry'
p380
aS'confessionnight fucking thankful guys dont feel like express enough'
p381
aS'confessionnight last time felt truly happy went dinner together first time months'
p382
aS'confessionnight grandpa died back 2010 shut feelings completely'
p383
aS'confessionnight people always tell strong reality probably weakest person know'
p384
aS'confessionnight convinced deserve heartache shit'
p385
aS'confessionnight dont really feel anything numb time thats deal everything'
p386
aS'confessionnight like three notebooks full page letters life suicide letters read sometime'
p387
aS'confessionnight really hard people scared left behind'
p388
aS'sick emotionally drained'
p389
aS'confessionnight dont want friends ever feel like thats always tell people love'
p390
aS'confessionnight friend always back matter much fucked screwed'
p391
aS'confessionnight come really confident outgoing like really insecure'
p392
aS'confessionnight really pissed disney land like still beating'
p393
aS'really'
p394
aS'confessionnight sometimes wish first kiss wasnt could normal friendship'
p395
aS'complete shit'
p396
aS'confessionnight hate feeling vulnerable'
p397
aS'confessionnight scared shitless ever fall love'
p398
aS'1100'
p399
aS'aunt every time come little girl band arent dating'
p400
aS'screaming omfg'
p401
aS'give 1100 love'
p402
aS'love sydhead'
p403
aS'still'
p404
aS'lesbian lecture'
p405
aS'went disney land like come back gonna datin bffs'
p406
aS'nobody loves sobs'
p407
aS'band camp convinced everyone emma dating maybe everyone thinks lesbian'
p408
aS'person nickname'
p409
aS'kobe ships ally'
p410
aS'gonna ahead make backup account things happen'
p411
aS'ships hard core'
p412
ag6
aS'pepper feed addictions'
p413
aS'best kissing emoji'
p414
aS'cheese kind cause fucking nasty'
p415
aS'justin bieber'
p416
aS'pizza rolls friday like havent like weeks serious problem'
p417
aS'course'
p418
aS'getallyablueeyedboyfriend2013'
p419
aS'like mangina'
p420
aS'funny'
p421
aS'dont want boyfriend want someone hold hands make basically boyfriend without commitment scares'
p422
aS'getnariahpizzarolls2013'
p423
aS'limit want boyfriends'
p424
aS'pizza rolls'
p425
aS'getnariahamexican2013'
p426
ag6
aS'limit crying eyelash'
p427
ag6
aS'allys boyfie'
p428
asS'2013_21'
p429
(lp430
S'parents think child cant pain good life'
p431
aS'masturbating stoned isn\xe2\x80\x99t called weed whacking don\xe2\x80\x99t know live life anymore'
p432
aS'people think youre crazy talk things dont understand'
p433
ag6
aS'person pretend long demons catch'
p434
aS'cant take anymore cant emma'
p435
aS'dont think anymore'
p436
aS'everyone cares late'
p437
aS'fucking person cares'
p438
aS'keep holding hoping maybe someone save fucking gone nothings gonna help point'
p439
aS'fucking died time would audience'
p440
aS'hell time cares theres people around'
p441
aS'doesnt care'
p442
aS'thing making feel like absolute shit'
p443
aS'shes always telling stop expecting things reality like shit anyways'
p444
aS'sorry killed feelings long time'
p445
aS'shes always telling change attitude stop bitch'
p446
aS'dont know wants'
p447
asS'2013_31'
p448
(lp449
S'ohhh haha'
p450
ag6
aS'confused'
p451
aS'kitchen'
p452
aS'haha tweet limit lets together'
p453
asS'2013_16'
p454
(lp455
S'wxciteddd'
p456
aS'loud obnoxious crude loads things hide behind mask happiness'
p457
aS'first admit fucked alot good things damn scared hurt'
p458
aS'lifes rough people suck shit happens still trying brush things shoulders sometimes hard'
p459
aS'every insult rumor mean word ever said traveled along shoulders constantly loop'
p460
aS'whenever back shit gets deep'
p461
aS'honestly sensitive baby words hurt'
p462
aS'emma'
p463
aS'already dont like look friend know hurts stuff like'
p464
aS'confession grade missy shane picked side burns theyre baby hairs made weeks'
p465
aS'tank'
p466
aS'mine individually'
p467
aS'like really follow really'
p468
aS'shhh lying'
p469
aS'follow shes could totally make better pleaseeeee'
p470
aS'love danihoe'
p471
aS'kian'
p472
aS'answer'
p473
aS'tape good vibes good cries dubbed'
p474
aS'perfect'
p475
aS'still auggest songs'
p476
aS'hate pitbull prince royce'
p477
aS'would guys half spanish half english song really good'
p478
aS'probably make ally help oops'
p479
aS'wait till money cases'
p480
aS'even grandma doesnt tapes'
p481
aS'send songs line reminds'
p482
aS'okee'
p483
aS'think could actually tape fucking hipster duds'
p484
aS'rlly'
p485
aS'making tape daniel'
p486
aS'guys gonna sooooo good'
p487
ag6
aS'good'
p488
aS'limit'
p489
aS'song remind'
p490
ag6
aS'whih'
p491
aS'jujubby song'
p492
aS'guys going make tape send songs remind'
p493
aS'mexican association'
p494
aS'better everyone better'
p495
aS'want tattoo goddamnit'
p496
aS'really love prince royce flex sobb'
p497
aS'stand prince royce gtgtgt'
p498
aS'blocked yhat nigga like going outta style'
p499
aS'yeah'
p500
aS'cant'
p501
aS'getting matching sweaters'
p502
aS'well jesus ally tried'
p503
aS'fuck everyone sometime mean hate everyone literally wanna fuck everyone feel'
p504
aS'nariah wildly confused'
p505
aS'limit angry'
p506
aS'2775'
p507
asS'2013_34'
p508
(lp509
S'cause youre wonder wall'
p510
aS'back beat word street fire heart burnt'
p511
aS'stop stare'
p512
aS'onerepublic fray kinda night'
p513
aS'seems like person whos proud dont know feel either'
p514
ag6
aS'almost year self harm free really dont know feel'
p515
ag6
aS'sometimes need'
p516
aS'well'
p517
aS'esty stoopid'
p518
aS'alffin'
p519
aS'told didnt believe'
p520
aS'sloths gauges suck dick told'
p521
aS'guess shopping'
p522
aS'need real cuddle'
p523
aS'cryin shoulder love suicide better older greatest life'
p524
aS'crying song fucking beautiful'
p525
aS'forget could better'
p526
aS'cause stuck moment'
p527
aS'like sonny cher dont care long babe'
p528
aS'like adam tradegy destiny'
p529
aS'wish nother time wish nother place'
p530
aS'reckless clumzy'
p531
aS'dont wanna dont wanna know'
p532
aS'know cant work'
p533
aS'romeo juliet'
p534
aS'think goooooooez'
p535
aS'said name georgia rose daddy dentist'
p536
aS'think went'
p537
aS'danced night best song ever'
p538
aS'said give back'
p539
aS'maybe walked'
p540
aS'oops clicked first hashtag popped'
p541
aS'idrk'
p542
aS'jaitlan'
p543
aS'inside world'
p544
aS'less lonely girl'
p545
aS'broken heart give brand start'
p546
aS'around sleeping pills anymore emotional send stupid sappy text messages'
p547
aS'confused'
p548
aS'honest question reply honest opinion know havent asked'
p549
aS'know hush cute face dont worry'
p550
aS'matter'
p551
ag6
aS'doesnt know guess cats'
p552
aS'ship boyfriend girls wanna fight'
p553
aS'cool confused'
p554
aS'holly impressed told named porn star like cool'
p555
aS'talkin bout names'
p556
aS'girl already'
p557
aS'confession always pictured first kiss cutesy like tree sweaty back minivan'
p558
aS'someone send selfie taken'
p559
aS'tweet limit'
p560
aS'things kinky account'
p561
aS'follow limit want sexy tweets'
p562
aS'limit right adoring fans started complimenting'
p563
asS'2013_32'
p564
(lp565
S'going fuck'
p566
aS'days'
p567
ag6
aS'never forget'
p568
aS'cute boys never meet make internally frustrated fucking time'
p569
aS'sure sure also'
p570
ag6
aS'louisandharry favorite'
p571
ag6
aS'ally'
p572
aS'laughin'
p573
aS'feel'
p574
aS'also like harry styles louis number'
p575
aS'joanne goes'
p576
aS'squeal'
p577
aS'hello friends'
p578
as.