(dp0
S'2013_43'
p1
(lp2
S'playing csrracing android join free'
p3
aS'race csrracing android winning check free'
p4
aS'moved level csrracing android check free'
p5
aS'moved tier csrracing android check free'
p6
aS'meowmm decal csrracing android paintjob free'
p7
aS'playing csrracing android join free'
p8
aS'check ride csrracing android free'
p9
asS'2013_46'
p10
(lp11
S'playing csrracing android join freeacb'
p12
aS'playing csrracing android join freeabc'
p13
aS'playing csrracing android join freea'
p14
aS'playing csrracing android join free'
p15
aS'playing csrracing android join free'
p16
asS'2013_44'
p17
(lp18
S'playing csrracing android join free'
p19
aS'playing csrracing android join free'
p20
aS'playing csrracing android join free'
p21
aS'playing csrracing android join free'
p22
aS'playing csrracing android join free'
p23
aS'playing csrracing android join free'
p24
aS'playing csrracing android join free'
p25
aS'playing csrracing android join free'
p26
aS'playing csrracing android join free'
p27
aS'playing csrracing android join free'
p28
aS'playing csrracing android join free'
p29
aS'playing csrracing android join free'
p30
aS'playing csrracing android join free'
p31
asS'2013_45'
p32
(lp33
S'playing csrracing android join freeii'
p34
aS'playing csrracing android join freei'
p35
aS'playing csrracing android join free'
p36
aS'playing csrracing android join free'
p37
asS'2012_52'
p38
(lp39
S'please recommend skills thank'
p40
asS'2012_50'
p41
(lp42
S'made proof made yesterday click drop asap'
p43
asS'2011_1'
p44
(lp45
S'nuffin'
p46
asS'2013_20'
p47
(lp48
S'people kill forget gives life taking directly challenging divinity'
p49
aS'yesterday friend pmln sent message saying dont cross limits complete control governmen\xe2\x80\xa6'
p50
aS'zahra hussains blood william hagues hands warned would happen arrest altaf'
p51
aS'harbours terrorist altaf hussain makes public threats citizens justification'
p52
asS'2013_31'
p53
(lp54
S'scored points arcade mode android'
p55
aS'scored points arcade mode android'
p56
asS'2013_16'
p57
(lp58
S'ever'
p59
asS'2013_15'
p60
(lp61
S''
p62
aS'beautiful morning isloo'
p63
aS'hello everybody'
p64
asS'2012_49'
p65
(lp66
S'made proof made yesterday spend worth'
p67
as.