(dp0
S'2014_29'
p1
(lp2
S'came hear neighbour passed away yesterday'
p3
aS'classic depression quote'
p4
aS'drawing coloured pencils finished yesterday horse haflinger drawing polychromos fabercastell'
p5
aS'promised really shitty time'
p6
aS'lots tension going family feel excluded everything like stain blanket metaphr'
p7
aS'true used tumblr caused trouble vent cant talk others yeah twitter'
p8
aS'therapist mailbox psychiatrist mailbox awesome really dont care anymore'
p9
aS'shes really lucky dont know anymore deal yeah hang'
p10
aS'crying every meds dont help light anymore normal cant fight longer tunnel'
p11
aS'thats humans even bother anymore better getting branded time enough'
p12
aS'idea check forums hands people ruin unpredictable cant love feel shitty'
p13
aS'want much dont future anyone would want love monsters others'
p14
asS'2014_28'
p15
(lp16
S'inspiration draw empty fuck'
p17
aS'stare pair scissors grinning'
p18
aS'younger selves would ashamed'
p19
aS'condolences imagine youre mood sends'
p20
aS'mother told could become everything want became insane sarcasm depression'
p21
aS'welcome shoe paradise wouldnt damn expensive newrock'
p22
aS''
p23
aS'abandoned need home written gets home deserves dogs pets'
p24
aS'cant stop crying grotesque wash face downstairs smile want break isolate'
p25
aS'dont know long things stick someones head dont know long itll tearing apart'
p26
ag23
aS'evil child direwolf ghost harrenhal\xe2\x80\x9d arya stark'
p27
aS'know people admire hitler different doesnt make look makes look like'
p28
aS'lose interest things make happy really'
p29
aS'waste flesh exist people would better without cant stand voices inner pain'
p30
aS'paranoia voices head tell father going kill shut'
p31
aS'anxious paranoid tonight'
p32
aS'getting know horses'
p33
asS'2014_18'
p34
(lp35
S'bpdawareness bpdsometimes dont know deal flood emotions like waterfall hear thoughts'
p36
aS'waho picoftheweek drawn zeablast'
p37
aS'seen beautiful soul captured wonderfully'
p38
aS'check guitar progress play baby hollowmoonart awesome design'
p39
aS'remember time limited spend worth everyone else answer\xe2\x80\xa6'
p40
aS'check silent avenge narsilia'
p41
aS'animal sara tyson please illustration'
p42
aS'german pills germany deutschland'
p43
aS'check undressed narsilia poetry borderline'
p44
aS'check kitties metal jollyrotten'
p45
ag23
aS'back hospital almost panic attack tube least done need someone fixes nosering'
p46
aS'good today hospital know left breast tumor scared cancer'
p47
aS'give wont sorry welcome side hello hyde'
p48
aS'attn brazil widely accepted fact animal testing done purely meet legal requirements'
p49
aS'holy we\xe2\x80\x99re 2000000 views within month epic thank support wareternal coming'
p50
aS'agonist eulogies sang sleep official ears theagonist'
p51
aS'fuck baby murderers lets abhorrent practise backwards industry come'
p52
aS'ahhh beauty spring yard'
p53
aS'voice fucking amazing wish would known sooner looking forward album'
p54
aS'full recovery borderline personality disorder possible'
p55
aS'gorgeous picture want paint'
p56
aS'left speechless cool tell'
p57
ag23
aS'humans broke pills people destroyed last years feel weak today troubles falling asleep'
p58
aS'anxiety'
p59
aS'april dailyselflove message everything greatest upset face might actually trying'
p60
aS'borderline motivational'
p61
aS'squeezed hands saying happy almost cried nobody ever said still moved thanks'
p62
aS'things told daughter hope helps life'
p63
aS'photo hauser kaibling skiing season already'
p64
aS'feeling emotions deeply empathy greater brain development'
p65
aS'think though less words hugs embraces actions meanings phrases'
p66
aS'proud regardless love stay strong make dreams come true special'
p67
aS'shoes waytooepic hoofshoes'
p68
aS'metal'
p69
aS'damnit woke nightmare mind wont stop telling failure hate'
p70
aS'love'
p71
aS'nice reminder today'
p72
aS'thank friend yesyes empowered wisemind truth thoughts'
p73
ag23
aS'good move enlist amys help ladies watch last nights bigbangtheory'
p74
aS'w\xc3\xb6lfchen gorgeous paint horse second lesson western riding blast'
p75
ag23
aS'aries zodiacsigns truthineveryline'
p76
aS'bound artwork different versions wanted show symbiosis human horse'
p77
aS'done copic ciao markers gelpen meeting best thing years love'
p78
asS'2014_19'
p79
(lp80
S'hear people scream yell right dont know screaming real scared borderline voices hallucinating'
p81
aS'distant spirits remain newest digital artwork guess tell love deer majestic creatures'
p82
aS'diese nacht denen gewidmet frieden freiheit glauben conchitawurst'
p83
aS'conchitawurst klug talent steigt richtigen moment viele menschen haben schnauze voll intoleranz\xe2\x80\xa6'
p84
aS'wrap thunder thighs around waist'
p85
aS'feeling content comfortable today cant wait horsie'
p86
aS'thank follow'
p87
aS'know truth makes realize truth pablo picasso'
p88
aS'give form daylight cent seen darkness escher'
p89
aS'check ocean shards narsilia rough draft song inspired'
p90
aS'check silent avenge narsilia poems'
p91
aS'please want raccoon'
p92
aS'shedding light marijuanas anxiety relief effects'
p93
aS'trying best move forward days whole world looks like grey colour gone'
p94
aS'feeling well anxiety stomach acts'
p95
aS'think looking another therapist feel shunned good base'
p96
aS'test upset immensely unbelievable still shaking afraid fucked even high level'
p97
aS'taking break test fucking rows numbers geometric forms kill iqtest fuckthatshit mybrainhurts cigarette'
p98
aS'therapy session today'
p99
aS'2person show tran nguyen please illustration'
p100
aS'hoooo actually smile'
p101
aS'hereditary suspicion runs family along kinds mental illness borderline anxietydisorder'
p102
aS'didnt take meds today afraid drive consuming surprisingly calm today even shitty news'
p103
aS'support bereaved parents families'
p104
aS'somethingtocheerpeopleup lamblambsarefuckingcute'
p105
aS'thanks following'
p106
aS'chameleon effect'
p107
aS'sends sorry hear'
p108
aS'aweeeesoooome wish money gibson iwantitsobadly'
p109
aS'childlike aspects borderline personality disorder know aspect'
p110
aS'close give fuck meds fuck therapy fuck fucking everything'
p111
aS'sadly wife'
p112
aS'sure every halestorm freak agrees picture'
p113
asS'2014_21'
p114
(lp115
g23
aS'dont want become aunt overkill help'
p116
aS'thats news'
p117
aS'types borderline quiet borderlines knew quiet borderline must exist like'
p118
aS'four reasons bipolar disorder accepted borderline personality disorder'
p119
aS'thanks follow'
p120
aS'officially female crush sorry angelina jolie youve busted'
p121
aS'love'
p122
aS'hell watch bollywood movie remote lazy change channel'
p123
aS'truth video hurts stupidhumanity'
p124
aS'fiveminsinlzzyscloset another instrument want learn would'
p125
aS'loss tune guitar guitar tuning sryneverhadlessons'
p126
aS'right name gasoline shit fire youre freak likee halestorm'
p127
aS'lovely great shading'
p128
aS'didnt think would stay long came home pretty draw kids celebrate without alcohol'
p129
aS'happens bored class pretty sure pure'
p130
aS'many social anxiety knocking door'
p131
aS'world heartless sometimes rays humanity sends'
p132
aS'derp selfie mugshot'
p133
aS'wish growls good anyone tipps trainimprove growls archenemy sucharookie want'
p134
aS'damn right halestorm especially'
p135
aS'meets wonderful world amazing mashups'
p136
aS'tell hurts baby baby halestorm'
p137
aS'thanks follow'
p138
aS'look really nice love rise'
p139
aS'think pretty'
p140
aS'race trotting horse conquestador gorgeous saddle guess riding often happy'
p141
ag23
aS'dies heavy nosebleed much hotness information overload brain explosion'
p142
aS'sweetie tina poor thing immuneweakness cant ride hope recovers soon'
p143
aS'horsesrule'
p144
aS'mind prison focus fear fargo quote'
p145
aS'beautiful manga eric proctor please illustration'
p146
aS'theyd like control back wall danger losing search deep inside remember archenemy'
p147
aS'right leave dark show private parts halestorm privateparts'
p148
aS'time cigarettes player earphones gonna listen halestorm archenemy ears fucking bleeding music'
p149
aS'minute feeling calm thinking rational thoughts next minute feeling restless anxious falling\xe2\x80\xa6'
p150
aS'like these\xe2\x80\xa6'
p151
aS'thank hugs back pass questions much handle'
p152
aS'milla lzzy'
p153
aS'also helps lzzy hales voice'
p154
aS'milla jovovich eliza dushku larter lzzy hale fuckin'
p155
aS'diagnostic session feel tense uneasy guilty hell feel guilty shut brain anxiety depression'
p156
aS'people'
p157
aS'ever felt'
p158
aS'scared people find lonely really'
p159
aS'meds take long kick want sleep'
p160
aS'music helps reduce anxiety also helps human mind body stressful times'
p161
aS'behind scenes latest video shatter thanks making shoot much'
p162
aS'answer possible regain trust person borderline personality disorder'
p163
aS'dont need feel crashing better yeah hearing complain halestorm dirtymind sexy'
p164
aS'know want give dont scared good feels tell good feels halestorm newfavoritesong'
p165
aS'love corsets best shit ever drool'
p166
aS'hottest female kerrangawards2014'
p167
aS'make hair healthier grow faster'
p168
aS'willingness'
p169
asS'2014_20'
p170
(lp171
S'ragefits depressions selfdoubts selfhate deep sadness cycling right exhausting trigger relapse sotired'
p172
aS'left start silence deafening heart examine scars losing mind wondering'
p173
aS'women bleed desperately need blind reason wanted free'
p174
aS'awesome cant deal emotions gonna relapse feel ihatepeople trustnoone'
p175
aS'wonder trust issues cant fall well fucking action answered question'
p176
aS'least remember hate humans first place anger rage fuckingliars'
p177
ag23
aS'really nuisance people much telling truth remember'
p178
aS'fucking pissed right love people tell somewhere else time sister meets elsewhere'
p179
aS'alcest opale official music video alcest opale wonderfultrack music oneofmyfavouritebandsever'
p180
aS'overcoming posttraumatic stress'
p181
aS'fangirl moment regrets'
p182
aS'sigh print reduced prices help save site'
p183
aS'drool behave stop making look like photo cred'
p184
aS'thank interest support eternal albumofthemonth titles countless cover'
p185
aS'whats kamelotian name fans kamelot kamfans kamelotnation'
p186
aS'thanks follow'
p187
aS'love everything represent'
p188
aS'ancient godess'
p189
aS'another awesome shot thursday night lindseystirling shatterme lindseystirling likeaboss\xe2\x80\xa6'
p190
aS'amazing night thursday club nokia lindseystirling shreds tremendous\xe2\x80\xa6'
p191
aS'comes moment know you\xe2\x80\x99ll never halestorm rock show'
p192
aS'face underwaterslowly drowning barely movingwishing clear breathemoon stars head becoming'
p193
aS'okay fall sometimes world looks different ground'
p194
aS'listening soundtrack burlesque tough lover would nice track cover halestorm'
p195
aS'shoot thrill play kill many women many pills yeah acdc shottothrill halestorm awesomecover'
p196
aS'deer stag practicing piece open canvas digitalpainting drawing deer opencanvas'
p197
aS'shooting mistress disastress hate windy perfectionist went well next time better'
p198
aS'black white deer taxidermy hohe jagd salzburg roedeer deer'
p199
aS'shooting range later geez must practise gotta pick archery'
p200
aS'mentalhealthawarenessweek'
p201
aS'diet better life'
p202
aS'took later tired already could fallen asleep without'
p203
aS'father really mastered skill poison whole family innuendos feel sorry without pills nuts'
p204
aS'digital illustrations jonlock please illustration'
p205
aS'amazing performing experience ever last night joined stage'
p206
aS'tired dont want take meds tonight feeling dizzy'
p207
aS'borderline personality disorder awareness month please look subject spread awareness others'
p208
aS'thanks follow'
p209
ag23
aS'quality iwai please illustration'
p210
aS'shatterme live'
p211
aS'dreaming mice roaming'
p212
aS'good night train cipralex quetiapin timetosleep'
p213
aS'much hate anger consumed world today everyone needs think positively promise'
p214
aS'seriously need speakers cant handle sound well'
p215
ag23
aS'message lzzy'
p216
aS'link takes moment reflect beautiful land hyrule artwork papayoufr'
p217
aS'karma coming poachers animalabusers like'
p218
aS'neurologist gave advise take pills night instead morning raise dose quetialan long helps'
p219
aS'thanks following'
p220
aS'please video canada doesnt want watch voice'
p221
aS'thanka follow'
p222
ag23
aS'animal vince please illustration'
p223
aS'love message openminded people making world better place'
p224
aS'thank immortalizing tweets'
p225
aS'true'
p226
aS'cute best friends'
p227
aS'dont make mistake twice second time make mistake choice'
p228
aS'drink wine'
p229
asS'2014_23'
p230
(lp231
S'heavy metal screaming goat remix compilation goats fcking metal metal goat'
p232
aS'thanks follow worshippinglzzyslegs'
p233
aS'different break free away days keeps checking deviantart calling fake liar'
p234
aS'feel like everything wrong'
p235
aS'baby painting messed dont care'
p236
aS'hear someone crying weeping nobody swear going fucking nuts noise come'
p237
aS'even meds thoughts racing madly cant sleep probably raise dose trying doze'
p238
aS'guess really tempts blow steam ragemode made experience poison state'
p239
aS'true avoid much possible'
p240
aS'youre afraid tell people feel fear rejection bury deep inside only\xe2\x80\xa6'
p241
aS'things learned life humans enemies'
p242
aS'tyrion lannister people often claim hunger truth seldom like taste served'
p243
aS'youre hateful woman gods made love hateful woman jaime lannister'
p244
aS'sucks doesnt feeling like youre good enough'
p245
aS'need someone wont give'
p246
aS'sensitive person literally take everything personally'
p247
aS'know feeling'
p248
asS'2014_22'
p249
(lp250
S'cersei love poison sweet kill'
p251
aS'anxiety dont bottle talk someone says blogging'
p252
aS'girls periods'
p253
aS'friends weekend nice around people person illness symptoms love guys'
p254
aS'want happy call names thought would happy guess wrong'
p255
aS'forget fucking scene angrier become stomache burns feel like crying dont know much hurt'
p256
aS'lzzy hale right idea'
p257
aS'allowed become better happy supposed state people cant happy call fake'
p258
aS'dissociated heavily almost another shit getting heavy bare'
p259
aS'hell terrible hugs'
p260
aS'daenerys take mine fire blood gameofthrones badass'
p261
aS'viserys targaryen brave kill dragons brave rode'
p262
aS'still dont know deal thought baby house good thinking moving'
p263
aS'daenerys take mine fire blood gameofthrones badass'
p264
aS'rocktolive'
p265
aS'fotosgibson amigosgibson'
p266
aS'video awesome cant wait'
p267
aS'theres gameofthrones week enjoy deviant artnandomendonssa'
p268
aS'rewear things well throw clothes away give others'
p269
asS'2014_25'
p270
(lp271
S'remember mess youre making'
p272
aS'started tweeting pass happy'
p273
aS'went hiking today austria schwarzensee'
p274
aS'honoured opportunity create portrait amazing horse super intelligent trilingual'
p275
aS'match'
p276
aS'ghaaanaaaa wm2014'
p277
aS'also send original piece mail want'
p278
aS'finished drawing horse drawing pencildrawing fabercastell'
p279
aS'good morning horses'
p280
aS'horseboy amazing trailer movie autistic recovering mongolia horseriding shamanism'
p281
aS'horses nature'
p282
aS'dragons made promise threatened mother daenerys targaryen'
p283
aS'sure bout rather want private therapist expensive wonder afford hoping best'
p284
aS'horses ability heal soul broken people dont break horses soul give receive horses'
p285
aS'alone whether like alone something youll quite'
p286
aS'guess next week check list current therapist going hand'
p287
aS'sometimes afraid fall asleep dream slitting throat front webcam scar someone life feel awake'
p288
aS'borderline personality disorder something belittle someone mental illness kills'
p289
aS'dont sweat gotta admit last time years'
p290
aS'thank wanna taking commissions never sure price though'
p291
aS'viagra woman'
p292
aS'damn meds make libido feet'
p293
aS'people sensitive truth feel much every word every action every energy goes'
p294
aS'second slept feeling matte'
p295
aS'sometimes never know value moment becomes memory'
p296
aS'youre welcome school leave nervous breakdown selftaught always loved drawing'
p297
aS'next work progress picture horse drawing'
p298
aS'toxic parasitic ideas hijack minds mimetically commandeered include suicide theagonist anxiousdarwinians'
p299
aS'local taxidermist amazing'
p300
aS'love green view yard'
p301
aS'sixty days glad managed long downfall thats unusual clean years'
p302
aS'society pretty fucked need'
p303
aS'rely standing behind'
p304
aS'treated every illness like treat mental illness bpdawarenessmonth mentalhealthmatters'
p305
ag23
aS'give helltell fuck'
p306
aS'oculus havent heard'
p307
aS'thought germany usually saves energy beginning pure destruction'
p308
aS'portugal totally ruined placed germany instead ronaldo busy looking pretty wm2014'
p309
aS'portugal totally blew portugal'
p310
aS'know feeling awfully energyrobbing'
p311
aS'dont really type like like simple'
p312
aS'cool thats nice hear football soccer always confused probably gonna watch germany portugal'
p313
aS'changed profile picture well today everything alright'
p314
aS'thanks follow hugs'
p315
aS'often tempted throw everything away meds therapy life energy keep going'
p316
asS'2014_24'
p317
(lp318
S'best turns happy like'
p319
aS'freaking cool'
p320
aS'look started drawing today'
p321
aS'depressions empty idontwantanymore trigger'
p322
aS'feel like drinking cuts collection dont want feel anything anymore'
p323
aS'tired everything dunno stand life dont know anymore trust sucks without faces'
p324
aS'cats sure caretaking horse'
p325
aS'stupid flashbacks dont come back time'
p326
ag23
aS'celcius fahrenheit austria heat fuckitshot'
p327
ag23
aS'cramps like'
p328
aS'thanks triggering'
p329
asS'2014_27'
p330
(lp331
S'feeling awful tonight suicidal thoughts flashbacks'
p332
aS'place horses painting ritchgaiti painting'
p333
aS'never tell dont even know supposed rant humans misantrophy depression'
p334
aS'baby hedgehog soooo cute'
p335
aS'cookibg experiment spaghetti leaf spinach successful much garlic'
p336
asS'2014_26'
p337
(lp338
S'might forget threw rememver last breath'
p339
aS'would lose eyelids forced live eyes open would mind working lids cover'
p340
aS'know never want tell people bout depressions today said sorrows would take antidepressants'
p341
aS'watch final destination makes damn paranoid'
p342
ag23
aS'dragged horse riding jesus ride conquestador deserves name hardly able stop whoa adrenaline'
p343
aS'game killer'
p344
aS'wanna lzzy hale halestorm'
p345
aS'staying today motivation anything'
p346
aS'quickstudies skulls horse drawing anatomy study'
p347
aS'wish someone afraid lose always scared losing people love doubt anyone would fight'
p348
aS'incredible digital hoyhoykung please illustration'
p349
aS'miss kfps friesianhorse horse romke equinehour equinephotography'
p350
ag23
aS'diagnoatic results delayed three weeks'
p351
aS'panic attacks feeling awful crying shaking cant breathe'
p352
aS'afraid falling asleep'
p353
aS'feeling anxious tomorrow tell final diagnosis really bipolar asperger shizophrenia kill'
p354
aS'stop cyprus animal abuse thrown garbage crusher protaras hotel dogs'
p355
aS'creatures ellen june jewett please illustration'
p356
aS'current project colored pencils horse haflinger drawing'
p357
aS'youre beautiful'
p358
aS'damnit gives inappropriate thoughts love bite thighs'
p359
aS'lets work together make happen lzzy'
p360
aS'watched falcon chasing swallows head thats amazing'
p361
aS'thank'
p362
aS'weird dream deer woods cool kind weird'
p363
aS'flaws hahaha'
p364
aS'cant sleep'
p365
aS'saddest people best make people happy know like feel worthless dont want anyo\xe2\x80\xa6'
p366
aS'another dream another gonna nutes'
p367
asS'2014_36'
p368
(lp369
S'wont anybody life exhausting painful'
p370
asS'2014_34'
p371
(lp372
S'okaaay done time blocked'
p373
asS'2014_35'
p374
(lp375
g23
asS'2014_32'
p376
(lp377
S'explain others look like alien feel displaced'
p378
aS'feeling totally unreal dunno absorbed microcosmos want stay without anyone near scare'
p379
asS'2014_30'
p380
(lp381
S'diagnosis schizotypal disorder borderline tendency depression yeah guess live'
p382
aS'shine brightly make visible darkness others fuckyou notenoughmiddlefingers'
p383
as.