(dp0
S'2014_36'
p1
(lp2
S'catherine tuned today saying youd lost stone weeks well done missed'
p3
aS'shes going real time wasteradorable'
p4
aS'stunning catherine'
p5
aS'fendi lacquarossa notes mandarin rose orange blossom enter follow'
p6
asS'2014_37'
p7
(lp8
S'last night proms sayfantastic would love rulebrittania'
p9
aS'lovely natural looking nails'
p10
aS'christian grey reading books'
p11
aS'fantastic love detail'
p12
asS'2014_34'
p13
(lp14
S'fantastic catherine need lose stone wedding next march inspiring'
p15
aS'watched film called saving banks yesterdaya lovely film emma thompson wonderful must mary poppins fans'
p16
asS'2014_35'
p17
(lp18
S'thanks lucy looks light brown light pale pink others great colour'
p19
aS'subtle pretty shade weekend tickle francey'
p20
aS'please missing cockapoo missing cheadlehulme desperate home findpoppy'
p21
aS'thats ashame thankyou letting know lucy enjoy evening'
p22
aS'need pair shades backtoschool follow enter revealmore'
p23
aS'lucy havent tried usually nails coat seche vite fast drying'
p24
aS'surprise bottles reveal giveaway tonight follow enter revealmore'
p25
aS'must done mighty shame genuinely lovely gentleman hell missed'
p26
aS'please find missing lilian jean dementia frightened'
p27
aS'please believe justiceforiain gbbo dirtydiana'
p28
aS'gbbo iain dianna even apologyshameful bringbackiain beardking'
p29
aS'chrisgpackham tell looks flatter wasphad finished laying eggs'
p30
aS'springwatch chrispackam tell isitd finished laying eggsbut looks flatter wasp'
p31
aS'sure enter calvin klein reveal grand prize contest enter follow revealmore'
p32
aS'last pair follow chance calvin klein prize revealmore'
p33
aS'need shades follow chance calvin klein reveal sunnies revealmore'
p34
asS'2014_32'
p35
(lp36
S'favourite loccitane product shea hand cream religiously every night also love nails alison'
p37
aS'thankyou fantastic summer colour bonvoyage'
p38
aS'voyagefantastic summer colour thankyou leighton'
p39
aS'disturbing'
p40
asS'2014_33'
p41
(lp42
S'catherine cats beautiful love names babies betty poppy'
p43
aS'love nails colour havent worn cant wait itlooks fantastic'
p44
aS'sounds rattling chains moaningthen silenceand hear heavy breathing ghost sight'
p45
aS'fantastic incredibly lifelike'
p46
aS'thankyou lucy'
p47
aS'love perfect formula pink coat ultimate natural nail'
p48
aS'brighten thursday want clinique blushers crayons follow 11pm competition'
p49
aS'love think birds make favourite picturespaintings someone south australias gonna happy'
p50
asS'2014_30'
p51
(lp52
S'mind blown'
p53
aS'forces'
p54
aS'thankyou much'
p55
aS'much prefer real thing'
p56
aS'productive afternoon think'
p57
aS'would rude'
p58
aS'yummy like side tennis ball aswel'
p59
aS'youll square eyes'
p60
aS'seen corner spare roombut cats sitting front goingcrazy giantmouse'
p61
aS'season ghost adventures premieres october 2014 lineup locations unlike anything ready details'
p62
aS'spends ages crazycat'
p63
aS'thankyou follow looking photos youve amazing nail polish collection'
p64
aS'love sundae girl pretty pink'
p65
asS'2014_31'
p66
(lp67
S'youve great eyelashes mascara'
p68
aS'favourites'
p69
aS'dawn would market original christian dior coat battered lining'
p70
aS'beauty goodies follow retweet enter closes 4814'
p71
aS'thank followers surprise contest leau dissey summer enter follow'
p72
aS'fantastic judith williams show looks stunning gorgeous dress catherine gorgeousgirls'
p73
aS'hope another series fantastic'
p74
aS'youre going belgium chateau miranda celles belgium written'
p75
asS'2014_38'
p76
(lp77
S'stunning'
p78
aS'foggy thats coast suppose'
p79
aS'giving away givenchys gentlemen barber edition simon baker included enter follow'
p80
aS'lovely colour looks like slightly darker porchester squarelove'
p81
aS'deserves endless retweets'
p82
aS'hate slugs passion thankyou much'
p83
aS'sure kill themsalt'
p84
aS'anyone tell eggs uncovered mowing lawn slightly smaller petit pois'
p85
asS'2014_39'
p86
(lp87
S'thats right thankyou much'
p88
aS'special thank followers surprise contest fendi enter follow'
p89
aS'first attempt drawing long time thought share'
p90
aS'remind collecting beach small grandpa called dolly stones'
p91
aS'thanks lucy'
p92
aS'bright start week baby gwen steffani collection'
p93
asS'2014_18'
p94
(lp95
S'weekend colour brazilcollection livelovecarnaval'
p96
aS'weekend colour brazilcollection livelovecarnaval'
p97
aS'great front door colour'
p98
aS'fianc\xc3\xa9 would love best wouldmakehisyear'
p99
aS'want great decleor gift'
p100
aS'baby betty'
p101
aS'pink coat perfect natural nail musthave'
p102
aS'amazing collection gorgeous colours'
p103
aS'thankyou thats something love wouldnt know start thankyou saying though mademynight'
p104
aS'loving colour room'
p105
asS'2014_19'
p106
(lp107
S'worst song ever heard slightly bondesque love good beard though eurovisionsongcontest2014'
p108
aS'devonshire street weekendsparkle'
p109
aS'thankyou much catherine enjoy weekend'
p110
aS'taking easywhat lovely life'
p111
aS'catherine fantastic show future please also nails look lovelywhat colour wearing'
p112
aS'alison keeps waving hands around cant take eyes nail polish colour wearing please'
p113
aS'suzis mango brazil'
p114
asS'2014_14'
p115
(lp116
S'loving baker street'
p117
aS'hayfeverdriving'
p118
aS'collar doves dancing along garden fence comical'
p119
aS'many thanks feel purchase coming'
p120
aS'nail polish stunning'
p121
asS'2014_15'
p122
(lp123
S'colour nail polish nikki wearing please stunning along'
p124
aS'colour weekend like hotdont'
p125
aS'oscarpistorius snivelling idiot load crap'
p126
aS'feel sorry peaches young children without'
p127
aS'love nailsinc warren street whitehall accent'
p128
asS'2014_16'
p129
(lp130
S'pipa nail envy saviour nails always commented theyre long strong pipa colour wearingx'
p131
asS'2014_17'
p132
(lp133
S'buff colour choice wedding'
p134
aS'favourite leighton denny colour gorgeous'
p135
asS'2014_43'
p136
(lp137
S'tickets good food show olympia cant wait mary berry paul hollywood\xf0\x9f\x8d\xb0\xf0\x9f\x8d\x9e superexcited'
p138
asS'2014_42'
p139
(lp140
S'loving colville mews effect recent'
p141
aS'wasp spider'
p142
asS'2014_41'
p143
(lp144
S'sack stylist hoody skirton guyno xfactor'
p145
aS'amazing time lapse films showing realistic speed drawings birds'
p146
aS'fantastic striking'
p147
aS'trying shine cold blustery nails chelsea bridge road'
p148
asS'2014_40'
p149
(lp150
S'alan henning'
p151
aS'light taupe perfect formulaa great gowithanything shade'
p152
aS'beautiful louise'
p153
asS'2014_44'
p154
(lp155
S'subtle halloween steel appeal gold dust coat'
p156
asS'2014_29'
p157
(lp158
S'kinda buenaif thats spell soft spot bounty aswel'
p159
aS'watching storm rolling earlier like something independence dayamazing stormchaser'
p160
aS'giveaway complete fruitpastel collection follow retweet enter'
p161
aS'final chance enter bobbi contest draw today enter follow bobbitogo'
p162
aS'last chance enter marc jacobs daisy dream contest draw today enter follow'
p163
aS'love reactions easiyo show fantastic brand keep hold spoon'
p164
aS'loving step right rose light coat great yearany time combo'
p165
aS'think looks great would love hate feel lipstick girl'
p166
asS'2014_28'
p167
(lp168
S'lying carpet'
p169
aS'philosophy girls summer contest enter follow girlsofsummer'
p170
aS'ooooh love'
p171
aS'diorskin nude contest enter follow nudedior'
p172
aS'love itso cute'
p173
aS'perfect parkeroh talking cars'
p174
aS'ultrasun water resistant aswel application'
p175
aS'dear dear'
p176
aS'2500 giveaway herefollow meamprt image winill randomly select winner sunday 13th good luck'
p177
aS'giving away ultimate summer collection enter follow summerintokyo'
p178
aS'lovely thankyou much'
p179
aS'catherine cant help notice nails today look chic tell colour wearing thanks'
p180
aS'bobbi brown surf sand collection contest enter follow bobbisand'
p181
aS'sorry hear catherine sounds like shes good hands wish speedy recovery'
p182
asS'2014_21'
p183
(lp184
S'loving colour radiance bank holiday shine designercollection'
p185
aS'brook street classiccoral'
p186
asS'2014_20'
p187
(lp188
S'ping amazing deserved winner tonights loserthe bbcs dramatichappy moment music picker crap guys reallycrap masterchef'
p189
aS'poppydelevigne looked beautiful wedding dress today weddingdressenvy'
p190
aS'weekend colour regents place nails effect amazing'
p191
aS'sleep dream nail polish well maybe excites makes happy \xf0\x9f\x92\x85\xf0\x9f\x92\x9fnails'
p192
aS'follow course dinner bottle champagne friends date choice'
p193
aS'love colour great anytimeanywhere colour perfect'
p194
aS'love colour great anytimeanywhere colour perfect'
p195
aS'love colour great anytimeanywhere colour perfect'
p196
asS'2014_23'
p197
(lp198
S''
p199
aS'weighhouse street weekend think'
p200
aS'happy birthday catherine hope dentist works magic'
p201
aS'diagnosed post traumatic stress disorder today experiencing armed robbery 18months bastards think aftermath'
p202
aS'vote'
p203
aS'know month airing coca cola collection many thanks'
p204
asS'2014_22'
p205
(lp206
S'trouble leaving empty handed rescuemission'
p207
aS'shes patrolling blue morning'
p208
aS'hmmm need ideas garden would love cottage style'
p209
aS'gorgeous colour sets online catherines dock beautiful'
p210
asS'2014_25'
p211
(lp212
S'would lovely thankyou much'
p213
aS'love love angle painting amazing'
p214
aS'amazing colour called'
p215
aS'join thurs 26th june launch 12am till repeat 12pm 10pm'
p216
aS'oooh excited booked place sofa'
p217
aS'count majority nails qvcbeautymonth'
p218
aS'loving colour marble arch'
p219
asS'2014_24'
p220
(lp221
S'catherines dock'
p222
aS'nails kensington gate'
p223
aS'cant watch much longer sound quality awful openingceremony'
p224
aS'havent worn orange fizz chanel'
p225
aS'show support cause taking whosesideareyouon image share twitter using hashtag'
p226
aS'whosesideareyouon'
p227
aS'great colour start week gorgeous'
p228
asS'2014_27'
p229
(lp230
S'draw monday jason lancome hudsons enter follow'
p231
aS'giving away bobbi browns surf sand collection hudsons enter follow bobbisurf'
p232
aS'giving away marc jacobs daisy delight perfect summer scent enter follow amprt daisysummer'
p233
asS'2014_26'
p234
(lp235
S'adding shine week ahead chelsea bridge road'
p236
aS'stunning'
p237
aS'vote'
p238
aS'baking almond butter cream cupcakesnaughty nice'
p239
aS'thismorning served paul mcmullan local shop arrogant arsehol scott free'
p240
as.