(dp0
S'2014_29'
p1
(lp2
S'dont appreciate dont deserve'
p3
aS'love going fancy dates showing person makes happy nobody'
p4
aS'johnnywinter guitarhero thankyoufortheinspiration'
p5
aS'listening songs improve memory strengthen immune system reduce depression risk'
p6
aS'camera could take photos release preset delay details pigeon missions still classified'
p7
aS'want trusted honest want honest true want true'
p8
aS'last week tonight proudly sponsored kittens kittens love we\xe2\x80\x99re awful grownup cats'
p9
aS'pigeon imagery taken within hundreds feet target much detailed overhead imagery'
p10
aS'people dont know hidden features google thank later'
p11
aS'never sacrifice someone else problem'
p12
aS'slowly blink blinks back content'
p13
aS'impossible remain angry someone truly love anger lasting days indicates youre love'
p14
aS'octopuss testicles located head'
p15
aS'museum artifact week pigeon camera'
p16
aS'making sure hard work pays higher minimum wage \xe2\x80\x94president obama raisethewage'
p17
aS'don\xe2\x80\x99t love you\xe2\x80\x99ll always chasing people don\xe2\x80\x99t love either think'
p18
aS'never attached anyone unless also feel towards sided expectations mentally destroy'
p19
aS'life much better stop caring everyone thinks start actually live'
p20
aS'voice girly talk strangers friends turn morgan freeman'
p21
aS'dont worry listening dont care'
p22
aS'unblock stuffy nose'
p23
aS'excited nervous anywhere aerosmith show right place'
p24
aS'1998 sony sold 700000 infrared camcorders ability clothing didnt know time'
p25
aS'marijuana doesnt actually kill brain cells study says help regrow'
p26
aS'jason weve talked cant come work without pants stewart'
p27
aS'paul show returning time slot beginning august'
p28
aS'doesnt define maturity'
p29
aS'sandra bullock faced stalker home invasion'
p30
aS'drinking cups cold water empty stomach boost metabolism'
p31
aS'cheaters think everyone cheats liars think everyone lies keep mind'
p32
aS'ignored person whose attention means reaction brain similar physical pain'
p33
aS'people reading find mistake abcdefghijklmnopqrstuvwxyz'
p34
aS'woman trying commit suicide eiffel tower landed later married owner'
p35
aS'life goes without'
p36
aS'agree time crumbling roads bridges rebuildamerica'
p37
aS'thinking causes mind create negative scenarios replay painful memories'
p38
aS'learn laugh learn talk'
p39
aS'never someone done nothing tell anything'
p40
aS'takes small ruin trust built'
p41
aS'american people demand folks washington \xe2\x80\x94president obama rebuildamerica'
p42
asS'2014_28'
p43
(lp44
S'bible number shoplifted book time'
p45
aS'aerosmith recording aerosmith done mirrors great songs could played sung produced better aerosmith'
p46
aS'aerosmith yardbirds five live birds beatles yardbirds ledzeplnstones hendrix'
p47
aS'instead wiping tears wipe away people caused'
p48
aS'listen advice older people theyre right experience wrong'
p49
aS'life defines made person'
p50
asS'2014_23'
p51
(lp52
S'diagnosed ptsd mowing lawn effective therapy'
p53
aS'listening music high volumes makes person calmer happier relaxed'
p54
aS'music wanted material item humans'
p55
aS'hershey sues edible marijuana company'
p56
aS'must moving pretty slow youre tweeting driving'
p57
aS'doesnt matter hurt broke matters made smile'
p58
aS'china sued wife ugly'
p59
aS'sure right aeroforceone never thanks positive tweetthought'
p60
aS'dont yesterday take much today'
p61
aS'past cloudy future spotless'
p62
aS'best feeling world knowing actually mean something someone literally years life'
p63
aS'listen carefully person speaks people probably speak people'
p64
aS'surround people make better better outcomes'
p65
aS'formally recognized oxford english dictionary'
p66
aS'naturally gunny highway improvise adapt overcome'
p67
aS'negaholics people become addicted selfdoubt negativity find things hardly ever'
p68
aS'people cant drive crazy unless give'
p69
aS'relationship waste time wrong ones teach lessons prepare right'
p70
aS'youre happy enjoy music youre understand lyrics'
p71
aS'hotel belgium shaped like human colon costs night sleep inside giant anus'
p72
aS'avocados berries'
p73
aS'waiting since january mine\xe2\x98\x86'
p74
aS'number maturity choice\xe2\x80\x9d'
p75
aS'mountain originally made mixed whiskey'
p76
aS'likely fall love someone actually makes feel better'
p77
aS'tend overestimate womens interest women tend underestimate mans interest'
p78
aS'russian scientists developed drug prolongs drunkenness enhances intoxication'
p79
aS'handwriting keep mind intelligent people tend think faster result handwriting sloppy'
p80
aS'breathing blessed'
p81
aS'people socially awkward personalities tend loyal friends faithful relationship'
p82
aS'hugging holding hands someone special instantly reduce stress'
p83
aS'winniethepooh characters represent type mental disorder eeyore depression pooh addiction tigger adhd'
p84
aS'relationship secret shouldn\xe2\x80\x99t'
p85
aS'people arent actually antisocial choose alone hate spending time stupid people'
p86
aS'cool take time tweet fans almost like touring thank much'
p87
aS'agree seeing guys august atlanta would love hear street jesus'
p88
aS'subconsciously attracted people music taste'
p89
aS'listening music activities uses entirety human brain'
p90
aS'water drink already drunk somebody else maybe several times'
p91
asS'2014_22'
p92
(lp93
S'people keep feelings believe hard others understand pain'
p94
asS'2014_25'
p95
(lp96
S'time slip time travel possible bizarre incidents suggest'
p97
aS''
p98
ag98
ag98
ag98
ag98
ag98
ag98
ag98
ag98
aS'didnt'
p99
aS'people dropped phones face texting'
p100
aS'dont chase people work hard principles right people find life'
p101
aS'best person life comes first mind reading sentence'
p102
aS'dont quick believe hear lies spread quicker truth'
p103
aS'ferrets dont enough'
p104
aS'manufacturing sectors adding jobs time since 1990s \xe2\x80\x94obama nationofmakers madeinamerica'
p105
aS'never waste time trying explain people committed misunderstanding'
p106
aS'psychology says pain never really goes away elevate used growing stronger'
p107
aS'best relationship completely still love'
p108
aS'thoughts create reality'
p109
aS'sleeping mind begins imagine stuff youd like happen'
p110
aS'hardest tasks human mind convincing longer care'
p111
aS'people create storms upset rains'
p112
aS'women higher harder time finding mate intelligent women would rather remain single wrong'
p113
aS'catholic church owns media company publishes pornography erotica'
p114
aS'take things granted things granted taken'
p115
aS'nevada public intoxication legal illegal city town pass making illegal'
p116
ag98
aS'fake people talk people fake real people worry business elses'
p117
aS'stressed much mind best ways relax clear mind'
p118
aS'jobs kids internet hobbies home responsibilities average married couple spends minutes alone'
p119
aS'night disneyland releases cats park keep rodent population control'
p120
aS'never assume assumptions lead expectations expectations lead disappointments'
p121
aS'head stay strong fake smile move'
p122
aS'fake friends believe rumors real friends believe'
p123
aS'studies show alabama corrupt unemployed educated unfortunate details'
p124
aS'don\xe2\x80\x99t look back you\xe2\x80\x99ll trip what\xe2\x80\x99s front'
p125
asS'2014_24'
p126
(lp127
S'learned anything mayans don\xe2\x80\x99t finish something world'
p128
aS'pain make stronger fear make braver heartbreak make wiser'
p129
aS'everyone talks leaving better planet kids let\xe2\x80\x99s leave better kids planet'
p130
aS'theres comfort turning seeing friends precinct bringbackstabler'
p131
aS'awesome please post done brad whitford'
p132
aS'whatever decide living make sure really enjoy passion work hard'
p133
aS'theres hell hello good goodbye believe lover friend next life'
p134
aS'rumors carried haters spread fools accepted idiots'
p135
aS'check perfect marriage solid semithe esles paul gibson memphis'
p136
aS'rare paul\xc2\x92s auctioned benefit charities'
p137
aS'zeppelin deluxe reissues first three albums land'
p138
aS'career highlight read says'
p139
aS'finally received aeroforceone membership package yesterday happy'
p140
aS'psychology says cannot change people around change people choose around'
p141
aS'fuck guys expensive stop popping time line'
p142
aS'watchrt awesome influenced undiscovered guitarist'
p143
aS'mayall comedian actor died aged'
p144
aS'twitter basically conversation hoping someone else join'
p145
aS'difference like love love difference forever'
p146
aS'trust hard gain easy lose'
p147
aS'love human mind tends ignore persons flaws causing difficult leave someone causes pain'
p148
aS'catholic church dead pope trial'
p149
aS'think \xe2\x80\x9cfrigging\xe2\x80\x9d clean substitute word actually comes middle english word masturbation'
p150
aS'eating chocolate studying helps brain retain information easily directly linked high test scores'
p151
aS'life defines made person'
p152
aS'didaskaleinophobia actually fear going school'
p153
aS'textiety condition individual feels anxious receiving sending text messages'
p154
aS'rain need around town anyone noah greatfloodthesequel'
p155
aS'difficult people know become people knew'
p156
aS'keeping baggage past leave room happiness future'
p157
aS'first taste right'
p158
aS'drink glass cold water soon wake boost metabolism'
p159
aS'fake friends believe rumors real friends believe'
p160
aS'chocolate laughter healthy brain'
p161
aS'dont ruin good today thinking yesterday'
p162
aS'powerful photo never stop retweeting grateful service wome\xe2\x80\xa6'
p163
aS'never someone done nothing tell anything'
p164
aS'india celebrates children\xe2\x80\x99s november 14th months valentine\xe2\x80\x99s'
p165
aS'never compare others'
p166
aS'read autobiography life aerosmith fucking great must read fans'
p167
aS'characterize people actions never fooled words'
p168
aS'knowing difference right wrong thing showing actions another'
p169
aS'better look ahead prepare look back regret'
p170
aS'accept faith'
p171
aS'seems like celebrities worried aging wonder forgetting live moment'
p172
aS'studies found alcohol actually less addictive chicken'
p173
asS'2014_27'
p174
(lp175
S'youve lost still matters'
p176
aS'thankful youll'
p177
aS'hardest thing life know bridge cross burn'
p178
aS'psychology says sometimes silence powerful scream indication something terribly wrong'
p179
asS'2014_26'
p180
(lp181
S'rather breaks millionaires let\xe2\x80\x99s give breaks help working families \xe2\x80\x94president obama'
p182
aS'people need learn life love people things instead using people loving things'
p183
aS'text song mistake word truth person could change mood second'
p184
aS'matters life kind respectful others without nothing matters'
p185
aS'stop overthinking everything life short'
p186
aS'music make feel less pain'
p187
aS'high school students 2014 anxiety levels insane asylum patients 1950s'
p188
aS'aerosmt'
p189
aS'watch inspiring video onehanded guitarist john denner playing eruption'
p190
aS'expecting doesnt mean everything youve waiting'
p191
aS'you\xe2\x80\x99re helping people join we\xe2\x80\x99ll together \xe2\x80\x94president obama republicans'
p192
aS'happy friday sweet happy friday letrockrule'
p193
aS'cant afford wait congress right \xe2\x80\x94president obama'
p194
aS'dont cynical despite frustrations america making progress \xe2\x80\x94president obama'
p195
aS'never going cynical going stay hopeful hope \xe2\x80\x94president obama'
p196
aS'past mistakes always teach lessons make better except word always unfortunately would agree'
p197
aS'people change often become person said never'
p198
aS'england suicide used illegal punishment trying kill death'
p199
aS'don\xc2\x92t think much you\xc2\x92ll create problem wasnt first place'
p200
aS'never argue idiot'
p201
aS'hope speaks'
p202
aS'auburn flag crowd mexicocroatia world game today wareagle'
p203
aS'people like bring past present future look better'
p204
aS'2010 australian mother brought premature back life hugging cuddling doctors declar\xe2\x80\xa6'
p205
aS'first rate version second rate version someone else'
p206
aS'give life happiness excitement tears pain'
p207
aS'regular dollar bill 1914 pictured growing hemp'
p208
aS'taught technique cant taught creativity'
p209
aS'created beautiful creature earth'
p210
aS'sobriety awesome high congratulations rock'
p211
aS'happy 70th birthday guitar hero jimmy page'
p212
aS'awesome picture thing would make better eric clapton fave guitarists'
p213
aS'people likely assume youre arguing youre actually explaining youre right'
p214
aS'forgive others deserve forgiveness deserve peace'
p215
aS'everyone meant future people passing teach lessons life'
p216
asS'2014_32'
p217
(lp218
S'need money college need college need money mastermind behind genius system'
p219
aS'sentence tuna read backwards'
p220
aS'teens grateful experience increase mental health greater sense meaning life'
p221
aS'fine common lies spoken world'
p222
aS'crazy storm clouds'
p223
aS'insane driving secondary staring phone drivers days live life lolin\xe2\x80\xa6'
p224
aS'best avoid disappointment expect anything anyone'
p225
asS'2014_33'
p226
(lp227
S'life weird strangers friends friends practically strangers agai\xe2\x80\xa6'
p228
aS'almonds america\xe2\x80\x99s favorite nuts finally beat out\xe2\x80\xa6deez nuts takes high fives whole country'
p229
aS'sometimes give people'
p230
aS'feelin good feelin groovy feelin great nothin keeps kramedog letrockrule\xe2\x80\x9d best joeykee\xe2\x80\xa6'
p231
asS'2014_30'
p232
(lp233
S'human mind maintain complete trust person broken never'
p234
aS'learn learn live'
p235
aS'people claim care others think keep searching acceptance'
p236
aS'smile enemies hate'
p237
aS'receives apmas guitar legend award introduced another legend'
p238
aS'don\xe2\x80\x99t depend much anyone world even shadow leaves darkness'
p239
aS'\xe2\x80\x9clet\xe2\x80\x99s often\xe2\x80\xa6let\xe2\x80\x99s pass bills help create good jobs strengthen middle class\xe2\x80\x9d \xe2\x80\x94president obama'
p240
aS'good news today businesses added million jobs past months \xe2\x80\x94president obama ready\xe2\x80\xa6'
p241
aS'president obama bill signing todaywill connect readytowork americans readytobefilled jobs'
p242
aS'unemployment rate lowest since september 2008 \xe2\x80\x94president obama readytowork'
p243
aS'biggest ever read agree terms'
p244
aS'teenager china sold kidney ipad'
p245
aS'someone tickles laugher panic response cant tickle body doesnt sense real'
p246
aS'reason people find hard happy always past better'
p247
aS'starting soon president obama speaks signing workforce innovation opportunity watch'
p248
aS'forgive never forget'
p249
aS'call mall instead going store mall clever'
p250
aS'bikini introduced models willing wear revealing swimwear designer hire stripper'
p251
aS'knowing difference right wrong thing showing actions another'
p252
aS'subconsciously attracted people music taste'
p253
aS'exclusive video premier single enough today 1200'
p254
aS'spent entire childhood wishing older older sucks'
p255
aS'true friends hard find difficult leave impossible forget'
p256
aS'2010 australian mother brought premature back life hugging cuddling doctors declar\xe2\x80\xa6'
p257
asS'2014_31'
p258
(lp259
S'never lose friends learn real ones'
p260
aS'dont look someone solve problems look someone wont face alone'
p261
aS'people think strong never feel pain reality strongest people ones feel throu\xe2\x80\xa6'
p262
aS'1979 probably first time played jason bonham'
p263
aS'dont forget watch beautiful daughter today nashville time 11am'
p264
aS'awesome blog awesome website every rock must read blogs'
p265
aS'blog visible todd kerns official website world tour fire check'
p266
aS'instead acting help millions americans house republicans suing president today doyourjobhousegop'
p267
aS'don\xe2\x80\x99t confuse path destination stormy doesnt mean arent headed sunshine'
p268
aS'psychology says sometimes silence powerful scream indication something terribly wrong'
p269
as.