(dp0
S'2013_41'
p1
(lp2
S''
p3
asS'2013_46'
p4
(lp5
g3
ag3
ag3
ag3
ag3
ag3
aS'amen'
p6
aS'know lord'
p7
aS'done receive mighty name lord jesus'
p8
ag3
ag3
ag3
ag3
aS'hold fast confessions hope without wavering promised faithful'
p9
ag3
aS'amen'
p10
ag3
ag3
ag3
ag3
ag3
ag3
ag3
ag3
ag3
aS'amen'
p11
ag3
ag3
ag3
aS'amen believe jesus name'
p12
ag3
aS'amen thank jesus waking'
p13
ag3
ag3
ag3
aS'posted photo facebook'
p14
aS'dear lord thank thousand tongues thousand lifetimes could never thank'
p15
asS'2013_47'
p16
(lp17
g3
aS'righteousness faith christ jesus anything done'
p18
ag3
ag3
aS'mighty name jesus christ amen'
p19
ag3
aS'jesus name amen'
p20
ag3
asS'2013_45'
p21
(lp22
g3
ag3
aS'amen'
p23
ag3
ag3
ag3
ag3
ag3
ag3
ag3
aS'amen'
p24
aS'amen'
p25
ag3
ag3
ag3
ag3
ag3
ag3
ag3
ag3
ag3
ag3
ag3
aS'lord jesus'
p26
ag3
ag3
ag3
ag3
aS'lord name jesus'
p27
aS'powerful people planet ones pray'
p28
aS'jesus name amen'
p29
ag3
aS'never deny lord everything glory name jesus'
p30
ag3
ag3
ag3
ag3
ag3
ag3
ag3
ag3
aS'amen amen amen'
p31
ag3
ag3
ag3
ag3
ag3
ag3
ag3
ag3
aS'amen'
p32
aS'baby girl grow fast'
p33
aS'posted photo facebook'
p34
aS'posted photo facebook'
p35
ag3
ag3
aS'amen'
p36
aS'thank jesus'
p37
aS'agree says says jesus name amen'
p38
aS'well agree whole heartily read make opinion'
p39
aS'faithful hebrews 1023 hold fast confession hope without wavering'
p40
aS'glory'
p41
aS'lord mighty name jesus amen'
p42
ag3
ag3
ag3
aS'thank jesus life nothing without'
p43
ag3
ag3
ag3
ag3
ag3
ag3
ag3
ag3
ag3
asS'2013_24'
p44
(lp45
S'little brother crew dancing thing loving'
p46
asS'2013_25'
p47
(lp48
g3
ag3
ag3
ag3
ag3
ag3
ag3
ag3
ag3
ag3
ag3
ag3
ag3
ag3
ag3
ag3
ag3
ag3
ag3
aS'lord'
p49
asS'2013_26'
p50
(lp51
g3
ag3
ag3
ag3
ag3
asS'2013_27'
p52
(lp53
g3
ag3
ag3
ag3
ag3
aS'faith make things easy makes things possible glory lord savior jesus christ'
p54
ag3
ag3
ag3
ag3
aS'amen'
p55
ag3
ag3
aS'amen amen amen'
p56
aS'thank lord'
p57
aS'amen'
p58
ag3
ag3
ag3
ag3
ag3
ag3
ag3
ag3
ag3
ag3
aS'first must give thanks lord allowing another grow year older want'
p59
asS'2013_20'
p60
(lp61
g3
ag3
ag3
ag3
ag3
ag3
ag3
ag3
aS'things planet powerful enough make impossible possible faith prayer'
p62
ag3
ag3
ag3
ag3
ag3
ag3
ag3
ag3
aS'thank jesus make dwelling place overcome lives christ'
p63
aS'amen'
p64
ag3
ag3
ag3
ag3
aS'thank lord'
p65
ag3
ag3
aS'thank jesus'
p66
ag3
ag3
ag3
aS'amen'
p67
aS'trust lord things'
p68
ag3
ag3
ag3
ag3
ag3
ag3
ag3
ag3
aS'amen'
p69
ag3
ag3
ag3
aS'thank jesus'
p70
ag3
ag3
ag3
ag3
aS'amen amen amen thank jesus'
p71
aS'grace lord keep eyes promise problem jesus name amen'
p72
ag3
ag3
ag3
ag3
aS'thank lord choosing'
p73
ag3
ag3
ag3
ag3
ag3
ag3
ag3
ag3
ag3
asS'2013_21'
p74
(lp75
g3
ag3
ag3
aS'thank jesus'
p76
aS'thank lord advance know finished work jesus name amen'
p77
aS'psalms lord perfect concerns mercy lord endures forever forsake works hands'
p78
aS'thank jesus'
p79
ag3
ag3
ag3
ag3
ag3
aS'amen'
p80
aS'amen'
p81
aS'name jesus'
p82
aS'still performing miracles trust'
p83
ag3
ag3
ag3
ag3
ag3
ag3
ag3
ag3
ag3
ag3
ag3
aS'amen'
p84
aS'call bank said million dollars name would'
p85
ag3
ag3
ag3
ag3
ag3
ag3
asS'2013_22'
p86
(lp87
g3
ag3
ag3
ag3
asS'2013_23'
p88
(lp89
g3
ag3
ag3
ag3
ag3
ag3
ag3
ag3
ag3
ag3
ag3
ag3
ag3
ag3
ag3
ag3
ag3
ag3
ag3
ag3
ag3
ag3
ag3
ag3
ag3
ag3
ag3
ag3
aS'timothy look around people know going accept jesus christ'
p90
ag3
ag3
ag3
ag3
ag3
ag3
ag3
aS'amen'
p91
aS'thank lord'
p92
ag3
aS'amen amen amen'
p93
ag3
ag3
aS'seek jesus first bless rest glory amen'
p94
ag3
ag3
ag3
aS'thank lord jesus'
p95
ag3
ag3
aS'amen'
p96
aS'thank jesus'
p97
ag3
ag3
asS'2013_28'
p98
(lp99
g3
ag3
asS'2013_29'
p100
(lp101
S'doxa international ministries annual church picnic gonna great time great food'
p102
ag3
ag3
ag3
ag3
ag3
aS'good evening family friends would like prayer warriors know power'
p103
asS'2011_52'
p104
(lp105
S'rookie cole quater'
p106
aS'rookie cole doin right'
p107
aS'boston trying come back time miami point game'
p108
aS'sure looking good year lost alot odem'
p109
aS'time boston much heat'
p110
aS'game miami spankin boston right'
p111
aS'nets blown hawks'
p112
asS'2013_9'
p113
(lp114
g3
aS'lord thank waking morning praise long grateful chose'
p115
ag3
ag3
ag3
ag3
ag3
aS'crucified christ lives christ jesus lives'
p116
ag3
ag3
aS'lord'
p117
ag3
ag3
ag3
ag3
aS'believe jesus'
p118
ag3
ag3
ag3
ag3
aS'thank jesus'
p119
ag3
aS'love baby girl akire nique snoddy'
p120
ag3
ag3
ag3
ag3
ag3
ag3
aS'thank lord'
p121
aS'amen'
p122
aS'thank lord allowing part beautiful made know'
p123
asS'2012_9'
p124
(lp125
S'whats wade tight muscle shirt smediums deck'
p126
asS'2012_4'
p127
(lp128
S'morning stay grind whatever stay safe keep first'
p129
asS'2012_1'
p130
(lp131
S'wanna happy birthday troy homie'
p132
asS'2013_37'
p133
(lp134
g3
ag3
ag3
ag3
ag3
ag3
ag3
ag3
ag3
ag3
aS'lord faithful'
p135
ag3
ag3
ag3
ag3
ag3
aS'thank jesus'
p136
ag3
ag3
ag3
ag3
aS'wasnt pretty jets pulled yesterday geno smith didnt look half rookie'
p137
asS'2013_36'
p138
(lp139
g3
ag3
ag3
ag3
ag3
ag3
ag3
ag3
ag3
ag3
ag3
ag3
ag3
aS'thank jesus'
p140
aS'amen'
p141
ag3
ag3
ag3
ag3
ag3
ag3
aS'shows glory long arms engineer drives works'
p142
asS'2013_13'
p143
(lp144
S'problem world today always done much already'
p145
ag3
aS'praying wrong things genie praying line'
p146
ag3
aS'want take time wish drama happy birthday family love gone never'
p147
ag3
ag3
ag3
aS'thank jesus'
p148
aS'team flight brothers shows dunks never done dunk contest'
p149
ag3
ag3
ag3
ag3
ag3
ag3
ag3
ag3
ag3
ag3
ag3
aS'amen'
p150
aS'glory nothing impossible lord jesus'
p151
ag3
ag3
ag3
ag3
ag3
ag3
ag3
ag3
ag3
ag3
ag3
ag3
ag3
ag3
ag3
aS'take stand godand stand alone always'
p152
aS'know forgive anything turn away wrong'
p153
aS'good morning brothers sisters bless familys great wonderful'
p154
ag3
ag3
ag3
ag3
ag3
ag3
ag3
ag3
ag3
ag3
ag3
ag3
ag3
ag3
ag3
aS'wedding date wedding bands check wedding cake check marriage license check venue check decorations'
p155
ag3
ag3
ag3
ag3
ag3
ag3
ag3
ag3
ag3
aS'amen'
p156
aS'time'
p157
ag3
ag3
ag3
ag3
ag3
ag3
ag3
asS'2013_12'
p158
(lp159
S'thank jesus keep showing showing like glory amen'
p160
ag3
aS'john thief come except steal kill destroy come'
p161
ag3
ag3
aS'amen answer call always right time lord trust'
p162
ag3
ag3
ag3
aS'thank jesus'
p163
aS'thank lord jesus blessing another worship praise submit yield'
p164
aS'thats truth amen'
p165
aS'stripes healed jesus name amen'
p166
aS'stay prayed'
p167
aS'amen'
p168
ag3
ag3
ag3
ag3
ag3
ag3
aS'true power control lives stop thinking know whats best'
p169
ag3
ag3
aS'ashamed gospel good news blessing blood jesus christ'
p170
ag3
ag3
ag3
ag3
ag3
ag3
ag3
ag3
ag3
ag3
ag3
ag3
aS'thank jesus nothing without thank leaving forsaking yeild obey alone lord'
p171
ag3
ag3
aS'proverbs trust lord heart lean understanding'
p172
ag3
ag3
ag3
ag3
ag3
ag3
ag3
ag3
ag3
ag3
ag3
ag3
ag3
ag3
aS'please people attention agreeing cause cost soul'
p173
ag3
aS'amen'
p174
aS'thank jesus'
p175
ag3
ag3
ag3
ag3
ag3
ag3
aS'trust everything else fall place master planner'
p176
ag3
ag3
ag3
ag3
ag3
aS'amen'
p177
ag3
aS'thank father'
p178
aS'amen'
p179
ag3
ag3
ag3
ag3
asS'2013_15'
p180
(lp181
S'daughter sister wedding'
p182
aS'thank lord anther many reasons thank woke married morning'
p183
ag3
ag3
ag3
ag3
ag3
ag3
ag3
ag3
aS'thank lord traveling grace everyone except brother wedding saturday lord'
p184
ag3
ag3
aS'simple thank jesus'
p185
ag3
ag3
ag3
aS'always thank jesus'
p186
ag3
aS'four days wedding excited thank jesus'
p187
ag3
aS'amen'
p188
aS'means access post phone laptop computerif read understand'
p189
ag3
ag3
ag3
ag3
ag3
ag3
ag3
ag3
ag3
ag3
ag3
ag3
ag3
ag3
ag3
ag3
ag3
ag3
ag3
ag3
ag3
ag3
ag3
ag3
ag3
aS'amen'
p190
ag3
ag3
aS'want take time thank many blessings life many'
p191
asS'2013_32'
p192
(lp193
g3
ag3
ag3
ag3
ag3
ag3
aS'thank lord'
p194
asS'2013_17'
p195
(lp196
S'wonderful time church today great word need hear beneficiary'
p197
ag3
ag3
ag3
ag3
ag3
ag3
ag3
ag3
ag3
ag3
ag3
ag3
ag3
ag3
ag3
ag3
ag3
ag3
ag3
ag3
ag3
ag3
ag3
ag3
ag3
ag3
ag3
ag3
aS'every single friends list enjoy catching looking pics hearing'
p198
aS'dear lord jesus humble covering prayer mighty blood jesus pray prayer'
p199
ag3
ag3
aS'posted photo facebook'
p200
aS'posted photo facebook'
p201
aS'baby girl'
p202
aS'posted photo facebook'
p203
aS'posted photo facebook'
p204
aS'posted photo facebook'
p205
aS'brother chance niece baby girl akire keke quick dancing wedding'
p206
ag3
ag3
ag3
ag3
ag3
ag3
ag3
ag3
ag3
ag3
ag3
ag3
ag3
ag3
aS'posted photo facebook'
p207
aS'posted photo facebook'
p208
aS'posted photo facebook'
p209
aS'posted photo facebook'
p210
aS'posted photo facebook'
p211
aS'posted photo facebook'
p212
aS'pics wedding beautiful bride wedding cake first dance wedding party'
p213
aS'beloveds broken promises rather specializes second chances turn rounds'
p214
ag3
ag3
ag3
ag3
ag3
aS'dear today everything everything like give'
p215
ag3
ag3
ag3
aS'lord thank another praise like nothing nothing without'
p216
ag3
ag3
ag3
ag3
ag3
ag3
ag3
ag3
ag3
ag3
ag3
ag3
ag3
ag3
ag3
ag3
asS'2013_16'
p217
(lp218
g3
ag3
aS'thank lord another praise matter know overcome'
p219
ag3
ag3
ag3
ag3
ag3
ag3
ag3
ag3
ag3
ag3
ag3
ag3
ag3
ag3
ag3
ag3
ag3
ag3
ag3
ag3
ag3
ag3
aS'want take time thank jesus asking anything saying thank lord'
p220
ag3
ag3
ag3
ag3
ag3
ag3
ag3
ag3
ag3
ag3
ag3
ag3
ag3
ag3
ag3
ag3
ag3
ag3
ag3
ag3
ag3
ag3
ag3
ag3
ag3
ag3
ag3
aS'amen'
p221
aS'daughter mother'
p222
ag3
ag3
ag3
ag3
ag3
ag3
aS'thats right'
p223
ag3
ag3
ag3
ag3
aS'true thank'
p224
ag3
aS'pics wedding'
p225
ag3
aS'praying people families affected bombing near finish line boston marathon'
p226
aS'amen'
p227
ag3
ag3
ag3
ag3
ag3
ag3
aS'photos come'
p228
asS'2013_19'
p229
(lp230
S'happy mothers mothers blessed lord hearts desires'
p231
aS'thanking gift blessed soul mate best friend better half mother'
p232
ag3
ag3
ag3
ag3
aS'amen'
p233
ag3
aS'thank jesus'
p234
ag3
ag3
ag3
ag3
ag3
ag3
aS'without doubt everything'
p235
aS'pictures wedding'
p236
aS'lord want take time thank everything nothing without'
p237
ag3
aS'christ jesus'
p238
ag3
ag3
ag3
aS'grace'
p239
ag3
ag3
ag3
ag3
ag3
ag3
ag3
ag3
ag3
ag3
ag3
ag3
ag3
ag3
ag3
ag3
ag3
ag3
ag3
ag3
ag3
ag3
ag3
ag3
ag3
ag3
ag3
ag3
ag3
aS'thank lord another always find reason give thanks lord always'
p240
ag3
ag3
asS'2013_18'
p241
(lp242
g3
ag3
ag3
ag3
ag3
ag3
ag3
ag3
ag3
ag3
ag3
ag3
aS'favorite scriptures'
p243
ag3
aS'believe says jesus name amen'
p244
ag3
ag3
ag3
ag3
ag3
ag3
ag3
ag3
ag3
ag3
aS'lord'
p245
ag3
ag3
ag3
ag3
ag3
ag3
ag3
ag3
ag3
ag3
ag3
ag3
ag3
ag3
aS'jesus name amen'
p246
aS'amen'
p247
aS'lord'
p248
ag3
ag3
aS'lord make change make strong lord'
p249
ag3
ag3
ag3
ag3
ag3
ag3
ag3
ag3
ag3
ag3
aS'lords lovepeace blessings friends family everything'
p250
ag3
ag3
ag3
ag3
ag3
ag3
ag3
aS'thank lord jesus good family love'
p251
ag3
ag3
ag3
ag3
ag3
ag3
ag3
ag3
ag3
ag3
aS'posted photo facebook'
p252
asS'2013_39'
p253
(lp254
S'john whatever born overcomes world victory overcome'
p255
ag3
ag3
ag3
ag3
ag3
aS'beloved find time spend lord waiting reach dont think'
p256
ag3
ag3
ag3
ag3
ag3
ag3
ag3
ag3
ag3
ag3
ag3
ag3
ag3
ag3
ag3
ag3
ag3
ag3
asS'2013_11'
p257
(lp258
g3
ag3
ag3
aS'wonderful time church praising lord song receiving mighty word'
p259
ag3
ag3
ag3
ag3
ag3
aS'trust'
p260
aS'amen trust lord control'
p261
ag3
ag3
aS'devil liar change mind mood many reasons smile lord'
p262
aS'amen'
p263
ag3
ag3
ag3
ag3
ag3
ag3
ag3
ag3
ag3
ag3
ag3
ag3
ag3
ag3
aS'thanking blessing another smile gods face today'
p264
aS'amen'
p265
ag3
ag3
ag3
ag3
ag3
ag3
ag3
aS'month away wedding cant wait thank lord everything done could happen'
p266
aS'scroll pass take seconds read choice make'
p267
ag3
ag3
ag3
ag3
ag3
ag3
ag3
ag3
ag3
aS'lord shepherd shall want makes green pastures leads beside'
p268
ag3
ag3
ag3
ag3
ag3
ag3
aS'lord want thank allowing another know love'
p269
ag3
aS'words live'
p270
ag3
aS'society christians missions'
p271
ag3
ag3
aS'amen'
p272
ag3
aS'like know gods teachable moments'
p273
ag3
ag3
aS'nothing like woman'
p274
aS'allow isaiah weapon formed shall'
p275
asS'2013_10'
p276
(lp277
g3
ag3
ag3
ag3
ag3
aS'dont saturday night effect sunday morning'
p278
ag3
aS'amen amen amen'
p279
ag3
aS'good afternoon face book family wonderful lord worthy praised great'
p280
ag3
ag3
ag3
ag3
ag3
ag3
ag3
ag3
ag3
ag3
aS'good morning face book family thanking another wanted share something'
p281
ag3
ag3
ag3
ag3
ag3
ag3
ag3
aS'healing postings'
p282
ag3
aS'amen amen well said brother knows'
p283
ag3
ag3
ag3
ag3
ag3
ag3
ag3
ag3
ag3
ag3
ag3
ag3
ag3
ag3
aS'little girl give glory understand wants excuse thank'
p284
ag3
ag3
aS'amen amen amen'
p285
ag3
aS'amen'
p286
ag3
ag3
ag3
ag3
aS'awesome watched daughter allowing yield right'
p287
asS'2011_34'
p288
(lp289
S'missing glad wasnt quake look hurricane coming'
p290
asS'2011_37'
p291
(lp292
S'made today working hour home'
p293
aS'made today working hour home'
p294
asS'2011_38'
p295
(lp296
S'knowin yeah kraz'
p297
aS'feel homie need delete alot page whole'
p298
aS'whats good homie deleted page'
p299
aS'digging loving joint though'
p300
asS'2013_14'
p301
(lp302
g3
ag3
ag3
ag3
ag3
ag3
ag3
ag3
ag3
ag3
ag3
ag3
ag3
ag3
ag3
ag3
ag3
ag3
ag3
ag3
aS'lord thank another praise blessing loving spirit overtake every'
p303
ag3
ag3
ag3
ag3
ag3
ag3
ag3
ag3
ag3
ag3
ag3
ag3
ag3
ag3
ag3
ag3
ag3
ag3
ag3
ag3
ag3
ag3
ag3
ag3
ag3
ag3
ag3
ag3
ag3
ag3
ag3
ag3
ag3
ag3
ag3
aS'done means days wedding cant wait thank'
p304
ag3
ag3
ag3
ag3
ag3
ag3
ag3
ag3
ag3
ag3
aS'christian doesnt mean wont fall means jesus catch thank jesus amen'
p305
ag3
ag3
ag3
ag3
ag3
ag3
aS'thank lord brought trust lord bring lies ahead'
p306
ag3
aS'posted photo facebook'
p307
ag3
ag3
ag3
aS'help lord says amen'
p308
ag3
aS'thank lord jesus forgiveness mercy cover prayers everyone reads'
p309
ag3
ag3
aS'thank lord mindful always'
p310
aS'thank jesus'
p311
ag3
ag3
as.