(dp0
S'2014_21'
p1
(lp2
S'literally twitter happened'
p3
aS''
p4
aS'call scaroline'
p5
aS'would could ruined shirt'
p6
aS'finding scarlett live minutes away\xf0\x9f\x99\x8c\xf0\x9f\x99\x8c'
p7
aS'things called friends'
p8
aS'tweet'
p9
aS'neverforget tweet'
p10
aS'even tweet'
p11
aS'miss drea kammie jules cate much people'
p12
aS'feed stop blowin'
p13
aS'like remember made though'
p14
aS'bless'
p15
aS'everything shay tweets makes'
p16
aS'name isnt even scarlett anymore'
p17
asS'2014_7'
p18
(lp19
S'minutes extra sleep morning seriously matter pisces'
p20
aS'roleplaysucks dont motherfucjers life h8erz'
p21
aS'honestly hate everyone right'
p22
aS'fact broke phone throwing wall texted'
p23
aS'cracked phone uncracked'
p24
ag4
aS'getting point'
p25
ag4
aS'whoo'
p26
aS'cried'
p27
aS'cracked phone guys'
p28
ag4
aS'whispers made aldc weak'
p29
aS'weak wanna come back'
p30
aS'deleted instagram like anymore tweeting anymore everyone'
p31
aS'stop dont want anymore drama please stop tweeting'
p32
aS'dont leave alone'
p33
aS'tweeted twitter stop kidding wasnt saying anything leave alone'
p34
aS'aldc making wanna kill holla'
p35
aS'called wasnt talking kenna skylar whatever leave alone'
p36
aS'isnt skylar please stop'
p37
aS'said skylar'
p38
aS'wasnt please fuck'
p39
aS'dont know thing sanctimonious cunt'
p40
aS'claps'
p41
aS'twitters dumb deleting'
p42
aS'definitely cant internet youre liar disgusting'
p43
aS'even'
p44
aS'dont believe dont tell everyone real sick person faking'
p45
aS'know depression anxietynot self diagnosed please shut'
p46
aS'dumb bitch'
p47
aS'love sagey'
p48
aS'heck'
p49
ag4
aS'fuck'
p50
ag4
aS'even princess like even'
p51
aS'grow'
p52
aS'fuck plastic isnt mean girls'
p53
aS'user'
p54
aS'wouldnt dislike princess roleplay didnt copy every single thing'
p55
ag4
aS'wait dece'
p56
ag4
aS'delaneyyyyy'
p57
aS'high'
p58
aS'anna kendrick cold sprouse'
p59
aS'else school today\xf0\x9f\x91\x8c'
p60
aS'goodnight everyone hope sleep well'
p61
aS'twitter feed dead'
p62
aS'heres calm fuck'
p63
aS'message cool'
p64
ag4
aS'tell shit immediately become shit mess literally easy'
p65
aS'confidence everything mother fuckers'
p66
aS'parents hate disney worldland call land'
p67
aS'life short shitty relationships find someone fucks right treats'
p68
aS'hate people tryna look good bitch'
p69
aS'english teacher tells justin timberlakes wife'
p70
aS'makes rocket ship account'
p71
aS'makes fake rocket account'
p72
aS'wouldnt aldc would mini justin bieber'
p73
aS'block omfg'
p74
aS'serena'
p75
ag4
aS'knew rocket cried'
p76
aS'shit alexa'
p77
aS'kind name rocket anyway'
p78
aS'cried'
p79
aS'cruing even legal'
p80
aS'retweet valentines card shay naynay'
p81
aS'watch come back'
p82
aS'told liked ampi told dals liked asked'
p83
aS'whispers mine'
p84
aS'annoyed'
p85
aS'aged'
p86
aS'tell like'
p87
aS'finding'
p88
aS'changed josh hyland good'
p89
aS'crush didng like back'
p90
aS'remember original mcswerve rocket used fetus justin bieber'
p91
aS'spilled pasta cried'
p92
ag4
ag4
ag4
aS'fuck embarrassed myseld'
p93
aS'cant though'
p94
aS'mine'
p95
aS'cries dont want pasta anymore'
p96
aS'gives pasta'
p97
aS'mine'
p98
aS'duck number'
p99
aS'watching friends eating pasta'
p100
aS'whats'
p101
aS'weenis rhymes penis hahahahahaha'
p102
aS'tell mine tweet'
p103
ag4
aS'quietly tries figure indirect mine'
p104
aS'beats'
p105
aS'plan meet football game supposed internet friends like still'
p106
aS'pretend grandparents house show school'
p107
aS'like indirect'
p108
aS'dont like chandler friends live life'
p109
aS'beats harder'
p110
aS'someone come pasta watching friends'
p111
aS'retweet'
p112
ag4
aS'like indirect'
p113
aS'subtweet stolen sage'
p114
aS'quote'
p115
aS'twitters better'
p116
aS'sweats nervously'
p117
aS'someone sibling siblings cute want'
p118
aS'tweet'
p119
aS'blocks'
p120
aS'someone read zero together'
p121
aS'last name valentine valentine sorry dont make rules'
p122
aS'love youuu'
p123
aS'cutie agree'
p124
aS'reason made twitter header think otherwise wrong'
p125
asS'2014_25'
p126
(lp127
S'youre original tcrp member'
p128
aS'actually hope tcrp stays together time much active aldc drama really'
p129
aS'excuse reason treat like fucking ghost'
p130
aS'evry tiem'
p131
aS'guna nite countin swegs'
p132
aS'call moody punch throat'
p133
aS'remember time threw phone cute texted threw phone cracked'
p134
aS'kidding loveu'
p135
ag4
aS'yaaass'
p136
aS'like tcrp agree'
p137
aS'models cameron dallas basically saying date'
p138
ag4
aS'agree'
p139
aS'prostitue'
p140
aS'cool'
p141
aS'song comes sort'
p142
aS'even thick'
p143
aS'live georgia'
p144
aS'know lives texas know'
p145
asS'2014_8'
p146
(lp147
S'much sweg turn fridai night'
p148
asS'2014_31'
p149
(lp150
S'tweets header name daisy'
p151
as.