(dp0
S'2013_1'
p1
(lp2
S'quack'
p3
aS''
p4
ag4
aS'bestmemoriesof2012 omfg going walmart three morning nick'
p5
asS'2013_2'
p6
(lp7
S'official going miceampmen january 24th'
p8
aS'algebra physics home already isnt even half fuuuuuuuuuuuuck fuck'
p9
aS'ring power'
p10
ag4
aS'tuesday sweetheart'
p11
asS'2012_45'
p12
(lp13
g4
aS'sheeeeat stoked'
p14
aS'want right'
p15
aS'today work someone said look like tallulah willis demi moores daughter yall think'
p16
aS'night night brings thoughts'
p17
aS'knew much means'
p18
asS'2012_44'
p19
(lp20
S'long youre know okay'
p21
aS'hehe'
p22
aS'starting feel urges cant happy cant stop'
p23
aS'fuck tired shit'
p24
ag4
asS'2012_50'
p25
(lp26
S'kiss gifboom'
p27
aS'didnt know tried follow confused gifboom'
p28
asS'2012_46'
p29
(lp30
S'hallo love gifboom'
p31
aS'hell yeahh'
p32
asS'2012_22'
p33
(lp34
S'love food'
p35
aS'another picture friend'
p36
aS'friend hair'
p37
ag4
aS'anything became blow fishies'
p38
ag4
ag4
ag4
ag4
ag4
aS'hair undercut shorter orange really bright person'
p39
aS'someone quiet makes quiet'
p40
aS'nothing'
p41
aS'life expensive'
p42
aS'lets fall love never look back'
p43
ag4
aS'shit real'
p44
aS'talking behind back like face awesome think shit annoying'
p45
aS'summer plans'
p46
aS'dont deserve happy anyone deserve alone make person miserable'
p47
aS'twat cunt hear'
p48
aS'friends attractive actually kind funny'
p49
aS'lost pounds'
p50
ag4
aS'hate people dont copy like dick copying hurt anyway'
p51
aS'bunny'
p52
aS'okie'
p53
ag4
aS'love bulletproof youre shot'
p54
aS'couple children'
p55
aS'pussy'
p56
aS'elbows boob boob polly thought pillow well thank'
p57
aS'white begins upon time black begins yall motherfuckers aint gonna believe shit'
p58
aS'whats difference black white fairytale'
p59
aS'hell yeah'
p60
aS'hopeless romantic sucker sweet talk'
p61
aS'natural gtlt'
p62
aS'believe nerve racking tell everything wont help'
p63
ag4
aS'fucks sake'
p64
aS'isnt really helped'
p65
aS'50thingsihate people breath mine bitches'
p66
aS'actually dont nigga niggas'
p67
ag4
aS'would look'
p68
aS'50thingsihate people'
p69
aS'afraid noise scary room going dragged hell demons'
p70
aS'lost incomplete'
p71
aS'difficult isolate'
p72
aS'regina gorge flawless'
p73
aS'myfirstkiss amazing lying best kisser knew first kiss made special surprised'
p74
aS'youaintgettinsexif dont convince'
p75
aS'okay darling cant either'
p76
aS'hang time know tone certain things'
p77
aS'pats patrick'
p78
aS'people tend think dirtier good girl'
p79
aS'hell yeah dont forget'
p80
aS'blehhhhh look like poop'
p81
aS'wednesday'
p82
aS'wednesday wait skate park'
p83
aS'know dont still facebook'
p84
aS'holy fish sticks look like'
p85
aS'convinced mommy start stretching'
p86
aS'hell yeah'
p87
aS'teehee'
p88
aS'followers'
p89
aS'mentionyourcutestfollower'
p90
aS'follow youll nudes like'
p91
aS'nope humid year round hand full cool people town'
p92
aS'well fuck'
p93
aS'texas spanish'
p94
aS'tomorrow last class together'
p95
aS'tejas'
p96
aS'today felt like summer'
p97
aS'sorry ugly pictures'
p98
aS'favorite shirt'
p99
aS'feel like ariel hair like'
p100
aS'mental'
p101
aS'mommy'
p102
ag4
ag4
ag4
aS'never told loved'
p103
aS'like sorry dont really make obvious'
p104
aS'show class'
p105
ag4
ag4
aS'nighty night dont demons drag hell ltlt33'
p106
aS'saying would text didnt save number'
p107
ag4
ag4
ag4
ag4
aS'kidding bipolar things'
p108
aS'actually bipolar'
p109
aS'youre honestly worth time efforts'
p110
aS'okay angry start yelling alone'
p111
aS'burns calories minute wanna work'
p112
ag4
aS'true love'
p113
aS'already taken tumblr'
p114
aS'arent mando'
p115
ag4
aS'getting hang twitter thang'
p116
aS'must'
p117
aS'proud'
p118
aS'know together tomorrow love'
p119
ag4
aS'really wish wasnt around guys cant flirt'
p120
aS'easy steps climb seats kick fucking balls'
p121
aS'devil inside'
p122
asS'2012_38'
p123
(lp124
S'fuckkkkkk'
p125
asS'2012_21'
p126
(lp127
S'well understand dont like feel like cheating tumblr'
p128
aS'yeah dont understand though think might delete never'
p129
ag4
aS'love girllllll'
p130
aS'like tumblr'
p131
aS'bleh'
p132
asS'2012_29'
p133
(lp134
S'wants fault know'
p135
aS'fucking alone'
p136
aS'something wrong'
p137
aS'date hard marry shit like motherfucking corpses together'
p138
aS'someone talk alone'
p139
ag4
ag4
ag4
asS'2012_26'
p140
(lp141
S'best night ever'
p142
ag4
aS'normal'
p143
ag4
aS'okies'
p144
aS'friends mine'
p145
aS'sarina want'
p146
ag4
aS'inmiddleschool complete dork really long hair always wore wore ugly glasses horrid taste clothes'
p147
ag4
aS'fuck'
p148
asS'2012_25'
p149
(lp150
g4
ag4
aS'thinking tonight like clue name ahaha bothering'
p151
aS'brothers friends name'
p152
aS'dont like block'
p153
aS'tumblr life'
p154
aS'food'
p155
aS'musiclover510122'
p156
asS'2012_24'
p157
(lp158
S'someone come cuddle'
p159
aS'called didnt answer'
p160
aS'making call'
p161
aS'fuck today'
p162
aS'horny people cuddling well behaved people'
p163
aS'boring fuck'
p164
aS'fuck'
p165
aS'done facts'
p166
aS'20factsaboutme attempted suicide'
p167
aS'20factsaboutme single fuck'
p168
aS'20factsaboutme right songs'
p169
aS'20factsaboutme wish lived california right'
p170
aS'20factsaboutme need texting buddy'
p171
aS'20factsaboutme call antidepressants happy pills'
p172
aS'20factsaboutme wont public without makeup'
p173
aS'20factsaboutme quite lonely'
p174
aS'20factsaboutme doubt anyone even reading tweets'
p175
aS'20factsaboutme love love love band dispute lt33'
p176
aS'20factsaboutme night time really scary meds wear forced alone thoughts'
p177
aS'20factsaboutme wish high right'
p178
aS'20factsaboutme tumblr'
p179
aS'20factsaboutme havent selfharmed weeks getting better'
p180
aS'20factsaboutme diagnosed severe depression generalized anxiety image disorder distorted thoughts'
p181
aS'20factsaboutme extremely'
p182
aS'20factsaboutme hate everything appearance'
p183
aS'20factsaboutme virgin'
p184
aS'20factsaboutme love someone refuse tell'
p185
aS'20factsaboutme natural hair color brown'
p186
aS'20factsaboutme suprisingly enough virgin'
p187
aS'want neck hands'
p188
aS'well dirty'
p189
aS'sooooo come cuddle'
p190
ag4
aS'type nigga chase shooting'
p191
ag4
aS'double dream hands yeah'
p192
aS'going dont meet jaime tony mike warped year'
p193
aS'tumblr slowly killing'
p194
aS'freaked parents hate hair gtlt'
p195
aS'sick well'
p196
aS'taking sweater warped fuck'
p197
aS'beau lights babies beautiful'
p198
aS'come cuddle'
p199
aS'sitting right next lets downstairs'
p200
aS'seriously lets makeout'
p201
aS'waiting'
p202
aS'singing'
p203
aS'straight student nothing'
p204
aS'okay gifyo life gifs'
p205
aS'yayyy'
p206
aS'dont'
p207
aS'gots wine'
p208
aS'lt333'
p209
aS'shit real youre ever fucking judge'
p210
aS'subway'
p211
aS'dont believe second chances anymore'
p212
aS'could cuddle chiodos hours'
p213
aS'come nowwwwwwwwwwwwwwwwwwwwwwwwwwwwww'
p214
aS'haha'
p215
aS'nobody dies virgin life fucks'
p216
aS'made giggle'
p217
aS'kiss someones drinking heavy drugs dont deserve pedestal something'
p218
aS'like shirt'
p219
aS'want hurry size money tappers'
p220
aS'dumbass boys sugar land lovesucks'
p221
aS'dispute'
p222
aS'well youre attractive'
p223
aS'meet whorehey lives park house'
p224
aS'someone come cuddle play video games'
p225
aS'teehee'
p226
aS'fuck fuck fuck'
p227
aS'okay need texting buddy'
p228
aS'come'
p229
aS'want cuddle'
p230
ag4
aS'monkey'
p231
aS'still sleeping'
p232
ag4
aS'dont vagina'
p233
aS'quite welcome'
p234
aS'free mind open heart worlds stage'
p235
aS'well youre attractive'
p236
aS'look horrid really want shirt'
p237
aS'arent worth tears'
p238
aS'hurt done trusting'
p239
aS'face would'
p240
aS'clever aint wise'
p241
aS'rape yell surprise'
p242
asS'2012_23'
p243
(lp244
S'played point word scrabble woop'
p245
ag4
aS'wish feelings thoughts would away dont want think dont want love dont want need'
p246
aS'phone always loose night covers stuff'
p247
aS'know mean'
p248
aS'boys arent less'
p249
aS'skinny anorexic thick obese virgin good nonvirgin friendly fake quiet rude never'
p250
aS'hold upwait minute kush'
p251
aS'tell dick quicker mexicans sprint borders'
p252
aS'love came romans'
p253
aS'fuck sideways'
p254
aS'ditch hall'
p255
aS'three'
p256
aS'days halloween'
p257
aS'excited warped'
p258
aS'people'
p259
aS'feels like mini hippopotamus hanging lashes right fuckinstoners'
p260
aS'dont even know think'
p261
aS'massive migraine want cuddle someone drink watch lion king takers'
p262
asS'2012_31'
p263
(lp264
S'stud need'
p265
aS'compares right babayyyyy'
p266
aS'hahaha'
p267
asS'2012_32'
p268
(lp269
S'talked stranger'
p270
aS'work moms office temporary'
p271
aS'work monday'
p272
as.