(dp0
S'2013_48'
p1
(lp2
S'getting twitter'
p3
aS'time abby went station tried make steal pack almost started crying left'
p4
aS'started laughing walked'
p5
aS'chris walked song saying girl touched'
p6
aS'quit talking girl come cuddle baby hahaha gayyy'
p7
aS'better'
p8
aS'kidding chill'
p9
aS'hell'
p10
aS'abby leave'
p11
aS'sexual'
p12
aS'shouldnt sweaters arent good'
p13
aS'damn'
p14
aS'good times good times'
p15
aS'remember tried kiss shoved pizza face'
p16
aS'much'
p17
aS'holy shit remember'
p18
aS'miss face licker'
p19
aS'whhhhhhhhhat'
p20
aS'talking'
p21
aS'song song'
p22
aS'play song'
p23
aS'called phone touched listening'
p24
aS'fuck song'
p25
aS'food'
p26
aS'freaks come night'
p27
aS'hell'
p28
aS'happy'
p29
aS'still alive'
p30
aS'thought joking'
p31
aS'fucking hate'
p32
aS'garrett meowing closet'
p33
aS'happy'
p34
aS'beautiful'
p35
as.