(dp0
S'2013_40'
p1
(lp2
S'jackpot winner underage doesnt money gutted'
p3
aS'pink floyd probably greatest band ever'
p4
asS'2013_41'
p5
(lp6
S'deleting twitter'
p7
aS'close giving sleep impossible anxious even though soooo tired'
p8
asS'2012_49'
p9
(lp10
S'medication makes soooo sleepy'
p11
aS'hate texting people first'
p12
aS'thanks mate'
p13
aS'cute'
p14
aS'want live shire'
p15
aS'summer much better'
p16
aS'winter cold'
p17
asS'2012_48'
p18
(lp19
S'hahah good'
p20
aS'arent school'
p21
aS'cool school thoughtsduringschool'
p22
aS'whatever needs sleep anyway'
p23
aS'whatever needs sleep anyway'
p24
aS'fuck sleep pattern'
p25
aS'shit whole world pain'
p26
asS'2012_47'
p27
(lp28
S'thats'
p29
aS''
p30
aS'makes normal'
p31
aS'diagnosed depression pretty sure'
p32
ag30
aS'annoying people potential make happy also potential make'
p33
aS'life sooo boring zzzz'
p34
aS'replies mine suckkkkkkkkkkk'
p35
asS'2012_41'
p36
(lp37
S'tonight mental tired'
p38
asS'2012_40'
p39
(lp40
S'think ocelot heart attack lolworlds'
p41
asS'2012_43'
p42
(lp43
S'sisters amazing'
p44
asS'2013_24'
p45
(lp46
S'nightie night sleep tightie hope work'
p47
aS'thats cute given'
p48
aS'phone doesnt work well turned going text sorry'
p49
aS'thing cheers animals'
p50
aS'would xbox'
p51
aS'xbox stomped'
p52
aS'sony hard microsoft committing suicide booth officially beats xbox'
p53
aS'xbox'
p54
aS'sleep sleep'
p55
aS'teaser trailer thehobbit desolation smaug unveiled tuesday june 11th 10am'
p56
asS'2013_25'
p57
(lp58
S'feeling make miss highfield already'
p59
aS'cannot wait dont call crazy'
p60
aS'noooooooooooooooo miss much thinking time'
p61
aS'feel like shittttttttttttttttttttttttttt'
p62
aS'shouldnt bless everybody'
p63
aS'jason nice shall aspire become alike possible'
p64
aS'noooo jason best'
p65
aS'ahhh start'
p66
aS'come'
p67
aS'sooo cute'
p68
aS'good luck baby future amazing matter happens'
p69
asS'2013_26'
p70
(lp71
S'hello'
p72
aS'felt like random tweet best friends ever'
p73
aS'despite work hours'
p74
aS'dont know feel like staying night'
p75
aS'soooooooo many people havent seen ages want'
p76
aS'dontcallmecrazy watch nothing else good documentary'
p77
aS'much cant tweet suck'
p78
asS'2013_27'
p79
(lp80
S'dont like morning'
p81
aS'time trip memory lane'
p82
aS'think darkness'
p83
aS'feel'
p84
aS'really past months though'
p85
aS'really dont people encourage people anorexic fashion illness'
p86
aS'reasonably happy rock bottom seconds'
p87
aS'finally phone battery'
p88
aS'death true form equality'
p89
asS'2013_20'
p90
(lp91
S'felt weird going back tommies goodbye'
p92
aS'sometimes wish things turned differently'
p93
aS'mississipi burning'
p94
aS'money ever held hand around \xc2\xa31500 turns random rich occasionally'
p95
aS'cannot think anything entertaining well arent disappointment'
p96
ag30
aS'entertain'
p97
aS'crosses fingers'
p98
aS'least gecko company'
p99
aS'becoming nocturnal kinda sucks'
p100
aS'weird mood'
p101
asS'2013_21'
p102
(lp103
S'wish could speak'
p104
aS'grand scheme things anything important'
p105
aS'musician'
p106
aS'space minutes mood drops reasonable abysmal'
p107
aS'nirvana manic street preachers radiohead rhcp muse coldplay good'
p108
aS'many incredible bands listen'
p109
aS'agreed sure entitled opinions entitled rightly tell theyre bigoted'
p110
aS'respect increased even tonights question time'
p111
aS'paisley dick haha'
p112
aS'also soon perpetrator muslim religion blame like blaming aurora shootings batman films'
p113
aS'friends bathroom getting higher empire state'
p114
aS'muslim murders somebody people claim driven religion mental health problems'
p115
aS'sleepy whatsoever'
p116
aS'takes courage'
p117
aS'benefits religion offers unique problems offers'
p118
aS'xboxreveal kinda weak seen infomercials carpet cleaner interested xboxone'
p119
aS'doesnt microsoft'
p120
aS'xbox conference disappointment looks like playstation'
p121
aS'xbox conference shit'
p122
asS'2013_22'
p123
(lp124
S'moments happiness elude'
p125
aS'thats really nice'
p126
aS'thinking sleep'
p127
aS'kind tired'
p128
aS'leah fired pouting much'
p129
asS'2013_23'
p130
(lp131
S'miaow'
p132
ag30
aS'month looking forward'
p133
aS'really'
p134
aS'nightie nightie sleep tightie'
p135
aS'everything repetition'
p136
aS'want field surrounded darkness'
p137
aS'avoid something stupid definitely stay strong'
p138
asS'2012_26'
p139
(lp140
S'lotr good'
p141
aS'shut cares think'
p142
asS'2012_24'
p143
(lp144
S'theres steven gerrard'
p145
asS'2013_28'
p146
(lp147
S'hard sleep'
p148
aS'bored mind'
p149
aS'hate guilty thoughts'
p150
ag30
aS'optimistic pessimist'
p151
aS'took sleeping medication still cant sleep'
p152
aS'whats question'
p153
asS'2013_29'
p154
(lp155
S'havent listened long ahhhhhhh best birthday present ever'
p156
ag30
aS'feel totally ease situation youd agonised months beforehand'
p157
aS'happy birthday'
p158
aS'welcome'
p159
aS'daughter called india hahahaha'
p160
aS'katie hopkins'
p161
aS'wish best songs ever'
p162
asS'2012_20'
p163
(lp164
S'time tomorrow foreverweedy'
p165
asS'2013_7'
p166
(lp167
S'thats silly realise sweet tired literally falling asleep night xxxxxx'
p168
asS'2013_6'
p169
(lp170
S'girlfriends boyfriends watching porn genuinely confused'
p171
asS'2013_1'
p172
(lp173
S'honestly think gerrard still best midfielders premier league'
p174
aS'continuous stream customers like hours angry stupid stuff'
p175
aS'hours shift signs life detected'
p176
aS'least work mildly entertaining remotecontrolhelicopters'
p177
aS'everyones like sick party last night like yeah sound went'
p178
aS'hobbit'
p179
asS'2013_3'
p180
(lp181
S'listening good song best thing ever'
p182
asS'2012_23'
p183
(lp184
S'haha please teach return anyway gotta speak next week'
p185
aS'never foreverspastic'
p186
aS'guess remain forever spastic really want come gotta back hospital soon'
p187
aS'wait mean hugos endless bumming zhao ended'
p188
aS'imprinted onto brain remember made shyvana abandoned'
p189
aS'remember hoyhoyhoy'
p190
aS'still rock mantheon'
p191
aS'haha thanks discharged week back kicking everyone'
p192
aS'highly doubtful'
p193
aS'fair might improved time gone'
p194
aS'full metal retard'
p195
aS'thing painful lane hugo worse normal'
p196
aS'pretty much fine thanks'
p197
aS'idea nothing happened past weeks would pain related'
p198
aS'entered whole world pain'
p199
asS'2013_9'
p200
(lp201
S'thats horrid stop browsing rwtf raww rpics nicer place'
p202
aS'sounds'
p203
aS'give forever touch'
p204
aS'would stayed night'
p205
aS'lets back start'
p206
aS'dont know lovely'
p207
aS'everyone right hold whatever beliefs want everyone else right find beliefs fucki'
p208
aS'always give people wrong impression'
p209
aS'like tell truth wont upset dont'
p210
aS'someone lies angry hate angry thats character makes hate lying even'
p211
aS'cant think anything worse actually'
p212
aS'hate lied'
p213
aS'hungrier'
p214
aS'give forever touch'
p215
asS'2013_8'
p216
(lp217
S'always second best story life'
p218
aS'humans shit wish could'
p219
aS'time much slower want fast'
p220
aS'richey edwards'
p221
aS'feed smiles'
p222
aS'multigrain crackers underated'
p223
aS'dont believe love'
p224
aS'call sane youve experienced insanity'
p225
aS'gonna come back promise'
p226
aS'love shes best'
p227
asS'2013_17'
p228
(lp229
S'head fucked'
p230
aS'think brain damage'
p231
asS'2012_52'
p232
(lp233
S'thank chinese kids worked asses year presents want goodlads'
p234
asS'2012_50'
p235
(lp236
S'ever school good feeling'
p237
aS'dont understand someone would want listen music ridiculously quietly driving'
p238
aS'love hobbit'
p239
aS'hobbit sooooo good'
p240
asS'2012_51'
p241
(lp242
S'going sleep whilst listening music best thing world'
p243
aS'never anything tweet life definition boring'
p244
aS'pure crazy'
p245
aS'00faggot'
p246
aS'faggot'
p247
aS'perfectalbums david gray white ladder'
p248
aS'better worth wait'
p249
aS'advert runescape followed advert world warcraft'
p250
aS'another year part'
p251
aS'year wait part'
p252
aS'hobbit second time'
p253
aS'macs tasty'
p254
aS'like fast food much'
p255
asS'2012_18'
p256
(lp257
S'much motivation needed many things'
p258
aS'second thoughts twitter pretty shit night'
p259
aS'real madness'
p260
aS'want laugh watch'
p261
asS'2012_19'
p262
(lp263
S'youre best dont succeed'
p264
aS'plan start revision today didnt work'
p265
aS'leftintheloop'
p266
aS'madness'
p267
asS'2013_37'
p268
(lp269
S'hmmmm sure good mood really'
p270
aS'distance dumb'
p271
aS'come gloucester havent seen long'
p272
aS'works mean'
p273
ag30
aS'feel cold'
p274
aS'mood flatline'
p275
ag30
aS'looks right'
p276
asS'2013_36'
p277
(lp278
S'already know want make pray want hear bitches'
p279
aS'never girl like'
p280
aS'speeches incredible brilliant brilliant manager'
p281
aS'bill shankly'
p282
aS'mine'
p283
aS'manics best'
p284
aS'time'
p285
aS'female'
p286
ag30
aS'hahahha'
p287
aS'gecko'
p288
aS'like tiny confidence anxiety kicks like hell aint havin confidence fool yeah sucks'
p289
aS'josie cute'
p290
aS'leaving hard'
p291
aS'left hurts dont know'
p292
asS'2013_35'
p293
(lp294
S'woken comfy move'
p295
aS'good looked amazing come year'
p296
aS'watch gotta nothing dedication'
p297
aS'first draw liverpool'
p298
aS'need good anime watch'
p299
aS'need watch like'
p300
aS'game smartphone wake start downloading game goes back sleep\xe2\x80\xa6'
p301
aS'teenage dirtbag'
p302
aS'never thought would linking article guardian'
p303
aS'somebody take adventure'
p304
aS'still awake still dissatisfied life still feel shit'
p305
aS'wait serious'
p306
aS'theres least three spider nests every home think rather homeless face'
p307
asS'2013_34'
p308
(lp309
S'year since truck muscles still ache every'
p310
aS'besides benefits provides starting reach conclusion religion terrible society'
p311
aS'amazing body'
p312
aS'hate anxiety'
p313
aS'thats cutest picture ever'
p314
aS'dont spend enough time reddit'
p315
aS'think spending much time reddit'
p316
aS'wish'
p317
asS'2013_33'
p318
(lp319
S'feel shit tired lonely isnt'
p320
aS'feel like shitam shit'
p321
aS'adam gemili beast'
p322
aS'existed religion wouldnt'
p323
aS'difficult hate'
p324
aS'well done beth happy'
p325
aS'liking shit facebook right'
p326
aS'fucking congratulations mate'
p327
aS'reckon youre bent mate'
p328
aS'bored nothing'
p329
aS'poem girl quite'
p330
aS'dead mans shoes'
p331
asS'2013_32'
p332
(lp333
S'nope'
p334
aS'cruel kind speak mind'
p335
aS'miaow'
p336
aS'chris packham seems like nice'
p337
aS'yeah lets self harm stop eating cooooooool wait illness fashion'
p338
aS'would rather hear truth rather string lies'
p339
aS'people really glorify mental illness fuck become fashion sickening'
p340
aS'haha everyone pissing'
p341
aS'even self esteem'
p342
aS'dont play hard'
p343
aS'many people worship existed quite obviously dick'
p344
aS'listen strange range music thats literally dependent mood'
p345
aS'stop attractive please'
p346
aS'welcome japan'
p347
aS'want sleep'
p348
aS'absolute shit sigh'
p349
aS'think funny making someone likes different things dislike'
p350
aS'lasted days relapsing high score'
p351
aS'trying sleep hours'
p352
aS'mood yoyos'
p353
asS'2013_31'
p354
(lp355
S'cant tell mood dependent music listening music listening dependent mood'
p356
aS'enjoy pizza'
p357
aS'enjoy pizza'
p358
aS'like biggest mood swings possible'
p359
aS'mental illness isnt cool trendy quirky nothing like shows books present life'
p360
aS'life pizza makes people happy mainly jayde lauren'
p361
aS'think brattiest sister'
p362
aS'wore gloss cried cross'
p363
aS'best'
p364
aS'folder childhood'
p365
aS'song'
p366
aS'woooohoooo'
p367
aS'aaaaaaaaand gone'
p368
aS'think world ending'
p369
aS'giant hailstones'
p370
aS'sudden heavy rain lightning'
p371
aS'disney cool though'
p372
aS'hahaha actually seen'
p373
aS'never sure need'
p374
ag30
aS'looking back'
p375
aS'said changes goes'
p376
aS'inbetweeners always leaves really good mood'
p377
aS'could friends'
p378
aS'people think cant friends youve relationship someone nahhh thats bullshit'
p379
aS'chill rock music'
p380
aS'didnt really anything help sure remember need talk'
p381
asS'2013_30'
p382
(lp383
S'people actually make sick'
p384
aS'miss'
p385
aS'nice'
p386
aS'listen radioactive amazing moment literally feel like'
p387
aS'felt good'
p388
aS'pretty worrying'
p389
aS'sometimes relatively minor detail life comes attention everything goes simple complicated'
p390
aS'shittttttttttttttttttttttttt'
p391
aS'nothing frustrating trying communicate complete idiot'
p392
aS'wanna japan'
p393
aS'pretty'
p394
aS'wanna know'
p395
aS'rivalry begins'
p396
aS'baby completely stole thunder'
p397
aS'royal baby born birthday yeah'
p398
asS'2013_19'
p399
(lp400
S'hayfever sucks'
p401
aS'havent seen mirror'
p402
aS'apparently theres really funny tweet'
p403
aS'george osbournes attempt star wars humour cringeworthy'
p404
aS'never gonna nirvana live'
p405
aS'wigan'
p406
aS'chance'
p407
aS'cant sleep gonna follow random people twitter hope entertain'
p408
aS'tell said still biggest twat ever'
p409
aS'whats original story line teenager americans turned forced suicide'
p410
aS'ruins random film'
p411
aS'school days week seems like lifetime'
p412
aS'seen good film'
p413
aS'steal heart hold tongue'
p414
asS'2013_18'
p415
(lp416
S'nigella lawson'
p417
aS'well whatever nevermind'
p418
aS'think 10000 things'
p419
aS'wasnt expecting reply'
p420
aS'hardest'
p421
aS'much prefer david starkey entertaining aura arrogance radiates intolerable'
p422
asS'2012_30'
p423
(lp424
S'awww wings bikes look pretty'
p425
aS'swear everyone secretly patriotic'
p426
asS'2013_39'
p427
(lp428
S'josieeeee'
p429
aS'still empty dont want move'
p430
aS'people rush around instead still'
p431
aS'hopefully bring back good memories haha'
p432
aS'feel'
p433
aS'happens'
p434
aS'scared nervous everything'
p435
aS'fuckkkkkkkkkk head'
p436
aS'seriously miss able text'
p437
aS'havent replied ages'
p438
aS'routine bites hard'
p439
aS'manics good live want already'
p440
asS'2013_38'
p441
(lp442
S'told much time repay'
p443
aS'wish'
p444
aS'curtis strange voice fits well music'
p445
aS'love tear apart'
p446
aS'weeks tonight mind place'
p447
asS'2013_11'
p448
(lp449
S'dont know whether'
p450
aS'give forever touch'
p451
aS'schools shitty keep going babe'
p452
aS'distance shite nobody area would wouldnt people adore live away'
p453
aS'march like snowing'
p454
asS'2013_10'
p455
(lp456
S'sounds like ideal saturday night'
p457
aS'work boring'
p458
aS'would change picture dont like photos'
p459
aS'ahahaaha shouldve recorded'
p460
ag30
aS'nice little rome total'
p461
aS'well done'
p462
aS'nowplaying manic street preachers motorcycle emptiness'
p463
aS'haha fuck nani'
p464
aS'tell love come back haunt'
p465
aS'good luck'
p466
aS'immune system getting along well turned back'
p467
aS'someone please come give massage back killing'
p468
aS'argh fucking horrible'
p469
aS'waiter'
p470
aS'fucking miss everything hate'
p471
asS'2013_13'
p472
(lp473
S'shiny happy people laughing'
p474
aS'hope youre'
p475
aS'love cant wait'
p476
aS'gonna life would shitter never'
p477
aS'funny thing much better without'
p478
aS'super hexagon hard'
p479
asS'2013_12'
p480
(lp481
S'friday night nirvana'
p482
aS'dont pregnant'
p483
asS'2013_14'
p484
(lp485
S'doesnt love'
p486
aS'pomf pomf kimochi'
p487
aS'jealous seeing happy couples'
p488
as.