(dp0
S'2013_5'
p1
(lp2
S'askvba diagnosed ptsd biloxi denied compensation completely unfair'
p3
aS'want thank many years service country'
p4
asS'2013_4'
p5
(lp6
S''
p7
aS'watching american idol'
p8
aS'disgrace'
p9
aS'watching phil'
p10
aS'vietnam veteran living biloxi close hospital area many homeless veterans'
p11
aS'makes wonder else lipsynched'
p12
aS'president obamas inauguration went without hitch'
p13
asS'2013_7'
p14
(lp15
S'watching'
p16
ag7
aS'rude'
p17
ag7
aS'rude'
p18
aS'went child shot penicillin'
p19
ag7
aS'amen'
p20
aS'totally agree crap'
p21
aS'take time well fans happily wait back feet'
p22
aS'ak47 machine sporting weapon needed defense home \xe2\x80\x94former president reagan'
p23
aS'president obamas getting ready youre excited hear sotu speech tonight'
p24
aS'wonder allowed taken alive lapd kill'
p25
asS'2013_6'
p26
(lp27
S'ignore ptsd diagnosis made psychologist'
p28
aS'cost applying geen card prohibitive'
p29
aS'suppose lapd shoots every truck california catch'
p30
aS'cannot agree'
p31
aS'watched beyonce half time showdisapointed'
p32
asS'2010_45'
p33
(lp34
S'world amazoncom selling guide pedophiles keeping honest phil'
p35
asS'2013_9'
p36
(lp37
S'correct'
p38
asS'2014_24'
p39
(lp40
S'grandfather best thing'
p41
asS'2013_8'
p42
(lp43
S'idea'
p44
aS'waiting resolution ptsd claim since 2005'
p45
aS'agree save even child violence obligation wedemandavote'
p46
ag7
ag7
aS'olympics would ever heard pistorius'
p47
aS'finished watching assgood movie'
p48
asS'2013_11'
p49
(lp50
S'needs centralize double triple staff whatever takes'
p51
aS'contracts states policy'
p52
aS'enjoy hearing opinions even though dont always agree'
p53
aS'read leaving view'
p54
aS'brown thug'
p55
aS'happen better choice sick bastard'
p56
asS'2013_10'
p57
(lp58
S'miss watching view'
p59
aS'friend multiple immunodeficiencies neutropenia retweet incase someone info'
p60
aS'away disgrace'
p61
aS'benefit existence least since navy 1960s'
p62
aS'drphilwhy talk book every show wrote book'
p63
aS'drphilhow live without money'
p64
aS'drphilhow live without money'
p65
aS'john coales cancer greta susteren reveals husband battling disease huffpost deserves'
p66
asS'2013_13'
p67
(lp68
S'went blues jazz festival today long beach great free love coastal'
p69
aS'years typically works'
p70
ag7
aS'princess casino biloxi went smokeless katrina business good casino biloxi'
p71
aS'dont like tweet ahead block'
p72
aS'trash'
p73
aS'happens dont taxes'
p74
aS'organization might want veteran homelessness happen long puts roadblocks'
p75
aS'diagnosed ptsd several mental health professionals hospital denied coverage'
p76
aS'agree immigration system broken long\xe2\x80\x94and congress needs'
p77
asS'2013_12'
p78
(lp79
S'dont trust many cases medical errors'
p80
ag7
aS'disabled vietnam veteran dealing compensation tell everyone article bull shit'
p81
asS'2013_20'
p82
(lp83
S'watching'
p84
asS'2013_27'
p85
(lp86
S'hungry'
p87
asS'2013_16'
p88
(lp89
S'park kids today cloud'
p90
aS'michaels comment taste unexpected'
p91
asS'2013_19'
p92
(lp93
S'sherri'
p94
asS'2013_18'
p95
(lp96
S'true'
p97
asS'2013_14'
p98
(lp99
S'like great soul emulate robin roberts america loves robin'
p100
as.