(dp0
S'2013_39'
p1
(lp2
S'sundaymorning miamibeach miami beach sunrise relax lifeguardstand'
p3
aS'cheers youknowyoulovedthese icepops throwbackthursday'
p4
asS'2013_25'
p5
(lp6
S'hasnt taken since realheatfan miamiheat'
p7
aS'believe miamiheat champs'
p8
aS'time james time miamiheat'
p9
aS'getting zone game miamiheat game7 therealmiami nbafinals'
p10
asS'2013_26'
p11
(lp12
S'doobies face bottles case pills half wait nigga fuck'
p13
aS'wishing celebrating birthday cool workout clothes neon clothes whichever theme decided worksucks'
p14
aS'therealmiami southpoint relaxing ilovemycity'
p15
aS'getting munchies tacobell fourthmeal'
p16
asS'2013_27'
p17
(lp18
S'rain miami coolshit'
p19
aS'beachesdemiami therealmiami miamibeach miami relaxing playa pleasedontstopthemuzic cindyjoyyy'
p20
asS'2009_5'
p21
(lp22
S'getting ready dinner'
p23
asS'2013_28'
p24
(lp25
S'zimmerman guilty freeman notguilty'
p26
aS'rich people mountains'
p27
aS'need little time cause dont money right'
p28
aS'casino winning'
p29
aS'3inthemorning casino jackpot slots miamijaialai'
p30
aS'hope dont stick series series weak fill series shoes'
p31
asS'2013_29'
p32
(lp33
S'southbeachtow suck balls'
p34
aS'espysbestteam miami heat'
p35
aS'zaxbya star pepperoni rolls best gainesville fivestar zaxbys gainesville\xe2\x80\xa6'
p36
aS'would rather fishing good work'
p37
asS'2012_16'
p38
(lp39
S'babe smell neither start cooking'
p40
aS'make happen self'
p41
aS'always easier said done'
p42
aS'never understood always full looks like daytime club'
p43
aS'listen alcoholic alcoholics meetings drunk parties'
p44
aS'conversation jumps like'
p45
aS'miss percent shots dont take'
p46
aS'ladies make boyfriend scream ever sincerely call duty'
p47
asS'2012_17'
p48
(lp49
S'hungry hungry serious thought hungry kidding'
p50
aS'today ordered italian came american cheese doesnt work'
p51
asS'2012_14'
p52
(lp53
S'bulls knicks playoff status game'
p54
aS'nice guys finish last awesome guys finish face'
p55
asS'2012_15'
p56
(lp57
S'hero'
p58
aS'saying sports game along says'
p59
asS'2012_12'
p60
(lp61
S'dont think marquette going able pull gogators'
p62
aS'said girl today youre girl replied tell something dont know said well salad'
p63
aS'ronny turiaf heat'
p64
aS'heat'
p65
aS'even though consciously know rerun hours still watch sportscenter'
p66
asS'2012_13'
p67
(lp68
S'doesnt matter faster mine light sorry dodge charger loveweavingthroughtraffic'
p69
aS'live fantastic reason never yolo'
p70
aS'kentucky wizards best team college might good nbas worst reason enough never watch ncaa'
p71
aS'nemos friends dont touch boat nemo yolo'
p72
aS'nothing like driving'
p73
aS'send girl promise wont show promise wont friends daaaaamnnn'
p74
aS'hate forget turn swag night wake covered hoes'
p75
asS'2012_10'
p76
(lp77
S'next visit sunshine state'
p78
aS'feels good priority others'
p79
asS'2012_11'
p80
(lp81
S'need meet answered'
p82
aS'bored open fridge nothing open pantry nothing lower standards repeat'
p83
aS'haha story life'
p84
aS'story florida gators baseball takes florida state tuesday'
p85
aS'love springbreak miami right live'
p86
asS'2012_18'
p87
(lp88
S'continuously money'
p89
aS'serious arguments friends usually debating sports topics'
p90
aS'calling everyone shut fuck answers mommy friends penis marijuana cumshot orgy'
p91
asS'2012_19'
p92
(lp93
S'correction'
p94
aS'love south beach toplesstanning'
p95
asS'2013_11'
p96
(lp97
S'crush'
p98
aS'door cinema club station'
p99
asS'2011_19'
p100
(lp101
S'bring bulls'
p102
aS'lakers swept second round'
p103
asS'2011_18'
p104
(lp105
S'think fell love porn star turn camera born star'
p106
aS'promotion gonna make cinco mayo much better'
p107
aS'followed'
p108
asS'2013_5'
p109
(lp110
S'think could beat followers beer pong'
p111
asS'2013_4'
p112
(lp113
S'first catchoftheday fishing relaxing mytherapy miami'
p114
aS'beer pong thats shit like'
p115
aS'true'
p116
asS'2013_6'
p117
(lp118
S'hour traffic fucking kidding'
p119
asS'2013_1'
p120
(lp121
S'battle rookies russellwilson'
p122
aS'niggas cant hold back'
p123
aS'heaven earth goodlife'
p124
aS'posted photo'
p125
aS'orangebowl goodlife sunlifestadium'
p126
aS'meet sunlifestadium orangebowl miami'
p127
asS'2013_3'
p128
(lp129
S'miamibeerfest therealmiami beer miaminights wesleywes12 maxsuarez'
p130
aS'lebrons better jordan right holla lebron saves looney tunes alien race'
p131
aS'bright side mccarrons girlfriend definitely real'
p132
aS'jonathandavid93 rico22686 love'
p133
asS'2013_2'
p134
(lp135
S'lmfao'
p136
aS'bama'
p137
asS'2013_9'
p138
(lp139
S'shady shit'
p140
asS'2013_8'
p141
(lp142
S'getting ready work games fight tonight budlight beerpong miamiheat floridagators'
p143
aS'kobe logic nevergetsold'
p144
asS'2012_38'
p145
(lp146
S'first iphone5'
p147
aS'better thanks'
p148
asS'2012_39'
p149
(lp150
S'apparently score intertouchdownception'
p151
aS'still better apple maps replacement refs'
p152
asS'2012_49'
p153
(lp154
S'hyfr'
p155
aS''
p156
aS'starisland status therealmiami artbasel miami goodlife'
p157
aS'status haha'
p158
aS'enjoying bdubs'
p159
asS'2012_48'
p160
(lp161
S'thank miami sunlifestadium miamidolphins'
p162
aS'cant right miami therealmiami'
p163
asS'2012_45'
p164
(lp165
S'therealmiami miami fishing sunday'
p166
aS'could therealmiami miamidolphins biscaynebay miami budlight brickell sundaymorni'
p167
aS'ummmouch stapled ouch workerscomp dontusestaplerlikeagun'
p168
aS'best raspberry ketones supplement weight loss'
p169
aS'finally vote miami miamimarlins'
p170
aS'nothing like homecooked meal'
p171
aS'crazy find things stop looking reallifeissues'
p172
asS'2012_44'
p173
(lp174
S'love butts'
p175
aS'successful fishing miami'
p176
asS'2012_47'
p177
(lp178
S'grand finale miamidolphins sideline cheerleaders miami goodlife'
p179
aS'miamidolphins prime club therealmiami miami'
p180
aS'third game clublevel miamidolphins miami therealmiami'
p181
aS'second special dance miamidolphins cheerleaders miami therealmiami'
p182
aS'first tailgate miamidolphins sunlifestadium therealmiami miami'
p183
aS'therealmiami blackbird waitinline miaminights miami fuckthis'
p184
aS'haha know miaminights beer therealmiami goodtimes'
p185
asS'2012_46'
p186
(lp187
S'freetebow gators'
p188
aS'good night nintendo64 beer marioparty drinkinggames'
p189
asS'2012_41'
p190
(lp191
S'veggie pizza cheese delicious'
p192
aS'year little girl hotel drew happyhalloween cute'
p193
aS'love noble m600 whoo'
p194
asS'2012_40'
p195
(lp196
S'starting right'
p197
aS'last miami marlins game yeah'
p198
aS'legit cohiba cuban cigar'
p199
asS'2012_42'
p200
(lp201
S'woohoo made work week party'
p202
aS'vodka'
p203
aS'heated debate obama romney debate2012'
p204
asS'2011_52'
p205
(lp206
S'status fins'
p207
aS'staying late tonight badass'
p208
aS'norris cole future star'
p209
asS'2011_51'
p210
(lp211
S'watching foreman fight best fights ever seen'
p212
aS'thought things emsboys done everything'
p213
asS'2011_50'
p214
(lp215
S'skit tebow'
p216
aS'time definitely come another level game'
p217
aS'dont care waking noon life much already passed'
p218
aS'good heart always thinking others'
p219
aS'counting days till heat take court'
p220
aS'tebow winner'
p221
asS'2012_8'
p222
(lp223
S'sometimes know time move easy comfortable make'
p224
asS'2012_9'
p225
(lp226
S'work hotel miami beach know'
p227
aS'year scotch cuban thisisthelife'
p228
asS'2012_4'
p229
(lp230
S'nothing better well rested long'
p231
aS'whats friend bonjour'
p232
aS'vernon davis beast'
p233
asS'2012_5'
p234
(lp235
S'open accounting sounds like combination'
p236
aS'ready watch heat soar bucks letsgoheat'
p237
aS'fighting miguel cotto miss ducking'
p238
aS'taking back mario kart golden'
p239
asS'2012_6'
p240
(lp241
S'great game last night baseball season retweet cant wait 2012 miami baseball'
p242
aS'awesome halftime show'
p243
asS'2012_7'
p244
(lp245
S'little beard'
p246
aS'time sleep cant insomnia'
p247
asS'2012_1'
p248
(lp249
S'monday never fails screw beginning work week stressed'
p250
asS'2012_2'
p251
(lp252
S'story bigger tebow really'
p253
aS'last night lead overtime playoff sports tweets second record 9420'
p254
asS'2012_3'
p255
(lp256
S'never bigger pussy life'
p257
aS'real niggas live miami para cepa going'
p258
aS'millertime'
p259
aS'bossssshhhhhhhh miller time watch'
p260
asS'2012_52'
p261
(lp262
S'damn 99jamz killing'
p263
aS'looking back past realizing fucking idiot still dont regret'
p264
asS'2012_50'
p265
(lp266
S'dont fucking judge'
p267
aS'good'
p268
asS'2012_51'
p269
(lp270
S'last home game miamidolphins sunlifestadium sideline therealmiami goodlife'
p271
aS'place never gets jonathandavid93 miamidolphins tailgate therealmiami'
p272
aS'enjoying sounds grandcentral mario shit'
p273
aS'chill'
p274
asS'2011_35'
p275
(lp276
S'feeling well'
p277
aS'listening notorious realmusic'
p278
aS'funny dreams arent real sometimes wish'
p279
asS'2011_36'
p280
(lp281
S'official hours straight going sleep like king'
p282
asS'2011_31'
p283
(lp284
S'check tire check tire suck dick'
p285
aS'want beach hope weather stays nice sunny'
p286
asS'2011_33'
p287
(lp288
S'much traffic miami beach sunday'
p289
asS'2011_39'
p290
(lp291
S'skip send shirt'
p292
aS'theres nothing like driving'
p293
asS'2013_42'
p294
(lp295
S'preseason coaches poll kentucky mich lville duke arizona kansas syracuse florida'
p296
asS'2013_43'
p297
(lp298
S'everywhere fight'
p299
aS'home away home miamidolphins dolfan phins sunlife'
p300
asS'2013_40'
p301
(lp302
S'really enjoying fall weather'
p303
asS'2013_41'
p304
(lp305
S'youre gators'
p306
asS'2013_47'
p307
(lp308
S'finds girls attractive underwear completely naked\xe2\x80\x9d'
p309
ag156
aS'damn pandora point jamming last hours'
p310
asS'2013_44'
p311
(lp312
S'dont even need alcohol make decisions'
p313
aS'thought didnt bail aaronhernandez freehernandez halloween newenglandpatroits'
p314
aS'youre excited season premiere girlcode tonight'
p315
aS'best snow cones miami snowconematt snowcones miami flamingplaza therealmiami mattcorey9'
p316
asS'2013_45'
p317
(lp318
S'welcome world rebecca 1dayold babygirl babycousin'
p319
asS'2012_29'
p320
(lp321
S'roses violets blue suck poetry show tits'
p322
aS'anyone else experiencing rolling blackout miamiweather'
p323
aS'starting vacation right stayinguplate'
p324
aS'fighting games press random buttons hope best'
p325
aS'dude boyfriend soccer goalie doesnt mean cant score'
p326
asS'2012_28'
p327
(lp328
S'little cousin caleb familia'
p329
aS'never front guest beautifulbrazilians'
p330
asS'2012_27'
p331
(lp332
S'best pinchos miami'
p333
aS'excited cant sleep beerolympics2012'
p334
aS'dont think certain anger problems havent seen play video games'
p335
asS'2012_26'
p336
(lp337
S'lets spain'
p338
aS'expensive heineken pack'
p339
aS'dinner time'
p340
aS'finish hour drum session first session years'
p341
aS'playing game first time would like tutorial first moments later'
p342
asS'2012_25'
p343
(lp344
S'level legendary club level'
p345
aS'hate take long stay night'
p346
aS'munchies using vending machine'
p347
aS'heat arrived wade lebron team love'
p348
aS'lebron james ringless jokes 20032012'
p349
aS'good times'
p350
aS'lets talk heat shut closing home team double figures heatnation partyupinbiscayne'
p351
aS'need buying clothing'
p352
aS'chivitos holy crap'
p353
asS'2012_24'
p354
(lp355
S'view boston market would thought'
p356
aS'drink beer drunk'
p357
aS'lion king play'
p358
asS'2012_23'
p359
(lp360
S'enjoying miami vibe people love family'
p361
aS'dont ever arnold palmer lite sucks'
p362
aS'congratulationa miami springs class 2012'
p363
aS'attending sisters graduation congratulations cindyjoy proud'
p364
aS'theres always person friendship group gets picked'
p365
aS'changing entire message dont know spell word'
p366
asS'2012_22'
p367
(lp368
S'welcome good life'
p369
aS'real miami'
p370
aS'never wanted beer want right thirsty'
p371
aS'cool'
p372
aS'fooood'
p373
asS'2012_21'
p374
(lp375
S'really need many flyers'
p376
aS'posted photo'
p377
aS'food challenge'
p378
aS'youll know creepy'
p379
aS'food challenge'
p380
aS'want sleep cant frustrated countingsheep'
p381
asS'2012_20'
p382
(lp383
S'multiple back plans cause main plan never seems work'
p384
asS'2011_27'
p385
(lp386
S'follow'
p387
asS'2011_28'
p388
(lp389
S'derek jeter normans beach'
p390
aS'hell yeah thats bitch hahaha'
p391
asS'2011_44'
p392
(lp393
S'gville status already know'
p394
asS'2011_45'
p395
(lp396
S'calling pacquiao'
p397
aS'dolphins much needed victory ravens biggest pittsburgh steelers ravens always good game'
p398
asS'2011_46'
p399
(lp400
S'give know tebow'
p401
asS'2011_47'
p402
(lp403
S'pulled padded searched miami beach books really'
p404
asS'2011_41'
p405
(lp406
S'blackberry couldnt stuff together last days doesnt help argument'
p407
asS'2011_42'
p408
(lp409
S'think took hand like jackhammer someones face'
p410
aS'hell yeah'
p411
aS'yeah buddy'
p412
asS'2011_43'
p413
(lp414
S'youknowiloveyouwhen even though give hangovers still drink next haha'
p415
asS'2011_48'
p416
(lp417
S'really found bokampers broward'
p418
aS'know'
p419
aS'started give stop fearing consequence'
p420
aS'hard open honest could whats mind'
p421
aS'nothing better watch sportscenter annoy maybe drink watch'
p422
aS'love football tights lt3lt3'
p423
aS'funny respects security guards'
p424
aS'really meyer ohio state waited till penn state offer'
p425
aS'ready start week right lets'
p426
asS'2011_49'
p427
(lp428
S'town dont much jogging'
p429
aS'hate graveyard shift time sleep'
p430
aS'brother hate passion'
p431
aS'bryant paul howard james wade bosh sounds like best thing ever happen rivals concerned'
p432
aS'whats tonight'
p433
aS'awesome predicted tebow going throw yards'
p434
aS'whenyourdrunknever hesitate exactly whats mind regardless consequence'
p435
asS'2013_37'
p436
(lp437
S'want face'
p438
aS'throwbackthursday wayback'
p439
aS'throwbackthursday wayback therosadofam'
p440
aS'beasley back heat'
p441
asS'2013_36'
p442
(lp443
S'club level status'
p444
aS'already'
p445
aS'counting minutes thursdaynightfootball ravensvsbroncos'
p446
asS'2013_35'
p447
(lp448
S'gators gogators'
p449
aS'back throwbackthursday oldschool brothers'
p450
asS'2013_34'
p451
(lp452
S'growing girls best part life throwback throwbackthursday\xe2\x80\xa6'
p453
aS'blackbird therealmiami miaminights miami downtown drunk'
p454
aS'marlins miamimarlins'
p455
asS'2013_33'
p456
(lp457
S'pizzachallenge kanaantheog'
p458
aS'must latin food cafe leche'
p459
aS'nurseshark sharkweek therealmiami rickenbackercauseway miami fishing'
p460
asS'2013_32'
p461
(lp462
S'amazingcars247'
p463
aS'jaypink'
p464
asS'2013_31'
p465
(lp466
S'life beachesdemiami miami southbeach sobe therealmiami beach sand water\xe2\x80\xa6'
p467
aS'heres guys automatically shit something happens\xe2\x80\x9d'
p468
aS'sexiest female athletes alive'
p469
asS'2013_30'
p470
(lp471
S'mlb13 theshow firsttimeplaying josebautista'
p472
aS'getting exam might need glasses foureyes'
p473
asS'2012_34'
p474
(lp475
S'miamidolphins cheerleaders fashion show night begins therealmiami'
p476
ag156
aS'baby cousin caleb'
p477
aS'nothing better pool'
p478
asS'2012_35'
p479
(lp480
S'engineering finest skyline'
p481
aS'someone thank today saying back reminds high school'
p482
aS'damn directtv'
p483
asS'2012_36'
p484
(lp485
S'first sunday season never fails smile face lets dolphins'
p486
aS'work overrated adultlifesucks'
p487
aS'watching themightyducks'
p488
asS'2012_37'
p489
(lp490
S'gatornation brotherjimmys gogators'
p491
asS'2012_30'
p492
(lp493
S'wishing friends didnt sucks much balls showthefuckup'
p494
aS'greenstreet grove spot ericsplostra funny doesnt need body guard'
p495
aS'billion women world make fucking sandwich'
p496
aS'dont broke trying look rich'
p497
asS'2012_31'
p498
(lp499
S'watching smallsoldiers awesome movie throwback'
p500
aS'lights dont want rear window'
p501
aS'continuously moneyits okay thenotoriousbig'
p502
aS'sure also sure youre located'
p503
aS'love'
p504
aS'heard ryanlochte visited miamisprings pool pretty cool'
p505
aS'hate feeling'
p506
asS'2012_32'
p507
(lp508
S'chad johnson behind bars great start dolphins'
p509
aS'therealmiami'
p510
aS'therealmiami'
p511
aS'different side miami therealmiami'
p512
aS'playing pool cold onepub downtown miami'
p513
aS'lakers stacking doesnt matter'
p514
ag156
aS'good friend bail jail youre best friend jail'
p515
aS'comes rain'
p516
asS'2012_33'
p517
(lp518
S'want long night therealmiami'
p519
aS'downtown fortlauderdale'
p520
aS'still reppin'
p521
as.