(dp0
S'2013_42'
p1
(lp2
S'turning justin'
p3
aS'hate sundays monday'
p4
aS'ready midnight tonight holdtight musicmondays\xe2\x80\x9di cant wait'
p5
aS'defines high rise falling'
p6
aS'filmfridays'
p7
aS'dont know need features thecamel'
p8
aS'missed last night watch'
p9
aS'school tomorrow drinks'
p10
aS'refrigerator perfect example matters whats inside'
p11
aS'wanna sleep like hours'
p12
aS'happy remembered theres school tomorrow'
p13
aS'make music express thank listening letting tell heart musicmonday allthatmatters'
p14
aS'trying allthatmatters lets'
p15
aS''
p16
aS'allthatmatters musicmondays'
p17
aS'itunes asgfjkgjvjfkkkkn thank musicmondays allthatmatters'
p18
aS'whennnnnn'
p19
aS'come'
p20
ag16
aS'keep refreshing feed allthatmatters'
p21
aS'yayayay allthatmatters musicmondays'
p22
asS'2013_43'
p23
(lp24
S'kardashian kanye concert sitting phone like literally youre rude'
p25
aS'youre excited filmfriday tomorrow might follow beliebers believemovie'
p26
aS'hate like minute period going youre stuck activity limbo don\xe2\x80\x99t know'
p27
aS'post video'
p28
aS'moods sleep weak sleeping week'
p29
aS'song week waitforaminute clubsmash'
p30
aS'coconut head neds declassified school survival guide'
p31
aS'goodnight loves dont miss video xoxo'
p32
aS'guess time holdtight ladies'
p33
asS'2013_40'
p34
(lp35
S'hahaha'
p36
aS'soon sooner'
p37
aS'retweet follow keep coming back tweet weekend follow many good'
p38
aS'youd think know words song rightthere'
p39
aS'news mosquito bite neck really itchy'
p40
aS'hate phone changes hahahahaha hahahahahahaha makes look like deranged psycho'
p41
aS'sunday midnight heartbreaker musicmondays 10weeks\xe2\x80\x9d finally'
p42
ag16
aS'cancel subscription done issues'
p43
aS'every'
p44
asS'2013_41'
p45
(lp46
S'hahahaha'
p47
aS'beyond excited allthatmatters itunes tonight midnight 9hours ready beliebersgohard'
p48
aS'counting midnight musicmonday allthatmatters'
p49
aS'musicmondays going better every time give filmfridays'
p50
aS'heartbreaker'
p51
aS'bags eyes designer'
p52
aS'weather perfect right'
p53
aS'cant wait give birthday present'
p54
aS'best part honest heartbreaker'
p55
aS'heartbreaker'
p56
aS'beliebers life'
p57
aS'heart breaks listening heartbreaker'
p58
aS'thank much'
p59
aS'buyheartbreakeronitunes buyheartbreakeronitunes buyheartbreakeronitunes buyheartbreakeronitunes buyheartbreakeroni\xe2\x80\xa6'
p60
ag16
aS'love heartbreaker still cant believe asdfghjjkll musicmondays'
p61
aS'heartbreaker good bought song'
p62
aS'know words heart journals'
p63
aS'almost 1hour heartbreaker musicmondays countdown'
p64
aS'heartbreaker comes less hours'
p65
aS'never excited song released long heartbreaker midnight'
p66
asS'2013_46'
p67
(lp68
S'trailer literally made times excited believemovie'
p69
aS'justin deserves radio play getting music havent heard song anywhere'
p70
aS'wearing weave'
p71
aS'buyallbadonitunes'
p72
aS'staystrongjustin'
p73
asS'2013_47'
p74
(lp75
S'always freak whenever online'
p76
aS'thanks'
p77
aS'love'
p78
aS'heck'
p79
aS'real\xf0\x9f\x91\x8c\xf0\x9f\x91\x8c\xf0\x9f\x92\x95\xf0\x9f\x98\x8d'
p80
aS'literally'
p81
aS'math teacher gave quiz girl room crying literally'
p82
aS'tweet enter 500k subscriber giveaway ends 113013 info rules'
p83
aS'cant wait till christmas\xe2\x9d\x84\xef\xb8\x8f\xe2\x9d\x84\xef\xb8\x8f\xe2\x9b\x84\xef\xb8\x8f\xe2\x9b\x84\xef\xb8\x8f\xf0\x9f\x8e\x84\xf0\x9f\x8e\x81\xf0\x9f\x8e\x85\xf0\x9f\x98\x8a\xf0\x9f\x98\x8a'
p84
aS'goodness amazing itll repeat\xf0\x9f\x92\x95\xf0\x9f\x92\x95\xf0\x9f\x92\x95\xf0\x9f\x8e\x84\xe2\x9d\x84\xef\xb8\x8f\xe2\x9d\x84\xef\xb8\x8f\xe2\x9b\x84\xef\xb8\x8f'
p85
aS'wait minute radiooo'
p86
aS'wait days already meet'
p87
aS'thinking meeting justin gives goosebumps like literally dream'
p88
ag16
aS'people hate ariana grande justin bieber'
p89
asS'2013_44'
p90
(lp91
S'love music video\xf0\x9f\x98\x8a rightthere'
p92
aS'thanks much feedback right video glad youre enjoying'
p93
aS'recovery love songgg musicmondays songs amazing\xf0\x9f\x92\x9c\xf0\x9f\x92\x9c'
p94
asS'2013_45'
p95
(lp96
S'randomly'
p97
aS'735pm feel like midnight'
p98
aS'finally calendar'
p99
aS'happy birthday beth hope amazing\xf0\x9f\x98\x98\xf0\x9f\x98\x98\xf0\x9f\x98\x98'
p100
aS'happy birthday mere'
p101
aS'listening songs alwayskidrauhl'
p102
aS'always keeps interesting \xe2\x80\x9dyeah dooooo'
p103
aS'dearnoonemusicvideo'
p104
aS'dearnoonemusicvideo comes tomorrow'
p105
aS'donut twins'
p106
aS'yesssss\xf0\x9f\x98\x8a'
p107
aS'november 2012 homework almost 2014'
p108
asS'2013_16'
p109
(lp110
S'prayforboston'
p111
asS'2013_24'
p112
(lp113
g16
ag16
ag16
ag16
ag16
aS'mcdonalds extremely creepy'
p114
aS'went platinum today crying thank much'
p115
asS'2013_25'
p116
(lp117
S'please enter macbarbie07giveaway'
p118
aS'hello wednesday'
p119
aS'bought'
p120
aS'please enter macbarbie07giveaway'
p121
aS'wonder notice follow many beliebers tweet probably wont happen'
p122
aS'enter macbarbie07giveaway'
p123
ag16
aS'whataboutlove'
p124
aS'bought madeinamericaep itunes cant wait listen'
p125
aS'cant wait till madeinamericaep comes'
p126
aS'want poster signed reach unlock poster giveaway today'
p127
asS'2013_26'
p128
(lp129
S'repeat'
p130
aS'happy birthday'
p131
aS'last night magical staples'
p132
aS'believetour amazing'
p133
aS'feel ancient straight fossil'
p134
aS'alot things said mybeliebers'
p135
aS'love blessed'
p136
aS'amazing show tonight never gets believe'
p137
aS'angeles went hard tonight wish jose tomorrow coming believetour'
p138
aS'walking seats like kylied'
p139
aS'night besti cant relieve stage believetour dreamcometrue'
p140
aS'coming tonight believetour soldout\xe2\x80\x9d'
p141
aS'going tonight'
p142
asS'2013_27'
p143
(lp144
S'happy july everyone\xf0\x9f\x92\x99\xe2\x9d\xa4\xf0\x9f\x8e\x8a\xf0\x9f\x8e\x89\xf0\x9f\x87\xba\xf0\x9f\x87\xb8\xf0\x9f\x87\xba\xf0\x9f\x87\xb8'
p145
aS'always remember actions speak louder words ones perfect strive better people'
p146
aS'help change world'
p147
aS'life gotta know know heart love people love kind great wwjd'
p148
asS'2013_22'
p149
(lp150
S'summer finally here\xf0\x9f\x91\x90\xf0\x9f\x98\x86\xf0\x9f\x98\x84'
p151
ag16
asS'2013_28'
p152
(lp153
S'raining'
p154
aS'pencil smells'
p155
asS'2013_29'
p156
(lp157
S'really takes family thing seriously'
p158
aS'yeah'
p159
aS'beliebers getting heartbreaker today justin'
p160
aS'soon soonp suddenly really want heartbreaker soon soon heartbreaker'
p161
aS'plot twist justin broke hearts heartbreaker'
p162
ag16
aS'waiting heartbreaker come'
p163
aS'dear math calculator solve problems teenager therapist'
p164
asS'2013_5'
p165
(lp166
S'dont perfect best person'
p167
aS'alright acoustic justin bieber'
p168
aS'believe acoustic worldwide nowd'
p169
aS'believeacoustic amazing seriously obsessed'
p170
asS'2013_7'
p171
(lp172
S'yess cant wait\xf0\x9f\x98\x8b\xf0\x9f\x98\x8b\xf0\x9f\x98\x8b'
p173
asS'2013_6'
p174
(lp175
S'watching nets lakers front seats\xf0\x9f\x99\x80\xf0\x9f\x98\xb1\xf0\x9f\x98\xb1\xf0\x9f\x98\x8b'
p176
asS'2013_2'
p177
(lp178
S'target come across password journals britt remember awww remem'
p179
aS'cant wait believeacoustic'
p180
asS'2013_9'
p181
(lp182
S'happy birthday justin'
p183
aS'birthday friday'
p184
asS'2013_8'
p185
(lp186
S'cimorelli harlem shake'
p187
aS'wanna great gotta work stayfocused hardwork'
p188
asS'2013_37'
p189
(lp190
S'enter krazyrayraygiveaway'
p191
aS'follow spree retweet follow follow many follow limit followmeariana\xe2\x80\xa6'
p192
asS'2013_36'
p193
(lp194
S'seems ready yourstrulyatmidnight'
p195
aS'seriously cant wait till yourstruly comes preordered finally comes midnightd\xe2\x98\xba'
p196
aS'blurred lines comes radio time swear\xf0\x9f\x91\x8b\xe2\x80\x9d right'
p197
asS'2013_35'
p198
(lp199
S'plus bieberrrrrr'
p200
aS'truly also taiwan malaysia philippines cant thank enough'
p201
aS'first couple presents weekend unlockthedream thekey favorite things\xf0\x9f\x98\x82'
p202
aS'congrats winning freaked'
p203
asS'2013_34'
p204
(lp205
S'tomorrows last summer break'
p206
aS'look found beth\xf0\x9f\x98\x84'
p207
aS'everyone check commercial'
p208
aS'loved song good\xf0\x9f\x92\x95'
p209
aS'homies greet'
p210
aS'common white girls emerging cave'
p211
aS'back school'
p212
asS'2013_33'
p213
(lp214
S'front lisa'
p215
aS'follow follow many'
p216
aS'lollyvideo'
p217
aS'story awards songs albums tour journeyjust beginning forever thank love'
p218
aS'years tcas thats love thank enjoying break always thank forever'
p219
asS'2013_32'
p220
(lp221
S'entermeinthemacbarbie07giveaway please'
p222
aS'entermeinthemacbarbie07giveaway'
p223
aS'getting ready final believe show soon atlanta butterflies'
p224
aS'incredible show tonight thanks tampa show makes sense'
p225
aS'youre crazy nonna says thank loves'
p226
aS'tell grandma said whatup welcome tour'
p227
aS'song like'
p228
aS'thanks always mybeliebers'
p229
aS'congratulate riaa diamond award baby means went platinum times'
p230
aS'grandmother love'
p231
aS'safe cares fans anything neversaynever'
p232
asS'2013_31'
p233
(lp234
S'opening week believetour'
p235
aS'hello'
p236
aS'smiththe gives good advice'
p237
aS'tomorrow official launch show ootd tomorrow ready'
p238
asS'2013_30'
p239
(lp240
S'healthy'
p241
aS'huge difference heyyyyy'
p242
aS'thank much thank part believe excited soon'
p243
aS'everyone going crazy song sing believetour congrats'
p244
aS'midst excitement sure every1 house tinfoil heads whynot'
p245
aS'already hour guys incredible glad youre enjoying baby thankyou'
p246
aS'bought babyi good'
p247
aS'even hour youve already incredible supporters thank'
p248
aS'something words heartbreaker soon sentence'
p249
asS'2013_39'
p250
(lp251
S'sound make'
p252
aS'adorable little awww'
p253
aS'retweet follow follow many limit rehearsal video shoot'
p254
aS'honesty might important interview year'
p255
aS'never forget girl avalanna mrsbieber'
p256
aS'ripavalanna'
p257
aS'person insults offended person kidding hahasofunny'
p258
aS'check case beth\xf0\x9f\x98\x8b'
p259
aS'dont understand people post selfies every single like think gonna forget look like'
p260
asS'2013_38'
p261
(lp262
S'alright wants follow'
p263
aS'class picture'
p264
ag16
asS'2013_11'
p265
(lp266
S'follow follow many people'
p267
aS'finally tried good'
p268
aS'although dont know personally wish press would take easy'
p269
aS'video premieres tour starts wednesday thats 13th thats purpose'
p270
asS'2013_13'
p271
(lp272
S'playin'
p273
aS'hope like epic exclusive fifth harmony cover dont know'
p274
ag16
aS'target thought'
p275
asS'2013_15'
p276
(lp277
S'surprise beliebers tomorrow aatwvideo'
p278
aS'follow'
p279
asS'2013_14'
p280
(lp281
S'turned radio theway playing'
p282
as.