(dp0
S'2014_8'
p1
(lp2
S'guess would handicap people'
p3
asS'2014_9'
p4
(lp5
S'long days longer nights'
p6
aS'make yall rednecks feel ford troll hick hillbilly kiski'
p7
aS'thank'
p8
aS'thanks'
p9
aS'opened snapchat thanks responding great friendship'
p10
aS'like sign napping next year'
p11
aS'wanted something anything dont want leave damn family alone cheaters smfh'
p12
aS'diagnosed depression'
p13
asS'2014_14'
p14
(lp15
S'random came like look nice today said ummm said april'
p16
aS''
p17
asS'2014_10'
p18
(lp19
S'omfg boys weekend iupattys2014'
p20
aS'boys like accompany journey screw college girls saturday'
p21
asS'2014_11'
p22
(lp23
S'mouthwash bleach'
p24
asS'2014_13'
p25
(lp26
S'hate'
p27
ag17
aS'think little competition every dance great'
p28
as.