(dp0
S'2014_28'
p1
(lp2
S'worldcupfinal comment shakira hilarious'
p3
asS'2014_8'
p4
(lp5
S'immense concert last night manchester apollo'
p6
aS'amazing tonight manchester apollo'
p7
aS'lets'
p8
aS'rainfall record broken wettest winter century'
p9
asS'2014_9'
p10
(lp11
S'teamrayon matthewmcconaughey jaredletofortheoscar jaredleto'
p12
aS'first time ever food'
p13
aS'wellbeing health neglected employers half workers'
p14
aS'tomosocks much likes empty amazon tomomilicevic britishshorthair\xe2\x80\xa6'
p15
aS'cheeky'
p16
asS'2014_7'
p17
(lp18
S'listening'
p19
aS'diagnosed anxiety depression since october 2013'
p20
aS''
p21
aS'hello tomosocks mental friendly legs birth'
p22
aS'happy valentines gary'
p23
aS'years today poor little murdered praying family today'
p24
ag21
aS'roll spring summer'
p25
ag21
aS'twitter'
p26
asS'2014_23'
p27
(lp28
S'\xc2\xa34233019 raised tonight guys amazing socceraid2014'
p29
aS'someone million great work socceraid2014 socceraid'
p30
asS'2014_10'
p31
(lp32
S'socks jaws lying back sleeping socks moggy instagood instaanimal jaws tomo\xe2\x80\xa6'
p33
aS'still dark days family friends partner side know achieve goals'
p34
asS'2014_11'
p35
(lp36
S'businesses price effectively dealing depression mental health work'
p37
aS'editors blog continuing cuts growing concern nation\xe2\x80\x99s mental wellbeing'
p38
asS'2014_32'
p39
(lp40
S'xxxx'
p41
as.