(dp0
S'2014_31'
p1
(lp2
S'speaking find talking creepin social media nothn discuss goodbye'
p3
asS'2014_18'
p4
(lp5
S'green kind shit'
p6
asS'2014_19'
p7
(lp8
S'longer give shit mutual nice nice story special circumstances'
p9
asS'2014_14'
p10
(lp11
S'exception know next time grease damn sholl aint slick'
p12
asS'2014_15'
p13
(lp14
S'great fucking week'
p15
aS'bitch fuck want quickly mind changes'
p16
aS'yearly update times cried times pissed many friends lost fucks given best friend idek \xf0\x9f\x98\x9eanymore'
p17
aS'another month asking much fucks give'
p18
aS'everyone ever helped turned back hurtful fuck flying fucking horizon'
p19
asS'2014_16'
p20
(lp21
S'biggest contradiction history lmfao'
p22
aS'thoose months everything swings'
p23
asS'2014_17'
p24
(lp25
S'didnt expect good feels good retire eliminate differences'
p26
aS'going prom best friend thaliaaaa'
p27
asS'2014_10'
p28
(lp29
S'almost feels like back cant read mind'
p30
aS'movie night jord good feel better'
p31
aS'blue goin jail thegamebet'
p32
aS'hacked mskelly'
p33
aS'fuckin children pissin damn freshmen'
p34
aS'wanna test theory drop grease'
p35
aS'dont give motherfuck freshmen think fuck yall grown shit truck'
p36
asS'2014_11'
p37
(lp38
S'done skating 1000 calories burned'
p39
aS'tried best malice anytime'
p40
aS'eating snickers cream insulting staying around gainesville rather going back goddamn stupid'
p41
aS'fucking blazing right'
p42
asS'2014_12'
p43
(lp44
S'major backfire'
p45
asS'2014_13'
p46
(lp47
S'lmao cant wait till next event laugh nigga'
p48
aS'cutting ties right bullshit many good friends fucked ones arguments block delete swear'
p49
aS'somethin dont whatever would like please doin associated'
p50
asS'2014_6'
p51
(lp52
S'rule change allowed'
p53
aS'comon darlington find dorm semester hell outta buchholz'
p54
aS'finds dorm back'
p55
aS'reapplied darlington prep academy upper school semester headmaster happy hear'
p56
aS'family shit'
p57
aS'grandpa great funeral good food sisters cousin thats live'
p58
aS'good relieved'
p59
aS''
p60
aS'sorry\xe2\x80\xa6'
p61
aS'woke decided never want speak guys ever course means giving friends'
p62
aS'perfect thing turn send sleep wondering happen tomorrow sucks'
p63
aS'good fight'
p64
aS'chillen brother quel code black'
p65
asS'2012_51'
p66
(lp67
S'order'
p68
asS'2014_8'
p69
(lp70
S'busch gardens cousin headache hell damn roller coasters make headaches'
p71
aS'ever person cant stand look lmao'
p72
aS'really cant replace friends'
p73
aS'knee drained jesus keep near cross'
p74
aS'gotta school 24th decide friday'
p75
asS'2013_52'
p76
(lp77
S'conjuring'
p78
aS'cant sleep damn'
p79
aS'riiiiiight'
p80
aS'gonna time friendships strong give breath breath outdamn good'
p81
asS'2012_52'
p82
(lp83
S'chtistmas dinner grubbin'
p84
asS'2014_7'
p85
(lp86
S'hmmm'
p87
aS'funny'
p88
aS'damn nasty tweet ghostthe devil damn'
p89
aS'guess siblings night question'
p90
aS'miss brother much right feels diagnosed depression'
p91
aS'lucky number many tons weighs'
p92
aS'shit'
p93
aS'bitch breathn hard shit'
p94
aS'people mouth family members respond'
p95
aS'motha'
p96
aS'talkn usual shit words mine'
p97
aS'stay still gonna pretend couple days thoe till read apology secretly accepted'
p98
aS'relationship going great games start play alonefuck hoesbelike'
p99
aS'haha busch gardens next weekend lets turnup'
p100
aS'never forget first love trying forget quickest become well whos forgotten alright'
p101
aS'must leave monday following birthday'
p102
aS'question tuck tail stay fight another'
p103
aS'reaccepted time'
p104
aS'waiting call month education away'
p105
asS'2014_4'
p106
(lp107
S'always siblings arent special'
p108
aS'funniest ever quotes days lmao'
p109
aS'gentlemen dont hesitate tonight tounge free'
p110
aS'gonna good peti'
p111
aS'think crap blocked block shit back'
p112
aS'dont assume know'
p113
aS'time move drop anonymous'
p114
aS'callin right watch'
p115
asS'2014_5'
p116
(lp117
S'listening song shut fuck'
p118
aS'olivia promoted captain'
p119
aS'time precious know waste next time thank much'
p120
asS'2014_2'
p121
(lp122
S'good things start happening sudden'
p123
aS'good person talk everyone everything number always talk believe'
p124
aS'damn funny'
p125
aS'best saturday year gotta love havn friends'
p126
ag60
aS'chillin real friends plenty head'
p127
aS'phones naked'
p128
aS'knee swollen anymore'
p129
aS'cant wait till tonight turndownforwhat'
p130
aS'alright wanna keep going right ahead gonna watch'
p131
aS'selfiessssssss'
p132
aS'would awsome conflict could time forget ever happened back things undo bttn'
p133
aS'ends stop ther trouble tweet agreed agree deal please'
p134
aS'criticize harass night moan bigger person cant handle'
p135
aS'takes tangoamp youre still dance floor looking dumb nigga like dances'
p136
aS'back private school next semest aint public skool life duces'
p137
aS'wake wiser reunited main peeps early lets kill flames first truce'
p138
aS'hard talk dont call something never opposed listening'
p139
aS'sucks thers solution hard believe like feeling regret'
p140
aS'since playing chess whats next move hope finally know much longer bigger person hush'
p141
aS'already gotten wayyy baby befire evengone love song'
p142
aS'start conversation negative ground wont positive'
p143
aS'hell yelling dont raise voice'
p144
aS'cant anything'
p145
aS'2014 update times cried0 times pissed enemynone best best friend funniest joke crystal showan court balif'
p146
aS'hold grudges also dont apologize decisions make know theyre right floats boatsorry'
p147
aS'freakin arguing damn warning today aint cross forgiven road'
p148
aS'like youi pretty good reason circumstances need someone elses reason dislike'
p149
asS'2014_3'
p150
(lp151
S'damn dish network looses signal everytime wind blows'
p152
aS'finally ready forgive forget hopefully order otherwise duces arguing anymore case closed\xf0\x9f\x99\x8f'
p153
aS'shame somethin stupid pulled apart werent meant friends split'
p154
aS'always good idea make sure best friends blood matter turns wont'
p155
ag60
aS'thas nigga right ther'
p156
aS'thoose days nothing planned gives kinds things'
p157
asS'2013_13'
p158
(lp159
S'done asking qestions knows answers check cameras'
p160
asS'2014_9'
p161
(lp162
S'economics teacher keep talkin food'
p163
aS'niggas gotta fuck eveything'
p164
aS'good'
p165
aS'time week notice withdrawl forum late admission goodbye fuckmylife'
p166
aS'negro plzzzz'
p167
aS'sneeze'
p168
asS'2014_29'
p169
(lp170
S'goddamn bullshitfucking surprise boot camp kiss'
p171
asS'2014_28'
p172
(lp173
S'whenwheres shower'
p174
aS'shopping tomorrow main nigga'
p175
asS'2014_20'
p176
(lp177
S'prom 2k14'
p178
aS'last time wearing uniform bitter sweet'
p179
aS'family keep fucking mouth shut'
p180
aS'tired tired beat heads heavy graduation creeping dont waana prom shit anymore'
p181
aS'annoying fucking ever tired fucking'
p182
asS'2014_22'
p183
(lp184
S'fuck think'
p185
aS'finna kill stupid bitch'
p186
asS'2014_26'
p187
(lp188
S'hacked bestest friiiiiennnnnd'
p189
ag60
aS'draft pick'
p190
as.