(dp0
S'2014_36'
p1
(lp2
S'someone dont direct answer answer'
p3
aS'cynicism'
p4
aS'pusat konservasi satwa pararawein'
p5
aS'stilletos evolved puddle jumpers chic torture devices'
p6
aS'ampgt sportsatu klub kaya ungkap nego panas jelang bursa ditutupklub mana'
p7
aS'baidu says smart chopsticks tell food safe'
p8
aS'juvenile jail teens recently escaped history violence sexual abuse allegations'
p9
aS'ensambladoras plantean ejecutivo cobro deuda ejecutivo \xe2\x80\x9cgran misi\xc3\xb3n fernando ratico otro caminando'
p10
asS'2014_37'
p11
(lp12
S'sticky photos amsterdams tomato fest'
p13
aS'harvard largestever donation week investor giving million'
p14
aS'dope'
p15
aS'dimention twitter polisi gerebek pemain judi kuburan'
p16
aS'kakek cabul penjual bakso berakhir tahanan'
p17
aS'youre good something piss'
p18
aS'miguel caus\xc3\xb3 pol\xc3\xa9mica portada nuevo sencillo encanto parece ampgt ampgt foto'
p19
aS'saat uefa kritik fifa'
p20
aS''
p21
aS'animals function shame ampgt'
p22
asS'2014_34'
p23
(lp24
S'wakil ketua minta semua pihak hormati putusan'
p25
ag21
aS'nick cannon confirms separation wife mariah carey'
p26
aS'arsenal butuh baru'
p27
aS'police boys arrested plotting mass shooting southern california high school'
p28
aS'chelsea team burnley courtois ivanovic cahill terry azpilicueta fabregas matic schurrle oscar hazard diego costa'
p29
aS'ukraine prorussia rebels accuse attacking refugee convoy'
p30
aS'pasca tanah longsor pemda bogor akan relokasi korban'
p31
asS'2014_35'
p32
(lp33
S'mayat terbakar dengan luka leher ditemukan semaksemak'
p34
aS'leaders agree prepare fresh sanctions russia ukraines president poroshenko says'
p35
aS'petrol price litre midnight tonight'
p36
aS'album country myeverything ampgt'
p37
aS'siapapun bisa membahagiakanmu karena melakukan sesuatu yang istimewa hanya orang istimewa yang bisa membahagiakanmu tanpa melakukan apapun'
p38
aS'mobil meledak persimpangan padat baghdad tewas'
p39
aS'itunesfestival september 22nd cant wait london'
p40
aS'dont play hard youre already hard want'
p41
asS'2014_32'
p42
(lp43
S'ampgt sportsatu messi ronaldo layak dicontoh'
p44
aS'shooting involving police leaves teen dead ferguson authorities 1000 people protest chief says'
p45
aS'gemini bored quickly'
p46
aS'china build lighthouses five isles defiance call'
p47
aS'young growing todays live dailychart shows global population change'
p48
asS'2014_33'
p49
(lp50
S'tipico irte cama dormir pasar antes hora imaginando historias'
p51
aS'critical women promote raising hands increasingly difficult opportunities'
p52
aS'foxnews keithablow called michelleobama live television watch'
p53
aS'reputation business make sure always play fair'
p54
aS'saat kamu tidak suka seseorang maka apapun yang lakukan akan mengganggumu'
p55
aS'modi might change iday venue fort'
p56
aS'need understand everyday sexual harassment'
p57
aS'news apologizes streaming video robin williams home'
p58
aS'police fire tear disperse crowds ferguson protesting unarmed teens shooting police'
p59
aS'upgraded first class travel'
p60
aS'good morning'
p61
asS'2014_31'
p62
(lp63
S'sunbathe balinese style vincii plantacion canary islands'
p64
aS'tgif whos going fair tonight'
p65
aS'time back home awesome time head back work harder'
p66
aS'world sees matters'
p67
aS'almost time mondaynight hockey icetime baby ilovehockey hockeynut hockeylife'
p68
asS'2014_38'
p69
(lp70
g21
aS'apple visual tour biggest updates'
p71
aS'obama plan fight antibiotic resistance disappointing critics'
p72
aS'york objectively progressive california based presidential voting voter registration'
p73
aS'avengersageofultron synopsis teases joss whedons vision'
p74
asS'2014_39'
p75
(lp76
S'ampgt sportsatu interview seru dengan bintang lini depan timnas indonesia 1980an banur'
p77
aS'populer komentar enrique soal berat badan suarez'
p78
aS'luis enrique press conference watch'
p79
aS'garbage might dislike'
p80
aS'akan periksa sahabat nazaruddin'
p81
aS'marquez berambisi rebut kemenangan sirkuit favoritnya'
p82
aS'timeline provides background climate change policiesmovements attempt keep check'
p83
aS'ihsg dibuka jeblok poin'
p84
aS'apples rollout hasnt smooth everyone issues people reported'
p85
asS'2014_18'
p86
(lp87
S'last week worked around days feels sooo good work home today ampamp\xe2\x80\xa6'
p88
asS'2014_14'
p89
(lp90
S'hoes anything quick cash'
p91
aS'mins honolulu molokai girlstravel'
p92
aS'talkingdead join ampamp 2242 fans tvtag'
p93
asS'2014_15'
p94
(lp95
S'raise anchor sail trip beautiful newport beach'
p96
aS'many slams screen door depends loud shut many slices bread depends thin'
p97
aS'dont love grandma smartphones travelcell'
p98
asS'2014_16'
p99
(lp100
S'anybody wanna'
p101
aS'little cold april wanna wearing shorts sweatshirts'
p102
aS'want birthdaaay booty girl'
p103
aS'creating perhaps house boylston street boston'
p104
aS'today blog trip itinerary ratings think moms opinion'
p105
aS'stolen'
p106
aS'without freedom create artist would suffocate mgmt'
p107
aS'keep favrioting tweet'
p108
asS'2014_17'
p109
(lp110
S'dont shit wear'
p111
aS'lefts wants global wealth politix business'
p112
aS'three elements successful change management'
p113
aS'microsoft sirikiller muzzled rule'
p114
aS'morniiiing waking week'
p115
aS'medicalastrology chineseastrology robinsonhealthcareindex classicfilms astrology robinsonwarcollege cinema101'
p116
asS'2014_10'
p117
(lp118
S'give amount time dont momma grieve'
p119
aS'1000s clients cant wrong best promotion company world'
p120
aS'good like high gotta sleep wake back still high feeling sooo good'
p121
aS'made italy guide italian lakes venere travel blog'
p122
aS'alleged founder bitcoin used play paranoiainducing game daughter news'
p123
aS'envisioning sunshine amplt3 canada toronto'
p124
aS'wrong'
p125
aS'secrets public speaking best presenters public speaking'
p126
aS'access instagram pictures desktop'
p127
aS'real sour nofilter loud dour'
p128
ag21
aS'love types compliments'
p129
aS'coolpretty birthday'
p130
aS'wang ampamp compete world championships entry tabletennis'
p131
aS'queeeee mejor repartiendo pizza'
p132
asS'2014_11'
p133
(lp134
S'drake every girl live lounge extra presents drake every girl live hiphop'
p135
aS'subahanallah keren asliiiiiii'
p136
aS'china declare pollution energy ecns business'
p137
aS'trouble troubleshooting applenews'
p138
aS'waterlogue making want take another watercolor class long adding'
p139
aS'wake every morning state mind'
p140
aS'inch 1200 5320g win8'
p141
aS'busfree india time charged elephant travel wildlife scary'
p142
aS'watch phisher twitter'
p143
aS'arguing internet dumbest thing waste time'
p144
aS'everybodystreet business sxswfilm documentary'
p145
ag21
aS'time education'
p146
aS'kenneth wilson 28588018 jesup 2680 south jesup 31599 serious networkingbusiness'
p147
asS'2014_12'
p148
(lp149
S'whats favorite cream flavor'
p150
aS'listening blue eiffel pandora pandora'
p151
aS'moment waiting downtown finally stepped game'
p152
asS'2014_13'
p153
(lp154
g21
aS'remember international museum washington running special exhibit'
p155
aS'deal apple comcast could kill netflix change future nettv'
p156
aS'earthquake always scare shit never gonna earthquakes earthquake'
p157
aS'holy full length trailer jupiter ascending incredible technews'
p158
asS'2014_8'
p159
(lp160
S'consist church spending time mason ampamp work'
p161
aS'cudi cast entourage movie cudi really making transition hollywood additi hiphop'
p162
aS'excellent introduction design infographic'
p163
aS'survived postpartum hemorrhage life saving surgery ampamp ptsd diagnosis childbirth trauma'
p164
aS'thought like'
p165
aS'need fishing'
p166
aS'lebron gone right'
p167
aS'guess olympic gold medalists thank sixty vocab teamvisa'
p168
aS'murphys full effect morning blame'
p169
aS'energy level high today making imperative pisces'
p170
aS'ysitjdev56529'
p171
asS'2014_9'
p172
(lp173
S'know robin wright emmy claire cold calculating houseofcards damnzoe'
p174
aS'obsesi\xc3\xb3n rojiblanca frenar xabi alonso rojiblancos consideran clave partido puede pasar'
p175
aS'hello twitter recent photo march 2014 makeup'
p176
aS'hate seeing people'
p177
aS'fish tacos life'
p178
aS'convinced nose piercings made boys'
p179
aS'getting something done accomplishment getting something done right achievement'
p180
aS'dislike moment\xef\x91\x8a\xef\x91\x8a\xef\x91\x8a'
p181
aS'keep calm shop local friends please remind friends insouthflorida'
p182
aS'sometime around midnight brilliant lyrics dude always love song'
p183
aS'actually teaching math love'
p184
aS'become wedding planner make profitable business'
p185
aS'perfect selfstorage solution visit movinghouse declutter bizitalk preston lancashire'
p186
aS'cant sleep'
p187
aS'cool shot bangkok asoke station thailand pubictransportation travel\xe2\x80\xa6'
p188
aS'butterfly project dont work butterfly kinda fades always hurting'
p189
aS'also might favorite teacher high school'
p190
aS'goal holy amazing'
p191
aS'month great 5sos follow yesterday news going 5sos today luke followed happy happy'
p192
aS'goin back todays nerves'
p193
aS'tasty fish taco recipe'
p194
aS'people much youd find dont need negotiate peoples humanity company doesnt even'
p195
aS'know hard laughed'
p196
aS'palabras'
p197
aS'salim saleh invited onegi obel home asked money fund nssf former minister zoebakokobakoru'
p198
aS'loving life romanian rock'
p199
aS'looks like pur\xc3\xa9e soup'
p200
aS'ripped'
p201
asS'2014_43'
p202
(lp203
S'soal menkumham sangat mengejutkan'
p204
aS'45000yearold thighbone adds support theory human interbreeding neanderthals'
p205
aS'pisces moody'
p206
aS'miss friends drifted apart'
p207
aS'tips success women'
p208
aS'really post credit card security number facebook'
p209
asS'2014_42'
p210
(lp211
S'ampgt sportsatu penyerang persebaya arema siap hadapi spanyol saat juara piala dunia 2010'
p212
asS'2014_41'
p213
(lp214
S'high school football season canceled amid hazing allegations'
p215
aS'jumat jokowi mulai progam bedah kampung nelayan muara angke'
p216
aS'feel ebola like body doesnt belong anymore'
p217
aS'time test limits break right wrong rules free \xe2\x80\x93elsa frozen'
p218
asS'2014_40'
p219
(lp220
S'watch salonga sing whole world random audience members'
p221
aS'guys busy pinning fave party looks birthday girl check best mixers'
p222
aS'lebih baik berdoa meminta kekuatan daripada meminta kemudahan orang kuat akan mampu memudahkan hidupnya'
p223
aS'justin hamilton undergoes procedure'
p224
ag21
aS'first photo george clooney ampamp amal alamuddins wedding'
p225
ag21
aS'ampgt sportsatu tereliminasi awan setho doakan timnas sukses'
p226
aS'commitments cause miss football sunday replayyoursunday'
p227
aS'kloter sapu jagat tiba bandara jeddah'
p228
asS'2014_44'
p229
(lp230
S'george takei tries save midterms stephen colbert disintegrates'
p231
aS'sindiran maut swedia untuk menlu israel'
p232
aS'hell find tell little things hell thats know love \xe2\x80\x93giselle enchanted'
p233
aS'teeny tiny kitten rescued getting head stuck wheel'
p234
aS'alhamdulillah ricky harun dikaruniai putri pertama'
p235
aS'pagi tuhan berilah kesehatan pada kami agar kami bisa mengejar cita kami agar kami masih bisa menjalakna perintahmu'
p236
aS'hardly sleep last nite thats newborn life\xf0\x9f\x91\xb6\xf0\x9f\x92\x81 city snookiandjwoww4 final season press today'
p237
aS'jokowi jangan takut ganti menteri lelet'
p238
asS'2014_29'
p239
(lp240
S'amazing sights central america'
p241
asS'2014_28'
p242
(lp243
S'short refreshing sleep onboard dreamliner brunei excited share stories coun'
p244
aS'inspire bucket list destinations'
p245
aS'machu picchu places everyone\xe2\x80\x99s travel bucketlist travelboldly adventure photo machupicchu'
p246
aS'exploring waterfalls'
p247
aS'roadtrips quick'
p248
aS'look cattle beach visiting wild coast travelchatsa'
p249
aS'best pocket dial ever accidentally called cell phone singing chorus country'
p250
aS'another minettodrivein storm'
p251
asS'2014_21'
p252
(lp253
S'swisshchalet timhortons harveys remind childhood wish stayed canadian'
p254
aS'girl beautiful'
p255
ag21
ag21
aS'charlies sandwich shoppe boston'
p256
aS'create personal brand guide'
p257
aS'anyone traveling first time summer check great tips first time travelers'
p258
aS'aspiring entrepreneurs stand crowd entrepreneurs'
p259
aS'wearing damn shorts aint'
p260
asS'2014_20'
p261
(lp262
S'edit featured likes facebook page socialmediaminute socialmedia facebook tutorial video'
p263
aS'content marketing worth'
p264
aS'cuss actually sleep know winner'
p265
asS'2014_22'
p266
(lp267
S'peep game'
p268
asS'2014_27'
p269
(lp270
S'camaldolicasentino forest'
p271
aS'photo local donut shop'
p272
aS'travel'
p273
aS'travel apps need next cruise cruise travel android awayfind'
p274
aS'friends traveled pacific northwest favorite things seedoeat oregon coast'
p275
aS'beautiful neuschwanstein castle mountain fuessen germany view blow mind away'
p276
aS'things bruges travel ttot'
p277
aS'desertrace selfie'
p278
asS'2014_26'
p279
(lp280
S'disney walk disney\xe2\x80\x99s saratoga springs resort ampamp downtown disney sidewalk 1015 minute walk'
p281
aS'likeshare wish weekend'
p282
aS'settling scores colorado\xe2\x80\x99s wetterhorn peak'
p283
aS'loews miami beach hotel direct access 900foot wide sandy beach loewshotel'
p284
aS'travelboldly part incan honeymoon peru machupicchu iquitos amazon travel'
p285
aS'glamping jersey bell tents daisy cottage campsite channel islands'
p286
as.