(dp0
S'2013_5'
p1
(lp2
S'stop letting animal control declare pitbulls dangerous potentially dangerous'
p3
asS'2013_4'
p4
(lp5
S''
p6
aS'serious killing breed bunch dicks'
p7
aS'francisco animal control killing pitbulls photos'
p8
asS'2013_3'
p9
(lp10
S'pattern pitbulls mixes people stop hate abuse'
p11
aS'pattern pitbulls mixes people stop hate abuse'
p12
asS'2013_2'
p13
(lp14
S'great thru hell back knocked right back faced demons admireable person'
p15
aS'aloha bruno ever come home hawaii concert'
p16
aS'misses daddy'
p17
aS'dont piss pooch funny'
p18
aS'missing homie mars baby geronimo'
p19
aS'love bruno'
p20
aS'anyone know status right nowgotta save himit says today need call find status annyone'
p21
aS'alright'
p22
aS'thank'
p23
aS'thank much pitties babies'
p24
aS'thank much'
p25
aS'loving memory lennox'
p26
aS'loving memory lennox'
p27
aS'babies rescued mosfrom high kill'
p28
ag6
aS'proof look gorgeous pittiehelping heal hospital awesome'
p29
aS'putting stupid bullshit pardon language'
p30
aS'trying bring awareness adopt pittie breeders plenty death rows'
p31
ag6
ag6
aS'completely agree need army fellow pitbull lovers saverescueamp breed'
p32
aS'tweeting would love find fellow pitbull lovers help rescueadoptshareno breeders enuff'
p33
asS'2013_37'
p34
(lp35
S'father'
p36
aS'damn straight'
p37
asS'2013_21'
p38
(lp39
S'couldnt said better'
p40
aS'perrrrty coool'
p41
asS'2013_23'
p42
(lp43
S'absolute beauty'
p44
asS'2013_29'
p45
(lp46
S'dont give shit breeders think stop breeding death rowuasses'
p47
aS'fighters promoting'
p48
aS'read last couple tweets know agree thanx'
p49
aS'family kidsto provide real damn wkids adopted pitties'
p50
aS'check bullshit asked need breed pitties thousands shelters'
p51
aS'lt3ing memory momshe taken away diagnosed ptsd'
p52
ag6
asS'2013_38'
p53
(lp54
S'berzerk'
p55
as.