(dp0
S'2013_42'
p1
(lp2
S'first time fell stair high school'
p3
aS'doesnt like'
p4
aS''
p5
ag5
aS'teacher making haha'
p6
asS'2013_43'
p7
(lp8
S'whats goal life'
p9
aS'lets play evil apples iphone link iphone join'
p10
aS'ootd'
p11
aS'science teacher flips whole class\xf0\x9f\x98\x82\xf0\x9f\x98\x82\xf0\x9f\x98\x82'
p12
asS'2013_40'
p13
(lp14
S'leggings season'
p15
aS'people bother'
p16
asS'2013_41'
p17
(lp18
S'singing asked someone hurt'
p19
aS'sitting class like'
p20
aS'ayyy'
p21
aS'question'
p22
aS'friends talk shit hard'
p23
aS'friend talk shit'
p24
aS'blake lively literally perfect person alive'
p25
aS'naked classy right'
p26
aS'bless attractive waiters'
p27
aS'really cant friends dont chapstick forget mine'
p28
aS'know special rather talk watch gossip girl'
p29
aS'hate teachers like dont pack still minute left class'
p30
aS'season goosip girl netflix lifemade'
p31
aS'plans future'
p32
aS'tomorrow house'
p33
ag5
aS'beautiful\xf0\x9f\x92\x95'
p34
aS'youre seriously want\xe2\x80\x9d'
p35
aS'tumblr everything never tell'
p36
asS'2013_46'
p37
(lp38
S'never talk hang expect'
p39
aS'mylifeinapicture'
p40
aS'third wheel life'
p41
aS'best relationship talk like best friends play like children argue like husband wife protect like brother sister'
p42
ag5
aS'wait turn happy'
p43
aS'mentionsomeonebeautiful'
p44
aS'mentionsomeonebeautiful'
p45
aS'mentionsomeonebeautiful'
p46
aS'mentionsomeonebeautiful'
p47
aS'everything pisses'
p48
aS'hope sweet dreams'
p49
aS'drives crazyy people ignore'
p50
aS'pain away'
p51
ag5
aS'send nudes november'
p52
aS'mentionatruefriend'
p53
aS'wonder look like eyes'
p54
aS'todays'
p55
aS'lazy texter unless youre best friend cute like time dont wanna text'
p56
aS'curl hair feel like older girls toddlers tiaras'
p57
aS'sorry develop feelings people never chance'
p58
aS'pale blend snow hide socialization winter months'
p59
aS'facetiming devon talking'
p60
aS'first'
p61
asS'2013_47'
p62
(lp63
S'miley cyrus eyebrows theyre still better yours\xe2\x80\x9d cried\xf0\x9f\x98\x82'
p64
aS'wearing leggings beanie flannel jacket convers carrying white iphone tweeting whitegirlprobs'
p65
aS'girls love play hair\xe2\x80\x9d isnt true touch hair'
p66
aS'feel like much like white girl'
p67
aS'screenshot snapchats hate stop'
p68
aS'phones battery life'
p69
aS'wednsday'
p70
aS'opened closed door room better even though wanted away badly'
p71
aS'whole episode'
p72
aS'tears started earring'
p73
aS'cried tears awkward'
p74
aS'awkward made jenna matty forever please'
p75
aS'swear little brother dropped baby'
p76
aS'kiss best shut girl'
p77
aS'youre lowkey bitch'
p78
aS'taste'
p79
aS'leave school eating lots food watching netflix'
p80
aS'cant hide'
p81
aS'stop flashing like turndownforwhat'
p82
aS'struggles finding sadies'
p83
aS'bish'
p84
aS'hate kuzma worstteacherever'
p85
aS'kuzma cant teach'
p86
aS'summer love never faded away'
p87
asS'2013_44'
p88
(lp89
S'finally agreed angel'
p90
ag5
aS'agree babysit hours straight'
p91
aS'cant'
p92
aS'never talk cool'
p93
aS'love face'
p94
aS'miss'
p95
aS'crap'
p96
ag5
aS'happy halloween bananas'
p97
aS'theywantthec'
p98
aS'follow tumblr'
p99
aS'true'
p100
asS'2013_45'
p101
(lp102
S'morning would much better woke every morning'
p103
aS'fuck'
p104
ag5
ag5
aS'exactly'
p105
aS'well girlfriend'
p106
aS'cody'
p107
aS'proud show girlfriend gtgtgtgtgtgtgtgtgtgt'
p108
aS'marry'
p109
aS'notice everything keep mouth shut'
p110
aS'ability make someone happy best feelings ever'
p111
aS'good morning morning wanna right back sleep'
p112
aS'watching grease'
p113
aS'fine'
p114
aS'never text'
p115
aS'want'
p116
aS'weekend gonna amazing'
p117
aS'upcoming long weekend thing care'
p118
ag5
aS'miss night much night years'
p119
aS'hate babysitting'
p120
aS'take selfies dontjudgeme nolife'
p121
aS'whens summer want back already'
p122
aS'theres rumors school dont even stop true'
p123
aS'single'
p124
aS'socially awkward textilly awkward'
p125
ag5
aS'annmarie best'
p126
aS'dear picking dont take hour thanks'
p127
aS'weekend cant wait'
p128
aS'friends'
p129
aS'ibtc'
p130
aS'stop playing games shes best friend shes falling'
p131
aS'wonder people'
p132
aS'someone class pick nose'
p133
aS'benedetti gtgtgt'
p134
aS'girls tumblr basically explains'
p135
aS'want piercing'
p136
aS'best post night cried'
p137
aS'bootyhadmelike'
p138
aS'dare someone kiss spittingcrickets'
p139
aS'fuck'
p140
aS'know handle'
p141
aS'opening question right\xf0\x9f\x98\x8d loser hottie'
p142
aS'mature'
p143
asS'2013_27'
p144
(lp145
S'beach bound'
p146
asS'2013_28'
p147
(lp148
S'blocked lauren levin'
p149
aS'stop making statuses baseball actually play ithinkweallknowwhoimtalkingabout'
p150
aS'sunburnt'
p151
aS'girl code isnt show religion'
p152
asS'2013_29'
p153
(lp154
S'line means finally whitegirlprob'
p155
aS'apperently june 11000 texts opps'
p156
asS'2013_37'
p157
(lp158
S'isnt friday 13th supposed horrible mine perfectlt3'
p159
aS'oregon'
p160
aS'rapper name black gold\xe2\x84\xa2'
p161
aS'proud moment downgrade'
p162
aS'best convos'
p163
aS'convos yours\xe2\x9d\xa4'
p164
aS'paragraph texts word texts'
p165
asS'2013_36'
p166
(lp167
g5
aS'summer last forever'
p168
asS'2013_35'
p169
(lp170
S'fuck need friends'
p171
aS'perf'
p172
aS'girlfriend arent perfect couplelt3'
p173
asS'2013_34'
p174
(lp175
S'like really'
p176
aS'love'
p177
ag5
aS'woman life'
p178
asS'2013_33'
p179
(lp180
S'miss dont talk'
p181
ag5
asS'2013_32'
p182
(lp183
S'love swear whydoyoulivesofaraway'
p184
asS'2013_31'
p185
(lp186
S'mackelmore speakers thogtgtgt'
p187
asS'2013_30'
p188
(lp189
S'waking morning plane someoneshootme'
p190
aS'facebook nowadays lauren levins life kohlers dreams making'
p191
asS'2012_31'
p192
(lp193
S'mean girls iloveyou'
p194
asS'2013_39'
p195
(lp196
S'came home mole house stuck tree away little'
p197
asS'2013_38'
p198
(lp199
S'aaand oregon weather back'
p200
aS'freshman homecoming'
p201
aS'know walking around house leopard print footsie'
p202
asS'2012_38'
p203
(lp204
S'done game good game\xee\x80\x92 good game\xee\x80\x92 good game\xee\x80\x92 good game\xee\x80\x92 good game\xee\x80\x92 fuck good game\xee\x80\x92'
p205
as.