(dp0
S'2013_40'
p1
(lp2
S'hope'
p3
asS'2013_41'
p4
(lp5
S'tonight gonna darter'
p6
asS'2013_46'
p7
(lp8
S'lighting heating people winters fully prepared speak newey eyre leeds requirements'
p9
asS'2012_48'
p10
(lp11
S'following important making purchase'
p12
aS'shaunblackman'
p13
aS'shaunblackman'
p14
aS'shaunblackman'
p15
aS'shaunblackman'
p16
aS'five three campaign'
p17
aS'shaunblackman'
p18
aS'shaunblackman'
p19
aS'shaunblackman'
p20
aS'shaunblackman'
p21
aS'following important making purchase'
p22
asS'2011_51'
p23
(lp24
S'coloured bang sensible opinions blame national surely editors'
p25
aS'wayne happened choosing picture ones sent week'
p26
aS'loves really'
p27
asS'2013_45'
p28
(lp29
S'nice'
p30
aS'baton rouge whats'
p31
aS'thanks follow'
p32
asS'2012_45'
p33
(lp34
S'following important making purchase'
p35
aS'make aware newey eyre leeds stockists solar panel kits interested finding informati\xe2\x80\xa6'
p36
aS'please guys take seconds provide opinion'
p37
aS'following important making purchase'
p38
aS'buying solar kits contact newey eyre leeds price 0113 5150'
p39
aS'following important making purchase'
p40
aS'make aware newey eyre leeds stockists solar panel kits interested finding inform\xe2\x80\xa6'
p41
asS'2012_44'
p42
(lp43
S'looking business opportunities supply products lighting heating ventilation purchase products'
p44
aS'company purchase items electrical wholesaler currently hold account newey eyre drop'
p45
aS'currently buying electrical items cable lighting heating ventilation solar dont currently'
p46
aS'buying installing solar contact comparable price newey eyre leeds stockists solar kits'
p47
aS'buying installing solar contact conparible price newey eyre leeds stockists solar kits'
p48
aS'currently buying electrical items cable lighting heating ventilation solar dont currently'
p49
asS'2012_47'
p50
(lp51
S'shaunblackman'
p52
aS'shaunblackman'
p53
aS'shaunblackman'
p54
aS'shaunblackman'
p55
aS'following important making purchase'
p56
aS'anyone utilise sales basic account linkedin worth investment return ivestment feedback'
p57
aS'looking reduce running cost site energy saving products give call free charge site survey 07919\xe2\x80\xa6'
p58
aS'attending solar world roadshow headingley stadium leeds wednesday december else planning attending'
p59
aS'following important making purchase'
p60
aS'shaunblackman'
p61
aS'buying solar kits contact newey eyre leeds price 0113 5150'
p62
asS'2012_46'
p63
(lp64
S'shaunblackman'
p65
aS'shaunblackman'
p66
aS'following important making purchase'
p67
asS'2012_40'
p68
(lp69
S'roads leading open notch'
p70
asS'2012_42'
p71
(lp72
S'currently buying electrical items cable lighting heating ventilation solar dont currently'
p73
aS'currently buying electrical items cable lighting heating ventilation solar dont currently'
p74
aS'currently buying electrical items cable lighting heating ventilation solar dont currently'
p75
asS'2013_24'
p76
(lp77
S'buying electrical products currently trading newey eyre give call 07919 015123 discuss potential'
p78
asS'2012_49'
p79
(lp80
S'looking speak companies covering industries electrical contractors engineers industrial companies facilities managemen\xe2\x80\xa6'
p81
aS'looking speak anyone requirement following products lighting lamps cables wiring accessories domes\xe2\x80\xa6'
p82
aS'shaunblackman'
p83
aS'shaunblackman'
p84
aS'following important making purchase'
p85
aS'natural sparx'
p86
aS'guys please foolow support group would also appreciate shared connections'
p87
aS'following important making purchase'
p88
aS'shaunblackman'
p89
aS'shaunblackman'
p90
aS'shaunblackman'
p91
aS'shaunblackman'
p92
aS'shaunblackman'
p93
aS'shaunblackman'
p94
aS'shaunblackman'
p95
aS'shaunblackman'
p96
aS'following important making purchase'
p97
asS'2013_28'
p98
(lp99
S'voiceofdoom kevin pietersen'
p100
asS'2013_29'
p101
(lp102
S'deep 11am hated ronnie osullivans attitude diagnosed depression respect'
p103
asS'2013_4'
p104
(lp105
S'newey eyre leeds leading nationwide electrical wholesaler dont trade account already please feel free drop'
p106
aS'currently looking existing account base currently trading neweys know someone could benefit serv\xe2\x80\xa6'
p107
aS'newey eyre leeds specilist supplier things drop line discuss ongoing requirements'
p108
aS'currently looking existing account base currently trading neweys know someone could benefit serv\xe2\x80\xa6'
p109
aS'newey eyre leeds specilist supplier things drop line discuss ongoing requirements'
p110
aS'newey eyre leeds leading nationwide electrical wholesaler dont trade account already please feel free drop'
p111
aS'newey eyre leeds leading nationwide electrical wholesaler dont trade account already please feel free drop'
p112
aS'newey eyre leeds leading nationwide electrical wholesaler dont trade account already please feel free drop'
p113
asS'2013_1'
p114
(lp115
S'happy year looking grow customer base first months 2013 asking companies'
p116
aS'check guys gals want something little different kids party give andy call'
p117
asS'2014_19'
p118
(lp119
S'please connect hayley boughen looking increase profile within linkedin thanks'
p120
asS'2013_2'
p121
(lp122
S'1000th connection'
p123
asS'2014_15'
p124
(lp125
S'people please connect hayley boughen linkedin looking expand linkedin profile thanks'
p126
asS'2013_9'
p127
(lp128
S'whats noonie'
p129
asS'2014_13'
p130
(lp131
S'check awesome guess emoji store'
p132
asS'2012_8'
p133
(lp134
S'training reqs short long term please feel free drop line discuss able help thanks'
p135
aS'limited numbers available solar courses throughout march feel free contact information thanks shaun renewa\xe2\x80\xa6'
p136
aS'joined linkedin created professional profile join network'
p137
asS'2012_9'
p138
(lp139
S'extremely pleased announce monday next week starting exciting role edmundson electrical wakef\xe2\x80\xa6'
p140
asS'2012_6'
p141
(lp142
S'follow please also retweet much appreciated'
p143
asS'2012_1'
p144
(lp145
S'time people literally rushing home obviously never happens cues'
p146
asS'2011_41'
p147
(lp148
S'doubt knows yorkshire'
p149
aS'good luck 2nite wish tickets wait'
p150
asS'2014_7'
p151
(lp152
S'newey eyre leeds branch year 2013'
p153
asS'2014_4'
p154
(lp155
S'company buying electricalmechanical materials contact newey eyre leeds discuss needs 0113 3895150'
p156
aS'newey eyre leeds supplying first class service domestic commercial industrial electrical engineers throughout leeds curr\xe2\x80\xa6'
p157
asS'2012_51'
p158
(lp159
S'natural sparx'
p160
aS'shaunblackman'
p161
asS'2014_3'
p162
(lp163
S'currently trading newey eyre leeds give call 0113 3895150 discuss requirements'
p164
aS'newey eyre leeds leading electrical wholesaler selling quality electrical supplies safety equipment maintenance'
p165
asS'2013_37'
p166
(lp167
S'awesome night barney loves signed shirt'
p168
asS'2013_10'
p169
(lp170
S'currently trading newey eyre leeds buying electrical supplies daily give call discuss needs 07919 015123'
p171
aS'looking ways save money utility bills contact newey eyre leeds free energy audit premises 07919 0151\xe2\x80\xa6'
p172
asS'2013_32'
p173
(lp174
S''
p175
ag175
ag175
aS'rochdale'
p176
aS'pontefract'
p177
aS'chesterfield'
p178
aS'becky leeds'
p179
aS'leeds'
p180
aS'diana huddersfield'
p181
asS'2013_18'
p182
(lp183
S'looking reducing energy consumption variety methods drop line 07919 015123'
p184
asS'2011_35'
p185
(lp186
S'ronaldo'
p187
aS'friend mine said secret successful marriage short nighties'
p188
aS'sorry seen replied glad agree'
p189
aS'agree closet chick flick'
p190
aS'sorry really think tweet last tweet closet chick flick'
p191
aS'derfinately maybe quality film'
p192
aS'mapping murders david canter brilliant'
p193
aS'silver thought calling tinted panther'
p194
aS'someone works hard living goes meal treat stay home unless afford totally disagree'
p195
aS'unless individual hard financially camt afford time'
p196
aS'thought iphone company phone'
p197
aS'battery life cost backhanders'
p198
asS'2011_34'
p199
(lp200
g175
aS'marching together'
p201
aS'sofa watching tele whilst wife working could'
p202
aS'thanks follow hope family well shouldnt beat kids swords'
p203
aS'bringing wife tomorrow night cant wait meal courtesy losing comp'
p204
aS'hebden bridge family fire engines sorry'
p205
aS'hello world nearly weekend planed'
p206
ag175
aS'work colleague dean dont believe lacey turner stavros flatley follow twitter rude'
p207
aS'love work tomoz stavros flatley follows twitter'
p208
aS'every branch runs independently servicepricequality differs across branch'
p209
aS'hmmm cant argue price however servicequality always best'
p210
aS'like'
p211
aS'please tell followers wwwaciorguk dangerous inferior cables incl fire performance cable'
p212
ag175
aS'neither inbetweeners'
p213
aS'whats crackberry'
p214
aS'testittuesday help spread fire safety friendswith monthly smoke alarm giveaway'
p215
ag175
aS'please tell followers wwwaciorguk dangerous inferior cables incl fire performance cable'
p216
aS'please tell followers wwwaciorguk dangerous inferior cables incl fire performance cable'
p217
aS'finishes every night night garden time story'
p218
aS'following please follow'
p219
aS'need crack waxing free'
p220
aS'said asked nicely could help increase small following pretty please'
p221
aS'hello followers told able help'
p222
aS'would really like pass followers today help greatly appreciated'
p223
aS'sure whats like mainly overcast stoneage country'
p224
aS'lorraine massive years come across kind honest genuine thankssbx'
p225
aS'morning world friday'
p226
asS'2011_37'
p227
(lp228
S'worst story costumes ever'
p229
asS'2011_36'
p230
(lp231
S'actor helen wood'
p232
asS'2011_33'
p233
(lp234
S'think nope'
p235
aS'lucky minutes nice reach treble figures'
p236
aS'done'
p237
aS'taking account fingers followers twitter chance requesting peeps follow'
p238
aS'salt water cibo mato heard qaulity'
p239
aS'please follow wife'
p240
aS'please follow wife'
p241
aS'hope well peter chance message wife michelle'
p242
aS'legend'
p243
aS'possibility best week would defo help cheer'
p244
aS'gutted efforts followers help needed'
p245
aS'discraceful seen weather today merry friday'
p246
aS'must talking thanks true'
p247
aS'hmmm walcot wilshere gibbs rosicky nasri arshavin qaulity eyes'
p248
aS'would desperately like idea past email would please follow allow touch'
p249
aS'tweet really need together'
p250
aS'finger'
p251
aS'morning gareth mean christiano mean daniel shall'
p252
aS'first class marketing idea think'
p253
aS'inspiring business idea jamie please follow email across thanks'
p254
aS'strip'
p255
aS'know knows need know family friends much value realise'
p256
aS'know knows need know'
p257
ag175
aS'wife said tell peck sure means'
p258
aS'costa fortune quintins brother'
p259
ag175
aS'hours working counting coffee anyone please'
p260
asS'2011_32'
p261
(lp262
S'watching ironman eating shreddies chilling wife good times'
p263
aS'sunday unmotivated'
p264
aS'123581321345589144'
p265
aS'apple crumble cream please'
p266
aS'kindergarten classic'
p267
aS'watching home alone forgot cool film'
p268
asS'2011_38'
p269
(lp270
S'chalk cheese'
p271
asS'2012_39'
p272
(lp273
S'feedback suggestions reccomendations help would much appreciated'
p274
aS'could cover variety industries electrical contractors engineers industrial companies facilities management governm\xe2\x80\xa6'
p275
aS'looking speak anyone requirement following products lighting lamps cables wiring accessories domes\xe2\x80\xa6'
p276
aS'want reduce utilities bills drop email'
p277
aS'looking save money energy bills drop email'
p278
as.