(dp0
S'2013_7'
p1
(lp2
S'reasonstolove someone sticks side since start thick thin'
p3
aS'love shouldnt hurt'
p4
aS'reasonstolove someone truly loves back'
p5
aS'everyone beautiful inside people choose show'
p6
aS'waystomakememad liking girls pictures relationship unfaithful'
p7
aS'waystomakememad talking touching flirting boyfriend thats ways'
p8
aS'people really love tend jealous stupid things'
p9
aS'faithful boyfriend girlfriend common sense'
p10
aS'dont'
p11
aS'long keep heartyou whatever life throw'
p12
aS'dont make people especially insecurities'
p13
aS'people make hard hate others make hard love'
p14
aS'love never true false love love'
p15
aS'never swear girlfriend even youre'
p16
aS'never lovehate relationship never'
p17
aS'love isnt like movies wake reality already'
p18
aS'love good'
p19
aS'goodmorning beautiful ladies'
p20
aS'love'
p21
aS'wish could right'
p22
aS'love doesnt last make last'
p23
aS'love doesnt need perfect needs true'
p24
aS'dont anyone bring'
p25
asS'2013_46'
p26
(lp27
S'youll never understand'
p28
aS'current mood'
p29
aS'date'
p30
aS'makes smile middle kissing'
p31
aS'hope left'
p32
asS'2013_47'
p33
(lp34
S'honestly thought going happened dont know would shes everything'
p35
aS'never stay happy'
p36
aS'forgive peoples mistakes heavenly father forgive matthew please retweet'
p37
aS'neck kisses weakness'
p38
aS'cheating choice mistake'
p39
aS'dying know afraid find'
p40
aS'doesnt twitter follow'
p41
aS'really hope grandma okay'
p42
aS'went whole school crying great gotta love life'
p43
aS'sweetest things girl little things know shes heart mind\xe2\x80\xa6'
p44
aS'shit happens trust wrong people'
p45
aS'relationship important relationships'
p46
asS'2013_44'
p47
(lp48
S'girl wants hear girls'
p49
aS'retweet love'
p50
aS'happiness realize blessed'
p51
aS'need stop thinking know youre thinking basically'
p52
aS'seeing play little kids attractive thing ever'
p53
aS'youre alone think'
p54
aS'never ignore person loves cares misses'
p55
aS'always love'
p56
aS'still fucking love'
p57
asS'2013_48'
p58
(lp59
S'someone come stay'
p60
aS'couples make realize someone love forever'
p61
aS'sorry caring'
p62
aS'love typically become jealous anger easily small things often worry losing'
p63
aS'feels good hospital'
p64
aS'matter believes something learn another small vast amount wisdom'
p65
asS'2013_40'
p66
(lp67
S'girls arent going talk first\xe2\x80\xa6'
p68
aS'relationship important anything know sure that\xe2\x80\x99s relationship'
p69
aS'used make feel beautiful'
p70
aS'tired fake friends drama liars ignored getting hurt'
p71
aS'ever want outside middle night walk around actually anything observe'
p72
aS'wonder youre scared lose'
p73
aS'feeling betrayed everyone'
p74
aS'take notes boys love'
p75
aS'feel alone'
p76
aS'forget cause still waiting'
p77
aS'girl cries usually thing built anger emotions shes holding long\xe2\x80\xa6'
p78
aS'dont need perfect need someone make'
p79
aS'love'
p80
aS'every relationship problems makes perfect still want together things wrong'
p81
aS'pure lasting relationship fights trust faith tears hurt laughter stupid unnec\xe2\x80\xa6'
p82
aS'happiest girl ever emotional wreck seconds'
p83
aS'dont feel love'
p84
asS'2013_37'
p85
(lp86
S'loving someone never easy'
p87
aS'feel never felt anyone else'
p88
aS'eyes burning'
p89
aS'wanna know love really know'
p90
aS'mine mine stop'
p91
aS'smile literally cutest thing ever seen life'
p92
aS'hope girl'
p93
aS'last always forever'
p94
aS'every minute hope soon'
p95
aS'sometimes need past away move life'
p96
aS'want person youre scared lose'
p97
aS'feel sick'
p98
aS'love'
p99
aS'pissed'
p100
aS'miss babe'
p101
aS'nationaltellagirlsheisbeautifulday make sure tell'
p102
aS'fuck'
p103
asS'2013_36'
p104
(lp105
S'happy month babe love much'
p106
aS'love'
p107
asS'2013_33'
p108
(lp109
S'love someone'
p110
aS'fall someones personality everything becomes beautiful'
p111
aS'confession diagnosed depression ednos self harm suicidal thoughts'
p112
aS'lesser care happier youll'
p113
aS'tell dont like someone expect respect ignore'
p114
asS'2013_39'
p115
(lp116
S'people meant together eventually find back others arms matter'
p117
aS'feeling youre gonna leave'
p118
aS'never fall love much lose'
p119
asS'2013_38'
p120
(lp121
S'fear used'
p122
aS'love fucking hurts'
p123
aS'secret love'
p124
as.