(dp0
S'2013_42'
p1
(lp2
S'today stats followers unfollower'
p3
aS'today stats followers unfollower followed people'
p4
aS'dont need prettiest girl ever cause beauty build someones insecurity'
p5
asS'2013_43'
p6
(lp7
S'today stats followers unfollowers followed people'
p8
aS'could look eyes would feel paradise'
p9
aS'together forever never apart maybe distance never heart'
p10
aS'love always love ever hope forget never'
p11
aS'love made wealthy beyond dreams\xe2\x99\xa5'
p12
aS'texted'
p13
aS'complete akung night feelingloved\xe2\x99\xa5'
p14
aS'loves hurts'
p15
aS'today stats followers unfollowers'
p16
aS'today stats followers unfollowers followed people'
p17
aS'today stats followers unfollower'
p18
aS'today stats followers unfollower'
p19
aS'today stats follower unfollowers'
p20
asS'2013_40'
p21
(lp22
S'today stats followers unfollowers'
p23
aS'today stats followers unfollowers followed people'
p24
asS'2013_41'
p25
(lp26
S'today stats follower unfollowers'
p27
aS'today stats followers unfollower'
p28
aS'today stats follower unfollowers'
p29
asS'2013_46'
p30
(lp31
S'today stats follower unfollowers'
p32
aS'today stats follower unfollowers'
p33
aS'today stats followers unfollower'
p34
aS'today stats followers unfollowers'
p35
aS'today stats followers unfollower followed people'
p36
asS'2013_47'
p37
(lp38
S'today stats followers unfollower'
p39
aS'today stats followers unfollowers'
p40
aS'today stats followers unfollowers'
p41
aS'today stats follower unfollowers'
p42
aS'today stats followers unfollower'
p43
asS'2013_44'
p44
(lp45
S'today stats follower unfollower'
p46
aS'today stats followers unfollower'
p47
aS'today stats followers unfollowers followed person'
p48
aS'today stats followers unfollowers followed people'
p49
aS'today stats followers unfollowers followed people'
p50
aS'titanium'
p51
aS'hello kuya carl fell safe dont mind ugly face hahahahaha'
p52
aS'yesterday pictorial'
p53
aS'behind every beautiful girl theres dumb whove done wrong made strong'
p54
aS'life goes wrong sisters make best friend'
p55
aS'pink shirt grey skirt cold hahahahaha'
p56
aS'psssst'
p57
aS'lost followers recently know thanks'
p58
asS'2013_45'
p59
(lp60
S'today stats followers unfollower'
p61
aS'today stats follower unfollower followed people'
p62
aS'today stats followers unfollowers'
p63
aS'today stats followers unfollowers followed person'
p64
aS'today stats followers unfollower'
p65
aS'today stats followers unfollowers'
p66
asS'2012_47'
p67
(lp68
S'hahaha nako pasok pakase bukas exam sana pasar nyahaha goodnight guys sweetmoosh'
p69
aS'friend someone truth pain even fooling everyone else'
p70
aS'hahiizt boriiing walang load gtlt walang makaka'
p71
asS'2012_46'
p72
(lp73
S'love single'
p74
aS'complete sound trip'
p75
aS'mario maurer plsss'
p76
aS'hellow'
p77
aS''
p78
asS'2013_25'
p79
(lp80
S'tired school'
p81
asS'2013_27'
p82
(lp83
S'favorite number nako'
p84
aS'micaaaaaaaaaah'
p85
asS'2013_20'
p86
(lp87
S'today stats follower unfollowers'
p88
aS'create beautiful online slideshows instantly latest awesome slidely video'
p89
aS'people followed people unfollowed automatically checked'
p90
aS'afternoon everyone'
p91
aS'people unfollowed automatically checked'
p92
asS'2013_21'
p93
(lp94
S'hehe good evening friends'
p95
aS'twitter status'
p96
aS'ikaw ngano ingana please mind'
p97
aS'today stats unfollower'
p98
aS'today stats unfollower'
p99
aS'person unfollowed automatically checked'
p100
asS'2013_22'
p101
(lp102
S'sunny morning crusaders'
p103
aS'girls wanna'
p104
asS'2013_28'
p105
(lp106
S'feeling hungry'
p107
aS'love twitter'
p108
asS'2013_29'
p109
(lp110
g78
aS'good night regards nalang niya'
p111
aS'hahaha forgot kabalo nako kung nila kuha akung name rrrrr coldpleasecomejustforme'
p112
aS'palabi nako good night sweetmosh loveuallots\xe2\x99\xa5 fharleeeeeeeeeeeene'
p113
aS'okay matulog nalage murag nalang mata'
p114
aS'murag sleepy naman pero dili pako katulogon talaga nalang mata'
p115
aS'booooooooooored'
p116
aS'wala magawa kung bitaw siya kung nakita bitaw nako siya siguro dili online'
p117
aS'eksssssssssdixd'
p118
aS'feeling bitaw nako murag feel lang feeling nako feel nako siya kana bitawng feeling murag ambot'
p119
aS'bilis haaaaaaah class tomorrow eeeehm plabi'
p120
aS'follow beeeee naabsan nila years'
p121
aS'varsity23 weeeh korean parin'
p122
aS'pero atik'
p123
aS'dear kabalo wala nahadlok kung makita nimo tweet nako cause know baga biya faaaaace klaro haha'
p124
aS'high school life enjoy sometimes crazy love other\xe2\x99\xa5'
p125
aS'korean\xe2\x99\xa5'
p126
aS'koreanlt3 feelinglovey'
p127
aS'goodafternoon feelinggreat'
p128
asS'2012_48'
p129
(lp130
S'hello december goodbye november'
p131
asS'2013_1'
p132
(lp133
S'good morning blessed sunday'
p134
aS'ganda bagong hair vice'
p135
aS'happy year everyone wish success year'
p136
asS'2012_29'
p137
(lp138
g78
aS'thank note friends'
p139
aS'yessssss naka narin galing school'
p140
aS'urrrggggg'
p141
aS'hahahahhaaa'
p142
aS'spent friends always aday well spent'
p143
asS'2013_17'
p144
(lp145
S'sorry took level'
p146
aS'helloooo'
p147
asS'2012_52'
p148
(lp149
S'good morning everybody'
p150
asS'2013_37'
p151
(lp152
S'today stats followers unfollowers'
p153
aS'today stats followers unfollower followed people'
p154
aS'today stats followers unfollower'
p155
aS'pssst'
p156
asS'2013_36'
p157
(lp158
S'today stats followers unfollower followed person'
p159
aS'today stats followers unfollowers'
p160
aS'today stats followers unfollowers followed people'
p161
aS'cant imagine nako coming sept excited birth approaching'
p162
aS'today stats follower unfollowers followed person'
p163
aS'awesome cause unfollowed today know thanks'
p164
aS'online boring'
p165
aS'choi kang awesome idol'
p166
aS'grrrrrr gtlt kainis'
p167
aS'hate'
p168
aS'cant explain feelings headache'
p169
aS'phone bored'
p170
aS'exhausted'
p171
aS'abseeeeeeeeeent maka trip puteeeek'
p172
asS'2013_35'
p173
(lp174
S'hate people look phone typing something hide damn business'
p175
aS'pillow best stylist everytime wake morning come different hair style goog morning'
p176
aS'dont need word love need making feel love totally true fharleneearika'
p177
aS'never late learn time learn late bitaw'
p178
aS'karon pako naka balo real story diay impossible'
p179
aS'hihello good afternoon keep safe smile'
p180
aS'everybody knows love people know stay inlove person long period time\xe2\x99\xa5'
p181
aS'hurt already learned part someones life strangers'
p182
aS'forget things made focus present completes smile'
p183
aS'dont need someone complete need someone accept completely'
p184
aS'hello'
p185
aS'boring'
p186
aS'hello back wanna rock'
p187
asS'2013_34'
p188
(lp189
S'gotta rest tired'
p190
ag78
aS'hello guys hahaha'
p191
aS'miss read messages smile like idiot'
p192
aS'dont need insecure quality others quality makes personality stand among rest'
p193
aS'twinkle twinkle star earth charm feelinggreat'
p194
aS'inspired someone simplest best reason find self secretly smiling fharleneearika'
p195
aS'hello'
p196
asS'2013_33'
p197
(lp198
S'hello'
p199
aS'smile\xe2\x99\xa5 kpop maroon5 koreandramas photography japaneseanime koreanmovies'
p200
aS'bloods makes great mouth wash whitedress loveit\xe2\x99\xa5'
p201
aS'sleepy heads tired'
p202
asS'2013_32'
p203
(lp204
S'tomorrow another varsity'
p205
aS'thank following enjoy tweets hahaha'
p206
asS'2013_31'
p207
(lp208
S'good evening right best friend fharlene left'
p209
aS'jodin masiba dont girl dont know'
p210
aS'gafternoon'
p211
aS'abseeeeeeent hahaha feelingblessed'
p212
asS'2013_30'
p213
(lp214
S'possible reach someone whos also reaching another someone'
p215
aS'simplicity beauty crazy make beautiful express self easily crazy'
p216
aS'need someone talk share feel'
p217
aS'dear today woke alive healthy could thank'
p218
asS'2013_19'
p219
(lp220
S'good morning happy mothers'
p221
aS'rainy afternooooooooon'
p222
aS'ouch'
p223
aS'yung feeling naiinis kana kasi ayaw mopa kumain pero pinipilit parin gtlt ggrrrr'
p224
aS'yung kasabay crush swing'
p225
ag78
aS'yung feeling kalaro crush basket ball kayong dalawa lang remember nako siya hahaha'
p226
aS'good morning'
p227
aS'moment throw something friend hits someone else awkward moment'
p228
aS'seriously adorable'
p229
aS'today stats unfollower'
p230
aS'today stats followers unfollowers'
p231
aS'amazing feelings crush text first supeeeeeerkilig'
p232
aS'done'
p233
aS'hahaha peace'
p234
aS'hello'
p235
ag78
aS'cute'
p236
asS'2013_18'
p237
(lp238
S'follow awesome people twitter'
p239
aS'found people follow inactive twitter'
p240
aS'subscribed amazing lists'
p241
aS'found fake followings'
p242
aS'didnt follow back'
p243
aS'people dont follow back twitter'
p244
aS'people follow dont followback'
p245
aS'started using know unfollowed twitter'
p246
aS'sweethearts confirmed magoonline mamaya hahahahah excited kayo'
p247
aS'good evening friends'
p248
ag78
aS'justin bieber zayn malik world never know'
p249
aS'good afternoon'
p250
aS'guys studio today boys tracking vocals tracks'
p251
aS'trying forget someone love like trying remember someone never'
p252
aS'feeler'
p253
aS'cheap'
p254
aS'home'
p255
aS'tingnan instagram google play'
p256
aS'evening'
p257
asS'2013_16'
p258
(lp259
S'baliw siya sakin hahahaha hiscrazy'
p260
aS'baliw siya sakin hahahaha hiscrazy'
p261
aS'justins first interview kidrauhlmemories'
p262
aS'good night'
p263
aS'expire load hahaha twitter nanaman good evening'
p264
aS'supeeeeeeeeeer handsome'
p265
aS'done watching leemiho kimhyunjoong kimbum kimjun'
p266
aS'siguro hahaha'
p267
aS'happiness always matter choice want feel choose perfectly define good afternoon'
p268
aS'someday marry right person right reason gods permission'
p269
aS'hard people change specially miss treat lageh pero bago siya'
p270
aS'forget time want cannot find another rest youre life'
p271
ag78
ag78
aS'online'
p272
asS'2013_39'
p273
(lp274
S'today stats followers unfollower'
p275
aS'today stats follower unfollowers'
p276
aS'today stats follower unfollowers'
p277
asS'2013_38'
p278
(lp279
S'today stats follower unfollower followed person'
p280
aS'simply follow follow back sure'
p281
aS'today stats followers unfollower'
p282
aS'hello back miss twitter'
p283
asS'2013_13'
p284
(lp285
S'crycry ingon niya huhuhuhu'
p286
aS'sarap titigan crush'
p287
aS'handsome'
p288
aS'watching juan cruz'
p289
aS'guapo hahahaha walay guapo pana abdul'
p290
aS'yahay'
p291
aS'idol parkshinhye kangminhyuk kimhyunjoong goohyesun kimbum leeminho'
p292
aS'sleepy head good night people'
p293
aS'problem'
p294
aS'word power'
p295
aS'waiting together forever'
p296
aS'true friends judge judge people together hahaha'
p297
aS'fake smile feel horrible pretend happy cant pretend dont love'
p298
aS'ganda laro azkals'
p299
aS'fell inlove best friend'
p300
ag78
asS'2013_15'
p301
(lp302
S'hahaay summer walang allowance'
p303
aS'guapo'
p304
aS'hahahaha dapt lang maligo'
p305
aS'gutom junk foods nalang'
p306
aS'piatos water tahahaha'
p307
aS'hahaha'
p308
aS'miss letter'
p309
aS'rakayo summeeeeeeeeeeer tahahahaha'
p310
aS'yung namimiss yung times lagi nyang pinapasaya'
p311
aS'love people hate'
p312
aS'okay debbie eeyt okay rana maka recover raka tehehehe'
p313
aS'hahahaha isaba nako'
p314
aS'eeyt tehehehe know'
p315
aS'wish could spend time talking instead thinking'
p316
aS'crush dalawa lang naman bisyo paglalasing pagsusugal malasing pagmamahal isugal lahat'
p317
aS'maka triiiiiiiiip gtlt'
p318
aS'wala lang hahaha'
p319
ag78
aS'exooooooooooooiteeeed tehehehe'
p320
aS'late morning'
p321
aS'done'
p322
aS'paki follow pleassssssssssssss'
p323
aS'hahahah okay'
p324
aS'online'
p325
aS'samaaaaaan'
p326
aS'facebooooooooooooooooooooooooooooooook'
p327
aS'muaah'
p328
aS'rooftopprince heartstrings seruis crazylittlething'
p329
aS'gosh'
p330
aS'kiphalik'
p331
aS'cnblue'
p332
ag78
aS'twitter vingle tumblr facebook photobucket youtube pizzap hahaha'
p333
aS'girlonfire'
p334
aS'loading kanaman loading tapos walang nangyare gtlt ansaveh'
p335
aS'\xc2\xacbored ness'
p336
aS'84text 47misscalls wagas'
p337
aS'daming ttext wala akung load ngayon gtlt'
p338
aS'tehehehe walang magawa buhay'
p339
aS'naruto cause love x2x2x2'
p340
aS'assuming'
p341
aS'twitter napud'
p342
aS'sooooooooooooooooooo'
p343
aS'grrrrrrrrr sakit head gtlt'
p344
aS'gabie napud'
p345
aS'always depends shows consistent love makes women stay saaaaaaaaaaaaam'
p346
aS'watching naruto'
p347
aS'mymiddlefingerrisesuptosalluteyou'
p348
ag78
asS'2013_14'
p349
(lp350
S'realize nako kapoy diay biyahe hahaha good evening'
p351
as.