(dp0
S'2013_26'
p1
(lp2
S'wish youd'
p3
aS'please follow thank much really means'
p4
aS'guys whats please follow thank much love'
p5
aS'guys whats please follow thank much love'
p6
aS'guys whats please follow thank much love'
p7
aS'guys whats please follow thank much love'
p8
aS'guys whats please follow thank much love'
p9
aS'guys whats please follow thank much love'
p10
aS'guys whats please follow thank much love'
p11
aS'guys whats please follow thank much love'
p12
aS'guys whats please follow thank much love'
p13
aS'guys whats please follow thank much love'
p14
aS'guys whats please follow thank much love'
p15
aS'guys whats please follow thank much love'
p16
aS'harry whats loved trailer would please follow thank much love'
p17
aS'harry whats loved trailer would please follow thank much love'
p18
aS'harry whats loved trailer would please follow thank much love'
p19
aS'harry whats loved trailer would please follow thank much love'
p20
aS'harry whats loved trailer would please follow thank much love'
p21
aS'harry whats loved trailer would please follow thank much love'
p22
aS'harry whats loved trailer would please follow thank much love'
p23
aS'harry whats loved trailer would please follow thank much love'
p24
aS'harry whats loved trailer would please follow thank much love'
p25
aS'harry whats loved trailer would please follow thank much love'
p26
aS'harry whats loved trailer would please follow thank much love'
p27
aS'harry whats loved trailer would please follow thank much love'
p28
aS'harry whats loved trailer would please follow thank much love'
p29
aS'harry whats loved trailer would please follow thank much love'
p30
aS'harry whats loved trailer would please follow thank much love'
p31
aS'harry whats loved trailer would please follow thank much love'
p32
aS'harry loved trailer would please follow thank much love'
p33
as.