(dp0
S'2013_43'
p1
(lp2
S'make sure pitch around pujols thats billybandwagon'
p3
asS'2013_40'
p4
(lp5
S'philip rivers playing catch game superdad dalvssd'
p6
asS'2013_41'
p7
(lp8
S'front beautiful'
p9
asS'2013_46'
p10
(lp11
S'duuuude youre dummy duuuude haha'
p12
aS'meant send brothers'
p13
aS'check brothers'
p14
asS'2013_47'
p15
(lp16
S'robbed boxing judges judging problem judging criteria suitable'
p17
asS'2013_44'
p18
(lp19
S'weird think made lose shitthank podcast changed life around'
p20
aS'killed brotha thank canceling takes integrity come couldve easily canceled'
p21
aS'bringing house tonight'
p22
aS'enjoyed guys rocks chula vista much seeing bakersfield please sing free much love'
p23
asS'2013_45'
p24
(lp25
S'wheres disrupt disturb play calling pagano promised'
p26
aS'jake classy dude'
p27
asS'2012_44'
p28
(lp29
S'thanks great depth position valued smith'
p30
aS'hurricane sandy could displace rats media group pest control technology'
p31
aS'hurricane sandy could displace rats media group pest control technology'
p32
asS'2013_24'
p33
(lp34
S'great news means never wear silver black'
p35
asS'2013_27'
p36
(lp37
S'billy killed last night love stand podcast'
p38
asS'2013_22'
p39
(lp40
S'retweet peaked little league like'
p41
asS'2013_5'
p42
(lp43
S'beautiful smart human beings powerful'
p44
asS'2013_1'
p45
(lp46
S'joke ejected honor seeing play bolts hope strap pads'
p47
asS'2013_3'
p48
(lp49
S'fools slippin'
p50
aS'love bolts taking bold chances highly respected personnel much love bolts'
p51
asS'2013_2'
p52
(lp53
S'broncos starting white wide receivers somebody call sharpton'
p54
aS''
p55
aS'pest control conference coming phoenix 2013'
p56
asS'2012_9'
p57
(lp58
S'kris dielman legend played football meant played cont'
p59
asS'2012_5'
p60
(lp61
S'type cardio affect muscle gains drastically slow carb diet'
p62
asS'2013_17'
p63
(lp64
S'little research found worlds worst weed grass figure poweful'
p65
asS'2012_11'
p66
(lp67
S'please give smith call bolts need skills ever'
p68
asS'2012_52'
p69
(lp70
S'check beautiful documentary bouncers thanks'
p71
asS'2012_50'
p72
(lp73
S'done margie phelps clan plan picket funeral victims'
p74
aS'crap largest breakup ever filmed'
p75
asS'2012_51'
p76
(lp77
S'today last world ends getting laid eating cake lighting shit fire'
p78
aS'fellas wanna start book club'
p79
asS'2013_11'
p80
(lp81
S'going post picture parents'
p82
asS'2013_36'
p83
(lp84
S'dang looks clean taking badges'
p85
aS'like came little small going bigger tomorrow'
p86
asS'2013_34'
p87
(lp88
S'going interesting'
p89
aS'surveillance asked chick delete picture germanshepherd'
p90
aS'love honesty guests like podcasts deathsquad'
p91
aS'isnt enjoyable'
p92
aS'fmic autotech internals cobb soon fuel pump work'
p93
aS'mods'
p94
aS'change many evos stis'
p95
asS'2013_33'
p96
(lp97
S'thanks trying upgrades modified anything recently'
p98
aS'mazdaspeed mazdaspeed3'
p99
asS'2013_32'
p100
(lp101
S'make sure tools necessary makes process smoother'
p102
aS'little difficult videos lock holding spring shaft coming took taje'
p103
aS'installed auto tech internals'
p104
aS'hear painted badges working something different wheel caps show later'
p105
aS'think brotha'
p106
asS'2013_31'
p107
(lp108
S'going jock style flaps'
p109
aS'cobb worth every penny kampn fmic almost totally different'
p110
aS'whats brotha speed3 wondering tuned getting cobb soon'
p111
asS'2013_19'
p112
(lp113
S'denied cost lock gate control tempo control outcomeboltup'
p114
asS'2012_37'
p115
(lp116
S'black mitt romney bumper sticker mayans right fucking thing'
p117
asS'2013_39'
p118
(lp119
S'hope crawls asspussy cunt behind clapping staring poor little girl'
p120
aS'brotha fucking football cant take life swear ever make last'
p121
aS'going singing ludacris throwing money roof freakparty'
p122
aS'sshit brotha need pest control tech party know freakparty freakpower'
p123
aS'dont want beat drum king dunlap harris taking snaps practice'
p124
aS'hell yeah thats stay positive lets bolts boltup'
p125
asS'2013_38'
p126
(lp127
S'factory sadness quote famous youtube video'
p128
aS'brotha hoping want make keel reading need tune asap dont funds'
p129
aS'upgraded boost control solenoid'
p130
aS'even funnier someone else race'
p131
asS'2013_37'
p132
(lp133
S'ahhh yeah'
p134
as.