(dp0
S'2013_42'
p1
(lp2
S'almost'
p3
aS'stress test'
p4
aS'wedding gown mile train breaks world records'
p5
aS'care color skin place birth words actions make call'
p6
aS'djing wedding hitting duval'
p7
aS'awesome toast'
p8
aS'hayman island great barrier reef australia'
p9
aS'wedding cake idea'
p10
aS'brown wedding cake cake idea'
p11
aS'brown wedding cake cake idea'
p12
aS'cute weddingparty'
p13
aS'creative guest book alternative guests fill cards prompts'
p14
aS'custom jack daniels mini bottle labels wedding favors thank rehearsal dinner reception photo'
p15
aS'macaroni cheese pancakesomg'
p16
aS'eggocado'
p17
aS'cheese burger'
p18
aS'velassaru resort maldives'
p19
aS'classic wedding dress'
p20
aS'strapless bridal gown'
p21
aS'wedding ball gown'
p22
aS'cinderella ball wedding dress'
p23
aS'shoulder wedding dress love lace shoulder'
p24
aS'amazing back delicate'
p25
aS'unique wedding dresses'
p26
aS'sleeveless wedding dress pretty'
p27
aS'natural waist tank sleeves vneck satin lace embroidered sheath wedding dresses'
p28
aS'backless wedding gown love lace wedding gown'
p29
aS'stunning wedding dresses anna campbell 2013'
p30
aS'backless wedding dress amazing wedding dresses'
p31
aS'absolute dream dress'
p32
aS'reception centerpieces \xe2\x80\x98green\xe2\x80\x99 wedding trends 2013 elegant ecofriendly'
p33
aS'buttermilk pumpkin donuts'
p34
aS'fashioned donut recipe'
p35
aS'outdoor wedding idea wedding would cute make signs wooden blocks'
p36
aS'rustic style wedding centerpiece'
p37
aS'bright colourful wedding cupcakes wedding cakes'
p38
aS'rainbow cake wedding cakes'
p39
aS'wedding cake peach lace effect wedding cakes'
p40
aS'white chocolate wedding cake wedding cakes'
p41
aS'photo wedding cakeso cool wedding cakes'
p42
aS'pink sweetness layers delicate ruffles pretty flowers wedding cakes'
p43
aS'lace fringe wedding cake wedding cakes'
p44
aS'another whimsical wedding beautiful cake wedding cakes'
p45
aS'chocolate bark pink roses artistic wedding cake'
p46
aS'sprinkle wedding cake weddingcake adorable'
p47
aS'autumn bridal bouquet flowers'
p48
aS'lucky elephant light holder sz040 party decoration bridal shower favor home decor shangh'
p49
aS'white blue wedding cake weddinginspirasi'
p50
aS'blue wedding cake wedding'
p51
aS'wedding'
p52
aS'blue wedding cakes'
p53
aS'wedding hair soft waves delicate beaded bridal hairband'
p54
aS'wedding hair greenery'
p55
aS'wedding hair floral inspiration harper'
p56
aS'wedding hair'
p57
aS'wedding inspiration'
p58
aS'burlap favor bags rustic wedding favors etsy'
p59
aS'janets vegetarian lasagna'
p60
aS'gorgeous wedding gown katandjim photo poirier wedding photography'
p61
aS'happy birthday lady panther julie'
p62
aS'amazing'
p63
aS'youtube crowd raisingcanes'
p64
aS'dorcia dawn tuscany italy'
p65
aS'beach themed wire placecard holders individually packaged mesh poly included place card'
p66
aS'wedding hair ideas'
p67
aS'colored centerpieces wedding love idea wedding lighted tables probably would'
p68
aS'smores bites'
p69
aS'thank follow'
p70
aS'simple wedding dress alma novia 2012 wedding dresses saloman'
p71
aS'halter wedding dress empire waist chapel train sleeveless lace elegant bridal gown'
p72
aS'beautiful brides maid dress maybe even simple wedding dress accessories could really'
p73
aS'torres paine chile jetsettercurator'
p74
aS'client cute send picture loved volume ponytail created wedding'
p75
aS'bridal hair trial location mandarin oriental simple polished'
p76
aS''
p77
aS'wedding hair hair braids'
p78
aS'piggy bottle bank'
p79
aS'honeymoon bathing suit cutest customizable everything could imagine bridal party'
p80
aS'bling centerpieces sohocateringandevents floridawedding lafleur'
p81
aS'amazing makeup tutorials'
p82
aS'beach wedding dress white lace maxi dressrehearsal'
p83
aS'smores stick easy party'
p84
aS'tomato basil chicken'
p85
aS'yellow grey wedding bouquet yellow wedding bouquet'
p86
aS'peacock wedding bouquet ideas peacock wedding inspiration'
p87
aS'gorgeous bridal bouquet multicolored bridal bouquet'
p88
aS'gorgeous bridal bouquet pour classy'
p89
aS'marriage advice youve friends family place take opportunity'
p90
aS'wedding shoes found wedding shoe personanlized vinyl decal memories snap wish chec'
p91
aS'instead guestbook guests signwrite message bottom polaroid make photo album'
p92
aS'west weekend always look forward tweets'
p93
aS'beach ceremony cphollywoodfl'
p94
aS'wedding candy pretty monochromatic setup wedding candy table makes hard'
p95
aS'strapless wedding dress wedding dress wedding dresses'
p96
aS'look forward seeing'
p97
aS'strapless wedding dress fantastic line lace wedding dress lemonweddingdress 25900'
p98
aS'beach themed centerpieces'
p99
aS'everythings fantastic actually think wedding together theresa'
p100
aS'prefer band something else'
p101
aS'tall centerpiece manzanita centerpieces dripping orchids'
p102
aS'flowers books centerpiece idea flowers books'
p103
aS'thank follow hesitate call serve 9549015116'
p104
aS'floral wedding centerpieces floral table design jeff leatham'
p105
aS'watch awesome video displaying 20132014 jewelry line'
p106
aS'siamese'
p107
aS'beach wedding dress'
p108
aS'great beach weddings'
p109
aS'keep getting notice join twitter already following life good'
p110
aS'wedding hair simple elegant'
p111
aS'twisted'
p112
aS'overlapping halfup halfdown'
p113
aS'cute'
p114
aS'twisted pony'
p115
aS'view duval street stretches gulf mexico atlantic ocean'
p116
aS'paint chip pocket'
p117
aS'paint chip pocket'
p118
aS'jenga guest book haha probably wont like'
p119
aS'gold wedding cake metallic cake mandywow know could metallic'
p120
aS'would love work sometime work'
p121
aS'gold wedding cake amazing gilded wedding cake'
p122
aS'ruched bodice flower embroidered gown ines santo photo larry fagala'
p123
aS'bride wants sparkle enaura bridal gown available'
p124
aS'strapless lace gown tulle bottom photo lulu lopez photography'
p125
aS'beautiful bride'
p126
aS'tiffany cook transforms beachfront estate liann danny weeks platinum weddings part'
p127
aS'florida wedding venue west wedding reception setup casa marina resort studio julie'
p128
aS'yellow table decor casa marina resort west florida photography studio julie'
p129
aS'beach wedding'
p130
aS'send bride wedding advice'
p131
aS'finish ends bouquets corsage pins extra touch start planning'
p132
aS'modern white centerpiece hydrangeas lilies start planning dreams visit'
p133
aS'purple orchid bouquet belmont country club'
p134
aS'wedding hair understated elegant belmont country club'
p135
aS'tony thank inspiration guidance years know almost valley coming'
p136
aS'fall wedding reception centerpieces fall theme parkland golf country club wedding'
p137
aS'mason jars chalk labels'
p138
aS'mason jars chalk labels'
p139
aS'greatest pleasure life people cannot walter bagehot'
p140
aS'incomparable hepburn'
p141
aS'western diamond bridal shoe'
p142
aS'western diamond bridal shoe'
p143
aS'grand opening anniversary simcha still looking holiday party call 9549015116'
p144
aS'audrey hepburn photographed richard avedon paris 1959'
p145
aS'classy women dont around half naked gain attention'
p146
aS'epic absolutely awesome'
p147
aS'cute cute cute'
p148
aS'video elaborate proposal time'
p149
aS'copper inspired wedding shoot house earnest metallics sort cool block'
p150
aS'paper gift year wedding anniversary'
p151
aS'adorable'
p152
aS'simple elegant wedding cake'
p153
aS'uplighting free mentioning tweet 9549015116 call'
p154
aS'pink blue floral wedding cake'
p155
aS'purple wedding cake'
p156
aS'awesome'
p157
aS'starfish cake'
p158
aS'plus scoop wear brightlycolored wedding dress send photos'
p159
aS'love ocean resort great prep article fantasy event'
p160
aS'life babushka'
p161
aS'hope share article wests saucy fantasy fest tips firsttimers'
p162
aS'life hugs kisses'
p163
aS'sexy womens ankle boots black rhinestones ribbon design chiq 2489'
p164
aS'charm foot platform ankle boots click purchase'
p165
aS'printer wont communicate thank kinkos print ship center'
p166
aS'south plantation high school plantation'
p167
aS'peters 59th plantation'
p168
aS'south plantation high school plantation'
p169
aS'hanging sunflower globe garden'
p170
aS'stunning calla lilies'
p171
aS'bride scoured etsy months find perfect vintage leathertooled purses'
p172
aS'terrarium place holders'
p173
aS'antique doorknobs'
p174
aS'cute glue spray paint'
p175
aS'save date shoe create custom save date idea'
p176
aS'guest book finger prints instead signatures'
p177
aS'great guests sign wedding writing good wishes cute'
p178
aS'great wedding idea imgur'
p179
aS'audrey hepburn wedding dress pierre balmain 1954'
p180
aS'grace kelly'
p181
aS'happy halloween'
p182
aS'bunny pillow'
p183
aS'love bird cake topper cake toppers wedding cakes photos cakebee'
p184
aS'love cake topper cake toppers wedding cakes photos square'
p185
aS'cake topper wedding weekend paul jackie stripping sweet stands'
p186
aS'golf cake topper golf cart bride groom wedding cake topper funny 5999'
p187
aS'anchor cake topper custom anchors away letter anchor nautical monogram wedding'
p188
aS'wedding cake topper wedding cake topper heart black'
p189
aS'robot cake topper robot bride groom wedding cake topper 7500 etsy'
p190
aS'pinecone cake topper rustic wedding cake topper pine cone forest fall country winte'
p191
aS'starfish cake topper'
p192
aS'funny wedding cake topper reluctant bride cake topperfor bride groom great sense'
p193
aS'bride groom sandy beach cake topper'
p194
aS'chess wedding cake topper wedding wonder'
p195
aS'beach chair wedding cake topper ocean beach themed wedding cake'
p196
aS'photographer couple wedding cake topper lovely photographer couple customized cake topper'
p197
aS'seahorse wedding cake topper vintage seahorse wedding cake topper'
p198
aS'puzzle piece wedding cake topper wedding cake topper custom puzzle pieces item e10636'
p199
aS'coeur'
p200
aS'hooked love cake topper'
p201
aS'look love bride groom couple figurine awwe cute'
p202
aS'couch potato cake topper'
p203
aS'wedding cake topper drunk bride'
p204
aS'wedding cake topper custom wedding cake topper star wars kissing 100original'
p205
aS'wedding cake topper'
p206
aS'wedding cake topper peacock'
p207
aS'personalized wedding cake topper wood initials rustic chic country barn decor cake decorations item'
p208
aS'wedding cake topper double heart cake topper inch'
p209
aS'robot cake topper cake topper'
p210
aS'simple cake topper'
p211
aS'cake topper'
p212
aS'blueberry cake cool'
p213
aS'chocolate covered strawberries cake'
p214
aS'hahaha friends'
p215
aS'strapless wedding dress'
p216
aS'wedding dress'
p217
aS'gorgeous'
p218
aS'lwren scott london spring 2014'
p219
aS'white wedding cake love'
p220
aS'pearlbeauweddingcake'
p221
aS'dont forget free starbucks wedding'
p222
aS'disney wedding repin'
p223
aS'pink party'
p224
aS'table numbers part centerpieces notwedding event photo michelle landreau view'
p225
aS'flower girl dress adorable'
p226
aS'woodland forest garden wedding dress claire pettibone'
p227
aS'short wedding dress lace bolero wedding'
p228
aS'tiffany cake'
p229
aS'colorful makeup auroramakeup'
p230
aS'black tied bridal bouquet'
p231
aS'present centerpieces'
p232
aS'fabulous prada baroque sunglasses fabulous'
p233
aS'princess black diamond ring looks similar mine except black kind cool idea'
p234
aS'outfit'
p235
aS'back'
p236
aS'versace synvansweete imbert imbert sweete'
p237
aS'halo diamond ring love'
p238
aS'eiffel tower autumn eiffel tower'
p239
aS'vernazzacinque terreitaly'
p240
aS'cabo lucas mexico'
p241
aS'open back wedding dress 2013 wedding dress satin backless jeweled sleeves'
p242
aS'shoulder wedding dress vera wang'
p243
aS'feel heavenly special evening date'
p244
aS'strapless wedding dress bridal gowns bridal gowns bridal gowns'
p245
aS'strapless wedding dress marley modern trousseau'
p246
aS'strapless wedding dress pretty dress'
p247
aS'strapless wedding dress allure bridals'
p248
aS'strapless wedding dress'
p249
aS'ninja shiba'
p250
aS'cute rotterweiler'
p251
aS'thankslab pups awesome'
p252
aS'apple cinnamon crepes apple crepe breakfast dessert falldess'
p253
aS'recipe breakfast pizza'
p254
aS'boats boats breakfast favorite literally take less five'
p255
aS'pumpkin birthday cake pumpkin madhousebakes cake decorating'
p256
aS'edible creation'
p257
aS'enchanted forest wedding cake'
p258
aS'simply gorgeous bobbette belle'
p259
aS'faye cahill cake design'
p260
aS'wedding cakes shutterhead photography'
p261
aS'monochrome chic sophias cake boutique'
p262
aS'effective ribbon decorate otherwise plain cake'
p263
aS'tiffany blue wedding cake'
p264
aS'uniquely beautiful'
p265
aS'roses frostitfancy'
p266
aS'serendipity photography'
p267
aS'edible creations kristen weaver photography'
p268
aS'cherry blossom cake'
p269
aS'weddings winner elite cake creations'
p270
aS'elite cake tiffany'
p271
aS'awardwinning cake goodness cakes photo wilke howard'
p272
aS'wedding design lemiga events'
p273
aS'yellow white cake alexander'
p274
aS'funky wedding cake goodness cakes'
p275
aS'unique wedding cake goodness cakes'
p276
aS'spectacular silver white cake goodness cakes'
p277
aS'stunning wedding cake fondant silver beading'
p278
aS'wedding cake nude lace sugar flowers'
p279
aS'white wedding cake color'
p280
aS'alice wonderland cake'
p281
aS'cake thats dripping bling'
p282
aS'ever pretty vneck diamante closefitting satin holiday adds'
p283
aS'adorable bride groom salt pepper shaker favors 12pcs 6set tc008 weddin'
p284
aS'novelty topiary place card holders zh017a tableware dinnerware'
p285
aS'natural bamboo friendly coaster favors40pcs 10setbd023 wedding'
p286
aS'sz042 aint love grand piano place card holders cards party events deco'
p287
aS'wedding favor merlot wine glass candle lz041 party event birthday'
p288
aS'\xe6\x8b\x96\xe9\x9e\x8b\xe5\xbc\x80\xe7\x93\xb6\xe5\x99\xa8\xe6\xac\xa7\xe7\xbe\x8e\xe5\xa9\x9a\xe5\xba\x86\xe7\x94\xa8\xe5\x93\x81\xe5\x88\x9b\xe6\x84\x8f\xe5\x9b\x9e\xe7\xa4\xbc\xe5\xa9\x9a\xe7\xa4\xbc\xe5\x9b\x9e\xe7\xa4\xbcwj058\xe6\xb7\x98\xe5\xae\x9d\xe7\xbd\x91'
p289
aS'reception gift card holder wedding weddingreception'
p290
aS'personalized acrylic square cake topper wedding weddingreception'
p291
aS'personalized celebration cake topper wedding weddingreception'
p292
aS'personalized acrylic heart cake topper wedding weddingreception'
p293
aS'signature vase wedding weddingreception'
p294
aS'square glass photo vase wedding weddingreception'
p295
ag77
aS'lighting'
p296
aS'long table centerpiece candlesticks'
p297
aS'cute book centerpiece'
p298
aS'books centerpiece fredericksburg barn wedding rachel whyte'
p299
aS'gold'
p300
aS'rock candy cake rock candy cake'
p301
aS'chic pastel bridesmaid bouquet full roses renaissance floral design'
p302
aS'headband flower girl'
p303
aS'gorgeous'
p304
aS'southern sweetie braid'
p305
aS'loose braided updo'
p306
aS'lykkelipngpng 500\xc3\x97632 pixels'
p307
aS'brytny kiley colorado maternity photography laura murray photography gtgt boutique wedding'
p308
aS'waterfall braid side updo pretty'
p309
aS'romantic earthy bouquet'
p310
aS'lovely shades purple bouquet'
p311
aS'beautiful hair style floral hair accents'
p312
aS'romantic wedding hairstyle'
p313
aS'kiss'
p314
ag77
ag77
aS'kennebunkport maine'
p315
aS'rustic glam'
p316
aS'acqualina wedding lighting pinspotted centerpieces'
p317
aS'bath club miami wedding show lighting'
p318
aS'hotel south beach wedding lighting'
p319
aS'hotel south beach wedding lighting'
p320
aS'monique lhuillier bridal spring 2014 coral gables chic parisien'
p321
aS'checkout weddings keys'
p322
aS'monique lhuillier bridal spring 2014 coral gables chic parisien'
p323
aS'monique lhuillier bridal spring 2014 coral gables chic parisien'
p324
aS'monique lhuillier bridal spring 2014 coral gables chic parisien'
p325
aS'jenny packham dress photo ozzy garcia'
p326
aS'anne barge bridal collection 2013 coral gables chic parisien'
p327
aS'monique lhuillier bridal fall 2014 coral gables bridal chic parisien'
p328
aS'monique lhuillier bridal fall 2014 coral gables bridal chic parisien'
p329
ag77
aS'like oriental trading adult crafters'
p330
aS'cute save dates'
p331
aS'spring bouquets inspiring floral'
p332
aS'bouquets white calla lily bridal'
p333
aS'sweet sunflower wedding flowerswedding'
p334
aS'love ombre effect arrangement martha stewart weddings'
p335
aS'wine bottles winter wedding'
p336
aS'beautiful candle decor'
p337
aS'christian louboutin marie antoinette'
p338
aS'chair decor'
p339
aS'cigar'
p340
aS'wedding hair'
p341
aS'google image result'
p342
aS'attractive bateau halfsleeve floorlength trumpetmermaid wedding dresses'
p343
aS'wedding gown couture'
p344
aS'love dress poofy part reception'
p345
aS'dresses holding tightpeter langner bridal dress modern elegant white wedding gown'
p346
aS'front'
p347
aS'dresses look 21oscar renta wedding gown oscar renta oscar renta'
p348
ag77
aS'adorable'
p349
aS'bachelorette party keepsake everyone sign print'
p350
aS'custom superhero cufflinks groomsmen'
p351
aS'beach themed place cards escort cards'
p352
aS'peekytoe crab cake'
p353
aS'spectacular wedding cake creation regis harbour pastry team'
p354
aS'first wedding cake created regis harbour pastry team'
p355
aS'loving bright purple white vases white table clothe splash color'
p356
aS'unique cake toppers weddings'
p357
aS'swooped back loose'
p358
aS'kids attending wedding plates blank card \xe2\x80\x9ccolor'
p359
aS'summer'
p360
aS'beautiful fall eyeshadow'
p361
aS'disneys alfred angelo cinderella dress sometimes cheat snow white dress'
p362
aS'stella york'
p363
aS'twist front gown jeweled sleeves reem acra'
p364
ag77
aS'mumbai indias highest rooftop gorgeous sunset exotic beauty'
p365
aS'outdoor ocean eating warwick fiji resort tropical luxury'
p366
aS'spring centerpieces'
p367
aS'pink ivory flower cake'
p368
aS'wedding cake cake paris'
p369
aS'lovely wedding cake'
p370
aS'bridal shoes perfectly striped pumpsphotography rebecca arthurs'
p371
aS'lace bridal shoes pretty feminine'
p372
aS'classic white wedding cake'
p373
aS'pink white green bouquet paul johnson wedding'
p374
aS'bouquetnavy pink nautical themed wedding'
p375
aS'nature wedding cake lovely'
p376
aS'field wedding cake'
p377
aS'grass centerpieces'
p378
aS'terrarium escort card kelli murray'
p379
aS'modern coral quatrefoil wedding cake'
p380
aS'ecru pearls damask ruffle flowers'
p381
aS'malmaisonglamelia bouquet'
p382
aS'coral wedding bouquet'
p383
aS'pinwheel wedding cake anna elizabeth cakes'
p384
aS'floral wedding cake love cake'
p385
aS'crown'
p386
aS'coral bouquet'
p387
aS'pink manolo mary janes'
p388
aS'sugar flowers'
p389
aS'pinning floral hair cake checkout'
p390
aS'blue white coral wedding cake'
p391
aS'coral bridal bouquet love colors'
p392
aS'gorgeous dress'
p393
aS'love cake'
p394
aS'pink floral crown garden whimsy'
p395
aS'style sweets editors pick backyard wedding garden rustic outdoor lace bridal gown bride groom'
p396
aS'woodsy wedding cake'
p397
aS'candles always look beautiful centerpiece'
p398
aS'feathers floral centerpieces'
p399
aS'purple feather bridesmaids bouquet laplumeethere etsy'
p400
aS'purple floral wedding hair dont afraid punches color'
p401
aS'zuhair murad 2012'
p402
aS'deep purple bouquet'
p403
aS'incredible purple lace cake sugarlumpcakery'
p404
aS'blue purple floral centerpieces blue purple photography floral'
p405
aS'pretty bouquet'
p406
aS'purple centerpiece dangling crystals adds elegance'
p407
aS'hydrangea flower wedding cake'
p408
aS'purple wedding cake'
p409
aS'pretty purple ruffle cake'
p410
aS'purple flower wedding cake'
p411
aS'purple floral centerpieces elegant photo'
p412
aS'purple violet wedding bouquet'
p413
aS'bejeweled turquoise purple blue wedding cake'
p414
aS'photography craig paulson photography event planning weddings events'
p415
aS'wedding cake'
p416
aS'wedding hair lavender everywhere'
p417
aS'wedding cake'
p418
aS'birds paradise floral centerpiece tropical floral arrangements wedding'
p419
aS'single pink floral centerpiece'
p420
aS'pink floral centerpiece'
p421
aS'york ivory linen'
p422
aS'mason centerpiece'
p423
aS'floral centerpiece ideas'
p424
aS'gorgeous white floral centerpieces mahogany chiavari chairs provided eventiste'
p425
aS'rustic deco crate'
p426
aS'brides bouquet photograph taken gloria ruth photography'
p427
aS'white wedding bouquet inspiration'
p428
aS'gilded cake topper photography wedding coordination weddingsincorlan'
p429
aS'cake sugar fancies kate spade inspired wedding shoot chelsey boatwright photography'
p430
aS'tall wedding centerpieces bing images'
p431
aS'tall wedding centerpieces weddingflowers centerpiece branches white magenta'
p432
aS'tall wedding centerpieces tall wedding centerpiece california weddings'
p433
aS'tall wedding centerpieces heavenly blooms hollywood roosevelt hotel glamourous wedding'
p434
aS'tall wedding centerpieces tall rose wedding centerpiece elizabeth anne designs wedding'
p435
aS'tall wedding centerpieces winter tall reception centerpieces'
p436
aS'make tall wedding centerpiece less minutes'
p437
aS'tall wedding centerpieces winter tall reception centerpieces'
p438
aS'tall wedding centerpieces tall rose wedding centerpiece elizabeth anne designs wedding'
p439
aS'tall wedding centerpieces heavenly blooms hollywood roosevelt hotel glamourous wedding'
p440
aS'tall wedding centerpieces tall wedding centerpiece california weddings'
p441
aS'tall wedding centerpieces weddingflowers centerpiece branches white magenta'
p442
aS'tall wedding centerpieces bing images'
p443
aS'pink yellow wedding centerpieces things festive wedding blog pink yellow garden wedding'
p444
aS'yellow wedding reception centerpieces yellow wedding centerpieces wont color'
p445
aS'yellow wedding reception centerpieceslovely wedding yellow wedding centerpiece'
p446
aS'yellow wedding centerpieces yellow grey superhero wedding tampa watch angel photograp'
p447
aS'yellow wedding reception centerpieceswedding tablescapemodern gorgeous yellow centerpieces'
p448
aS'pinning wedding centerpieces pinterest weddingplanning centerpieces weddingdj weddingday weddingdayflowers'
p449
aS'wedding reception centerpiecesblack yellow wedding reception centerpiece food'
p450
aS'spring wedding reception centerpiece fresh spring wedding centerpiece idea'
p451
aS'tweeting pinning centerpieces check'
p452
aS'spring wedding reception centerpiece table centerpiece wedding ideas elegant look wedding'
p453
aS'spring wedding reception centerpiece spring wedding centerpiece'
p454
aS'spring wedding reception centerpiece photo white tulips centerpiece spring'
p455
aS'spring wedding reception centerpiece boston wedding photography boston event photography spring'
p456
aS'spring wedding reception centerpiece wedding inspirations found beautiful spring centerpiece'
p457
aS'spring wedding reception centerpiece fruit flower centerpieceso pretty great daytime'
p458
aS'spring wedding reception centerpiece perfect spring summer wedding photography stev'
p459
aS'spring wedding reception centerpiece spring wedding centerpieces'
p460
aS'spring wedding reception centerpiece orange pink spring wedding centerpieces lanterns'
p461
aS'spring wedding reception centerpiece ideas spring weddings centerpieces purple'
p462
aS'spring wedding reception centerpiece 100s wedding centerpiece ideas galleries pictures'
p463
aS'spring wedding reception centerpiece spring garden wedding centerpieces'
p464
aS'spring wedding reception centerpiece giant balloon beautiful'
p465
aS'spring wedding reception centerpiece spring wedding florals mason jars flowers jars'
p466
aS'spring wedding reception centerpiece thrill search beauty lifes chaos'
p467
aS'spring wedding reception centerpiece mossy pots holding cabbage olive table brings'
p468
aS'spring wedding reception centerpiece'
p469
aS'winter wedding centerpiece inspiration'
p470
aS'winter wedding centerpiece white'
p471
aS'winter wedding centerpiece'
p472
aS'winter wedding centerpiece winter wedding centerpieces ideas invitesweddingscom'
p473
aS'winter wedding centerpieces'
p474
aS'winter wedding centerpiece real tree bases short centerpiece smell good'
p475
aS'winter wedding centerpiece winter wedding centerpiece'
p476
aS'winter wedding centerpiece wedding table decoration weddingwedding decorationwedding tablefash'
p477
aS'winter wedding centerpiece head table hydrangea white glitter branches snow bottom'
p478
aS'winter wedding centerpiece charming winter centerpieces digsdigs'
p479
aS'winter wedding centerpiece center pieces'
p480
aS'winter wedding centerpiece detail kate parker designs'
p481
aS'fall centerpieces make gorgeous fall wedding centerpiece anything wheat'
p482
aS'fall wedding centerpiece fall wedding centerpiece idea'
p483
aS'fall wedding centerpiece fall wedding centerpiece idea'
p484
aS'romantic fall wedding centerpieces real leaves rose petals deep deep purple table clot'
p485
aS'fall wedding centerpiece romantic fall wedding centerpieces real leaves rose petals'
p486
aS'fall wedding centerpiece fall wedding centerpieces bing'
p487
aS'fall wedding centerpiece fall wedding ideas fall wedding decor wedding planning ideas etiq'
p488
aS'orange orchid centerpiece'
p489
aS'fall wedding centerpiece fall wedding centerpieces floating candles'
p490
aS'fall wedding centerpiece fall wedding centerpiece burlap lace mason centerpiece'
p491
aS'fall wedding centerpiece fall wedding centerpieces orange orchids'
p492
aS'fall wedding centerpiece wedding fall fallwedding fallweddingflowers'
p493
aS'wedding centerpieces'
p494
aS'wedding centerpiece'
p495
aS'centerpieces wedding centerpieces'
p496
aS'book thru 31st uplighting package cost 9543162149 mention twitter'
p497
aS'baby penguin'
p498
aS'baby giraffe'
p499
aS'wonderful easy idea wedding centerpieces simple painted bottles life'
p500
aS'epbot everything never knew needed know brasseriously even'
p501
aS'wedding hair style literally 100s hair tutorials tutorial'
p502
aS'rainbow shoes'
p503
aS'puppy comes bride'
p504
aS'bottom foam ball soak water minutes insert flowers'
p505
aS'bling'
p506
aS'wedding hair style high braid'
p507
aS'wedding hair style design would pretty wedding'
p508
aS'love pets'
p509
aS'mama kittens ducklings sweetest thing ever'
p510
aS'cute'
p511
aS'snowball puppy'
p512
aS'clean happy'
p513
aS'baby cold outside'
p514
aS'small puppy'
p515
aS'cute'
p516
aS'wedding cake design'
p517
aS'grey yellow cake'
p518
aS'marshmallow wedding cake'
p519
aS'wedding floral centerpieces'
p520
aS'chocolate vanilla wedding cake'
p521
aS'awesome wine bottle centerpiece ideas'
p522
aS'cake serving guide great planning wedding cake'
p523
aS'wedding cake yummy heres delicious unique alternative traditional wedding cake ashl'
p524
aS'gorgeous white wedding cake'
p525
aS'ruffle wedding cake'
p526
aS'lovebirds wedding cake'
p527
aS'tier wedding cake'
p528
aS'wedding dress gorgeous'
p529
aS'wedding gown perfect wedding dress'
p530
aS'wedding gown lace lace lace'
p531
aS'wedding gowns pretty'
p532
aS'beach wedding cake'
p533
aS'beach themed cake coral'
p534
aS'wedding hair braided nicholasluce luceladies hair'
p535
aS'wedding hair ponytail braid'
p536
aS'gorgeous wedding hair'
p537
aS'bridal dress'
p538
aS'wedding dresses'
p539
aS'allure couture bridal'
p540
aS'ziad nakad'
p541
aS'carolina herrera bridal dress spring 2014 alsa'
p542
aS'catherine deane 2012 bridal caitlin tiered wedding dress antique'
p543
aS'rustic deco crate'
p544
aS'gorgeous white floral centerpieces mahogany chiavari chairs provided eventiste'
p545
aS'pink floral cake'
p546
aS'wedding ceremony reception renaissance hotel mackenzie linen cake table eventiste'
p547
aS'wedding hair long style'
p548
aS'wedding hair updo'
p549
aS'wedding hair sweet updo'
p550
aS'thank kind words'
p551
aS'wedding hair enchanted ateliers headpieces'
p552
aS'wedding hair eileen austie etsy 18500'
p553
aS'headband blush colored feathers'
p554
aS'floral centerpiece ideas'
p555
aS'white anemones'
p556
aS'fabric bouquets beautiful timeless keepsakes last lifetime view'
p557
aS'lavender fabric bouquetsthe floral'
p558
aS'wedding gown gorgeous'
p559
aS'ronald joyce 2013 bridal light gold wedding dress'
p560
aS'wedding gown watters brides pasadena gown'
p561
aS'wedding gowns shop allure bridals style c220'
p562
aS'bridal gown soft peach pink details'
p563
ag77
aS'peach mini'
p564
aS'wedding cake'
p565
aS'markjosephcakes wedding cakes'
p566
aS'mini snowflake cakes'
p567
aS'lace wedding cake'
p568
aS'sweet bloom peach floral cake'
p569
aS'really love combination stunning'
p570
aS'beautiful updos'
p571
aS'gang started mission better jump first'
p572
aS'mason centerpiece'
p573
aS'vibrant orchid bouquet photo weddings'
p574
aS'blue white flower decor around place cards'
p575
aS'orange flowers'
p576
aS'york ivory linen'
p577
aS'photo anna minnesota weddings'
p578
aS'real touch orchid calla lily cascading wedding bouquet purple exclusive package bridal bouquet'
p579
aS'wedding orchid bouquet indianwedding southasianwedding shaadibazaar weddingcolors'
p580
aS'updo'
p581
ag77
aS'seriously could dress'
p582
aS'sexy wedding dress'
p583
aS'photo sheaulee photography featured knot blog'
p584
aS'photo kelly brown photography featured knot blog'
p585
aS'orange blue bouquet wedding'
p586
aS'beautiful'
p587
aS'wipeoff menu board tutorial'
p588
aS'backpack walllove chalkboard wall'
p589
aS'floral wreaths decorated entrance gardens egomedia photography'
p590
aS'found share inspiration today'
p591
aS'tiny daisy bouquet jacqueline campbell'
p592
aS'preparing weekends events whole marketing strategy'
p593
aS'restaurant bora bora seriously'
p594
aS'essense australia'
p595
aS'bebe shoulder tulip trumpet wedding dress rami kashou bridal gowns'
p596
aS'bohemian wedding gown'
p597
aS'arefeh worth palm beach weddingdresses bridal'
p598
aS'soooo cute'
p599
aS'tissue paper flower gift wrap topper tutorial flowers garlandcool flower crafts pape'
p600
aS'tlite holder could holder hang paint tropical colors back porch'
p601
aS'golf themed grooms cake'
p602
aS'grooms cake pirate cake'
p603
aS'cute cake'
p604
aS'pretty wedding cake'
p605
aS'bling cake'
p606
aS'gold ruffle cake'
p607
aS'rocking hard pinterest check cool cakes need check website reach week'
p608
aS'mini cake wedding'
p609
aS'alice wonderland cake'
p610
aS'lovely purple cake'
p611
aS'benisrael cakes ipaddaring'
p612
aS'classic cake luisa galuppo'
p613
aS'beautiful rustic wedding cake pink floral decor'
p614
aS'little beach wedding cake plus mini cheesecakes something like'
p615
aS'sunflower wedding cake'
p616
aS'harry potter wedding cake totally awesome'
p617
aS'alice wonderland wedding cake'
p618
aS'today\xe2\x80\x99s stunning sweet treat features three favorite things floral sparkle castle'
p619
aS'wedding cake amazing'
p620
aS'roses diamond pins wedding cake love'
p621
aS'extravagant wedding cake floral cascade'
p622
aS'wedding cake love notes written tantawan bloom'
p623
aS'black purple white square cake'
p624
aS'gorgeous'
p625
aS'thank follow looking forward posting tweeting checkout site'
p626
aS'hand painted blue purple cake eventments wedding outdoor chic baltimore maryland planning'
p627
aS'sylvia weinstock amazing'
p628
aS'fine cakes zehra elegant custom cakes'
p629
aS'wedding cake rustic wood cool'
p630
ag77
ag77
ag77
ag77
ag77
ag77
aS'skopelos island greece'
p631
aS'andros cyclades islands greece'
p632
aS'dingle peninsula ireland lucky penny sambazon'
p633
aS'poppy fields south coast england'
p634
aS'beyond garden gate barrow court somerset england archidave flickr'
p635
aS'ivory style keep glamour bestaybeautiful'
p636
aS'white'
p637
aS'would lovely white'
p638
aS'calla lilies beverly wilshire'
p639
aS'beautiful flower applique white tiered cake'
p640
aS'taryn roberts'
p641
aS'french buckets floral design christopher todd studios revelry event design gold oval mirrored'
p642
aS'flowers hair'
p643
aS'tablescape centerpiece'
p644
aS'rustic aisle marker floral arrangements mosscovered pots forest wedding ideas'
p645
aS'gorgeous'
p646
aS'timber centerpieces drill middle vase'
p647
aS'half half'
p648
aS'wedding dessert table vintage rustic'
p649
aS'christine olson photography bridals'
p650
aS'funny much money spend stuff make present incredibly easy'
p651
aS'done stencils painted wood crates appears stairs design pictures remodel'
p652
aS'cork coasters using small picture frames'
p653
aS'idea paint insides cabinet doors chalkboard paint'
p654
aS'yarn bottle vase'
p655
aS'know pretty candle jars dont want throw clean'
p656
aS'idea'
p657
aS'halloween wreath yarn ball wreath inches whimsysworkshop cute idea'
p658
aS'wedding favors'
p659
aS'photography bailly photography floral design anthology studio anthologyd'
p660
aS'historic tropical garden'
p661
aS'amazing florals designed lyfe party photography luminaire foto'
p662
aS'tasty cake mikkelsens pastry shop perfect vintage citron champagne lace'
p663
aS'buttercream wedding cakes'
p664
aS'chicken pies puff pastry shells'
p665
aS'great tutorial create ombre wall'
p666
aS'super easy nocarve washi tape pumpkins gold metallic stems'
p667
aS'cashmere cozy setting four'
p668
aS'sure know make wedding laplayanaples great beautifulwedding'
p669
aS'seminole middle school plantation'
p670
aS'morning mail blue mail'
p671
aS'love isles morning plantation isles'
p672
aS'morning droppings south plantation high school'
p673
asS'2013_43'
p674
(lp675
S'awesome pizza'
p676
aS'2013 long chiffon square neck sequins bodice short sleeve gray silver vintage mother bride'
p677
aS'totally thinking'
p678
aS'almost makes change mind kids elkins tosco soooo hilarious'
p679
ag77
aS'high flyer photographer salmon dangles crate suspended crane take aerial'
p680
aS'kiss life 1968 pulitzer prize spot news photography rocco morabito'
p681
aS'wedding dress beautiful back design perfect photos'
p682
aS'amazing'
p683
aS'shoulder wedding dress lace'
p684
aS'betty white wrecking ball'
p685
aS'beautiful'
p686
aS'thank retweet love property'
p687
aS'elegant'
p688
aS'hairstyles braidedhairstyles braidedhairstyles hair braided braid style pmtsogden paulmitch'
p689
aS'gorgeous event wedding purple'
p690
aS'feather bouquet'
p691
aS'half brooch bouquetwow'
p692
aS'pretty'
p693
aS'thanks retweet love venue staff glad destination wedding brides'
p694
aS'dance'
p695
aS'babies'
p696
aS'true'
p697
aS'unknown inexpensive wedding gown love lace sleeves'
p698
aS'claire pettibone alma spring 2013'
p699
aS'reem acra wedding dress fall 2013 click front dress'
p700
aS'janique couture 2013'
p701
aS'beach wedding dress'
p702
aS'zuhair murad haute couture 2013'
p703
ag77
aS'lace wedding dress'
p704
aS'breathtaking veil'
p705
aS'christian louboutin wedding shoes'
p706
aS'peonies'
p707
aS'beautiful wedding shoes diamonte brayola'
p708
aS'love bling'
p709
aS'want picture like'
p710
aS'cake white flowers instead'
p711
ag77
aS'wedding dress'
p712
aS'gorgeous'
p713
aS'gorgeous detailing gown design inspired lasercut wedding invitation zorie zoriestyle zorie'
p714
aS'necklace shoulders 1920s style beaded pearls rhinestone'
p715
ag77
ag77
aS'popular make'
p716
aS'graphic information sheet'
p717
aS'everybody needs somebody sometimes little beep bopin stud'
p718
aS'2000 next 2500 thank name adjustment website matches'
p719
aS'reading night seminole middle school'
p720
aS'adtr drop sunset cove ampitheatre others'
p721
aS'hours'
p722
ag77
aS'shows watch'
p723
aS'arent required number bridesmaids groomsmen dont feel compelled someone keep'
p724
aS'zero expectation others great never assume someone reciprocate come'
p725
aS'feel nothing truly artistic love people gogh'
p726
aS'added linkedin everything looks yummy'
p727
aS'water walk iguaz\xc3\xba falls argentina would lifetime experience indeed'
p728
aS'shark tank water slide golden nugget hotel vegas'
p729
aS'christ redeemer janeiro'
p730
aS'golden statue erected univ miami endure happy behind'
p731
aS'phrase strip club appears times ncaas report'
p732
aS'love idea camo sweeping elegant girl feet thats happened'
p733
aS'note bride groom guests hilarious'
p734
aS'sunflower wedding bouquet wedding bouquet rose bouquet purple wedding bouquet sunflower'
p735
aS'wedding emergency wedding photographer cannot recommend enough make'
p736
aS'love photo'
p737
aS'grooms blown away beautiful brides'
p738
aS'breaking wedding processional'
p739
aS'tips wedding guests cost around grand holy really thou'
p740
aS'seasonal guide wedding flowers'
p741
aS'seasonal guide wedding flowers'
p742
aS'naked cakes trending theme'
p743
aS'beautiful love'
p744
aS'wedding survival'
p745
aS'gorgeous'
p746
aS'wedding check list small things might forget planning wedding'
p747
aS'lives merge wedding cake inspiration shockleyssweetshoppe half bride half groom'
p748
aS'ones cant'
p749
aS'camo wedding ideas camo wedding cakes toppers pictures ideas'
p750
aS'looking perfect holiday party venue getaway look need spend'
p751
aS'another awesome wedding postcard check'
p752
aS'cute'
p753
aS'west wedding photographs ocean resort jhunter photography'
p754
aS'ocean resort west reception sunset pier'
p755
aS'wedding clear tent market lighting checkered dance floor eric farewell photography ocean'
p756
aS'ocean resort west weddings jhunter photography'
p757
aS'bride groom enjoying west sunset mallory square ocean resort'
p758
aS'edith mike smathers beach ocean resort planning design soiree west wwwsoiree'
p759
aS'west wedding photo ocean resort pool'
p760
aS'bride groom enjoying west sunset mallory square ocean resort'
p761
aS'ocean wedding west florida wedding photography studio julie photography wwwstudiojuli'
p762
aS'ocean resort wedding west florida wedding photography studio julie photography wwwst'
p763
aS'west wedding receptions details ocean resort'
p764
aS'ocean resort west'
p765
aS'amazing wedding venues around world ocean resort florida'
p766
aS'well hosting tweetup flkeys chat sunset pier ocean resort'
p767
aS'checkout another great wedding clear tent awesome'
p768
aS'canes gear canes wear'
p769
aS'wherever matter weather always bring sunshine'
p770
aS'west news thousands bicycling zombies prowl west wbfs thousands bicycling zombies prowl'
p771
aS'calligraphy pumpkins love hate relationship halloween love candy aspect'
p772
aS'trouble facebook today youre alone check technical difficulties'
p773
aS'thank retweet bestdjever mobiledj weddingdj'
p774
aS'scare weekend bloodwork done thankful everyday given earth gladtobealive'
p775
aS'glad alive blessed world part feelingblessed gladtobealive'
p776
aS'great start morning'
p777
aS'honestly best wedding speech ever view science siblings adam ruble unfortunately'
p778
aS'tight schedule daily workout plan sunday monday pinterest'
p779
aS'keepcalm listen heart'
p780
aS'walt lillian toads wild ride'
p781
aS'disney call maybe ermahgerd'
p782
aS'pistachio raspberry cheesecake lula'
p783
aS'weddingstar cake topper bride groom cell phone fanatic something blue'
p784
aS'weddingstar cake topper bride groom showered love couple'
p785
aS'weddingstar cake topper bride groom couple figurine look love something blue'
p786
aS'love serenade guitar playing groom figurine weddingstar'
p787
aS'fireman cake topper wedding cake toppers decor weddingstar'
p788
aS'sweet western embrace wedding cake topper'
p789
aS'beach bride groom wedding cake topper'
p790
aS'zombie wedding cake topper zombie apocalypse cake topper halloween cake topper zombie hands silhouet'
p791
aS'cake topper wedding cake topper 20500 afterwards could wall wedding phot'
p792
aS'silver gold robots love wedding cake indigotwinweddings 7500'
p793
aS'shoe cake topper'
p794
aS'garter victory cake topper'
p795
aS'jessica jonas addison boca raton florida'
p796
aS'florida wedding venue addison boca raton photo cindy karp'
p797
aS'florida wedding venue addison boca raton'
p798
aS'florida wedding venue addison boca raton photo munoz photography'
p799
aS'simple sweet'
p800
aS'succulent bouquet'
p801
aS'wedding dress detachable ruffly skirt jaden hayley paige'
p802
aS'checkout linked page'
p803
aS'aline vneck sleeve sequined sweepbrush train wedding dress wedding dresses wedding appare'
p804
aS'aline high neck short sleeve appliques floorlength wedding dressnew arrivalbridalfind beautiful'
p805
aS'wedding dress'
p806
aS'beach wedding dress'
p807
aS'beach wedding dress beach wedding dress'
p808
aS'beach wedding dresses'
p809
aS'line tank brush train ivory wedding dresses h1pn0132'
p810
aS'amazing vneck knee length satin beading beach wedding dress short wedding dress wedding'
p811
aS'take short sweet whole level lace sleeve kneelength wedding gown pictur'
p812
aS'monogram cake'
p813
aS'butterfly wedding cake'
p814
aS'ombre purple wedding cake'
p815
aS'wedding cake'
p816
aS'gold trimmed wedding cake'
p817
aS'green white wedding cake'
p818
aS'wedding cake'
p819
aS'tiger lily wedding cake'
p820
aS'wedding'
p821
aS'wedding hair'
p822
aS'bridesmaid hair'
p823
aS'white blue wedding dress inspired cake'
p824
aS'glendalough manor bride blog archive hand painted wedding cakes'
p825
aS'white blue wedding cakeruffles bottom tier'
p826
aS'white wedding cake could color accent'
p827
aS'rubber bands glass spray paint frost'
p828
aS'rubber bands glass spray paint frost'
p829
aS'chalkboard dipped wine glasses fantastic idea'
p830
aS'easily bottom wine bottle'
p831
aS'wine bottle centerpieces'
p832
aS'wine bottle centerpieces'
p833
aS'idea place settings'
p834
aS'idea place settings'
p835
aS'halter wedding dress'
p836
aS'moonlight wedding dresses fall 2012'
p837
aS'backless wedding dress'
p838
aS'lace wedding dress'
p839
aS'lace wedding dress'
p840
aS'navy pink wedding'
p841
aS'pink centerpieces'
p842
aS'white purple wedding cake'
p843
aS'white heart wedding cake'
p844
aS'indian style wedding cake beautiful'
p845
aS'gorgeous'
p846
aS'voyage cake'
p847
aS'sandcastle cake'
p848
aS'beach wedding'
p849
aS'cake vintage blue flowers'
p850
aS'wedding cake'
p851
aS'neutral shades wedding cake cakes'
p852
aS'hanging tulip centerpieces bold american events photo'
p853
aS'simple cake'
p854
aS'easy everyday curls tutorial'
p855
aS'card damask wedding card holder laceyclairedesigns etsy 11200'
p856
aS'baby blue white wedding cake'
p857
aS'black white wedding ideas'
p858
aS'black ivory wedding cake wedding'
p859
aS'would made roses'
p860
aS'perfectly pink damask wedding cake'
p861
aS'damask wedding cake'
p862
aS'black yellow damask wedding cake'
p863
aS'pink black wedding cake pink damask designer cakes april flickr'
p864
aS'cutest ring bearers ever'
p865
aS'monogram wedding cake topper custom shopthetop 3000'
p866
aS'lace chest modest best wedding dresses bridal market fall 2013'
p867
aS'elegant sleeveless ball gown floor length bridal gowns'
p868
aS'fairytale wedding dress'
p869
aS'wedding dress strapless'
p870
aS'luxury aline organza sleeveless bridal gown'
p871
aS'interesting ideas centerpieces decorations dominique'
p872
aS'blumarine 2013 bridal collection light pale blue printed wedding dress'
p873
aS'wedding dress strapless real picture custom made strapless sweetheart ruched puffy wedding dress'
p874
aS'wedding dress strapless allure romance 2657'
p875
aS'belle wedding dress beauty beast wedding gown'
p876
aS'stunning wedding dress'
p877
aS'wedding photo love'
p878
aS'princesss wedding dress'
p879
aS'lace wedding dress wedding dress perfect'
p880
aS'long sleeve lace dress open back'
p881
aS'pink white wedding dress cute wear colored tulle petticoat match bridesmaids'
p882
aS'country wedding dress weddingideas'
p883
aS'ring bearer'
p884
aS'wedding dresses'
p885
aS'backless wedding dress'
p886
aS'stunning back wedding dress'
p887
aS'shoulder wedding dress'
p888
aS'magic wedding dresses'
p889
aS'wedding dresses'
p890
aS'grooms cake'
p891
aS'make garter toss fellas'
p892
aS'creative smart guest books'
p893
aS'wedding sign love'
p894
aS'bridal shower decor package yellow gray hautechocolatefavors 2000'
p895
aS'gray yellow petal ruffle cake bridal shower cake'
p896
aS'wedding hair bobbyglam hair tutorials'
p897
aS'wedding hair waterfall braid tutorial'
p898
aS'wedding hair bouffant'
p899
aS'wedding hair braid ponytail'
p900
aS'wedding hair braid'
p901
aS'wedding hair cute hairstyle'
p902
aS'wedding hair small fishtail braid'
p903
aS'wedding hair braid flower'
p904
aS'wedding hair updo blue'
p905
aS'wedding hair braid around'
p906
aS'wedding hair side braid'
p907
aS'button tree wall'
p908
aS'soap pouch better loufas would cheaper ecofriendly using liquid'
p909
aS'spare tire wrap rope cool nautical floor cushion make tire otto'
p910
aS'yarn around paint roller awesome effect love'
p911
aS'pleated diamante white wedding cake'
p912
aS'wedding cakeabsolutely love wedding cake needs aqua blue base white'
p913
aS'tall wedding cake'
p914
aS'black white wedding cake'
p915
aS'spinach pesto grilled cheese sandwich'
p916
asS'2013_40'
p917
(lp918
S'happy birthday thank blessing'
p919
ag77
ag77
aS'indian wedding decorations'
p920
aS'never seen bride'
p921
aS'types content make look lame'
p922
aS'martha stewart weddings polka bride etsy pages image credit brides guideetsy excellent'
p923
aS'thank another amazing earth'
p924
ag77
aS'wedding alcohol calculator infographic guide much beer wine liquor small'
p925
aS'wedding dress'
p926
aS'wedding dress'
p927
aS'breathtaking'
p928
aS'timelines three'
p929
aS'python monty python'
p930
aS'spinach artichoke pasta'
p931
aS'whenever feel like giving think people would love fail'
p932
ag77
asS'2013_41'
p933
(lp934
S'doin birthday party favorite brides omphoy ocean resort'
p935
aS'dont vimeo'
p936
aS'thank amazing destination wedding ceremony capella pedregal resort cabo lucas'
p937
aS'pickem seminole middle school'
p938
aS'florida keys destination wedding palm beach photography largo lighthouse weddings'
p939
aS'tattoo bride wedding europe'
p940
aS'save date engagement heart sign yourethatgirldesigns 2695'
p941
aS'braids elegant could great look special'
p942
aS'hair long hair pony tutorial tutorial picture'
p943
aS'cool braids updos'
p944
aS'wedding hairstyles'
p945
aS'tobacco bermuda 6053398911 travel'
p946
aS'beautifully elegant look watters'
p947
aS'cute flowers cone favor'
p948
aS'lavender theme'
p949
aS'romantic bridal bouquet'
p950
aS'romantic bridal bouquet'
p951
aS'romantic bridal bouquet'
p952
aS'fresh bouquets'
p953
aS'lovely petite centerpiece ideas'
p954
aS'lovely petite centerpiece ideas'
p955
aS'dogs weddings'
p956
aS'lovely farm wedding animals'
p957
aS'adorable wedding dogs good boys'
p958
aS'lovely furry friends'
p959
aS'adorable wedding dogs lovely ladies'
p960
aS'brides hair styled flower'
p961
aS'hair styled floral detail'
p962
aS'hair styled wavy'
p963
aS'prewedding shoot bride photography edit work hartney photographics'
p964
aS'ivory pink bouquet'
p965
aS'wedding flowers'
p966
aS'bridal bouquet'
p967
aS'bouquet roses'
p968
aS'hydrangea ball'
p969
aS'beautiful cake stand rustic wedding cake'
p970
aS'cake'
p971
aS'gray wedding cake roses ruffles torta nuziale rotonda grigia ricamo rose'
p972
aS'stunning'
p973
aS'golden treats cake macarons'
p974
aS'wedding cake'
p975
aS'love macaron wedding cake'
p976
aS'noble strapless rhinestoned beading waist design mermaid lace wedding dress'
p977
aS'centerpieces floral blush blushing boquet bouquet center centerpiece chic colors decor decoration'
p978
aS'pink blush wedding gown'
p979
aS'amazing destination wedding ceremony capella pedregal resort cabo lucas photo'
p980
aS'click chance three beautiful paloma blanca wedding dresses'
p981
aS'bachelorette cake'
p982
aS'lovely'
p983
aS'sweet spiral piano cake'
p984
aS'black white'
p985
aS'cute cakes'
p986
aS'wedding cakes wedding cakes wedding cakes'
p987
aS'button cake beautiful'
p988
aS'beach theme wedding'
p989
aS'lace wedding cake'
p990
aS'classic chocolate'
p991
aS'chocolate cake anyone'
p992
aS'blossom cake'
p993
aS'tailormade spring wedding dress \xc2\xa324999 showcasing beautiful finished made order dresses'
p994
aS'tailormade felicity wedding dress \xc2\xa327999 available colours size wwwt'
p995
aS'tailormade annalise wedding dress \xc2\xa325999 alluring selection tailor made short length'
p996
aS'tailormade rubi dress \xc2\xa325999 showcasing beautiful finished made order dresses without'
p997
aS'little'
p998
aS'gorgeous fall pumpkin florals'
p999
aS'torres paine chile'
p1000
aS'pretty'
p1001
aS'pretty hair'
p1002
aS'long wavy wedding hairstyle'
p1003
aS'gorgeous gorgeous gorgeous'
p1004
aS'gorgeous'
p1005
aS'dreamy'
p1006
aS'gorgeous'
p1007
aS'brides sottero midgley celeste lace pretty illusion trainpretty hair'
p1008
aS'blue hydrangea bouquet'
p1009
aS'gold jewel bouquet'
p1010
aS'colorful bridal wedding bouquet purple green bouquet'
p1011
aS'purple calla lilies wedding bouquet'
p1012
aS'yellow wedding bouquet'
p1013
aS'colorful wedding bouquet yellow'
p1014
aS'purple orchids wedding bouquet'
p1015
aS'wedding pink bouquet fuschia michigan lauren mike'
p1016
aS'orange gray wedding bouquet'
p1017
aS'fuchsia peonies purple \xe2\x80\x9ccool water\xe2\x80\x9d roses dark pink cymbidium orchids deep fuchsia spray roses'
p1018
aS'wedding bouquet pink peonies orange ranunculus love'
p1019
aS'monique lhuillier bridal gown wedding bouquet'
p1020
aS'daffodils lilies wedding bouquet'
p1021
aS'hydrangeas peonies erika follansbee photography'
p1022
aS'greenery purple wilmington north carolina real wedding photographed photography'
p1023
aS'make table lamp'
p1024
aS'look much love secure look'
p1025
aS'tropical floral arrangements wedding sundy house pretty magical'
p1026
aS'tulle mint mason jars full tutorial workshop tulle mint masonjar tutorial'
p1027
aS'ring dish'
p1028
aS'mount moran perfect creation godposted ariskevin siringoringomount moran'
p1029
aS'take nice beaches sunrisesunset'
p1030
aS'didnt find months agobest painting tools experts list best tools paintin'
p1031
aS'rustic colorado wedding sara hasstedt hitched lane'
p1032
aS'gorgeous'
p1033
aS'wedding ring pictures best friend'
p1034
aS'morning droppings seminole middle school'
p1035
aS'love plantation plantation isles'
p1036
aS'blue mail fort lauderdale'
p1037
aS'going first bridalmarket appointment tomorrow excited next days'
p1038
aS'flowing thru veins brutha'
p1039
aS'read minute read'
p1040
aS'awesome weddings laplaya'
p1041
aS'considered laplaya resort ideal venue weddings'
p1042
aS'make sure wedding rocks'
p1043
aS'morning drop south plantation high school'
p1044
aS'morning mail blue mail'
p1045
aS'2018elegant wedding dresses chic'
p1046
aS'things remember looking wedding cake'
p1047
aS'concept wedding fayres'
p1048
aS'ignite inspiration'
p1049
aS'blueberries handful health infographic pinterest'
p1050
aS'something couples splurge includes'
p1051
aS'fave gracing pages today charlotte site'
p1052
aS'wedding details youre going absolutely love'
p1053
aS'request join twitter already great'
p1054
aS'seminole middle school plantation'
p1055
aS'broward mall plantation'
p1056
aS'barnes noble plantation'
p1057
aS'grabbing organics whole foods market'
p1058
aS'nina added pinterest thank getting married south florida'
p1059
aS'laundry started pinterest almost caught showered kids lets rockin'
p1060
aS'coney island 1950s photo harold feinstein'
p1061
aS'dont anyone anything stand want'
p1062
aS'pushed love wish emerson spelled correctly sigh'
p1063
aS'boyfriend bucket list chang chang chang chang chang gonzalez please'
p1064
aS'even married apply relationship'
p1065
aS'create sunshine celebrateeveryday'
p1066
aS'simply couture weddingswwwsimplycoutureweddingscom 5613106756 palm beach wedding wedding'
p1067
aS'simply couture weddingswwwsimplycoutureweddingscom 5613106756 palm beach wedding wedding'
p1068
aS'vera wang wedding 2014'
p1069
aS'galia lahav 2014 fiona wedding dress iris veil'
p1070
aS'care packages guests wedding ideas wedding blogs wedding trends 2014 david tutera'
p1071
aS'wedding cakes without frosting town country'
p1072
aS'veil breathtaking'
p1073
aS'blush beautybeautiful vintagey look'
p1074
aS'gorgeous 2013 wedding dress allure bridal gowns soft peach mermaid'
p1075
aS'amazing dress'
p1076
aS'wedding dresses crisscross backs spring 2014 wedding dress trend'
p1077
aS'oscar renta bridal 2014 photo rachel scroggins'
p1078
aS'blue wedding dress blumarine 2013 bridal collection blue wedding dresses blue wedding gown'
p1079
aS'2013 open back three quarter long sleeve lace wedding dresses'
p1080
aS'west'
p1081
ag77
aS'chignon'
p1082
aS'wedding hair french plait'
p1083
aS'west wedding audubon house garden'
p1084
aS'weddings westin west resort marina'
p1085
aS'maryvealphotography keywestfl wedding'
p1086
aS'wedding cake topper disney theme custom 8500 etsy'
p1087
aS'policeman wedding cake topper louise hunter photo flickr creative commons license'
p1088
aS'florida keys party rentals west wedding planning'
p1089
aS'unique wedding photo shots flower girls holding picture frame bride groom'
p1090
aS'wedding receptions sunset deck meeting facility westin west resort marina fron'
p1091
aS'weddings westin west resort marina west florida visit'
p1092
aS'weddings westin west resort marina west florida visit'
p1093
aS'toilet cleaning bombs deodorize kill bacteria drop bowl simply baking'
p1094
aS'quick effective workout exercises'
p1095
aS'tight schedule daily workout plan sunday monday pinterest'
p1096
aS'david acuna talented wedding photographers miami also'
p1097
aS'apple green hydrangeas purple orchids birds paradise'
p1098
aS'make ugly cabinets awesome'
p1099
aS'great idea wedding pictures large canvas prints anywhere'
p1100
aS'design decor flowers event planning design production'
p1101
aS'florida wedding venue ocean resort west photo focus studios manolo dorest'
p1102
aS'flipped perspective first kiss'
p1103
aS'ways make wedding unforgettable'
p1104
aS'comes bride banneror live happilly ever'
p1105
aS'wedding destination save date keepsake'
p1106
aS'passport invitation save date sproulliedesigns cute future destination wedding'
p1107
aS'nice turquoise wedding decor orchids turquoise centerpiece details'
p1108
aS'preferred vendor hawks'
p1109
aS'maid honor insider tips maid honor responsibilities etiquette'
p1110
ag77
aS'never ever leave coupon code blank shopping online read later'
p1111
aS'droz teeth whitening home remedy'
p1112
aS'crockpot bacon cheeseburger soup'
p1113
aS'bang bang shrimp copycat restaurant recipe bonefish grill'
p1114
aS'personalized bridesmaid hanger wooden delovelydetails etsy 1500'
p1115
aS'eight waffle robesbridal occassionsembroidery etsy 22400'
p1116
aS'light night personalized matches graciousbridal 7500'
p1117
aS'home bodywrap lose inches hour vitamin farewell cellulite'
p1118
aS'cant stop laughing'
p1119
aS'real'
p1120
aS'keep track bridesmaids dresses giving cute personalized hanger'
p1121
aS'personalized address stamp 10656'
p1122
aS'engagement'
p1123
aS'cute make moms feel special adding reserved sign chairs ceremon'
p1124
aS'halfuphalfdown hairstyles'
p1125
aS'bachelorette cakei cant help laugh'
p1126
aS'heres checklist might helpful expenses'
p1127
aS'tying knot'
p1128
aS'gorgeous wedding bouquet'
p1129
aS'cake starfish clam ocean'
p1130
aS'centerpiece'
p1131
aS'love wedding'
p1132
aS'adorable'
p1133
ag77
aS'even seen many dresses beautiful'
p1134
aS'beach wedding aqua orange color scheme'
p1135
aS'ball gown bottom'
p1136
aS'casablanca bridal style1918 closer'
p1137
aS'wedding dresseswedding dresseswedding dresses'
p1138
aS'wedding theme vibrant peacock inspiration'
p1139
aS'caribbean bride ultimate caribbean destination wedding guide'
p1140
aS'simply gorgeous'
p1141
aS'beach engagement photos perfection'
p1142
aS'beach engagement photo'
p1143
aS'fairy tale white pretty'
p1144
aS'white hydrangea centerpieces'
p1145
aS'cute dont know love much might taste think'
p1146
aS'found obsession'
p1147
aS'speechless want shoes finally wear scholls ball'
p1148
aS'peyton manning fakes everyone atampt stadium bootleg even camera'
p1149
asS'2013_46'
p1150
(lp1151
S'spottswoodwedding'
p1152
aS'wish could west'
p1153
aS'thank words'
p1154
aS'never give great things take time'
p1155
aS'voted real good ones groom proposal romantic'
p1156
aS'help pick months mostromanticgroom weve really good ones'
p1157
aS'building social klout awesomeness betterthantonyrobbins lovemorningcoach'
p1158
aS'thanks refocus phil goforit nosecondplace'
p1159
aS'final prep biggest wedding year everyday hotel owner asks sons wedding destinatiowedding weddingdj'
p1160
aS'cant pull ipad'
p1161
aS'fact wedding bloggers fueled equal parts coffee photoshop cozy slippers pinterest cute puppeh kitteh'
p1162
aS'loan please'
p1163
aS'looks amazing cant wait tomorrow'
p1164
aS'hennastandby aftercoming ma\xc3\xb1ana indianweddings henna peacock\xe2\x80\xa6'
p1165
aS'layton'
p1166
aS'west bust florida city'
p1167
aS'walt disney world wedding walt disney world hotel search'
p1168
aS'part fabulous cake friday facebook cristens disney world wedding'
p1169
aS'part fabulous cake friday facebook cristens disney world wedding'
p1170
aS'walt disney world wedding photos boardwalk kara larne'
p1171
aS'walt disney world wedding photography repinned favorite follower heather drisko'
p1172
aS'walt disney world wedding photos alison david'
p1173
aS'disney world walt'
p1174
aS'would nice hair accent wedding'
p1175
aS'braceletcolors textureslove'
p1176
aS'bridesmaid dresses bridesmaid dresses'
p1177
aS'fitandflared sweetheart court train tulle wedding dress beaded lace appliques 22560'
p1178
aS'princess sweetheart chapel train woth satin wedding dress beading special price 16576'
p1179
aS'fitandflared jewel elastic satin chapel train wedding dress 23726 wwwcouponcutoff'
p1180
aS'spring goddess'
p1181
ag77
aS'wedding hair'
p1182
aS'wedding updo'
p1183
aS'goddess hair'
p1184
aS'sarah seven accessories'
p1185
aS'nicely done reading coffee'
p1186
aS'readysetwed daily stories'
p1187
aS'thank sharing absolutely stunning didnt think would work read description'
p1188
aS'elegant oneshoulder wedding dress origamilike skirt'
p1189
aS'gorgeous loveit weddingcolors awesomeflorals'
p1190
aS'morning pushups blood moving'
p1191
aS'heres terrific thursday famous five morning glow'
p1192
aS'start planning wedding'
p1193
aS'check page names'
p1194
aS'universal studios orlando best deals'
p1195
aS'dislike like bridal shows weddingmarket'
p1196
aS'love face face hate dont time give everyone time need'
p1197
aS'good morning everyone today start kwff13'
p1198
aS'back canes wear latest canes gear thanks brett swag'
p1199
aS'strawberry peach vodka popsickles'
p1200
aS'photography floral design'
p1201
aS'drinkable escort cards wedding decor houston stationery escortc06 escortc06'
p1202
aS'yuuuuuuuuuuuuuuuuuuuuuuuuuuuuum'
p1203
aS'asymmetrical sweetheart mini wedding dress'
p1204
aS'captivating vneck tulle straps intensive applique details mermaid dress'
p1205
aS'empire bridal gownsempire bridal gownsempire bridal gowns'
p1206
aS'wedding dress galore'
p1207
aS'great felt beautiful'
p1208
aS'like'
p1209
aS'modern aline sleeveless tulle wedding dress'
p1210
aS'straps ball gown charming wedding dress think love'
p1211
aS'charming trumpetmermaid style lace wedding dress'
p1212
aS'elegant sweetheart ball gown wedding dress'
p1213
aS'love itbeautiful'
p1214
aS'gorgeous sweetheart aline chapel train bridal gowns'
p1215
aS'elegant strapless multilayer organza wedding dress'
p1216
aS'pretty cake'
p1217
aS'follo beautifu wedding cakes wfollowme weddings love lovestory'
p1218
aS'gray pink romantic rosette wedding cake'
p1219
aS'wedding cake'
p1220
aS'wedding cake'
p1221
aS'delicate green'
p1222
aS'wedding cake'
p1223
aS'like karaoke page'
p1224
aS'love djing weddings venue'
p1225
aS'looking forward another amazing wedding'
p1226
aS'cant wait rock another spottswood wedding west marriott beachside honor hotel owners sons wedding'
p1227
aS'amazing education event coming live palm beach cant miami well event'
p1228
aS'karaoke event nightclub lounge available call 9543162149 pricing'
p1229
aS'morning twitter checkout like karaoke page please know anyone barrestaurant karaoke call'
p1230
aS'feeding soul benedicts episcopal church'
p1231
aS'thanks retweet always great time hawks weddings staff awesome'
p1232
aS'create pencil holder home office'
p1233
aS'felt flowers natural wreath'
p1234
aS'places spaces dream going soon kauai hawaii lihue plantation'
p1235
aS'hawks'
p1236
ag77
aS'swedish wedding sara norrehed photography read'
p1237
aS'elegant wedding updo'
p1238
aS'wedding updoupdohairstyles'
p1239
aS'coiffure mariage wedding hair style'
p1240
aS'brunette highlights'
p1241
aS'spinach artichoke bites recipe photo'
p1242
aS'caprese stuffed avocados'
p1243
aS'gorgeous centerpieces display'
p1244
aS'possible table numbers'
p1245
aS'lace cake'
p1246
aS'wedding cake'
p1247
aS'wedding cake'
p1248
aS'wedding cakes'
p1249
aS'orange really adds spice blue lovely'
p1250
aS'bridesmaid gifts'
p1251
aS'love idea'
p1252
aS'pictures growing bride bride side groom grooms side'
p1253
aS'first fight write love letters place along bottle winenail'
p1254
aS'gardeniasstunning'
p1255
aS'guiltfree pizza bites cauliflower pizza bites'
p1256
aS'great alternative cornmovie snack crispy edamame ounce package frozen shelled'
p1257
aS'healthy recipe crab cakes'
p1258
aS'little lady halloween costumelol great'
p1259
aS'stunningbeachweddingbouquet'
p1260
aS'ties bind idea wedding seating chart'
p1261
aS'brilliant idea bookloving couple'
p1262
aS'wonderful easy idea wedding centerpieces simple painted bottles life color'
p1263
aS'sweetest idea favor'
p1264
aS'make paper boutonniere handy howto'
p1265
aS'cute butterfly bouquet'
p1266
aS'bridesmaid dress midnight navy cotton'
p1267
aS'chicken avocado feta spinach salad'
p1268
aS'perfect bite feta cucumber'
p1269
aS'broccoli cheese soup crock listed recipes'
p1270
aS'lighten lunch lowcal chicken salad'
p1271
aS'hilton resort bora boraone away'
p1272
aS'penne fresca salad fresh light whole bunch flavors'
p1273
aS'mini caprese bites drizzle olive balsalmic vinegar'
p1274
aS'glitter everything without falling'
p1275
aS'awesome hummus recipe cans garbanzo beans chickpeas drained tahini extra virgin'
p1276
aS'southwestern chopped salad cilantro dressing'
p1277
aS'sock secret'
p1278
aS'adorable'
p1279
aS'goodness'
p1280
aS'fluffy'
p1281
aS'weeny'
p1282
aS'peacock bridal bouquet'
p1283
aS'super cute'
p1284
aS'places spaces'
p1285
aS'take wedding break ohhh awww furry animals'
p1286
aS'take wedding break ohhh awww furry animals'
p1287
aS'treble clef sign arrangement would nice quilled'
p1288
aS'bridesmaids'
p1289
aS'cute bridesmaid dresses'
p1290
aS'hairstyles take less minutes'
p1291
aS'pretty wedding dress anna schimmel zealand'
p1292
aS'contemporary wedding dress anna schimmel zealand'
p1293
aS'modern wedding dress anna schimmel zealand'
p1294
aS'tulle wedding dress anna schimmel zealand'
p1295
aS'raspberry iced dress lace aline tank thick straps party short solid empire'
p1296
aS'samba bridesmaids dress modcloth'
p1297
aS'bridesmaids'
p1298
aS'bridesmaids braids benjamin elise blog jonny zealand wedding photographer'
p1299
aS'cute peach pink bridesmaids dresses photography'
p1300
aS'blueberry iced dress'
p1301
aS'shoreline simplicity dress modcloth'
p1302
aS'puff sleeve lace dress valentino luxury fashion online'
p1303
aS'monique lhuillier ribbon trim lace gown nordstrom'
p1304
aS'dusk dress'
p1305
aS'white blue 1950s american high school prom inspired london city wedding'
p1306
aS'lace overlay dress valentino luxury fashion online'
p1307
aS'plenty tracy reese plenty tracy reese dinner darling dress retro vintage dresses'
p1308
aS'adrianna papell embroidered tulle flare dress nordstrom'
p1309
aS'black lace bridesmaids dress'
p1310
aS'wedding dresses called love story bien savvy 2013'
p1311
aS'wedding dresses'
p1312
aS'absolutely lovvvvvvve lace smooth bottom'
p1313
aS'pretty'
p1314
aS'pronovias lauris'
p1315
aS'pronovias spring 2012 line gown'
p1316
aS'beautiful look'
p1317
aS'wedding dress'
p1318
aS'lovely'
p1319
aS'astrid tulle york'
p1320
aS'lela rose back divine'
p1321
ag77
aS'love'
p1322
aS'gorgeous wedding dress'
p1323
aS'absolutely amazing vera wang wedding gown'
p1324
aS'gorgeous wedding gown'
p1325
aS'spose italy'
p1326
aS'justin alexander mesh bodice beading applique detail sheath dress'
p1327
aS'gorgeous wedding dress'
p1328
aS'beach wine glass candle holders'
p1329
aS'beach wine glass candle holders'
p1330
aS'zuhair murad bridal 2014 stunning wedding dress wedding weddingdress bride'
p1331
aS'tealength dress'
p1332
aS'gorgeous'
p1333
aS'beautiful wedding gown'
p1334
aS'strapless column wedding gown'
p1335
aS'bridesmaid dress'
p1336
aS'mermaid vneck taffeta floor length dress'
p1337
aS'aline chiffon flower girl shoulder'
p1338
aS'strapless aline chiffon bridesmaid dress'
p1339
aS'halter neckline trumpet mermaid style pretty bridal gown'
p1340
aS'arrival pleated chiffon beading wedding dress illusition straps'
p1341
aS'aline sweetheart chapel train glamorous satin wedding dress'
p1342
aS'elegant vneck strapes satin chapel train ball gown satin wedding dress'
p1343
aS'strapless layered lace mermaid wedding dress'
p1344
aS'vneck straps floor length chiffon wedding gown watteau train'
p1345
aS'shoulder aline taffeta bridal gown'
p1346
aS'gorgeous bridal gown'
p1347
aS'sweetheart romantic wedding dress slanting flowered flaps'
p1348
aS'lovely satin beading short bridal gown wedding dress hand made flowers'
p1349
aS'glamoulous bateau satin wedding dress lace overlay'
p1350
aS'princess long sleeve vneck wedding dress'
p1351
aS'satin organza asymmetric applique strapless short bridal gown wedding dress'
p1352
aS'dress beautiful'
p1353
aS'halter bridesmaid gowns'
p1354
aS'fashionable aline empire waist chiffon dress bridesmaid discount price corissa'
p1355
aS'gorgeous'
p1356
aS'chiffon halter dress shirred bodice'
p1357
aS'draped halter chiffon bridesmaid dress'
p1358
aS'glamorous sleeveless trumpet mermaid bridesmaid dress'
p1359
aS'sweetheart chiffon sash knee length bridesmaid dress gown'
p1360
aS'gorgeous scoop aline chapel train bridal gowns'
p1361
aS'shoulder aline ruffle embellishment chiffon bridesmaid dress would great ball dres'
p1362
aS'strapless sequined ruched tiered short chiffon dress'
p1363
aS'shoulder trumpetmermaid organza wedding dress'
p1364
aS'sweetheart dropped waist aline taffeta wedding dress'
p1365
aS'might actually simple elegant'
p1366
aS'modern halter natural waist taffeta wedding dress'
p1367
aS'gorgeous sweetheart sheath column sweep brush train bridal gowns'
p1368
aS'sexy beaded shoulder keyhole back fashion dress woman'
p1369
aS'pleated chiffon bridesmaid dress'
p1370
aS'strapless wedding dress'
p1371
aS'strapless mermaid lace bridal wedding dress'
p1372
aS'waterfall braid tutorial'
p1373
aS'boho hairstyle'
p1374
aS'halo braid need learn'
p1375
aS'strapless satin dress natural'
p1376
aS'sweetheart neck empire waist floorlength chiffon gown beautiful'
p1377
aS'ruffled dress shoulder'
p1378
aS'beaded chiffon shoulder ankle length dress'
p1379
aS'strapless bridesmaid dress'
p1380
aS'floor length bridesmaid gowns'
p1381
aS'bateau taffeta celebrity dress'
p1382
aS'graceful crystal broochpeeptoe pumps casual shoes colors'
p1383
aS'bateau neckline sleeveless chiffon dress'
p1384
aS'high neck hand made flower embellishment chiffon bridesmaid dress'
p1385
aS'strapless wedding dress'
p1386
aS'strapless organza home coming dress empire waist'
p1387
ag77
aS'showtime monday wedding marco beach ocean resort'
p1388
aS'djing victorias secret pink'
p1389
asS'2012_48'
p1390
(lp1391
S'posted photos facebook album entertainment iaapa creative imagineering'
p1392
aS'posted photos facebook album marco beach ocean wedding'
p1393
aS'posted photos facebook album wedding church street ballroom orlando'
p1394
ag77
aS'little bunny'
p1395
aS'doubt love love'
p1396
aS'show'
p1397
ag77
aS'better safe sorry response facebook guidelines hereby declare copyright'
p1398
aS'time management'
p1399
asS'2013_44'
p1400
(lp1401
S'thank follow looking forward going back later month'
p1402
aS'lunch erikas cafe'
p1403
aS'german shepherd rocco another seizure getting serious rushing home check meds'
p1404
aS'jump jump everybody kangoo jumps'
p1405
aS'cancellation available years please message interested services bring year'
p1406
asS'2013_45'
p1407
(lp1408
S'love lauderdale need lauderdale'
p1409
aS'beach palms ever changing'
p1410
aS'check ocean resort weddings west'
p1411
aS'checkout pinterest ocean resort weddings'
p1412
aS'mother wedding dance song happens heartbeat'
p1413
aS'chandelier'
p1414
aS'white'
p1415
aS'cakes'
p1416
aS'cake'
p1417
aS'peach wedding cake white cake stand'
p1418
aS'seafoam glitter wedding cake'
p1419
aS'bohemian gold braid cake'
p1420
aS'mother bride dicas casamento para noivas cristina nudelman'
p1421
aS'maid honor wears different shade bridesmaids dresses stand little'
p1422
aS'mint green bridesmaids dresses'
p1423
aS'idea sambry'
p1424
aS'wedding hair'
p1425
aS'lace sleeved wedding gown'
p1426
aS'long train wedding dress'
p1427
aS'chignon'
p1428
aS'wish hair would hold curl like'
p1429
aS'conch shell braid wish thicker longer hair cool'
p1430
aS'loose fishtail pony'
p1431
aS'updo'
p1432
aS'hair inspiration beautylish'
p1433
aS'curly side'
p1434
aS'pretty loose curly braid'
p1435
aS'lauren conradesque'
p1436
aS'modern super easy tutorial'
p1437
aS'sophisticated updo looks easy enough'
p1438
aS'photooftheday picoftheday fashion style swag shoes model ootd pictureoftheday dress stree'
p1439
aS'trick making ponytail longer thicker'
p1440
aS'greek hairdressing hair club mode coiffure kalymnos island'
p1441
aS'gibson tuck'
p1442
aS'greek goddess'
p1443
aS'greek style'
p1444
aS'shoulder sleeveless chiffon dress'
p1445
aS'long shoulder wedding dress'
p1446
aS'lovely strapless lace appliques decoration knee length wedding dress'
p1447
aS'beautiful mandarin collar lace sheath wedding dress'
p1448
aS'elegant high neck lace satin mermaid style wedding dress'
p1449
aS'length sleeved dress ruffled aline skirt absolutely love'
p1450
aS'shoulder princess satin weddingdress'
p1451
aS'strapless alinetaffeta bridal gown'
p1452
aS'dropped waist chapel train sleeveless satin perfect bridal gown'
p1453
aS'organza satin ball gown floor length bridal gown'
p1454
aS'scalloped lace mermaid wedding dress'
p1455
aS'2012 fall strapless organza bridal gown natural waist'
p1456
aS'gorgeous wedding dress'
p1457
aS'gorgeous wedding dress'
p1458
aS'gorgeous vneck aline chapel train bridal gowns'
p1459
aS'princess halter neck layer wedding dress'
p1460
aS'empire bridal gownsempire bridal gownsempire bridal gowns'
p1461
aS'fashionable shoulder dropped waist chiffon wedding dress'
p1462
aS'wedding dress love absolutely perfect worries tooooo'
p1463
aS'floor length chiffon silhouette wide vneckline beaded applique detailed shoulders draped'
p1464
aS'strapless kneelength rose flower decoration dress'
p1465
aS'glamorous sleeveless aline bridesmaid dress like'
p1466
aS'website multiple options bridesmaids several colors available'
p1467
aS'fashionable shoulder natural waist chiffon wedding dress'
p1468
aS'great site cheap dresses'
p1469
aS'elegant sleeveless princess floorlength bridal gowns'
p1470
aS'boat neck satin tulle little white gown'
p1471
aS'back neck mermaid wedding dress'
p1472
aS'light pink bridesmaid dress shoulder modern sild slit dress'
p1473
aS'high neck chiffon draped dress'
p1474
aS'sping bridesmaid dress look site snelson snelson snelson snelson snelson'
p1475
aS'sexy floor length haltered chiffon dress self belt'
p1476
aS'shoulder taffeta floor length bridesmaid dress'
p1477
aS'elegant shoulder beading elastic satin evening dress'
p1478
aS'elegant strapless half beaded ruched evening dress'
p1479
aS'2012 strapless satin bridesmaid dress empire waist'
p1480
aS'stylish shoulder beading ankle length chiffon evening dress'
p1481
aS'shoulder bridesmaid dress'
p1482
aS'black short bridesmaid dress'
p1483
aS'dark purple bridesmaid dress'
p1484
aS'knee length halter chiffon dress'
p1485
aS'sweetheart line silk chiffon women dress'
p1486
aS'elegant strapless fully ruched dropped waist satin dress'
p1487
aS'fashionable strapless natural waist chiffon wedding dress'
p1488
aS'scoop chiffon bridesmaid dress empire waist'
p1489
aS'elegant shoulder ankle length chiffon bridemaid dress'
p1490
aS'halter bridesmaid dress beautiful sleeveless natural waist dress bridesmaid'
p1491
aS'light purple bridesmaid dress'
p1492
aS'elegant single shoulder long sleeve ruched evening dress'
p1493
aS'aline bridesmaid dress'
p1494
aS'gorgeous tealength aline bridesmaid dress'
p1495
aS'sweetheart chiffon bridesmaid dress empire waist something like maybe'
p1496
aS'lovely sweetheart chiffon bridesmaid gowngtabby pretty bridesmaid dress like shor'
p1497
aS'straps black lace belt chiffon bridesmaid dress'
p1498
aS'sexy vneck satin dress bridesmaid'
p1499
aS'charming strapless highlow chiffon dress'
p1500
aS'long purple bridesmaid dress shoulder aline chiffon bridesmaid dress'
p1501
aS'long pink bridesmaid dress halter aline beading embellishment satin bridesmaid dress'
p1502
aS'short purple bridesmaid dress'
p1503
aS'beauty sleeveless chiffon bridesmaid gown'
p1504
aS'sweetheart natural waist taffeta bridesmaid gown'
p1505
aS'yellow bridesmaid dress shoulder column bridesmaid dress'
p1506
aS'coral bridesmaid dress'
p1507
aS'coral bridesmaid dress'
p1508
aS'wedding dresseswedding dresseswedding dresses'
p1509
aS'dresses'
p1510
aS'strapless ball gown tulle wedding dressgorgeous'
p1511
aS'beautiful'
p1512
aS'beautiful good website'
p1513
aS'like gathering'
p1514
aS'koszor\xc3\xbasl\xc3\xa1nyruh\xc3\xa1k sz\xc3\xadnesben koszor\xc3\xbasl\xc3\xa1ny esk\xc3\xbcv\xc5\x91 bridesmaids'
p1515
aS'vicces esk\xc3\xbcv\xc5\x91 wedding koszor\xc3\xbasl\xc3\xa1ny'
p1516
aS'gy\xc3\xb6ny\xc3\xb6r\xc5\xb1ek ezek koszor\xc3\xbasl\xc3\xa1ny ruh\xc3\xa1k esk\xc3\xbcv\xc5\x91 koszor\xc3\xbasl\xc3\xa1ny wedding'
p1517
aS'esk\xc3\xbcv\xc5\x91 wedding koszor\xc3\xbasl\xc3\xa1ny'
p1518
aS'esk\xc3\xbcv\xc5\x91 wedding'
p1519
aS'l\xc3\xa9gies koszor\xc3\xbasl\xc3\xa1ny koszor\xc3\xbasl\xc3\xa1nyruha bridesmaids'
p1520
aS'wedding updo'
p1521
aS'vintage style waves wedding bride hair wedding inspiration'
p1522
aS'wedding hair company wedding hair style gallery wedding hair company makeup'
p1523
aS'detail'
p1524
aS'wedding dresseswedding dresseswedding dresses'
p1525
aS'sweetheart dropped waist tulle wedding dress'
p1526
aS'princess ruffled organza wedding dress empire waist'
p1527
aS'charming sleeveless trumpet floorlength wedding dress'
p1528
aS'arrival shoulder organza bridal gown'
p1529
aS'dresses expensive'
p1530
aS'pretty aline dropped waist organza wedding dress'
p1531
aS'chic aline sleeveless chiffon wedding dress'
p1532
aS'aline sleeveless floorlength bridal gown'
p1533
aS'taffeta beading ruffle vneck mermaid wedding dress appliques'
p1534
aS'wedding cake toper'
p1535
aS'wedding cake toppers western cute'
p1536
aS'beach wedding cake topper would perfect topper anniversary cake'
p1537
aS'carl ellie fredricksen cake topper find'
p1538
aS'google image result'
p1539
aS'wedding cake topper dancing couple wedding cake toppers marriage favors'
p1540
aS'wedding cake toper tying knot sign wood stand custom bride groom wooden dolls weddi'
p1541
aS'sala black sofistica\xc3\xa7\xc3\xa3o luxo perfeita para noivas mais exigentes'
p1542
aS'week money challenge game 52weekmoneychallenge'
p1543
aS'gorgeous bridal gowns make ultimate romantic statement onewed'
p1544
aS'great night elite bridal network'
p1545
aS'amazing christian louboutin boots'
p1546
aS'style christian louboutinthey amazing fashionablerecommend'
p1547
aS'sparkle'
p1548
aS'dior maxibow booties'
p1549
aS'shoes'
p1550
aS'jimmychookendall'
p1551
aS'awesome bridesmaid gift idea note bridesmaids clutch'
p1552
aS'wedding planning checklists month engagement'
p1553
aS'cupcakes champagne flutesgreat idea parties showers'
p1554
aS'make wedding centerpieces placing black white photos vegetable oilfilled mason'
p1555
aS'registry list'
p1556
aS'website sells mason jars cheapgotta remember'
p1557
aS'modern wedding dress'
p1558
aS'nautical wedding coozies guests'
p1559
ag77
ag77
aS'9gag young celebrities'
p1560
aS'taking shit dumbass'
p1561
ag77
aS'ripest juiciest peach world there\xe2\x80\x99s still going someone hates'
p1562
aS'cowboys indians'
p1563
aS'good dress good website'
p1564
aS'amazing trumpet mermaid dropped waist satin wedding dress'
p1565
aS'beautiful gown'
p1566
aS'proof reading article comes tomorrow'
p1567
aS'keep face always toward sunshine shadows fall behind walt whitman'
p1568
aS'lets'
p1569
aS'travelinspired ideas wedding'
p1570
aS'florida beaches perdido condo rent vacation rental owner gulffront condo'
p1571
aS'spend time every visualizing want'
p1572
aS'great shoot'
p1573
aS'photo shoot today today reunited ohhhh'
p1574
aS'power boat races revving banyan resort'
p1575
aS'thank kirk coming south florida last year worked tour partner pastor marvin sapp'
p1576
aS'stop giving everything think areand give youre perfectim patientwithout'
p1577
aS'check page'
p1578
aS'need years call 9549015116'
p1579
aS'call special pricing 9549015116'
p1580
aS'sent email'
p1581
aS'call 9549015116'
p1582
aS'awesome wedding weekend coming'
p1583
asS'2012_45'
p1584
(lp1585
S'ahhhh need little help message question'
p1586
aS'politicians like babies diaper changed often reason'
p1587
aS'know every living president visited ritzcarlton many signatures found'
p1588
aS'watching election network'
p1589
asS'2012_44'
p1590
(lp1591
S'crazy event weekend looking forward awesome nuptials homecomings corporate events'
p1592
aS'added pinterest'
p1593
aS'follow'
p1594
aS'today begin life today shed skin hath long suffered bruises failure wounds mediocrity'
p1595
asS'2012_47'
p1596
(lp1597
S'complicate life morning coach facebook'
p1598
aS'hammer gangnam style american music awards 2012'
p1599
asS'2012_28'
p1600
(lp1601
S'dukes september rhythm revue tickets concerts tour dates ticketmaster'
p1602
aS'unlocked triple play badge checking baseball stadiums juuust outside'
p1603
aS'chillin slade marlins park washington nationals miami marlins others'
p1604
aS'happy bastile'
p1605
aS'sitting starbucks waiting meeting love coollime'
p1606
aS'laughter erupts broward court bedridden walks'
p1607
ag77
aS'candace diesel chicago illinois lakefront engagement photography'
p1608
aS'bridal dress lady beatrix lady beatrix skirt'
p1609
aS'bridal dress lady almog lady aviva skirt lady almog necklace'
p1610
aS'even gets point start screaming themhappy mothers'
p1611
asS'2012_41'
p1612
(lp1613
S'shiney'
p1614
ag77
aS'klout score increased past days check today influence ranks'
p1615
aS'entertainment'
p1616
aS'always party entertainment flickr'
p1617
aS'posted photos facebook album fort lauderdale beach hilton couzzoraymond'
p1618
aS'loooool'
p1619
aS'ohhh nooooooo'
p1620
aS'dont forget karaoke tonight whiskey tango hollywood'
p1621
aS'heading west thursday another grand wedding'
p1622
aS'amazing'
p1623
aS'gotta make paper'
p1624
aS'calling wedding professionals advertising works'
p1625
aS'need aware others applaud efforts acknowledge successes encourage'
p1626
aS'love bollywood'
p1627
aS'entertainment wedplan'
p1628
aS'entertainment wedplan'
p1629
asS'2012_40'
p1630
(lp1631
S'poll romney closes swing states'
p1632
aS'added video playlist nickelback today last'
p1633
aS'added video playlist eminem lose lyrics'
p1634
aS'announces cancellation 201213 regular season schedule october'
p1635
aS'weddings pinterest'
p1636
aS'lehrer stay'
p1637
aS'gore blames obama debate performance denvers altitude almost president'
p1638
aS'chris matthews freaks obama debate performance soooo funny'
p1639
aS'lockout links nhlpa stalemate'
p1640
aS'join nickmom clique share repeat easy'
p1641
aS'nickmom shows official site funny stuff'
p1642
aS'became member nickmomclique join share earn points prizes'
p1643
asS'2012_43'
p1644
(lp1645
S'looking something memorable'
p1646
aS'dropped cell phone touch screen working call cannot answer text'
p1647
asS'2012_42'
p1648
(lp1649
S'need little help'
p1650
aS'tracy president'
p1651
aS'join expand engage evaluate social networks smrocketfuel'
p1652
aS'looking forward another rocking wedding weeks hawks rocks'
p1653
aS'looking forward another rocking wedding coming weekend cheeca'
p1654
aS'really believed deserved better would work them\xe2\x80\x9d'
p1655
aS'weddings events next year look forward working awesome staff'
p1656
aS'good morning greetings west marriott beachside hotel great'
p1657
asS'2013_24'
p1658
(lp1659
S'starting kids almighty molly slade savannah slade'
p1660
aS'beautiful wedding'
p1661
aS'brazil japan espn neymar awesome fifa futbol'
p1662
aS'align you\xe2\x80\x99ll become need'
p1663
aS'swing park kids forever beingakid lovingmyfamily specialtimes'
p1664
aS'well friend years side call need'
p1665
aS'getting ready another amazing wedding weeks venues naples looking soon'
p1666
asS'2013_25'
p1667
(lp1668
S'todays bride walks aisle'
p1669
aS'todays bride walks aisle'
p1670
aS'bada mixxxxxx jorge'
p1671
aS'jorge antonatos sound event miami heat 2013 champions tribute white'
p1672
aS'corporate event want something different event check todd pope'
p1673
aS'relaxing work done getting ready awesome weekend'
p1674
aS'watching today video fake charity page steals pictures mother\xe2\x80\x99s blog'
p1675
aS'excited working another wedding coordinator west keywest wedding bestweddingdjever'
p1676
aS'recommended wedding professionals luxury enjoying ocean every time work best sunsets'
p1677
aS'happy birthday great'
p1678
aS'final prep weekends wedding glad great venue'
p1679
aS'live brutha lock october going partay'
p1680
aS'cometh pittsburgh'
p1681
aS'another blessing rise time given another lets make something'
p1682
aS'wish therenext year'
p1683
aS'recommended service several venues west looking forward tweets'
p1684
aS'mornin amazing good'
p1685
aS'showered ready blessing coming open receive'
p1686
asS'2013_26'
p1687
(lp1688
g77
aS'ns7fx numark'
p1689
aS'hair'
p1690
aS'absolutely gorgeous'
p1691
aS'cute'
p1692
aS'karaoke kids home molly rockin taylor style'
p1693
aS'checking lets hope lower numbers'
p1694
aS'bird singing outside despite rain open receive life share today know time'
p1695
aS'meeting minds denni news lounge'
p1696
aS'morning coach matt saigon kick'
p1697
aS'sitting glossinger true potential south florida group amazing positiveenergy runtheworld'
p1698
aS'sposabella style 4314 demetriosvery gone wind'
p1699
aS'gorgeous'
p1700
aS'shoulder lace beading fishtail bridal wedding gowns bride wedding dresses ebay'
p1701
aS'country wedding hair google searchpretty updo braid around horizontally curls'
p1702
aS'mimosa morning wedding bridesmaids getting ready'
p1703
aS'pays'
p1704
aS'beautiful'
p1705
aS'handmade hanging mason tutorial'
p1706
aS'mommas babies awwww cute'
p1707
aS'updated professional profile linkedin connect view profile'
p1708
aS'wedding emergency'
p1709
aS'wedding know emergency might arise list emerg'
p1710
aS'bless thank'
p1711
aS'looks like wedding sunset england'
p1712
aS'thank done business'
p1713
aS'comeback islamoradawhere married miss'
p1714
aS'another booking november back sundy house'
p1715
aS'another amazingly flawless wedding venue staff notch glad anytime'
p1716
aS'back weekend another amazing wedding west coast'
p1717
aS'holding friend'
p1718
aS'weeks back cant wait'
p1719
aS'ever need chat'
p1720
aS'best wedding ever enuff said check'
p1721
aS'confirmed providing music services couple england beautiful beach'
p1722
aS'wedding know emergency might arise list emerg'
p1723
asS'2013_27'
p1724
(lp1725
S'good morning world today awesome'
p1726
aS'happy fourth july'
p1727
aS'family time glad home'
p1728
aS'super excited karaoke tonight'
p1729
aS'please like page karaoke moves wednesday'
p1730
aS'beach wedding check stunning beach appropriate shoes gallery wedding style'
p1731
aS'good morning world handful another welcome brings'
p1732
aS'onward upward'
p1733
aS'soooo hurt follow'
p1734
aS'last thing tonight'
p1735
aS'life living stressing keep simple honest real realtalk'
p1736
aS'become contribute gives meaning lives'
p1737
aS'wedding keeps revived posting plus faves love love love'
p1738
aS'really dont follow'
p1739
aS'karaoke'
p1740
aS'like page karaoke moves wednesday work thursday lets party hard karaoke whiskeytango'
p1741
aS'like karaoke page karaoke moves wednesday work thursday lets party hard'
p1742
aS'like karaoke page karaoke moves wednesday work thursday lets party hard'
p1743
aS'like karaoke page karaoke moves wednesday work thursday lets party hard'
p1744
aS'like karaoke page karaoke moves wednesday work thursday lets party hard'
p1745
aS'ready another amazing thanks'
p1746
aS'ready rockin using bootstrappers bible bridalmarketing networking dominatingtheweddingmarket'
p1747
aS'gorgeous wedding location west destinationwedding keywestwedding keywestdj weddingdj'
p1748
aS'received request destination wedding beautiful venue proud recommended vendor'
p1749
aS'street style york fashion week'
p1750
aS'piece pinstripe suit pale blush'
p1751
aS'barbie pink pumps'
p1752
aS'wedding dress'
p1753
aS'pale pink wedding dress lipstick shades yellow glamorous quirky vintage'
p1754
aS'georgia wedding hair beautiful vintage look bride saturday hair melanie salon melani'
p1755
aS'father daughter kind kills'
p1756
aS'best friends'
p1757
aS'iron fist hangman heels click'
p1758
aS'perfect beach style wedding'
p1759
aS'massive traffic generation boost website visitors instantly part'
p1760
aS'pongua falls vietnam'
p1761
aS'house plantation'
p1762
asS'2013_20'
p1763
(lp1764
S'wedding dress trends keys'
p1765
aS'start'
p1766
aS'looks like weddings yessssss'
p1767
asS'2013_21'
p1768
(lp1769
S'glorious friday south florida would perfect weather destination wedding'
p1770
aS'great working last week'
p1771
aS'another flawless wedding past weekend beautiful marriott beachside recommended list'
p1772
aS'observation people ahead time others waste stay focused today'
p1773
aS'enjoy djing weddings beautiful largo hilton'
p1774
aS'english please'
p1775
aS'always love weddings sundy house'
p1776
aS'posted photos facebook album butterfly themed bridal shower'
p1777
aS'twitter broadcast medium people medium'
p1778
aS'love djing weddings venue true unique experience concha'
p1779
aS'dont grow quickly lest forget much love beach keywest quote'
p1780
aS'thanks pass rockstars rule tomorrows rockstars colin cowie 2009'
p1781
aS'really works take teaspoon local honey every morning never took single allergy pill season first'
p1782
aS'best party ever marco beach resort weddings rock'
p1783
aS'good morning world lifes roadblocks stepping stones greatness amazing'
p1784
aS'sale pepe introduces summer menus check specials'
p1785
aS'theres nothing quite like west wedding'
p1786
aS'many smiles began'
p1787
asS'2013_22'
p1788
(lp1789
S'fort lauderdale exxxotica'
p1790
ag77
aS'like'
p1791
aS'tennis start blood pumping office today great'
p1792
aS'another blessing enjoy another great adventure call life1'
p1793
aS'busting butt make deadline'
p1794
aS'glad pinterest want buddha know available summer'
p1795
asS'2013_23'
p1796
(lp1797
S'ahhhh weddingdisaster'
p1798
aS'breakfast plantation tradition'
p1799
asS'2012_27'
p1800
(lp1801
S'172012 piccadilly circus 730pm memorial auditorium ftlauderdaleevents'
p1802
aS'vacuumed house going laundry done appt wedding mrmom'
p1803
aS'candle centerpieces affordable versatile candles create amazing centerpieces every style weddi'
p1804
aS'love pier forget sunday brunch'
p1805
aS'escape summer free night plus kids free hyatt regency pier sixtysix'
p1806
aS'watch highlights final scrimmage flapanthers development camp great hustle guys'
p1807
aS'favorite florida family beaches'
p1808
aS'love informative video wedding toasts'
p1809
aS'several critical security patches 10july microsoft patch tuesday windows safe security'
p1810
aS'dang following good time'
p1811
aS'best part july holiday food fireworks family'
p1812
aS'looking forward another blowout wedding colonnade weddingdj mobiledj haitianwedding'
p1813
aS'cant wait tomorrows wedding looking forward working staff hindiwedding weddingdj'
p1814
aS'planning bridesmaid luncheon ideas etiquette invitation wording'
p1815
aS'friday fresh squeeze'
p1816
aS'friday fresh squeeze'
p1817
aS'life business change right'
p1818
aS'thankyou follow hope find mine interesting like page weddingdj destinationdj'
p1819
aS'thankyou follow hope find mine interesting like page weddingdj destinationdj'
p1820
aS'thankyou follow hope find mine interesting like page weddingdj destinationdj'
p1821
aS'thankyou follow hope find mine interesting like page weddingdj destinationdj'
p1822
aS'thankyou follow hope find mine interesting like page weddingdj destinationdj'
p1823
aS'thankyou follow hope find mine interesting like page weddingdj destinationdj'
p1824
aS'thankyou follow hope find mine interesting like page weddingdj destinationdj'
p1825
aS'thankyou follow hope find mine interesting like page weddingdj'
p1826
aS'thankyou follow hope find mine interesting like page weddingdj destinationdj'
p1827
aS'thankyou follow hope find mine interesting like page weddingdj destinationdj'
p1828
aS'thankyou follow hope find mine interesting like page weddingdj destinationdj'
p1829
aS'thankyou follow hope find mine interesting like page weddingdj destinationdj'
p1830
aS'thankyou follow hope find mine interesting like page weddingdj destinationdj'
p1831
aS'thankyou follow hope find mine interesting like page weddingdj destinationdj'
p1832
aS'thankyou follow hope find mine interesting like page weddingdj destinationdj'
p1833
aS'watch mike berrios share experience important music'
p1834
asS'2012_49'
p1835
(lp1836
S'julie wedding coordinator steve torrence officiant'
p1837
aS'pics djmc'
p1838
aS'posted photos facebook album destination wedding resort west'
p1839
aS'111612emilymichaelaf0454jpg photo annlime27 photobucket'
p1840
aS'limelight photography'
p1841
aS'limelight photography'
p1842
aS'want cinematographer wedding check ltobject width852 height480gtltparam'
p1843
aS'david beahm heart'
p1844
aS'levy lighting gives angela lubin\xe2\x80\x99s wedding aisle romantic lighting treatment'
p1845
asS'2012_25'
p1846
(lp1847
g77
aS'navy wedding cake'
p1848
aS'wedding programs love'
p1849
aS'thank follow hope find mine interesting like page weddingdj destinationd'
p1850
aS'thank follow hope find mine interesting like page weddingdj destinationd'
p1851
aS'thank follow hope find mine interesting like page weddingdj destinationd'
p1852
aS'thank follow hope find mine interesting like page weddingdj destinationd'
p1853
aS'thank follow hope find mine interesting like page weddingdj destinationd'
p1854
aS'thank follow hope find mine interesting like page weddingdj destinationd'
p1855
aS'thank follow hope find mine interesting like page weddingdj destinationd'
p1856
aS'thank follow hope find mine interesting like page weddingdj destinationd'
p1857
aS'thank follow hope find mine interesting like page weddingdj destinationdj'
p1858
aS'bride groom sharing hammock lookout lodge islamorada beach wedding style'
p1859
aS'lyons rockin steel islamorada'
p1860
aS'lookout lodge islamorada beach wedding keys'
p1861
aS'wanna save'
p1862
aS'office calls'
p1863
aS'vote alexis alexis coconut creek 2013 maxim'
p1864
aS'vote friend redline lady panther alexis'
p1865
aS'vote friend alexis coconut creek 2013 maxim'
p1866
aS'great wedding reception beautiful thank alan amazing staff great night djinleys'
p1867
aS'lets hope'
p1868
aS'thank follow hope find mine interesting like page weddingdj destinationdj'
p1869
aS'thank follow hope find mine interesting like page weddingdj destinationdj'
p1870
aS'thank follow hope find mine interesting like page weddingdj destinationdj'
p1871
aS'thank follow hope find mine interesting like page weddingdj destinationdj'
p1872
aS'thank follow hope find mine interesting like page weddingdj destinationdj'
p1873
aS'thank follow hope find mine interesting like page weddingdj destinationdj'
p1874
aS'thank follow hope find mine interesting like page weddingdj destinationdj'
p1875
aS'thank follow hope find mine interesting like page weddingdj destinationdj'
p1876
aS'back like page weddingdj destinationdj'
p1877
aS'looks like october keep sending destination brides love making happy'
p1878
aS'thank follow hope find mine interesting like page weddingdj destinationdj'
p1879
aS'thank follow hope find mine interesting like page weddingdj destinationdj'
p1880
aS'thank follow hope find mine interesting like page weddingdj destinationdj'
p1881
aS'thank follow hope find mine interesting like page weddingdj destinationdj'
p1882
aS'thank follow hope find mine interesting like page weddingdj destinationdj'
p1883
aS'thank follow hope find mine interesting like page weddingdj destinationdj'
p1884
aS'thank follow hope find mine interesting like page weddingdj destinationdj'
p1885
aS'thank follow hope find mine interesting like page weddingdj destinationdj'
p1886
aS'thank follow hope find mine interesting like page weddingdj destinationdj'
p1887
aS'thank follow hope find mine interesting like page weddingdj destinationdj'
p1888
aS'thank follow hope find mine interesting like page weddingdj destinationdj'
p1889
aS'thank follow hope find mine interesting like page weddingdj destinationdj'
p1890
aS'thank follow hope find mine interesting like page weddingdj destinationdj'
p1891
aS'thank follow hope find mine interesting like page weddingdj destinationdj'
p1892
aS'thank follow hope find mine interesting like page weddingdj destinationdj'
p1893
aS'thank follow hope find mine interesting like page weddingdj destinationdj'
p1894
aS'thank follow hope find mine interesting like page weddingdj destinationdj'
p1895
aS'thank follow hope find mine interesting like page weddingdj destinationdj'
p1896
aS'thank follow hope find mine interesting like page weddingdj destinationdj'
p1897
aS'thank follow hope find mine interesting like page weddingdj destinationdj'
p1898
aS'thank follow hope find mine interesting like page weddingdj destinationdj'
p1899
asS'2012_24'
p1900
(lp1901
S'worked amazing ocean last night'
p1902
aS'swallow questions please really'
p1903
aS'statements daily caller regarding exchange white house rose garden'
p1904
aS'nice perk tonight roger waters wall'
p1905
aS'house plantation'
p1906
aS'sunset west baby'
p1907
aS'rockin sunset pier keywest'
p1908
aS'west sunset'
p1909
aS'love west'
p1910
aS'west wedding today'
p1911
aS'thank follow hope find mine interesting like page weddingdj destinationdj'
p1912
aS'thank follow hope find mine interesting like page weddingdj destinationdj'
p1913
aS'karaoke happening whiskey tuesday night week heat game next week'
p1914
aS'best season wedding'
p1915
aS'thank follow hope find mine interesting like page weddingdj destinationdj'
p1916
asS'2013_28'
p1917
(lp1918
S'rain rain away'
p1919
aS'thank follow back looking forward working future'
p1920
aS'thank follow back looking forward tweets'
p1921
aS'thank follow back looking forward tweets'
p1922
aS'connected account facebook page update account today'
p1923
aS'line free slurpees'
p1924
aS'thank follow back looking forward tweets'
p1925
aS'thank follow back looking forward working future'
p1926
aS'found working another event sundy house cant wait another wedding'
p1927
aS'thank follow looking forward tweets'
p1928
aS'thank follow looking forward tweets'
p1929
aS'thank follow looking forward tweets'
p1930
aS'thanks much followwe look forward working future'
p1931
aS'beautifully rustic bark wedding cake flowers'
p1932
aS'great networker'
p1933
aS'check network presents night networking wedding professionals'
p1934
asS'2013_29'
p1935
(lp1936
S'love skirt dress'
p1937
aS'pnina tornai'
p1938
aS'amazing dress'
p1939
aS'dream wedding dress'
p1940
aS'many endorsements thank'
p1941
ag77
aS'frank sinatra'
p1942
aS'merry round'
p1943
aS'rockin start cantstopmenow'
p1944
asS'2012_21'
p1945
(lp1946
S'nail thing\xe2\x80\xa6and heres best'
p1947
aS'wedding ocean resort west friday saturday tonight ocean keys noble house pier rock tonight'
p1948
aS'raining happy'
p1949
aS'duval street west'
p1950
aS'ocean resort days'
p1951
aS'ocean resort sunday'
p1952
aS'accident north sugarloaf'
p1953
aS'west groommom dance barefoot love west ocean resort'
p1954
aS'best wedding photo ever best wedding photo ever'
p1955
aS'pink'
p1956
aS'wedding party southernmost hotel beach west beach wedding'
p1957
aS'like boss boss'
p1958
aS'congrats'
p1959
ag77
aS'alkie check points'
p1960
aS'ladies mixin mingling whiskey tango hollywood karaoke'
p1961
aS'ladies tango ladies night karaoke hollywood'
p1962
aS'traffic'
p1963
ag77
aS'score steady'
p1964
aS'ceremony'
p1965
aS'love shoes'
p1966
aS'local'
p1967
aS'dani well miss'
p1968
aS'ladies'
p1969
aS'rihanna rocks house whiskey tango'
p1970
aS'packed house'
p1971
aS'slobbering steve honkytonk badonkadonk'
p1972
aS'amber bartender extraordinaire'
p1973
aS'ladies'
p1974
aS'shes tall love karaoke karaokebroward whiskeytango'
p1975
aS'fans pregame'
p1976
aS'time'
p1977
aS'carry awesome'
p1978
aS'swag'
p1979
aS'another funtastic celebration style pretty last week photography'
p1980
aS'photography event planning styling floral desig'
p1981
aS'melissa george laplaya beach resort naples wedding photography'
p1982
aS'laplaya beach golf resort naples beach wedding location desinationwedding weddingdj'
p1983
aS'warm beach wedding laplaya beach golf resort nothing sand surf celebrat'
p1984
aS'laplaya resort'
p1985
aS'glad look forward working like page'
p1986
aS'glad look forward working like page'
p1987
aS'received entertainment thanks'
p1988
aS'join klout influence internet'
p1989
aS'score steady'
p1990
aS'like page thank'
p1991
aS'rgis'
p1992
aS'rosas deli fort lauderdale'
p1993
aS'chevron cypress creek lyons fort lauderdale'
p1994
aS'tommy melissa calloway wedding april 2012 created animoto'
p1995
aS'tommy melissa calloway wedding april 2012 created animoto'
p1996
aS'weekend finished bang wedding west'
p1997
aS'week weddingwhat arewere thoughts'
p1998
aS'score steady'
p1999
aS'rosas deli fort lauderdale'
p2000
ag77
aS'karaoke hottest blonde planet whiskey tango others'
p2001
aS'cant wait years conference'
p2002
aS'checking want part exclusive group wedding vendors wedding forums'
p2003
aS'weekend gonna another rockin wedding west desinationwedding keywest weddingdj photo'
p2004
aS'tall glass lemonadei dont alcohol refreshing view tranquility'
p2005
aS'coconut limeade limonada coco heaven glass favorite refreshing beverage'
p2006
aS'great working recently look forward seeing work destinationwedding napleswedding'
p2007
aS'looking forward working weekend destinationwedding mobiledj weddingdj'
p2008
aS'twitter friendslooking forward working weekend destinationwedding weddingdj planner'
p2009
aS'body hair\xe2\x80\xa6 haywards total fitness bodybuilding'
p2010
aS'house plantation'
p2011
aS'sexynatgs photo'
p2012
aS'beautiful little palm island friends family sipping drink watching deer roam vacation'
p2013
aS'score steady'
p2014
aS'commercial blvd lauderdale'
p2015
aS'hess fort lauderdale'
p2016
aS'cypress powerline'
p2017
aS'calvary christian academy'
p2018
aS'parking bible study fort lauderdale'
p2019
aS'breakfast miami subs'
p2020
aS'kids house'
p2021
aS'like page'
p2022
aS'hired wedding reception laplayaresort naples cant wait back destinationwedding weddinginnaples'
p2023
aS'believe'
p2024
aS'song wedding reception looking lyrics dont celebrate lovelike respect secret'
p2025
aS'gassss regular chevron cypress creek lyons'
p2026
aS'calvary christian academy'
p2027
aS'calvary christian academy fort lauderdale'
p2028
aS'parking bible study fort lauderdale'
p2029
aS'sunset pier west west others'
p2030
asS'2012_20'
p2031
(lp2032
S'awkward feeling reading tshirt applies person next laugh look like whats dang funny'
p2033
aS'keylime company enjoying piece late wedding reception keywest keylimepie'
p2034
aS'next week djing pier pillow'
p2035
aS'back tonight small wedding shake pier'
p2036
aS'youre awesome'
p2037
aS'yeah thinking thing'
p2038
aS'thank'
p2039
aS'well said'
p2040
aS'whatchu doin 2day west'
p2041
aS'ocean resort wedding reception guests includes smallwedding destinationwedding keywestwedding'
p2042
aS'neither girl button business shirt thats works qualify'
p2043
aS'nice'
p2044
aS'west kill ideas'
p2045
aS'duval street west'
p2046
aS'sandys cafe west'
p2047
aS'favorite breakfast marathon biscuits gravy wooden spoon'
p2048
aS'mcdonalds marathon'
p2049
aS'keys baby'
p2050
aS'ocean resort'
p2051
aS'caribbean resort'
p2052
aS'showtime'
p2053
aS'like threat part many hurricaneseason'
p2054
aS'tomorrow'
p2055
aS'cocktail time right'
p2056
aS'ceremony reception'
p2057
aS'cocktail hour caribbean resort'
p2058
aS'sweetheart table beach reception'
p2059
aS'table setting caribbean resort islamorada'
p2060
aS'davie blvd'
p2061
aS'stirling dania beach'
p2062
aS'shower breakfast islamorada wedding weddingdj islamoradawedding destinationwedding'
p2063
aS'listening babe'
p2064
aS'light browsed'
p2065
aS'sonic drivein boynton beach'
p2066
aS'einstein bros bagels fort lauderdale'
p2067
aS'ousted mayor daily grind'
p2068
aS'powerline cypress creek fort lauderdale'
p2069
aS'hobo hotspot fort lauderdale'
p2070
aS'riverland davie fort lauderdale'
p2071
aS'davie blvd'
p2072
aS'south plantation high school plantation'
p2073
ag77
aS'watch mike berrios share experience important music'
p2074
aS'best wedding ever available date modern wedding reception encompassing desires'
p2075
aS'donna summer dead rest peace queen disco live forever though danced last dance donnasummer disco'
p2076
aS'true'
p2077
aS'last lecture randy pausch puts everything perspective'
p2078
aS'spanish river library wedding awesome awesome uplighting outdoorlighting weddinguplighti'
p2079
aS'house plantation'
p2080
aS'house plantation'
p2081
aS'kids house'
p2082
aS'rgis'
p2083
aS'chevron cypress creek lyons fort lauderdale'
p2084
aS'watch mike berrios share experience important music'
p2085
aS'rosas deli fort lauderdale'
p2086
aS'mornings lets talk bible parking bible study'
p2087
aS'calvary christian academy fort lauderdale'
p2088
aS'calvary christian academy'
p2089
aS'cypress creek fort lauderdale'
p2090
aS'chevron lauderdale'
p2091
aS'davie blvd 31st fort lauderdale'
p2092
aS'game time'
p2093
aS'panthers playoffs'
p2094
aS'last game 20112012 season'
p2095
aS'wedtv host lauren antoni redhead weddinghost prettywoman'
p2096
aS'florida turnpike plantation'
p2097
aS'plantation park elementary'
p2098
aS'love hair'
p2099
ag77
aS'real life jessica rabbit'
p2100
aS'nicole kidman'
p2101
aS'simone simons redhead rock'
p2102
aS'love hair idea hopefully mother'
p2103
aS'white'
p2104
aS'beautiful tablescaping pink tones wedding inspiration credit velvet lily florist'
p2105
aS'white wood temple glasses'
p2106
aS'brigitte bardot hair'
p2107
aS'divine natural soap'
p2108
aS'dual monitor setup uplighting hott uplighting mobiledj weddingdj wyndham'
p2109
aS'motley crew crazyhairedwigguy gumby pokey'
p2110
aS'panthers game'
p2111
aS'three beautiful redline lady panthers floridapanthers dancers'
p2112
aS'master sass house karaoke ladiesnight sexymen sexywomen'
p2113
aS'patio havoc ladiesnight freedrinks bestbar bestkaraoke'
p2114
aS'beach ceremony reception beach locations wedding'
p2115
aS'lets'
p2116
aS'babys breath bridesmaids'
p2117
asS'2013_5'
p2118
(lp2119
S'three weekends love janfeb season'
p2120
aS'edge extended usually free today'
p2121
asS'2013_4'
p2122
(lp2123
S'site back finally'
p2124
asS'2013_7'
p2125
(lp2126
S'unlocked shutterbug badge adding photos checkins cheese'
p2127
aS'mail thank mailman thank clients thank knot call'
p2128
asS'2013_6'
p2129
(lp2130
S'check word rings usually free today'
p2131
asS'2013_1'
p2132
(lp2133
S'djing crimson tide alumni rally today'
p2134
aS'like page weddingmarket'
p2135
aS'djmc ounder teddy toss female bride teddy groom teddy toss garbou toss adults weddingmarket'
p2136
aS'boquet toss djmc find advanceduring wedding prep kids weddingmarket'
p2137
aS'finding skype true tool weddings destination weddingmarket'
p2138
aS'best tool streamline inbox great save time space work smarter harder'
p2139
aS'favorite tools email havent tried sanebox youre missing'
p2140
aS'uploaded video rock rock live years'
p2141
aS'rock hard rock live'
p2142
aS'years first time years enjoy true rarity'
p2143
asS'2013_3'
p2144
(lp2145
S'come angi blue tarmac djing'
p2146
aS'today like christmas hockey fanscant wait banner raise tomorrow getiton'
p2147
aS'hockey back playing post game saturday every home game panthers'
p2148
aS'hockey back playing post game saturday every home game panthers'
p2149
aS'hockey back playing post game saturday every home game panthers'
p2150
asS'2013_2'
p2151
(lp2152
S'posted photos facebook album natalia justin wedding keys'
p2153
aS'join hellofax easiest sign send documents online'
p2154
aS'check join hellofax easiest sign send documents online'
p2155
asS'2012_23'
p2156
(lp2157
S'ousted mike mayor'
p2158
aS'dont know'
p2159
aS'glad'
p2160
aS'happy justthoughtyoushouldknow'
p2161
aS'ousted andrew mayor marathon food center'
p2162
aS'happy happy'
p2163
aS'mckinney jenny hanson needs kosher catering caterers wedding cooks restaurant'
p2164
aS'weddings florida inspiration lace'
p2165
aS'shaun canton needs hire event caterers caterers wedding cooks restaurant'
p2166
aS'signed wedding beach club'
p2167
aS'wish could'
p2168
aS'lets dance like ones watching'
p2169
aS'wedding dress photo'
p2170
aS'bound'
p2171
aS'thank follow hope find mine interesting like page weddingdj destinationdj'
p2172
aS'thank follow hope find mine interesting like page weddingdj destinationdj'
p2173
aS'thank follow hope find mine interesting like page weddingdj destinationdj'
p2174
aS'thank follow hope find mine interesting like page weddingdj destinationdj'
p2175
aS'thank follow hope find mine interesting like page weddingdj destinationdj'
p2176
aS'thank follow hope find mine interesting like page weddingdj destinationdj'
p2177
aS'sending much love cant wait next tuesday'
p2178
aS'learned best'
p2179
aS'glad'
p2180
aS'thank follow hope find mine interesting like page weddingdj destinationdj'
p2181
aS'thank follow hope find mine interesting like page weddingdj destinationdj'
p2182
aS'thank follow hope find mine interesting like page weddingdj destinationdj'
p2183
aS'thank follow hope find mine interesting like page weddingdj destinationdj'
p2184
aS'loved thanks plug loved working wioth'
p2185
aS'cindykarps photo awesome'
p2186
aS'thank follow hope find mine interesting like page weddingdj destinationdj'
p2187
aS'clients ever need master ceremony services know'
p2188
aS'great time venue staff facilities notch'
p2189
aS'thank follow hope find mine interesting like page weddingdj destinationdj'
p2190
aS'thank follow hope find mine interesting like page weddingdj destinationdj'
p2191
aS'thank follow hope find mine interesting like page weddingdj destinationdj'
p2192
aS'blue white'
p2193
aS'liked page'
p2194
aS'next tuesday'
p2195
aS'awesome sunset past weekend rain stopped allowed amazing color cant wait next'
p2196
aS'thank follow hope find mine interesting like page weddingdj destinationdj'
p2197
aS'went awards page wowvery deserving entertainment proud vendor list'
p2198
aS'pleasure working staff always rachels mitzvah rocked'
p2199
aS'today\xe2\x80\x99s affirmation heart experience wonder moment'
p2200
aS'rockin phones making dreams come true'
p2201
aS'coupon codes'
p2202
asS'2013_9'
p2203
(lp2204
S'lime cafe leche mmmmmmmmmm village gourmet'
p2205
aS'beautiful resort paul magda care coconut cove resort'
p2206
aS'checking todays wedding reception site looks like amazing evening'
p2207
aS'table table'
p2208
aS'duck'
p2209
aS'dolphin research center grassy'
p2210
aS'best breakfast anywhere period enid said wooden spoon foursquare'
p2211
aS'best breakfast ever wooden spoon'
p2212
aS'heading heck wedding plantation'
p2213
aS'largo florida tavernier'
p2214
aS'house plantation'
p2215
aS'best ladies night karaoke ladies night karaoke'
p2216
aS'unlocked times best badge checking sizzling south florida spots'
p2217
aS'ousted kelli mayor plantation park elementary'
p2218
asS'2013_8'
p2219
(lp2220
S'reached level flame broiled badge checked different burger joints'
p2221
aS'back saddle lets ride'
p2222
aS'unlocked badge'
p2223
aS'give kenny kadji dagger keeps canes perfect victory poster'
p2224
aS'canes find whew heart cant take'
p2225
asS'2012_22'
p2226
(lp2227
g77
aS'know celebrity great working yesterday looking forward seeing pics working'
p2228
aS'cake pops double seating cards guests know photography'
p2229
aS'great video work friends exige weddings'
p2230
aS'closed shop bride loses deposit wedding reception site fox23 news'
p2231
aS'thank follow hope find mine interesting like page weddingdj destinationdj'
p2232
aS'daytime wedding china grill hilton lauderdale marina'
p2233
aS'todays first dance time first dance tribute groom wife visa versa'
p2234
aS'cocktail hour rain dissipating ocean resort'
p2235
aS'ocean resort tonight love place'
p2236
aS'tonight ocean resort think permanent room'
p2237
aS'miami station playing 10000 songs commercials 1035 remember high long'
p2238
aS'come lauderdale'
p2239
aS'hosting evening castle pingg'
p2240
aS'mine mine mine'
p2241
aS'newlyweds enjoying west sunset casa marina resort photography studio julie wwwstu'
p2242
aS'looks like weeks ocean 12th'
p2243
aS'rockin webinar'
p2244
aS'pinterest webinar wedlock magazine always cutting edge'
p2245
aS'skype show call clients grrrrrrr'
p2246
aS'think luda everything'
p2247
aS'chatted tuesday 12th bride hopefully working together'
p2248
aS'follow tewitter feed hope find mine interesting like page weddingdj destinationdj'
p2249
aS'received another request awesome venue cant wait desinationwedding weddingdj'
p2250
aS'request postcard love islamorada weddingdj djinthekeys destinationwedding'
p2251
aS'score steady'
p2252
aS'thank follow hope find mine interesting like page weddingdj destinationdj'
p2253
aS'thank follow hope find mine interesting like page weddingdj destinationdj'
p2254
aS'great working weekend couple awesome greatwedding weddingcoordinator keywest weddingdj'
p2255
aS'make sure check finals bartender competition bamboo beach'
p2256
aS'thank follow hope find mine interesting like page weddingdj destinationdj'
p2257
aS'thank follow hope find mine interesting like page weddingdj destinationdj'
p2258
aS'croix lake gorges verdon provence france ideal honeymoon spot'
p2259
aS'thank follow hope find mine interesting like page weddingdj destinationdj'
p2260
aS'thank follow hope find mine interesting like page weddingdj destinationdj'
p2261
aS'whiskey tango tonight'
p2262
aS'thank follow hope find mine interesting like page weddingdj destinationdj'
p2263
aS'back biscuits gravy wooden spoon'
p2264
aS'sunrise west'
p2265
aS'sunset west sunset pier ocean resort'
p2266
asS'2012_32'
p2267
(lp2268
S'djmc another amazing wedding marco beach ocean resort proud recommended entertainment service'
p2269
aS'time minute power'
p2270
aS'terrace jupiter beach resort hmmm nice'
p2271
aS'contact info phone 3106756 email website'
p2272
aS'mike berrios'
p2273
aS'megan jones swankey events studio julie studio julie photography'
p2274
aS'worked together think best best event industry point'
p2275
aS'christina berrios event planner 4084718 info'
p2276
asS'2012_33'
p2277
(lp2278
S'looking dress style'
p2279
aS'sharing shutterfly klout perk enjoy professionally bound photo book sflyperk'
p2280
asS'2013_17'
p2281
(lp2282
S'best party ever'
p2283
aS'margate family medical center margate'
p2284
aS'turnpike north'
p2285
aS'turnpike toll plaza pompano beach'
p2286
aS'ladies night ladies night karaoke'
p2287
asS'2012_35'
p2288
(lp2289
S'baby penguin'
p2290
aS'hissssssss'
p2291
aS'unlocked jetsetter badge checking airports voyage'
p2292
aS'shake little island'
p2293
aS'west tomorrow biggest bash year'
p2294
aS'2012 lady panthers press conference'
p2295
aS'guilty charged'
p2296
asS'2012_52'
p2297
(lp2298
S'found couple opted wedding every brings closer'
p2299
aS'entertainment'
p2300
aS'going season'
p2301
aS'looking forward another awesome wedding venue preferred vendor'
p2302
aS'alot couples engaged around holidays engaged'
p2303
aS'another awesome wedding coming weekend beautiful marco beach resort recommended service'
p2304
aS'lots people engaged around christmas propose proposed'
p2305
asS'2012_50'
p2306
(lp2307
S'plug micsits magic'
p2308
aS'plug micsits magic'
p2309
aS'plug micsits magic'
p2310
aS'posted photos facebook album wedding mansion'
p2311
aS'entertainment flickr'
p2312
aS'entertainment flickr'
p2313
aS'denzel washington'
p2314
aS'always shortcut'
p2315
aS'atem back today trainer lookout 2013 coming'
p2316
aS'another amazing destination wedding mansion west'
p2317
aS'planing wedding looking answers serve help'
p2318
aS'another great wedding event weekend thanks jillian another awesome event proud recommended'
p2319
aS'marry'
p2320
aS'preparing weekend ahead'
p2321
aS'favorite song slow dance'
p2322
aS'starting'
p2323
aS'pinterest twitter'
p2324
asS'2012_51'
p2325
(lp2326
S'otherside 2013 come'
p2327
aS'entertainment flickr'
p2328
aS'recent awesome wedding entertainment 9543162149'
p2329
aS'welcoming board entertainment flickr'
p2330
aS'happens alot weddings entertainment flickr'
p2331
aS'step entertainment flickr'
p2332
aS'sneakers rockin floor entertainment flickr'
p2333
aS'party circle entertainment flickr'
p2334
aS'newlyweds enjoy first dance entertainment flickr'
p2335
aS'green uplighting entertainment flickr'
p2336
aS'first dance fort lauderdale beach hilton entertainment flickr'
p2337
aS'green uplighting entertainment flickr'
p2338
aS'green uplighting entertainment flickr'
p2339
aS'wedding cupcakes entertainment flickr'
p2340
aS'wedding candy entertainment flickr'
p2341
aS'wedding candy entertainment flickr'
p2342
aS'real brooklyn wedding lauren shani'
p2343
aS'apps prevent texting driving'
p2344
aS'1800 likes'
p2345
aS'posted photos facebook album wedding benvenuto'
p2346
aS'years spots still available call book 9543162149'
p2347
aS'another filled opportunity'
p2348
asS'2013_37'
p2349
(lp2350
g77
ag77
aS'check great elephant sold electromusic'
p2351
aS'goes frazier goes frazier'
p2352
aS'typo akron beating michigan 2421 left game zips lost straight road'
p2353
aS'addison boca tonight'
p2354
aS'keywords converting must read'
p2355
aS'keywords converting'
p2356
aS'reading books molded life\xe2\x80\x9d'
p2357
aS'randy gage'
p2358
aS'reading \xe2\x80\x9cunleashing creative genius\xe2\x80\x9d'
p2359
aS'important prosperity ever'
p2360
aS'autism autism'
p2361
aS'thanks apple'
p2362
aS'found empire love page'
p2363
aS'pure sites home'
p2364
aS'meet lots entrepreneurs louis startup'
p2365
aS'increase reach realize full potential erictownsend empireavenue'
p2366
ag77
aS'early bird special selling flavors apple blueberry vanilla strawberry mocha first ecigs'
p2367
aS'increase reach realize full potential ecyberflier empireavenue'
p2368
aS'weekend'
p2369
aS'ways personalise wedding glad pinned'
p2370
aS'cute rehearsal'
p2371
aS'autumn wedding centerpiece'
p2372
aS'high school sweethearts'
p2373
aS'high school sweethearts'
p2374
aS'beautiful'
p2375
aS'cute idea'
p2376
aS'save date'
p2377
aS'happy friday 13th'
p2378
aS'view funny pictures'
p2379
aS'cant fall asleep argh'
p2380
aS'holding back becoming best self'
p2381
aS'emails elephant bite time better chewing'
p2382
aS'60th birthday party rocked mike want thank wonderful music'
p2383
aS'featured'
p2384
aS'goes back windshield control upfront lets send messages people'
p2385
aS'beautiful'
p2386
aS'black white stripe wedding cake'
p2387
aS'wedding cake'
p2388
aS'shoe cake'
p2389
aS'shoe cake'
p2390
aS'steampunk victoriana birthday cake'
p2391
aS'party time cake'
p2392
aS'cake'
p2393
aS'pinkfallingblossom'
p2394
aS'added another venue recommended vendor list woohoo'
p2395
aS'like page almost 2000 likes'
p2396
aS'rocco german shepherd seizures today little prayer please'
p2397
aS'2000 likes tonight'
p2398
aS'gotta 2000 likes lets weddingdj destinationwedding keyswedding napleswedding bestweddingdj'
p2399
aS'martin luther king wife coretta scott king'
p2400
aS'happy birthday fred rogers kindest people walk earth'
p2401
aS'cher avedon'
p2402
aS'prince stevie wonder'
p2403
aS'dietrich'
p2404
aS'tyler'
p2405
aS'olsens'
p2406
aS'fred astaire originally danced sister adele many many beautiful partners'
p2407
aS'inspiration'
p2408
aS'gossip news'
p2409
ag77
ag77
aS'winchester mystery house'
p2410
aS'martin luther king father atlanta georgia march 1963 photo richard'
p2411
aS'truly reflect'
p2412
aS'available date'
p2413
aS'kids school workout lets make positive changes replacing habits good ones'
p2414
aS'blue'
p2415
aS'love'
p2416
aS'week approach make work week ahead'
p2417
asS'2013_36'
p2418
(lp2419
S'slade berrios class 2018'
p2420
aS'anyone extra todays umuf game gators hurricanes football call thank'
p2421
aS'fort lauderdale'
p2422
aS'another pinner says sink looks shiny picture didnt'
p2423
aS'untitled'
p2424
aS'untitled'
p2425
aS'untitled'
p2426
aS'untitled'
p2427
aS'untitled'
p2428
aS'untitled'
p2429
aS'untitled'
p2430
aS'untitled'
p2431
aS'untitled'
p2432
aS'untitled'
p2433
aS'untitled'
p2434
aS'untitled'
p2435
aS'untitled'
p2436
aS'untitled'
p2437
aS'untitled'
p2438
aS'untitled'
p2439
aS'untitled'
p2440
aS'untitled'
p2441
aS'untitled'
p2442
aS'untitled'
p2443
aS'untitled'
p2444
aS'untitled'
p2445
aS'untitled'
p2446
aS'untitled'
p2447
aS'untitled'
p2448
aS'untitled'
p2449
aS'untitled'
p2450
aS'limbo'
p2451
aS'untitled'
p2452
aS'untitled'
p2453
aS'untitled'
p2454
aS'untitled'
p2455
aS'untitled'
p2456
aS'untitled'
p2457
aS'everyone watches last songs played'
p2458
aS'bride father smile walked aisle'
p2459
aS'marco beach ocean resort ceremony'
p2460
aS'marco beach ocean resort ceremony looking sand'
p2461
aS'guest watch bride groom enjoy first dance'
p2462
aS'groom smiles first dance'
p2463
aS'dance floor packed'
p2464
aS'best party ever'
p2465
aS'hands'
p2466
aS'stunning rhinestoned dress'
p2467
aS'blush green ribbon'
p2468
aS'italian bride'
p2469
aS'gorgeous'
p2470
aS'lili 2014 vestido novia'
p2471
aS'beautiful wedding dress'
p2472
aS'captures special moments jhunter photography'
p2473
aS'simple cute cake topper'
p2474
aS'bride falls inside cake cake topper thank jorge sound event popping'
p2475
aS'little family time slademimi yummmm pizza center'
p2476
aS'bongo email phone 9426716'
p2477
aS'bride groom cake topper flickr photo sharing'
p2478
aS'photography'
p2479
aS'bride bamboo'
p2480
aS'rachel jasons paris themed wedding'
p2481
aS'delray beach'
p2482
aS'sundy house rooms'
p2483
aS'patio first dance'
p2484
aS'wedding waterfall'
p2485
aS'wedding garden ceremony tent'
p2486
aS'pink wedding ceremony'
p2487
aS'white aisle'
p2488
aS'pink petals wedding aisle'
p2489
aS'cant wait back another amazing wedding october 12th looking forward working staff'
p2490
aS'outdoor lighting'
p2491
aS'rose petal aisle'
p2492
aS'pretty'
p2493
aS'beach wedding ceremony'
p2494
aS'tent wedding ideas'
p2495
aS'bale sofas kids area zonk parents partying'
p2496
aS'hawaiian themed wedding'
p2497
aS'classic outdoor reception'
p2498
aS'babys breath galvanized buckets'
p2499
aS'reception area'
p2500
aS'ceremony area'
p2501
aS'ceremony area'
p2502
aS'ceremony area flickr photo sharing'
p2503
aS'ceremony area flickr photo sharing'
p2504
aS'cocktail area'
p2505
aS'royal fiesta caterers'
p2506
aS'mayorship foursquare'
p2507
aS'family time game'
p2508
asS'2013_35'
p2509
(lp2510
S'girl aint ticket kickoff minutes guess sucks cane thing'
p2511
aS'jacked start little slade sladerun runaway extended ultrasound'
p2512
aS'sandys amazing cakes sugarcraft edible'
p2513
aS'amazing cake'
p2514
aS'peachy orchids cake'
p2515
aS'cake'
p2516
aS'ghost cake'
p2517
aS'cake'
p2518
aS'balancing four tier creative wedding cake inspired gallerie royale china pattern berna'
p2519
aS'beautiful cake spring'
p2520
aS'love soft pink'
p2521
aS'cake design'
p2522
aS'cake'
p2523
aS'love soft pink'
p2524
ag77
aS'christmas cake regan truaxcakecentralcom'
p2525
aS'pink green cake'
p2526
aS'prettiest cakes seen'
p2527
aS'amazing crafty cakes'
p2528
aS'open peony ruffle wedding cake'
p2529
aS'dusty blue cake'
p2530
aS'cake'
p2531
aS'penny couch diamond ring'
p2532
aS'american shepherds'
p2533
aS'ties sausage tomatoes cream'
p2534
aS'thiscilantroyogurtdippingsauceisawonderfulcoolaccompaniment'
p2535
aS'fettuccine garlic herb butter'
p2536
aS'pico gallo focusonhealthyliving'
p2537
aS'chunky guacamole jarohoney'
p2538
aS'baconwrapped jalape\xc3\xb1o chorizo poppers 17recipes'
p2539
aS'want hair'
p2540
aS'check professional profile connect linkedin'
p2541
aS'looking planner lauderdale west checkout good friend eric'
p2542
aS'fourtier orange pink cake white sugar flowers'
p2543
aS'back dress gorgeous'
p2544
aS'wedding dress'
p2545
aS'cute bridesmaid dresses'
p2546
aS'westin resort west weddings jhunter photography'
p2547
aS'touch tiffany blue wedding cakepelican resort'
p2548
aS'beach wedding place cards'
p2549
aS'recycle bottle centerpieces belle magazine wedding blog sophisticated bride'
p2550
aS'cute bridal shower loove pink sugar rimmed glasses'
p2551
aS'bottle holder garter bridesmaidsgenius'
p2552
aS'hahaha'
p2553
aS'perfect deep purple hydrangeas lavender roses'
p2554
aS'love purple'
p2555
aS'bridesmaid hair'
p2556
aS'bewitching purple martini vodka cranberry juice blue curacao liqueur'
p2557
aS'braided updo really need info getting ready hair boredom send'
p2558
aS'great lakes love barn wedding inspiration'
p2559
aS'barn wedding'
p2560
aS'lantern centerpieces'
p2561
aS'summer country wedding mason drinks'
p2562
aS'wedding hair'
p2563
aS'chill time ellie goulding music song'
p2564
aS'pink dahlia wedding centerpiece'
p2565
aS'blue wedding flowers'
p2566
aS'wedding favor ideas'
p2567
aS'confetti wedding invites pink'
p2568
aS'hahaha'
p2569
aS'love updo dont think even cans hairspray grace could make hair'
p2570
aS'waterfall braid'
p2571
aS'wedding hair'
p2572
aS'love raised crown'
p2573
aS'awesome'
p2574
aS'starting assistant hope good help hard find'
p2575
asS'2013_34'
p2576
(lp2577
S'stadium hard rock'
p2578
aS'note self make sure chance make cypress'
p2579
aS'another awesome wedding books enjoying rocky patel 1990 vintage long ashes stogie'
p2580
aS'louboutins'
p2581
aS'glitter heels shoes'
p2582
aS'awesome ideas garden creative ideas'
p2583
aS'classical'
p2584
aS'coollife'
p2585
aS'traje tres piezas todo must'
p2586
ag77
aS'bespoke mens suit'
p2587
aS'omar'
p2588
aS'omar'
p2589
aS'separaci\xc3\xb3n alguna dueto s\xc3\xb3lido intacto representante wisin yandel'
p2590
aS'wisin yandel'
p2591
aS'gentlemans guide shoes'
p2592
aS'redblack'
p2593
aS'rowing blazer'
p2594
aS'glorious greys'
p2595
ag77
aS'bridesmaid hairstyles long hair7'
p2596
aS'gorgeous hairstyle brides'
p2597
aS'hairstyle brides would totally grow hair'
p2598
aS'vintage skeleton bottle opener'
p2599
aS'good idea program rest inspirational quote printed napkin'
p2600
aS'\xe3\x82\xa6\xe3\x82\xa7\xe3\x83\x87\xe3\x82\xa3\xe3\x83\xb3\xe3\x82\xb0\xe3\x83\x89\xe3\x83\xac\xe3\x82\xb9\xe3\x81\xaefailily'
p2601
aS'winter wedding'
p2602
aS'alice wonderland winter wedding'
p2603
aS'ruffles'
p2604
aS'holley brent wanted laidback tropical intimate location exac'
p2605
aS'beautiful'
p2606
aS'gorgeous dress'
p2607
aS'themed wedding'
p2608
aS'advocare challenge halfway rockin gone energy ever'
p2609
aS'shoes optional'
p2610
aS'robert rios photography south florida wedding photographer destination wedding miami caroline'
p2611
aS'pierres restaurant islamorada florida travel food drink'
p2612
aS'surprise'
p2613
aS'goodness sweet'
p2614
aS'classic'
p2615
ag77
aS'lana turner'
p2616
aS'cascading chiffon'
p2617
aS'name archer leader gorgynites'
p2618
ag77
aS'blog asheville indie weddings'
p2619
aS'meltingpotlove custom wedding cake topper'
p2620
aS'westin tampa harbour island wedding bride limelight photography'
p2621
aS'engraved fashioned drink jars'
p2622
aS'freddys certified diamond store'
p2623
aS'town west hotels west beach resort reach waldorf astoria resort'
p2624
aS'1930s bathing costume'
p2625
aS'sloppy joes many year agogreat picture'
p2626
aS'discover dream make last help impeccable staff casa marina'
p2627
aS'high heels'
p2628
aS'black white wedding photo vintage'
p2629
aS'pearl decorated wedding heel'
p2630
aS'somewhere ellie rest head'
p2631
aS'gatsby glam tomorrow night elite bridal'
p2632
aS'lights lights lights'
p2633
aS'haha love wedding little kids wedding dresslook like'
p2634
aS'tiffany themed wedding candy dessert buffet'
p2635
aS'wedding d\xc3\xa9cor'
p2636
aS'embellished pleated strapless gown bridal mori bride wedding'
p2637
aS'indian wedding cake'
p2638
aS'cascadas agua azul palenque mexico'
p2639
aS'things weddings animated wedding invitation'
p2640
aS'wedluxe vancouver wedding designed upright decor'
p2641
aS'awesome wedding cake naples resort naples florida mobile sound entertainment'
p2642
aS'sneaky ways burn extra calories without extra training'
p2643
aS'amazing dress'
p2644
aS'steel drummer keys wedding bongo'
p2645
aS'baby giraffe'
p2646
aS'another wedding sunday pics past ones'
p2647
aS'cant wait back another wedding sunday pics past ones'
p2648
aS'posted photo facebook'
p2649
aS'always need ideas'
p2650
aS'little black dress bachelorette party love'
p2651
aS'check link'
p2652
aS'jump rope challenge'
p2653
asS'2013_33'
p2654
(lp2655
S'looking tonights wedding looks awesome includes party'
p2656
aS'available date'
p2657
aS'making calls making happen time like present seize moment'
p2658
aS'rhinestone shoe sticker shoes make great addition'
p2659
aS'wedding shoes'
p2660
aS'fairytale wedding gravenor gravenor gravenor gravenor jacquinot'
p2661
aS'bridal gown'
p2662
ag77
ag77
aS'cute'
p2663
aS'blue orchid centerpieces weddings mini calla lily centerpieces project wedding forums'
p2664
aS'favorite panel definitely going'
p2665
aS'love'
p2666
aS'much prettier tacky'
p2667
aS'message groom bride wedding shoe cute'
p2668
ag77
ag77
aS'wedding dress shapes come handy'
p2669
aS'bride groom shot'
p2670
aS'grandpa could actually walk aisle melts heart'
p2671
aS'candy buffet neat favor option'
p2672
aS'small wedding cake made wedding rainbow theme bottom tier initial compl'
p2673
aS'cute'
p2674
aS'christian louboutinyes please'
p2675
aS'pink sparkly heels'
p2676
aS'wedding photo checklist'
p2677
aS'cute photo idea bridal party click image find weddings pinterest pins'
p2678
aS'available date'
p2679
aS'lotsa stuff today'
p2680
aS'rocking phones desk hired personal assistant time next level hustlehard weddingdj motivated'
p2681
asS'2012_39'
p2682
(lp2683
S'unlocked century club badge checking place days'
p2684
aS'officer convicted theft tells easy agents steal belongings national news'
p2685
aS'bride first dance hubby entertainment flickr find facebook'
p2686
aS'largo outdoor wedding entertainment flickr find facebook'
p2687
aS'outdoor wedding setup beach largo entertainment flickr find facebook face'
p2688
aS'outdoor wedding setup beach largo entertainment flickr find facebook'
p2689
aS'bride groom destination wedding largo entertainment flickr find face'
p2690
aS'destination wedding largo entertainment flickr find facebook'
p2691
aS'brides beautiful flower bouquet destination wedding entertainment flickr find'
p2692
aS'beautiful wedding dress wedding largo entertainment flickr find faceboo'
p2693
aS'bride walking aisle largo wedding entertainment flickr find faceb'
p2694
aS'bride boogies guests dance floor find facebook'
p2695
aS'largo wedding aisle entertainment flickr'
p2696
aS'bride walking aisle largo wedding entertainment flickr'
p2697
aS'outdoor wedding setup beach largo entertainment flickr'
p2698
aS'bride boogies guests dance floor entertainment flickr'
p2699
aS'beautiful wedding dress wedding largo entertainment flickr'
p2700
aS'beautiful wedding dress wedding largo entertainment flickr'
p2701
aS'flower girl ring bearer largo wedding entertainment flickr'
p2702
aS'flower girl ring bearer sneek peak bride destination wedding entertainment'
p2703
aS'outdoor wedding reception largo entertainment flickr'
p2704
aS'bride shows brief smile walking aisle largo wedding entertainment'
p2705
aS'bride shows brief smile walking aisle largo wedding entertainment'
p2706
aS'brides beautiful flower bouquet destination wedding entertainment flickr'
p2707
aS'destination wedding largo entertainment flickr'
p2708
aS'bride groom altar entertainment flickr'
p2709
aS'bride groom destination wedding largo entertainment flickr'
p2710
aS'bride first dance hubby entertainment flickr'
p2711
aS'bride groom share first dance entertainment flickr'
p2712
aS'slow dancing largo wedding entertainment flickr'
p2713
aS'bride dances night away largo wedding entertainment flickr'
p2714
aS'wedding guests night dance floor destination wedding entertainment'
p2715
aS'bride wedding guest dance largo wedding entertainment flickr'
p2716
aS'bride wedding guest dance largo wedding entertainment flickr'
p2717
aS'bride wedding guest dance largo wedding entertainment flickr'
p2718
aS'largo outdoor wedding entertainment flickr'
p2719
aS'largo wedding aisle entertainment flickr'
p2720
aS'2013 wedding trends'
p2721
aS'loving microsoft headset skype'
p2722
aS'glad rock another wedding marco ocean property'
p2723
aS'congrats investment capital count coming back guys'
p2724
aS'congrats investment capital count coming back guys'
p2725
aS'weddingwire gets investment'
p2726
aS'always house'
p2727
aS'booked another halloween bash'
p2728
aS'posted photos facebook album melissa tommy'
p2729
aS'great'
p2730
aS'making phone calls ready wedding marco beach weekend'
p2731
asS'2013_31'
p2732
(lp2733
S'daily checklist'
p2734
aS'workout'
p2735
aS'muscle thought'
p2736
aS'secrets metabolism help lose weight'
p2737
aS'super burning foods'
p2738
aS'peacock flower girl'
p2739
aS'stunning back wedding dress'
p2740
aS'lovely floral backless dress weddingdress flowy'
p2741
aS'wedding'
p2742
ag77
aS'oscar renta bridal 2013 ivory chantilly leaf lace sweetheart gown cascading snowflake'
p2743
aS'little girls reactions kiss wedding'
p2744
aS'brooch bouquet weddingbouquet broochbouquet'
p2745
aS'unique wedding arch reception decorations'
p2746
aS'cake sizes servings good know'
p2747
aS'wedding cake topper'
p2748
ag77
aS'speciality cakes birthdays engagemet baptism design cakes page'
p2749
aS'wedding cake topper'
p2750
aS'doctor wedding idea'
p2751
aS'jerseys cute idea'
p2752
aS'elegant plus size bride dresses posts related plus size wedding dress 20122013 women'
p2753
aS'elegant wedding dress plus size white'
p2754
aS'thank staff absolutely awesome wedding'
p2755
aS'wouldnt shopping spree follow retweet post entered winner announced noon'
p2756
aS'great pricing love site products'
p2757
asS'2013_30'
p2758
(lp2759
S'importance family cannot words'
p2760
aS'cant wait back beautiful venue september 14th'
p2761
aS'sweet'
p2762
aS'wedding cake'
p2763
aS'wedding like cute'
p2764
aS'weddbook wedding wedding photo'
p2765
aS'bathrooms wedding'
p2766
aS'wedding long hair need picture married'
p2767
aS'beverly hills wedding southern california wedding yvette roman photography mindy weiss wedding'
p2768
aS'wedding cake wedding'
p2769
aS'wedding'
p2770
aS'wedding'
p2771
aS'updated professional profile linkedin connect view profile'
p2772
aS'easy keep house clean check wipe away'
p2773
aS'love vintage wedding photos'
p2774
aS'wedding checklist'
p2775
asS'2013_19'
p2776
(lp2777
S'check mile bridge'
p2778
aS'plan creating wedding vows heres quick guide wont want miss'
p2779
aS'beautiful flowers vera wang love jewellery launch today'
p2780
aS'grow first real laugh yourselfhave amazing adventure today'
p2781
aS'life like tenspeed bicycle gears never charles schulz'
p2782
aS'thanks sharing weddingwednesday spectacular wedding scene'
p2783
aS'anytime always pleasure'
p2784
aS'need wedding inspiration'
p2785
aS'need wedding inspiration'
p2786
aS'daughter three venues choice wedding'
p2787
aS'anytime'
p2788
aS'absolute pleasure working postcard making wedding memories last lifetime'
p2789
aS'remember teachers come southernmost beach cafe tonight show teacher entree'
p2790
aS'beautiful dayand even beautiful wedding'
p2791
aS'word describe wedding spectacular wedding scene'
p2792
aS'always pleasure'
p2793
aS'thanks sharing west wedding'
p2794
aS'double doubletree wedding miami'
p2795
aS'double doubletree wedding miami'
p2796
aS'west wedding'
p2797
aS'fabulous wedding'
p2798
aS'wedding resort west'
p2799
aS'another wonderful wedding'
p2800
aS'west stock island'
p2801
asS'2013_18'
p2802
(lp2803
S'wedding showtime resort others'
p2804
aS'gassup circle'
p2805
aS'great whites shark channel'
p2806
aS'almost mile marker'
p2807
aS'kaya island eats'
p2808
aS'park west'
p2809
aS'chillin driving west come cudjoe'
p2810
aS'cudjoe sales summerland'
p2811
aS'chug chug chug grassy'
p2812
aS'duck'
p2813
aS'long channel'
p2814
aS'stinky stinky channel bridge foursquare'
p2815
aS'long channel bridge'
p2816
aS'stupid empty layton'
p2817
aS'west bust layton'
p2818
aS'summerland wines spirits'
p2819
aS'cafe leche ride sandys cafe'
p2820
aS'ewwwwww mile bridge'
p2821
aS'wait'
p2822
aS'something horizon lookout'
p2823
asS'2012_36'
p2824
(lp2825
S'reached level mall badge checked different malls'
p2826
aS'stop kissing butt start honest american people isnt kind journalist oath'
p2827
asS'2012_37'
p2828
(lp2829
S'reached level baker\xe2\x80\x99s dozen badge checked different bakeries'
p2830
aS'lucille ball'
p2831
aS'look'
p2832
aS'could locally north photo good friend brad gertz'
p2833
aS'casa looks amazing'
p2834
aS'swankey events megan jones 1106 white street west florida 33040'
p2835
aS'uplighting entertainment'
p2836
aS'entertainment flickr'
p2837
aS'wedding reception centerpiece table setting entertainment flickr'
p2838
aS'wedding table decor entertainment flickr'
p2839
aS'cake entertainment flickr'
p2840
aS'memory table past entertainment flickr'
p2841
aS'bling detail cake cutting knife entertainment flickr'
p2842
aS'uplighting entertainment flickr'
p2843
aS'entertainment flickr'
p2844
aS'wedding cupcakes yummm entertainment flickr'
p2845
aS'posted photos facebook album dereks wedding west casa marina'
p2846
aS'ousted thea mayor chase'
p2847
aS'klout score decent check profile today'
p2848
aS'unlocked back school badge checking back campus time party study'
p2849
aS'posted photos facebook album marco beach ocean resort'
p2850
asS'2012_30'
p2851
(lp2852
S'throwback pastor chris bell rockin pulpit'
p2853
aS'potential church'
p2854
aS'beach ceremony destination wedding marco island beach resort'
p2855
aS'olympics start today country medals'
p2856
aS'marco island beach resort wedding'
p2857
aS'great idea favors beach west'
p2858
aS'west wedding reception ocean resort west florida'
p2859
aS'first dance west wedding ocean resort west florida'
p2860
aS'hamster sitting daughter cleans cage kids house'
p2861
aS'gave weddings'
p2862
aS'gave social media'
p2863
aS'gave weddings'
p2864
aS'gave social media'
p2865
aS'added influencers influences'
p2866
aS'connected account first added'
p2867
aS'gave weddings'
p2868
aS'added jocelyn cates influencers influences'
p2869
aS'gave attraction'
p2870
aS'added influencers influences'
p2871
ag77
ag77
aS'whiskey tango ladies night karaoke ladies'
p2872
aS'fast easy creamed spinach'
p2873
aS'tonight ladies night mike berrios djmc rocking karaoke inside haviken hayes plus special guest'
p2874
aS'ones wild side multicolor glitter jimmy choo peep sandals'
p2875
aS'smore'
p2876
aS'smore awesome'
p2877
aS'hand written wedding menu'
p2878
aS'6000 walk twice burns explain minor burns hospital news'
p2879
aS'firewalk twice burns tony admit even burned matter state'
p2880
aS'dirty'
p2881
aS'wold without pinterest'
p2882
asS'2012_31'
p2883
(lp2884
S'ousted mayor creative imagineering'
p2885
aS'west'
p2886
aS'true pass'
p2887
aS'paco rabanne spring 2012 heyyyyyy'
p2888
aS'islamorada time make dreams come true'
p2889
aS'thats party dancefloor jamming studio julie'
p2890
aS'dancefloor jamming studio julie entertainment'
p2891
aS'casa marina west studio julie entertainment'
p2892
aS'received call wedding weekend'
p2893
aS'sunset pier ocean resort west wedding'
p2894
aS'photography wedding planning floral design entertainm'
p2895
aS'nomination bizbash event planner year award 2011'
p2896
aS'sarah jones former bengals cheerleader says female sandusky photos video'
p2897
aS'photography wedding planning floral design entertainm'
p2898
aS'photography wedding planning floral design entertainme'
p2899
aS'photography wedding planning floral design entertainm'
p2900
aS'photography wedding planning floral design entertainm'
p2901
aS'photography wedding planning floral design entertainm'
p2902
ag77
aS'caribbean resort'
p2903
aS'cigar roller caribbean resort photography wedding planning floral design'
p2904
aS'mustaches polaroid awesome photography wedding planning floral'
p2905
aS'islamorada wedding resort photography wedding planning floral'
p2906
aS'photography wedding planning floral design'
p2907
aS'photography wedding planning floral design'
p2908
aS'photography wedding planning floral design'
p2909
aS'photography wedding planning floral design'
p2910
aS'photography wedding planning floral design'
p2911
aS'smokin hottttt'
p2912
aS'regenerate'
p2913
aS'regenerate'
p2914
aS'dont miss great event'
p2915
aS'disney knows best'
p2916
asS'2013_39'
p2917
(lp2918
S'rosemary beach wedding lauren kinsey wedding prove beach ceremony reception'
p2919
aS'tortoise tortoises turtle turtles cute animals'
p2920
aS'would showed backyard'
p2921
ag77
aS'miami hurricanes golden'
p2922
aS'cleaning iphoto wedding might pictures email'
p2923
aS'kicking within hours'
p2924
aS'rocks took care issue stayed phone everything resolved'
p2925
asS'2013_38'
p2926
(lp2927
S'please call unaswered questions 9543162149'
p2928
aS'zombie apocalypse doesnt excuse actions might thought'
p2929
aS'staircase captured bremerton washington need print wall'
p2930
aS'memorial navy navy sailors memorial service bremerton washington'
p2931
aS'fellow professionals first video preferred likes making work'
p2932
aS'first team zero wins teams suck bored fallingasleep'
p2933
aS'really like idea'
p2934
aS'starbucks client meeting boca'
p2935
aS'adding preferred likes facebook youtube'
p2936
aS'promote favorite likes page learn network'
p2937
aS'adding preferred likes facebook'
p2938
aS'checkout great wedding professionals worked west preferred likesgtgtgtgtgtgtgt'
p2939
aS'miss idaho potato 1935'
p2940
ag77
aS'route photo bycomella kurtew'
p2941
aS'social networks autoposter wordpress plugin'
p2942
aS'girls around world blog archive beautiful girls concha spain'
p2943
aS'thumbs page'
p2944
aS'like miey karaoke page'
p2945
aS'tips prepare talk presentation'
p2946
ag77
aS'great cause'
p2947
aS'lets reach 16mil people today represnt 16mil children food insecure nokidhungry working'
p2948
ag77
aS'know rotate likes onto page'
p2949
asS'2012_26'
p2950
(lp2951
S'join expand engage evaluate social networks smrocketfuel'
p2952
aS'loading west wedding today sunset pier ocean resort going rock'
p2953
aS'another great referral photographer cindy carp thank cindy looking forward working beachwedding'
p2954
aS'ousted mayor davie blvd'
p2955
aS'booked palms south beach love sobe'
p2956
aS'vote please mission small business\xe2\x84\xa0'
p2957
aS'dwyane wade needs knee surgery london olympics ouch'
p2958
aS'dwyane wade needs knee surgery london olympics'
p2959
aS'love gotta'
p2960
aS'great idea awesome'
p2961
aS'supreme court votes favor health care good'
p2962
aS'looking forward another amazing wedding next week weddingdj mobiledj destinationwedding'
p2963
aS'wedding sunset pier weekend proud recommended service ocean resort weddingdj keys'
p2964
aS'glitter glitter glitter'
p2965
aS'true'
p2966
aS'vote entertainment mission small business\xe2\x84\xa0'
p2967
aS'added video playlist song band baaja baaraat'
p2968
aS'added video playlist marjaani marjaani billu barber 1080p music'
p2969
aS'added video playlist marjani billo barber kharian mohri sharif'
p2970
aS'added video playlist jalebi full song promo double dhamaal exte'
p2971
aS'hindi wedding gonna rock next week playing sadi gali rocks'
p2972
aS'added video playlist sadi gali full song tanu weds manu kagana'
p2973
aS'added video playlist razia full song thank 2011 1080p'
p2974
aS'mission small business\xe2\x84\xa0'
p2975
aS'lookup vote entertainment mission small business\xe2\x84\xa0'
p2976
aS'tonight'
p2977
asS'2013_10'
p2978
(lp2979
S'show tracker usually free today'
p2980
aS'clocks forward tonight retweet friends theyre late church'
p2981
aS'unlocked \xe2\x80\x9cschweinshaxen\xe2\x80\x9d badge checking german restaurants mahlzeit'
p2982
asS'2013_32'
p2983
(lp2984
S'kennys west bbqinthekeys'
p2985
asS'2013_13'
p2986
(lp2987
S'ceremony planning sheet checklist everything need best wedding ever call 9543162149'
p2988
aS'selected djmc another wedding thhe beautiful sundy house cant wait'
p2989
aS'love part visit profile theknotweddingnetwork touch'
p2990
aS'need djmc services proud recommended vendor'
p2991
aS'fgcu tonight beat gators'
p2992
aS'congratulations fgcu mens basketball great game georgetown'
p2993
aS'entertainment recommended service'
p2994
aS'posted photos facebook album beautiful wedding reception marco beach ocean resort'
p2995
aS'increase online value reputation empireave stock exchange'
p2996
aS'todays brought studio julie'
p2997
aS'ncaa president mark emmert screen receiving boos fans'
p2998
aS'hold phone found amazing scramble friends'
p2999
aS'ipad filemaster usually free today'
p3000
aS'ousted michele mayor davie blvd'
p3001
aS'different ideas'
p3002
aS'ousted amanda mayor dennys latin cafe'
p3003
asS'2012_29'
p3004
(lp3005
S'coaching 16yrs needs everywhere'
p3006
aS'hmmm'
p3007
aS'ruined wedding photos'
p3008
aS'ruined wedding photos'
p3009
aS'reached level birdie badge checked different golf courses'
p3010
aS'gave marketing'
p3011
aS'added influencers influences'
p3012
aS'added influencers influences'
p3013
aS'added influencers influences'
p3014
aS'check list featuring'
p3015
aS'gave weddings'
p3016
aS'gave torres entrepreneurship'
p3017
aS'klout score decent check profile today'
p3018
aS'gave foursquare'
p3019
aS'sharing shutterfly klout perk enjoy professionally bound photo book sflyperk'
p3020
aS'long live summer going make summer memories last free photo book sflyperk'
p3021
aS'unlocked members save outdoor gear llsperk'
p3022
aS'score improved points past'
p3023
aS'might favorite life bambino mcpuppypants ever'
p3024
aS'added topics'
p3025
aS'gave business'
p3026
aS'added influencers influences'
p3027
aS'score fell point past'
p3028
aS'awesome proposal simply awesome love'
p3029
aS'entertainment lighting upgrades existing packages available'
p3030
aS'want mitt romney pick'
p3031
aS'evernote essentials available'
p3032
aS'work hard build small business president obama know says didnt'
p3033
aS'hemingway'
p3034
aS'dick morris newsmax rubio \xe2\x80\x98only choice makes sense\xe2\x80\x99'
p3035
aS'times romney made decision pick'
p3036
asS'2013_12'
p3037
(lp3038
S'vote jamie lipman bizbash readers choice awards'
p3039
aS'ousted mayor broward bikes'
p3040
asS'2012_34'
p3041
(lp3042
S'ready wedding hurricane marco beach come'
p3043
aS'florida keys'
p3044
aS'wedding donts brides grooms'
p3045
aS'lets going like'
p3046
aS'lets going like'
p3047
aS'unlocked monkey bars badge'
p3048
aS'unlocked \xe2\x80\x9ccampus explorer\xe2\x80\x9d badge checking different places campus'
p3049
aS'checking michael dorm lovin process college dorman hall'
p3050
aS'score steady'
p3051
aS'ousted gisela mayor seminole middle school'
p3052
aS'smokin redhead model colorado looking discovered hello anyon'
p3053
aS'love necklace'
p3054
asS'2013_15'
p3055
(lp3056
S'marco beach tree miami'
p3057
asS'2013_11'
p3058
(lp3059
S'help honda civic'
p3060
aS'help honda civic'
p3061
aS'2003 honda civic idle shifting issues'
p3062
aS'ousted lisa mayor seminole middle school'
p3063
aS'plantation isles fort lauderdale'
p3064
aS'house plantation'
p3065
aS'awesome concert hard rock live hollywood matchbox twenty others'
p3066
aS'crazy haired rocking outside fans entertainment flickr'
p3067
aS'weekend awesome'
p3068
aS'party live patio entertainment flickr like page'
p3069
aS'alexa johnny entertainment flickr'
p3070
aS'house music'
p3071
asS'2012_38'
p3072
(lp3073
S'signed another wedding marco beach ocean resort cant wait'
p3074
aS'like tuesday night ladies night page featuring havoc patio truly hosting ladies night'
p3075
asS'2013_14'
p3076
(lp3077
S'7year fighting brain cancer scores 69yard touchdown viral video'
p3078
aS'vote carl 2013 year'
p3079
aS'carl year bizbash vote'
p3080
aS'must 15year girl smokes control arguments independent journal review'
p3081
aS'looking screwed chrome'
p3082
aS'ousted michele mayor hess station'
p3083
as.