(dp0
S'2013_42'
p1
(lp2
S'matter good selfie good'
p3
aS'advantage super pale wear white look naked'
p4
aS'lost livelihood perceptions concocted malicious isnt reality lies'
p5
aS'good luck melissa rock'
p6
asS'2013_40'
p7
(lp8
S'probably delayed plane'
p9
aS'hope tweet wanted compliment positive attitude joyful spirit respectful kind'
p10
aS'dont listen andy money followers loyalty'
p11
aS'thanks advanced notice months enough time plan party itll really'
p12
aS'friends arent bunch tell said hello'
p13
aS'know feels family friends andor coworkers turn backs instead fighting justicetruth easywayout'
p14
aS'feel downtoearth'
p15
asS'2013_41'
p16
(lp17
S'mccrafia'
p18
aS'stay away prednisone hope feel better soon'
p19
asS'2013_46'
p20
(lp21
S'invented lazy hates refilling pepper grinder'
p22
aS'winners deal truth drphil'
p23
aS'please remember keep classy dont guests keep integrity character intact'
p24
aS'rock'
p25
aS'pretty'
p26
aS'please acknowledge spelling error yikes youre still handsome funny videos please'
p27
asS'2013_49'
p28
(lp29
S'weather word nailed informing affected winter weather'
p30
asS'2012_41'
p31
(lp32
S'happy birthday love long time'
p33
asS'2012_40'
p34
(lp35
S'please explain american people debates without rude zingers interruptions choice weakness'
p36
asS'2013_26'
p37
(lp38
S'handled bruce jenner like champ hope joke face every single night move start hair'
p39
asS'2013_21'
p40
(lp41
S'worstcarieverhad pacer used feed rope tank much'
p42
asS'2013_22'
p43
(lp44
S'great'
p45
asS'2013_29'
p46
(lp47
S'would great time select enter still feel lucky grateful'
p48
aS'thought special mustfollowallordietrying'
p49
aS'well sudden dont feel special came started following would feel better\xe2\x99\xa5'
p50
aS'symbolize\xe2\x98\x85\xe2\x96\xa0\xe2\x99\xa1\xe2\x97\x8b\xe2\x97\x8f\xe2\x99\xa5\xc2\xb0\xe2\x96\xa0\xe2\x98\x86\xc2\xb0'
p51
aS'nice followed comedy genius admired respected years well isnt special'
p52
asS'2013_5'
p53
(lp54
S'dont text sleep'
p55
asS'2013_4'
p56
(lp57
S'many tweets today miss'
p58
aS'presence powerful words moving turned around look crowd time heart pure'
p59
asS'2013_1'
p60
(lp61
S'dont forget choose hawaiian gods even goddesses'
p62
aS'need godgervais love happy year nice able chat tweets good make snow'
p63
asS'2013_3'
p64
(lp65
S'cute'
p66
aS'natural bees coconut vitamin peppermint sayiteightso'
p67
aS'saying perpetuatehappiness choice response'
p68
aS'watched talk show beginning endyou said word amazing wanna know whats amazing'
p69
asS'2014_9'
p70
(lp71
S'thought'
p72
aS'music hugs last night portland marshall still give tender hugs'
p73
asS'2013_8'
p74
(lp75
S''
p76
aS'well heaven also heaven meet pick driving'
p77
aS'often thought shared view select neat post heaven'
p78
asS'2014_12'
p79
(lp80
S'friend posts comment check anyone reads posts threatens delete people dont reply lame makesmemad'
p81
asS'2012_33'
p82
(lp83
S'birthday'
p84
asS'2012_46'
p85
(lp86
S'need mama update feeling'
p87
aS'thought youobviously haha yeah always loved quote'
p88
asS'2013_51'
p89
(lp90
S'could hand massage well'
p91
aS'clearly spend money cleaning walls'
p92
asS'2013_50'
p93
(lp94
S'father children bank goes everything means good parent matter hardships'
p95
aS'generous amount gifts give away best gift give kindness laughter thank'
p96
aS'pickmeellen good girl well mostly'
p97
asS'2013_52'
p98
(lp99
S'would carpet immediately mele kalikimaka hauoli makahiki'
p100
asS'2012_52'
p101
(lp102
S'umno doesnt'
p103
aS'share many kind words insights world thank world comfort prayers well wishes'
p104
aS'think beautiful inside thank'
p105
aS'12daysofgiveaways going keep trying thank giving another chance exiting'
p106
aS'karl genius arent tshirts congress tart available'
p107
aS'nextchapter women children still becoming heroes dont want heroes want free'
p108
asS'2012_50'
p109
(lp110
S'feel passion pain person mental instability intent kills find legal'
p111
aS'btwi sorry others make feel isnt dont care dealing'
p112
aS'pongity pingity pong'
p113
aS'pick thank'
p114
aS'nails done'
p115
aS'never vegas yetbut change please thank'
p116
aS'possible tornado wasnt come'
p117
aS'hawn bright soul miss movies'
p118
asS'2012_51'
p119
(lp120
S'power people people proud come together stand tolerate'
p121
ag76
asS'2014_1'
p122
(lp123
S'romantic'
p124
asS'2013_37'
p125
(lp126
S'hope shoulder gets younger soon drunk trooper'
p127
asS'2013_36'
p128
(lp129
S'nice shut'
p130
aS'buscemi memi memi banana fanna femi memi buscemi makebuscemisay'
p131
aS'deserve melissa'
p132
aS'every heart'
p133
aS'absolutely love'
p134
aS'thing beautiful person inside thanks info share'
p135
aS'would awesome really watch humility open vulnerability afraid share'
p136
aS'thank rock found cream compares bobbi brown less expensive'
p137
aS'still cream walgreens clarisonic working'
p138
aS'reminded dont know'
p139
asS'2013_35'
p140
(lp141
S'picture exemplifies meaning life many lose sight precious moments life slowdown'
p142
aS'followers think could handle'
p143
asS'2013_34'
p144
(lp145
S'thank'
p146
asS'2013_33'
p147
(lp148
g76
aS'happy birthday wild crazy'
p149
aS'prayer tragedies dear lord please make opposite thing really shitty thing made\xe2\x80\xa6'
p150
asS'2013_32'
p151
(lp152
S'like reminisce people dont know'
p153
asS'2013_31'
p154
(lp155
S'loved conan brilliantly funny keep harmonizing'
p156
asS'2013_30'
p157
(lp158
S'boxing bell dingding ring announcer booming voice fighter metaphor ends roundgo corner'
p159
asS'2012_34'
p160
(lp161
S'would would hang although might awkward dragging body around places'
p162
asS'2013_39'
p163
(lp164
S'recently article medicinal marijuana high helped seizures help'
p165
asS'2013_38'
p166
(lp167
S'derek takes emotional roller coaster minute laughing crying angry laughing weeeeeee'
p168
aS'itsajokeyoudopeycunt nice ring subtle might work'
p169
aS'longislandmedium happy bringing back show would honor meet hope chosen'
p170
aS'never point rude'
p171
asS'2013_10'
p172
(lp173
S'beautiful person thank letting know deserve great things come'
p174
asS'2014_22'
p175
(lp176
S'helpsomemen'
p177
aS'yesallwomen stories powerful meaningful need focus getting unstable help helpsomemen'
p178
asS'2012_38'
p179
(lp180
S'amazing watch made game exciting dont beat'
p181
as.