(dp0
S'2013_40'
p1
(lp2
S'amazing talents korean vast next level time collab'
p3
asS'2012_49'
p4
(lp5
S'jameson meets coke park ultra lounge'
p6
aS'happy bday shey sapporo grill yelp'
p7
aS'checked hour fitness yelp'
p8
aS'ambush show room tokyo rock shiiiiiiit'
p9
aS'collection gggg'
p10
aS'checked hour fitness yelp'
p11
aS'checked ihop yelp'
p12
asS'2012_48'
p13
(lp14
S'checked alonzos coffee shop yelp'
p15
aS'checked cafeteria yelp'
p16
aS'sixbang mama winner chicken dinner'
p17
aS'guys pretty awesome'
p18
aS'peace kpop'
p19
aS'love'
p20
aS'checked elixir yelp'
p21
aS'loving cartier love bracelet'
p22
aS'checked hour fitness yelp'
p23
aS'checked restaurant brewhouse yelp'
p24
aS'checked hour fitness yelp'
p25
aS'awesomeness'
p26
aS'laptop'
p27
aS'checked cisco master eyebrow designer yelp'
p28
aS'think oscars closed look online heard opened west'
p29
aS'hour fitness yelp'
p30
aS''
p31
ag31
asS'2013_45'
p32
(lp33
S'love sign using promo code first ride'
p34
asS'2012_45'
p35
(lp36
S'checked sloane squared yelp'
p37
aS'checked sahn maru korean yelp'
p38
aS'checked cisco master eyebrow designer yelp'
p39
aS'sephora yelp sephoras great even better downtown disney'
p40
aS'spirit halloween yelp priced cheap costumes make'
p41
aS'lampl hawaiian barbecue yelp probably cleanest lampl left drive greenhaven'
p42
aS'jacks urban eats yelp garlic fries sooo delish cheese pretty tast\xe2\x80\xa6'
p43
aS'quality suites yelp booked room drove bang concert'
p44
aS'heart clothing boutique yelp cute little place right amount product choose'
p45
aS'restaurant yelp delish cant believe havent beed friend knew'
p46
aS'cold stone creamery yelp honestly think place priced liking cream good'
p47
aS'notice fans incorporate name twitter instagram names weird'
p48
aS'ready'
p49
aS'finally'
p50
aS'good times next time guys watch danny mnet peace'
p51
aS'onceinalifetime meetampgreet paris'
p52
aS'great time today thank chromehearts loveamppeace'
p53
aS'today memorable cool creative people love westcoast danja'
p54
aS'chainz birthday song explicit kanye west'
p55
aS'chainz birthday song explicit kanye west'
p56
aS'illegal bright headlights'
p57
asS'2012_44'
p58
(lp59
S'chilling'
p60
aS'thanks amazing concert'
p61
aS'right next costco station stop lees sandwiches yelp'
p62
ag31
aS'happy birthday'
p63
aS'amaze amazing performance tonight cant wait guys come back'
p64
aS'concert right pink short hair'
p65
aS'bigbang honda center'
p66
aS'honda center yelp'
p67
aS'little behind schedule listening bigbang getting dressed'
p68
aS'bigbang'
p69
aS'checked manaao thai cuisine yelp'
p70
ag31
ag31
aS'seoul'
p71
aS'seoul gtgtgtgtgtgtgtgtgtgt'
p72
aS'happy halloween trick treat'
p73
aS'checked starbucks coffee yelp'
p74
aS'course know watching checkin like hawk'
p75
aS'checked mellow yelp'
p76
aS'checked hour fitness yelp'
p77
aS'think youd decided become musician'
p78
asS'2012_47'
p79
(lp80
S'theyre open today sure says closed crepeville yelp'
p81
aS'yumm crepeville yelp'
p82
aS'cant wrong'
p83
ag31
aS'late dinner joes crab shack yelp'
p84
aS'thanksgiving'
p85
aS'seoul gtgtgtgtgtgtgtgt osaka'
p86
aS'night elixir yelp'
p87
aS'come sacramento'
p88
asS'2012_46'
p89
(lp90
S'checked mahoroba japanese bakery yelp'
p91
aS'checked veres irish yelp'
p92
aS'checked firestone public house yelp'
p93
aS'checked otos marketplace yelp'
p94
aS'gtgtgtgtgtgtgtgt finally seoul'
p95
ag31
ag31
aS'peru gtgtgtgtgtgtgtgt'
p96
aS'checked starbucks coffee yelp'
p97
aS'hope great time states visit often'
p98
aS'guess likes rides'
p99
aS'times'
p100
aS'listen carefully everything comes heart music anilgupta inspiration'
p101
asS'2012_43'
p102
(lp103
S'like halloween'
p104
aS'next weekend'
p105
aS'study session starbucks coffee yelp'
p106
aS'checked cold stone creamery yelp'
p107
aS'garlic fries jacks urban eats yelp'
p108
aS'checked spirit halloween yelp'
p109
aS'checked target yelp'
p110
aS'study time starbucks coffee yelp'
p111
aS'singing rainlets malaysia'
p112
aS'rain rain awaytanning better'
p113
aS'eventually person show true colors'
p114
aS'checked hour fitness yelp'
p115
aS'nice someone appreciation'
p116
aS'reading comments andy warhol instagram post honesty people rude immature love'
p117
aS'ambush\xc2\xae collection coming soon'
p118
aS'skeleton leggings heart clothing boutique yelp'
p119
aS'sangria please paesanos'
p120
aS'early dinner paesanos yelp'
p121
aS'checked cisco master eyebrow designer yelp'
p122
aS'blood typing kick rocks moment'
p123
aS'reason know bigbang gangnam style thank youtube'
p124
aS'love music take away reality even'
p125
aS'boyz taiwan'
p126
aS'music pretty fantastic wish could friends listen'
p127
aS'next weekend'
p128
aS'vote bigbang gdragon 2012 mama bigbang gdragon nominated 2012 mnet asian music awards'
p129
aS'rain rain away need'
p130
aS'miss vegas'
p131
aS'dancing'
p132
aS'awhile missed hour fitness yelp'
p133
aS'study time starbucks coffee yelp'
p134
aS'start line clothing would pretty awesome hopefully available'
p135
aS'totally clever things'
p136
aS'pretty cute'
p137
aS'mexican girl neon dont forget would love meet'
p138
aS'gdragon1021sbs inkigayocrayon copyright\xe2\x93\x922012 contents coltd entertainment'
p139
aS'dont speak korean love music'
p140
aS'running clever things'
p141
aS'dont forget mexican girl neon concert would live meet'
p142
asS'2012_42'
p143
(lp144
S'taken century theaters downtown plaza yelp'
p145
aS'mmmmm viet yelp'
p146
aS'girl neon concert keep look'
p147
aS'checked restaurant yelp'
p148
aS'hanging elixir yelp'
p149
aS'happy birthday cousin'
p150
aS'short hair think near future'
p151
ag31
ag31
asS'2013_24'
p152
(lp153
S'checked hour fitness yelp'
p154
aS'checked hour fitness yelp'
p155
aS'20min getting water thumbs restaurant brewhouse yelp'
p156
aS'late dinner thanks restaurant brewhouse'
p157
aS'tried make every excuse skip hour fitness'
p158
asS'2013_25'
p159
(lp160
S'better late never firestone public house yelp'
p161
aS'checked hour fitness yelp'
p162
asS'2013_26'
p163
(lp164
S'breakfast alonzos coffee shop yelp'
p165
aS'idea keep coming back restaurant brewhouse'
p166
asS'2013_27'
p167
(lp168
S'bear pancakes black bear diner yelp'
p169
aS'despicable kiddo regal cinema natomas marketplace'
p170
aS'spending night working target'
p171
asS'2013_20'
p172
(lp173
S'typical sunday costco'
p174
aS'checked florez grill yelp'
p175
aS'maybe weekend youre welcome'
p176
asS'2013_21'
p177
(lp178
S'delish vallejos restaurant yelp'
p179
aS'crazy work today remote thurs'
p180
aS'xavier special friends today cabrillo john elementary school yelp'
p181
aS'iron century sacramento greenback yelp'
p182
aS'first back since busted ankle hour fitness'
p183
asS'2013_22'
p184
(lp185
S'cream social belle cooledge library'
p186
aS'fast regal cinema natomas marketplace yelp'
p187
aS'petra greek'
p188
aS'super friendly quick quack wash yelp'
p189
aS'pearl needs major washing quick quack wash yelp'
p190
asS'2013_23'
p191
(lp192
S'checked round table pizza yelp'
p193
aS'checked european center yelp'
p194
aS'ipad referring enrique markham orthodontics yelp'
p195
aS'ricks dessert diner yelp'
p196
aS'dinner time sushi'
p197
aS'happy starting love tuesdays ella dining room'
p198
asS'2013_28'
p199
(lp200
S'checked yelps hottie piatti yelp'
p201
aS'yelp event thanks invite latda piatti ristorante yelp'
p202
aS'checked hour fitness yelp'
p203
aS'checked hour fitness yelp'
p204
aS'excuses hour fitness yelp'
p205
asS'2013_5'
p206
(lp207
S'checked buffalo wild wings yelp'
p208
aS'saturday funday office yelp'
p209
aS'much needed latda time florez grill yelp'
p210
aS'checked hour fitness yelp'
p211
aS'coming soon'
p212
asS'2013_4'
p213
(lp214
S'life hour fitness yelp'
p215
aS'hour fitness yelp'
p216
aS'checked hour fitness yelp'
p217
aS'checked hour fitness yelp'
p218
asS'2013_7'
p219
(lp220
S'date taros mikuni yelp'
p221
aS'checked hour fitness yelp'
p222
asS'2013_6'
p223
(lp224
S'yummer paesanos yelp'
p225
aS'love saturdays hour fitness yelp'
p226
aS'checked hour fitness yelp'
p227
aS'todays markham orthodontics yelp'
p228
aS'checked shoki ramen house yelp'
p229
aS'checked hour fitness yelp'
p230
asS'2013_1'
p231
(lp232
S'checked raleys supermarket drug center yelp'
p233
aS'checked target yelp'
p234
aS'yummers viet yelp'
p235
aS'checked uncle vitos slice yelp'
p236
aS'even though raining simons cafe yelp'
p237
aS'lunch good friends cafe bernardo yelp'
p238
aS'hello 2013 hour fitness yelp'
p239
aS'checked cisco master eyebrow designer yelp'
p240
aS'happy year rivage hotel yelp'
p241
aS'movie night gets started regal cinema natomas marketplace yelp'
p242
aS'dinner since work tomorrow morning burgers brew yelp'
p243
aS'last years resolution rush hour fitness'
p244
aS'tattoo concealer concealing sephora yelp'
p245
aS'checked sephora yelp'
p246
asS'2013_3'
p247
(lp248
S'checked white orchid salon yelp'
p249
aS'checked hour fitness yelp'
p250
aS'hour fitness yelp'
p251
aS'checked paesanos yelp'
p252
aS'working song internat right'
p253
aS'checked hour fitness yelp'
p254
aS'checked hour fitness yelp'
p255
aS'calm storm markham orthodontics yelp'
p256
asS'2013_2'
p257
(lp258
S'gdragon 2013 world tour originally posted'
p259
aS'katrina mellow yelp'
p260
aS'checked hour fitness yelp'
p261
asS'2013_9'
p262
(lp263
S'love saturdays hour fitness yelp'
p264
aS'checked hour fitness yelp'
p265
aS'checked hour fitness yelp'
p266
aS'turn weeks hour fitness yelp'
p267
asS'2013_8'
p268
(lp269
S'forgot eggs last night store black bear diner yelp'
p270
aS'happy bday sleezy sushi yelp'
p271
aS'checked yelp'
p272
asS'2011_4'
p273
(lp274
S'could panera atmosphere starbucks coffee studying kick rocks'
p275
aS'blackberry hate'
p276
asS'2011_26'
p277
(lp278
S'going start since facebook sucks'
p279
asS'2010_28'
p280
(lp281
S'inception'
p282
asS'2010_25'
p283
(lp284
S'dirty bitches'
p285
aS'line grown movie better good'
p286
aS'schoolblah blah blah'
p287
aS'beautiful stroll'
p288
asS'2010_24'
p289
(lp290
S'boondock saints'
p291
aS'safe take lots pictures'
p292
aS'crawdad festival today maybe'
p293
aS'like clock work'
p294
aS'babes sleepingnow catch shows'
p295
aS'home movie gonna tonight'
p296
aS'burger king dinner fams'
p297
aS'friday'
p298
aS'kelly housewives needs loony'
p299
aS'cabin fever'
p300
asS'2010_27'
p301
(lp302
S'grandmas watching babes shopping movie time team edward'
p303
asS'2011_44'
p304
(lp305
S'dress short'
p306
asS'2011_45'
p307
(lp308
S'hahaha'
p309
asS'2011_41'
p310
(lp311
S'clean'
p312
asS'2011_42'
p313
(lp314
g31
aS'dont scared well home little'
p315
asS'2011_43'
p316
(lp317
S'ugggh studying home soon xoxo'
p318
asS'2012_52'
p319
(lp320
S'blue yelp'
p321
aS'checked chevys fresh yelp'
p322
aS'checked hour fitness yelp'
p323
aS'checked hour fitness yelp'
p324
aS'need years resolution people take place hour fitness yelp'
p325
aS'forgot give cash back supermarkets yelp'
p326
aS'merry xmas hope santa brings everything want'
p327
aS'winner greatest song 2012 is\xe2\x80\xa6\xe2\x80\x9ccrayon\xe2\x80\x9d gdragon'
p328
asS'2012_50'
p329
(lp330
S'said thing breaks heart'
p331
aS'happy belated bday december babies best'
p332
aS'korean rapper gdragon talks kpop hype past scandals isnt only\xe2\x80\x94or even'
p333
aS'\xeb\xb9\x85\xeb\xb1\x85bigbang \xed\x81\xac\xeb\xa0\x88\xec\x9a\xa9crayon \xeb\xb2\xa0\xec\x9d\xb4\xeb\xb9\x84fantastic baby mama 2012'
p334
asS'2012_51'
p335
(lp336
S'last time arden fair mall yelp'
p337
aS'haircut xavier sweet salon yelp'
p338
aS'checked arden fair mall yelp'
p339
aS'holiday lunch cheesecake factory yelp'
p340
aS'checked outback steakhouse yelp'
p341
aS'madness begin arden fair mall yelp'
p342
aS'nice lipstick'
p343
aS'team photo'
p344
aS'hairstylist told today pantene shampooconditioner used used carpet cleaner made plastic'
p345
aS'totally believe'
p346
aS'checked kicos mexican food yelp'
p347
asS'2011_48'
p348
(lp349
S'love love love'
p350
asS'2013_11'
p351
(lp352
S'crowded pattys streets london yelp'
p353
aS'checked streets london yelp'
p354
aS'pizza beer luigis slice yelp'
p355
aS'cheese sandwich johnny rockets restaurant yelp'
p356
aS'breakfast lunch black bear diner yelp'
p357
aS'checked hour fitness yelp'
p358
aS'checked hour fitness yelp'
p359
asS'2013_10'
p360
(lp361
S'viet yelp'
p362
aS'jeff garcia punchline sacramento yelp'
p363
aS'checked applebees neighborhood grill yelp'
p364
aS'checked california pizza kitchen yelp'
p365
aS'checked hour fitness yelp'
p366
aS'duchess black bear diner yelp'
p367
aS'checked ernestos mexican food yelp'
p368
aS'gabba gabba sacramento memorial auditorium yelp'
p369
asS'2013_13'
p370
(lp371
S'mahoroba japanese bakery yelp'
p372
aS'checked dollar tree yelp'
p373
aS'getting time markham orthodontics yelp'
p374
asS'2013_12'
p375
(lp376
S'mmmmm novillero yelp'
p377
aS'trains california state railroad museum yelp'
p378
asS'2013_15'
p379
(lp380
S'checked zocalo yelp'
p381
aS'checked hour fitness yelp'
p382
asS'2013_14'
p383
(lp384
S'checked round table pizza yelp'
p385
aS'great hour fitness yelp'
p386
asS'2013_17'
p387
(lp388
S'sallys saltys saltys famous fishwich yelp'
p389
aS'really hands best fish sandwich saltys famous fishwich yelp'
p390
aS'checked hour fitness yelp'
p391
asS'2013_16'
p392
(lp393
S'lunch moms kicos mexican food'
p394
aS'snowcone babes osaka yelp'
p395
aS'hanging babes fairytale town'
p396
aS'checked hour fitness yelp'
p397
aS'first without preworkout supplement hour fitness'
p398
asS'2013_19'
p399
(lp400
S'happy moms cafe bernardo yelp'
p401
aS'checked restaurant brewhouse yelp'
p402
aS'yummy black bear diner yelp'
p403
asS'2013_18'
p404
(lp405
S'loves play games golfland sunsplash yelp'
p406
aS'checked paul martin yelp'
p407
aS'happy scotts seafood river yelp'
p408
aS'happy dinner scotts seafood river yelp'
p409
aS'happy birthday westin sacramento yelp'
p410
aS'lunch birthday paesanos'
p411
aS'first time guests brazilians european center yelp'
p412
aS'giving place shot european center yelp'
p413
aS'xavier good didnt even shot jamba juice yelp'
p414
asS'2010_52'
p415
(lp416
S'couldnt make midnight'
p417
asS'2013_35'
p418
(lp419
S'lets lobster yelp'
p420
aS'panchos cocina mexicana grill yelp mexican restaurant chill casual place everyo\xe2\x80\xa6'
p421
asS'2011_33'
p422
(lp423
S'good'
p424
asS'2013_33'
p425
(lp426
S'search candy continues zeptolabs stories stay tuned noms next adventurehgfrdff'
p427
asS'2010_30'
p428
(lp429
S'happy friday'
p430
asS'2010_37'
p431
(lp432
S'loves blackberry user long iphone made want switch'
p433
as.