(dp0
S'2012_29'
p1
(lp2
S'toilet toilet paper nothing toilets dont talk'
p3
aS'trex duck common theyre lamp'
p4
aS'mammas doctor directed develop healthy eating habits proper diet exercise daily'
p5
aS'whats worse finding worm apple raped giant scorpion'
p6
aS'tree friend common fall multiple times'
p7
aS'diagnosed clinical depression yesterday made'
p8
aS'plane crash pilot loaf bread'
p9
aS'stop black person drowning throw'
p10
aS'want joke wnba'
p11
aS'krusty krab patrick'
p12
aS'make plumber kill family'
p13
aS'duck walks bartender sayswhatll duck doesnt anything duck'
p14
aS'drop cream'
p15
aS'confuse blonde paint green throw forks'
p16
aS'irish walks'
p17
aS'roses violets blue'
p18
aS'whats difference duck oranges trees dont doors'
p19
aS'whats difference plum small bunny purple except bunny'
p20
aS'18215 doodlejump beat'
p21
asS'2012_28'
p22
(lp23
S'good question'
p24
aS'retweet elbow cheating'
p25
asS'2012_27'
p26
(lp27
S'wrong'
p28
asS'2012_26'
p29
(lp30
S'01212'
p31
asS'2012_24'
p32
(lp33
S'going drake nikon jones beach theater york'
p34
asS'2012_30'
p35
(lp36
S'cant stephen hawking dance white'
p37
asS'2012_21'
p38
(lp39
S'thats many'
p40
aS'fail'
p41
as.