(dp0
S'2014_43'
p1
(lp2
S'makers tonight flyingsolo blacksburg taphouse'
p3
aS'manhattan saturday turndownforwhat'
p4
aS'making ends meet survivaljob'
p5
aS'going great friday lotr turndownforwhat'
p6
aS'hong kong deserves better iranstyle elections tycoons pick slate'
p7
aS'trying ride roller coaster'
p8
aS'dreary district ebenezers coffeehouse'
p9
aS'aziz ansari dons chicken suit appearance \xe2\x80\x9csesame street\xe2\x80\x9d'
p10
aS'threat lethal isis iraq matters podcast winteriscoming complicate tuesday'
p11
aS'starving refugees make good advertising classy jimmyjohns iraq'
p12
aS'watching thefaultinourstars pizza cider sans tissues'
p13
aS'lifes party rock body marceltheshellwithshoeson'
p14
aS'washington\xe2\x80\x94not dc\xe2\x80\x94named \xe2\x80\x9cbest travel\xe2\x80\x9d lonely planet magazine'
p15
aS'equal parts sweetheart smart'
p16
aS'changing name much marriedlife killmenow'
p17
aS'that\xe2\x80\x99ll restore faith john krasinski'
p18
aS'nicole kidman reactions perfectly life'
p19
aS'bridesmaids cantstopshouldstop'
p20
aS'love brother mrandmrsbenr'
p21
aS'cant believe weeks today mrandmrsbenr marriedlife'
p22
asS'2014_42'
p23
(lp24
S'always looking killer dont away americanhorrorstoryfreakshow'
p25
aS'theres much clown americanhorrorstoryfreakshow'
p26
aS'ready dalmatians remake jessicalange cruella americanhorrorstoryfreakshow'
p27
aS'everybody calm'
p28
aS'scared watch'
p29
aS'free time tonight americanhorrorstoryfreakshow faultinourstars'
p30
aS'postconflict development efforts afghanistan quietly unraveling read'
p31
aS'designed election monitoring analysis productive onlyatgw'
p32
aS'learning tech manage humanitarian responses'
p33
aS'insecurity bores'
p34
aS'first thought tweeted makes sense'
p35
aS'hanging today learn tech respond intl crises conflicts humanitarian'
p36
aS'castle rock craig peterson'
p37
aS'brunch always good decision treatyoself tonic quigley\xe2\x80\x99s restaurant'
p38
aS'weekend classes call brunch flyingsolo treatyoselfday'
p39
aS'insane fall cocktail served entire delicata squash'
p40
aS'would call wont answer phone overheard time'
p41
aS'posted photos facebook album first look sarah'
p42
aS'favorite little people mrandmrsbenr'
p43
aS'daily commute survive iraq'
p44
aS'preach scarier ebola'
p45
aS'malala help defeat islamic stateempowering women stemming tide extremism worldwide'
p46
aS'halloween decorations'
p47
asS'2014_41'
p48
(lp49
S'asking someone favorite lordoftherings movie like asking mother favorite child'
p50
aS'ways tell funnier jokes'
p51
aS'finally headed back husband weird'
p52
aS'houston radio station playing beyonc\xc3\xa9 isnt quite crazy sounds'
p53
aS'sometime four hour commute'
p54
aS'could watch together tomorrow long distance'
p55
aS'would help could find somewhere stream'
p56
aS'hopefully leftover wedding cake make watching americanhorrorstory without less heartbreaking missingmysupreme'
p57
aS'happy back school\xe2\x80\x9d nooran displaced school childrenofsyria'
p58
aS'eiffel tower getting glass floor'
p59
aS'know live people standing left side escalator makes feel violent metrorage'
p60
aS'great photo nice sunrise onlyatgw'
p61
aS'colorful world hong kongs protest'
p62
aS'thanks photo amazing mrandmrsbenr'
p63
aS'thanks taking beautiful pictures weekend mrandmrsbenr'
p64
aS'weddingd hard weekend'
p65
aS'exhausted wedding festivitiesand rebooting twitter'
p66
asS'2014_44'
p67
(lp68
S'miss like'
p69
aS'never forget buddy'
p70
aS'sometimes sexy halloween much work heisenberg walterwhite breakingbad'
p71
aS'yobitch breakingbad walterwhite heisenberg halloween'
p72
aS'stay territory heisenberg breakingbad walterwhite happyhalloween'
p73
aS'cause aint halloween like greeley halloween'
p74
aS'work literally dressed'
p75
aS'feel actually kind depressing'
p76
aS'dude gonna need prosthetic rocketraccoon guardiansofthegalaxy halloween'
p77
aS'tellin like gradschoolproblems broke'
p78
aS'check article mideast paper'
p79
aS'weird starting enjoy international finance onlyatgw'
p80
aS'happy nationalcatday halloween mycathatesme'
p81
aS'strange spooky history ouija board'
p82
aS'best theater venues kennedy center capitol hill arts workshop'
p83
aS'russia grumpy irascible secondrate power onlyatgw shotsfired'
p84
aS'gendry know shouldnt insult people bigger arya wouldnt insult anyon\xe2\x80\xa6'
p85
aS'long obnoxious wedding hair'
p86
aS'video grants adorable crying toddlers wish meet george washington'
p87
aS'todays tweet cats kind phoebe smellycat'
p88
aS'vogue catsofinstagram'
p89
as.