(dp0
S'2013_28'
p1
(lp2
S'bones come outits finally working'
p3
aS'like touch stand'
p4
aS'fucking'
p5
aS'disscusting'
p6
aS'thighs fucking discussing'
p7
aS'whilst people would call eating would call binging'
p8
aS'dont even size bottom woooooooo'
p9
aS'burden everyone'
p10
aS'sinking enough drown felt getting deeper deeper pulled'
p11
aS'actually likes'
p12
aS''
p13
aS'ahead barchicken salad sandwichcouple slices cucumberand oreos fuck sake'
p14
aS'rather small cute boobs huge ones dont understand like'
p15
aS'skip dinner thinner'
p16
aS'hungry weigh yourselfare still hungry'
p17
aS'swear blog food never talking'
p18
aS'fasting starts today'
p19
aS'retweet hate looking mirror'
p20
aS'binge purge starve fails repeat thats keep'
p21
aS'always girls love mostboys never'
p22
aS'feel sick look mirror'
p23
aS'today diagnosed clinical depression'
p24
ag13
aS'hipbones starting come throughyay fasting'
p25
aS'perfect legs'
p26
ag13
aS'urgh'
p27
aS'today oreo dairy milka chicken salad whole grapespurge time'
p28
aS'fattynice legs\xf0\x9f\x98\x9e'
p29
aS'fucking ewlook'
p30
aS'fuck sake'
p31
aS'binged much today'
p32
asS'2013_31'
p33
(lp34
g13
aS'skinny legs ginormous'
p35
as.