(dp0
S'2013_42'
p1
(lp2
S'love tiffany turquoise youre painting'
p3
aS'thought laws nature laws created enough said'
p4
aS'autumn started packing movies move suburban woohoo'
p5
aS'getting stuff together woohoo moving'
p6
aS'waiting pacific heat'
p7
aS'heat yeah'
p8
aS'dinner badger husband movie time family blessed'
p9
aS'private carnival bedford hills people want text'
p10
aS'getting ready family bedford carnival'
p11
aS'pacific family night'
p12
aS'even babies liked burritos tacos'
p13
aS'stalking cousins gonna play capture flag nerd guns'
p14
aS'taco moroccan music night'
p15
aS'natural cures medicine lives without money'
p16
aS'pesto potatoes'
p17
aS'miss cathy came love cathy tues'
p18
aS'dont even know sitting enjoying coffee dont peoples think play'
p19
aS'totally wish could move canada'
p20
aS'waiting business meeting begin always early better late'
p21
aS'kidz chinese night honeybuns woohoo bring'
p22
aS'thank lovely family'
p23
aS'pizza inhaled left right'
p24
aS'gonna pizza feast tonight'
p25
aS'bedtime'
p26
aS'lemon garlic rice shrimp love cooking apparently family'
p27
aS'brownies'
p28
aS'thats heath bars converted crumbly topping'
p29
aS'lemon rice shrimp brownies heath cookie crumbs desert'
p30
aS'little ones love funniest pets videos'
p31
aS'aint sunshine youre gone songs stuck head days would great knew words'
p32
aS'waiting childrens'
p33
aS'bank closed columbus figure happy birthday dear wonderful brian'
p34
aS'long live queen'
p35
aS'monday everyones working school house peaceful going lunch school kidz today'
p36
asS'2013_43'
p37
(lp38
S'giraffes need friends alcoholic animals'
p39
aS'share pink football game friday nelson honor missing teen alexismurphy family wear pink'
p40
aS'learning cook indian food gauri sweetest friend ever loves life'
p41
aS'loves legos'
p42
aS'love'
p43
aS'happy brooke meet brother mason today shame mama cant know'
p44
aS'proud career divorce final days great girl'
p45
aS'coming soon autumns divorce final tuesday woohoo'
p46
aS'sorry sinus infection probiotics hope better quickly dear'
p47
aS'everyone piled room watching samari cartoon swished'
p48
aS''
p49
aS'autumn dressed going catherine bitten twice babe'
p50
aS'putting groceries away wheres maid need'
p51
aS'dont know anyone likes crunchy peanut butter yuck personally love creamy sunflower creamy today'
p52
aS'saturday rocked week happy days'
p53
aS'sweet dreams'
p54
aS'looking cant wait thanksgiving also birthday celebrating'
p55
aS'making pumpkin'
p56
aS'long time hibernate winter'
p57
aS'wont open link'
p58
aS'facebooks twitter 1family 2friends twitters'
p59
aS'mmmmm favorite'
p60
aS'kidz great week trouble'
p61
ag49
aS'check lost mail frustrating life happens'
p62
aS'helping shiloh reseme'
p63
aS'sick pushing'
p64
aS'nice today warm cozy'
p65
aS'mist schools keeping kidz home tues since virus strong kidz poisoned dumb parents'
p66
aS'sinus infection paint'
p67
aS'great afternoon'
p68
aS'people'
p69
aS'praises bedtime tonight woohoo kidz need shut'
p70
aS'calling people villa express tomorrow sell pizza share retweet spread word'
p71
aS'kids watching harry potter glad settled home work'
p72
aS'setting reward system know everyones excited causing chaos weeks'
p73
aS'came home fighting moses perfect today proud special hugs kisses'
p74
aS'half done laundry'
p75
aS'laundry think'
p76
asS'2013_40'
p77
(lp78
S'beauty sunday morning thank would barryobama'
p79
aS'hate people'
p80
aS'amazing blessings thank'
p81
aS'sweet dreams people earth'
p82
aS'love'
p83
aS'hope youre well'
p84
aS'cleaning feels good love throwing crap'
p85
aS'youre funny'
p86
aS'caught sunshine watching food outside like know youre'
p87
aS'updated iphone everything looks cartoonish'
p88
aS'tuesday burg'
p89
aS'going organic wonderful havent needed deodorant awesome since causes bcancer'
p90
aS'need security code email smsh'
p91
ag49
aS'woohoo monday back school could rest today'
p92
aS'love'
p93
aS'horse true grit'
p94
asS'2013_41'
p95
(lp96
S'time little ones lovey time'
p97
ag49
aS'wants'
p98
aS'wants'
p99
aS'love'
p100
ag49
ag49
ag49
aS'riding wheeler moses shooting water brooke eating shiloh gaming autumn work carl ebay resting'
p101
aS'autumn finished hospital private office woohoo'
p102
aS'make wise choices'
p103
aS'shiloh high functioning autism proud shiloh'
p104
aS'proud shiloh'
p105
aS'shiloh level martial actual lethal weapon cool'
p106
aS'love ebay picks'
p107
aS'getting shiloh case samsung'
p108
aS'cant stand people dont confront talk thru things cowards'
p109
aS'clean'
p110
aS'coffee awesome'
p111
aS'brandon mind wherever know youre safe cause keep prayers happy live peace'
p112
aS'330am cant sleep prayed kidz nephews nieces sleep please'
p113
aS'believe arent line love fashion mine'
p114
ag49
aS'time american horror story'
p115
aS'sleepy'
p116
aS'march monsanto wish lynchburg'
p117
aS'watching raising hope season family'
p118
aS'saturday daddy makes breakfast woohoo'
p119
aS'grateful lovely family home'
p120
aS'love friends pannells best friends ever amazing earth people bless abundantly'
p121
aS'wish people positive outlooks people need come space downers'
p122
aS'cleaning brains time rest'
p123
asS'2013_46'
p124
(lp125
g49
aS'good night friends'
p126
ag49
aS'organic always love'
p127
ag49
aS'carl working crystal christmas centerpiece love'
p128
aS'glad friends'
p129
aS'organic eggs veggiecheese tomatoes purple onions garlic salt adobe irish butterd bread'
p130
aS'shout husband carl amazing'
p131
aS'brookie'
p132
aS'fantasy world'
p133
ag49
aS'organic rosemary pizza love cooking healthy family thee best family'
p134
aS'sunshine cold wintry morning usually outside today napping warm toasty'
p135
aS'yesterday autumn turned 26yr'
p136
aS'moses joseph running thru shiloh'
p137
aS'madison rising star spangled banner'
p138
aS'home made organic lentil potato veggie soup butter bread'
p139
aS'bronchitis'
p140
aS'veterans thankyou'
p141
asS'2013_47'
p142
(lp143
S'vawx cold blast arctic wintry early savor mild'
p144
aS'true grateful husband children handful lifelong friends'
p145
aS'yard sale rental home 5084 boonsboro money goes towards adopting'
p146
aS'sidewalk rental looks good honeybuns'
p147
aS'carl made sidewalk landscaping grading jarrit helper'
p148
ag49
ag49
ag49
ag49
ag49
ag49
ag49
ag49
aS'sick pneumonia feeling much better almost'
p149
ag49
ag49
ag49
aS'writing robby grams biological'
p150
aS'port hole jupiter earth beautiful'
p151
ag49
aS'lesson self live everything kindness peace keep mind strong protect heart control emotions laugh'
p152
ag49
ag49
aS'treats like lady true'
p153
ag49
aS'many issues time cruel today fist kind words'
p154
aS'sick come break'
p155
ag49
ag49
ag49
ag49
aS'dinner time kids want sunflower butter home made apple butter please'
p156
aS'shilohs phsycologi list growing glad corey help'
p157
aS'shiloh slow sheez'
p158
aS'oldest mind miss baby'
p159
aS'woke missing grandmother miss much'
p160
aS'liberty university says emergency services officer attacked male student women dorm student shot killed office\xe2\x80\xa6'
p161
aS'liberty student murdered today'
p162
aS'sunshine watching daddy'
p163
ag49
aS'finished love crystal tree'
p164
aS'\xf0\x9f\x98\x98family begging organic pasta woohoo'
p165
asS'2013_44'
p166
(lp167
g49
ag49
aS'shiloh asking moses math quizzes love boys'
p168
aS'happy foot propped watching goonies snacking'
p169
ag49
aS'daddy feeding sunshine'
p170
aS'goonies family time favorite'
p171
aS'motto'
p172
ag49
ag49
ag49
ag49
ag49
ag49
aS'suppose post something people know belong easter star grandmother sisters legendary'
p173
aS'happy days saturday rolling week clan'
p174
ag49
aS'bring queen'
p175
aS'official family thinks humpty dumpty creepy gonna smash humpty dumpty party'
p176
aS'riding wheeler moses brooke hiding seek shiloh gaming autumn going town carls child duty'
p177
aS'food stamps people really need needs drug testing parental classes birth controlsterilized bums'
p178
aS'hauling kidz town last night smells sweaty kids clean time'
p179
ag49
aS'almighty thank carl half missing 35yr life blessing'
p180
aS'shiloh wildman sunshine'
p181
aS'samhain bonfire'
p182
aS'love doggy'
p183
ag49
aS'beautiful children inside truly blessed woman'
p184
aS'zombie'
p185
ag49
ag49
ag49
aS'godess shannon giggles'
p186
ag49
ag49
aS'brooke moses'
p187
aS'brookie'
p188
aS'sticky eyeballs eyeballs stick throw boys lovem leave marks think thats whats ceiling'
p189
aS'bizzar lights ceiling'
p190
aS'felt grandmother today brought tears amazing person ever'
p191
aS'ready samhain feast'
p192
ag49
ag49
ag49
ag49
aS'happy samhain woohoo'
p193
aS'love horse wishes'
p194
aS'wishes horses would ride ride ride'
p195
aS'believe magic'
p196
aS'hate paying bills first month 3000 need sell couple houses getting enough rent anymore'
p197
aS'riding wheeler back moses coming back'
p198
aS'explaining stunt mishap daddy'
p199
aS'went well today'
p200
aS'going counsel lady hope calm'
p201
aS'decided sell motor home 30ft infinity never friggin real'
p202
aS'sitting front antique cool love minivan haul around'
p203
aS'growing wrong family didnt stop finally made husband best ever'
p204
aS'love family much amazing'
p205
aS'shiloh wildman 18yr sons legal name proud mama also hour legally single'
p206
aS'life good greatest love family nature love nature'
p207
aS'clear autumns divorce mine 10yr going strong'
p208
aS'divorce final today woohoo'
p209
aS'nothing like sleeping children matter young love watching peaceful'
p210
aS'embarrassed rock rescue'
p211
aS'spaghetti mamas brownies desert cant wait come carl autumn home'
p212
ag49
aS'tomorrow autumns uncontested long wait divorce woohoo friday place loving career office proud mama'
p213
aS'loving morning loving'
p214
aS'morning livings best thats'
p215
asS'2013_45'
p216
(lp217
S'joseph'
p218
aS'beautiful sunshine'
p219
aS'gonna take home made organic spaghetti plant good forgot yummy'
p220
ag49
aS'sleeping princess'
p221
aS'brookie fell asleep granddaddy watching movie'
p222
aS'brookie fell asleep granddaddy watching movie'
p223
ag49
aS'need'
p224
ag49
aS'dances chairs plays music stops freeze'
p225
ag49
ag49
ag49
ag49
aS'sweet wonderful brooke antique baby grand piano love play'
p226
ag49
ag49
aS'placement'
p227
ag49
aS'oops heres forgot chipped green yellowamp orange peppers also'
p228
aS'mamasita delight words beans rice refried beans coconut mango pineapple tequila specialty'
p229
ag49
ag49
aS'waiting cable grrrr'
p230
aS'time keeps slipping away asset mother earth parasite'
p231
aS'organic body needs rest trash'
p232
aS'questions'
p233
ag49
ag49
aS'moses loves bumblebee transformer'
p234
aS'chilling sunshine'
p235
aS'another school'
p236
aS'loving every minute'
p237
aS'love melissa mccarthy sandra bullock'
p238
ag49
ag49
aS'love nature peace'
p239
aS'solar eclipse'
p240
ag49
asS'2012_48'
p241
(lp242
S'knows twitter nice peaceful compared'
p243
asS'2013_5'
p244
(lp245
S'walk'
p246
aS'ravens'
p247
aS'titanium'
p248
aS'stalker alert stalker alert'
p249
ag49
aS'help daughter following'
p250
aS'june 2012'
p251
aS'brooke'
p252
aS'shiloh tickle attack 2006'
p253
aS'favs'
p254
aS'songify cant every song loving cats'
p255
aS'totally dont good stupid people common sense really survive'
p256
aS'sick always worried offending hurting someones feelings'
p257
aS'bibleman made torahman made naturegod made hate religion love'
p258
aS'vinnys mind know heaven watching along grandmom aunts uncles'
p259
aS'date night honeybun'
p260
aS'ever someone talking imagine smacking'
p261
aS'awkward moment someones talking think clue even talking'
p262
aS'tweet'
p263
aS'glad dont alot people like vent without worry offending people'
p264
aS'proud owner antique harleys woohoo gods good yall'
p265
aS'seriously people really need drive like fossilized tampon stuck butt seriously'
p266
aS'brandon troy wherever head know thoughts prayers always forever heart'
p267
ag49
ag49
aS'ticket smoking kids maybe'
p268
ag49
asS'2013_4'
p269
(lp270
S'volunteer project cuddles safe house abandoned babies around 15yr'
p271
aS'collectors lair burning repeat 20yr carl front helping'
p272
aS'cold cold away dont come back'
p273
asS'2013_7'
p274
(lp275
S'carl love life ever live without'
p276
aS'autumn good help keeping laundry people going brookies princess loves tease'
p277
aS'love creative makes things time moses loving kind jock shiloh kick clean hearted'
p278
aS'bubbys good'
p279
aS'sissy 43yr today best sissy world'
p280
aS'taking applications date daughter must normal'
p281
aS'want giant stamps stamp peoples foreheads stupid clueless beware'
p282
aS'want giant stamps stamp people forehead stupid retard beware'
p283
aS'everyone church dont love nature created dont animals going church'
p284
aS'twitter outlet since many boring'
p285
asS'2013_6'
p286
(lp287
S'spose tomorrow dont wanna guess'
p288
aS'might need another operation'
p289
aS'bored iphone'
p290
aS'almost died night brother robbys wisdom prayers bound intestine guess need make willtrust carl'
p291
aS'made 2300 week woohoo'
p292
aS'switch good love movie'
p293
aS'watching games carl'
p294
aS'life wisdom simple obey laws nature place beginning religion'
p295
aS'torah made scripture made hundreds years later'
p296
ag49
aS'want make world dance'
p297
aS'time little mermaid dancing'
p298
aS'hands yeah'
p299
aS'sleeping beauty dream land'
p300
aS'torah following dont know please follow'
p301
aS'ravens thank'
p302
aS'time break super bowl party people yikes calling maids'
p303
aS'ravens rule'
p304
aS'feel mood good party'
p305
aS'ravens'
p306
aS'people cant resist jerks'
p307
aS'ding dong wicked witch dead'
p308
aS'hello'
p309
asS'2013_1'
p310
(lp311
S'love life thee best children thee best husband ever'
p312
asS'2013_3'
p313
(lp314
S'delilah gorgeous'
p315
aS'ones everyone still except sandi'
p316
asS'2013_9'
p317
(lp318
S'twitter must take break life full must leave facebook peeps'
p319
aS'life like dance whos drummer'
p320
aS'praises karson danger zone still oxygen infections gone'
p321
aS'kick butt scrabble probly slowest player ever'
p322
aS'excuse might much tonight'
p323
asS'2013_8'
p324
(lp325
S'sometimes life general seems like pawns great joke smile heaven bound'
p326
aS'life takes kinds twists turns good thing flexible person flow'
p327
aS'sherrie could sister known since born interesting'
p328
aS'found suspicions whole life true wayne childs'
p329
asS'2013_11'
p330
(lp331
S'ever want come salem long drive stuck need kidz tired hungry come carl'
p332
aS'nature things rule live hate religion love creator'
p333
aS'happy life real family'
p334
aS'grows anyone proud cause treats bloodline like dirt'
p335
aS'tweet tweet'
p336
aS'fear thats lack wisdom'
p337
aS'bitter twice babe'
p338
ag49
asS'2013_36'
p339
(lp340
S'tweet tweet tweedledee little birdies bird rocking robin going tweet tweet tweet'
p341
asS'2013_12'
p342
(lp343
S'rockin treetop'
p344
aS'thee best family'
p345
asS'2013_15'
p346
(lp347
S'prince come swept feet made queen became king love mine 10yr'
p348
asS'2013_14'
p349
(lp350
S'convinced thee amazing family loud proud love family'
p351
asS'2013_16'
p352
(lp353
S'twitter sucks'
p354
aS'heck deactivate twitter'
p355
aS'delete twitter'
p356
aS'leave twitter'
p357
ag49
aS'sissy awesome'
p358
asS'2013_39'
p359
(lp360
S'lego world room full'
p361
ag49
aS'baby sitting'
p362
aS'moses time third time even 11am love creative mind lets guide positively'
p363
aS'little know napping piano'
p364
aS'gonna play piano brings much peace deep calm'
p365
aS'family time'
p366
aS'joseph wheeling blast'
p367
aS'brooke moses swinging side driveway'
p368
aS'looked back check moses brooke moses started fire moses'
p369
aS'coffe'
p370
aS'moses stunt daddy cakes'
p371
aS'moses well balanced hard working lovable sensible'
p372
aS'joseph true romantic wife love trait'
p373
aS'thank carls working'
p374
aS'fire'
p375
aS'daddy cakes making horseshoe area woohoo'
p376
aS'backyard fire moses good moses'
p377
aS'home made green pepper jelly cream cheese toast yummy'
p378
aS'louis hilarious take kids cell phones'
p379
aS'twitterpating'
p380
aS'carls making eggs toast sweet guess myth busters ready'
p381
aS'astronomy horrorscopes astrology'
p382
aS'agree palm reading except high strung laid back'
p383
aS'palm reading hand shape suggests need careful needlessly overc'
p384
aS'taking shiloh krav lunch'
p385
aS'toast literally thank deeply blessings'
p386
aS'mind lovely niece coming live thank bedroom grateful needs blessings share'
p387
aS'iron night'
p388
aS'enjoying herbal mint brushing astrology'
p389
aS'challenging monsanto million march streets cities countries news'
p390
aS'store hires fulltime employee keep gmos shelves'
p391
aS'making pizzas'
p392
aS'honey making homemade pizza love mine'
p393
aS'lovely'
p394
aS'sprain foot seriously'
p395
aS'happy birthday bella first doggy party blast'
p396
asS'2013_38'
p397
(lp398
S'chelsea helped save life many hope shes living blessed life'
p399
aS'going little katlyns doggies birthday party today kidz gonna love'
p400
aS'loving life past years amazing blessed awesome family home'
p401
ag49
aS'fantasy land life magitastical'
p402
aS'hope youre well'
p403
ag49
aS'chipolte organic love'
p404
aS'love'
p405
aS'want love snow owls'
p406
ag49
aS'tackled'
p407
asS'2013_37'
p408
(lp409
S'lololololol caught telling joke'
p410
aS'love sunflowers'
p411
aS'wheeler birthday'
p412
ag49
aS'prettiest ever frankie blue blue eyes frank sinatra'
p413
aS'blow horn sounds like guns firing lololololol'
p414
aS'people matter high ladder always losers attitude thank winners'
p415
aS'life good wonderful husband children great house cars toys bikes wonderful business peaceful lives complaining'
p416
aS'destiny totally friend'
p417
aS'beautiful neighborhood'
p418
aS'madly love lust husband'
p419
aS'life good'
p420
aS'troy love foreverampalways'
p421
aS'find thought woohoooo miracles still happen'
p422
aS'madly love husband years adore children grand daughter niece whos coming live'
p423
aS'peace thats'
p424
asS'2013_10'
p425
(lp426
S'rockin bobbin singing song tweet tweet'
p427
aS'wouldnt brag speed sayin'
p428
as.