(dp0
S'2013_43'
p1
(lp2
S'disgrace game jets'
p3
aS'megaton straight beast'
p4
aS'hope eagles shit giants'
p5
aS'joke came needs quick watch jets'
p6
aS'exhausted time sleep'
p7
aS'rangers need pick'
p8
aS''
p9
aS'account hacked refollow'
p10
asS'2013_46'
p11
(lp12
S'good girls'
p13
aS'gotta kidding jets'
p14
aS'safe visiting pace'
p15
aS'ciroc boys work last night'
p16
aS'sister loved shows younger'
p17
aS'little show'
p18
aS'last night success'
p19
aS'easy dont break nail'
p20
aS'rockets bout smack lego knicks knickstape'
p21
aS'every king needs queen'
p22
aS'shout sister emily turned today happy birthday'
p23
aS'flattered'
p24
aS'nation welcome reed jets'
p25
aS'girls ridiculous thirst crazy'
p26
ag9
ag9
aS'womancrushwednesday erin andrews'
p27
aS'need shump trade someone else help'
p28
aS'knicks better trade shumpert'
p29
aS'retarded trade need perimeter defense plus basically gonna nuggets melo left'
p30
aS'slayin cougars'
p31
aS'haha weaknesses'
p32
aS'would trade smith amare possible'
p33
aS'tight knicks trade shump'
p34
aS'loser'
p35
aS'wheres north carolina trash wiggins step back dunk foul parker'
p36
aS'dont gotta play games'
p37
aS'think hawks'
p38
aS'feels like summer'
p39
aS'rock chalk hawk'
p40
aS'watch hawks work'
p41
aS'shot usually first pass opponents fast break'
p42
aS'lets'
p43
aS'grandpa gpac dying'
p44
aS'traffic unreal'
p45
aS'richie incognito nick foles manning kids'
p46
asS'2013_47'
p47
(lp48
S'whats deal tonight'
p49
aS'bottle service cavo last night astoria'
p50
aS'bottle service cavo'
p51
aS'pregame astoria cavo'
p52
aS'hyped tonight work needs already'
p53
aS'rise shine friday'
p54
aS'haha cause cake happy belated birthday'
p55
aS'lmao suits'
p56
aS'knee killing'
p57
aS'train sucks'
p58
aS'vince carter dwight howard game last night baby back btch kobe favor leavin'
p59
aS'northeastern hoyas upset city baby'
p60
aS'hour work hopefully'
p61
aS'exhausted time sleep'
p62
aS'bowl'
p63
ag9
aS'lmao'
p64
aS'talks much shit everyone hilarious'
p65
aS'worked used shots clock'
p66
aS'main'
p67
aS'thats start game knickstape'
p68
aS'keep chin'
p69
aS'espn analyst lewis ahmad monday check hand half fine'
p70
aS'crazy episode'
p71
aS'save dance music clubs timerap'
p72
aS'mother nature needs make mind already'
p73
aS'depends much time clock foul occurred'
p74
aS'yard defensive holding thats'
p75
aS'true agree wrong call penalty yards holding'
p76
aS'always fucking'
p77
aS'days stranger'
p78
aS'cool'
p79
aS'spend money people zero respect thats hands biggest peeve'
p80
aS'lmfao'
p81
aS'number'
p82
asS'2013_44'
p83
(lp84
S'huge jetsnation'
p85
aS'lets nation'
p86
aS'squad'
p87
aS'whats good nights'
p88
aS'lmao'
p89
aS'amare return dominance'
p90
aS'fuck gonna'
p91
aS'lunch time'
p92
aS'quinnipiac years never wrong'
p93
aS'terrified movie'
p94
aS'knickstape'
p95
aS'lmao doubt'
p96
aS'call ahead seating party'
p97
aS'thats like hearill making appearance weekend'
p98
aS'hopefully carry legacy hand scholarships'
p99
aS'still workin fridays'
p100
aS'take apologies written verbal'
p101
aS'train packed'
p102
aS'time'
p103
aS'worst'
p104
aS'kids tryna jump straight twitter y\xe2\x80\x99all gotta start myspace facebook like leve\xe2\x80\xa6'
p105
aS'cant wait till knicks smack brooklyn'
p106
aS'tonight'
p107
aS'haters words motivate laugh face'
p108
ag9
aS'lmao problem siblings'
p109
aS'idiots think'
p110
aS'fuck lucky bullshit'
p111
aS'beat'
p112
aS'bench waived marvin jones bengals'
p113
aS'lets rangers'
p114
aS'hump'
p115
aS'explains'
p116
aS'means drink brave tough drinking acting tough'
p117
aS'funny guyall sudden talk without beer muscles'
p118
aS'sore flag football basketball yesterday'
p119
aS'home around 6ish'
p120
aS'things havent changed'
p121
aS'dont forget wait'
p122
aS'workflow bright early'
p123
aS'wise'
p124
asS'2013_45'
p125
(lp126
S'flag football crew'
p127
aS'pittsburgh defeats notre dame 2821 pitt devin street catches yards ndvspitt'
p128
aS'glad didnt spend much money mall'
p129
aS'sucks'
p130
aS'hands power rangers better weapons'
p131
aS'disagree'
p132
aS'good luck'
p133
aS'happy friday time paid enjoy weekend'
p134
aS'cant left mark'
p135
aS'wise words greatest'
p136
aS'blessed uncle back takes care kingjames'
p137
aS'lmfao'
p138
aS'happy weekly office pool putting extra money pocket'
p139
aS'give cheddar'
p140
aS'punching anyone'
p141
aS'bears cover spread office pool cold hard cash'
p142
aS'wasnt good start'
p143
aS'mondays always much bearable jets'
p144
aS'would poconos'
p145
aS'loudest annoying train ridefinally seat cant sleep loud'
p146
aS'shoulder shot need sleep work'
p147
aS'freshman mistake'
p148
aS'lost last week'
p149
as.