(dp0
S'2013_42'
p1
(lp2
S'apparently holdtight baby makin music panties comin'
p3
aS'make music express thank listening letting tell heart musicmonday allthatmatters'
p4
asS'2013_43'
p5
(lp6
S'damn frustrated phone wont load twitter feed'
p7
aS'trailer believemovie going better never never movie truth christ\xe2\x80\xa6'
p8
aS'lips wont holdtight'
p9
aS'going side life cant even imagine going believemovie christmas'
p10
aS'checked true'
p11
aS'months said wanted journal songs fans musicmondays\xe2\x80\xa6'
p12
aS'dayum holdtight real panty dropper'
p13
asS'2013_40'
p14
(lp15
S'tweet limit accs trust guys keep trending teambiebernoticebfaatwproject'
p16
aS'excited heartbreaker teambiebernoticebfaatwproject'
p17
aS'trending gogogogogoogo teambiebernoticebfaatwproject'
p18
aS'heartbreaker heartbreaker heartbreaker come teambiebernoticebfaatwproject'
p19
aS'youre belieber teambiebernoticebfaatwproject'
p20
aS'teambiebernoticebfaatwproject 2hoursbreak'
p21
aS'called garden path wondering'
p22
aS'already fuckin told bitch dont want follow'
p23
aS'dear justinnever lose smile smile gives hope better'
p24
aS'every monday release song'
p25
aS'weeks songs scooter meant justin release album like artist'
p26
aS'musicmondays heartbreaker welcome arrive'
p27
aS'hmmm think absolutely fuckof following random dude dont know fuckin belieber'
p28
aS'true havin time issue fangirling good heartbreaker'
p29
aS'holy shit ready'
p30
aS'sunday night midnight heartbreaker thetimeisnow'
p31
aS'first many surprises 2013 musicmondays letsgo'
p32
aS'sunday midnight heartbreaker musicmondays 10weeks'
p33
aS'10weeks waiting long'
p34
aS'dont think yall ready musicmonday'
p35
aS'follow trick tweet follow everyone 3follow everyone back hope'
p36
aS'yostin biver feel like heard sumwhere'
p37
aS'7days believe3dtrailer maybe'
p38
aS'friend kitten soooo fudging cute'
p39
asS'2013_41'
p40
(lp41
S'musicmondays heartbreaker sunday midnight believe music'
p42
aS'look happened lmfaao'
p43
aS'together unbreakable tonight midnight countdown allthatmatters musicmondays'
p44
aS'counting midnight musicmonday allthatmatters'
p45
aS'allthatmatters trend twitter whoop whoop'
p46
aS'funny'
p47
aS'listening heartbreaker time'
p48
aS'songs different journals'
p49
aS'youve made love mondays'
p50
aS'still believe love heartbreakeronitunes'
p51
aS'love justin always expresses feelings music understand lyrics theres story'
p52
aS'proud'
p53
aS'loooovvee heartbreaker'
p54
aS'know words heart journals'
p55
asS'2013_46'
p56
(lp57
S'tell means please'
p58
aS'dont know ready whats next sundayatmidnight wut\xf0\x9f\x98\xb1is another pantydropper'
p59
aS'think best'
p60
aS'seriosly trying kill'
p61
aS'love'
p62
aS'please please please please please please please please answer'
p63
aS'juju feelin better'
p64
aS'please please please please please please please please please please please please please'
p65
aS'please please please please please please notice follow love'
p66
aS'going okkid tougher anyone'
p67
aS'tried hardestyou guys dont songs comes offstage dont know made'
p68
aS'justins strong person defs needs rest hopefully better soon love hang'
p69
aS'gave health always comes first proud even getting giving today'
p70
aS'1055pm degrees stadium joke argentina'
p71
aS'later show must soldier gladididnteatwhatheate foodpoisoning allbad'
p72
aS'going doctors orders still went stage tonight last thing justin ever wants fans'
p73
aS'hope feel better soon justin love'
p74
aS'last night incredible show 60000 strong feeling great gonna rest thanks'
p75
aS'sitting food poisoning heard bestmale emas thanks everyone'
p76
aS'feeling good actually pretty sick pulling together argentina show love'
p77
asS'2013_47'
p78
(lp79
S'mtvstars justin bieber'
p80
aS'happy birthday love much nawww sooo cute'
p81
aS'epic show rain thunder lightning fire alllllll gracias mexico city todo believetour continues\xe2\x80\xa6'
p82
aS'haha excuses excuses'
p83
aS'pyro board caught fire tonight ending haha great show'
p84
aS'happybirthdayjaxonbieber sooooo cute'
p85
aS'pretty sexual song deciding going show'
p86
asS'2013_44'
p87
(lp88
S'beliebers fans little jealous cunt'
p89
aS'fuck'
p90
aS'help alarm fuckin lies going'
p91
aS'damn think change password think youve hacked sweetheart'
p92
aS'drakester realize idol fuckin bully'
p93
aS'birthday parties fucking boring'
p94
aS'halloween party boring'
p95
aS'requested believemovie city'
p96
aS'every week sharing heart thanks accepting recovery'
p97
asS'2013_45'
p98
(lp99
S'yeah guess might little wierd never traveled pocket'
p100
aS'fans hotel thank love please calm respect police dont want anyone gettting\xe2\x80\xa6'
p101
aS'feels like allbad going songs make wanna corner hours'
p102
aS'love'
p103
aS'beliebers\xe2\x99\xa5 tell country live come live'
p104
aS'guys thought inappropriate names nars make example deep throat orgasm rated'
p105
aS'finally stood best idol ever love'
p106
aS'cant believe dwell gotta know truth cant bring everyone loved'
p107
aS'strange also baby hired women gone crazy spit people love yeah'
p108
asS'2013_48'
p109
(lp110
S'mtvstars justin bieber'
p111
aS'deal'
p112
aS'snow forts home cool'
p113
aS'fake nails comin rollercoster'
p114
asS'2013_49'
p115
(lp116
S'completed quest build house ipad game tribez ipadgames gameinsight'
p117
aS'collected gold coins ipad ipadgames gameinsight'
p118
aS'house island island even awesome ipadgames gameinsight'
p119
aS'completed quest explore cave ipad game tribez ipadgames gameinsight'
p120
aS'harvested food ipad ipadgames gameinsight'
p121
aS'collected gold coins ipad ipadgames gameinsight'
p122
aS'collected 1053 gold coins ipad ipadgames gameinsight'
p123
aS'harvested food ipad ipadgames gameinsight'
p124
aS'collected gold coins ipad ipadgames gameinsight'
p125
aS'harvested food ipad ipadgames gameinsight'
p126
aS'completed quest upgrade patches ipad game tribez ipadgames gameinsight'
p127
aS'completed quest find suitable pumpkin ipad game tribez ipadgames gameinsight'
p128
aS'sick mtvstars justin bieber'
p129
aS'please tell doesnt need change perfect'
p130
aS'loooovveeee'
p131
aS'please please dont feel like ever need change perfect arelt3 love'
p132
aS'changeme made'
p133
asS'2014_14'
p134
(lp135
S'exos comebackohmygod help'
p136
aS'heart everything'
p137
asS'2014_15'
p138
(lp139
S'seaworld humanely release orca whale known tilikum seapen rehab sign'
p140
asS'2014_16'
p141
(lp142
S'singer justin bieber included time100 voted vote vote'
p143
aS'years signed first record deal grateful ride gone together love mybeliebers'
p144
asS'2014_17'
p145
(lp146
S'poll perform super bowl xlix halftime show vote justin'
p147
asS'2014_11'
p148
(lp149
S''
p150
asS'2014_12'
p151
(lp152
g150
aS'love'
p153
asS'2014_13'
p154
(lp155
S'meeeeeeeee'
p156
aS'since released whyyyy tttt'
p157
asS'2013_39'
p158
(lp159
S'know itll long flight flight attendant announce time also date arrival'
p160
aS'oneim dead check onebut turns alive'
p161
asS'2013_51'
p162
(lp163
S'sooo fucking'
p164
aS'lets hope doesnt happen anyone twerking pedal remix'
p165
aS'pedal remix like'
p166
aS'slowww grab walllll wiggly like trynaaa make assss fall gaspedalremix'
p167
aS'justin hurt selena role model justins neck longer faves career shut'
p168
asS'2013_50'
p169
(lp170
S'good times friend'
p171
aS'call spongebob stackin crabby patties'
p172
aS'take moment reminisce please'
p173
aS'fake hair\xf0\x9f\x92\x87 fake nialls\xf0\x9f\x92\x85 fake smike\xf0\x9f\x98\x84 fake friends\xf0\x9f\x91\xad bitch made china'
p174
aS'collected gold coins ipad ipadgames gameinsight'
p175
aS'harvested food ipad ipadgames gameinsight'
p176
aS'made achievement leader beat ipad game tribez ipadgames gameinsight'
p177
aS'reached level tribez join overtake ipad ipadgames gameinsight'
p178
aS'completed quest upgrade main buildi ipad game tribez ipadgames gameinsight'
p179
aS'collected gold coins ipad ipadgames gameinsight'
p180
aS'harvested food ipad ipadgames gameinsight'
p181
aS'made achievement barista beat ipad game tribez ipadgames gameinsight'
p182
aS'pretty bush island island even awesome ipadgames gameinsight'
p183
aS'collected gold coins ipad ipadgames gameinsight'
p184
aS'harvested food ipad ipadgames gameinsight'
p185
aS'made achievement adventurer beat ipad game tribez ipadgames gameinsight'
p186
aS'collected gold coins ipad ipadgames gameinsight'
p187
aS'harvested food ipad ipadgames gameinsight'
p188
aS'harvested food ipad ipadgames gameinsight'
p189
aS'collected gold coins ipad ipadgames gameinsight'
p190
asS'2014_8'
p191
(lp192
S'help'
p193
aS'isnt funny'
p194
aS'dont remember email forget email smart hate'
p195
aS'greatest hockey nation world canada gold proudcanadian'
p196
aS'love'
p197
aS'canada gold medal next proudcanadian'
p198
aS'fuck'
p199
aS'game canada coming'
p200
aS'haha love beliebers google fucking love'
p201
aS'quote oneself ones words perfectly quotable'
p202
asS'2013_52'
p203
(lp204
S'wonder justin means whore definitely something worth looking hope means genuine puppy'
p205
aS'hope still gonna take care tuts tuts feel alone hope along dont fight love'
p206
asS'2014_6'
p207
(lp208
S'love much saved life'
p209
aS'baby baby please please please please please please please please please please please please notice'
p210
aS'please follow'
p211
aS'loooove'
p212
aS'dont fake orgasm know dick game hell'
p213
aS'exam tomorrow wish luck'
p214
asS'2014_7'
p215
(lp216
S'even swedish spread l\xc3\xa5tkainatstanna'
p217
asS'2014_4'
p218
(lp219
S'realized desserts stressed read random sometimes'
p220
asS'2014_5'
p221
(lp222
S'weird sometimes'
p223
aS'time 7inthemorning'
p224
asS'2014_2'
p225
(lp226
S'pissed cant find movie looking live sweden movie korea annoying'
p227
aS'want justin follow ltltltlt send link tomorrow tell follow people'
p228
asS'2014_1'
p229
(lp230
S'justin'
p231
asS'2013_37'
p232
(lp233
S'thats fucking adorable'
p234
aS'congrats'
p235
aS'called legend omfb deserve'
p236
aS'actual fuck'
p237
aS'tired gonna rest maybe'
p238
aS'nigga still hommie'
p239
aS'know youre belieber picture justin make smile youre crying'
p240
aS'breathing difficulties laughing hard'
p241
aS'justins buying house pool cool glass doors thanks next house'
p242
aS'many photo beliebers'
p243
aS'love'
p244
aS'bionic knee'
p245
aS'holy celebrity rumour batman batmanvssuperman movie'
p246
aS'wheres 200910 beliebers'
p247
aS'spread world please beliebers'
p248
ag150
aS'believe necklace'
p249
aS'news mosquito bite neck really itchy'
p250
aS'news mosquito bite neck really itchy naww baby'
p251
aS'news stung'
p252
aS'love canada'
p253
aS'music life'
p254
aS'basically'
p255
aS'haha true moms annoying'
p256
aS'seriously imagine know'
p257
aS'haha dirty'
p258
aS'good morning school'
p259
aS'haha weird iaintgonoworries'
p260
aS'caused full blown security breach oops iaintgonoworries'
p261
aS'need australia beach oroes'
p262
aS'pretty long fingers know mean'
p263
aS'trust know fucking crazy love justin drew bieber fuck true judge love\xe2\x80\xa6'
p264
aS'questions cant answered google right'
p265
aS'never never youll believe'
p266
aS'eyebrows caterpillars swear laughing'
p267
aS'think eyes close together sure haha'
p268
aS'hair omfg done pahdidjskksm cant breatheee'
p269
aS'fuck hell'
p270
asS'2013_36'
p271
(lp272
g150
aS'tweeting justin like talking wall'
p273
aS'haha'
p274
aS'green lotion wants smell like green like'
p275
aS'need coffee'
p276
aS'soooo true'
p277
aS'made guinness world record book youngest artist albums congratsjustinforthenewrecord'
p278
aS'youre proud justin bieber'
p279
aS'turn turn'
p280
aS'video coming next week melodies'
p281
aS'babe look'
p282
aS'wouldnt harm told shave'
p283
aS'44millionbeliebers family unbreakable thank love'
p284
aS'wristbandaatw'
p285
aS'loooovveeee'
p286
aS'everyone good weekend haha'
p287
aS'yeah'
p288
asS'2013_35'
p289
(lp290
S'love'
p291
aS'granted make wishes celeb love true media likes'
p292
aS'love love'
p293
aS'unlockthedream thekey tomorrow'
p294
aS'want thekey lets thekey unlockthedream trending surprise'
p295
asS'2013_34'
p296
(lp297
S'fansyou correct flawless love'
p298
aS'avalanna hold special place beliebers heart never failed make smile miss angel'
p299
aS'swaggin friendz'
p300
aS'dead somethin tweet'
p301
aS'heartbreaker'
p302
aS'please follow notice'
p303
aS'yall imagine justin dancing slave rhythm'
p304
aS'swag'
p305
aS'shopping friend'
p306
aS'school mtvhottestjustinbieber'
p307
asS'2013_33'
p308
(lp309
S'justin cries everytime someone scrolls past mtvhottest justin bieber'
p310
aS'heartbreaker believe album lolly music video mtvhottest justin bieber'
p311
aS'dont strees dont dont need wings take hand mtvhottest justin bieber'
p312
aS'justin always puts beliebers health still doesnt care mtvhottest justin bieber'
p313
aS'hater justin bieber ugly think youre blind need pair glasses mtvhottest justin bieber'
p314
aS'smile makes life better brighter'
p315
aS'face hear voice like body like heart you\xe2\x80\x99re belieber mtvhottest'
p316
aS'still vote voting ends soon soon mtvhottest justin bieber'
p317
aS'random weird mtvhottestjustinbieber'
p318
aS'vote mtvhottest justin bieber'
p319
aS'justin dont care fans mtvhottestjustinbieber deserves'
p320
aS'lolly gone sexual'
p321
aS'shes slave rhythm love mtvhottestjustinbieber'
p322
aS'beliebers mtvhottest justin bieber'
p323
aS'didnt justin deserves much says girl didnt vote mtvhottest justin bieber'
p324
aS'tomorrow meet justin bieber read every time comes mtvhottest justin bieber'
p325
aS'justin gotta beliebers believe justin beliebers believe mtvhottest justin'
p326
aS'justin doesnt seriously gonna real beliebers worked hard mtvhottest justin'
p327
aS'give first dance gonna cherish every moment cause happens lifetime mtvhotte\xe2\x80\xa6'
p328
aS'retweet spread word mtvhottest justin bieber retweets votes'
p329
aS'fighting every second dreams girl mtvhottest justin bieber'
p330
aS'loooovveeee smile smile'
p331
aS'winner justin bieber wanna hear mtvhottest justin bieber'
p332
aS'excited come music entertainer treat fans'
p333
ag150
aS'people inspire dream hate dream others dream matter whatnever stop dream\xe2\x80\xa6'
p334
aS'thanks beliebers always make smile love'
p335
aS'please please please please please please please notice follow love much saved life'
p336
aS'really loosing patience soon fucking exactly'
p337
aS'audio blamingnolan hudgns guys really scaring bullshit honestly scared scary'
p338
aS'shower still voting mtvhottest justin bieber'
p339
aS'everyone would alot votes mtvhottest justin bieber'
p340
aS'please'
p341
aS'guys great thanks part much love'
p342
aS'please please please please please please notice follow love'
p343
aS'know gotten press lately doesnt make wanna leave love'
p344
aS'loooovveeee please please please notice follow'
p345
aS'million beliebers world themfeels good mtvhottest justin bieber'
p346
aS'stayed justin never leave mtvhottest justin bieber'
p347
aS'friends make home pulls justin bieber posters starts hanging mtvhottest justi\xe2\x80\xa6'
p348
aS'follow omfb'
p349
aS'youre proud justin mtvhottest justin bieber'
p350
aS'dead'
p351
aS'cant believe followed'
p352
aS'lmao thats funny'
p353
aS'beliebers award forever journey story song love relationship mtvhottest'
p354
aS'justin said belieber computer trying noticed knowing shes future bieber mtvhotte\xe2\x80\xa6'
p355
aS'stayed congratulations youre true belieber mtvhottestjustinbieber stayed'
p356
aS'jeremy pattie condom best thing happened world mtvhottest justin bieber'
p357
aS'anything justin dont know cell phone number working mtvhotte\xe2\x80\xa6'
p358
aS'parents never understand love justin beliebers understand mtvhottest justin bieber'
p359
aS'guys heard iphone read mind didnt even type thought ellen like funny'
p360
aS'aint even justin'
p361
aS'still here\xe2\x98\xba'
p362
aS'days left vote mtvhottest justin bieber'
p363
aS'winning days left vote keep keep tweeting keep rting mtvhottest justin\xe2\x80\xa6'
p364
aS'winning days left vote keep keep tweeting keep rting mtvhottest justin bieber'
p365
aS'suicide note'
p366
aS'heartless doesnt care realy mtvhottest justin bieber'
p367
aS'trying attention justin mental break fucking immature pathetic shutdowntmz'
p368
aS'mtvhottestjustinbieber'
p369
aS'mtvhottest justin bieber'
p370
aS'love'
p371
aS'give heartbreaker'
p372
aS'loooovveeee please please please please notice follow'
p373
aS'thanks following instagram twitter'
p374
aS'loooovveeee please please please please please notice follow love'
p375
aS'know never follow notice anyways love'
p376
aS'words'
p377
aS'voted justin take pass'
p378
aS'even justin pics'
p379
ag150
asS'2013_32'
p380
(lp381
S'lets prove world beliebers arent years screaming girls'
p382
aS'justin mtvhottest justin bieber'
p383
aS'please dont stop ollg turn please dont please please please'
p384
aS'please'
p385
aS'follow please please please please please ilysm'
p386
aS'need'
p387
aS'love love performing thanks everyone helping live dream gonna rest much love'
p388
aS'love'
p389
aS'bfaatwproject'
p390
aS'heartbreaker yeah soon\xe2\x80\x9d seriosly justin driving crazy\xf0\x9f\x98\xa9'
p391
aS'love please please please please notice follow'
p392
aS'relationship mybeliebers cant deny real really loves smile smile'
p393
aS'notice please'
p394
aS'need repost creeper'
p395
aS'dont retweet dont want justin mtvhottestjustinbieber'
p396
aS'belieberswillneverleavejustin'
p397
aS'gosh dying hoto'
p398
aS'justin think need break work justinpleasetakeabreakaftertour'
p399
aS'vote justin mtvhottestjustinbieber'
p400
aS'home grandmas place going loooonnnggg ride'
p401
asS'2014_9'
p402
(lp403
S'dont instagram shoutouts like bitch italian yeah sure fuckin pizza'
p404
aS'happy birthday know love xoxo'
p405
aS'love'
p406
aS'happy birthday brother aint little anymore journey heres many more\xe2\x80\xa6'
p407
aS'goooooodddddd need corner somewhere justin already'
p408
aS'happybirthdayjustinbieber love'
p409
ag150
aS'absjsnsnwkdnwkxmsoxnndidndkfjd happy birthday justin love babelt3'
p410
aS'help minutes left someone help breath'
p411
aS'cant fucking stop crying waiting birthday time currently 1140 minutes left'
p412
aS'justin soon going happy fuck supposed happy'
p413
aS'baby reached billion views congratulations justin course fans babybillionvevo'
p414
asS'2013_38'
p415
(lp416
S'school rebel'
p417
aS'meeee'
p418
aS'downloading ios7 interesting'
p419
aS'know lollydance'
p420
aS'justin literally ever called babygirl would around whole city screaming name'
p421
aS'whats baby girl'
p422
aS'justin bieber online twitter going crazy'
p423
aS'detention practicing lollydance feel like badass'
p424
aS'class picture'
p425
aS'blessed'
p426
aS'yummy'
p427
aS'eating breakfast'
p428
aS'fucking dead'
p429
aS'please please notice follow'
p430
aS'made heart melt'
p431
aS'lolly music video todaaaaay'
p432
asS'2014_29'
p433
(lp434
S'never leaving mtvhottest justin bieber'
p435
asS'2014_21'
p436
(lp437
S'hangeng kris common amazing artists treated like trash'
p438
asS'2014_20'
p439
(lp440
S'fuckin hate know right'
p441
aS'smentworstcompanyinkorea think youngmin worst kimyoungminworstceoinkorea'
p442
aS'kimyoungminworstceoinkorea well thats true birthday wish year wish young died'
p443
asS'2014_22'
p444
(lp445
S'thats leader bday kpop'
p446
asS'2014_27'
p447
(lp448
S'live every last'
p449
as.