(dp0
S'2013_46'
p1
(lp2
S'posting anxiety'
p3
asS'2012_45'
p4
(lp5
S'check great video games weekendare amazing weekend thanks'
p6
aS'amazing weekend thanks bermuda'
p7
asS'2012_44'
p8
(lp9
S'great pics streetfest saturday night look many thanks robert daniels photography'
p10
aS'bermuda corporate games enormous success small island boasts approximately 60000 people square miles dont\xe2\x80\xa6'
p11
aS'lets little todaycaption time'
p12
aS'great photos games bernews check'
p13
aS'great shots games village thanks robert daniels photography'
p14
aS'check robert daniels photography page great shots mickeys friday night'
p15
aS'check results games'
p16
aS'thanks much joining inaugural bermuda corporate games hope much'
p17
aS'posted photos facebook album royal gazette awards celebration photos'
p18
aS'posted photos facebook album games weekend photos'
p19
aS'posted photo facebook'
p20
aS'thankyou island restaurant group grotto beach resort four star daisyfield cupcakes siam herbal'
p21
asS'2012_47'
p22
(lp23
S'paul dyer proud winner game face contest samsung galaxy brought digicel'
p24
aS'david beckham exman star decides sixyear stay galaxy'
p25
asS'2012_46'
p26
(lp27
S'vettel alonso prepare fight impressive circuit americas austin texas'
p28
aS'bermuda corporate games'
p29
aS'bermuda corporate games 2012'
p30
aS'bermuda corporate games 2012'
p31
asS'2012_41'
p32
(lp33
S'bermuda monetary authority games entries nonstop dont forget sign oct15th bdacg'
p34
aS'bespoke software picked sport welcome sailing dont forget pick monday oct15th time getyourgameon'
p35
aS'signed games still little time left game registration closes monday october'
p36
aS'welcome bdacg butterfield games right around corner dont forget sign 15th'
p37
aS'welcome bcsibm ready gameface onare registration closes oct15 pick sport late bdacg'
p38
aS'bermuda general agency welcome bcggamesapp fans participants look forward learning'
p39
aS'bermuda general agency welcome games fans participants look forward learning'
p40
aS'newest register bdacg marsh mclennan next sign show youre inittowinit'
p41
aS'allied world assurance getting game bdacg monday 15th registration deadline gameface sign'
p42
aS'games everyone late registerdust racquets polish boots'
p43
aS'games everyone late registerdust racquets polish boots'
p44
aS'product want sample want games participants know business'
p45
aS'bermuda fire rescue joined time tickingwhatsyoursport entry forms 15th dontblowit'
p46
aS'join great socials beachbbq live bands great food great ptixbm tickets details'
p47
aS'\xe2\x80\x9caspen pleased part inaugural bermuda corporate games held october wish'
p48
aS'posted photo facebook'
p49
aS'posted photo facebook'
p50
aS'posted photo facebook'
p51
aS'posted photo facebook'
p52
aS'thank aspen kind words support'
p53
aS'gooood morning welcome games risk solutions weve lots entries coming signed inittowinit'
p54
aS'welcome bdacg nephila games gonna week left sign pick sport'
p55
aS'want business vr4smallbiz'
p56
aS'home screen'
p57
aS'orbis investment management games going great sports festival dontmissout sign late'
p58
aS'reminderthe entry deadline games extended oct15th pick sport forms getyourgameon'
p59
asS'2012_40'
p60
(lp61
S'entries nonstop expertise registered golf youre inittowinit youll register 15th'
p62
aS'welcome entered sailing else getting game bdacg registration ends oct15th'
p63
aS'update extra golf spots opened first come first serve sign theyre gone holeinone'
p64
aS'happy friday welcome emergence newest entries bdacg many sports choose picked bornwinner'
p65
aS'team supporting cross courthouse spinathon weekend business come'
p66
aS'entries keep coming kpmg bdacg sports filling dontmissout register getyourgameon'
p67
aS'newest entry fidelity limited entered tennis bowling picked sport almost time getyourgameon'
p68
aS'welcome bdacg deadline extended 15th sign late'
p69
aS'signed bermuda corporate games sport playing still time'
p70
aS'good morning welcome bdacg solar bermuda lets bring entries whos inittowinit'
p71
aS'corporation hamilton bdacg crunch time sign entry forms getyourgameon'
p72
aS'sold spaces golf game enter teams today avoid disappointment dontmissout bdacg'
p73
aS'update technical difficulties resolved continued volume entries deadline extended oct15th bdacg'
p74
aS'update technical difficulties resolved however continued volume entries deadline'
p75
aS'experiencing technically difficulties overwhelming response registration entry deadline extended'
p76
aS'please advised experiencing technically difficulties overwhelming response'
p77
aS'saunders maintenance bdacg registration deadline today pick sport game face'
p78
aS'today make happen'
p79
aS'argus games bdacg quickly approaching entered sign game'
p80
aS'another running entrywelcome games zurich sport choose much time left register bdacg getfitforbusiness'
p81
aS'morning tokio millenium entered running days register pick sport getyourgameon'
p82
aS'welcome bdacg chartis closing date registration wednesday'
p83
aS'really dont want miss biggest island international networking team building sports'
p84
aS'ready game bdacg sports choose pick registration closes oct3rd'
p85
asS'2012_43'
p86
(lp87
S'comes parade athletes starting point city hall 630pm ready party games village bermp bermp'
p88
aS'mickeys beach party hoooook thank everyone came made absolute'
p89
aS'come bernards park north village today hello team setting game play'
p90
aS'great registration last night games village athletes ready game'
p91
aS'athletes registered game'
p92
aS'bermuda corporate games iphone'
p93
aS'want part games join mickeys beach party tickets online ticket'
p94
aS'mambo raves games check window dont forget download join group'
p95
aS'world corporate games founder maureen johnston bermuda bring games'
p96
aS'print official games program find whats happening'
p97
aS'games quickly approching weve plannedstarting 25th thursday night'
p98
aS'beach party tickets limited tickets available'
p99
aS'check games events socials'
p100
aS'posted photos facebook album'
p101
asS'2012_42'
p102
(lp103
S'want part largest multisport corporate festival join team part exciting'
p104
aS'happy hour tonight enjoy evening game face biggest event island'
p105
aS'goater priince pauly tight race take guys bring game face'
p106
aS'omejae goater serious like'
p107
aS'omejae'
p108
aS'registration closed real begins many activities planned part'
p109
aS'nice game face priince pauly like'
p110
aS'nice game face priince pauly like'
p111
aS'bring game face enter october 28th'
p112
aS'bring game face'
p113
aS'going going gone weve spots left golf theyre call 2329999 sign claim spot'
p114
aS'another entry welcome games tuckers point visit pick sport getfitforbusiness teamplayer'
p115
aS'hannover life joined games today last register entry forms show getyourgameon'
p116
aS'bermuda department youth sports entered bdacg dont want miss sports festival sign'
p117
aS'today last register games sign pick sport late dontblowit'
p118
asS'2013_25'
p119
(lp120
S'bother getting involved'
p121
asS'2012_35'
p122
(lp123
S'saturday long weekendwhat'
p124
aS'something amazing weekend tell'
p125
aS'like thrill sports travel meeting people well youve check'
p126
aS'thank local sports associations making games happen check videos ball'
p127
aS'bermuda sports associations thank'
p128
aS'lets celebrate launch games sept great opportunity business company'
p129
aS'play beach vball favourite beach play bermuda'
p130
aS'play beach vball favourite beach play bermuda'
p131
aS'games schedule'
p132
aS'games local sports associations come together amazing extravaganza watch video clip'
p133
aS'meet next international relationship personal business growth games 2528th register today'
p134
aS'join bermuda email miami info'
p135
aS'know coming open house event september rsvp'
p136
aS'click like coming open house event september please make sure rsvp'
p137
aS'click like coming oepn house event september please make sure rsvp'
p138
asS'2013_27'
p139
(lp140
S'good luck athletes competing corporate games games begin cguk'
p141
asS'2013_20'
p142
(lp143
S'easy steps turning marketing content ideas reality'
p144
asS'2013_21'
p145
(lp146
S'title matters'
p147
asS'2012_26'
p148
(lp149
S'running training plan'
p150
asS'2012_49'
p151
(lp152
S'tips build revenue mailing listwwwfarzanahcom blog'
p153
aS'crab glass wine beer coffee pour games results give back'
p154
aS'updated weebly website'
p155
asS'2013_28'
p156
(lp157
S'facebook business summer'
p158
asS'2013_29'
p159
(lp160
S'what\xe2\x80\x99s name'
p161
asS'2013_5'
p162
(lp163
S'super cheap ways market small business'
p164
aS'watching superbowl sunday team routing ravens 49ers'
p165
asS'2013_4'
p166
(lp167
S'need engagement advise'
p168
aS'inspiration nastygal'
p169
aS'updated weebly website'
p170
asS'2013_7'
p171
(lp172
S'nahki'
p173
asS'2013_1'
p174
(lp175
S'vote great idea introducing icord candyinspired'
p176
aS'happy year everyone start right simple tips'
p177
aS'\xe2\x80\x9cwhen door happiness closes another opens often took long closed door'
p178
asS'2013_3'
p179
(lp180
S'prime rules running successful online business'
p181
aS'happy friday enjoy happy hour weekend stay healthy calm positive'
p182
aS'armstrong next come back rebuild brand'
p183
asS'2013_2'
p184
(lp185
S'thats blue'
p186
aS'updated weebly website'
p187
asS'2013_9'
p188
(lp189
S'happy friday everyone find hard healthy weekend tips help stick'
p190
aS'increase sales march madness daylight savings paddys promotions'
p191
asS'2013_8'
p192
(lp193
S'aussies womens cricket world cricket'
p194
asS'2012_14'
p195
(lp196
S'good luck athletes competing carifta 2012 everyone bermuda corporate games goforgold bdacg'
p197
aS'gamesfact soccer worlds popular sport played people countries readywhats sport bdacg'
p198
asS'2012_12'
p199
(lp200
S'bdacg sports fact historians confirmed tenpin bowling existed sport since 300ad germany readywhats sport'
p201
asS'2012_13'
p202
(lp203
S'bermuda corporate games destination october chance check bdacg'
p204
aS'business quick power lunch workout bdacg whats sport'
p205
asS'2012_11'
p206
(lp207
S'whipping teams miami cant wait head bermuda compete first atlantic games\xe2\x80\x9d bdacg'
p208
aS'photos bdacg toronto golf expo posted photos facebook album'
p209
aS'bdacg sport fact approx 42000 tennis balls used matches wimbledon championship readywhats sport'
p210
aS'bdacg sport program launched readywhats sport'
p211
asS'2012_52'
p212
(lp213
S''
p214
aS'often becomes believes keep saying cannot certain'
p215
asS'2012_50'
p216
(lp217
S'cordies executive keep table great gift idea quirky products'
p218
aS'great attitude enter 2013 enter every activity without giving mental recognition'
p219
asS'2012_51'
p220
(lp221
S'days christmas shopping done simple idea volunteer'
p222
asS'2012_18'
p223
(lp224
S'bermuda corporate games ladies getting business tomorrow good luck everyone game bdacg'
p225
asS'2012_19'
p226
(lp227
S'good luck teams competing wend gutted cant wait pics enjoy thisisanfield wccs'
p228
asS'2013_11'
p229
(lp230
S'know adding shot wheatgrass beer turn green happy healthy safe'
p231
aS'welker signs denver broncos think patriots without'
p232
aS'promotions work awesome results'
p233
aS'corned beef cabbage patricks take look healthy recipe'
p234
aS'trying shape summer check exercises find right'
p235
aS'well done competitors island challenge make'
p236
asS'2013_10'
p237
(lp238
S'good luck everyone taking part bermudas island challenge tomorrow raising awareness great'
p239
aS'hello friday check tips healthy happy hour'
p240
aS'feeling stressed check ways reduce stress level'
p241
aS'want exercise regimen body weight training theres lots benefits'
p242
aS'controversial dismissal uniteds nani gave advantage victory real madrid trafford'
p243
aS'horns ferguson mourinho head head tonights clash trafford score predictions'
p244
asS'2013_13'
p245
(lp246
S'happy easter hope happy healthy easter sunday fish cakes'
p247
aS'final teams ncaa bracket looking'
p248
asS'2013_12'
p249
(lp250
S'plans saturday free hour nonstop fitness work'
p251
aS'live healthy lifestyle trying commit better living article great'
p252
aS'start march madness today'
p253
aS'today national hangover tips help cure patricks hangover'
p254
asS'2013_15'
p255
(lp256
S'happy friday'
p257
aS'think tiger take home green jacket weekend masters'
p258
aS'chia seeds good would thoughtdo chia seeds diet'
p259
asS'2013_14'
p260
(lp261
S'updated weebly website'
p262
aS'tips create clear objectives turn marketing ideas reality'
p263
aS'beach body coming along look workout tips help beach body shape'
p264
aS'congratulations juma mouchette bermuda bronze 5000m carifta games'
p265
aS'opening heres complete schedule opening games whose team'
p266
asS'2013_17'
p267
(lp268
S'show earthy side today every'
p269
asS'2012_34'
p270
(lp271
S'hello fansthank part community appreciate support bermuda games'
p272
aS'follow playing kind sports weekend like'
p273
aS'click like playing kind sports weekend'
p274
aS'happy hour tonight'
p275
aS'check sign unique sports travel experience 2528th'
p276
aS'check sign unique sports travel experience bermuda love beachesi know'
p277
aS'check sign unique sports travel experience'
p278
aS'happy friday breaking news online registration games open dont miss sign'
p279
aS'happy friday fans great breaking news online registration games open'
p280
aS'days games choose sports taking place across weekend come join enter'
p281
aS'nice bestbut best brings worst sport brings best'
p282
aS'please join sept open house event learn games signed up96 pitts'
p283
aS'company approached biggest corporate event island make sure learn'
p284
aS'join bermuda launch games 2528th would love inspired'
p285
aS'looking forward seeing join'
p286
aS'join games october 2528th'
p287
aS'building fire everyday train fuel right moment light match 25th'
p288
asS'2013_18'
p289
(lp290
S'cinco tips business celebration cinco mayo'
p291
asS'2012_36'
p292
(lp293
S'stormy outwith hurricane perfect time surf games site figure'
p294
aS'posted photo facebook'
p295
aS'stay safe bermuda ready hurricane something viewing pleasure'
p296
aS'game register today four business multisport team building extravaganza'
p297
aS'hurricane watch take break watch'
p298
aS'whos teambuilding games news grapevine teams forming across sports know impartofit bdacg'
p299
aS'thank everyone made last night open house event great turn'
p300
aS'rsvpd great afterwork open house networking event join learn need'
p301
aS'good morning bermuda everyone hello latest entrants bdacg entering golf whatsyoursport'
p302
aS'games welcome entered triathlon ready take comers game bdacg whatsyoursport'
p303
asS'2012_37'
p304
(lp305
S'happy hour time enjoy cocktail friends think sport remember'
p306
aS'posted photo facebook'
p307
aS'join extravaganza ticket gets best street party beach complimentary food'
p308
aS'know registration includes games participation choice sports access games'
p309
aS'registration closes october please sure enter team'
p310
aS'welcome hiscox staff entering corporate games hiscox getting game onare bdacg inittowinit'
p311
aS'three types workers things done watch things done'
p312
ag214
aS'posted photo facebook'
p313
aS'games open know sport signed ultimate games package includes games'
p314
aS'games heating many options company sign team advertise'
p315
aS'usain bolt bermuda common world\xe2\x80\x99s fastest usain \xe2\x80\x98lightning \xe2\x80\x98bolt broke'
p316
asS'2012_33'
p317
(lp318
S'like travel sports weve perfect event email info'
p319
aS'join community like games bermuda october 2528th'
p320
aS'many noon great tips utilize success'
p321
aS'favourite sport play join community sport best represents'
p322
aS'using right tips make better equipment'
p323
aS'play course super star golfer mcilroy bermuda corporate games golf tournament 2528th'
p324
asS'2013_23'
p325
(lp326
S'problem talking people'
p327
asS'2012_38'
p328
(lp329
S'little inspiration taking challenge life fitness health spiritual career'
p330
aS'best inclusive deal ticket gets days games entertainment chance meet amazing people'
p331
aS'games heating renaissance entered bdacg ready game register workhardplayhard'
p332
aS'hello alterra latest entrants bdacg picked sport register inittowinit'
p333
aS'happy friday thank likes growing fans disappointed many'
p334
aS'welcome games appleby latest entrants tennis beach volleyball squash golf game appleby bdacg'
p335
aS'registered games registration closes visit pick sport game'
p336
aS'join conversation tell sport playing 27e6c9be'
p337
aS'inclusive deals bermuda registration gets sports choose'
p338
aS'inclusive deals bermuda registration gets sports choose'
p339
aS'hello welcome games picked sport register today game bdacg workhardplayhard'
p340
aS'good morning entry welcome arthur morris group bdacg whats sport getyourgameon'
p341
aS'join games group'
p342
aS'social games join bdacg group 27e6c9beget latest updates automatically entered prizes'
p343
aS'another entry butterfield vallis joined games registered deadline bdacg whatsyoursport'
p344
aS'welcome latest entrants badminton game next getfitforbusiness'
p345
aS'join 2528th snap action shots games visit'
p346
aS'games pitts buzzing entries flying front fest works'
p347
aS'looks like bermuda commercial bank welcome bdacg registered workhardplayhard'
p348
aS'bermuda hospitals part corporate games whats sport bdacg teamplayer'
p349
aS'resgister today time runs registration closes october'
p350
aS'global sponsors catlin bermuda corporate games game catlin bdacg inittowinit'
p351
aS'posted photo facebook'
p352
aS'wowmore entries coming deloitte entered bermuda corporate games join'
p353
aS'wowmore entries coming deloitte entered bermuda corporate games'
p354
aS'deloitte entered corporate games deloitte whats sport bdacg whatsyoursport'
p355
asS'2012_39'
p356
(lp357
S'excited announce aspen bermuda social sponsor ready game inittowinit register bdacg'
p358
aS'kitson group signed bdacg keep coming registration closes picked sport workhardplayhard'
p359
aS'happy friday aspen bermuda bdacg much time left register pick sport game'
p360
aS'business vr4smallbiz'
p361
aS'looks like carpentry ready game face theres much time left days register bdacg'
p362
aS'hello ariel ready bowl bdacg weve fierce competition register workhardplayhard'
p363
aS'time board games days sports networking street festivals beach events'
p364
aS'good morning turkey entered running time tickingvisit pick sport getfitforbusiness'
p365
aS'entries keep coming entered running whats sport dont forget register bdacg'
p366
aS'entered softball welcome bdacg next register deadline getyourgameon'
p367
aS'sailing entrywelcome games picked sport week left register workhardplayhard'
p368
aS'another entry entered golf next join games bdacg teamplayer'
p369
aS'gooood morning welcome games bdacg getting closer closer register business'
p370
aS'going never going home game bermuda sign'
p371
aS'entries flooding joined games pick sport registration closes getfitforbusiness bdacg'
p372
aS'welcome games looks like theyre inittowinit registered game'
p373
aS'ball rolling bermuda hospitals theyve entered triathlon picked sport bdacg getyourgameon'
p374
as.