(dp0
S'2013_42'
p1
(lp2
S'\xe2\x80\x9cdrinking whiskey shouldn\xe2\x80\x99t fucking pick'
p3
aS'remember diving head first impromptu scat solo always safe start boot kabob'
p4
aS'called bitch compliment cause bitches stuff done work tinafey amypoehler'
p5
asS'2013_43'
p6
(lp7
S'really didnt realize cops considered sensitive vegetation'
p8
asS'2013_40'
p9
(lp10
S'best friends wedding\xe2\x80\x9d addawordruinamovie'
p11
aS'please tell slapped'
p12
aS'tastemaker access perks products offers trendsetting'
p13
asS'2013_46'
p14
(lp15
S'butterbeer latte rose starbucks bless making potterhead dreams come true'
p16
aS'congrats first segment daily shows racistnot racist piece harrisonburg'
p17
aS'loving quotes'
p18
aS'someone tell ehall hurry train would lose mind made'
p19
asS'2013_44'
p20
(lp21
S'dont forget come festival costume contest dance party'
p22
aS'dont forget come festival tomorrow well music great prizes costume contest'
p23
asS'2013_45'
p24
(lp25
S'happy like jmuhomecoming treat teddygrahams icing festival'
p26
aS'haha problem students great time looking forward working hopefully'
p27
aS'ladder first popcorn season walmart dont even care cause totally worthit christmas2013'
p28
asS'2013_26'
p29
(lp30
S'guys guys cant wndrbby coolestkidever'
p31
aS'female armor'
p32
asS'2013_22'
p33
(lp34
S'hburg visit'
p35
asS'2013_23'
p36
(lp37
S'help make happen hell back duke dogs tale dukes harrisonburg'
p38
asS'2013_28'
p39
(lp40
S'cool would live world george zimmerman offered trayvon martin ride home rain'
p41
aS'sorry justice system failed trayvon martin'
p42
aS'poehler casts game thrones parks'
p43
asS'2013_29'
p44
(lp45
S'jesse rippers reuniting performing tonight jimmy fallon 90sgirlso\xe2\x80\xa6'
p46
asS'2013_50'
p47
(lp48
S'youre late studying make sure come festival free food midnight6'
p49
asS'2014_3'
p50
(lp51
S'loving nymcleanfreak shampoo hair feels clean smooth youre best influenster violetvoxbox'
p52
asS'2013_11'
p53
(lp54
S'tastycakes coffee perfect start'
p55
aS'first ladys cream social kick madison week today 11am1pm dhall carrier yummy'
p56
aS'likes cream come cream floats monday explore different type cream'
p57
aS'make sure check commons amazing cream social inauguration harrisonburg'
p58
asS'2013_36'
p59
(lp60
S'reading stories whsv website makes sadapparently news station needs proofreader staff harrisonburg'
p61
asS'2013_13'
p62
(lp63
S'harry potter withnail actor richard griffiths passes away'
p64
aS'sorry iran free didnt memo wake sheeple'
p65
aS'animaniacs supercut zany includes theme songs alterate endings'
p66
aS'loving characters firefly lived westeros would sigils'
p67
aS'illustrated solo leia lando current looks turned starwars poster'
p68
aS'agreed really cant megan aprildid stop even consider felicia'
p69
aS'speaking starwars learn pronounced layuh leeuh youd think years hounding later shed know'
p70
aS'nerd girl problems everyone nerdy friends thinks princess leia hoodie creepy nerdproblems starwars dontcare'
p71
aS'biggest liars comics'
p72
aS'finds cast whitewashed really disappointing tmnt ihateyoumichaelbay'
p73
aS'boyfriend bought signed flashdrive tshirt joco riding wampa paxeast thats true love people'
p74
aS'rewatching todaygotta love little avatar'
p75
asS'2013_12'
p76
(lp77
S'someone audio jurassic park scenes return jedi oddly enough works'
p78
aS'cant believe graduating lined company love building love surrounded people love sweet'
p79
aS'sorry cover doesnt make hungrywell dammit resigning'
p80
asS'2013_14'
p81
(lp82
S'life voice lisa simpson'
p83
aS'peter jackson releases footage next hobbit movie stephen colbert billy boyd'
p84
asS'2013_18'
p85
(lp86
S'officially alum foreveraduke'
p87
asS'2013_37'
p88
(lp89
S'start encouraging students frequent java city instead starbucks organic fair trade'
p90
asS'2013_10'
p91
(lp92
S'encarta cdrom isnt working report tomorrow 90sgirlproblems'
p93
aS'tomorrow kicks madison week check sorts events'
p94
aS'tomorrow free cream social commons stop awesome work weve done make special week'
p95
aS'allowed book fair without serious spending limit nerdgirlproblems'
p96
aS''
p97
aS'everyone else excited snow excited spend next marathoning nerdgirlproblems'
p98
aS'hungry fridge theendlessstruggle'
p99
aS'artist chris sprouse leaves orson scott cardpenned superman story'
p100
aS'guys someone cosplayed hawkeye initiative emerald city comicon'
p101
aS'vulcan logical name plutos moons'
p102
aS'tomb raider chance make difference'
p103
asS'2014_23'
p104
(lp105
S'absolutely official lupita nyon\xe2\x80\x99o gameofthrones\xe2\x80\x99 gwendoline christie starwars'
p106
asS'2014_22'
p107
(lp108
S'girl girl meets world 90sgirlproblems'
p109
aS'dont want give money dont pretty simple anonymous safety victim'
p110
aS'started campaign assure legitimate questions feel free'
p111
aS'shooters ideas women crazy standards world today norm'
p112
aS'control events happen decide reduced maya angelou'
p113
aS'beloved departed angelou teacher mentor'
p114
aS'watch interview maya angelou september 2012 nerdland'
p115
aS'yesallwomen think assault share thread decide'
p116
aS'part problem'
p117
aS'father victim shootings dont give shit feel sorry work something'
p118
aS'yesallwomen'
p119
aS'personal piece today college class'
p120
aS'yesallwomen every woman remembers first time experienced street harassment'
p121
aS'every read yesallwoman thread five minutes stop defensive consider womans dayt\xe2\x80\xa6'
p122
aS'call crazy hope someday women rights guns'
p123
aS'todays feminism fact know year american women could credit cards without'
p124
aS'seriously dont tell smile yesallwomen'
p125
aS'still teaching women raped rather telling rape yesallwomen'
p126
aS'steubenville rape case biggest tragedy rapists football careers yesallwom\xe2\x80\xa6'
p127
aS'yesallwomen schools restrict girls clothes prevent boys ogling arent teaching girls arent'
p128
aS'people brought best friend black notallmen'
p129
aS'people actually getting insulted trolled life yesallwomen'
p130
aS'every time sexist behavior explain carefully reactive yesallwomen'
p131
aS'thats ridiculous stay strong sounds like youre everything raise well'
p132
aS'thank means much'
p133
aS'yesallwomen people twitter calling character question talk raped'
p134
aS'serious lying raped lying flashbacks panic attacks diagnosed ptsd yesallwomen'
p135
aS'yesallwomen still afraid talk family sexual violence suffered dont believe'
p136
aS'yesallwomen didnt raped hanging people thought friends'
p137
aS'nailed'
p138
aS'women taught hate reject taught hate women women reject'
p139
aS'real don\xe2\x80\x99t hate women stand stand right beside yesallwomen'
p140
aS'monsters imagine bowl mampms poisoned ahead handful mampms poison\xe2\x80\x9d'
p141
aS'husbands sons boyfriends brothers friends strong women fill lives love feminism fighting'
p142
aS'think yesallwomen attack youre listening women kind problem'
p143
aS'yesallwomen every conversation derailed denying privilege stop'
p144
aS'remember misogynist rampage next time claim online threats \xe2\x80\x9cjust boys boys\xe2\x80\x9d \xe2\x80\x9cjust internet'
p145
aS'repeat fact male victims isnt proof misogyny evidence misogyny hurts'
p146
aS'robin thicke write song date rape cheat wife people feel sorry leav\xe2\x80\xa6'
p147
aS'shamed saying insulted saying yesallwomen'
p148
aS'women 1914 fought right vote women 2014 fight right dress please yesa\xe2\x80\xa6'
p149
aS'yesallwomen boys raped best friend could still joke interrogation room feel remorse'
p150
aS'yesallwomen elliot rodger hated jewish people would hate crime hated women'
p151
aS'states rapists whose victims choose keep baby parental rights like weekend visita\xe2\x80\xa6'
p152
aS'yesallwomen rape crime victim prove wasnt fault'
p153
aS'think yesallwomen hating havent read stream hating injustice hating'
p154
aS'make sandwich shirts arent dress code strap yesallwomen'
p155
aS'taught dont leave drink alone instead dont drug someone yesallwomen'
p156
aS'yesallwomen shouldnt feel need call boyfriend every time walk work'
p157
asS'2014_25'
p158
(lp159
S'someone disney know really cool twist dystopian would star wars stand alone film teen leia'
p160
aS'seriously youre alum arent furious need wake standwithbutters'
p161
aS'standwithbutters women world deserve justice'
p162
aS'wonder officials swept tragedy sleep night standwithbutters'
p163
aS'sarah butters brave woman whole alumni community behind standwithbutters'
p164
aS'fact people saying sexual assault fault chose blacked literally disgusts'
p165
aS'standwithbutters apparently mens educations important womans body need yesa\xe2\x80\xa6'
p166
aS'james madison university change response sexual assault standwithbutters'
p167
aS'expelled fraternity takes sexualassualt seriously standwithvictims standwithbutters'
p168
aS'needs hold mike lunney dertzbaugh nick scallion accountable horrific actions endsexualassa\xe2\x80\xa6'
p169
aS'story needs told support coworker friend ashamed standwithbutters'
p170
aS'students told person isnt sober cant give consent josh bacon seem forgotten stan\xe2\x80\xa6'
p171
aS'whether shes sister friend family complete stranger sarah modern martyr women everywhere'
p172
aS'make embarrassed virginia standwithbutters'
p173
aS'duke donations things rectified wrongcall dobetter standwith\xe2\x80\xa6'
p174
aS'horrible decision clear case sexual assault unconscionable change standwithbutters'
p175
aS'disheartening hear would lessen gravity sexual assault incident standwithbutters'
p176
aS'judicial system absolutely disgusting standwithbutters'
p177
asS'2014_24'
p178
(lp179
S'photos brazilians furious spent host worldcup protest opening'
p180
aS'excited return magic school world 90sgirlproblems'
p181
asS'2014_27'
p182
(lp183
S'illustrated guide american personhood scotus hobbylobby'
p184
aS'apply kitchen garden tours back find school community come visit'
p185
aS'nothing says republican like threatening defenseless women children 50th anniversary civilrightsact'
p186
aS'nicknaming women beyonc\xc3\xa9 voters exactly dont vote republican also dont beys\xe2\x80\xa6'
p187
aS'much hobby lobby decision impacting types birth control'
p188
aS'ability control reproductive organs enabled become part american workforce economy hobbylobby scotus'
p189
aS'absolutely disgusted todays hobbylobby decision scotus american women back least decade'
p190
aS'american women\xe2\x80\x99s equality continues undermined privileging religion public discourse'
p191
aS'hardworking women price todays troubling scotus decisions wages health care dignity'
p192
aS'totally none women writing case called whores wait'
p193
aS'conservative mission shrink government small enough double chastity belt'
p194
asS'2014_26'
p195
(lp196
S'days wish could wear disturb signs around neck\xf0\x9f\x98\x8f'
p197
aS'always likeagirl'
p198
aS'remind prolifers abortion common illegal dangerous want'
p199
aS'power structure sees word abortion abandons pretense protecting individual liberty'
p200
aS'want chris hemsworthstarring fairy tale vehicle call prince charming call fucking'
p201
aS'heartbreaking news vital voice justice silenced'
p202
as.