(dp0
S'2013_48'
p1
(lp2
S''
p3
aS'well know still idea done wrong resign mrmayor youre disgracing country'
p4
aS'progress'
p5
aS'theyre mayor'
p6
aS'gooooo rouuuuughriiiiiiiddeeeeeeeeersssssssss'
p7
aS'yuppers'
p8
aS'yeah'
p9
asS'2013_46'
p10
(lp11
S'think might make another alaina anyones looking partner'
p12
ag3
aS'cant find good hangs gtgt'
p13
aS'tryiiiiiiiing'
p14
aS'shrugs want able write blake'
p15
aS'theres canon blake unused'
p16
aS'mmkay'
p17
aS'need keeps cuddling'
p18
aS'though snuggle hugs'
p19
aS'awak back'
p20
aS'happaene'
p21
aS'starter'
p22
aS'dammit'
p23
aS'even'
p24
aS'ineven'
p25
aS'sense smell strongly linked emotional memory'
p26
aS'youd think calgary would hire suicide rates'
p27
aS'ooooh'
p28
aS'soyou want wiggly eyebrows'
p29
ag3
aS'accounts ipad shes back'
p30
aS'kira love kira'
p31
aS'anyone want blake nora'
p32
aS'second didnt really make sense'
p33
aS'bitches living'
p34
aS'9gager knows feel'
p35
ag3
aS'aaaand season three'
p36
aS'finding pictures minidany'
p37
aS'sexual arousal makes person accept things theyd otherwise find disgusting'
p38
ag3
aS'nothing makes time quite like episodes psychosisparanoia'
p39
aS'bored'
p40
aS'fake friends like faced'
p41
aS'well wont spoil'
p42
aS'retweet'
p43
aS'friend tweet much'
p44
aS'ohhhhh part'
p45
aS'theyre obnoxious little pricks yeah'
p46
ag3
aS'knooooow'
p47
ag3
aS'beth know feel girl'
p48
aS'theres really cute line carol saying remember liked first love'
p49
aS'dont even recognize'
p50
aS'love annoying characters fighting whos annoying'
p51
aS'bugs shit havent happened'
p52
aS'small spoil'
p53
aS'lexis episode behind'
p54
aS'dale shoot shane shouldve'
p55
aS'like playing portal haha\xe2\x80\x9d loved part'
p56
aS'dammit lori shitty driver'
p57
aS'daryl thats obvious'
p58
aS'looks weird without beard'
p59
aS'cherokee rose daryl staph sweet carol'
p60
aS'hershel hershel becomes really awesome'
p61
aS'love maggie'
p62
aS'hate shane everyone doed'
p63
aS'dude started reaching yesterday'
p64
aS'awesome dream recreated'
p65
aS'stay house carl'
p66
aS'revenge halo four muahahahaahaahahaha'
p67
aS'sooner later going kill someone else sooner later goingg kill someone else dammit listen dale motherfuskers'
p68
aS'power winky face need whipped cream need whipped cream'
p69
aS'might next year'
p70
aS'grrrrr want next book'
p71
aS'wait read much anyone'
p72
aS'like someone spoil shit'
p73
aS'feel weird tease people spoiling things time never actually gonna finish'
p74
aS'gonna feel guilty spoiler'
p75
aS'dont even know episode anymore'
p76
aS'dont want damn spoiler dont read past part says spoiler'
p77
aS'holy shit whered past minutes'
p78
aS'spoiler sofia getting killed'
p79
aS'first episode ever even almost cried'
p80
aS'sofia'
p81
ag3
aS'gross sobbing'
p82
aS'noot sofiiaaaaaaaaaa'
p83
aS'still gigglycower corner couch thing'
p84
aS'sofiiiiiiaaaaaaaaaaaa'
p85
aS'noooooooo'
p86
aS'andrea little bitch'
p87
aS'fucks sake shane'
p88
aS'fuckberries'
p89
aS'dammit shane stop'
p90
aS'still cant believe bloody americans snow days'
p91
aS'getting ready performance stressful musicproblems'
p92
aS'xbox asked want keep watching walking dead dont worry major seaweed havent developed life past hours'
p93
aS'hasnt shat happy'
p94
aS'used enjoy sort thing'
p95
aS'dude seen memes'
p96
aS'gonna stay quiet chill'
p97
aS'heart kidding\xe2\x80\x9d mhmm'
p98
aS'adding problem dammit'
p99
aS'dont expect hard'
p100
aS'probably save aaron'
p101
aS'scientists mexico discovered make diamonds tequila'
p102
ag3
aS'dont apologize anything isnt fault'
p103
aS'well'
p104
aS'didnt know first name till seven thats adorable'
p105
aS'intestine necklace'
p106
aS'thats disgusting'
p107
aS'didnt know first name till seven'
p108
aS'bitches tryin stop andreas whining course'
p109
aS'dick'
p110
aS'merle'
p111
aS'well done rick well done indeed'
p112
aS'andrea whiney bitch'
p113
aS'bright side itll fall kills glass half full kind forgot line'
p114
aS'climg climb climb'
p115
aS'rick dammit'
p116
aS'gleeeeeeeeeeeeeeeen'
p117
aS'assfhfoksfjvowifoenrvojernvk'
p118
ag3
aS'shit shit shit'
p119
aS'assfhgkglerounevronieuvrjeurncejnrc zombies'
p120
aS'goes horse'
p121
aS'mhmm'
p122
ag3
aS'unexpectedly snows kill'
p123
aS'victim finds hiding dont yell surprise'
p124
aS'flames suck great tampa'
p125
aS'grade three time went school next swear guys said'
p126
aS'remember game vividly'
p127
aS'mhmm'
p128
ag3
aS'subtweets arent shoe fits wear'
p129
aS'badass hospital cape'
p130
aS'looks like dorky superman bike'
p131
aS'dont worry rick scared'
p132
aS'medical supplies dammit rick youll need'
p133
aS'pretty much giggling cowering corner couch holy shit hats dead guys arent moving'
p134
aS'mass genocide aaaaahhhhhhh'
p135
aS'flies'
p136
aS'shiiiiiit zombies'
p137
aS'cant colours'
p138
aS'really creepy black white'
p139
aS'clings onto teddy bear'
p140
aS'aaaahhhhh dont dead open inside'
p141
aS'probably screaming house dense motherfucker'
p142
aS'cant imagine carls mother'
p143
aS'ifiwereinthehungergames fall tree sleeping'
p144
aS'maybe without sound'
p145
aS'looks like watching black white'
p146
aS'lazy correct'
p147
aS'reason autocorrect keeps putting viserys caps'
p148
aS'viserys dying makes happy'
p149
aS'probably year half since last watched season'
p150
aS'viserys little prick'
p151
aS'know'
p152
aS'really want watch first season'
p153
aS'people like dont trust easily trust everyone total badass dont mess hide'
p154
aS'brooooooonn'
p155
aS'morde morde morde moooooooorde'
p156
aS'dream right'
p157
aS'best pickup line ever'
p158
aS'alas settle bitches game'
p159
aS'sleep would amazing'
p160
aS'aaaand dead niiight'
p161
aS'gonna start pulling together roses shit yknow less shitty originally'
p162
aS'system'
p163
aS'zero sweater weather'
p164
ag3
aS'intriguing'
p165
aS'dude zero november thats crazily'
p166
aS'shrugs sall cool'
p167
aS'nuzzles cuddles'
p168
aS'still music\xe2\x80\x9d guess nobody nobody together'
p169
aS'pulls vergil cuddle'
p170
ag3
aS'want official'
p171
aS'cuddle'
p172
aS'cuddling puppy bored'
p173
ag3
aS'mhmm'
p174
ag3
aS'wait wait lightning tampa right'
p175
aS'hate stupid occasional stutter'
p176
aS'apparently painful speak swollen tonsils also currently incapable voicing thoughts well'
p177
aS'depression cause dream times normally would'
p178
aS'lexi'
p179
aS'hate oilers'
p180
aS'sigh unfortunately none partners follow'
p181
aS'bored'
p182
aS'feeling people start arriving stop zombie swarme approaching people'
p183
ag3
aS'dafaq read'
p184
aS'pretty much lurking practice rooms past half hours'
p185
asS'2013_47'
p186
(lp187
g3
aS'zombie apocalypse ever happens theyll freeze'
p188
aS'weve survived quite'
p189
aS'still sweater weather sweatpants jeans'
p190
aS'wear jeans shirt sweater jacket'
p191
aS'gets pretty brutal cower wait'
p192
aS'well ever move doubtlessly favourite calgarians'
p193
aS'januaryfebruaryish weatherworst gets around'
p194
aS'thaaaaat'
p195
aS'mistake canadian half time youre cool america'
p196
aS'football'
p197
aS'love vegas saskatchewan saskatchewan winter'
p198
aS'apparently upon time american teams'
p199
aS'even know grey think youre american'
p200
aS'canadian football league'
p201
aS'favourite thing winter leave slurpee stays cool hours'
p202
aS'either hockey curling skating cant sport\xe2\x80\x9d'
p203
aS'didnt happen'
p204
aS'bullshit'
p205
aS'grey game tonight goroughriders'
p206
aS'apparently'
p207
aS'seriously everyone losing flights canceled'
p208
aS'warm'
p209
aS'lololololol'
p210
aS'anyone around'
p211
aS'echoooooooooooooooo'
p212
aS'holy christ bored'
p213
aS'wake none makes sense'
p214
aS'always feel inspired write half asleepz'
p215
aS'love'
p216
aS'ever tired spent sure whether makes sense makes sense youre really tired'
p217
aS'exactly sure thats called might time sleep'
p218
aS'nooooooo eddarrrrrrrrrrrrrrrrrrd'
p219
aS'someone talk pesters boredom'
p220
aS'lemme know youre niiiight'
p221
aS'need partner devon'
p222
ag3
aS'hard depressed'
p223
aS'makes thinks stupid'
p224
ag3
aS'ideas meet without bitched'
p225
ag3
aS'really flipping bored wants'
p226
aS'school'
p227
aS'certainly praying'
p228
aS'canada'
p229
aS'back'
p230
aS'okay maggie fuck love'
p231
aS'giggling screwing around aaron'
p232
aS'foxy roxy talk tayriza'
p233
aS'love aarons getting taros like whateva'
p234
aS'alright baby need northsouth'
p235
aS'parents thought killed today'
p236
aS'bishop'
p237
ag3
aS'mhhmm'
p238
aS'ship daryl beth weird'
p239
aS'spaghetti tuesday better involve spaghetti letters dont wanna confuse daryl even illiteratetrailertrash'
p240
aS'rick starts crying lori always thing mocking carl'
p241
ag3
aS'ripviolet'
p242
aS'thewalkingdead'
p243
aS'daryl dies thewalkingdead'
p244
aS'carol back prison next weeks episode thewalkingdead'
p245
aS'ending prediction'
p246
aS'like carol thewalkingdead'
p247
aS'hershel keeping christmas spirit alive prison'
p248
aS'returnofthegovernor thewalkingdead'
p249
aS'supping david nice'
p250
aS'performance upcoming'
p251
aS'nailed'
p252
aS'giggles'
p253
aS'gonna cold'
p254
aS'know annoying every tuesday amounts survive unfollow choice'
p255
aS'good third season'
p256
ag3
aS'line reason fondness viserys'
p257
aS'brave didnt kill dragons brave rode'
p258
aS'sixth character much'
p259
aS'omfg xdddd youre lucky dont learn wear heels trying slip'
p260
aS'bahahahaahaha pretty much weather right happen texas everyone would freak'
p261
aS'stahp staph happy died whitney bitch'
p262
aS'talk give sarcastic bitch response'
p263
aS'dont even know back sarcasm anymore'
p264
aS'made sense'
p265
aS'dont patronize condescend'
p266
aS'really performance tomorrow needs sleep'
p267
aS'sarcastic bitch maggie activate'
p268
aS'really clue'
p269
aS'must difficult'
p270
aS'realize watched whole series rightthat started watching show almost years'
p271
aS'christ tired'
p272
ag3
ag3
aS'apparently theres poll news stations sick ford please resign mayor'
p273
aS'ford please stop embarassing country'
p274
aS'whether theyre plausible honestly nuts question'
p275
aS'realized many conspiracy theories family'
p276
aS'course would require harper step betting years'
p277
aS'swear every fucking deity thats ever worshipped ford gets elected prime minister moving america'
p278
aS'inception'
p279
aS'always shit timing'
p280
aS'fuck fuck fuck fuckity fuckballs'
p281
aS'took surgery means infection spreading'
p282
aS'even something extreme amputation seems unlikely'
p283
aS'okay whats worst could happen'
p284
aS'thats create panic attack'
p285
aS'well went shit'
p286
aS'bbbyyyyyyyy'
p287
as.