(dp0
S'2013_43'
p1
(lp2
S'green life good life'
p3
asS'2013_40'
p4
(lp5
S'mean green squeaky clean'
p6
asS'2011_18'
p7
(lp8
S'organic fungicides gardens landscapes'
p9
asS'2013_46'
p10
(lp11
S'life without taking risks'
p12
aS'everyones long weekend freecountry thankstooursoldiers godblessamerica'
p13
asS'2013_47'
p14
(lp15
S'branch christmas tree cool enviroselects christmas pinterestneverfails'
p16
asS'2011_50'
p17
(lp18
S'need chlorine alternative'
p19
asS'2011_13'
p20
(lp21
S'chemical contact time portafoamer'
p22
aS'check relevant current helpful publication organic living\xe2\x80\xa6'
p23
aS'interview environmentallyfriendly pond algae control thing environmentallyfriendly algae'
p24
aS'interview environmentallyfriendly pond algae control'
p25
asS'2011_12'
p26
(lp27
S'organic food market trending'
p28
aS'check article organic farming'
p29
aS'newsletter effective systemic pest control'
p30
aS'composting organic garden three important tips consider\xe2\x80\xa6'
p31
aS'greenclean xtreme concentrate liquid bacteria stimulates ecosystem helps thrive'
p32
asS'2011_11'
p33
(lp34
S'greenclean liquid blue colorant blocks sun\xe2\x80\x99s rays helping algae grow'
p35
aS'green clean tablets improve water quality ponds water features'
p36
asS'2011_10'
p37
(lp38
S'greencleanpro attacks algae contact killing within hours application'
p39
aS'tired rampant algae growth spoiling beautiful pond'
p40
asS'2012_41'
p41
(lp42
S'greenclean products registered california'
p43
asS'2011_16'
p44
(lp45
S'mold doesnt chance sanidate'
p46
aS'\xe2\x80\x9cimmediately\xe2\x80\x9d battle high prices tips lower emissions process'
p47
asS'2011_15'
p48
(lp49
S'want learn prevent control fusarium'
p50
aS'azaguard rebate days left'
p51
aS'pythium water treatment hydroponic aquaponic systems'
p52
asS'2011_14'
p53
(lp54
S'carbon footprint'
p55
aS'biological fungicides oxidate compare'
p56
asS'2013_32'
p57
(lp58
S'enviroselects photo contest gift certificate posted picture photocontest'
p59
aS'helping water issues spending much water borne diseases'
p60
aS'roots goodness'
p61
asS'2011_5'
p62
(lp63
S'ounce prevention enviroselects january 2011 newsletter'
p64
aS'onetwo punch controlling fusarium crops'
p65
asS'2012_27'
p66
(lp67
S'biological fungicides oxidate compare'
p68
aS'organic fruit vegetable wash worryfree snacking'
p69
asS'2011_27'
p70
(lp71
S'treatment foliar nematodes hosta'
p72
aS'powdery mildew treatment working'
p73
asS'2012_25'
p74
(lp75
S'residuefree chemistry inspiration'
p76
asS'2012_24'
p77
(lp78
S'oxidate readytospray powdery mildew'
p79
aS'lower fiesta weed killer application rate affordable'
p80
asS'2012_22'
p81
(lp82
S'need chlorine alternative'
p83
aS'ecofriendly cleaning moss mildew'
p84
asS'2012_21'
p85
(lp86
S'small applications azaguard concentrate'
p87
asS'2011_52'
p88
(lp89
S'need chlorine alternative'
p90
asS'2012_13'
p91
(lp92
S'need chlorine alternative'
p93
aS'ecofriendly cleaning moss mildew'
p94
asS'2011_42'
p95
(lp96
S'oxidate ready spray omri listed'
p97
asS'2011_9'
p98
(lp99
S'treat emerging lawn fungus terracyte'
p100
asS'2010_38'
p101
(lp102
S'weekend time moss mold mildew yard home greencleanfx'
p103
asS'2011_28'
p104
(lp105
S'need chlorine alternative'
p106
aS'plant diseases devising defense system'
p107
aS'safeguarding plant disease'
p108
aS'azaguard rebate days left'
p109
aS'check relevant current helpful publication organic living\xe2\x80\xa6'
p110
aS'carbon footprint'
p111
aS'organic food market trending\xe2\x80\xa6'
p112
aS'composting organic garden three important tips consider\xe2\x80\xa6'
p113
aS'hydrogen peroxide cheaper\xe2\x80\xa6'
p114
asS'2011_23'
p115
(lp116
S'safeguarding plant disease'
p117
asS'2011_21'
p118
(lp119
S'lawncare operators love fiesta'
p120
aS'natural weed killer fiesta'
p121
asS'2011_26'
p122
(lp123
S'plant diseases devising defense system'
p124
asS'2012_9'
p125
(lp126
S'newsletter effective systemic pest control'
p127
aS'need chlorine alternative'
p128
aS'ecofriendly cleaning moss mildew'
p129
asS'2011_25'
p130
(lp131
S'anne wareham confessions grumpy gardener'
p132
aS'twiends join'
p133
aS'treat heavy algae growth organic algaecide'
p134
asS'2012_5'
p135
(lp136
S'need chlorine alternative'
p137
aS'ecofriendly cleaning moss mildew'
p138
asS'2010_27'
p139
(lp140
S'terraclean fungicide agricultural soil treatment drip irrigation system'
p141
aS'germany wins today could okay friendly rivalry enviroselects'
p142
aS'organic farming significant food trade pawar delhi'
p143
asS'2012_7'
p144
(lp145
S'improved label azaguard\xc2\xae botanical insecticidenematicide'
p146
asS'2010_23'
p147
(lp148
S'algae pond water'
p149
aS'oxidate effective omriapproved bactericide fungicide organic fieldgrown crops commercial greenhouses'
p150
asS'2010_28'
p151
(lp152
S'storox postharvest bactericidefungicide increases shelf life decreases spoilage crops storage special'
p153
aS'useful home gardening tips beginners plant'
p154
asS'2011_44'
p155
(lp156
S'carbon footprint'
p157
asS'2012_17'
p158
(lp159
S'organic apples fungicides'
p160
asS'2012_14'
p161
(lp162
S'plant diseases devising defense system'
p163
aS'newsletter effective systemic pest control'
p164
aS'check relevant current helpful publication organic living\xe2\x80\xa6'
p165
asS'2011_41'
p166
(lp167
S'\xe2\x80\x9cimmediately\xe2\x80\x9d battle high prices tips lower emissions process'
p168
asS'2012_10'
p169
(lp170
S'check relevant current helpful publication organic living\xe2\x80\xa6'
p171
asS'2012_16'
p172
(lp173
S'codling moth control azaguard'
p174
aS'verticillium wilt trees assessment treatment prevention'
p175
asS'2010_43'
p176
(lp177
S'lake ozarks group says simple landscaping could help hold ecoli scherder news jscher'
p178
asS'2010_41'
p179
(lp180
S'hear story gods faithfulness'
p181
aS'video environmentallyfriendly algae removal grape trellis greencleanfx'
p182
aS'seeing rearview mirror iowa harvest'
p183
asS'2010_40'
p184
(lp185
S'questions customers stick around outtakes'
p186
asS'2013_37'
p187
(lp188
S'green clean'
p189
asS'2013_36'
p190
(lp191
S'good full back school everyone'
p192
asS'2013_35'
p193
(lp194
S'countdown days labour long weekend'
p195
asS'2013_34'
p196
(lp197
S'enviroselects algae attackers'
p198
aS'joined pinterest follow'
p199
asS'2012_38'
p200
(lp201
S'biosafe systems sustainable chemistries overview'
p202
asS'2012_18'
p203
(lp204
S'organic apples fungicides'
p205
aS'need chlorine alternative'
p206
aS'ecofriendly cleaning moss mildew'
p207
aS'newsletter effective systemic pest control'
p208
aS'world asthma 2012 francisco childcare centers eliminate exposure bleach cleaning products'
p209
aS'world asthma childcare centres eliminate exposure bleach cleaning products worldasthmaday asthma'
p210
aS'codling moth control azaguard'
p211
aS'check relevant current helpful publication organic living\xe2\x80\xa6'
p212
asS'2010_33'
p213
(lp214
S'pond algae control product greencleanfx liquid algaecide'
p215
asS'2012_35'
p216
(lp217
S'allen smith partners biosafe systems garden products'
p218
asS'2012_6'
p219
(lp220
S'newsletter effective systemic pest control'
p221
asS'2012_31'
p222
(lp223
S'pythium water treatment hydroponic aquaponic systems'
p224
aS'apple'
p225
asS'2013_39'
p226
(lp227
S'gearing fall cleanup'
p228
asS'2013_38'
p229
(lp230
S'final sale'
p231
aS'fiesta sale'
p232
asS'2010_47'
p233
(lp234
S'video bacteria fungus become resistant enviroselects products'
p235
asS'2010_26'
p236
(lp237
S'organic commercialgrade liquid sanitizer sanidate prevents growth mold spores mildew bacteria'
p238
aS'pesticide health hazard smithsonian garden rant dear public gardens least tell youre spraying'
p239
aS'effective pond water treatment greencleanpro commercialgrade algaecide'
p240
aS'view potato webcasts late blight nitrogen management seed performance others'
p241
aS'garden rant perennial borders really easy easy roses'
p242
aS'gardenism youve never experienced accomplishing imagine plant garden rober'
p243
aS'special zerotol algaecide fungicide specially formulated kill bacteria algae fungi spores contact'
p244
aS'spotted tomato plants'
p245
aS'tricks organic weed control'
p246
asS'2011_30'
p247
(lp248
S'newsletter effective systemic pest control'
p249
asS'2010_36'
p250
(lp251
S'gardening advice identifying plant disease spot treat'
p252
asS'2012_3'
p253
(lp254
S'ecofriendly cleaning moss mildew'
p255
asS'2011_35'
p256
(lp257
S'newsletter effective systemic pest control'
p258
aS'organic pest control neem tops growers\xe2\x80\x99 list'
p259
asS'2011_34'
p260
(lp261
S'organic pest control neem tops growers\xe2\x80\x99 list'
p262
aS'ecofriendly cleaning moss mildew'
p263
asS'2011_37'
p264
(lp265
S'carbon footprint'
p266
aS'safeguarding plant disease'
p267
asS'2011_31'
p268
(lp269
S'long island tomato blight'
p270
aS'oxidate small scale organic disease control'
p271
aS'newsletter effective systemic pest control'
p272
aS'composting organic garden three important tips consider\xe2\x80\xa6'
p273
aS'safeguarding plant disease'
p274
aS'carbon footprint'
p275
aS'check relevant current helpful publication organic living\xe2\x80\xa6'
p276
aS'organic food market trending\xe2\x80\xa6'
p277
asS'2010_22'
p278
(lp279
S'need reliable gardening advice find local cooperative extension service office'
p280
aS'combat black mold sanidate peroxygen chemistry stronger alcohols hydrogen peroxides'
p281
aS'greenclean pond clarifier ideal water bodies support sensitive wildlife fish adding vital oxygen'
p282
aS'landscaping underground fences'
p283
aS'products envirofriendly peroxygen technology quickly kill many diseasecausing bacteria fungi'
p284
aS'pond algae control results within hours application'
p285
aS'fastacting lawn fungus prevention cure'
p286
asS'2011_32'
p287
(lp288
S'canada storox greenhouse tomatoes approved'
p289
asS'2010_32'
p290
(lp291
S'terracyte moss algae control effective safe humans pets wildlife special'
p292
aS'lush carpet pine needles spongy grass welcome luxurious persian helen'
p293
asS'2013_33'
p294
(lp295
S'grass always greener'
p296
asS'2010_30'
p297
(lp298
S'myths organic'
p299
asS'2010_31'
p300
(lp301
S'join enviroselects community receive instant benefits discounts hazmat charge comm products'
p302
aS'azaguard powerful organicapproved insect control insect species'
p303
asS'2011_39'
p304
(lp305
S'newsletter effective systemic pest control'
p306
aS'carbon footprint'
p307
asS'2010_34'
p308
(lp309
S'cornell study toxic effects captan fungicide makes glad carry oxidate'
p310
aS'research speaks article storox postharvest bactericide fungicide'
p311
asS'2010_35'
p312
(lp313
S'research reveals keys bacterial spot prevention control'
p314
aS'researchers fight save fruits labor pavlovsk'
p315
as.