(dp0
S'2013_42'
p1
(lp2
S'nothing current batch samples maybe mislabeled grabs random shit like'
p3
aS'whether trouse trancev2 guide bigroom surely claim differences seriouslypeople'
p4
asS'2013_43'
p5
(lp6
S'would like take time know exists'
p7
aS'dyin whys happen every autumn'
p8
asS'2013_40'
p9
(lp10
S'would cruel claim guide finished american politics stops derping'
p11
asS'2013_41'
p12
(lp13
S'course weirdshitondiscogs'
p14
asS'2013_46'
p15
(lp16
S'thats fucking twats'
p17
aS'electroswing theres gimmick thatll last neverforgetdoop'
p18
asS'2013_17'
p19
(lp20
S'tell track ambient zzzzzzzzzzz'
p21
aS'tracks hippitying boppitying black guys talking really fast guess goes hiphop'
p22
aS'flash dead'
p23
aS'time raid backups'
p24
aS'close progress'
p25
asS'2013_44'
p26
(lp27
S'would like take time know exists'
p28
asS'2013_45'
p29
(lp30
S'suspect ones around dancehall toasters actually speak perfect queens english'
p31
asS'2013_16'
p32
(lp33
S'cheers friend supplying motherload reggae jeers lack release dates'
p34
aS'electrohouse'
p35
aS'stop youre embarrassing stupidmadeupgenres'
p36
aS'dammit shoegaze could left indie rock whyd include drum machines sequencers'
p37
aS'twinkle prog doesnt goes coldharbourwontstopmakingmusic'
p38
asS'2013_24'
p39
(lp40
S'tell track noise'
p41
aS'incidentally italodisco also good 80smontage music'
p42
asS'2013_25'
p43
(lp44
S'youd ishkur'
p45
aS'dark likeabauhaus moody likeabauhaus wear black likeabauhaus stay night likeabauhaus'
p46
aS''
p47
aS'tell track futurepop wish watch light lasers glisten across blood trailing raised arms'
p48
asS'2013_26'
p49
(lp50
S'unless youre using synthesizer size living room youre really making musiqueconcrete modern'
p51
aS'know youve gathered fuckton samples dont realize youre making dupes'
p52
aS'found chiptunes track based game called grimblood guess decade duuuuuudddeee'
p53
aS'chillout scene youll likely find nonelectronic instruments also white people'
p54
ag47
asS'2013_27'
p55
(lp56
S'whats pretentious genre ever odds good someones still making musicgenrescannotdie'
p57
aS'spacesynth looks chiptunes dude youre dated'
p58
aS'thats trap added brobelches nearly every genres'
p59
aS'listening spacesynth like watching scifi movie clearly matte lines'
p60
asS'2013_21'
p61
(lp62
S'tell track freestyle damn kraftwerk never thought include divas orchestral stabs'
p63
aS'tell track reggaeton cant understand damned thing anyone saying monolinguist'
p64
aS'hell cant even understand white saying'
p65
aS'nice beta summer provided doesnt keep throwing impediments'
p66
aS'tell track dancehall cant understand damned thing black saying'
p67
aS'last tally genres counting'
p68
asS'2013_22'
p69
(lp70
S'ironic raked guide coals fearing guide lose hated tranceaddict'
p71
aS'also tell track freestyle chorus damned thing last fifty freestyle tracks formulaic'
p72
aS'youre hundredth person asking really difference burial skream borgore beingfacetious'
p73
asS'2013_23'
p74
(lp75
S'tell track eurobeat spazzinglikeamaniac chair right'
p76
asS'2013_28'
p77
(lp78
S'stuffs place really could lumped goth sexes ketamine club culture'
p79
aS'stuffs apparently witchhouse'
p80
aS'mean witchhouse darkwave meets chicagohouse'
p81
asS'2013_29'
p82
(lp83
S'tell track nujazz much saxophone xylophone'
p84
aS'important'
p85
asS'2013_5'
p86
(lp87
S'goth'
p88
aS'modernclassical 1970s electronics sound real 2000s instruments sound electronic'
p89
asS'2013_4'
p90
(lp91
S'know humpbackwhale entry question weirdthingsondiscogs'
p92
aS'even worldbeat went electro midivalpunditz'
p93
aS'seems even worldbeat undergroundpop dichotomy'
p94
aS'going musiqueconcrete right year music begin'
p95
aS'discogs filter electronic stage screen neither time annoyances'
p96
aS'need weird creepy music money left hire composer quirky synth 80shorrormovies'
p97
aS'already basic stuff wont focusing keep mind'
p98
asS'2013_7'
p99
(lp100
S'need work 730am still wide awake 230am might well make samples forcedproductivity'
p101
asS'2013_6'
p102
(lp103
S'oldschoolhardcore tracks culled much redundancy'
p104
aS'italodisco triumphant'
p105
aS'someone please take eurotrash house garage stench getting hardcore'
p106
aS'musicwaveforms 1980s thin black line 1990s bumpy roads 2000s fucking black mang'
p107
aS'inpetto truly innovators note progressive'
p108
asS'2013_3'
p109
(lp110
S'good example obscure looking'
p111
aS'doesnt electronic yeah already obvious ones looking obscure samples'
p112
aS'looking examples 19802010 film scores entirely electronic original compositions suggestions'
p113
aS'finished gathering newage samples think stuffs around forever barely scratching surface'
p114
aS'weirdthingsondiscogs'
p115
aS'ways tell composition ambient drone meditative whether flute ever crops newage ambient'
p116
aS'sift 1000 prog tracks made 2004 2010 need rest redundant regressive'
p117
aS'youve minute noodly ambient piece choose minutes noodle sample'
p118
aS'first guide samples second guide 1000 samples third guide 10000 samples infinite scalability'
p119
aS'real'
p120
asS'2013_9'
p121
(lp122
S'foresttrance elftrance goblintrance nighttrance hedfuktrance nazgultrance cybrogtrance willothewisptrance missing'
p123
aS'making grime samples cant head'
p124
asS'2013_8'
p125
(lp126
S'realized something joshua tree really concept album finding loose change couch'
p127
aS'seriously folks complain using plinkyplonk tracks plonkyplink tracks minimal'
p128
aS'even black people europe white 2unlimited snap pharoa bgtheprinceofrap culturebeat captainhollywoodproject haddaway'
p129
asS'2013_37'
p130
(lp131
S'dunno things heated areas guide progress sluggish right'
p132
aS'never lord discogs provides'
p133
asS'2013_36'
p134
(lp135
S'turns freestyle genre giant ripoff'
p136
aS'anyone familiar group rappers rapp group best track song called rapp song'
p137
asS'2013_35'
p138
(lp139
S'need focus less beef bones'
p140
aS'life happens'
p141
aS'tell track triphop movie credits rolling'
p142
aS'course even audio technobass would retro return'
p143
aS'also nujazz much trumpet'
p144
aS'knew years music would take long gather'
p145
aS'please sort downtempo annoying jazzy hiphop stuff mixed wibbly stuff'
p146
asS'2013_34'
p147
(lp148
S'know goes great trap samples isnt done'
p149
aS'last thing needed investors requesting whats said certain genres kind betrays guides vision'
p150
asS'2013_33'
p151
(lp152
S'time slackers showed theres still much work done'
p153
asS'2013_14'
p154
(lp155
S'guide stuff deserves share'
p156
asS'2013_31'
p157
(lp158
S'thats nyan'
p159
aS'knew existed didnt know extent full mods'
p160
aS'think youve unearthed everything find discover something like'
p161
asS'2013_30'
p162
(lp163
S'subtitled progressive journey'
p164
aS'6000 samples made progress bitches'
p165
aS'tell track pendulum jungle head flew headbangin'
p166
aS'want hear music guide made mixtape ambient helped gather'
p167
aS'terms practical work maybe'
p168
aS'getting done'
p169
asS'2013_19'
p170
(lp171
S'puzzle clicks focus bliss'
p172
aS'tell track gabber base belong'
p173
aS'hard create labels artists tracks online days festival theme stages'
p174
aS'tell track ukhardhouse cant stop donkin'
p175
aS'tell track cant stop jumpin cant stop hoppin cant stop pumpin cant stop rockin cant stop thumpin'
p176
aS'muzak jingles best enjoyed played real quiet'
p177
aS'track epic trance cover oliver lieb tune released year 2000'
p178
asS'2013_18'
p179
(lp180
S'music based around sampling like hiphop collagist experimental world beat thing'
p181
aS'said talking overproduced electro house fuck vaporwave anyway'
p182
aS'5000 samples completed mutha fuckin progress'
p183
aS'alright chiptunes lets'
p184
aS'dare motherfuckers call track progressive noise seriously asshole brandishingcrowbar'
p185
aS'yeah electro house'
p186
aS'finding tracks fill blanks littlepleasuresinlife'
p187
aS'never fail facepalm someone names remix vocal'
p188
aS'scene listens guessing urban thats chicks'
p189
aS'thug definitely hiphop definitely urban would thug songs'
p190
aS'guides gotten plenty flack past much might nsync'
p191
aS'tell track darkambient cowering behind couch fearing cenobites arrival'
p192
asS'2013_39'
p193
(lp194
S'whatthefuckis picopop'
p195
aS'synth'
p196
aS'took listen dungeon names plain dubstep classic dubstep really guess enough'
p197
aS'seriously night considered fucking genre whatthefuckisnightbus'
p198
aS'dungeon exist even beatport hasnt recognized genre rise theyve made tons bullshit'
p199
aS'laws ishkurs guide lord discogs knows except know wikipedia knows never much'
p200
asS'2013_38'
p201
(lp202
S'dont mind chained computer making guide samples doritos thrown gremlins advantage numbers'
p203
aS'sometimes feels like pain comes process pain finished product shall present'
p204
aS'definitely likely quite probably look nothings absolute except perhaps kelvin'
p205
aS'reporter whats prediction music guide prediction pain'
p206
asS'2013_11'
p207
(lp208
S'tell track techhouse boring'
p209
aS'passed 4000 mark samples made hundred keep track frequently progress'
p210
asS'2013_10'
p211
(lp212
S'thats handy thanks look'
p213
aS'thing latinhouse like major thing'
p214
asS'2013_13'
p215
(lp216
S'surprisingly acidjazz start label acid jazz'
p217
aS'like wonky making genres'
p218
aS'making dubstep samples 20042006 isnt 20072008 interesting stuff whats 20082012 dafuq'
p219
asS'2013_12'
p220
(lp221
S'course wonks would make countergenre noise whats stuff called quiet'
p222
aS'like choosing death terminator sent back time death burial neck army ants eating face'
p223
aS'make jungle samples dubstep samples onell much'
p224
asS'2013_15'
p225
(lp226
S'beatport make genres complextro'
p227
aS'dubstep producer kist team producer tits form supergroup sk\xc3\xa9il note real'
p228
aS'annoying thing making samples ambient never knowing source supposed quiet'
p229
aS'need stop wasting time making money back making samples priorities'
p230
as.