(dp0
S'2013_42'
p1
(lp2
S'eating 378435766446 breadsticks break gtgtgtgtgtgtgt'
p3
aS'diets last seconds'
p4
aS'miss'
p5
aS'miniature giraffe'
p6
aS'move already'
p7
aS'dont start yelling soon walk like even clocked dont even talk'
p8
aS'hate working theres managers'
p9
aS'actually want work early tonight hell hole'
p10
aS'dont wanna work tonight\xf0\x9f\x98\xab\xe2\x80\x9d life'
p11
aS'please'
p12
aS'cheddar lunchables lyfe'
p13
aS'love katy cooperloveskaty cooperhighschool'
p14
aS'never sinking'
p15
aS'whole diet thing isnt working starving'
p16
aS'need computer homework wont stop playing candy crush'
p17
aS'need food'
p18
aS'damn ashley didnt retweet'
p19
aS'lets psat sleep'
p20
aS'retweets rayne said would bowl'
p21
aS'taking psat tomorrow'
p22
aS''
p23
aS'sleepy'
p24
aS'today monday actually didnt suck'
p25
aS'always nervous call work'
p26
aS'boys'
p27
asS'2013_43'
p28
(lp29
S'girls wear eyeshadow eyebrows ltltltltltltlt justno'
p30
aS'miley cyrus still perfect'
p31
aS'dont want leave'
p32
aS'want snow twinkly lights house smell like pine trees days christmas family'
p33
aS'finally saturday'
p34
aS'feel like going throw'
p35
aS'late call tonight'
p36
aS'seriously place'
p37
aS'called work today come next said friday call today saying supposed today'
p38
aS'lockscreen phone selfie judging'
p39
aS'happyyyyy'
p40
aS'happy doesnt mean everything life perfect means youve decided look beyond\xe2\x80\xa6'
p41
aS'professional dress'
p42
aS'teenage girl doesnt watch american horror story'
p43
aS'clinical number today'
p44
aS'still hour home kindle died'
p45
aS'beat game honey take cash'
p46
aS'momma always said nice boys finish last'
p47
aS'dallas cardiologist'
p48
aS'cheese sticks stupid person work'
p49
aS'want flavored popcorn selling holland small'
p50
aS'sold popcorn work holla'
p51
aS'realized havent even cashed check paid friday'
p52
aS'antibacterial soap water thats piercer told mine done'
p53
asS'2013_40'
p54
(lp55
S'dennys breakfast'
p56
aS'mcalisters good'
p57
aS'needs christmas already'
p58
aS'workflow'
p59
aS'work gonna stupid tonight'
p60
aS'temperature forever'
p61
aS'type douchebag friend doesn\xe2\x80\x99t talks weeks still cares hopes still care'
p62
aS'feeding today'
p63
aS'ashley looked like look really awkward'
p64
aS'basically'
p65
aS'first clinical'
p66
aS'super cute'
p67
aS'subway sweet best'
p68
aS'bitch tweet'
p69
aS'loooooong'
p70
aS'happy brought lunch'
p71
aS'bruise like everytime damn'
p72
aS'nerves'
p73
asS'2013_41'
p74
(lp75
S'closing tonight going suck'
p76
aS'lately loosing sleep dreaming things could'
p77
aS'work hours'
p78
ag23
aS'nigga wouldve snuck'
p79
aS'happy birthday wish crazy today'
p80
aS'today already'
p81
aS'team cant sleep'
p82
aS'cooper high school roar'
p83
aS'dont throwback thursday literally look exact'
p84
aS'accidentally melted plastic curling iron'
p85
aS'girl shirt'
p86
aS'moreland hyped coffee today english goodmood coffeecoffeecoffeecoffeecoffeecoffee'
p87
aS'friday'
p88
aS'someone bring food please'
p89
aS'bought coffee starbucks threw away gross awesome morning'
p90
aS'congrats cooper high school abilene texasyou roared loud enough finalist contest'
p91
aS'reason 5012 dont wear makeup expensive\xe2\x80\x9d amen'
p92
aS'really cool though getting opportunity chsongma chsroar roarforkatyperry'
p93
aS'yeah definitely getting'
p94
aS'people brag friends someone else'
p95
aS'ready weekend'
p96
aS'song shit heartbreaker'
p97
aS'drive thru work today literally underwear underwear'
p98
aS'carey work homework sleep'
p99
asS'2013_46'
p100
(lp101
g23
aS'since stuck homework week'
p102
aS'someone netflix account'
p103
aS'nigga dont bother'
p104
aS'turned doctors note saying couldnt work monday boss pissed said rest week'
p105
aS'hungry throw strepthroat'
p106
aS'getting shots isnt'
p107
aS'strep awesome'
p108
aS'dying'
p109
aS'seriously hope dont'
p110
aS'seriously dont feel good today'
p111
aS'love rachet sisters'
p112
aS'subway lunch'
p113
aS'prepped bread tonight smell like butter'
p114
aS'point curve still fail'
p115
asS'2013_47'
p116
(lp117
S'closed early homeeee'
p118
aS'thumbs school today'
p119
aS'first time snowed since lived texas'
p120
aS'ready'
p121
aS'someone apply fazolis okay dining room'
p122
aS'transformationtuesday judge orange nose'
p123
aS'know meant break'
p124
aS'actually good mood morning'
p125
aS'cause thinking forever'
p126
asS'2013_44'
p127
(lp128
S'battle scars dont look like theyre fadin'
p129
ag23
aS'kill'
p130
aS'feeling work going busy tonight'
p131
aS'contemplating calling tonight'
p132
aS'noshavenovember best month year'
p133
aS'grandma racist person ever'
p134
aS'dont know feel anymore'
p135
aS'really hate'
p136
aS'things school taught'
p137
aS'days halloween best'
p138
aS'prayers heart goes families boys tennessee high lost tonight'
p139
aS'felt like going getting wild tonight bank account quickly reminded calm fuck'
p140
aS'work ridiculously busy tonight okay'
p141
aS'workkkk flow'
p142
aS'cell model project'
p143
aS'definitely need starbucks morning'
p144
aS'miss nationalbestfriendday senior year'
p145
aS'creeping fuck'
p146
aS'freaking miss bestfriend okay'
p147
aS'stop miss love beautiful'
p148
aS'breathing chemicals'
p149
aS'lapop burrito would fucking amazing right'
p150
aS'video room tour prank calls lohanthonys video week hope laughs'
p151
asS'2013_45'
p152
(lp153
S'current mood'
p154
aS'read pass'
p155
aS'trust girl wanna high'
p156
aS'waaaaaaa want meeeee'
p157
aS'cramping much'
p158
aS'never going fall asleep long untold stories'
p159
aS'literally always working never money'
p160
aS'went shopping christmas today'
p161
aS'raise lights said razor blades austrailian accent'
p162
aS'everyone work asshole'
p163
aS'literally asked borrow today'
p164
aS'sitting class like today'
p165
aS'someone bring coffee pretty please fallingasleep'
p166
aS'needs boyfriends food'
p167
aS'cant sleep spent ulta online'
p168
aS'swear pulled muscle even today clinicals'
p169
aS'mother fucking shoulder hurting'
p170
aS'want give'
p171
aS'would never remember anything without reminders phone'
p172
aS'dont complain freshmen stupid youre sophomore'
p173
aS'rooms need cleaning\xe2\x80\x94cna clean linen\xe2\x80\x94cna toilet clogged\xe2\x80\x94cna wanna beat shit outta someone\xe2\x80\x94you\xe2\x80\xa6'
p174
aS'finally passing hell'
p175
aS'even feels like'
p176
asS'2013_37'
p177
(lp178
S'love anything words cant even touch whats heart babyi'
p179
aS'forever listening royals repeat'
p180
aS'dont dick'
p181
aS'wish would hurry bring food home'
p182
aS'avengers'
p183
aS'love miss riddle lets home early'
p184
aS'means much bread minutes'
p185
aS'break time'
p186
aS'least good check friday'
p187
aS'dont want work tonight'
p188
aS'great candy crush'
p189
aS'taking mommy lunch'
p190
aS'tattoos piercings attractive know limit'
p191
aS'werk time'
p192
aS'room'
p193
aS'idea time come tomorrow work wont answer calls awesome'
p194
aS'wish would rain would make happy'
p195
aS'seriously stop talking'
p196
aS'royals lordegtgtgtgtgtgt'
p197
aS'describeyourlifeinapicture'
p198
aS'raise youre hand youre tired school already'
p199
aS'haveing hair workltltlt\xe2\x80\x9d feel girl'
p200
aS'seriously wore wrong shoes today'
p201
aS'hope today better yesterday'
p202
aS'count rainbows thunderstorms'
p203
aS'ever wreck'
p204
ag23
aS'dont look like likes person'
p205
aS'senior year bestfriendwithdrawls'
p206
ag23
aS'daniel mowing yard'
p207
aS'teachers think enough time emotional breakdowns homework\xe2\x80\x9d'
p208
aS'early school year mental breakdown'
p209
aS'definitely sweatpants today'
p210
aS'single ready pringles'
p211
aS'dont catch feelings catch crabs oops\xe2\x80\x9d dying'
p212
aS'fair beyond exhausted'
p213
aS'best part fair'
p214
aS'fair'
p215
aS'learn today theres bitches bitches everywhere'
p216
aS'want'
p217
asS'2013_36'
p218
(lp219
S'hate wearing lipstick gets everything'
p220
aS'couldnt happy without'
p221
aS'life'
p222
aS'remember would dance around moms bedroom tswizzle cool thing'
p223
aS'need parttime pays like 30000 week'
p224
aS'need brand blush yall'
p225
aS'dont want want money'
p226
aS'going buffalo wild wings'
p227
aS'need stop waking weekend'
p228
aS'called'
p229
aS'pumpkin spice latte mirror times white girl yoga pants appear tell favorite'
p230
aS'wish december ready'
p231
aS'wanna fair'
p232
aS'need something dooooo tonight'
p233
ag23
aS'taking sister breakfast good sister'
p234
aS'friday nights everyones partying'
p235
aS'finished closing yayyyyyy'
p236
aS'first home game stuck working awesome'
p237
aS'work work work work'
p238
aS'sucked'
p239
aS'paid must resist urge spend whole paycheck night'
p240
aS'want home take longest ever'
p241
aS'honestly don\xe2\x80\x99t feel like hair morning'
p242
aS'work sucks tonight'
p243
aS'always wear blush rubs anyway'
p244
aS'double catfish'
p245
aS'done homework'
p246
aS'many times break till shatter'
p247
aS'honestly hate going school much'
p248
aS'want graduate early'
p249
aS'pumpkin spice lattes shit'
p250
aS'enough confidence wear make school life would easier'
p251
aS'literally going fall asleep dont kind caffeine morning'
p252
aS'like fucking done grayson years need fuck rant'
p253
aS'family still asks someone dated grade moved'
p254
aS'said joke front cousin oops sorry nooffense'
p255
aS'taking notes video minutes youre killing green'
p256
aS'september'
p257
aS'school means pants'
p258
asS'2013_35'
p259
(lp260
S'love slowwww'
p261
aS'favorite tshirt'
p262
aS'dont come texas gross'
p263
aS'life'
p264
aS'homework watch pretty woman'
p265
aS'craving whataburger'
p266
aS'thankful three weekend'
p267
aS'hope work goes fast tonight'
p268
aS'tried scrubs first time look like barney'
p269
aS'sleeping first period'
p270
aS'sleepy'
p271
aS'best part work'
p272
aS'guess ready work'
p273
aS'hate ride back cooper holland needacar'
p274
aS'anyone else pictures twitter'
p275
aS'ughhhhhhh'
p276
aS'made friends lunch today wont even lunch tomorrow freakjng boot camp'
p277
aS'whole thing gonna work'
p278
aS'makes look like slut sayin'
p279
aS'first lets'
p280
aS'guess clock back'
p281
aS'favorite part work break going home'
p282
asS'2013_34'
p283
(lp284
S'work'
p285
aS'prepared school'
p286
aS'instagram working'
p287
aS'well guess need tomorrow'
p288
aS'school hasnt even started already stressed'
p289
aS'sleepy really finish book'
p290
aS'live town everyone claims hate never leave'
p291
aS'else taken years foreign language still clue speak'
p292
aS'swear saving money hard'
p293
aS'50thingsaboutme'
p294
aS'spent like balm obsessed'
p295
aS'shopping takes foreverrrr'
p296
aS'last saturday summer plans sleeping alllllllll thuglife'
p297
aS'counting days'
p298
aS'going read summer reading went work gonna take instead'
p299
aS'sister pisses much acts like itll kill leave house take anywhere'
p300
aS'classes'
p301
aS'going favorite movies'
p302
aS'love work completely dead'
p303
aS'kind ready back school time'
p304
aS'back work today hopefully good night'
p305
aS'happened'
p306
aS'wearing blush first time today'
p307
aS'like page'
p308
aS'getting tragus pierced tomorrow'
p309
aS'first paycheck'
p310
aS'guess could makeup something hair dont want move'
p311
aS'still awake'
p312
aS'worlds shittiest cake least tried hahahaha'
p313
aS'making cake birthday gooddaughterstatus'
p314
aS'times piss much cant straight'
p315
aS'sometimes make happiest person ever'
p316
aS'reasonstosmile days pumpkin spice lattes'
p317
aS'time'
p318
aS'literally'
p319
aS'sure love morning make breakfast sure'
p320
aS'feet killing'
p321
asS'2013_33'
p322
(lp323
S'wanna sleep instead going work today'
p324
aS'taking holland haha'
p325
aS'mail letter'
p326
ag23
aS'whats good tattoo places piercings wanting tragus done'
p327
aS'pandora point tonight'
p328
aS'anyone know time open house holland tuesday'
p329
aS'damn mariah'
p330
aS'everyone wants theyre like fuck shit homeless\xe2\x80\x9d life'
p331
aS'honestly twitter vent sorrynotsorry'
p332
aS'dream'
p333
aS'deserve vmas favorite awards show watching since womb'
p334
aS'hate working fridays'
p335
ag23
aS'realized havent started summer reading'
p336
aS'dallas couple weeks another cardiologist damn'
p337
aS'heart problems suck'
p338
aS'blah hate going cardiologist'
p339
aS'wish pandora would tell song next could decide worth skip current'
p340
aS'dont think could handle doctor work'
p341
aS'glad today'
p342
aS'life'
p343
aS'foot would bomb right'
p344
aS'wish lost weight like lost bobby pins'
p345
aS'hope rains'
p346
aS'watching vampires suck'
p347
aS'dont snapchat youll regret'
p348
aS'snapchat sent'
p349
aS'maybe throw work theyll send home early wishfulthinking'
p350
aS'work today'
p351
aS'cramps hangover first person tell good morning snatched bald headed'
p352
aS'back hurts girlproblems'
p353
aS'question'
p354
aS'seriously need people life frustrated'
p355
aS'fuck relationships'
p356
aS'thanks much making feel like complete shit'
p357
aS'november 13th thats matters\xe2\x80\x9d lucky'
p358
aS'going stay watch movies feel like crap beingagirlsucks'
p359
aS'seriously want taco bell right'
p360
aS'like weeks school starts nooooo'
p361
asS'2013_32'
p362
(lp363
S'work time'
p364
aS'wish could pull lipstick'
p365
aS'feet killing meeee'
p366
aS'finally homeee'
p367
aS'cant wear long dressesskirts midget makes look like legs\xe2\x80\x9d life'
p368
aS'want today'
p369
aS'worn'
p370
aS'first work killed exhausted'
p371
aS'break sooo tired'
p372
aS'thanks girl'
p373
aS'leave first work nervous'
p374
aS'work'
p375
aS'daws youre sweet love'
p376
aS'feeling first work really awkward make everything awkward matter'
p377
aS'storm storm storm storm storm'
p378
aS'selfiez lyfe'
p379
aS'summer 2013'
p380
aS'ihatewhen thought freshman short mean look like geez'
p381
aS'hate cramping period like mother nature please make mind'
p382
aS'first school'
p383
aS'time snuggle blanket sleeeep'
p384
aS'lightning freaky'
p385
aS'hate pandora isnt unlimited listening anymore'
p386
aS'grease forever favorites movies'
p387
aS'miss'
p388
aS'miss'
p389
aS'describeyourbestfriendinoneword part still tagging still flippin flawless'
p390
aS'sweet'
p391
aS'seriously cant wait start work friday'
p392
aS'orientation time'
p393
aS'wish could drive wouldnt hunt someone take places'
p394
aS'rachet normal'
p395
aS'orientation work today really dont want'
p396
aS'found embarrassing picture forever dollywood like wrong'
p397
aS'like week since tennessee miss much'
p398
aS'cant wait east senior year texassucks'
p399
aS'brownie swag'
p400
aS'follow back homez'
p401
aS'mocha frappe mcdonalds best'
p402
aS'work fazolis'
p403
aS'upcomingschoolyearin4words graduate'
p404
aS'someone come play hair sleep'
p405
aS'guess gonna watch breaking netflix pass'
p406
aS'really'
p407
aS'want conjuring friends pussies'
p408
aS'well need money'
p409
aS'really hope call wednesday'
p410
aS'came home pajamas back soon walked hahaha'
p411
aS'accomplished first interview'
p412
aS'dressed hour early'
p413
aS'interview today freaking'
p414
aS'still'
p415
aS'still watching netflix'
p416
aS'whut'
p417
aS'entire timeline people complaining school tomorrow'
p418
aS'someone stay tonight'
p419
aS'finished watching thor netflix'
p420
aS'cant wait bonfires football games oversized sweatshirts'
p421
asS'2013_31'
p422
(lp423
S'twerk starbucks'
p424
aS'miss bible class'
p425
aS'true true'
p426
aS'glad dont start school tomorrow like east people texasperks'
p427
aS'good things must come right'
p428
aS'year sister addicted mine craft whut'
p429
aS'need peppermint mocha frappe starbucks like'
p430
aS'channing tatum step'
p431
aS'phone slut'
p432
aS'hahahahahaha'
p433
aS'someone snapchat careynicole'
p434
aS'calm tits ashley'
p435
ag23
ag23
aS'someone walk taking selfies\xe2\x80\x9d worst thing ever'
p436
aS'wearing oversized shirt pants probably comfortable thing life'
p437
aS'always lays feet like always'
p438
aS'swaggie'
p439
aS'seriously cant comfortable tonight like'
p440
aS'can\xe2\x80\x99t wait starbucks going spell everyone\xe2\x80\x99s name wrong can\xe2\x80\x99t instagram'
p441
aS'yeah bought'
p442
aS'finally internet back house'
p443
aS'miss bestfriend'
p444
aS'high school ruined good people'
p445
aS'watching pitch perfect 500th time nevergetsold'
p446
aS'tomorrows august sink'
p447
aS'iphone chargers break easily'
p448
aS'firstdayofschoolthoughts'
p449
aS'toner jeans thats dick'
p450
aS'last line safe haven nicholassparksmarathon'
p451
aS'watching lucky ready tears'
p452
aS'moment swear infinite'
p453
aS'best movie ever'
p454
aS'nice people date wrong people accept love think deserve perks'
p455
aS'watching perks wallflower'
p456
aS'hahahaha eveyone thought coolest phone ever'
p457
aS'looking girls transformationtuesdays ratchet ratchet much changes'
p458
aS'miss bible class'
p459
aS'well applied drug emporium hahaha'
p460
aS'time find'
p461
aS'hate like 9999 people know'
p462
aS'amazing feeling phone make charger dies'
p463
aS'someone come bored'
p464
aS'cant sleeeeep'
p465
aS'finally sleeping'
p466
aS'back abilene bitchezzz'
p467
aS'\xf0\x9f\x93\x9ehello like report murderthis bitch killed vibe'
p468
aS'hour road trip tweeting song lyrics whole sorrynotsorry'
p469
aS'cause best memories'
p470
aS'lets reminisce good times'
p471
aS'couldnt wait goin wasnt quite ready leave'
p472
asS'2013_30'
p473
(lp474
S'definitely back texas degrees'
p475
aS'time leave texas'
p476
aS'always afraid nanas shoes going fall sleeping'
p477
aS'fictionalcharacteriwanttomarry chuck bass'
p478
aS'bristol last time'
p479
aS'looking forward hour drive tomorrow killmenow'
p480
aS'going bristol last time tomorrow'
p481
aS'year gonna kick amen'
p482
aS'reading glamour magazine'
p483
aS'packing back home'
p484
aS'nana heard shit oops'
p485
aS'migraine'
p486
aS'youre good clearly dont know half stuff'
p487
aS'tell somethin simple fact starbucks coffee basically crack'
p488
aS'fall never'
p489
aS'know someones hold finger snapchat seconds'
p490
aS'even though nothing phone cannot look'
p491
aS'drop thun thun thun'
p492
aS'move states drift away people'
p493
aS'friends pretty much forgotten'
p494
aS'literally fuck often starting think need word thats offensive fuck'
p495
aS'play hard hard'
p496
aS'always miss twitter drama'
p497
aS'goodnight'
p498
aS'beyond tired 1030 partyanimal'
p499
aS'grown swaggie'
p500
aS'wearing oversized shirt pants probably comfortable thing life'
p501
aS'going movies nana friends whataloser'
p502
aS'keep smiling life beautiful thing theres much smile'
p503
aS'needs computer'
p504
aS'might scream like little girl whole movie whatever'
p505
aS'want conjuring'
p506
aS'nasty bitches dinner ramen'
p507
aS'send ugly selfies friendship real'
p508
aS'babysitting going insane'
p509
aS'royal baby successful first hours life ever'
p510
aS'heaven'
p511
asS'2013_29'
p512
(lp513
S'sundays constant cycle eating everything sight refreshing twitter watching'
p514
aS'looks scary'
p515
aS'four loko\xe2\x80\x9d'
p516
aS'moms always comfortable mine'
p517
aS'nomnom'
p518
aS'birthday cake summer birthdays'
p519
aS'ready cookout start givemefoooood'
p520
aS'screwed sleeping schedule cant clap hands'
p521
ag23
aS'questionsss'
p522
aS'ashleys startin shit'
p523
aS'cant wait high school'
p524
aS'selfie selfie selfieeeee'
p525
aS'seeing dick changing shitty diapers cnaprobs'
p526
aS'excited wearing scrubs next year'
p527
aS'grateful time spend beautiful young girl'
p528
aS'wanna party bullshit'
p529
aS'grade think good idea like every single facebook page even slightly applied'
p530
aS'wants think others want'
p531
aS'wheres ashley need'
p532
aS'hate making dinner'
p533
aS'maybe dick small took shoved personality'
p534
aS'someone wont stop talking remind'
p535
aS'tennesseeprobs'
p536
aS'storming'
p537
ag23
aS'thats cute girl'
p538
aS'shit cray'
p539
aS'really want know ashley tweeting hell'
p540
aS'blessings show many different forms dont ever second guess gods reasoning'
p541
aS'teamnopants'
p542
aS'everyday tennessee'
p543
aS'could whenever'
p544
aS'ronaldo sexy'
p545
aS'doesnt follow back'
p546
aS'outside'
p547
aS'youremoreattractiveif youre baseball player period'
p548
aS'miss'
p549
aS'love gifs ifunny'
p550
aS'nothing still early'
p551
aS'periods last entire week hour sure pregnant let\xe2\x80\x99s move'
p552
aS'damn monkey taken away'
p553
aS'inmiddleschool remember childish drawin went around remember'
p554
aS'summer would much better license'
p555
aS'last tweet seriously life grade'
p556
aS'inmiddleschool boyfriends girlfriends would barely talk friends would force'
p557
aS'inhighschool becomes attitude'
p558
aS'fackin batch'
p559
aS'twitter already addicted'
p560
aS'guys vlines sexiest thing ever'
p561
aS'confused'
p562
aS'friends abandoned grade\xe2\x80\x9d seriously though'
p563
aS'watching close friends close someone else feeling like youre becoming less important'
p564
aS'wish legs shaved'
p565
aS'pants ugly'
p566
aS'girl earth thinks elite socks even look good\xe2\x80\x9d'
p567
aS'teammatty'
p568
aS'live pajamas anymore lazylife'
p569
aS'plus side friend come house pajamas wont judge'
p570
aS'never thought excited back texas'
p571
aS'done summer'
p572
aS'little something make night better'
p573
aS'dont want rude'
p574
aS'really dont wanna read real life murder though'
p575
aS'guess could start summer reading'
p576
aS'need brokeprobs'
p577
aS'people youre quiet like dont talk talk life'
p578
aS'trying twitter time'
p579
asS'2013_39'
p580
(lp581
S'dont want work today like'
p582
aS'accurate'
p583
aS'come fazolis tonight close early closing saturdays suck'
p584
aS'adorable'
p585
aS'glad letting skip today'
p586
aS'getting called ltltlt'
p587
aS'really hope today good'
p588
ag23
aS'work'
p589
aS'bitch dont kill vibe makes miss jamming summer'
p590
ag23
aS'want burrito'
p591
aS'miss'
p592
aS'whenever someone like question freak wondering asked'
p593
aS'feel like already given trying first weeks'
p594
aS'really hate things apenglishprobs'
p595
aS'like back sleep'
p596
aS'first period shouldnt exist'
p597
aS'sleepy'
p598
aS'free smoothie'
p599
asS'2013_38'
p600
(lp601
g23
aS'selfieeeee'
p602
aS'grandma said youre'
p603
aS'aint scared'
p604
ag23
aS'hahahahahahahaaha'
p605
aS'cute'
p606
aS'wish could stay home instead going work'
p607
aS'gorgeous outside right'
p608
aS'paid means going shopping tomorrow'
p609
aS'fuck rally'
p610
aS'someone would bring starbucks morning love forever'
p611
aS'rain allllllll'
p612
aS'done homework fuck havent even started life'
p613
aS'test tomorrow definitely kicking'
p614
aS'payday tomorrowwww'
p615
aS'rain made better'
p616
aS'love whitlock chill'
p617
aS'wish phone would vibrate snapchat'
p618
aS'scrub'
p619
aS'algebra sucks'
p620
aS'addicted carbonara work like seriously'
p621
aS'feet killing'
p622
aS'failing anymore yayyyyy'
p623
aS'face could stop breaking would perfect ratchetatitsfinest\xe2\x80\x9d life right'
p624
aS'time pimples pictures course'
p625
aS'ready'
p626
aS'rain'
p627
aS'starbucks'
p628
aS'early shit back please\xe2\x80\x9d'
p629
aS'never tired'
p630
aS'past tired'
p631
as.