(dp0
S'2013_42'
p1
(lp2
S'safe'
p3
aS'happy birthday'
p4
aS'please tweet back make life'
p5
aS'house party tour couldnt nebraska cried love'
p6
aS'really vegan'
p7
aS'golden goat'
p8
aS'really want live thats really want'
p9
aS'motionless white coming omaha november 20th'
p10
aS'found'
p11
aS'austin carlile'
p12
aS'every night read tweets always puts good mood'
p13
aS'hahaha'
p14
aS'diagnosed depression doesnt mean treat different little fucking'
p15
aS'think found perfect'
p16
asS'2013_43'
p17
(lp18
S'love fucking harassed guys'
p19
aS'love best drug'
p20
aS'love unhealthy'
p21
aS'today seems like good burn bridge'
p22
aS'leaving tomorrow start hell tour moment dates found'
p23
asS'2013_41'
p24
(lp25
S'havent heard song forever'
p26
aS'dont trust'
p27
aS'follow'
p28
aS''
p29
aS'definitely twitter fight going right'
p30
aS'stop sydney laurel chance ever'
p31
aS'sydney like years older hunny'
p32
aS'tell early'
p33
aS'nomakeupswag'
p34
aS'matter fucked getthe returnampyou come back funny thing ever wanted alread\xe2\x80\xa6'
p35
aS'drinking coffee night thats'
p36
ag29
aS'though3'
p37
aS'lets hang live nebraska also hahait never happen'
p38
aS'amazing'
p39
aS'love band'
p40
aS'fucking omaha'
p41
aS'guess look good today'
p42
aS'warped tour'
p43
aS'bitch even close enough vote'
p44
aS'love freaking fucking movie'
p45
aS'goodmorning'
p46
aS'life without coffee cigarettes life'
p47
aS'drinking coffee sing bmth'
p48
aS'kurt cobain colonel sanders singapore 1992'
p49
aS'sound check'
p50
aS'anyone ever feels depressed suicidal always open'
p51
aS'sleepy ready tumblr twitter calling name'
p52
aS'valley girls'
p53
aS'together forever'
p54
aS'watching wreck ralph sleepy tour'
p55
aS'love'
p56
aS'okay okay dont come home football game tell people drunk know drunk hunny'
p57
aS'anonymous cover faces uncover'
p58
aS'pooping yalls dressing room guys stage'
p59
aS'follow girl hardcore please'
p60
aS'happen'
p61
aS'love'
p62
aS'wwwwwhhhoooooo piercetheveil'
p63
aS'devil everywhere'
p64
aS'devil'
p65
aS'izie'
p66
aS'yeah'
p67
ag29
aS'tweet back probably girl like bodys business'
p68
aS'mooooooom need please'
p69
aS'rock roll'
p70
aS'photo'
p71
aS'beautiful saying'
p72
aS'woke fine girl thank carvinsantaanaofficial letting apart family\xe2\x80\xa6'
p73
aS'darlingyoullbeokay'
p74
aS'come'
p75
aS'hahah dont worry probably failing mine'
p76
aS'allen'
p77
aS'sexy thannnnng billy'
p78
aS'allen allen allen'
p79
aS'billy'
p80
aS'released today would awesome could spread good word ghsf killinthegame'
p81
aS'everybody brendon urie panic disco taking instagram today\xe2\x80\xa6'
p82
aS'haha'
p83
aS'guys kinda really amazing'
p84
aS'twitter dead'
p85
aS'weird thing follow guys followed first'
p86
aS'well'
p87
asS'2013_46'
p88
(lp89
S'tree vagina'
p90
aS'delirium gotninelives'
p91
aS'cool kids mini vans'
p92
aS'monday night'
p93
aS'druuugs keep high3'
p94
asS'2013_47'
p95
(lp96
S'hold close dont watch burn\xf0\x9f\x8e\xb6'
p97
aS'want christmas'
p98
aS'abandoned house nebraska'
p99
aS'700k followers twitter thanks y\xe2\x80\x99all that\xe2\x80\x99s pretty badass gonna 700000 shots'
p100
aS'didnt realize sitting completely pitch black room'
p101
aS'read crank ellen hopkins hell fucking yeah'
p102
aS'friend sadmad guys come nebraska please'
p103
aS'must live stupidest state ever fuck nebraska'
p104
aS'american dream arent coming anywhere near'
p105
aS'turning buttercup'
p106
aS'nipples getting hard'
p107
asS'2013_44'
p108
(lp109
S'breakfast mean cigarettes'
p110
aS'mitch kenadee'
p111
aS'cant believe whole year hero shit people died ripmitchlucker kinda'
p112
aS'posted photo'
p113
aS'tried makeup'
p114
aS'happy halloween'
p115
aS'still cant believe like three years since hugged damn'
p116
asS'2013_45'
p117
(lp118
S'baby girl american average heard prophecy fall love'
p119
aS'shoes'
p120
aS'bmth brixton'
p121
aS'concert tips'
p122
aS'aint nobody time push'
p123
asS'2013_48'
p124
(lp125
S'drunk grown said looked like whore cried found friend virgins said'
p126
aS'friend gets called whore neighbor drunk says would kill uswell escalated'
p127
aS'game poker could lead falling love'
p128
aS'never friday night like sitting home stalking bands'
p129
aS'hamgtturkey'
p130
aS'came pandora nearly died'
p131
aS'concerts'
p132
aS'great pride reveal album restoringforce 2014 preorder'
p133
aS'soul eaterlt3333'
p134
asS'2013_49'
p135
(lp136
S'love'
p137
aS'cant wait'
p138
aS'sister nanny gaaaaaay'
p139
aS'definitely voted keyboardist year'
p140
aS'open'
p141
aS'ever would love'
p142
asS'2014_36'
p143
(lp144
S'voicemail power rangers theme song dont hate'
p145
aS'wheres alcohol'
p146
aS'fuck society'
p147
asS'2014_37'
p148
(lp149
S'original nirvana poster'
p150
aS'guess nothing whatever fuck face'
p151
aS'thought fall suppose like perfect weather shit'
p152
aS'excited tonight'
p153
aS'ridgeview animal hospital thank much'
p154
aS'boob'
p155
aS'good morning valley nebraska hate'
p156
asS'2014_35'
p157
(lp158
S'bought first rated movie'
p159
ag29
aS'well pneumonia'
p160
aS'really sucks'
p161
aS'sick barley breathe really hate like right'
p162
asS'2014_32'
p163
(lp164
S'someone please bring mcdonalds please'
p165
aS'cold night'
p166
ag29
aS'milk'
p167
aS'always happens'
p168
aS'text please'
p169
aS'cant'
p170
aS'fell stairs'
p171
aS'fucking night'
p172
asS'2014_33'
p173
(lp174
S'sorry'
p175
aS'youre good looking girl doughnut'
p176
aS'rock'
p177
aS'call sick first school'
p178
aS'brave little toaster'
p179
aS'sorry girls think nirvana brand clothing personally punch face'
p180
asS'2014_30'
p181
(lp182
S'adventure land connie'
p183
aS'well fuck sleep'
p184
aS'honestly miss brother'
p185
aS'everytime want color hair random unnatural color seems like everyone else fucking world wants color'
p186
aS'sucker self esteem'
p187
asS'2014_31'
p188
(lp189
S'love nirvana bitch'
p190
aS'reasons mermaid periods pants perfect hair lure death also free clam'
p191
aS'friends treating like fucking shit fuck'
p192
asS'2014_38'
p193
(lp194
g29
asS'2014_39'
p195
(lp196
S'party someone cries liking'
p197
aS'night swimming'
p198
aS'school hard liquor'
p199
aS'perfect greatest concert life'
p200
aS'going time last year probably drunk'
p201
asS'2014_18'
p202
(lp203
S'dont think stand much already miss face'
p204
aS'fuck'
p205
aS'well awkward'
p206
ag29
aS'babe'
p207
aS'shall grand night'
p208
aS'come saturday needs fast'
p209
asS'2014_19'
p210
(lp211
S'dont like pizza'
p212
aS'early'
p213
asS'2014_14'
p214
(lp215
S'screw cleaning room gunna curl watch little mermaid'
p216
aS'dear kurt years since left think every love krist'
p217
aS'greatest ever'
p218
aS'well years today world lost greatest ever ripkurtcobain'
p219
aS'ahhhh littler mermaid'
p220
aS'tomorrow year anniversary kurt cobains death'
p221
ag29
ag29
aS'love song'
p222
aS'fucking'
p223
aS'congrats making dance team'
p224
aS'totally hockey kids'
p225
ag29
aS'things show school weakness emotions pack'
p226
asS'2014_15'
p227
(lp228
S'coffee almost gone'
p229
aS'brother flower child'
p230
aS'literally probably degrees room fans blowing instead cold start killing people'
p231
aS'magical part evening thank dave love know made smile'
p232
ag29
aS'know dont feel good hair dont talk'
p233
aS'watching insidious chapter probably isnt greatest thing'
p234
aS'another sleepless night'
p235
aS'really want look sassy tomorrow time dont want early makeup'
p236
aS'good'
p237
aS'well shot didnt mean almost kill'
p238
ag29
ag29
aS'coffee sure'
p239
aS'someone take back yesterday please'
p240
asS'2014_16'
p241
(lp242
S'think grandma ditched'
p243
aS'time'
p244
aS'neighbors across street moved long time reason living room light turn'
p245
ag29
aS'simple pole vault'
p246
aS'nebraska place degrees degrees next'
p247
asS'2014_17'
p248
(lp249
S'really like nightmare street'
p250
aS'sorry would back someone threatens school time trys kill bathroom crazy'
p251
aS'change wallpaper ipod come'
p252
asS'2014_10'
p253
(lp254
S'watching black'
p255
aS'fridge look like'
p256
aS'motherfuckin jungle bitch'
p257
aS'inspired'
p258
aS'retweet inspires'
p259
aS'looks pretty today'
p260
aS'damn girl'
p261
aS'believe love like believe pain'
p262
aS'leggings wearing leggings haha think boots flannel'
p263
aS'really short front'
p264
aS'really thinking wearing dress school tomorrow'
p265
aS'swear someone school looked like young eddie vedder pearl would marry right'
p266
ag29
aS'mean cook\xf0\x9f\x98\x89'
p267
aS'totally woke'
p268
aS'mean doesnt want'
p269
aS'want join guys'
p270
aS'totes'
p271
aS'yeah sang somewhere rainbow'
p272
aS'bradleys longer best photo ever oscars'
p273
aS'oscars right instantly though'
p274
ag29
aS'decided hockey kids earlier'
p275
asS'2014_11'
p276
(lp277
S'bitch'
p278
aS'pretty much life'
p279
aS'first kiss like'
p280
ag29
aS'best photo ever'
p281
aS'excuse kiss'
p282
aS'might going date thursday'
p283
aS'hacked'
p284
aS'fucking prick'
p285
asS'2014_12'
p286
(lp287
S'love look love smack love dirty things control'
p288
aS'came homeoops'
p289
aS'watching frozen drinking best friends please'
p290
aS'better social life boyfriend'
p291
aS'wearing skirt'
p292
aS'year olds friends okay'
p293
aS'people'
p294
aS'lets real like weekend something'
p295
aS'really thank tumblr\xe2\x9d\xa4\xef\xb8\x8f\xf0\x9f\x98\x8d'
p296
aS'fucking joking either root beer cream need someone jack haha'
p297
aS'lets'
p298
aS'home'
p299
asS'2014_13'
p300
(lp301
S'like'
p302
aS'well meet boyfriend really hope like stay together'
p303
aS'accidentally thumbs downed nirvana song pandora going fucking'
p304
ag29
aS'literally wake morning ipod like 294858299284 notifications'
p305
aS'want bourbon scotch beer'
p306
aS'finally bought'
p307
aS'classic horror movies always best'
p308
aS'geez calm'
p309
aS'black hole wont come wash away rain'
p310
aS'sorry perfect daughter youve always dreamt truly'
p311
aS'listened joking like times today okay'
p312
aS'secret'
p313
aS'thank chinese people making food sharing americans'
p314
aS'moms boyfriends favorite bands pearl soundgarden nirvanahes keeper'
p315
aS'well cunt'
p316
asS'2013_51'
p317
(lp318
S'great start winter break need life'
p319
aS'hopefully good night'
p320
ag29
ag29
aS'made laurel'
p321
ag29
aS'phone'
p322
aS'thank lovely hockey player class bruise shape hockey puck fuck floor hokey'
p323
aS'fuck bitch'
p324
aS'sometimes lovelady fucking sucks'
p325
aS'sorry couldnt last night please please okay'
p326
aS'still dont understand blue hate much'
p327
aS'back stabbing bitch still cant believe suppose best friends dont flirt people'
p328
aS'yeah land pretty dont like fucking stuck bitch'
p329
aS'well guess getting shit together next semester going better school work least bitch'
p330
aS'suppose junior like'
p331
aS'thing mind right hopping alive okay'
p332
aS'hmmmmm suck fuck sweatshirt fuck swag stay sick sweatshirt help'
p333
aS'fucking whore honestly still surprised took back'
p334
aS'stoked'
p335
aS'really need february omaha'
p336
aS'well mother fucker'
p337
aS'hitler'
p338
aS'blame hitler eating frosted flakes even though'
p339
asS'2013_50'
p340
(lp341
S'cant wait next weekend'
p342
aS'happy birthday'
p343
aS'happy birthday booty nugget'
p344
aS'womancrushwednesday'
p345
aS'favorite movie donnie darko thanks'
p346
asS'2014_8'
p347
(lp348
S'another episode supernatural hmmmanother episode supernatural'
p349
aS'yesterday throwing guts felt like hell today feel like never sick fuck'
p350
aS'finally home hospital time sleep\xe2\x9d\xa4\xef\xb8\x8f'
p351
aS'hour'
p352
aS'well hospital nurse russian took blood'
p353
aS'happy birthday greatest ever kurt cobain\xe2\x9d\xa4\xef\xb8\x8f'
p354
aS'think'
p355
aS'wont leave alone laying right'
p356
aS'haha yeah yeah said shes going lock room boys fend'
p357
aS'spelt name wrong brody tucker brody sick'
p358
aS'damn cotton ball thing hand'
p359
aS'beyond happy little brother okay'
p360
aS'well little brothers hospital'
p361
aS'okay really stomach want school missed much stomachflu'
p362
aS'watching supernatural nebraska'
p363
aS'going spend school watching supernatural drinking soda'
p364
aS'past weekend stood lost friend stupid head feels like elephant stepping'
p365
asS'2013_52'
p366
(lp367
S'never disney movies'
p368
aS'hate girls'
p369
aS'naughty naughty'
p370
aS'think people might catching'
p371
aS'really make sick'
p372
aS'make sick'
p373
aS'nasty'
p374
aS'decision make self nigga'
p375
aS'need take medication smoke cigarette make rice think'
p376
aS'best christmas break ever'
p377
aS'great night fucking allergies attack home'
p378
aS'happy holidays everyone please share'
p379
aS'merry christmas filthy animal'
p380
aS'cant spell santa without satan'
p381
aS'bought lighter christmas'
p382
aS'honestly fucking hate christmas sorrynotsorry'
p383
asS'2014_6'
p384
(lp385
S'lets hope hair didnt turn orange'
p386
aS'electrick children best movie ever'
p387
aS'cutie'
p388
aS'sick take steroids'
p389
ag29
aS'sick kind fuck life'
p390
aS'hate going school getting sick tired able sick keep getting fuck'
p391
aS'swear house fucking death cant along would rather live right'
p392
ag29
aS'hands fiiiirreeee'
p393
aS'today smashing pumpkins'
p394
aS'hell yeah school tomorrow'
p395
aS'literally calm kept dying flappy bird thatfuckingbird'
p396
aS'school cancelled please'
p397
aS'horrible applying false lashes tragic'
p398
asS'2014_7'
p399
(lp400
S'took photo last year wild fire dads house vegas always love'
p401
aS'well today turned like shit'
p402
aS'time favorite movie'
p403
aS'finally free money stuff hang fucking hell'
p404
aS'love docs'
p405
aS'definitely downloaded fall bird'
p406
aS'time last year different miss'
p407
aS'okay'
p408
aS'sorry'
p409
aS'love'
p410
aS'concert'
p411
aS'excited friday'
p412
asS'2014_4'
p413
(lp414
g29
aS'ugly thats okay cause weve broken mirrors'
p415
aS'still cant birthday'
p416
aS'proud listen nirvana instead justin bieber'
p417
ag29
aS'celling school falls still school west'
p418
aS'pink purple hair hello normal hair color'
p419
aS'heating house broke kill'
p420
aS'wanna know ever seen rain come sunny'
p421
aS'leave hour fuck'
p422
aS'tits'
p423
aS'already please'
p424
ag29
aS'another nirvana outfit school tomorrow think'
p425
ag29
aS'sweet lord someone gave this\xf0\x9f\x98\x83 would happiness nirvana'
p426
aS'time last year everything different much better miss friends'
p427
aS'thing pinkish purple hair keep redoing hair color well fucked'
p428
aS'home fucking cunts hell okay'
p429
aS'smile face always laughing doesnt mean want blow fucking brains'
p430
aS'ever find boyfriend seriously'
p431
aS'single forever'
p432
aS'someone texted asking favorite words replied fucking cunts naughty mouth'
p433
aS'song comes pandora fucking hell miss'
p434
aS'hours freezing cold room home keep acting nice'
p435
aS'dont tomorrow might dead'
p436
aS'guess skipped school last friday didnt cell phone took'
p437
aS'school suspension'
p438
aS'halla fake glasses'
p439
aS'know feeling want cant thats everyday'
p440
asS'2014_5'
p441
(lp442
S'might getting nose pierced'
p443
aS'someone please take lynn walmart'
p444
aS'really cant wait'
p445
aS'every time post picture wearing nirvana sweatshirt swear wear clothes'
p446
aS'girl problems putting leggings shower'
p447
aS'follow instagram cheyannecobain'
p448
aS'ahhhh jimi hendrix'
p449
aS'hockey players school brothers call nirvana'
p450
aS'notforlonglife'
p451
aS'virginlife'
p452
ag29
aS'dont want'
p453
aS'didnt well shit hear best room'
p454
aS'iwontcleanitupthatsyourjob'
p455
aS'thats nasty'
p456
aS'come live william cook guys spaghetti live closet wont alone\xe2\x98\xba\xef\xb8\x8f'
p457
aS'going alone'
p458
aS'mean know guess somethings never last forever'
p459
aS'wanna feel happiness though'
p460
aS'feels nice feel happiness long time'
p461
aS'fucker best remember hurts hurt'
p462
aS'even happy like look baby girl grown boyfriend'
p463
aS'well shouldnt damn mother fucking cute andi hate fuck'
p464
aS'hate fuck williams cute relationship'
p465
aS'happen damn'
p466
aS'archies final project great movie'
p467
aS'biggest secret know'
p468
aS'followed baby cover nevermind happy right'
p469
ag29
aS'hockey school think always know nirvana dont even think half know real name'
p470
aS'heart carmel starbucks frappuccino camel menthols suckers like nirvana'
p471
aS'give therapy walking travesty smiling everything\xf0\x9f\x92\x94'
p472
ag29
aS'gramma take home'
p473
aS'right nowin want home smoke cigarette pass like next year'
p474
aS'tonight amazing'
p475
asS'2014_2'
p476
(lp477
S'watching signs'
p478
aS'happy found lost boys movie'
p479
aS'another sleepless night guess'
p480
aS'damnit women need text important question'
p481
aS'random selfie'
p482
aS'tell something crazy tomorrow'
p483
aS'done trying'
p484
aS'would amazing guys checked cousins clothing line high throne clothing\xe2\x9d\xa4\xef\xb8\x8f'
p485
aS'okay'
p486
aS'alwaysblink182'
p487
aS'havent smiled like longest time\xe2\x9d\xa4\xef\xb8\x8f\xf0\x9f\x98\x8d'
p488
asS'2014_3'
p489
(lp490
S'keepin grudge'
p491
aS'real friends kill friends'
p492
aS'horror movie night'
p493
aS'cant wait love life tonight'
p494
aS'thanks ruining night asshole know shit ruined damn family start using fuck'
p495
aS'cant wait tonight'
p496
aS'eyes like crash know shouldnt look cant turn away'
p497
aS'probably start wearing pants'
p498
ag29
aS'deathbed life leave lungs heart stay'
p499
aS'zombieboy first ever live band show'
p500
aS'great shot rene zombieboy'
p501
aS'cool shot archives zombieboy'
p502
aS'fake sick school'
p503
aS'sometimes gotta look mirror prettiest princess land'
p504
aS'exam easy gets'
p505
aS'money though'
p506
aS'hell yeah watch horror movies night\xf0\x9f\x98\x83\xe2\x9d\xa4\xef\xb8\x8f\xe2\x9d\xa4\xef\xb8\x8f\xe2\x9d\xa4\xef\xb8\x8f\xf0\x9f\x98\x83\xf0\x9f\x98\x83\xe2\x9d\xa4\xef\xb8\x8f\xe2\x9d\xa4\xef\xb8\x8f\xf0\x9f\x98\x83\xe2\x9d\xa4\xef\xb8\x8f\xf0\x9f\x98\x83\xe2\x9d\xa4\xef\xb8\x8f\xf0\x9f\x98\x98\xf0\x9f\x98\x98\xf0\x9f\x98\x8d\xf0\x9f\x98\x8d\xf0\x9f\x98\x98\xf0\x9f\x98\x98\xf0\x9f\x98\x98\xf0\x9f\x98\x98\xf0\x9f\x98\x8d\xf0\x9f\x98\x8d\xf0\x9f\x98\x8d\xf0\x9f\x98\x8d\xf0\x9f\x98\x8d\xf0\x9f\x98\x8d\xf0\x9f\x98\x8d\xe2\x98\xba\xef\xb8\x8f\xe2\x98\xba\xef\xb8\x8f\xe2\x98\xba\xef\xb8\x8f\xe2\x98\xba\xef\xb8\x8f'
p507
aS'heart been\xf0\x9f\x92\x94'
p508
aS'miss'
p509
aS'lunch detention suck fucking dick kidding dont want yelled school'
p510
aS'clue going tomorrow phonewell never text anyways guess deal'
p511
aS'much demons know swim cant drown'
p512
aS'bitch'
p513
aS'cant wait summer thank telling going dads'
p514
aS'facebook makes want cactus even normally'
p515
aS'going rest eyes minutes wakes march 27th 2098'
p516
aS'gets headaches hair ponytailbun long'
p517
aS'thinks okay amazing phone call stupid going laurelcomeback'
p518
aS'walking dead possible every womans hair never gets greasy zombie apocalypse'
p519
aS'crash thank pandora'
p520
ag29
aS'thank pandora playing twice'
p521
aS'toasted peanut butter jelly sandwich breakfast side bacon parents rules'
p522
aS'sleeping medicine cigarette come'
p523
aS'feeling going night'
p524
aS'retweet youre excited album'
p525
aS'college tears'
p526
asS'2014_1'
p527
(lp528
S'5oclock morning demons head like wake'
p529
ag29
aS'wants follow'
p530
aS'post limit tumblr nine oclock everyday wait keep reblogging bloggerproblems'
p531
aS'someone come cuddle watch stupid movies please'
p532
aS'330am cigarette hell'
p533
aS'hurt feelings'
p534
aS'eats poop'
p535
aS'asshole'
p536
aS'really'
p537
aS'share'
p538
aS'tell'
p539
aS'hell yeah'
p540
aS'sick together'
p541
aS'mwahahahhahaha'
p542
aS'sick'
p543
aS'come back home'
p544
aS'swear people snapchat would think crazy'
p545
aS'mean laurel'
p546
aS'maybe'
p547
aS'watch'
p548
aS'bail'
p549
aS'know jail'
p550
aS'damn already miss fucking face'
p551
aS'scary movie marathon alone preview 2014 like'
p552
aS'beyond happy okay babe'
p553
aS'tall guys wear beanies listen punk weakness'
p554
aS'make nigga'
p555
aS'makes laugh even though beyond sick love'
p556
asS'2014_43'
p557
(lp558
S'last night though'
p559
aS'smoking cigarette brushing teeth almost drinking orange juice brushing teeth'
p560
aS'saturday going greatest ever'
p561
asS'2014_42'
p562
(lp563
S'third grade thought color pink shit great style'
p564
aS'quote really picture cant'
p565
asS'2014_41'
p566
(lp567
S'cool'
p568
aS'yeah guys whatever'
p569
aS'shes slut guys broken would appreciate didnt talk best friend like'
p570
aS'dude obviously know make mind wants'
p571
aS'maybe werent crazy wouldnt cheat'
p572
aS'maybe throw ground school home'
p573
aS'geez love'
p574
aS'friendship couldnt weirder'
p575
asS'2014_44'
p576
(lp577
S'welcome west play song getting drunk plane lunch'
p578
aS'hate school'
p579
aS'best friend december'
p580
asS'2014_9'
p581
(lp582
S'would fuck tits time'
p583
aS'watching ghost adventures babe\xf0\x9f\x98\x98\xe2\x98\xba\xef\xb8\x8f\xf0\x9f\x98\x8a\xf0\x9f\x98\x8d'
p584
aS'circus tonight'
p585
aS'look like every hockey'
p586
aS'cute relationship'
p587
aS'world ever gets bombed fault'
p588
aS'smoke cigarettes mean every time hall need make references smoking asshole'
p589
aS'hell dont belong'
p590
aS'hard find plain black white stripped shirt like pugsley addams well fucking hard'
p591
asS'2014_29'
p592
(lp593
S'totally creepin'
p594
aS'know dont freak nirvana comes radio'
p595
aS'pink gets high kite'
p596
aS'summer going fast'
p597
asS'2014_28'
p598
(lp599
S'great time tonight'
p600
aS'kinda figured'
p601
aS'gonna watch hemlock grove concert tonight'
p602
aS'really excited years freshman ever'
p603
aS'little sister today cried year long'
p604
asS'2014_21'
p605
(lp606
g29
asS'2014_20'
p607
(lp608
S'oops pineapple lets hope dont'
p609
aS'officially tornado'
p610
asS'2014_23'
p611
(lp612
S'think much feel little'
p613
aS'little turd'
p614
aS'going fambam today'
p615
aS'green best'
p616
aS'bite close eyes take away paradise'
p617
aS'offspring pennywise religion need'
p618
asS'2014_22'
p619
(lp620
S'left home alone durning server thunderstorm watch'
p621
aS'fuck'
p622
aS'cute like'
p623
aS'please'
p624
aS'train tunnel'
p625
aS'well fuck'
p626
aS'would funny illustrators name william'
p627
aS'never knew wrote book'
p628
aS'exstep house start punching walls'
p629
aS'happy'
p630
asS'2014_25'
p631
(lp632
S'found moms janes addiction tape might'
p633
aS'scream marathon little brothers'
p634
asS'2014_24'
p635
(lp636
S'whos bitch noooow'
p637
aS'night last night'
p638
aS'rather godzilla fault stars'
p639
aS'never drinking someone definitely drink'
p640
aS'well food poisoning fuck arbys'
p641
asS'2014_27'
p642
(lp643
S'totally kaylee west arrested'
p644
aS'night'
p645
aS'free alcohol best kind alcohol sorrynotsorry'
p646
aS'hunny walked stop wanting back'
p647
aS'happy'
p648
asS'2014_26'
p649
(lp650
S'going bang'
p651
aS'fucking'
p652
aS'people bought little brothers snapper things burn hell'
p653
as.