(dp0
S'2013_42'
p1
(lp2
S'pacific beach best spot'
p3
aS'fast forward degree please'
p4
aS'wedding still like right'
p5
asS'2013_43'
p6
(lp7
S'drinkinouttavasesamirightttt celebrate bangerztour2014'
p8
aS'feel people living streets cant help'
p9
aS'dont like scary movies wanna carrie'
p10
aS'shake like polaroid picture'
p11
aS'life perks lady'
p12
aS'happiness giving receiving acts 2035'
p13
aS'wanna tonight good stuff'
p14
aS'urban outfitters already film camera'
p15
aS'drake birthday'
p16
aS'never doubt gotten though every hard moment life'
p17
aS'know feeling like somethings missing cant figure'
p18
aS'always best even fail keep trying sees work passion persistence'
p19
aS'wanna move plesanton nice closer work'
p20
aS'need people presents still counting love xmas shopping'
p21
aS'thats cute'
p22
aS'ohhh okay thats like pimp bunny lmao'
p23
aS'like 1920s playboy'
p24
aS'sees sees'
p25
aS'you\xe2\x80\x99re failure stop trying testimony still'
p26
aS'rather things right even hardest'
p27
aS'hate people charming want people'
p28
aS'like sexy cave manlumberjack ahaha'
p29
aS'disappointments setbacks life hang promises future'
p30
aS'wanna drive city today since bart isnt working world would hours'
p31
aS'already know theres gonna horrible traffic'
p32
aS'drive city tomorrow'
p33
aS'little sister snap chat awkward lmao'
p34
aS'must obey rather acts'
p35
aS'don\xe2\x80\x99t give people love patient love faithfulness exactly need make complete\xe2\x80\xa6'
p36
aS'headache'
p37
aS'brain hurts much information'
p38
aS'love coworkers starbucks theyre nice'
p39
aS'gonna bart strike well'
p40
aS'bart workers killed oncoming train'
p41
asS'2013_41'
p42
(lp43
S'banana bread sooooo tasty'
p44
aS'barista'
p45
aS'second interview starbucks'
p46
aS'omgosh sketch'
p47
aS'hahahahahah'
p48
aS'realize crazy'
p49
aS'baking cookies tonight'
p50
aS'went month span'
p51
aS'starting back feels amazing'
p52
aS'miss performing'
p53
aS'friends wanna back online haha'
p54
aS'watching movement inspiration'
p55
asS'2013_46'
p56
(lp57
S'really wanna kate nash concert weekend'
p58
aS'like working mornings cause early like working nights cause whole bunch free food'
p59
aS'love cake pops'
p60
aS'omgosh love holiday decor store pretty'
p61
aS'never grow taylor'
p62
aS'meant flowey'
p63
aS'goal gawgeous flower hair like sarah'
p64
aS''
p65
aS'free tall brewed coffee today veterans active duty military active duty spouses'
p66
asS'2013_47'
p67
(lp68
S'sushi time'
p69
aS'sooo everytime loose favorite scrunchie always like babe seen scrunchie ahahaha almost everyday'
p70
aS'true'
p71
aS'hate working mornings'
p72
aS'even best fall sometimes'
p73
aS'focus positive'
p74
aS'miss spoiling even though shes bratty'
p75
aS'miss best friend'
p76
aS'favorite factor look forward performance'
p77
aS'excited miss kate nash'
p78
aS'anyone want kate nash ticket friday night filmore'
p79
aS'housewife minus cooking cleaning kids\xe2\x80\x9d\xf0\x9f\x91\x8d\xf0\x9f\x98\x82'
p80
aS'begin againtaylor'
p81
aS'wants miley february either oakland jose cause know wont wanna hahah'
p82
aS'sleepy'
p83
aS'minimum wage york really'
p84
ag65
aS'idea want life'
p85
aS'hanging lights christmas blend named rudolph'
p86
aS'damned damned dont'
p87
aS'uhhh pomski pomsky however spelled melt'
p88
asS'2013_44'
p89
(lp90
S'boooooooooring'
p91
aS'wants watch sons anarchy'
p92
aS'well bored doesnt wanna hangout'
p93
aS'never early little redcups sharejoy'
p94
aS'locked keys like time'
p95
ag65
aS'sleeping beside someone love improves quality sleep makes easier wake'
p96
aS'boys learn piss girls cause sorts crazy'
p97
aS'love baby'
p98
aS'gonna american apparel shopping spree year'
p99
aS'aahalloween'
p100
ag65
aS'need something wake'
p101
aS'youre constant reminder love'
p102
aS'theres pizza home'
p103
aS'wish syrups starbucks werent drinks often'
p104
aS'pumpkin'
p105
aS'seriously bill collectors stop harassing'
p106
aS'salmon'
p107
aS'miss baby'
p108
asS'2013_45'
p109
(lp110
S'smile things working know directing'
p111
aS'work life right directing steps thought setback going turn'
p112
aS'remember good high school days hahaha'
p113
aS'carrie diaries'
p114
aS'continue love brothers sisters don\xe2\x80\x98t forget love strangers hebrews'
p115
aS'pretty ghet right'
p116
aS'wanna instead buying ehhh'
p117
aS'conservative control freak liberal weirdo'
p118
aS'nick jess different like ahaha'
p119
aS'well maybe cause ahahah gettin masters getterdone'
p120
aS'acts like college student'
p121
aS'call frat shawn ahaha'
p122
aS'seriously reminds nick girl fratboyshawn'
p123
aS'peacemakers happy they\xe2\x80\x98ll called gods children matthew'
p124
aS'seriously want debt petpeeve'
p125
aS'wanna photography'
p126
aS'know want without even trying everything'
p127
aS'everyones like need pick thing stick'
p128
aS'wanna many things'
p129
aS'idea want life career wise depressing'
p130
aS'bottoms trashy saying'
p131
asS'2013_48'
p132
(lp133
S'found cupcake repeat cupcake'
p134
aS'boyfriend asks everything like mexi house wife squeeze'
p135
aS'find eating horrible still continue much'
p136
aS'like boulange croissants though'
p137
aS'tracy starbucks dont boulange bakeries'
p138
aS'favorite starbucks tracy valpico nice random cake flavors'
p139
as.