(dp0
S'2014_36'
p1
(lp2
S'need watch kill bill movies'
p3
aS'long dont splash water fine sometimes little splashback refreshing'
p4
aS'make drop kids pool'
p5
aS'traditional browntown slip slide'
p6
aS'mexican food swimming today stoked'
p7
aS''
p8
aS'werkin'
p9
aS'shark eats like guys guys kill explainafilmbadly'
p10
aS'family gets ghosts move away theres ghosts explainafilmbadly'
p11
aS'also found gecko missing months running around petco omfg'
p12
aS'made today real nice'
p13
aS'going petco makes cant take animals home'
p14
aS'today really good'
p15
aS'olive garden come'
p16
aS'green bean casserole brisket amazing getting wings next time though'
p17
aS'place chimney brisket hell'
p18
aS'anyone patterns purpose edition need huge favor'
p19
aS'must modest'
p20
aS'sushi today'
p21
aS'love'
p22
aS'single going weird'
p23
aS'yooooooo'
p24
aS'unable sleep also feelin pretty shitty combo'
p25
aS'none nudes leaked cause theyre canvas adorning parlor room walls'
p26
aS'skills'
p27
aS'pacsun sweet times'
p28
aS'cool infinity scarf today sweet deal'
p29
aS'interviewing lids annie come bright purple track suits'
p30
aS'walk bright purple outfits hello team interview group interview'
p31
aS'totally colorcoordinate tomorrow'
p32
aS'bobby shmurda locked nigga started career week'
p33
aS'sugar daddies money creepy contest'
p34
aS'pretty excited interview pacsun tomorrow working food long retail sounds fantastic'
p35
aS'please please watch love'
p36
aS'multiple items shipped custom designed crate month licensed looter exclusives'
p37
ag8
aS'clearly failing adult'
p38
aS'always dress professionally cracker barrel favorite lunch destinations'
p39
ag8
aS'disgusted reactions mass hacking poor women anyone promoting ashamed'
p40
aS'honestly dont even enjoy jennifer lawrence dont fucking post nudes everywhere messed'
p41
aS'would cool everyone redo time could back tell something'
p42
aS'boring 4day weekend ever'
p43
aS'computer load celery'
p44
ag8
aS'wish could find cheap iphone without year contract already straight talk dont need atampts bullshit'
p45
asS'2014_37'
p46
(lp47
S'shit good'
p48
aS'true open windows spray febreeze everything'
p49
aS'candle'
p50
aS'remember time kissed mouth chicken'
p51
aS'sunday essentially sweet anime akame kill piece update'
p52
aS'tell streak thats stand naked taylor'
p53
aS'happy birthday'
p54
aS'twit love cabagbe ignore want worm live inside crawl around insides'
p55
aS'annie dont tweet poop'
p56
aS'waiting long'
p57
aS'november'
p58
aS'blue steel stole heart'
p59
aS'tell'
p60
aS'announced release date puppycat series'
p61
ag8
aS'brilliant surprise lootcrate looterpics'
p62
aS'came clutch'
p63
aS'well dangit neck harder'
p64
aS'smash code'
p65
aS'star wars collectibles months excited'
p66
aS'crazy think george clooneys dick years'
p67
aS'scared'
p68
aS'japanese hoppop stuff good watch'
p69
aS'unreal'
p70
aS'free massage today plus whole pizza cheese today good'
p71
ag8
aS'makin sure bruh'
p72
aS'people said thats worst sims game'
p73
aS'strong independent woman'
p74
aS'blues brothers movies honestly favorite movies world'
p75
aS'miss lunch 12502 tomorrow wanna'
p76
aS'maam'
p77
aS'know supposed take notes chapter'
p78
aS'kind upset still episodes killer appears'
p79
aS'youre ready fall'
p80
aS'tonight watch blues brothers movies kill bill movies'
p81
aS'catfish angry internet users'
p82
aS'sounds like plan'
p83
aS'fuuuuuuuuck cool wanna meet'
p84
aS'grab headphones'
p85
aS'hidan shit'
p86
aS'nerds'
p87
aS'pumpkin latte'
p88
asS'2014_34'
p89
(lp90
S'anyone want workout buddy gonna start going tuesdays thursdays state fitness center'
p91
aS'multiple deemons sick twizlerd mind'
p92
aS'remove previous tweet please'
p93
aS'sick nasty twizted'
p94
aS'southernstyle chicken sandwich sauce jalape\xc3\xb1os'
p95
aS'hate puppet users naruto'
p96
aS'film appreciation probably favorite class english comp close second'
p97
aS'times wish could quit existing awhile thatd ultimate stress reliever'
p98
aS'real stoked black sheep tuesday'
p99
aS'gonna make quesadilla something'
p100
aS'ready thrown acid'
p101
aS'feel like gonna free time wont idea dont like'
p102
aS'hate chiyo'
p103
aS'loot crate honestly best exclusives ever seen'
p104
aS'marshall kids dont pirate movies marshalls wifi flats'
p105
aS'cant wait monday finish plan outer space film appreciation'
p106
aS'finally last books finished papers gonna watch naruto shippuden'
p107
aS'breakdancing legally tell'
p108
aS'skeleton hell fuck'
p109
ag8
aS'fuckmyhotbuttfriday'
p110
aS'rubies chain look like hawaiian punch'
p111
aS'remix anaconda giving much life'
p112
aS'nicki minaj riff raff anaconda leakers audio'
p113
aS'vehicle navigate avenue'
p114
aS'always carry decoy piece bread pocket case robbed duck duck isn\xe2\x80\x99t getting real bread'
p115
aS'literally cried legend korra season finale'
p116
aS'datin fuckin best friends somethin'
p117
aS'aight good'
p118
aS'tell mood quit'
p119
aS'groot'
p120
aS'kids wanna give everything would want'
p121
aS'blast college'
p122
aS'outside lobby'
p123
aS'mondo subs union'
p124
aS'still hours'
p125
aS'alrighty tomorrow'
p126
aS'gonna around 1045 meeting sydni annie visitors wallace'
p127
aS'beard shaved'
p128
aS'shaving beard'
p129
aS'weird cant take'
p130
aS'truth rough hours'
p131
aS'thanks dude'
p132
aS'emotional breakdowns bathrooms love life'
p133
aS'cool'
p134
aS'sounds good next tuesday maybe tomorrow hour lunch thursday cookout thing'
p135
ag8
aS'hope loot crate comes soon excited'
p136
aS'love caffeine'
p137
aS'niggas like shelf extracts'
p138
aS'meet'
p139
aS'kmoney meet cantdance meet whenever dont class'
p140
aS'cook thing booths clubs stuff starts time ends'
p141
aS'class already home going student stride thing thursday'
p142
aS'good time'
p143
aS'dont class going olive garden class'
p144
aS'cafeteria food smelled extra good earlier'
p145
aS'aiiiiight thats gathered email wasnt sure thats case mondo subs days'
p146
aS'episodes naruto shippuden'
p147
aS'states email confusing pretty sure already loaded onto student'
p148
aS'commuter meal plan automatically applied something sign'
p149
aS'many people today havent seen years ridiculous'
p150
aS'today pretty chill getting scaredstuck state also mondo subs hella good'
p151
aS'unfortunately like traveling medicine town every full moon'
p152
aS'ohhhhhhhhhhhhhhhhhhhh'
p153
aS'butt cents'
p154
aS'meant'
p155
aS'break anyone wants chill around state'
p156
asS'2014_35'
p157
(lp158
S'human babies idiots compared animal babies'
p159
aS'groot mikey looterlove'
p160
aS'happy birthday homes'
p161
aS'something fireflyrelated september loot crate happy'
p162
aS'anybody update kony real worried'
p163
aS'trouble sleeping sucks'
p164
aS'group project'
p165
aS'know'
p166
aS'years practice homie'
p167
aS'bill lobster gift cards'
p168
ag8
aS'saying obamacare perfect data doesnt obamacare thereve zero hitlers obamacare'
p169
aS'visa gift cards always'
p170
aS'already excited septembers loot crate theres another funko exclusive groot friend'
p171
aS'lots licensed exclusives next crate including total epic items blow away'
p172
aS'forgot frosting brownies ended pretty good love baking'
p173
aS'knowlootcrate'
p174
aS'sakura useful shippuuden makes happy'
p175
aS'country literally going backwards time regards racism'
p176
aS'glad gets cooler'
p177
aS'qdobas diablo queso amazing'
p178
aS'dick butt'
p179
aS'time dude handed drive thru extra breadsticks real happy'
p180
aS'wish sheetz close campus would money'
p181
aS'nice hear'
p182
aS'genuinely wish better person'
p183
ag8
aS'dude forgot cool community decided check'
p184
aS'cant sleep'
p185
aS'spelled name wrong somebody wants pringle'
p186
aS'corey porterfield could real dick sucked owwwww yoooooooooooo'
p187
aS'youre bullshit bully troll think machines real'
p188
aS'whens last time ever used machine cant remember exactly'
p189
aS'keyboard probably isnt even mechanical'
p190
aS'shit rockem though adultbraces2014'
p191
aS'whaaaaaaaaaaaaat'
p192
aS'heres talking lunch'
p193
aS'child stars grew shockingly older looking'
p194
aS'real doozy maskers apple chips effect doctors appleday'
p195
aS'cash next guest cashing hope always hoot'
p196
aS'fuckin flex zone remix shit right'
p197
aS'miss spicy baconator'
p198
aS'dont feel dumpy gonna omelets friendship'
p199
aS'sounds good around might ahead come whenever'
p200
aS'awesome thanks'
p201
aS'thats class starts'
p202
aS'bring book morning need tomorrow'
p203
aS'still stuffed half falafel hummus burrito ughhhh half waiting fridge'
p204
aS'hate seeing people sneak pics make people look grow fuck theyre people'
p205
aS'groot precious glows dark thank lt333 looterlove'
p206
aS'hominy isnt even good'
p207
aS'trutl shel'
p208
aS'mikey joinin pizza party'
p209
aS'hello groot'
p210
aS'danzo'
p211
aS'glad'
p212
aS'love almost every'
p213
aS'facts'
p214
aS'cant stop jing pics normal women seem available nice'
p215
aS'omelet morning fuckin look'
p216
aS'used take home hang schoolboy'
p217
aS'highfive'
p218
aS'omelet morning point'
p219
aS'real mans dont wach vmas real mans wach narutos agree'
p220
aS'insane fitness followed notice rotisserie chicken sandwich almost 11pm'
p221
aS'seconds summer like guys balls bummer testicles infected cream isnt working'
p222
aS'ariana grande like areumy grandpa girl saggy testicles'
p223
aS'sing line turn radio song'
p224
aS'course right start like chiyo dies'
p225
asS'2014_32'
p226
(lp227
S'people suck'
p228
aS'spilling much truth past days love'
p229
aS'gonna sleep fishes omfg fish naps please sounds cuuuute'
p230
aS'bitch notes call luther vandross'
p231
aS'whole dollars make rain conservative'
p232
aS'best thing couldve ever happened honored'
p233
aS'cooliest'
p234
aS'cooledgyhard'
p235
aS'real upset whole'
p236
aS'today already sucks want week'
p237
aS'advocating type abuse fucked racial homophobic slurs thank stay rock'
p238
aS'reported river monster fuck thats legitimately disgusting behavior dudes adult'
p239
aS'white people like theres thing white privilege'
p240
aS'rango unchained'
p241
aS'also game thrones'
p242
aS'need find part time start state charleston gets'
p243
aS'team pool needs official vote support lets break internet retweet would ticket deadp\xe2\x80\xa6'
p244
aS'cant sleep brain keeps talking things make anxious great hahahahaha'
p245
aS'want canada point'
p246
aS'like coffee black like metal'
p247
aS'wish would chrono trigger remake'
p248
aS'omfg please'
p249
aS'monsters riding backs monsters'
p250
aS'cant illegal also apparently making sequel'
p251
aS'theres gonna second work thought closed rift whatever'
p252
aS'mean gurren lagann'
p253
aS'dont even care sound gaia fucking dope right'
p254
aS'havent used snipchip'
p255
aS'decided watch naruto ever caught segments time giving linear'
p256
aS'could raising steaks'
p257
aS'looked recipes turn'
p258
aS'want marinade steak mission'
p259
aS'fire fire nothing breh also sriracha burger fantastic'
p260
aS'yeeeeees burger condiment'
p261
aS'imagine lean everyone would could harness suns energy food'
p262
aS'still cant sleep wanna puke holla'
p263
aS'almost time goes videos police brutalityabuse power posted know something wrong police force'
p264
aS'never seen dude mall youre charleston'
p265
aS'super right feel good'
p266
aS'yeah watch subbed version english dubs almost always sound weird'
p267
aS'honestly favorite anime also started akame kill pretty awesome episodes'
p268
aS'wish'
p269
aS'yeeeeeeeeeeeeeeeeeh hahaaaaaaaa'
p270
aS'lucy skai wdiaminds mayb hahahahahahahahahaha'
p271
aS'cant understand people still believe brain thing'
p272
aS'yeah like beginning last month'
p273
aS'class better classes good luck'
p274
aS'dude check akame kill assassins magic shit pretty cool episodes'
p275
ag8
aS'hurling swarms wasps people'
p276
aS'cant find cheesy garlic pizza rolls anywhere upset'
p277
aS'convection ovens less energy conventional ovens cool making pizza rolls taste great'
p278
aS'third fluid sucks'
p279
aS'many brands recognize take away logo leave name'
p280
aS'interned right place yeah mostly corps graduates people going'
p281
aS'orientation'
p282
aS'31536000 seconds year'
p283
aS'cool would take wing show good stuff high school'
p284
aS'anyone knows huntington high students tell lookout brother daniel kind nervous would'
p285
aS'dude need watch hunter hunter also seasons fairy tail'
p286
aS'decided gaia recently forgot dress avatar'
p287
aS'mama butterscotch muffin hole'
p288
aS'sdcc smash bros tournament nearly interesting wiiu tournament'
p289
aS'wanted chase match shitty mids weird experience'
p290
aS'name omarion youre odaddy'
p291
aS'fucking remember odaddy fuuuuuuck'
p292
aS'augusts mega crate revealed'
p293
aS'watching guys legit forgot blur girls butthole vagina'
p294
aS'love hulk hogan warlords draenor alpha spawning incomplete brother'
p295
asS'2014_33'
p296
(lp297
S'sounds good'
p298
aS'genetically engineer giant claw hand like crab claw'
p299
aS'okey doke tuesday freshman experience 2315 meet whenever'
p300
aS'haha true'
p301
aS'freight elevator used freak take trash worked hollister hated'
p302
aS'hallways freaky'
p303
aS'class 930515 huge break 1045 break'
p304
aS'well none books torrent sites rented anyway'
p305
aS'times class monday enjoy seeing'
p306
aS'haha nope west side charleston snap'
p307
aS'officially wvsu student holla'
p308
ag8
aS'kitten chest love'
p309
aS'chocolate chip'
p310
aS'hell yeah cookies'
p311
aS'hahaha assuming found'
p312
aS'sure youll find'
p313
aS'also cant find book'
p314
aS'know'
p315
aS'save money homes'
p316
aS'also able phone cool'
p317
aS'able download textbooks free cool'
p318
aS'mean grow full beard month'
p319
aS'shave beard strongly considering'
p320
aS'completely original character made years totally second'
p321
aS'gonna toronto block party like mdbp'
p322
aS'sign petition help federal mandate make police officers wear cameras help misconduct'
p323
aS'america isnt safe'
p324
aS'chicago state police going troubled neighborhoods look criminals days actual fuck'
p325
aS'apparently police removed badges tags proves know theyre inhumane illegal ferguson'
p326
aS'social media even aware even isnt safe disgusting'
p327
aS'unarmed people sitting crosslegged street shot tear rubber bullets higher powers ferguson'
p328
aS'operators louis police department telling people fuck college education calling'
p329
aS'standupfightback'
p330
aS'ferguson nightmare constitution doesnt matter anymore rights taken people something'
p331
aS'officers louis county police department africanamerican police chief owns conf flag racism dead'
p332
aS'link posted says another live stream roughly hour'
p333
aS'kidding'
p334
aS'people peaceful still fired upon disgusting'
p335
aS'country fucked heart ferguson'
p336
aS'drunk rock best rock'
p337
aS'honestly favorites stoked'
p338
aS'haha imagine right naruto team trying retrieve sasuke kimimaru appeared'
p339
aS'original never watch restarting watching shippuden'
p340
aS'started watching last week episode'
p341
aS'chicken fries skyler white'
p342
aS'loot crate gets sent days excited'
p343
aS'we\xe2\x80\x99ll taking photos original skeksis sunday throwback'
p344
aS'hideo kojima guillermo toro team silent hill'
p345
aS'infection death'
p346
aS'today twitter multiple burger kings chicken fries everyones angry'
p347
aS'ninja hidden valley ranch'
p348
aS'welcom talo'
p349
aS'heppy burtday'
p350
aS'orientation state friday getting chicken fries afterwards question'
p351
aS'everyone please take moment congratulate news president bangup'
p352
aS'absolutely stunned hear news robin williams unimaginable weve lost genuinely funny'
p353
aS'robin williams sorely missed'
p354
aS'really glad today'
p355
aS'putaburgerkingininstitute2014'
p356
aS'looked nearest google across river state though closer gotta play'
p357
aS'seriously chicken fries every state'
p358
aS'mean cant take granted away gotta make'
p359
aS'bout chicken fries every holy shit'
p360
aS'chicken fries back burger king omfg'
p361
asS'2014_30'
p362
(lp363
g8
aS'little brother today thats crazy'
p364
aS'nickelodeon shows \xe2\x80\x9cdoug\xe2\x80\x9d stimpy\xe2\x80\x9d rugrats\xe2\x80\x9d premiered original nicktoo\xe2\x80\xa6'
p365
aS'know'
p366
aS'rule know youre'
p367
aS'would makes ugly thing'
p368
aS'binaural beats relaxing'
p369
aS'happy book fantastic'
p370
aS'rest legend korra episodes episode going released hulu couple others'
p371
aS'michael gives fans sneak peek ninja turtles\xe2\x80\x99 hyperrealistic genitals'
p372
aS'white boys texting like'
p373
aS'pleasure darling'
p374
ag8
aS'titty'
p375
aS'looks like steve buscemi young adult'
p376
aS'lootcrate today plus bowser magnet vader keychain love'
p377
ag8
aS'working technology soon homie share dreamspace'
p378
aS'like could share dream brain would flip like motorcycle helmets tight colorful bike suits'
p379
aS'hell yeah weird suits'
p380
aS'sweet dance moves think part dream body idea everyone weird suits'
p381
aS'hahahaha indeed morphed weird virtual reality dream something pretty'
p382
aS'glad chill body inhabit'
p383
aS'crazy dont even remember happened like chill'
p384
aS'cant joes crab shack like calamari life crab legs point'
p385
aS'best daxter game vehicles cool shit addition light great'
p386
aS'pretty like dayyyyy'
p387
aS'last night dream switched bodies least freaked'
p388
aS'perfect world everyone would kellys level'
p389
ag8
aS'family took digby renamed snowball happy'
p390
aS'visited disappointed find zero butts need butts'
p391
aS'boner space course idiot theres nothing sexy'
p392
ag8
aS'around spiders life really many want treat dese\xe2\x80\xa6'
p393
aS'think date going really well enough lets talk clears throat gioh lets talk'
p394
aS'girls legs days specifically days amputate'
p395
aS'poor thing hope'
p396
aS'true'
p397
aS'would chase'
p398
aS'dude looks like 2k14 created character first page change toner cartridge'
p399
aS'bestie song coming excited'
p400
aS'gonna miss digby least hell around good family goodbye little buddy knowing couple days'
p401
aS'gonna digby today'
p402
aS'digby went exploring today little kitty'
p403
aS'fairy tail theme song sounds like coheed cambria linkin park weird'
p404
aS'digby tomorrow'
p405
asS'2014_31'
p406
(lp407
S'earache room great'
p408
aS'aches suuuuuck took medicine doesnt hurt cant hear shit left'
p409
aS'website band name coolest music videos'
p410
aS'ayyyyyyyyyyyy happy birthday homes'
p411
aS'reminder harry potter united deathly hallows became master death'
p412
aS'episode legend korra intense'
p413
aS'really like tempura kidz'
p414
aS'need mcdank'
p415
aS'glad courtney bragg today'
p416
aS'lmfao biggie aint'
p417
aS'okey doke'
p418
aS'okey doke sounds good'
p419
aS'literally nothing chilling house'
p420
aS'havent played strikeforce kitty kongregate youre seriously missing youre group cats fighting foxes costume'
p421
ag8
aS'gonna come swim butt butt also make come'
p422
aS'feels like longer today months love much happy months'
p423
aS'crar accident guess gruessed another typical hunk stop joshin around'
p424
aS'always look forward free food cake free money'
p425
aS'true false nickname mama butterscotch'
p426
aS'dont even jack bathroom jack kitchen like real american'
p427
aS'buttholes name johnathan capricorn'
p428
ag8
aS'damn'
p429
aS'finally working oven convection setting yaaaaaasssss'
p430
aS'dont feel like anywhere really scared stranger qualities affect future'
p431
aS'dont understand weird'
p432
aS'dont know function around people thats probably nobody enjoys company'
p433
aS'homosexuality choice screams politician podium choice whispers later wellmus\xe2\x80\xa6'
p434
aS'water earth fire avatar master four elements'
p435
aS'shape shifters'
p436
aS'loot crate putting vinyl next excited'
p437
aS'you\xe2\x80\x99ve seen vinyls you\xe2\x80\x99ve never seen looter exclusive you\xe2\x80\x99re looter'
p438
aS'kind want watch truly appreciate shitfest also scared batman superman'
p439
aS'still havent seen steel sure want'
p440
aS'holy shit clay fighter realest completely forgot game'
p441
aS'thought snake legs aunt henrietta'
p442
aS'well better hang'
p443
aS'back huntington'
p444
aS'hard believe years damn miss'
p445
aS'miss duder beach crew'
p446
aS'really miss need come huntington soon'
p447
ag8
asS'2014_38'
p448
(lp449
S'almond milk much better milk'
p450
aS'voice ghost destiny sounds like toonami'
p451
aS'cant even'
p452
aS'dadsbooots'
p453
aS'dievolve'
p454
aS'slept hours without meaning cool'
p455
aS'honestly itachi cool shit'
p456
aS'everything ever wanted'
p457
aS'pains summons creepy'
p458
aS'excited train pacsun tomorrow'
p459
aS'weed away practicing mirror leave house evening'
p460
aS'loot crate started shipping today going happy less week'
p461
aS'honestly think buzzcut season shouldve lordes first single'
p462
aS'baby alright goooo fiiine'
p463
aS'didnt make chronicles narnia movies'
p464
aS'meth souffle coming'
p465
aS'jason know youre mether'
p466
aS'hate hearing people clearly never done drugs talk drugs'
p467
aS'next week last episode hunter hunter'
p468
aS'hoes text said aint'
p469
aS'cant meat without potatoes talking dick meat potato balls'
p470
asS'2014_39'
p471
(lp472
S'aaaaand break 1045 tomorrow fuck'
p473
aS'kinda want move california'
p474
aS'dream worked sourcefed last night today favorites tweet sign'
p475
aS'jovi lookin real rough today thats scallion ballsports winthegame teamwork roids'
p476
aS'already today'
p477
aS'work tomorrow cool'
p478
aS'officially week birthday honestly even excited'
p479
aS'libra know take breath away something always kindness'
p480
aS'youre quite welcome look forward many'
p481
aS'gonna gofundme hire hitman find'
p482
aS'spent good minutes watching videos high quality goods'
p483
aS'cant wait spend birthday next week alone house suck'
p484
aS'days thats weird'
p485
aS'made chicken tacos today'
p486
aS'human beings fucking awful'
p487
aS'episodes shippuuden hollaaaa'
p488
aS'legend korra book premieres october case didnt know'
p489
aS'obvi'
p490
ag8
aS'going tomorrow evening going dedicated research history getting fucked somehow know'
p491
aS'even huge conspiracy stuff fuck'
p492
aS'didnt even people remember footage friends carrying lifeless body away footage gone'
p493
aS'know tank tiananman square didnt hundreds people remember dying'
p494
aS'also completely sober right completely fucking brain'
p495
aS'mandela effect shit theres something weird going'
p496
aS'glitch fucking matrix dude'
p497
aS'fucking losing shit guys'
p498
aS'record spelled berenstein bears always berenstain thats true remember show'
p499
aS'shit swear watched show berenstein confused'
p500
aS'clearly remember spelled berenstein right berenstain'
p501
aS'anyone remember berenstein bears fucking tripping need verification'
p502
aS'really hope make episodes dark continent wraps manga really last'
p503
aS'sweet potatoes weird theyre like real potatoes'
p504
aS'want sushi rest life'
p505
aS'chicago second home tonight chips stoked'
p506
aS'never understood shane dawson appeal blatant racism overuse outdated stereotypes thanks'
p507
aS'also play mean triangle'
p508
aS'well entire kpop cover show'
p509
aS'omfg give personal list songs cover sing along every'
p510
aS'dude totally keep band twibber shows able attend'
p511
aS'still work house need come huntington soon'
p512
aS'miss sweet shining face'
p513
aS'relatable tweet'
p514
aS'literally kidding hashtag want steak handshake'
p515
aS'birthday less weeks donate2mypaypal'
p516
aS'taylor hugs4talo'
p517
aS'buildings cant instagram'
p518
aS'white people keep ruining everything'
p519
aS'possible uncool circles around becomes kind cool thats'
p520
asS'2014_18'
p521
(lp522
S'francy already know youre dingus trokyo junky song'
p523
aS'love buns'
p524
aS'tastes like mixed meat dirt'
p525
aS'braidedbeauties'
p526
aS'looking pics found'
p527
aS'pictures william food'
p528
aS'remember made hamburger bottom buns'
p529
aS'logans roadhouse country music farts'
p530
aS'yeah dont like norma bates batesmotel'
p531
aS'realized havent really texted anyone like years'
p532
aS'functioning cellular device anyone cares text 9519826'
p533
aS'haha real explain monkey make manhaha thats athiest joke'
p534
aS'real rebel cool probly good sports'
p535
aS'gonna alcohol time'
p536
aS'watching bates motel cant tell like dislike norma episode'
p537
aS'nope good'
p538
aS'think cory electrocuted'
p539
aS'hope boston cabbabe beat shint montrole shint head lettuce'
p540
aS'used watch 4kids younger awful stopped watching realized subs rocked'
p541
aS'dont bored series started watching others couldve caught earlier didnt'
p542
aS'started watching year took break picked months divide time'
p543
aS'also waiting like different anime update week finished fairy tail piece hunter hunter'
p544
aS'awesome waiting episodes come sucks'
p545
aS'officially caught piece last night finally'
p546
aS'cutting thing whos clown implies theyre clown even'
p547
aS'yeah guys focus packing equipment'
p548
aS'well thats pretty cool'
p549
aS'someone play guitar acoustic cover pure heroine entirety'
p550
aS'people seen balls count hand dont know feel'
p551
ag8
ag8
aS'kind getting told throw hands'
p552
aS'time baby shirts cabbabe sing song dragon wish friend'
p553
aS'stop perfect cool that\xe2\x80\x9d stop'
p554
aS'stop perfect cool'
p555
aS'mean deserve sooooo'
p556
aS'hobby'
p557
aS'pure heroine actually really good album'
p558
aS'baby class clown beauty queen tears form showing people little care'
p559
aS'school system'
p560
aS'think gonna quit soda pretty sure sugar making feel like shit'
p561
aS'definitely thought naughty place tattoo minute'
p562
aS'makes happier ever pretty nice'
p563
aS'every circus animals cited mistreatingimproper care animals circus people\xe2\x80\xa6'
p564
aS'except stuff momonosukes devil fruit ability punk hazard kind'
p565
aS'remind baby baby magic voodoo witch powers dans labyrinth'
p566
aS'make olives nasty'
p567
aS'talking shit olives'
p568
aS'sorry cant trust mouth never kissing dirty olive mouth ever'
p569
aS'olives dont trust olives'
p570
asS'2014_19'
p571
(lp572
S'youll never make leave wear sleeve give reason believe'
p573
aS'cant dance probably pretty upset'
p574
aS'watched lame'
p575
aS'release footage hoenn'
p576
aS'cory make lunch every'
p577
aS'making lunch lt33333'
p578
aS'falls asleep literally cutest thing world really love like'
p579
aS'rascals'
p580
aS'printing cool'
p581
aS'today exact opposite yesterday panera robots cool people robots'
p582
aS'lunch brought panera bread'
p583
aS'shook hands chatted manchin'
p584
aS'today really weird'
p585
aS'filled fafsa applied glenville state crossing fingers'
p586
aS'louis foodcomedians'
p587
aS'gotta pass econ'
p588
aS'pilgrim instead'
p589
aS'think members village people kind lost'
p590
aS'think cowboy hats leather vests still pretty neat plus blue jeans yknow'
p591
aS'thought crocodile dundee'
p592
aS'crocin bitchass thats soldier reference'
p593
aS'girl better crocs seriously steal store'
p594
aS'turndownforcrocs'
p595
aS'crocs hoes amirite'
p596
aS'party like croc party like croc star'
p597
aS'information'
p598
aS'2day haha'
p599
aS'oracle agesseasons reboots made shitty would'
p600
aS'need need'
p601
aS'watched girl walking take piece french bread start eating great place'
p602
aS'taking home donuts wanted stay forever interning rocks'
p603
aS'sure virgin virgin taking weed zing'
p604
aS'would guys like hear truly funny blazer joke four hundred twenty blaze haha joke'
p605
aS'student month program cool'
p606
aS'helloooooo nurse'
p607
aS'finding valid useful site additive manufacturing curriculum examples like finding needle haystack'
p608
aS'star wars clone wars probably best thing toonami said ever'
p609
ag8
aS'yeah bikey gang'
p610
aS'welcome miss hughes must ability produce copious amounts facial hair good mankind'
p611
aS'almost months beard face getting easier deal probably grow forever'
p612
aS'opening pool pretty soon youre welcome come swim'
p613
aS'back charleston live chimney need something soon'
p614
aS'well booty worlds greatest treasures feel everyones minds blown thought booty'
p615
aS'bootyism'
p616
aS'think study various religions really cool didnt want teach english would definitely teach religious studies'
p617
aS'sounds good'
p618
aS'goatse style pull macaulay culken circa home alone'
p619
aS'send bhole'
p620
aS'robert byrd institute next weeks aside next week really cool also pizza lunch'
p621
aS'next time collegeball goku still powering spirits bomb liquor'
p622
aS'happy sink full mangoes everyone'
p623
aS'isnt even final form'
p624
asS'2014_14'
p625
(lp626
S'girlfriend really super cool'
p627
aS'dont make houses stale french bread think'
p628
aS'since gramps going tennessee week grams going japanese steakhouse point excited'
p629
aS'watched talk first time truly impressed'
p630
aS'cant sleep theres money mattress'
p631
aS'keeping beard seriously drop beard maybe beard conditioner'
p632
aS'dont love love gucci'
p633
ag8
aS'even racist fake patois'
p634
aS'enough restaurants offer churros days disappointed'
p635
aS'like large pizza anchovies anchovies preferably male female alive possible noah winks'
p636
aS'decided beard stays'
p637
aS'well shit'
p638
ag8
aS'shaving beard maybe'
p639
aS'feeling nostalgic'
p640
aS'need invest sweaterssweater vests'
p641
aS'watch lettuce behind'
p642
aS'literally soulmate alike would anything'
p643
aS'going summon remake'
p644
aS'step false bees'
p645
aS'good indefinite termite'
p646
aS'true'
p647
aS'good'
p648
aS'without internet hours came back hallelujah'
p649
aS'david letterman leaving sourcefed'
p650
aS'think read april thought'
p651
aS'totally legal flip remember'
p652
ag8
aS'ughhhh'
p653
aS'days fairy tail comes back excited'
p654
aS'happy birthday'
p655
aS'beautiful wcwwce literally favorite human'
p656
ag8
aS'meems future literally best'
p657
aS'chelsea corps class said misses'
p658
aS'cory wonderful looks really good khakis'
p659
aS'tots stop tryna fancy crispy potato bites'
p660
aS'like back hand'
p661
aS'thats sweet boys hang'
p662
aS'going come huntington soon promise class week weekend come well hang'
p663
aS'dude totally miss'
p664
aS'please dont mouths kisses kickses'
p665
aS'please dont heart attack'
p666
aS'loooove lt3333'
p667
aS'dont yell'
p668
aS'april fools bitches hella happy love lt33333'
p669
aS'seriously done'
p670
aS'know think break'
p671
aS'dick right youre overreacting something shouldnt even matter thats somehow fault'
p672
aS'even right'
p673
aS'bitch right tired'
p674
aS'youre whos throwing huge something trivial seriously'
p675
aS'know wasnt really dont understand youre like right'
p676
aS'remember flame'
p677
aS'mist'
p678
aS'except'
p679
aS'right thats definitely fault'
p680
aS'hell studio singin song wrote gurl uzed'
p681
aS'know'
p682
aS'sk8r said'
p683
aS'rude'
p684
aS'reverse card'
p685
aS'shiiiiiiiiiiiiiit'
p686
ag8
aS'insert clever retort'
p687
aS'l2retort'
p688
aS'expected clever retort since youre huge nerd'
p689
aS'pants squares'
p690
aS'really beautiful like'
p691
aS'cory cute'
p692
aS'yung blood juss keepin real'
p693
aS'also cheer'
p694
aS'climb'
p695
aS'doug gonna real upfront honest right know read slightest'
p696
aS'fucking song dumb'
p697
aS'cabbabe green look like ball lettuce mean stupid shint'
p698
asS'2014_15'
p699
(lp700
S'tired havent done much today'
p701
aS'youre welcome keep chin sunshine'
p702
aS'youre worth something'
p703
aS'fucking idiot'
p704
aS'thaaaaaanks lt333 come charleston soon please'
p705
aS'cute'
p706
aS'cory cute'
p707
aS'grainy date tonight\xf0\x9f\x92\x9b'
p708
aS'mias knows movies really cool'
p709
aS'anal leakfrog'
p710
aS'youre perfect little angel baby'
p711
aS'lt33'
p712
aS'totally'
p713
aS'need contemplate swimsuit know want take swim'
p714
aS'could seriously model dating couldbemodel shit dude'
p715
aS'genius lies 140145 maybe chance'
p716
aS'well genius scored test thats pretty close'
p717
aS'please hurry frustrated scab irritating'
p718
aS'large scab knee pretty sore'
p719
aS'like golf'
p720
aS'want hear joke'
p721
aS'swallowed'
p722
aS'know dolphins sometimes nonconsensual'
p723
aS'gonna keep tweeting'
p724
aS'real pissed still cant girlfriend'
p725
aS'like trappyelectro stuff listen rusties glass swords album amazing stuff'
p726
aS'said takes inward attitude heard takes nword attitude'
p727
aS'pumping'
p728
aS'think going send rest tomorrow'
p729
aS'thanks homes'
p730
aS'already tried logging back'
p731
aS'well'
p732
aS'dont know keeps saying message cant sent'
p733
aS'twitter wont send messages right'
p734
aS'overthink things often'
p735
aS'awesome date lovely lady shes perfect cute'
p736
aS'wonderful date really cute'
p737
aS'cant wait fujiyama grams tomorrow'
p738
aS'dungeons dragons roll gt12 orgasm rolls goddamnit'
p739
aS'unpopular opinion hate anything'
p740
aS'would look'
p741
aS'medic thats humour'
p742
aS'arent actually dating official'
p743
aS'good sending text messages type correctly incredibly long'
p744
aS'roast dinner home alone hours word'
p745
aS'felt overwhelming urge make sorry'
p746
asS'2014_16'
p747
(lp748
S'dont leave alone dark hours thats irresponsible'
p749
aS'transient global amnesia technical term feeling wiped memory good'
p750
aS'first person mcdonalds wins easy'
p751
aS'completely understandable'
p752
aS'obviously room mean'
p753
aS'thing sometimes'
p754
aS'need broachie rolls easter'
p755
aS'wish werent also wish pool would open could start losing weight'
p756
aS'hate children love batman cupcakes'
p757
aS'batman house away crime illegally body'
p758
aS'amazing taste clothing literally looks good anything though'
p759
aS'pool open sure well cookouts something know whats'
p760
aS'love need chill summer youre busy'
p761
aS'glad done fishman island ambition much better'
p762
aS'tell homies hill making ratchet lean omfg'
p763
aS'timeline must read hilarious crying'
p764
aS'jupiter jumpslide house right would cool didnt mean arrival 1520 kids minutes'
p765
aS'gonna hang saturday parents said'
p766
aS'already going bobby evans dinner'
p767
aS'wish could spend time girlfriend'
p768
aS'exactly thanks'
p769
aS'love stranger internet trying tell supposed identify terms gender'
p770
aS'great news'
p771
aS'gotta find right filter accentuate balls'
p772
aS'gonna send wiener nudes thingy'
p773
aS'butt good luck'
p774
aS'nooooooooo stooooooop'
p775
aS'oooooooooh jabins gonna fight'
p776
aS'jabon drink must alkohol'
p777
aS'love'
p778
aS'probably talk much literally amazing person ever'
p779
aS'officially certification today cool stuff'
p780
aS'passed certification tests usually dont take weeks pretty well'
p781
aS'puffsgonnagettraded puffisapokemon'
p782
aS'puffaintgonnahavenoballs'
p783
aS'puffbetternotpissonthem'
p784
aS'sacred geometry always cool listen tolearn'
p785
asS'2014_17'
p786
(lp787
S'overalls good fashioned fights thats merican'
p788
aS'patriotism finest'
p789
aS'forgot twitter name laughed really hard'
p790
aS'ones smart enough speak telepathically'
p791
aS'hate stressed feel like throw'
p792
aS'avril lavigne year made hella culturally appropriative mvsong hello kitty wonder married nickelback'
p793
aS'twitter profiles look dumb hope dont force'
p794
aS'feeling gonna pawpaw johnnys chicken flappers real soon'
p795
aS'think ginos pick pizza decent wings'
p796
aS'ginos wings rest life please'
p797
aS'enough said'
p798
aS'windows phone compatible straighttalk might getting cellular service'
p799
aS'finish piece today destiny'
p800
aS'made laugh shouldve love miss pretty large amount'
p801
aS'youre tech humor hated bang theory please watch silicon valley perfect execution'
p802
aS'silicon valley everything bang theory wanted'
p803
aS'goddamn tyrone'
p804
aS'faith ability'
p805
aS'already network cabling class come lend wise words right software stuff'
p806
aS'gross tunnel guess'
p807
aS'pull string obviously'
p808
aS'drop long twinestring hole string wire'
p809
aS'need bubble life soon'
p810
aS'episodes piece left watch caught'
p811
aS'class friday tomorrow like friday cool'
p812
aS'favorite trype ready easy horse theyre brown like beautys pretty hair dingus foryourhair'
p813
aS'youd think 2ne1 long bommie would know dance'
p814
aS'rise summer heat thinking beard might seeing last days'
p815
aS'cheer find meaning understand create framework within underst\xe2\x80\xa6'
p816
aS'sports update bird pecks rotten orange sidewalk later unrelated reasons dies'
p817
aS'well yeah'
p818
aS'talk also incredible human lucky life'
p819
ag8
aS'john green book table never read metaphor'
p820
aS'daft punk trapstep'
p821
aS'quite'
p822
asS'2014_10'
p823
(lp824
S'person'
p825
aS'like poop things people love intense'
p826
aS'hoooooooot hurts'
p827
aS'listenin salt peppa wanna something 2day'
p828
aS'really love like probably much'
p829
aS'fantastic shirt'
p830
aS'email chili subject come chili intrigued couldnt handle chili spam'
p831
aS'tell bonds hedgefund investing would like join'
p832
aS'deal cant turn warm heart financial stability touching'
p833
aS'walk door young true love like business'
p834
aS'firm handshakes much better lame kisses instead'
p835
aS'attorney rocks'
p836
aS'found warped video fuckin nostalgia dude'
p837
aS'weve deep fried water bears horse wigs'
p838
aS'youre quite welcome esha'
p839
aS'birthday happy birthday'
p840
aS'want treated anxiety time dont want doped hate therapists feel'
p841
aS'weird dance crazes rhyme jerkin twerkin gherkin'
p842
aS'joke cabbabe cross road answer joke away lettuce problem'
p843
aS'tell difference cabbage girl cabbabe penips'
p844
aS'jack cabbabe randolf hintler worst enemy think'
p845
aS'tgic thanks cabbabge'
p846
aS'cabbabe used paper plane dont expect good'
p847
aS'mean call lettuce confused trust'
p848
aS'blew fart easily funniest term ever ever eyes fill tears'
p849
aS'small fuzzy creature love chinchillin cool friend'
p850
aS'shit yeah throw sorry also starting book checked library'
p851
aS'wonderful human love'
p852
aS'called deli lama making turkey sandwich'
p853
aS'right watching trying figure reminded perfectly'
p854
aS'kill kill basically flcl gurren lagann'
p855
aS'books hard though still reading'
p856
aS'read books today even finished'
p857
aS'adults slingshots'
p858
aS'thats probably fake real tryna thou'
p859
aS'march powerball giving 1000 everyone retweets'
p860
aS'dont depend people happiness find little things make happy life times better'
p861
aS'stressed ever huntington'
p862
aS'alrighty hope guys lt333'
p863
aS'sounded like puke tasting threw mouth eating jsyk'
p864
aS'well would type tasting puke probably wouldnt best idea guys weekend'
p865
aS'sick junk'
p866
aS'like flcl check kill kill reminds flcl'
p867
aS'cutie onomatomia'
p868
aS'know fucked life trying better constantly shit everyone'
p869
aS'thrown twice today time dont want work grandad lazy fuck'
p870
aS'lady government program lazy respond callstextsemails thats fault'
p871
aS'applied hundred different places calls thats fault right'
p872
aS'congrats'
p873
aS'jeopardy dick jokes good stuff'
p874
aS'hope fingerscrossed'
p875
aS'think know know anyone else thats cool'
p876
aS'either'
p877
aS'save life'
p878
aS'dude drop poop turd sick also gross'
p879
aS'miranda went high school lucky'
p880
aS'finished watching hanger game catch fire pretty good'
p881
aS'huge duck'
p882
aS'well'
p883
aS'good samaritan'
p884
aS'yall ever pretzel good hell'
p885
aS'wish personal sushi chef always mood sushi'
p886
aS'shaft arresting'
p887
aS'theres snake boot'
p888
aS'remember soljier'
p889
aS'tell anxiety head make feel much better'
p890
aS'cory perfection'
p891
ag8
aS'flex'
p892
aS'jock'
p893
aS'told lied'
p894
aS'khloe kardashian thick butt'
p895
aS'bussy grossest word please stop'
p896
aS'yeah know youre still youre compass'
p897
aS'zelda cool like good mister sword'
p898
aS'becoming self aware'
p899
aS'think turning parody account'
p900
aS'donkey kong name creator shigeru miyamoto thought donkey meant stupid english'
p901
aS'wizard lives hunk'
p902
aS'pretty crazy tomorrow tuesday literally every tuesday'
p903
aS'cant'
p904
aS'anytime baby'
p905
aS'figured youd smart enough making sure hope works'
p906
aS'supposed meet person test giving money'
p907
aS'yessir seems like good deal'
p908
aS'worries'
p909
aS'good 2010'
p910
aS'pretty quickly youll carry charger youre using extended periods time'
p911
aS'hmmm recant statement 2010 memory come handy warned lose battery life'
p912
aS'going primarily'
p913
aS'hell yeah youll post pics want start cosplaying idea could'
p914
aS'think time almost'
p915
aS'2012 itll last longer terms software updates 2009 barely holding together mavericks helping'
p916
aS'hahaha sure ashe always close heart though shes fave lady'
p917
aS'chance headhunter skin point'
p918
aS'knew youd like'
p919
ag8
ag8
aS'retweet youve seen followers naked'
p920
aS'pokemon white game people play pokemon'
p921
aS'bawk bawk chicken cory'
p922
aS'build cake something'
p923
aS'wonder shell prom'
p924
aS'time slow danced chris thompson also girl never british band warped'
p925
aS'right glad could help'
p926
aS'nida pretty much better every aspect youll used fight style'
p927
aS'honestly think traps nidalee better taking lanes early better team fights caitlyn'
p928
aS'nidalee better survivability'
p929
aS'swingyerpartners eating entire pack dosidos hitting club vomiting dance floor'
p930
aS'trefoils bullshit lies'
p931
aS'somelessa samoa diet pill'
p932
aS'mints tube thin mints melted together heat solidified obesity cucumber'
p933
aS'yall ever play escape remember catchin monkeys oooo aaaa haha'
p934
aS'waffle wall street'
p935
asS'2014_11'
p936
(lp937
S'love ollie love love ollie much'
p938
aS'need country fried steak life'
p939
ag8
aS'chowdown countdown travel channel said luckily went college know roll things love'
p940
aS'best butt also really cool'
p941
aS'want house'
p942
aS'lost sending anyway'
p943
aS'giving mouse adventure time give comes back theres disc justin either took'
p944
aS'treat like pirate gimme booty'
p945
aS'sent picture kanye west reason'
p946
aS'game handy manny'
p947
aS'take hottest shower cant nobody hold'
p948
aS'tropical storm christophers single hello infant'
p949
aS'downgraded tropical storm'
p950
aS'whatever happened hurricane chris dissipate'
p951
aS'body move girl need butta'
p952
aS'cool'
p953
aS'happy birthday nigel'
p954
aS'cute underwear'
p955
aS'booty like booty cloud booty clap know booty clap loud'
p956
aS'heiners bakery business'
p957
aS'competitive croissant eating dont even step throw'
p958
aS'boys baked goods'
p959
aS'dudes biscuits'
p960
aS'food'
p961
aS'biscuit takedown speed marketable skill lets competitive eaters'
p962
aS'naps'
p963
aS'squeeze long consensual'
p964
aS'ever thought thankful nice butts theyre great'
p965
aS'good'
p966
aS'triple hellas'
p967
aS'also followers hella'
p968
aS'havent listened cool kids totally fish ride bicycles good album'
p969
aS'rainbow dark always favorite songs'
p970
aS'catch drinkin lean italy like pisa'
p971
aS'watch minute video toddler waving goodbye people escalator thank tumblr'
p972
aS'workouts core'
p973
aS'core values straight edge movement'
p974
aS'lets make site cores different items'
p975
aS'domain sale'
p976
aS'truly beautiful'
p977
aS'happy'
p978
aS'cant remember anything without'
p979
aS'mean wouldnt'
p980
aS'thing know want'
p981
aS'smell really good right tired cuddly wish take advantage wonderful opportunity'
p982
aS'hahaha nice'
p983
aS'bono great'
p984
aS'youre sandwich'
p985
aS'ruuuuuude'
p986
aS'fart haha'
p987
aS'youre chicken nugget'
p988
aS'meems hottie body'
p989
aS'really excited makes slaw love slaw also things'
p990
aS'cute want kiss face love forever'
p991
aS'panic quiznos'
p992
aS'umbreon espeon fave eeveelutions goldsilvercrystal fave games'
p993
aS'eeveelution would espeon psychic'
p994
aS'twit cabbabe ignore want cock roach crawl mouth eggs sleep\xe2\x80\xa6'
p995
aS'perfect girlfriend'
p996
aS'poop fiction tarantino scat porn'
p997
aS'going start restaurant chain called long john platinums long john silvers menu slightly expensive'
p998
aS'meth joke cory dont meth kids dont dont'
p999
aS'lets hotbox meth'
p1000
aS'hella'
p1001
aS'hotbox'
p1002
aS'save seeds dealers apocalypse'
p1003
aS'oxymoron great album'
p1004
aS'keep game picante'
p1005
aS'thank spotify 2ne1 radio'
p1006
aS'marriage battle'
p1007
aS'food oven preheated judging'
p1008
aS'tweet thank time'
p1009
aS'yaaaaassssss shes legit perfect'
p1010
aS'isnt best'
p1011
aS'favorite person'
p1012
aS'love cookie pants'
p1013
aS'mashup talking yesterday'
p1014
aS'used pray listening used make parents proud'
p1015
aS'next time htown wally world party shore'
p1016
aS'miss hate able faves'
p1017
aS'thank lt333'
p1018
aS'gonna listen brand feel love friends'
p1019
aS'feel really look feel like wont ever change'
p1020
aS'cute 1110'
p1021
aS'phone interviewer corps said wellspoken personable sounded intelligent hella'
p1022
aS'collage supposed describe'
p1023
aS'today well'
p1024
aS'ryan lewis bring potluck mackleroni salad'
p1025
aS'miss lets hang soon'
p1026
aS'happy birthday make nasty'
p1027
asS'2014_12'
p1028
(lp1029
S'libra naturally concerned others well you\xe2\x80\x99ll easily accommodate wishes'
p1030
aS'great'
p1031
aS'grandma facebook thinks means lots love'
p1032
aS'guac body shot'
p1033
aS'pacific rimb'
p1034
aS'business cazh'
p1035
aS'liar'
p1036
aS'really cute nails also good everything'
p1037
aS'tether personal hopsspot'
p1038
aS'love ibeer compatible meal interfaces'
p1039
aS'like tvirus beers'
p1040
aS'stuffed burgers marshall cafe blue cheese inside good'
p1041
aS'burger looks good jealous'
p1042
aS'mmmmmmhmm sure'
p1043
aS'beer background dare'
p1044
aS'children high likely drugs adults'
p1045
aS'yeah better'
p1046
aS'jason webb shut love'
p1047
aS'never found channel kind scary'
p1048
aS'miss much'
p1049
aS'idek color eyes time'
p1050
aS'wonderful idea whats worst could happen'
p1051
aS'youre quite welcome'
p1052
aS'thank shout head whisper word'
p1053
aS'agree lets happens'
p1054
aS'think type caps select word type lower case'
p1055
aS'libra exhibit love many ways'
p1056
aS'father hero'
p1057
aS'pizza party today guess government isnt'
p1058
aS'tiny babyass dick'
p1059
aS'bruised dumb chick blood work'
p1060
aS'somebody tried tell asian white regards race today offensive hell'
p1061
aS'fantastic comparison'
p1062
aS'bastille covering scrubs fucking good'
p1063
aS'petitionto create federal mandate forcing enforcement officers wear video recording device duty'
p1064
aS'would kiss humanly possible'
p1065
aS'cory really cute'
p1066
aS'know like trapstep figure youd like'
p1067
aS'intel good idea truly great many brilliant young minds showcasing intelligence'
p1068
aS'earth echo looks like really good movie'
p1069
aS'corru'
p1070
aS'meems'
p1071
aS'body exists 13th dimension'
p1072
aS'workaholics dudes live getting doug high right watch channel'
p1073
aS'still greatest line cody ever said'
p1074
aS'love'
p1075
aS'seconds today'
p1076
aS'shark penis lyfe'
p1077
aS'yeeeeeeeees'
p1078
aS'spring break break'
p1079
aS'snakes cooler'
p1080
aS'hahaaaaaa hova'
p1081
aS'love love mint chocolate chip cream thats'
p1082
aS'crazy taxi free android better download ready cuuuuuuuuhhhhhhhrrrrrrrrrrrraaaazzzzzzz\xe2\x80\xa6'
p1083
aS'taylor drunkenly fell asleep jimmy johns sandwich couch flats'
p1084
aS'fucking chico holy shit'
p1085
aS'first corps pretty chill dudes countries played pool learned shit peed'
p1086
aS'needs stop ridiculous'
p1087
aS'avocados gooooood'
p1088
aS'good'
p1089
aS'butt pics best pics'
p1090
aS'blueberry drinks watermelon candy favorite fruitrelated things'
p1091
aS'guys'
p1092
aS'hahahaha'
p1093
aS'know everything fine kitten rude'
p1094
aS'kitten piss baby scratched times'
p1095
aS'wish could rock side mullet'
p1096
aS'white people teen wolf look'
p1097
aS'know'
p1098
aS'youd know'
p1099
aS'recent tweets meat consumption going steak soon'
p1100
aS'beef retail fabrication video hour long happy'
p1101
aS'need dryaged beef seems good'
p1102
aS'watching video different cuts meat want love food'
p1103
aS'ability grow full beard wonderful thing'
p1104
aS'google search canned goods exclusively people morphsuits'
p1105
aS'going vacation macon georgia love going cuntries esperiencing culture'
p1106
aS'thank friend'
p1107
aS'thats risk willing take'
p1108
aS'dream make pizza'
p1109
aS'stuffed crust'
p1110
aS'quadrobacon pizza sauce tomato sauce wbacon grease cheese mixed wbacon turkey bacon regular bacon'
p1111
aS'handsome cool whatever'
p1112
aS'tell triple bacon nothing'
p1113
aS'deadliest warrior cool shit'
p1114
aS'304datswag'
p1115
ag8
asS'2014_13'
p1116
(lp1117
S'thought faces pretty ugly pretty'
p1118
aS'name cory like magic'
p1119
aS'beard fucking great'
p1120
aS'drop youre working'
p1121
aS'right loved working though youll'
p1122
aS'hell yeah didnt weeks left would apply'
p1123
aS'jessica works seal huntington'
p1124
aS'used work pretty chill think everyone worked gone'
p1125
aS'libra know agree disagree politely change subject instead making fuss everything'
p1126
aS'best sauce ever'
p1127
aS'literally worried stomach hurting cool'
p1128
aS'sounds like plan'
p1129
aS'dont miss huntington homies much better schoolgfnot shitty town less sadness'
p1130
aS'sure class weekdays usually west side weekends well chill'
p1131
aS'yooooooooooooooo'
p1132
aS'since 31st homie'
p1133
aS'also dont school tomorrow thats cool'
p1134
aS'miss people huntington life going much better since moved couldnt happier'
p1135
aS'sadtired2 cool school'
p1136
aS'love best friend thats coolest thing ever\xe2\x80\x9d whoa'
p1137
aS'love best friend thats coolest thing ever'
p1138
aS'aaaaw cory love goodness'
p1139
aS'dont know would without amazing person love'
p1140
aS'dude excited'
p1141
aS'fairy tail relaunches april'
p1142
aS'collard greens degrees make drop'
p1143
aS'wouldve said rock think thats narutos'
p1144
aS'kidd fieri'
p1145
aS'love love junior mints'
p1146
aS'ridiculous'
p1147
aS'youre best boyfriend ever'
p1148
aS'well getting aubrey plaza boyf'
p1149
aS'totally approve'
p1150
aS'dude play infamous second kickass jean jacket want'
p1151
aS'shared petition legally recognize nonbinary genders please sign'
p1152
aS'birthdays memorized mias brothers'
p1153
aS'sext alive'
p1154
aS'real upset'
p1155
aS'left deodorant'
p1156
asS'2014_8'
p1157
(lp1158
S'interesting today knew'
p1159
aS'asked like toast toasty soggywtf even mean said soggy'
p1160
aS'daughter salami'
p1161
aS'shouldve sent kony email asked quit'
p1162
aS'anyone room schedule havent time'
p1163
aS'remember kony'
p1164
aS'libras gifted putting people ease'
p1165
aS'need good newish anime watch'
p1166
aS'looking investors workoutbreakfast business kagel bagel kagel pussy exercise'
p1167
aS'skate inside tgifridays'
p1168
aS'whyyoulion trifeguardonduty'
p1169
aS'wasnt tryna start drummin band back mothafucka'
p1170
aS'miss dude'
p1171
aS'scandalous'
p1172
aS'cory perfect dont even know love'
p1173
aS'wish could beard grow without damaging face'
p1174
ag8
aS'support transgender people probably signspread'
p1175
aS'love could words shes really cool'
p1176
aS'wonderful love'
p1177
aS'know well everyone together tipsy education another'
p1178
aS'even life right'
p1179
aS'bunch reasons getting office admin certification come back huntington depends though'
p1180
aS'tartparts'
p1181
aS'shartcharts'
p1182
aS'almost month live charleston'
p1183
aS'sorry name wrong slapchop'
p1184
aS'miss gonna come huntington asap'
p1185
aS'dont think thats'
p1186
aS'guys ever snackchap pics stuff'
p1187
ag8
aS'perez hiltons baby looks like chubby adam devine'
p1188
ag8
aS'count'
p1189
aS'game done changed'
p1190
aS'problem homie'
p1191
aS'bring next time'
p1192
aS'color'
p1193
aS'problem'
p1194
ag8
aS'dont snapchat often work'
p1195
aS'bitch lookin like blueberry buttermilk loaf fruity hell full'
p1196
aS'nigga deadass pokemon battle nudes'
p1197
aS'serious need sushi'
p1198
aS'dead people currently frozen waiting revived future technology'
p1199
aS'keep dreams smoke weed remember drug test havent smoked month weird'
p1200
aS'definitely check'
p1201
aS'damn thats kind lame glad started back watch horizon'
p1202
aS'right theyre chimera'
p1203
aS'havent seen told differences honestly favorite series'
p1204
aS'figured would good also watched hunter hunter current episodes'
p1205
aS'dude episode horizon thoroughly impressed'
p1206
aS'goodnight twitter love'
p1207
aS'really depressionanxiety able push away recently today successful'
p1208
aS'always falls asleep'
p1209
aS'sure could find employees might call cops though'
p1210
aS'good shit'
p1211
aS'savealot'
p1212
aS'heres real left'
p1213
aS'thats biaggio pretty sure thats cystic fibrosis'
p1214
ag8
aS'wish night club wanna tonight want folk dance awkward dance music'
p1215
aS'knew meant accel world stoked gale online stuff'
p1216
aS'episode horizon pretty great'
p1217
aS'accel world pretty awesome short like second season coming'
p1218
aS'finished accel world today horizon recommendation'
p1219
aS'little messy'
p1220
aS'video dark horse killing bitch offered cheetos hawaiian pharaoh actual fuck'
p1221
aS'casting fantastic four movie weird'
p1222
aS'easter hitlers birthday blazeitandpraiseit'
p1223
aS'bongrips4jesus'
p1224
aS'faith like church secretary self would want'
p1225
aS'look like verticallychallenged secretary church business card ever print'
p1226
aS'absolutely soft taco taste plus'
p1227
aS'cool weather warming bugs coming awesome'
p1228
aS'colorado made since legalizing marijuana damn'
p1229
aS'awesome'
p1230
aS'youre saying touch lava'
p1231
aS'really want'
p1232
aS'truuuuuu'
p1233
aS'youre wonderful'
p1234
aS'show tits everyone ever'
p1235
aS'told birds bees youre ornithologist moms entomologist literally'
p1236
ag8
aS'youre cool rockin heart'
p1237
aS'anyone gary buseys number borrowed shoes last week experiment need back'
p1238
aS'cool cool feel'
p1239
aS'state grootion'
p1240
aS'ily2 shawty'
p1241
aS'guys remember animorphs shit fucked'
p1242
aS'like'
p1243
aS'yeah probly'
p1244
aS'sell plasma something'
p1245
aS'start workin corner walmart'
p1246
aS'haha guess love whole'
p1247
aS'chronicles grootik'
p1248
aS'groot always partial plant peopleents stoked'
p1249
aS'chris pratt funny really glad playing starlord'
p1250
aS'sometimes think really distracting like stop tryna watch anime'
p1251
aS'watched excited'
p1252
aS'good'
p1253
aS'guys gettingdoug live like minutes guests tommy chong kyle kinane watch'
p1254
aS'headache destroying mind body soul'
p1255
aS'also arent mashups areia creations cool remixes youre'
p1256
aS'haha youre welcome'
p1257
aS'films youve done favoriteleast favorite gettingdoug'
p1258
aS'masa youtube pretty legit kpop mashups'
p1259
ag8
aS'lego movie seems pieced together'
p1260
aS'camera turned thinkin bout life model'
p1261
aS'shit finished episodes fairy tail'
p1262
aS'quitting going learn become psychic know youre thinking well going'
p1263
aS'mason hart lololol know'
p1264
aS'come visit soon class monfri weekends able soon'
p1265
aS'need highest fives'
p1266
aS'fact impressive burp high five'
p1267
aS'thinkin bout booty like woah'
p1268
aS'guys'
p1269
aS'transformationtuesday still look like goofball less cute'
p1270
aS'animals like onnear thats really cool'
p1271
aS'olympics update human body capable amazing things think human body nope nevermin\xe2\x80\xa6'
p1272
aS'walrus joob'
p1273
aS'full body octopus'
p1274
aS'selfie segment steve harvey show actual segment take perfect selfie'
p1275
aS'butt butt'
p1276
aS'butt thigh'
p1277
aS'feeling generous brother like popular rage face'
p1278
aS'heres another free meme joke guys 9000 like dragon ball'
p1279
aS'follow sick memes'
p1280
aS'guys still like memes gusta amirite'
p1281
ag8
aS'handsomedevil'
p1282
aS'perfect'
p1283
aS'forgive lame'
p1284
aS'teach ways kawaii'
p1285
aS'least jimmies'
p1286
aS'subtweet'
p1287
aS'billy club subtweet'
p1288
aS'yeah didnt think problem'
p1289
aS'whats wrong taking lots pictures mugs photography donia jeez'
p1290
aS'yaaaaaaaassssssssssssss'
p1291
aS'seriously prettiest girlfriend thank'
p1292
aS'couldnt think christopher walkens name earlier annoyed piss'
p1293
aS'seriously prettiest girlfriend'
p1294
aS'well know isnt famous anymore labeouf still mystery'
p1295
aS'sick shia reference 1010'
p1296
aS'funny well figure'
p1297
ag8
aS'hunter hunters theme song good'
p1298
aS'president president fravorite like george jefferson first presidents wooden'
p1299
aS'snacks always crushworthy'
p1300
aS'vlog talking earlier youll enjoy'
p1301
aS'minigame master better watch yoself'
p1302
aS'mario party breaker next weekend prepared'
p1303
aS'really glad gotten hang much recently'
p1304
aS'nope'
p1305
aS'naming first child emily peal'
p1306
asS'2014_9'
p1307
(lp1308
S'haha'
p1309
aS'really whale mating sounds comin backside'
p1310
aS'\xf0\x9f\x90\x9abitch booty sounded like magic conch shell\xf0\x9f\x90\x9a'
p1311
aS'obviously officer shitthebed'
p1312
aS'rude please stop blaming noxious uproarious blasts'
p1313
aS'real'
p1314
aS'farted loud woke still wont admit'
p1315
aS'magicians wizards snapplefact'
p1316
aS'water sock causes sock snapplefact'
p1317
aS'dont spit gangster like snapplefact'
p1318
aS'wizards real snapplefact'
p1319
aS'play sport athlete snapplefact'
p1320
aS'women wear sundresses snapplefact'
p1321
aS'people long hair snapplefact'
p1322
aS'wear coat sometimes buttons snapplefact'
p1323
aS'wind sometimes powerful snapplefact'
p1324
aS'sometimes toothbrushes snapplefact'
p1325
aS'facts like sometimes bears actually like honey bearfactfromsnapple'
p1326
aS'real yall like snapple'
p1327
aS'maybe like father bold'
p1328
aS'rain rain heck outta dingus come back youre time songs abou\xe2\x80\xa6'
p1329
aS'lets touch butt sign good'
p1330
aS'literally best friend'
p1331
aS'happy months love'
p1332
aS'rapgame ketchup chips hotel room vancouver'
p1333
aS'page love book writing coming soon'
p1334
aS'months couldnt happier love'
p1335
aS'could youre getting spirited spirits spirit awards'
p1336
aS'hall yeah oates oates thinking name first'
p1337
aS'bruce could perform hand push using thumb index'
p1338
ag8
aS'love devil'
p1339
aS'calcium good bones vitamin avocados peaches bananas much better bones milk'
p1340
ag8
aS'beckner become professional artist whose primary utensil cool markers'
p1341
aS'could save insurance switching geico'
p1342
aS'download taking like years'
p1343
aS'probly tryna learn patterns circus'
p1344
aS'bugs'
p1345
aS'like ratatouille technology'
p1346
aS'bugs house theyre tryna learn blenders shit'
p1347
aS'mean ever watch bugs life probably exactly like'
p1348
aS'probably think dying'
p1349
aS'feed smaller animals turn feed medium animals sometimes feed bigger animals feed'
p1350
aS'swaggied'
p1351
aS'sleepy depressed lyfe holler'
p1352
aS'google search blood heart religious sacrifice'
p1353
aS'google search horny kraft singles area'
p1354
aS'google search shoes even real'
p1355
aS'step ahead'
p1356
aS'fortunately internet decent using right hopefully downloads pretty fast'
p1357
aS'downloading stoked play'
p1358
aS'alrighty'
p1359
aS'actually would awesome'
p1360
aS'dude wanted beta salad online'
p1361
aS'hahaha homes'
p1362
aS'actually baby'
p1363
aS'cool love obvi'
p1364
aS'thought meant fazolis turning station confused'
p1365
ag8
aS'google search duck dynasty cosplay'
p1366
aS'google search truly'
p1367
aS'important memory foam perfect cuddling form trapped'
p1368
aS'brave snake saving fish drowning'
p1369
aS'incredibly slow manofwar'
p1370
aS'mean thats monkeys'
p1371
aS'thoroughly pissed miss duder'
p1372
aS'charleston though'
p1373
aS'wish could'
p1374
aS'haha smoke wheat'
p1375
aS'anyone ever watch cardcaptors rewatching less intense remember'
p1376
aS'tongue falling asleep last night cool'
p1377
aS'makes really happy awesome'
p1378
aS'would'
p1379
aS'yaaaaasssssssss'
p1380
aS'matching capes please gonna need many sequins mine though'
p1381
aS'yall tryna bring capes back wanna lookin like count'
p1382
aS'true heck yeah drop soon'
p1383
aS'mean like immediate family clue think sister idek also cool seeing last week'
p1384
aS'realized dont know anyone family relative'
p1385
aS'things things lost things lost fire fire fire'
p1386
aS'lame'
p1387
aS'kind like something'
p1388
aS'adore cory'
p1389
aS'straight jamming right'
p1390
aS'real though 2ne1 could step face'
p1391
aS'love snack time mcdonals extra meat health'
p1392
aS'praise lord helix'
p1393
aS'hand raised'
p1394
ag8
aS'today sure tomorrow wont either'
p1395
aS'live applesauce'
p1396
aS'youre band well drummer band actual wolf'
p1397
aS'next tattoo phrase holla'
p1398
aS'someone spell huntingten'
p1399
aS'listen vinyl well listen music whispered directly beard'
p1400
aS'show movie'
p1401
ag8
aS'nice'
p1402
aS'hashbrown'
p1403
aS'thats says mouse'
p1404
aS'roasted sweet potato'
p1405
aS'dragon ball opening theme funky'
p1406
aS'wish would remake mobile fighter gundam'
p1407
aS'makes weird faces high fives burp thats perfect'
p1408
aS'butt snaps best snaps always'
p1409
aS'called bottomless brunch never brunch wasnt full bottoms'
p1410
aS'sick super starving fixing immediately'
p1411
aS'cover something giving life right'
p1412
aS'stuff doesnt well'
p1413
aS'trying white knight family members autism close friends rape victims'
p1414
aS'even cool'
p1415
aS'rape term beating something retarded term stupid please unfollow youre gross'
p1416
aS'probably dirty coal harvest'
p1417
aS'seceded confederacy wanted blacks wanted witches demons'
p1418
ag8
aS'sick sucks'
p1419
aS'\xf0\x9f\x90\xac\xf0\x9f\x90\xaczombies cats zombie cats blog\xf0\x9f\x90\xac\xf0\x9f\x90\xac'
p1420
aS'soft grunge pale'
p1421
aS'time gave weed drivethru window weirdest transaction'
p1422
aS'dogs puppies pets canines'
p1423
aS'ayyyyyyyyy'
p1424
aS'midriff'
p1425
aS'dead'
p1426
aS'knows wants'
p1427
aS'omfg mixture confusion terror'
p1428
aS'thas whadahm talmbout'
p1429
aS'pringles stick'
p1430
aS'cool twitter name elea like'
p1431
aS'eleanerd stfu'
p1432
aS'crazy pixar news apparently andys died late aids reincarnated slinky'
p1433
aS'problem'
p1434
aS'print want'
p1435
ag8
aS'thats hula hoop equivalent anyway heres wonderwall'
p1436
aS'trick made'
p1437
aS'good episodes'
p1438
aS'watching legend korra essentially steampunk avatar'
p1439
aS'brother'
p1440
aS'snapchatted exact thing except yellow beard thought funny'
p1441
aS'four hundred twenty right fellow druggers'
p1442
aS'cant anything done week retrograde indica spiritual'
p1443
aS'gotta trust heart cards guys'
p1444
aS'share'
p1445
aS'ily2bb'
p1446
aS'lt33333'
p1447
aS'think thats talking'
p1448
ag8
aS'dude knew shit reading'
p1449
aS'legally recognize nonbinary genders petition'
p1450
aS'happy birthday hope snacks hugs world'
p1451
aS'mason louise hart biggest pleb ever pleasure meeting'
p1452
aS'pretty tight passage'
p1453
aS'anal isnt special'
p1454
aS'totes gnar sure'
p1455
aS'nachos friend'
p1456
aS'bonos nachos quesadillas restaurant opening themed mexican food'
p1457
aS'nada spaniards would'
p1458
aS'sorry youngin'
p1459
aS'bear'
p1460
aS'ages'
p1461
aS'gods name want look'
p1462
aS'girlfriend really cool weekend rocked'
p1463
asS'2014_6'
p1464
(lp1465
S'sensual candles obviously skin tight muscle shirts warm milk drake trust falls uninterrupt\xe2\x80\xa6'
p1466
aS'misogynistic homophobic white boys dont realize consequences actions bane existence'
p1467
aS'explain youve said homophobic things several times'
p1468
aS'cant delete something internet'
p1469
aS'real tweet rights nahhh'
p1470
aS'johnny clomp'
p1471
aS'menswear'
p1472
aS'fierce right love'
p1473
aS'process drawing cool thing friends bday present'
p1474
ag8
aS'totally spies ruined life'
p1475
aS'cooked mushrooms smell like uncle happy'
p1476
aS'always crunchy part'
p1477
aS'grass socks either bath'
p1478
aS'dream yeah rite grow hair theyre teeth false avertising'
p1479
aS'know pockets straight freezer they\xe2\x80\x99re particularly also tears make soggy'
p1480
aS'even halfway first episode hunterxhunter love'
p1481
aS'fairy tail needs hurry episodes cant wait april'
p1482
aS'know pain success something like'
p1483
aS'mean live tell people survived lightning strike people died lightning'
p1484
aS'nope'
p1485
aS'want lightning least life'
p1486
aS'think ohrun devil snsds best eras'
p1487
aS'dude shit dying'
p1488
aS'youre welcome'
p1489
aS'olympics facts outer space cold also quiet knows quite large void'
p1490
aS'abuse basic human rights torussiawithlove'
p1491
aS'need discography'
p1492
aS'itunes shuffle sean paul came going listen sean paul'
p1493
aS'appeal'
p1494
aS'busta always favorite rappers'
p1495
aS'tupac alive neverstopretweeting'
p1496
aS'sunsets much prettier people need need pretty badly'
p1497
aS'well lets thing'
p1498
aS'grown talking lego star wars video games'
p1499
aS'shit well rent coming play sometime'
p1500
aS'tits watch fellas'
p1501
aS'bragg lego star wars'
p1502
aS'never played dont like concept change ever play'
p1503
aS'hugz4nugz'
p1504
aS'like dank hugs huglyfe'
p1505
aS'meatloaf offputting concept delicious meal also rockin musician'
p1506
aS'lego franchise aside legos'
p1507
aS'looks'
p1508
aS'olympics2014'
p1509
aS'marvel cinematic universe great concept literally excited every upcoming title'
p1510
aS'things happen wonderful people often wish could make stop'
p1511
aS'youve done amused'
p1512
aS'yeah girls probably dont dingus room'
p1513
aS'dont know anyone would subscription anime site literally find dozens sites free'
p1514
aS'shit wear shorts comfortable sayin'
p1515
aS'mean tuxedo thong fancy'
p1516
ag8
aS'fufufu'
p1517
aS'kekekeke'
p1518
aS'yeah thats understandable also dont decorative undergarments opens options'
p1519
ag8
aS'video subs excited janey grown guest spot dunit'
p1520
aS'6pack kmart like'
p1521
aS'like pack boxer briefs'
p1522
aS'adorable interviews priceless'
p1523
aS'basic theyre back hella good ditched leah chick wasnt good'
p1524
aS'right caffeine overdose would weird'
p1525
aS'clouds house blue happy'
p1526
aS'2010 died eating spoonfuls caffeine'
p1527
aS'opens mail slot continues talking'
p1528
aS'provide peace blessings eternity stop everything forever'
p1529
aS'jehovahs witness church street heard good lord'
p1530
aS'theyre tempting impossible wait theyre cool'
p1531
aS'always lt3333'
p1532
aS'knock knock'
p1533
aS'pizza soup fuck constantly'
p1534
aS'whats favorite item taco bell'
p1535
aS'chocolate hate burning mouth'
p1536
aS'rupi cook'
p1537
aS'rill'
p1538
aS'bruh know aint gonna shut halfway thru gotta touch shit'
p1539
aS'happy birthday dingus'
p1540
aS'forgot marble hornets catching videos'
p1541
aS'dead'
p1542
aS'time'
p1543
aS'america basically clusterfuck racism mayonnaise mountain disease'
p1544
aS'always tell people careful somewhere accident least told careful'
p1545
aS'netherlands closing eight prisons across country lack crime'
p1546
aS'friday fridays said dingus find somewheres jrunky rebeka\xe2\x80\xa6'
p1547
aS'fravorite part beefy jerky bags white piece beef jrerky tastes like dish detrergents'
p1548
aS'sleep theres lonely times dreams foryoursleep'
p1549
aS'alrighty bunch stuff next couple weeks know free know'
p1550
aS'miss still charleston moved back last week hang'
p1551
aS'google search competitive kissing sport'
p1552
aS'google search would wizard'
p1553
aS'google search really love hasnt seen shrek'
p1554
aS'google search find'
p1555
aS'google search cats opinions'
p1556
aS'google search percentage people'
p1557
aS'google search'
p1558
aS'subway fritos chicken enchilada melt subtweet'
p1559
aS'tyler shut suck eggs'
p1560
aS'made mini taco bowls heck yeah sncktime'
p1561
aS'yeah better'
p1562
aS'know'
p1563
aS'wish werent fucking weird'
p1564
ag8
aS'traffic circle poland named late slayer guitarist jeff hanneman'
p1565
aS'intruder2 seriously going sick pumped toonami'
p1566
aS'gross'
p1567
aS'tony stark different iron suits including \xe2\x80\x9cthorbuster\xe2\x80\x9d \xe2\x80\x9chulkbuster\xe2\x80\x9d made battle'
p1568
aS'china owns pandas world panda outside china leased'
p1569
aS'never many days weird dreams confused'
p1570
aS'prettiest girl ever convince otherwise'
p1571
aS'wish could block sadness entirely nope'
p1572
aS'know know'
p1573
aS'game transportation services employee call duty modern fare'
p1574
aS'yeah forgive time'
p1575
aS'game fashionable bear hangs bird bandeaux kazooie'
p1576
aS'spelled name wrong'
p1577
aS'haha know gotchu'
p1578
aS'really sure feel somethin move makes feel like cant live without takes'
p1579
ag8
aS'thats'
p1580
aS'dont know freedom expression something make shit theyll scared'
p1581
aS'tell tell tell wont fight'
p1582
aS'real question'
p1583
aS'youre officially living life'
p1584
aS'anytime homes'
p1585
aS'eyebrow game point usual'
p1586
aS'guess handsome sometimes'
p1587
aS'really shit'
p1588
aS'dookie game skrong'
p1589
aS'dont diamond ring delicate string pearls thats wrote song sing beautiful girl'
p1590
aS'today lets talk haikrus wrote cares broat many dingus broats five'
p1591
aS'today february mewtwos birthday happy birthday mewtwo'
p1592
aS'clearly tamagotchi'
p1593
aS'sick today pretty happy'
p1594
aS'think everyone crystal math'
p1595
aS'exactly never never know never know youll truly know meth'
p1596
aS'know like mountain much like meth'
p1597
aS'youd sweet energy boost like drinking bull'
p1598
aS'meth'
p1599
aS'think going order bussy socks company anymore tell'
p1600
aS'title makes seem like musthave tell'
p1601
aS'butthole hoodies awful purchase never made'
p1602
aS'want trip'
p1603
aS'traci want make high quality lowpriced burrito happen'
p1604
aS'imagine scooping chili'
p1605
aS'burn holes hoodie homies think dank miss cocoa butter kisses'
p1606
aS'genghis khan exempted poor taxes encouraged literacy established free religion many joined'
p1607
aS'could mori girl would happy'
p1608
aS'fact ticklish butt'
p1609
aS'would anything would fight bear wouldnt think twice'
p1610
aS'isnt cancer illegal'
p1611
aS'chill'
p1612
aS'3005 back'
p1613
aS'sorry didnt know trying stay hidden'
p1614
aS'dylans youre welcome'
p1615
aS'retweet twitters either state obvious dumbest things ever heard seems middle ground'
p1616
aS'sochi hotels export water west virginia'
p1617
aS'bird facts viewed molecular level nearly indistinguishable bird'
p1618
aS'doctor everyone else'
p1619
aS'window closes door opens revealing another door opened reveals another door opened'
p1620
aS'unto others government mind control chips would'
p1621
aS'thats pretty rock caution traveling south split charleston'
p1622
aS'remember time dance battle'
p1623
aS'cant wait toonami store intruder2'
p1624
ag8
aS'people dont sweat small stuff dont sweat ever dont'
p1625
aS'thinking applying bridgemont program fall looks pretty interesting'
p1626
aS'touch butt'
p1627
ag8
aS'dont understand governments people solve problems weve boat many holes'
p1628
aS'fossil fuels fucked havent nearly enough effort alternative fuels'
p1629
aS'need problems instead creating ones wants destruction planet'
p1630
aS'world going well planned theyre ruin great barrier reef fucks sake'
p1631
aS'government probably doesnt care water sources want reduce population'
p1632
aS'permanent makes hottest faces'
p1633
aS'trojan unveils 3piece formal condoms'
p1634
aS'wants hang 30th'
p1635
aS'patrols close together smoke bike blunt'
p1636
aS'time itll probably legal think good'
p1637
aS'ever make happen going make ride least'
p1638
aS'somebody'
p1639
aS'people monitor area'
p1640
aS'sure could build raised walkway sort interstate drunks could patrol'
p1641
aS'dont know isnt bike highway would cool riding bike city city'
p1642
aS'people isnt white history month'
p1643
ag8
aS'kind sucks'
p1644
aS'dont friends converse regular basis'
p1645
aS'help save great barrier reef climate reckless expansion coal industry savethereef'
p1646
aS'like weird dreams past days'
p1647
aS'friend stuff'
p1648
aS'fuck'
p1649
aS'think talk girlfriend much thats problem shes perfect shes mine talk want'
p1650
aS'rupi needs certified twitter status verifyrupi'
p1651
aS'hasnt even days miss needybf'
p1652
aS'someone know hriccups ready easy dingus sheet yous spooky ghrost'
p1653
aS'making hard want perfect'
p1654
aS'good know'
p1655
aS'cocoa butter kisses good track'
p1656
aS'cleaned following list like inactive accounts following'
p1657
aS'baby musk thing'
p1658
aS'sick homies lyfe'
p1659
aS'think everyone getting sick fever getting'
p1660
aS'sick worth though'
p1661
aS'text like theres picture'
p1662
aS'weirdest sleep pattern'
p1663
aS'miss cutest girl universe contest would'
p1664
aS'wondering youd valentine sorry running across keyboard'
p1665
aS'ladies hours left make days left make valentine make right decision wwjd'
p1666
aS'make super bread bowl'
p1667
aS'really creepy people tumblr'
p1668
aS'welcome'
p1669
aS'dont think anyone ready jelly'
p1670
aS'know'
p1671
aS'time tubby'
p1672
aS'damn lawn'
p1673
aS'kids think youre funny'
p1674
aS'well understand situation peeps nonprivate twitters'
p1675
aS'youve done'
p1676
aS'people feel need quote tweets even anything isnt retweet button'
p1677
aS'butt'
p1678
aS'blowjob someone blows dingus right'
p1679
aS'need poodle pronto\xe2\x80\x94black'
p1680
aS'predicament better word kiss regardless dilemma makes seem like theres decision made'
p1681
aS'illness pretty dilemma'
p1682
aS'girlfriend sick kiss girlfriend want sick dilemma'
p1683
aS'moved back chimney want hang soon'
p1684
aS'gross'
p1685
aS'could definitely esurancesave30 could esurancesavemylife'
p1686
aS'thats wise decision'
p1687
aS'hidden crushed dreams diabetes'
p1688
aS'protein mayo keeps alert'
p1689
aS'hair trimmed today cool stuff'
p1690
aS'2002 scoobydoo movie originally meant dark pg13 marijuana jokes side relationship'
p1691
aS'white boys need shit together'
p1692
aS'white dudes types selfies concerned tryna push fart mouth ready'
p1693
aS'tweets giving much life right thank'
p1694
aS'speaks truth always'
p1695
aS'white boys embarrassing'
p1696
ag8
asS'2014_7'
p1697
(lp1698
S'cory perfect okay night night'
p1699
aS'hallelujah fixed twitter notification thing macbook dont keep checking twitter'
p1700
aS'maam moved 31st start corps office administration training'
p1701
aS'thanks need come huntington soon guys miss'
p1702
aS'saaaaaame'
p1703
aS'thiscoudbeusbutyouplayin'
p1704
aS'wish could color spectrum'
p1705
aS'wieners'
p1706
aS'cold pork chops winners'
p1707
aS'remember remember member'
p1708
aS'stoked'
p1709
aS'figure havent really keeping look'
p1710
aS'know theyll streaming online dont cable need'
p1711
aS'told year hope develops meth addiction hows valentines going'
p1712
aS'haha feel remember though smooth sailing'
p1713
aS'liquor beer youre clear beer liquor never sicker'
p1714
aS'really gamma glad chose hulk experiment lt333'
p1715
aS'babe really glad shes life'
p1716
aS'phone wear like glasses commies invent still cold'
p1717
aS'theres carbon monoxide kills'
p1718
aS'sounds like plan'
p1719
aS'moved back chimney definitely need hang soon'
p1720
aS'haha alright hope still around charleston already gone back htown'
p1721
aS'thank duder miss'
p1722
aS'happy valentines lt33333'
p1723
aS'happy valentines lt3333333'
p1724
aS'wanna coke pulls liter oldest trick book drink bitch'
p1725
aS'preemptively block shitty twitters soon someone retweets'
p1726
ag8
aS'cant past 23rd think theyre already adding days onto next year'
p1727
aS'george washington invented internet'
p1728
aS'feel wake every crack'
p1729
aS'sucks cant yawn even chew without clicking'
p1730
aS'hate making typos'
p1731
aS'remember could star wonder sold everyone star'
p1732
aS'bacon christians1 athetits'
p1733
aS'back pickletits'
p1734
aS'pruppet hang string called marinaras foryourpuppets'
p1735
aS'good'
p1736
aS'jokes trick actually hate'
p1737
aS'caesar croutons pumpernickel croutons happy'
p1738
aS'fuck werent supposed find'
p1739
aS'thats gross'
p1740
aS'horse walks bartender also horse every human horse lives simultaneously'
p1741
aS'cant even make jokes makes want throw'
p1742
aS'still dont fully grown like cartoon ponies still deserve respect'
p1743
aS'crush dont tell please seriously'
p1744
aS'footballs arent even shape like ball theyre shape like stitches steve brule'
p1745
aS'presidents distantly related taft outlier'
p1746
aS'dont pizza crust probably dont trust except microwaved little caesars cardboard'
p1747
aS'deuces teach'
p1748
aS'garbage sorry'
p1749
aS'nnah dude totaly adult'
p1750
aS'middle school arent shit peace'
p1751
aS'party'
p1752
aS'enough'
p1753
aS'sperm'
p1754
aS'pinnochihoe'
p1755
aS'cory porterfield lied dogs dingusi'
p1756
aS'omfg serious right'
p1757
aS'well guess thats true carry dingusannouncing ways'
p1758
aS'damnit youre supposed whole twittersphere knows cool'
p1759
aS'little bowlegged glory'
p1760
aS'please dont post tiny penis twitter elea dont need hear'
p1761
aS'you\xe2\x80\x99re going alone valentine\xe2\x80\x99s forget insects ghosts surveillance devices'
p1762
aS'watched behind bricks trailer lego movie still looks awful'
p1763
aS'kurapika badass good learn'
p1764
aS'thanks homes'
p1765
aS'inches still coming amused also sick though thinking clearly'
p1766
aS'potential joke laughed'
p1767
aS'snow ridiculous'
p1768
aS'redy'
p1769
aS'hardcore nigga wanna gang'
p1770
aS'sord'
p1771
aS'shit dood idek meens stabd widda sord'
p1772
aS'baskitballs earsz'
p1773
aS'gaging rong double zeros joints popped boyy'
p1774
aS'stretched pretty sure joints popped almost passed'
p1775
aS'went chrinese palace restaurant food gave couple dingus tree branches typical'
p1776
aS'krom metl'
p1777
aS'blah bluh blow dead'
p1778
aS'dont wake still dreaming storys undone unraveled seams'
p1779
aS'making noiseless laughter good minutes'
p1780
aS'block cheese calm'
p1781
aS'havent seen always sunny bloopers need'
p1782
aS'google search thing'
p1783
aS'google search quickest route reality'
p1784
aS'google search caught landslide'
p1785
aS'google search real life fantasy'
p1786
aS'coldstone steve austin'
p1787
aS'funches fucking funny'
p1788
aS'like shirts deep nahm sayin'
p1789
aS'eversobeautiful onomatomia cutest award sure'
p1790
aS'based peaches turning'
p1791
aS'shot middleaged white dude reason called crazy shot reason apparently fault'
p1792
aS'like hunter moore youre piece shit'
p1793
aS'fuck 100000 gallons coal slurry accidentally spill river thats tanker trucks worth'
p1794
aS'jobcorps stuff figured look extra professional'
p1795
aS'bedtime goodnight folks'
p1796
aS'right pretty sure song remixed punjabi remix knight rider theme song'
p1797
aS'holy shit punjabi trap remix died gone heaven'
p1798
aS'gurl'
p1799
aS'sleepy literally nothing making sense right cant sleep though'
p1800
aS'cant outta mind think girl time forget well well goes tired'
p1801
aS'shawty good lord baby open town strickly dont play around cover much ground game pound'
p1802
aS'montana'
p1803
aS'soon rest deteriorate inevitable hate happening soon'
p1804
aS'newage show steve newage show everyone thinks saying'
p1805
aS'girlfriend cute want touch butt'
p1806
aS'hate coal provided energy jobs resource many drawbacks'
p1807
aS'amen sister'
p1808
aS'really tired also yknow'
p1809
aS'saved life many times wear theatre makeup theyre life savers'
p1810
aS'dude state fucking time'
p1811
aS'predicted find public system diluted yeaokay dontdrinkthewater'
p1812
aS'coal slurry leak kanawha river originated winifredechemicals included similar mchm nearest water'
p1813
aS'pokemon games'
p1814
aS'perfect likes exact subway sandwich dresses like kesha sometimes'
p1815
aS'another near future'
p1816
aS'already diploma yeah lucky stuff filing cabinet theyll probably'
p1817
aS'theyre open enrollment wednesday daniel boone hotel 9am12pm1pm5pm thing going'
p1818
aS'bowl looks like glass bird statue grandmother washed display cabinet'
p1819
ag8
aS'could like mint chocolate chip cream glass'
p1820
aS'guess could'
p1821
aS'went christian book store asked application ratchet'
p1822
aS'drop sort spontaneous track mixtape would'
p1823
aS'dont drugs drugs copious amounts consensual drugs'
p1824
aS'problem'
p1825
ag8
aS'embracer'
p1826
aS'embrace embracer'
p1827
aS'indeed impressive thawing item date'
p1828
aS'omfg dont'
p1829
aS'miss miss miss miss miss dyou wanna moves'
p1830
aS'sorry fukin bitch'
p1831
aS'joseph favorite jamie still super funny'
p1832
aS'summer heights high hilarious'
p1833
aS'remember forgot frozen uncrustable pocket thawed unintentional genius'
p1834
aS'like floatin good stuff'
p1835
aS'really thankful'
p1836
aS'someone loves parts body hate start hate much'
p1837
aS'sunshine daisies butter mellow turn stupid yellow'
p1838
aS'memory foam godsend'
p1839
aS'time another really funny internet joke feels'
p1840
aS'agree'
p1841
aS'favorite candy yeezus pieces'
p1842
ag8
ag8
aS'caught piece chicken midair yesterday coolest moments life made sound hand'
p1843
aS'founder fedex fred smith saved company taking 5000 vegas turning 32000 playing\xe2\x80\xa6'
p1844
aS'good'
p1845
aS'biodome starring pauley shore'
p1846
aS'dont raging hard every time mullet arent true american'
p1847
aS'happy birthday banter truly sick'
p1848
aS'realized still demonata book next time ryan give bring back'
p1849
aS'tumblr youre following iris project youre missing could still cool'
p1850
aS'technokinesistechnomancy would pretty cool power'
p1851
aS'lies lips priest thanksgiving disguised feast'
p1852
aS'make alive alright alright church wild'
p1853
aS'guys like internet jokes heres doge'
p1854
aS'bears friends dont mean find ones drink alcohols ride mumbercycles drin\xe2\x80\xa6'
p1855
aS'justin bieber going bizzle case needed another reason think white people terrible'
p1856
asS'2014_4'
p1857
(lp1858
g8
aS'lack parental presence always good determining factor think youll enjoy'
p1859
aS'heck grammy like treddy grahams sounds like buncha hunks singing srongs eating crackers'
p1860
aS'huntington pretty chill boring everything conveniently located'
p1861
aS'rick ross wearing rick ross chain wearing rick ross chain'
p1862
aS'real like continue living huntington also want move back reasons'
p1863
aS'well cant find huntington next couple weeks moving back might well'
p1864
aS'google chromoji download extension chill'
p1865
aS'would tight'
p1866
aS'gonna apply'
p1867
aS'extension chrome allows emojis saved'
p1868
aS'honey wings papa johns pizza watusi rain dance kitchen counter'
p1869
ag8
aS'voice literally gives chills'
p1870
aS'kinda sick kinda holla atcha'
p1871
aS'marcus probably favorites'
p1872
aS'never find tedxtedtalks uninteresting'
p1873
aS'rape jokes never funny like ever'
p1874
aS'devastate'
p1875
aS'happy pants heart'
p1876
aS'omfg want talk girlfriend'
p1877
aS'sometimes think really lame enjoying things remember grown play ponies'
p1878
aS'doritos locos grilled stuft burrito'
p1879
ag8
aS'african american fuckin racist'
p1880
aS'painted like pokeball'
p1881
aS'ragrets'
p1882
aS'paint like batmobile wear robin costume crimefighters'
p1883
aS'dude wanted long great price great mileage'
p1884
aS'might moving back charleston february though hang'
p1885
aS'lets'
p1886
aS'feeling like shit wooooooooooooo winter sucks'
p1887
ag8
aS'reblog many weird things reference tumblr half books writing'
p1888
aS'miss'
p1889
aS'directly hands thats like washing right'
p1890
aS'miss'
p1891
aS'degrees'
p1892
aS'preprogram'
p1893
aS'haha cool lets killem'
p1894
aS'help boiling humans sounds cool'
p1895
aS'wont'
p1896
aS'love'
p1897
aS'real'
p1898
aS'cant believe'
p1899
aS'baby topic'
p1900
aS'chinzzzzz'
p1901
aS'oops'
p1902
aS'shes trying become digidestined digimon raymon'
p1903
aS'people pronounce ramen raymen frustrated'
p1904
aS'everyone already knows justin bieber little douche stop giving attention'
p1905
ag8
aS'definitely worth staying love'
p1906
aS'youre wonderful'
p1907
aS'dude youre adorable human'
p1908
aS'idea flawless'
p1909
aS'legalizemeth2014'
p1910
aS'pretty right'
p1911
aS'pretty right'
p1912
aS'makes laugh every time'
p1913
aS'offering someone spotted dick'
p1914
aS'youve seen really cool interview reggie watts thought youd enjoy'
p1915
aS'woop woop'
p1916
aS'saying rather enjoy stress work didnt'
p1917
aS'work better done need need'
p1918
aS'tortoise named \xe2\x80\x9cadwaita\xe2\x80\x9d lived born existed death announced 17502006\xe2\x80\xa6'
p1919
aS'love cheer lt333'
p1920
aS'wrong prediction'
p1921
aS'never fool'
p1922
aS'podcast weird right'
p1923
aS'cracking feel like interesting part show'
p1924
aS'wonder justin beaver gangman gangman style ever song great artists'
p1925
aS'guys like internet memes'
p1926
ag8
aS'everyone makes foam'
p1927
aS'read toonami tumblr posts toms voice'
p1928
aS'little'
p1929
aS'also anyone wants tube probably sell like comes player'
p1930
aS'anyone needs atampt phone selling samsung focus'
p1931
aS'glad talk wcwcutie tonight'
p1932
aS'never singing anyone ever ever'
p1933
aS'another movie night cutie thank lort skype'
p1934
ag8
aS'need carry things problem tail'
p1935
aS'prehensile tail would cool'
p1936
aS'2014 year schools stood still'
p1937
aS'happy birthday'
p1938
aS'youre stud'
p1939
aS'valentine could'
p1940
aS'offers weather rooms students free charge contact tracey 3046966004'
p1941
aS'ambidextrous handy'
p1942
aS'usually good putting facade today days'
p1943
aS'thanks homes super rough time'
p1944
aS'would lets steal blood tests'
p1945
aS'money bought'
p1946
aS'look almost sure immortal'
p1947
aS'meant nerd neptunes thats production label brainfart'
p1948
aS'pharrell good especially stuff neptunes'
p1949
aS'clap along feel like room without roof'
p1950
ag8
aS'thats really budget music video'
p1951
aS'well least youll energy long time'
p1952
aS'woah hunder thats many coffeee'
p1953
aS'kawaii'
p1954
aS'snapchat laptop'
p1955
aS'even though shes'
p1956
aS'know'
p1957
aS'damn stud'
p1958
aS'boys talk boys'
p1959
aS'sick fisheye selfie brought arizona watermelon'
p1960
aS'spice commercials fucking hilarious'
p1961
aS'technology cool watch movies girlfriend'
p1962
aS'dont ever cornrow sleep'
p1963
aS'movie night cutie'
p1964
aS'buffalo chicken fries'
p1965
aS'movie time holla back'
p1966
aS'done'
p1967
aS'gonna gonna skypewatch movie come chill'
p1968
aS'ooooo shit shit'
p1969
asS'2014_5'
p1970
(lp1971
S'philip seymour hoffman unbearably shockingly deeply words fail describe life loss'
p1972
aS'philip seymour hoffman great actor director missed'
p1973
aS'last night awesome cool friends also really love'
p1974
aS'real autocorrect aint worth shit'
p1975
aS'spelled smarty mcsmart pants wrong'
p1976
aS'eatin beat like gave speech great white shark shark week'
p1977
aS'achievement hunter twerkteam'
p1978
aS'girlfriend tonight explode happiness'
p1979
aS'super bowl party prank make layer bottom layer letter state testifying registered'
p1980
ag8
aS'numbers make uncomfortable'
p1981
aS'football facts score tied regulation everyone field world eventually'
p1982
aS'check thanks'
p1983
aS'sorry'
p1984
aS'vitamin string quartet tribute mars volta happy'
p1985
aS'hell yeah check thanks'
p1986
aS'someone hire body guard 250lbs nobody would touch'
p1987
aS'anyone know places charleston hiring minimum wage preferable'
p1988
aS'hungry games right arby'
p1989
aS'want fall'
p1990
aS'wiggle like tryna make fall'
p1991
aS'football facts ballcarrier tackled endzone almost impact relentless expansion'
p1992
aS'used awake noon'
p1993
aS'dream involving last night incredibly strange'
p1994
aS'used sell peace strength don\xe2\x80\x99t even talk peace anymore endless drones everywhere'
p1995
aS'promise america becoming living transition bear witness'
p1996
aS'ever think undercover following yell \xe2\x80\x9ccrime good\xe2\x80\x9d required yell crime times'
p1997
aS'awwwww yeah stoked'
p1998
aS'yesterday'
p1999
aS'live chimney gotta chill soon'
p2000
aS'dont think sirs mckellen patrick stewart adorable highly mistaken'
p2001
ag8
aS'hottie month today lucky dude'
p2002
aS'found milf doesn\xe2\x80\x99t necessarily'
p2003
aS'subway fucking fritos enchilada chicken melt sandwich need'
p2004
aS'bill waited school steps pick never came wanting independent that\xe2\x80\xa6'
p2005
aS'chimney inside'
p2006
aS'huntington missed'
p2007
aS'girl trippin must crack dealer always goin'
p2008
aS'homie lemme lt3333'
p2009
aS'nobody cuter youre smokin'
p2010
aS'geico commercial amazing'
p2011
aS'honestly apple pieflavored potato chip'
p2012
aS'thoroughly excited valentines never uttered sentence life'
p2013
aS'stuff know youre home'
p2014
aS'gonna home anytime soon pipes frozen need water cool'
p2015
aS'even letter'
p2016
aS'sign says artisanalbread like anal bread isnt anything bread'
p2017
aS'would great aunt besthair workthatupdo'
p2018
aS'used adorable'
p2019
aS'feel like death cant even take right'
p2020
aS'frustrated today'
p2021
aS'think piper\xe2\x80\x99s fiddlin\xe2\x80\x99 tune midnight chance free grub winner chosen'
p2022
aS'havent sleep cleaning apartment move tomorrow found cool though'
p2023
ag8
aS'could turn breeze around turn back human would cool power'
p2024
aS'beefcake factory sexyrestaurants'
p2025
aS'mcdongalds sexyrestaurants'
p2026
aS'five guys around mouth sexyrestaurants'
p2027
aS'happy birthday shit lord'
p2028
aS'yessir'
p2029
aS'probably moving back charleston next week come huntington know hang'
p2030
aS'miss guys'
p2031
aS'weird wednesdays arent without'
p2032
aS'guyliner'
p2033
aS'fucking moose though'
p2034
aS'theyre telling public theyre telling water company employees like months'
p2035
aS'youre welcome something lt3333'
p2036
aS'peace peaced baby'
p2037
aS'makes ghandhanesh'
p2038
aS'like flappy turd'
p2039
aS'radiant shes cool something'
p2040
aS'anyone want keurig machine'
p2041
aS'goodnight twitter'
p2042
aS'check'
p2043
ag8
aS'youre cute'
p2044
aS'incredibly passionate sauces potatoes'
p2045
aS'whats really good'
p2046
aS'retarded describe something stupid talking mentallychallenged person dont ever talk'
p2047
aS'literally best ever contest'
p2048
aS'awake'
p2049
aS'star wars clone wars'
p2050
aS'fairy tail accel world hacksign good'
p2051
aS'hahaha love'
p2052
aS'handsome duuuuh lt3333'
p2053
aS'pony douches think proper term'
p2054
aS'zombie outbreak wouldnt last long food would would steal boat wait dingus'
p2055
aS'home improvement real hunk meat'
p2056
aS'careful'
p2057
aS'boifrand wudnt cheat really whitegirltweets never would thought'
p2058
aS'retweet twitters bane existence'
p2059
aS'version cant hold blows mind mitch kills'
p2060
aS'goth girl dates'
p2061
aS'cutest love'
p2062
ag8
aS'pharrell thinking arbys'
p2063
aS'thats every'
p2064
aS'fuck right'
p2065
aS'wayfarer rack back tire'
p2066
aS'wire could easily fixed like'
p2067
aS'anyone want schwinn bike thing wrong wire gear shift broken basically brand'
p2068
aS'dont want date tips fedora gonna send shadow realm'
p2069
aS'going guess'
p2070
aS'think everyone wants mackleless macklemore'
p2071
asS'2014_2'
p2072
(lp2073
S'youre ready come nananana'
p2074
aS'selfiesunday allnatural'
p2075
aS'swaggyseniors'
p2076
aS'truuuuuuuu'
p2077
aS'heck yeahhhhhhh'
p2078
aS'maybe ignore board'
p2079
aS'kanawha county kids gonna making days july keeps damn'
p2080
aS'yeeeaaaaahhhhhhhhhhhh'
p2081
aS'foals'
p2082
aS'step ahead champ'
p2083
aS'thought might'
p2084
ag8
ag8
aS'good thing'
p2085
aS'long said homo youre safe virus'
p2086
aS'riiiiiiiight accident suuuuuuuuure'
p2087
aS'fuuuuuuuuuck'
p2088
aS'dont drop thun thun thun'
p2089
aS'even upset libra always calm like know everything work'
p2090
ag8
aS'happy birthday'
p2091
aS'care much dude come'
p2092
aS'completed showering ritual'
p2093
aS'alrighty'
p2094
aS'shower'
p2095
aS'like shot please'
p2096
aS'wait julia roberts investigating water'
p2097
aS'indeed thoroughly excited'
p2098
aS'gift card today happy'
p2099
aS'laputa castle time favorite movies'
p2100
aS'strongly considering going'
p2101
ag8
aS'dont approve music younger generation listening'
p2102
aS'please dont fuck baby animals'
p2103
ag8
aS'talk'
p2104
aS'real shoot animals'
p2105
aS'cool'
p2106
aS'blaze'
p2107
aS'found gene shyness would found earlier hiding behind genes'
p2108
aS'deer burgers holla'
p2109
aS'could pepperoni roll'
p2110
aS'sticks stones break bones make weak'
p2111
aS'luck'
p2112
aS'need speak amanda please'
p2113
aS'kick door'
p2114
aS'hahahahahahaha'
p2115
aS'cannibals antarctica must really pissed sure food freezer burn constantly'
p2116
aS'tabasco slim watermelon arizona make love'
p2117
aS'terrifying night creature talks shit slanderman'
p2118
aS'girl master ball friendship unbreakable'
p2119
aS'ultra clutch might'
p2120
aS'would like take opportunity really cool like super cool'
p2121
aS'sitting kitchen witchu'
p2122
aS'took shower fresh jugs'
p2123
aS'thing'
p2124
aS'found notebook thought lost'
p2125
aS'lorde lookin like vampire aint underworld'
p2126
aS'want watch movies pizza girlfriend dang'
p2127
aS'dont number dont need nowwwww'
p2128
aS'free ricco'
p2129
aS'like seriously disgusting youre hoarding much water others little water available'
p2130
aS'people ridiculous water thing need cases bottled water family'
p2131
aS'talking much sign insecurity keeping quiet breathing born human'
p2132
aS'laaaaame'
p2133
aS'right heart beating unison least person'
p2134
aS'food figure hell fazolis sent check cool'
p2135
aS'happy birthday loser'
p2136
aS'gets like become immortal'
p2137
aS'sauce always'
p2138
aS'bunch jerks circle like circle jerks something'
p2139
aS'naked live'
p2140
aS'step ahead fellas'
p2141
aS'course purely educational wrk4lyfe'
p2142
aS'door locked cant open lock wouldnt leave buddy behind'
p2143
aS'dont drink water'
p2144
aS'zombies grabbing person going dicks sporting goods need guns beef jerky'
p2145
aS'youre promise'
p2146
aS'good colon cleanser heard'
p2147
aS'hottest hottie ever'
p2148
aS'really foals kick math rock'
p2149
aS'pretty much everyone night shift chill sure youll enjoy'
p2150
aS'chad really cool jimmy johns delicious really'
p2151
aS'heart gives western feeling'
p2152
aS'follow heart styrofoam cooler back pickup ahead step haven\xe2\x80\x99t much time'
p2153
aS'pure genius'
p2154
aS'fuckin jenn coming clutch'
p2155
aS'welcome love uuuuuu'
p2156
aS'working'
p2157
aS'build'
p2158
aS'water come make food home'
p2159
aS'nothing texting watching'
p2160
aS'well everyone cabell safe except culloden residents least'
p2161
aS'water jokes like prime real estate right easy retweets thirsty twitterers sorry insensit\xe2\x80\xa6'
p2162
aS'water'
p2163
aS'tweet water'
p2164
aS'water'
p2165
aS'right thankfully filled liter bottle earlier good'
p2166
aS'wouldnt recommend right'
p2167
aS'going melt goodbye'
p2168
aS'apparently chemicals river combining chemicals main water line breaking theyre coming'
p2169
aS'news youre blind'
p2170
aS'took shower preparation cabell county takeover'
p2171
aS'brother theyre sick'
p2172
aS'convene friday skeleton staff humannonskeleton staff advised stay home'
p2173
aS'cause around times found youre thing need'
p2174
aS'smoked johnny hopkins'
p2175
aS'mean figure gonna standard handy inflation know'
p2176
aS'please smell lady'
p2177
aS'studies basement shown turnips real things real cannot smashed hammers'
p2178
aS'turnip even real dont think science doctor know whats real'
p2179
aS'turn'
p2180
aS'friends supposed good education youre poisoning schools obama mcdonalds closes'
p2181
aS'like dont drink water like shit brush teeth pepper'
p2182
aS'schools poisoned cool'
p2183
aS'water contaminated water already contaminated'
p2184
aS'love drinking garbage'
p2185
aS'hamstick'
p2186
aS'nothing ordinary'
p2187
aS'untampered photographic evidence changes present consumption contaminated water'
p2188
aS'indeed'
p2189
ag8
aS'everyone walk outside matches could huntington'
p2190
aS'love haha raddest person ever'
p2191
aS'much love'
p2192
aS'sorry dont know came everything seems back normal aside fact eyes glowing'
p2193
ag8
aS'lolol'
p2194
aS'teeth shharpening alaaarming rate suddenly crraving triyng finish calzonee first'
p2195
aS'tufts sseem sproutingg alll bpdy sure thiss couldf mean'
p2196
aS'odnt think fingerwnails werew thid long whne started'
p2197
aS'feeling faint tingling sensation myfingers sure good science doctor conclusions soon'
p2198
aS'consumed glass putnam water lets goes'
p2199
aS'update chemical spills contaminate water around state drink shit nigga youll turnt fuck residen\xe2\x80\xa6'
p2200
aS'chemical skin irritant odor taste would strong recognizable water youd know drink'
p2201
aS'american water says time clean water last customer gets clean water could hours days wsaz'
p2202
aS'samples contaminated water caused sources believe fact aliens know'
p2203
aS'chemical turn body diamonds invincible'
p2204
aS'hahahaha well previously reported snake boot never know'
p2205
aS'coal makes strong water makes coal strong gonna make country stroooonnngg'
p2206
aS'literally reason drink water youre imagining whole ordeal'
p2207
aS'dont water bathe blood fallen'
p2208
aS'listen government water cleanse drink friends'
p2209
aS'many americans gotta kill ugliest ones poison water actual quote president'
p2210
aS'purple lightning seen river within last hour whether static shock still unsure'
p2211
aS'update reports several people flying reference please buyrent chronicle'
p2212
aS'maybe contaminated would fucking suck'
p2213
aS'thats'
p2214
aS'update people come contact contaminated water reporting ability levitate small objects info come'
p2215
aS'true news source twitter'
p2216
aS'follow want livetweet chemical leak hahaha'
p2217
aS'chemical water chemical youve ever wanted powerpuff girlrowdyruff chance'
p2218
aS'hahahahahahaha dont blame kanawha water htown stays gross'
p2219
aS'good thing still huntington guys want come drink water'
p2220
aS'canadian water'
p2221
ag8
aS'somebody poisoned water hole news fact snake boot'
p2222
aS'guys drunk water chug'
p2223
aS'science scientific things'
p2224
aS'drink water theres meth trust science doctor'
p2225
aS'water'
p2226
aS'green broken glass ocean break slow motion'
p2227
aS'really looking forward calzone'
p2228
aS'anyone want samsung focus dont could extra cash'
p2229
aS'dont need think away charging however much want corporateamerica'
p2230
aS'used stud'
p2231
aS'gone'
p2232
aS'throwing weapons'
p2233
aS'believe'
p2234
aS'follow dreams'
p2235
aS'sext believe aliens'
p2236
aS'girl alright hundred percent intellectual wanna know wont please'
p2237
aS'ilu2b'
p2238
aS'youve blood hands know'
p2239
aS'good choice dude'
p2240
aS'probably much fucking beautiful'
p2241
aS'hell yeah class'
p2242
aS'origins shit'
p2243
aS'believe church worships attend study groups analyze words argue others'
p2244
aS'adverbverbs'
p2245
aS'favorite person'
p2246
aS'cory favorite person'
p2247
asS'2014_3'
p2248
(lp2249
S'holla'
p2250
aS'well shit'
p2251
aS'dopamine serotonin technically things enjoy'
p2252
aS'right seen accel world check'
p2253
aS'seen bits pieces going give watch finish fairy tail'
p2254
aS'dont know background song toonami commercial fucking love'
p2255
aS'need nigga rent nigga hour'
p2256
aS'town'
p2257
aS'soul eater favorite anime time'
p2258
aS'2009 coolio attempted stage dive performance nobody caught beaten shoes stolen'
p2259
aS'like preference milk alternatives'
p2260
aS'sense humor mostly sequitur thats probably funny'
p2261
aS'thts cool like almond milk'
p2262
aS'good vibe sext like milk'
p2263
aS'take pictures'
p2264
aS'lemme know home toonami tonight'
p2265
aS'world house'
p2266
aS'honestly right britney spears'
p2267
aS'quite enjoy'
p2268
aS'vitamin string quartet cover every song ever'
p2269
aS'need make major life choices youre genius'
p2270
aS'fish riverfront maybe twoheaded fish'
p2271
aS'hahahahahaha listening patd song reference applicable'
p2272
aS'recipes work ingredient'
p2273
aS'great idea'
p2274
aS'arctic monkeys cover hold goin home pure music love'
p2275
aS'like days peanut butter sandwiches'
p2276
aS'never think would caught'
p2277
aS'miss well'
p2278
aS'hunting waiting luke work'
p2279
aS'lowkey scary kidding'
p2280
aS'serious disappears pencil dangus makeup name jroker friend bratmans\xe2\x80\xa6'
p2281
aS'ramen getting'
p2282
aS'cause jeep foggin windows'
p2283
aS'matter alone rather'
p2284
aS'life gamble taking important people'
p2285
aS'sounds like plan'
p2286
aS'lets'
p2287
aS'aight sounds good'
p2288
aS'200person current rate beginner cheap'
p2289
aS'want bounty hunter assassin career choices could made available would'
p2290
aS'home'
p2291
aS'love'
p2292
aS'thankful love'
p2293
aS'rock shes worst thankful'
p2294
aS'home'
p2295
aS'want urns turns tree'
p2296
aS'going hanging closet probably'
p2297
aS'always fuck'
p2298
aS'hope people dont fruit butt wasting good fruit'
p2299
aS'still people practice norse religions worship odin thor'
p2300
aS'someone charleston surrounding areas apartment move away huntington'
p2301
aS'touchin touchun muuuuuuuuuu'
p2302
aS'touchin yoouuuuuuuu'
p2303
aS'tell said'
p2304
aS'tweet incredible must give credit credit'
p2305
aS'show picked seasons'
p2306
aS'rays family learns necromancy comes back zombie infects family everybody loves zombies audience laughs'
p2307
aS'mother coming deborah cant tears'
p2308
aS'deborahhhhhhhhhhh'
p2309
aS'know funny greatchannel everybodylovesraymond'
p2310
aS'home'
p2311
ag8
aS'ilysm'
p2312
aS'youre favorite youre perfect'
p2313
aS'seriously perfect shes favorite'
p2314
aS'shes nice cute butt'
p2315
aS'amber color energy'
p2316
aS'sexy times womans eggs randy name brill clintus'
p2317
aS'wowowowowow lucky holy shit'
p2318
aS'worlds largest virus unique genome doesnt match organisms hints fourt\xe2\x80\xa6'
p2319
aS'youve airplane plain youre gone gone insane reappear'
p2320
ag8
aS'well darn well'
p2321
aS'work tomorrow orientation'
p2322
aS'yeah'
p2323
aS'whatever want free country look amendment'
p2324
aS'1010 would wear'
p2325
aS'bathing gallon drum acid'
p2326
aS'pudu deer worlds smallest deer live bamboo thickets hide predators'
p2327
ag8
aS'need cutie asap please'
p2328
aS'adorable'
p2329
aS'coming apart seams pitching leads peoples dreams'
p2330
aS'promise everyone doesnt tails'
p2331
aS'could media pick normal looking west virginians recognize national news time please'
p2332
aS'forever love studio ghibli'
p2333
aS'heck'
p2334
aS'lt333'
p2335
aS'cute'
p2336
aS'chill'
p2337
aS'heeeeeeeeey'
p2338
ag8
ag8
aS'sounds like youre trying fuckin gross dude'
p2339
aS'danced graves enemies'
p2340
aS'bettergetsomevitaminwater illgiveyouthevitamind'
p2341
aS'iamdehydrated'
p2342
aS'haha thethirstisreal'
p2343
aS'favorites every selfie post obsessed much'
p2344
aS'remind forget remember'
p2345
aS'selfies4daze'
p2346
aS'weeks later still lookin'
p2347
aS'sleepy'
p2348
aS'damn jellyfish business jellyfish want business card'
p2349
aS'state emergency guys dont make days stop complaining'
p2350
aS'well dishes look extra sharp homie'
p2351
aS'dang gonna dishwasher work front back'
p2352
aS'would like able turn lower body pegasus'
p2353
aS'truth morebetter jobs money cool'
p2354
aS'huntington really boring like live less minutes lady well'
p2355
aS'huntington unfortunately really want move back charleston'
p2356
aS'also 850hr isnt half'
p2357
ag8
aS'shift endless still good'
p2358
aS'welp officially employee outback cool'
p2359
aS'perks dating busta rhymes really fast'
p2360
aS'uuuuuuuu'
p2361
aS'well chili powder cooking'
p2362
aS'hahahaha always'
p2363
aS'could forget baby'
p2364
aS'oooooooooooo getem'
p2365
aS'damn straight ilybb'
p2366
aS'yoloswag5ever'
p2367
aS'lt33'
p2368
aS'interview outback tomorrow holla'
p2369
aS'home'
p2370
aS'moment silence colorado'
p2371
aS'oranges intensely fragrant'
p2372
aS'right bear arms want replace arms arms ursine creature'
p2373
aS'cheeseburgers baseball terrorism'
p2374
aS'obligatory tweet cute girlfriend hecka cute'
p2375
asS'2014_43'
p2376
(lp2377
S'ever hungry eating doesnt sound good'
p2378
aS'youll never make leave wear sleeve give reason believe'
p2379
aS'students highest gpas tend score lowest measures creativity independence'
p2380
aS'cabbabe balls green leafs honest'
p2381
aS'represent legal matters livestock auctions'
p2382
aS'advent technology shouldve prevented humans seeing world 10am'
p2383
aS'havent even gone first class already want home'
p2384
aS'gary buseys'
p2385
aS'even libra isnt feeling well still find time make sure youre okay'
p2386
aS'pushups shower brother brother dude'
p2387
aS'cute bois rude girls worried arms\xe2\x80\xa6 dont worry wont shawn'
p2388
aS'well know'
p2389
aS'dont even want'
p2390
asS'2014_42'
p2391
(lp2392
S'toughest decisions make child complete even real anymore'
p2393
aS'howls moving castle probably favorite studio ghibli film'
p2394
aS'anyone sports game today'
p2395
aS'honestly hate'
p2396
aS'actually like yosemite cleaner'
p2397
aS'know'
p2398
aS'fuck personal philosophy outline education though'
p2399
aS'anyone reading tweet sexor even looked please unfollow immediately'
p2400
aS'find works facebook slash cocobutterphotographyandyardsale'
p2401
aS'honestly hanging best part'
p2402
ag8
aS'decided start watching gravity falls great decision'
p2403
aS'would anyone fiji bottles make sick grav bongs'
p2404
aS'boys looking point'
p2405
aS'many baked cheetos mouth thats sexy said organized tapes writin\xe2\x80\xa6'
p2406
aS'gold chains taken people beat bouncer wore openly could come back'
p2407
aS'dont feel like today'
p2408
aS'never much trouble sleeping past week'
p2409
aS'heard floorboard creak thats definitely ghrost'
p2410
asS'2014_41'
p2411
(lp2412
g8
aS'salmon pink primarily crustacean diet'
p2413
aS'arbys creme br\xc3\xbbl\xc3\xa9e shakes amazing'
p2414
aS'know'
p2415
aS'woke already want back sleep'
p2416
aS'cool still friends saddest fucking songs ever makes want curl'
p2417
aS'mans pullout game weak'
p2418
aS'real though world flames protestsriotsetc many countries people'
p2419
aS'today\xe2\x80\x99s date 2014 rare never happen'
p2420
aS'proceeded give chase sandwich'
p2421
aS'tiny'
p2422
aS'zone gonna friday coming huntington want calzone'
p2423
aS'look theres costco dick'
p2424
aS'specific'
p2425
aS'really cannot bleach'
p2426
aS'dads apps phone'
p2427
aS'play puzzle dragons name literally cory'
p2428
aS'tangerines'
p2429
aS'played smash today little fave'
p2430
aS'iphone hella'
p2431
aS'cant jack need'
p2432
aS'items month item made sure super great giving thumbs'
p2433
aS'simon peggnick frost movies literally callback love much'
p2434
aS'yuuuuup'
p2435
aS'called attak looked'
p2436
aS'also danny brown cant remember name though'
p2437
aS'shit rustie danny brown song together yaaaasssss'
p2438
aS'feel like would really rusties music'
p2439
aS'need listen rustie chance'
p2440
aS'kevin birthday happy 26th'
p2441
aS'send birthday nudes'
p2442
aS'birthday chill'
p2443
aS'take part quiz'
p2444
asS'2014_40'
p2445
(lp2446
S'drunk cant find plate pizza sega genesis plate'
p2447
aS'thrift shopping ssenpai'
p2448
aS'macklemore fanfiction'
p2449
aS'sweet stoked'
p2450
aS'wanna friday class work'
p2451
aS'adventurous spirit'
p2452
aS'hella'
p2453
aS'soooorry'
p2454
aS'thanks dont number'
p2455
aS'well hopefully make happen maybe come huntington soon'
p2456
aS'thanks baby'
p2457
aS'thanks miss'
p2458
aS'anyone know time china gourmet corridor dinner starts'
p2459
aS'thanks'
p2460
aS'screwing'
p2461
aS'thanks'
p2462
aS'probably'
p2463
aS'adult'
p2464
ag8
aS'little sista cant fiiiind anoooother wayyyy'
p2465
aS'never love george clinton parliament funk long live pmof'
p2466
aS'gonna like hour weird'
p2467
aS'dude dropped acid'
p2468
ag8
ag8
aS'book adults sign read book score free pizza join bookitkid'
p2469
aS'ringo says fall'
p2470
aS'finally caught shippuuden damn'
p2471
aS'made pulled pork nachos tell time life'
p2472
aS'dont forget 3oct11'
p2473
aS'hanging friends'
p2474
aS'best'
p2475
aS'sense humor jokes dont make sense youll laugh anyways think theyre supposed'
p2476
aS'napping hours never really great decision'
p2477
aS'really pumped allowed touch tits'
p2478
aS'honestly mess'
p2479
aS'talk mediocre iggy track'
p2480
aS'5mil gold gaia essentially broke economy broken'
p2481
aS'google search chips'
p2482
aS'honestly like fuck entire life though'
p2483
aS'selfie wynaut'
p2484
aS'missed brawlersvsballers party said youd bring wings gameday sportsdisappointed'
p2485
asS'2014_44'
p2486
(lp2487
S'third hangover movie'
p2488
aS'hate diamante mick jagger outta'
p2489
aS'christmas season meaning mariah careys career resurrected'
p2490
aS'naruto'
p2491
aS'seriously though anyone good putting together tranceelectrohouse stuff'
p2492
aS'scale cant sleep 1700'
p2493
aS'thought certain past mean think future learn grow change'
p2494
aS'like abandon physical forms become beings pure energy still consume delicious treats'
p2495
aS'problem sucks gotten point tums shit barely help'
p2496
aS'dude candy gives acid reflux'
p2497
aS'sunset overdrive pretty awesome'
p2498
aS'always feel much better shower'
p2499
aS'goodnight world'
p2500
aS'comfortable want look sexy'
p2501
aS'didnt think taking part shave november guess technically since regrowing beard'
p2502
aS'flex remix goes harder original nickis verse insane'
p2503
aS'really want scare halloween look eyes tell isnt perfect'
p2504
aS'think gonna full beard gonna haircut sounds like good combo'
p2505
aS'show fuckin fart'
p2506
aS'guys daniel handler lemony snicket wrote prequel series lemonys apprenticeship need read'
p2507
aS'noodle favorite gorilla forever always'
p2508
aS'anyone greater charleston area would want together houseelectronica project wanna vocals'
p2509
aS'sacred geometry always coolest shit'
p2510
aS'hahahaha'
p2511
aS'sassy brassy'
p2512
aS'shoutout bear'
p2513
aS'know theyre quite good theyre better sandstorm'
p2514
aS'love galaxy games'
p2515
aS'trap hoooooouse'
p2516
aS'mean president unofficial eiffel 65daft punkda rude housetechnoelectronica club'
p2517
aS'dana fucking video life dont ever question eiffel love'
p2518
aS'night everything sees blue like inside outside'
p2519
aS'cheepootlay haha'
p2520
aS'blue'
p2521
aS'pick cool playlists spotify'
p2522
aS'increasing people pleasure everyday experiences younger people extraordinary'
p2523
aS'coming totally rock forever'
p2524
aS'known caused genuine spit take today'
p2525
aS'gonna start solo project called right infront play left behinds songs reverse sing lyrics backwards'
p2526
aS'laughed today past month'
p2527
aS'like brad \xe2\x80\x9cpott\xe2\x80\x9d drug weed heard smoked marihuana oceans'
p2528
aS'ever tell guys thing happened'
p2529
aS'twee love cabbabe ignore want scary person follow every cuts'
p2530
aS'guys ever notice things made stuff weird'
p2531
aS'realized said stave meant state'
p2532
aS'super probably like minute drive also stave near dunbar days week'
p2533
aS'problem'
p2534
aS'rustie sbtrkt hudson mohawke tnght rudy zygadlo'
p2535
aS'problem cabbibtch'
p2536
aS'durgers dungeon spooky special friday hear voice acting truly gonna spooky'
p2537
aS'stoked inhumans stoked strange cast bendydick cucumbersnatch'
p2538
aS'snap chats want sensibleheart'
p2539
ag8
aS'jump well waiting alright theres beauty breakdown'
p2540
aS'anyone hasnt heard today love youre great person potential'
p2541
aS'know elkview live like miles coonskin'
p2542
aS'lets friends something soon please'
p2543
aS'think youre beautiful look toned today'
p2544
aS'continuing gravity falls kick tonight actually damn good show'
p2545
aS'sometimes life shit remember genthrax devourer lives center planet'
p2546
aS'didjimon'
p2547
aS'puts hacker glassestrench coatleather boots hacked'
p2548
aS'holy fuck polly gotta save digiworlduniverse'
p2549
aS'som1 transprt digital wrld wanna live garurumons tamogatchis'
p2550
aS'time able comprehend theyd already sped next time though'
p2551
aS'want sympathy form crawling'
p2552
aS'thank douchebag passenger seat friends mustang needed word faggot screamed morning cheers'
p2553
aS'doesnt world magic would cool shit magic'
p2554
asS'2014_29'
p2555
(lp2556
S'following heart stop'
p2557
aS'cant wait digby precious makes heart happy'
p2558
aS'shit gonna change reefer mansmok ganja guess wont'
p2559
aS'suck'
p2560
ag8
aS'planning little heart'
p2561
aS'help shit'
p2562
aS'dressing pauley'
p2563
aS'help band debt please'
p2564
aS'wants impress sweet stash'
p2565
aS'special thanks cory letting stretch legs long rides 1010 great'
p2566
aS'digby chicken caesar beautiful kitty happy'
p2567
aS'newest edition kitty family name digby chicken caesar'
p2568
aS'youre lucky girlfriends family decided take otherwise would shelter'
p2569
aS'whoever left beautiful porch vacation horrible leaving small bowl food water'
p2570
aS'finally home myrtle miss already blast grandparents'
p2571
aS'assist driving hours hours goodnight twibber'
p2572
aS'leave tomorrow'
p2573
aS'skyscraper even better night meet cool chick pennsylvania thrill seeker'
p2574
aS'rode skyscraper today riding minutes thing'
p2575
aS'joes crab shack lunch dragonfirecool mini golf shopping yamato dinner love beach'
p2576
aS'toadal'
p2577
aS'beach ihop date'
p2578
aS'caught slippin'
p2579
aS'happy birthday homes'
p2580
aS'myrtle beach chill'
p2581
aS'twee cabbabe green ignore want cock roach crawl mouth sleeping'
p2582
aS'paprika garlic salt seasoning salt chili powder chicken good'
p2583
aS'sweet mean cool whatever might come somethin'
p2584
aS'well shit dress mannequins like partygoers pretend'
p2585
aS'sweet'
p2586
aS'tell cabbagbe gone wearing leather jacket'
p2587
aS'latest sneak peek kingdom hearts'
p2588
aS'hours leave myrtle hell yeah bitch shit hard hell flocka'
p2589
aS'pikachu appears stage wearing elaborate outfit kind contest hall omegaruby alphasapphire'
p2590
aS'dont even know anymore friendly everyone meet fuck right'
p2591
aS'lame people dont want anything someone else unless benefits somehow friendship obviously means nothing'
p2592
aS'exactly energy consumption'
p2593
aS'hahaha feel microwave something still cold parts pretend'
p2594
aS'microwave freezer'
p2595
aS'dude tricky fishs monster burrito chicken fucking good'
p2596
aS'heres clean joke kids robot frog best funny robot voice'
p2597
aS'army important army battle really scared seriously'
p2598
aS'clean joke families turtle goes market food shops turns theres another turtle'
p2599
aS'tell sons dads shot officer officer shot jesus'
p2600
aS'best evening tricky fish jump street love much happy birthday'
p2601
asS'2014_28'
p2602
(lp2603
S'birthday havent moved much today good'
p2604
aS'watched seasons adventure time like days'
p2605
aS'sure people theyll keep around toss chipotle business'
p2606
aS'tbell many people theyre amazing'
p2607
aS'still havent tried good'
p2608
ag8
aS'today cutie birthday shes super cute happy birthday'
p2609
aS'weddingselfie'
p2610
aS'ridiculous reception right people dancing chris brown chicken dance cant'
p2611
aS'damn chicken strips'
p2612
aS'anyone tricky fish thats going tomorrow looks good'
p2613
ag8
aS'theres gonna hits hitting second instance hitting'
p2614
aS'know devastating situations going many countries retweeting gore could trigger people nothing help'
p2615
aS'jake drive hard burger'
p2616
aS'danish term feces also term urban culture meaning anyone else'
p2617
aS'instead throwing rice people wedding maybe could throw cabbabes dont know'
p2618
aS'cant wait order godfathers pizza chill beach'
p2619
aS'dont actually brain multitude reasons among retarded thing\xe2\x80\xa6'
p2620
aS'kyogre thats even need'
p2621
aS'honestly probably favorite generation cant wait'
p2622
aS'steven stone favorite champions mega metagross looks badass'
p2623
aS'yooooooooooooooo'
p2624
aS'decided rewatch episodes season adventure time already seen catch'
p2625
aS'said baby thot'
p2626
aS'well leaving myrtle monday night still excited even'
p2627
aS'anytime pals'
p2628
ag8
aS'tweet wanting lootcrate subscription early bday gift excited'
p2629
aS'question chance'
p2630
aS'lets fuckin lunch something'
p2631
aS'really want lootcrate subscription poor'
p2632
aS'bring'
p2633
aS'twin peaks'
p2634
aS'fuccboi'
p2635
aS'thats murphys'
p2636
aS'youre first home super chill squad'
p2637
aS'hope andy parsons apparently hasnt heard since'
p2638
aS'succumbed even though succame sounds better'
p2639
aS'joffrey fucking dickhead'
p2640
aS'mean'
p2641
aS'piece karakurijou mecha kyohei pisses choppers voice actor maternity leave voice sucks'
p2642
aS'charlestonbig chimney come leave beach either sunday monday though'
p2643
aS'secret base filled dolls'
p2644
aS'brabley lebb labrey bregg'
p2645
aS'youre welcome love'
p2646
aS'brabley lebb'
p2647
aS'shut brabb'
p2648
aS'anyone huntington interesting proposition'
p2649
aS'pacific trim humans build giant robot suits fight monsters order attain slimmer figure'
p2650
aS'today weird'
p2651
aS'aaaaand soon tweet pull course'
p2652
aS'almost midnight idea grandparents weird'
p2653
aS'fantastic dinner mias tonight miso kimchi shrimp white rice seaweed cucumber salad homemade kimchi toasted seaweed fuuuuck'
p2654
aS'might joke already imagine someones work email haha'
p2655
aS'share birthday monkey dragon cool'
p2656
aS'people dont even like much thats fine'
p2657
aS'stomach killing past couple days'
p2658
aS'father taking justin bieber wanna dequan chief keef'
p2659
aS'guess found steve thats right molly trapping streets dequan'
p2660
aS'heres dingus joke green blue tail give grass dummy jroshing'
p2661
aS'careful becoming brink disney channel original movie roller blading'
p2662
aS'cool kids killer mike school busta rhymes faves'
p2663
asS'2014_21'
p2664
(lp2665
S'pool officially open holla'
p2666
aS'happy birthday young homie hope good'
p2667
aS'bbbbbbennie jetssssssss'
p2668
aS'also'
p2669
aS'outkast'
p2670
aS'able spend last saturdays theyve best saturdays life'
p2671
aS'havent heard hands together check bestonly standup podcast ever'
p2672
aS'tell dont budget bully lgbt youth antigay chaplains sign'
p2673
aS'really excited swimsuit weather raggedy gray mossimo tank navy jeans years'
p2674
aS'makes look like racist douchebag also hasnt relevant since early'
p2675
aS'dont japanese godzilla impressions theyre saying gojira portmanteau gorira gorilla kujira whale'
p2676
aS'reggie bush like reggie kush haha follow stone jokes'
p2677
aS'quiet vase rather loud pots haha follow stone jokes'
p2678
aS'soap suds rather dope buds haha follow stone jokes'
p2679
aS'light rather light haha follow stone jokes'
p2680
aS'blood moon rather moon haha follow stone jokes'
p2681
aS'vitamin string quartet tribute tools lateralus'
p2682
aS'xmen wolverine oranges'
p2683
aS'applied teavana really want work'
p2684
aS'like minutes'
p2685
aS'meeting starbucks going chickfila'
p2686
aS'understandable'
p2687
aS'wish wasnt sick'
p2688
aS'roodhats roodboi'
p2689
aS'coming transit meet food court'
p2690
aS'well meet join'
p2691
aS'meet mall figure something'
p2692
aS'anybody seen star trak movie good'
p2693
aS'thoroughly enjoy pizza'
p2694
aS'timey boxing stance listen jokes real long real short'
p2695
aS'adore cory ways hard imagine'
p2696
aS'bragging anything tired taking peoples shit'
p2697
aS'smacked somebody today said shaving makes look like fatass smack disrespectful thing thought'
p2698
aS'picking activities someone else thing'
p2699
aS'transit class wanna something town'
p2700
ag8
aS'want make burger sweet spicy chili doritos'
p2701
ag8
aS'stay tuned commercials robin thicke going sing heartfelt song rape'
p2702
asS'2014_20'
p2703
(lp2704
S'streets boston flooded molasses cant make shit'
p2705
aS'join pledge never visit seaworld marine parks boycottseaworld'
p2706
aS'bragg always invited everywhere presence good time'
p2707
aS'mistaken back charleston'
p2708
aS'yaaaaaas'
p2709
aS'hood things always acceptable pretty much lemme know whats convenient involved'
p2710
aS'dont beard anymore grow full beard months'
p2711
aS'goodbye facial hair'
p2712
aS'sure anything today weekdays home around'
p2713
aS'real whole underworld deal awesome soon best needed'
p2714
aS'sure vergo main might better'
p2715
aS'dressrosa making life right favorite characters hated punk hazard'
p2716
aS'tolerate length actually interesting doesnt drag'
p2717
aS'honestly dont remember stopped whole show blur arcs stretched longer'
p2718
aS'true true lost interest early great concept poor execution'
p2719
aS'theyve battle like episodes right'
p2720
aS'definitely sounds amazing last time soaked bolthouse farms mango smoothie like vitamin'
p2721
aS'shower fantastic strange'
p2722
aS'first time eighth though water stared ceiling hours took shower'
p2723
aS'honestly miss shrooms definitely spiritual experience ever'
p2724
aS'swiss chocolates rest life please'
p2725
aS'would pies pints order pepperoni'
p2726
aS'already miss girlfriend wish internet working'
p2727
aS'made really good quesadillas today spicy ranch sauce cheddar saut\xc3\xa9ed tacoseasoned chicken enchilada sauce bacon'
p2728
aS'need part time soon even corps going state want actually money shit'
p2729
aS'internet dont talk tonight tomorrow'
p2730
aS'love spend alone made chicken quesadilla lunch watched ouat took cute'
p2731
aS'also wonderful evening family fazios delicious'
p2732
aS'sister larps thats awesome'
p2733
aS'fazios tonight lovely lady audreys graduation dinner exciting'
p2734
aS'heroes storm gorgeous imagine blizzard characters'
p2735
aS'cant believe harry potter movies skipped weird night blew'
p2736
aS'heck yeah know soon open come chill'
p2737
aS'obviously'
p2738
aS'indeed home summer'
p2739
aS'need come swim pool sometime near future saying'
p2740
aS'lucky gorgeous girlfriend cool friends going back school appreciative everyone life'
p2741
aS'glad tonight future hang time imminent'
p2742
ag8
aS'cool email guess heroes storm technical alpha tester definitely downloading home'
p2743
aS'lt3333'
p2744
aS'truuuuuuu well figure though'
p2745
aS'awwwwww look tall figure large beard hard find people shorter need homes'
p2746
aS'shit home summer'
p2747
aS'going capitals graduation evening gorgeous lady'
p2748
aS'perlman might playing dormammu thats cool'
p2749
aS'eating cold salmon cake midnight snack dont even care'
p2750
aS'pennis strong hours stop eating little blue candies give call dingu\xe2\x80\xa6'
p2751
aS'miss goof need come luke soon super busy school junk'
p2752
aS'dont ever fucking tell dont count'
p2753
aS'someone tells cant part korean dont look like erasing heritage fully fuck'
p2754
ag8
aS'american dream'
p2755
aS'provin drugs stay school'
p2756
ag8
aS'model student life'
p2757
aS'feel like shit want home'
p2758
aS'need dress shoes ones since high school'
p2759
aS'think main thing miss apartment ability naked wheneverwherever want'
p2760
aS'tony stark bruce banner always favorite'
p2761
aS'read'
p2762
aS'need info pokemon'
p2763
aS'police must hella regulations matter including beating murdering always according'
p2764
aS'believe'
p2765
aS'knew baby moose cute'
p2766
aS'comment solanges insta ended whole life'
p2767
aS'people annoying fuck'
p2768
asS'2014_23'
p2769
(lp2770
S'ever think calling youve always'
p2771
aS'sure wish would wake talk'
p2772
aS'still funny'
p2773
aS'libras hate people extra smooth story fuel fire thats theyre always'
p2774
aS'fuck'
p2775
aS'internship amazing experience gained wonderful connectionsrelationships grateful'
p2776
aS'fuck'
p2777
aS'5sos like amirite'
p2778
aS'austin mahone like boston beanery amirite'
p2779
aS'several chuckles think might'
p2780
aS'everyone lump deal nerds'
p2781
aS'ringo bathing'
p2782
aS'really good together happy'
p2783
aS'porn busty blonde watches hours everybody loves raymond'
p2784
aS'inbetween beard phase worst phase'
p2785
aS'share share share sake permanent ages venue charleston share'
p2786
aS'sexii'
p2787
aS'haha'
p2788
aS'juss hangin'
p2789
aS'ghosts'
p2790
aS'whats number satan many state america wake liberals democraps'
p2791
aS'believe homie find spoon'
p2792
aS'together touch'
p2793
asS'2014_22'
p2794
(lp2795
S'band rilly model also scene haha moshhhhhh'
p2796
aS'calling someone bnanana ultimate compliment bananas healthy beautiful filled love'
p2797
aS'hahahaha'
p2798
aS'tanuki someone chopper'
p2799
aS'weve done winners'
p2800
aS'mean obvious'
p2801
ag8
aS'deal soprano bastard'
p2802
aS'like soon turned around guys outside talk timing'
p2803
aS'fact legal country state blaze 42000 42059 dont google trust'
p2804
aS'literally went past'
p2805
aS'transit smells like eggs fried food'
p2806
aS'maya angelou great author even greater human left'
p2807
aS'mall people someone assist getting evening give cheek smooch something'
p2808
aS'feel like youd give intangible tangibility pretty cool'
p2809
aS'make theyre easy customize pepper jack pepperoni rolls'
p2810
aS'appalachia finest'
p2811
aS'forgot text back watching magic trick video even howto someone cool tricks'
p2812
aS'girlfriend makes really good chocolate chip cookies'
p2813
aS'luffys conqueror haki gotten strong holy shit'
p2814
aS'passive regular passive already exists'
p2815
aS'media going really cool excited passive'
p2816
aS'people tell life story public transit type people stay away'
p2817
aS'tell macaulay culken looks like sawyer lost baby'
p2818
aS'cool'
p2819
aS'friday come swim friend'
p2820
aS'oooooooo killem'
p2821
aS'shud monster logo'
p2822
aS'turn lettuce'
p2823
aS'cant even sleep fucking hurts cool'
p2824
aS'still busta rhymes verse look parties'
p2825
aS'fucking shady shit'
p2826
aS'ciao sicily'
p2827
aS'solar roadways earned goal happy could really cool really hope first'
p2828
aS'butthole tats nothing'
p2829
aS'ringo super great leash training take show public'
p2830
asS'2014_25'
p2831
(lp2832
S'cant wait myrtle beach cutie wonderful grandparents'
p2833
aS'titshow'
p2834
aS'probably never'
p2835
aS'would khaleesi rule'
p2836
aS'swim word'
p2837
aS'truuuuuuuuu needs happen'
p2838
aS'hang though thats cool'
p2839
aS'never hang anyone sucks'
p2840
aS'sorry flex zone'
p2841
aS'really like anything salted caramel'
p2842
aS'cant wait live make baked goods listen records bunch white people shit'
p2843
aS'want pangolin'
p2844
aS'circumstances allowed would know exactly much hate sake others keep check'
p2845
aS'mean always feeling'
p2846
aS'like youre black chick'
p2847
aS'horizon good'
p2848
aS'silk road awesome stuff cookies look point'
p2849
aS'love every breath truly madly deeply'
p2850
aS'knoooooow better'
p2851
aS'flex zone flex zone'
p2852
aS'youaintfromcharleston dont remember'
p2853
aS'feel like machine something might tweeted like 2002'
p2854
aS'videophoooooone'
p2855
ag8
aS'fish ocean looks inner peace pixars finding nirvana'
p2856
aS'spoiler alert'
p2857
aS'hope youre good'
p2858
aS'happy birthday homie'
p2859
aS'real love farts funny faces food'
p2860
aS'like huntington would call zbrick like fucking make'
p2861
aS'want call pizza place serves bacon cheese fries medium cheese pizza'
p2862
asS'2014_24'
p2863
(lp2864
S'idek'
p2865
ag8
aS'decided jump wagon start watching game thrones wish luck'
p2866
aS'strange case rudolf fenz'
p2867
aS'never never never gonna wipe butt'
p2868
aS'someone smoking dank transit'
p2869
aS'homie really weedeating middle grass weeds untrill'
p2870
aS'perfect combo'
p2871
aS'least porterfield dance moves shes killer dance floor'
p2872
aS'hahahahahahaha'
p2873
aS'favorite tweet year'
p2874
aS'sister asked dance powercouple'
p2875
aS'shit look white wesley snipes'
p2876
aS'world shit timeline dont care baseball'
p2877
aS'yung homie really eatin fried chicken brown paper'
p2878
aS'officially done corps good stuff certified word powerpoint excel'
p2879
aS'eyes'
p2880
aS'right lemme know think'
p2881
aS'unique welldeveloped completely solid anime episodes havent seen filler'
p2882
aS'ability anywhere world expenses paid follow dreams research stuff abilities'
p2883
aS'definitely basically whole first exam main characters become hunters gives'
p2884
aS'really cool chimera dark'
p2885
aS'youll love learn fight aura later series everyone different manifestations'
p2886
aS'yeah seems like might check watched honestly favorites'
p2887
aS'hell yeah need find another anime caught fairy tail piece constantly waiting'
p2888
aS'must watch episodes nerds'
p2889
aS'thats frustrating'
p2890
aS'look filler episodes know skip'
p2891
aS'tough'
p2892
aS'wonder theyre asking regular razere3'
p2893
aS'crew looks like fantastic game'
p2894
aS'least need list breeds ride mind ease'
p2895
aS'also need update barbie horse adventures reboot'
p2896
aS'nintendo decent info year seriously cooking mama'
p2897
aS'nintendo didnt even announce nintendogs titles'
p2898
aS'black castle crasher fighting game bullseye'
p2899
aS'would play shit'
p2900
aS'katamari wasnt xbox doesnt matter'
p2901
aS'halo katamari thats need'
p2902
aS'fight baby'
p2903
aS'haha shell totally hope guys blast'
p2904
aS'whats theme'
p2905
aS'make sure good time sure though shes energetic'
p2906
aS'apparently beatles lied strawberry fields limited time'
p2907
asS'2014_27'
p2908
(lp2909
S'blood makes people crybut love makes people good christopher izzo'
p2910
aS'fuck'
p2911
aS'stressedanxious stomach hurts'
p2912
aS'dont even care sroccer cups jrumbo pack cups cupboard store'
p2913
aS'many friends today cool'
p2914
aS'farted cant smell fireworks'
p2915
aS'time fireworks start levee'
p2916
aS'chinese fireworks levee ready evening'
p2917
aS'happy birthday'
p2918
aS'butt'
p2919
aS'forgot legit outlaw star'
p2920
aS'cares dingus drogs'
p2921
aS'happy birthday jesus'
p2922
aS'need holiday celebrate smith killing bunch aliens saving world every'
p2923
aS'dont anything'
p2924
aS'still jenny block'
p2925
aS'dirty corndogs despairflavoured rock candy funnel cake sounds like good time'
p2926
aS'come oooooon ripley carnies give free rock candy rock candy isnt meth'
p2927
aS'game thrones wittiest script'
p2928
aS'think dipping wick cure theres cure cunt'
p2929
aS'tshirts covered nipple blood'
p2930
aS'kenny'
p2931
aS'titties free'
p2932
aS'film kind glad admiral anymore chill'
p2933
aS'hated fishman punk hazard uninteresting dressrosa awesome especially tournament'
p2934
aS'theyre world takes place fishman island punk hazard arcs'
p2935
aS'piece film good'
p2936
aS'first things first shes realest'
p2937
aS'episode dougs doug isnt feminists thinks people equal'
p2938
aS'fucking tweet wish damn cream'
p2939
aS'iiiiiii scream icecream'
p2940
aS'wish fucking cream'
p2941
aS'hmmm cream would soooo good right'
p2942
aS'wish damn cream'
p2943
aS'sometimes dont feel good sucks'
p2944
aS'need catch adventure time missed much'
p2945
aS'make feel like pizza supper'
p2946
aS'gorillaz fucking great'
p2947
aS'killem'
p2948
asS'2014_26'
p2949
(lp2950
S'cant hear perlman talk without hearing hellboy'
p2951
aS'cant wait walk boardwalk weeks'
p2952
aS'girls love childish gambino like donald glovers stand girl fuck'
p2953
aS'mambo bega singing casino waitress brushed'
p2954
ag8
aS'google search befriend crows'
p2955
aS'swear corps turned black'
p2956
ag8
aS'trying hussons gormet chicken pizzas hope good'
p2957
aS'glad chimera cool wayyyyy lengthy'
p2958
aS'mean discount fries also free sweet instead sweet save whole'
p2959
aS'mean discount mcchickens'
p2960
aS'khal drogo fucking dude'
p2961
aS'guys ever seen roberts hamburgers great show haha'
p2962
aS'hang cool course need celebrate done cjcc'
p2963
aS'weekend'
p2964
aS'anything john green knows audience white girls also white girls'
p2965
aS'never want listen girls'
p2966
aS'official last corps tomorrow need hang asap'
p2967
aS'miss'
p2968
aS'dads look'
p2969
aS'next time oneup pull menu phone'
p2970
aS'dads apparently'
p2971
aS'grandmas think youve memorized every fast food menu pull want'
p2972
aS'omfg'
p2973
aS'dragon fire cannot kill dragon'
p2974
as.