(dp0
S'2013_5'
p1
(lp2
S'tonights finale full moon rising near'
p3
asS'2013_47'
p4
(lp5
S'forget five second rule pick food floor peril'
p6
aS'looks like follow apple samsung damages retrial court happenings mercury news'
p7
asS'2013_34'
p8
(lp9
S'closure shows wrong program'
p10
asS'2012_23'
p11
(lp12
S'judge alsup pretty impressive ruling java apis oraclegoogle android battle'
p13
aS'updated oracle comment promising vigorously appeal judge frees googles android oracle copyrights'
p14
aS'judge frees googles android oracle copyrights'
p15
asS'2012_22'
p16
(lp17
S'isnt ruling specific java apis uncopyrightable ruling apis uncopyrightable'
p18
aS'judge made appeal\xe2\x80\x99s success unlikely applying narrow definitions facts can\xe2\x80\x99t disputed appeal'
p19
aS'judge clears google java copyright infringement oraclevgoogle'
p20
aS'google wins crucial ruling oracle\xe2\x80\x99s case decimated oraclevgoogle'
p21
aS'heres judge alsups magnum opus apis copyright written understand including appeals court'
p22
aS'awww poor larry ellison google wins crucial ruling oracle\xe2\x80\x99s case decimated technica'
p23
aS'early story judges muchanticipated ruling apis oracle google'
p24
aS'oracles hopes damages google decimated least near term'
p25
aS'aside nine lines code million looks like google walk away round unscathed'
p26
aS'google wins crucial ruling oracles case decimated'
p27
aS'judge alsup dismissed oracles claims copyright java apis story come'
p28
aS'whats oracles next move judge alsup ruled java apis copyrightable appeal submit'
p29
aS'judge hands another google rules apis copyrightable'
p30
aS'alsup order hold structure sequence organization computer programs stolen'
p31
aS'judge alsup oracle\xe2\x80\x99s claim based google\xe2\x80\x99s copying packages including structure sequence organizatio'
p32
aS'handing pretty google without setting broad ruling whole industry'
p33
aS'judge alsup rejects oracle contention java apis copyrighted'
p34
aS'judge alsup structure sequence organization apis copyrightable'
p35
aS'judge says saying apis free without license oracles claim apis dismissed'
p36
aS'judge makes narrow ruling apis oracle google result saying theres copyright violation'
p37
aS'much anticipated ruling oracle google judge sides google packages'
p38
aS'larry ellison seeing oraclevgoogle rosecolored glasses atd10'
p39
aS'theres oracle disclosure blog posts concern oracle'
p40
aS'alsup jury could found oracle experts many \xe2\x80\x9cmistakes\xe2\x80\x9d merely convenient alterations truthful'
p41
aS'alsup jury could reasonably rejected every word oracle experts testimony google'
p42
aS'judge alsup denied oracle attempt patents google exactly shocker verdict'
p43
asS'2012_21'
p44
(lp45
S'jury rues oracle patent suit android'
p46
aS'oracle google juror steak parsley'
p47
aS'adobe creative suite linux'
p48
aS'microsoft demands google take links remain bing techdirt'
p49
aS'wear lilac remember glorious25thofmay'
p50
aS'morning woke hour usually plant torturous pews googacle courtroom'
p51
aS'jurors thought dreamy still category scary litigator'
p52
aS'even babyfaced strawberry blond ones'
p53
aS'going newsroom district court sunny morning already miss googacle crowd even scary litiga'
p54
aS'well written article wbad news oracle jury never close ruling oracle'
p55
aS'poor craig'
p56
aS'java creator unhappy oracle trial outcome gosling feels abused googles actions'
p57
aS'google kicks oracle patent teeth short google wins oracle losses'
p58
aS'oracle google jury really understand otoh still made right call'
p59
aS'oracle google jury really understand'
p60
aS'handwritten jury notes oracle google thanks groklaw wonder'
p61
aS'view watched least part case'
p62
aS'oracle android published'
p63
aS'another images published image android attacked oracle update'
p64
aS'mini monitors whdmi keyboard mouse swap'
p65
aS'thanks ginny enjoyed coverage'
p66
aS'final writethru oraclegoogle comments google kent walker'
p67
aS'best part hightech trials witnesses tweet schwartz nerd witness'
p68
aS'alsups handle justiceguy2012 robedcoder'
p69
aS'purcell focused guys charge'
p70
aS'invite honor'
p71
aS'oracle google verdict jury foreman reveals details deliberations free'
p72
aS'jurors sided google apis fair oraclevgoogle googacle'
p73
aS'start keep going'
p74
aS'foreman oracle wasnt even close patent phase'
p75
aS'odds sued google stupid tshirt shirts available'
p76
aS'make east'
p77
aS'pleasure trial really brought commandtabing skills heights'
p78
aS'thank tireless typing good humor best telenovela'
p79
aS'google kicks oracle patent teeth short google wins oracle loses'
p80
aS'piece goracle patent verdict'
p81
aS'want read oracle google verdict page lots info links many articles'
p82
aS'oracle google oracle lost patents stalled copyright whats next'
p83
aS'anyone know alsups handle invite'
p84
aS'photography courthouse werent banned strict oder'
p85
aS''
p86
ag86
aS'handwritten questionsnotes jury passed judge oracle google oracle'
p87
aS'oracle google jury foreman reveals oracle wasn\xe2\x80\x99t even close technica'
p88
aS'going share picture young lawyer lady jurors liked keker nest taken'
p89
aS'update story googles android infringe oracle patents jury finds'
p90
aS'google kicks oracle patent teeth short google wins oracle losses'
p91
aS'interesting interview jury foreman oracle google trial'
p92
aS'thank googacle jury foreman taking question reveals went deliberations check'
p93
aS'google kicks oracle patent teeth short google wins oracle losses'
p94
aS'jury foreman oraclevgoogle reveals oracle wasnt even close winning'
p95
aS'jury deals blow oracle case google latest writethru jury foreman comments'
p96
aS'analyzing attys foreman thompson didnt come perry mason moments couple jurors though'
p97
aS'heres jurys verdict form patents oracle google'
p98
aS'foreman thompson jurors focused evidence android java creative transformation'
p99
aS'foreman thompson oracle holdouts copyright fair said tone jury room civil'
p100
aS'oraclegoogle jury foreman thompson said info thrown realized didnt apply'
p101
aS'google infringe oracle patents jury'
p102
aS'jury foreman spoke reporters leaving court copyright phase split googles favor story coming soon'
p103
aS'google wins oraclevgoogle patent case setback oracle story'
p104
aS'googles android infringe oracle patents jury finds'
p105
aS'jury says googles android infringe java patents'
p106
aS'jury says google\xe2\x80\x99s android infringe java patents'
p107
aS'juror said opinion tech savvy jurors less likely limits openness'
p108
aS'foreman holdout oracle patents even oracle wins appeal trial strategy needs revamping'
p109
aS'interviewed juror said jury split google copyright fair'
p110
aS'post jury clears google infringing oracle patents'
p111
aS'oracle fess much wasted trial'
p112
aS'oracle google judge longest civil trial ever part'
p113
aS'wonder oracles team tell much money oracle wasted google trial'
p114
aS'stalking jury hallway oracle trial team awkward theyre reading right'
p115
aS'safe oracles quest damages indefinite hold disaster'
p116
aS'stalk jury googacle'
p117
aS'long faces oracle trial team google folks smiling course'
p118
aS'jury verdict android doesnt infringe oracles patents'
p119
aS'longest civil trial ever judge alsup served years bench'
p120
aS'youre going anything accurate judge jury press goodcall'
p121
aS'google verdict victory google entire android ecosystem'
p122
aS'whoa whoa whoa alsup telling jurors dont talk press come judge weve month'
p123
aS'jury finds infringement oracle patents google'
p124
aS'jury verdict oracle google patent phase found infringement patents'
p125
aS'jury discharged must beyond ecstatic'
p126
aS'googacle trial judge alsup dismissing jury since oracle virtually nothing damages phase'
p127
aS'need decide whether dismiss jury anticlimactic damages phase'
p128
aS'oracle lead counsel mike jacobs gives best attempt smile google lead nest lawyers sidebar'
p129
aS'google hook patent infringement oracle walking away infringement lines java code'
p130
aS'breaking complete google patent infringement claims oracle infringement'
p131
aS'infringement patent'
p132
aS'infringement patent'
p133
aS'taxi courthouse time oracle google patent verdict dont think'
p134
aS'background patents suit verdict questions infringement questions wilfulness'
p135
aS'jury verdict oraclegoogle patent phase'
p136
aS'breaking verdict oracle google patent infringement claims'
p137
aS'oraclevgoogle jury reached verdict read shortly'
p138
aS'reporting schedule'
p139
aS'jury coming guidance static initialization array googacle'
p140
aS'back oraclevgoogle courtroom jury week theyve either verdict start 5day'
p141
aS'googacle rhymes debacle right'
p142
aS'words tossed around simulated execution static initialization googacle'
p143
aS'oracle counsel tells judge sides dont understand jury question solution would read claim language'
p144
aS'back court hashing answer jury question problem isno understands actual question least'
p145
aS'oracle google attys joint view latest jury question dont understand legal question theyre asking'
p146
aS'unbelievable interesting boies tries distance thing thanks'
p147
aS'never able reach decission stuff'
p148
aS'legal teams trying work joint answer music alsups ears'
p149
aS'jury question patent long tweet oracles jacobs says dont understand question'
p150
aS'jury note folks whats deal need tweets'
p151
aS'jury note googacle google nest back oracle usual suspects minus david boies'
p152
aS'update googacle news jury deliberating notes morning young'
p153
aS'lotr bluray bluray longer'
p154
aS'fair warning counsel cases alsups calendar honor fire fraudster'
p155
aS'back judge alsups court time securities litigation apologies techie googacle followers'
p156
aS'supporter last dodgy even played good gamecongrats'
p157
aS'youre awake early enough today excited last week oraclevgoogle gooracle'
p158
aS'jury knew little patent damages play would hung days'
p159
aS'jury flummoxed googleoracle patent fight'
p160
aS'breaking news minutes jury breaks proper lunch googacle'
p161
aS'jurors deliberate another mins today googacle'
p162
aS'hearing judge alsup laid sides yesterday obfuscation clearly done trial gettin'
p163
aS'whatever trip honor taking include light reading interfaces exceptions interoperability'
p164
aS'judge tells jury long weekend plans family reasons googacle'
p165
aS'well encourages jury horse verdict isnt looming long weekend'
p166
aS'alsup wants googacle vacation asks 5day wknd jury done maybe going famous'
p167
aS'jury doesnt reach verdict tomorrow judge decides sides agree deliberations wont resume tuesd'
p168
aS'judge demanded conference lawyers clearly pissed verdict taking long'
p169
aS'judge wants googacle lawyers back court conference mount'
p170
aS'judge back encouraging counsel give minute arguments jury help splain things oracle says google'
p171
aS'judge explains given location cant numeric symbolic reference'
p172
aS'judge says forced figure onmaown since lawyers cant agree anything calls jury'
p173
aS'back court jury question alsup clearly annoyed dragging calls lawyers zero help reaching offi'
p174
aS'jacobs says sounds like jury turning patent drafters claim construction'
p175
aS'oracle existence numeric doesnt preclude symbolic google cant numeric symbolic'
p176
aS'find reference identifies data numeric memory location existence preclude existence'
p177
aS'second question symbolic reference numeric referencegoogacle'
p178
aS'sweet awaiting dispatches could throw towel jury note'
p179
aS'made'
p180
ag86
aS'first today scope symbolic references judge sided oracle dont explain'
p181
aS'first answered'
p182
aS'another note heading back judge alsups court googacle'
p183
aS'play korean interpreters translating legalese back forth thought'
p184
aS'googacle jurors dealing super technical info least trial wasnt korean like antitrust'
p185
aS'happen hope better soon'
p186
aS'jury question symbolic references indication verdict patent phase alsup seemed litt'
p187
aS'back five days camping desert perfect view solar eclipse federal courtroom nott'
p188
aS'liked better assumed boies lattes talking bordeaux counting money'
p189
aS'alsup notices nest missing chicago youngin partner reports tell along fine without'
p190
aS'technical stuff scope symbolic references'
p191
aS'oracle counsel mike jacobs google counsel kamber'
p192
aS'people following case could guessed'
p193
aS'jury note purpose patent claims cover symbolic resolution anywhere data fields googacle'
p194
aS'back courtroom floor judge alsup presiding boies vannest maybe theyre sightglass'
p195
aS'time first jury note googacle'
p196
aS'jury still googacle secret casting movie almost thnks press corps'
p197
aS'great break'
p198
aS'actually rachel gets across benches days presume'
p199
aS'take went home'
p200
aS'feeling jurors dont want back work maybe theyre blast ther'
p201
aS'isnt times want pick jury shake every trial ever covered reach'
p202
aS'colleagues court googacle judge alsup used hword hung jury could happen stay tuned'
p203
aS'post oracle google jury still stuck understanding patent claims'
p204
aS'said word loud'
p205
aS'actually astounded oraclegoog jury hasnt said hung rather keep asking highly tech'
p206
aS'several questions googacle jury today patent issues reporter pals heading back alsups court'
p207
aS'oracle google jury still stuck understanding patent claims'
p208
aS'stuck head back oracle google plowing jury questions week patent delibs everyone'
p209
aS'oracle google become deal foss movement groklaw excellent commentary'
p210
aS'courthouse bursting mofo lawyers today googacle verdict watch apple samsung settlemen'
p211
aS'question consider terence parrs evidence'
p212
aS'away court today oracle google sure verdict'
p213
aS'theyll miss'
p214
aS'water intoxication drinking much water also causes death'
p215
asS'2012_20'
p216
(lp217
S'evidence oracle misrepresented suns intention fully software patents google'
p218
aS'says jupiter higher gravity'
p219
aS'anything better lunch ferry building sunny'
p220
aS'shouldnt tweeting awesome'
p221
aS'sounds like lots interesting laywers appointed state bench today check soon'
p222
aS'juror note want know vote jury must unanimous alsup wants respond'
p223
aS'post oracle google loses another juror patent verdict looks distant'
p224
aS'amendment right talk press discharged rare exceptions'
p225
aS'zdnet oracle google loses another juror patent verdict looks distant'
p226
aS'oracle google loses another juror patent verdict looks distant'
p227
aS'jurors ending verdict today doesnt seem likely goracle patents'
p228
aS'testimony read back alsup explains congress mandated unanimous jury verdicts federal court years'
p229
aS'oraclevgoogle wondering jury need unanimous really norm'
p230
aS'oraclevgoogle wondering jury need unanimous really norm civil trials'
p231
aS'jury returned break reread parrs testimony simulated execution second reread'
p232
aS'team googles attorneys rocking cyan lumia sayin'
p233
aS'sides could elect accept majority verdict instead decline'
p234
aS'juror asks jurys decision must unanimous given partial verdict copyright phase promising'
p235
aS'jury question everybody scramble goracle'
p236
aS'jury allowed ever speak press arent always kind'
p237
aS'boring'
p238
aS'jury dismissed swarm'
p239
aS'dont yall wonder either dismissed jurors progoogle holdouts phase'
p240
aS'googacle jury shrunk members lady called sick today delibs continue says'
p241
aS'really liked twisty book owen'
p242
aS'juror sick yesterday called last night couldnt make shell discharged well move forward'
p243
aS'back courtroom oracle google agreed testimony read jury start'
p244
aS'ruling many cases covered sure'
p245
aS'oracle google jury stumbling tech terminology illness'
p246
aS'trial approaching bridge river kwai juror note sick sick'
p247
aS'heres civil calendar thats getting interrupted'
p248
aS'googacle jury sure isnt posing questions court another note'
p249
aS'kind crack lawyer courtroom doesnt recognize nest boies'
p250
aS'reports another jury question googacle interrupts alsups normal calendar'
p251
aS'staying'
p252
aS'making much judge alsup saying code oracle google doesnt mean understands economic pers'
p253
aS'resume jury question'
p254
aS'still word jury today oracle google scheduled lunch break upon jury resumes minutes'
p255
aS'feel better foss removed clearly doesnt represent foss intrests'
p256
aS'arnt inspired android phone look people court room could write'
p257
aS'awwwww want also'
p258
aS'many fundies believe cannot behave morally wout regulations imposed think businesses need regulation'
p259
aS'copyright damages story four options ahead oraclevgoogle'
p260
aS'keep letting nice computer programmers sucky writing java code thingies youll school'
p261
aS'judges coding skills news orcl sees basic copied function aint'
p262
aS'oracle google agree copyright truce'
p263
aS'playing odds called'
p264
as.