(dp0
S'2013_42'
p1
(lp2
S'beauty mate yeeesssssssss champion'
p3
asS'2013_43'
p4
(lp5
S'superb mate well done well chuffed fantastic'
p6
asS'2012_49'
p7
(lp8
S'clubbing right hand marquez'
p9
aS'fight marquez warrior'
p10
aS'best tour school mate'
p11
aS'livery 2013 like'
p12
aS'check great download'
p13
asS'2012_48'
p14
(lp15
S'watching episode idiot abroad funny would giving karl pilkington pillion ride around'
p16
asS'2011_51'
p17
(lp18
S'looking forward clean sweep stroll'
p19
aS'disappointed todays verdict time needs full support lets'
p20
aS'stroll 2012 year pish'
p21
asS'2011_50'
p22
(lp23
S'mikey best luck'
p24
aS'best thailand'
p25
asS'2009_23'
p26
(lp27
S'next manager'
p28
asS'2012_44'
p29
(lp30
S'internet troon struggled connection since last night'
p31
asS'2012_47'
p32
(lp33
S'2011 first nw200 glad going next year support fellow scot please mate'
p34
aS'looking forward seeing ride wheels bike nw200 great please'
p35
asS'2012_43'
p36
(lp37
S'shocking decision liverpool robbed whats lineman thinking techneeded'
p38
asS'2012_42'
p39
(lp40
S''
p41
aS'edinburgh playhouse watching phantom opera'
p42
asS'2011_47'
p43
(lp44
S'bored fcuking tree'
p45
asS'2012_6'
p46
(lp47
S'cant pestered working'
p48
aS'mate'
p49
aS'sorrynemma'
p50
aS'soooo please retweet help little girl thanks eugene'
p51
ag41
aS'please followers help little girl thanks'
p52
aS'cmon guys give little please retweet help little girl'
p53
aS'jack chance year fighting cancer'
p54
aS'hiemma help vanessa'
p55
aS'gary please followers vanessas journeyfundraising going well still short'
p56
ag41
aS'chance gsxr'
p57
aS'chance gsxr'
p58
ag41
asS'2012_29'
p59
(lp60
S'hows'
p61
aS'good morning'
p62
asS'2012_28'
p63
(lp64
S'live troon cant speed connection latest test 143mbps'
p65
asS'2012_27'
p66
(lp67
S'joey thats offer hope take'
p68
asS'2012_26'
p69
(lp70
S'best luck hope wrist better mate'
p71
asS'2012_25'
p72
(lp73
S'well done boys keep going'
p74
aS'best luck today bonnie scotland'
p75
asS'2012_24'
p76
(lp77
S'well flash tommy chance knockhill'
p78
aS'start countdown 2013 iomtt2013'
p79
aS'emma love'
p80
asS'2012_23'
p81
(lp82
S'come mcguiness'
p83
asS'2012_20'
p84
(lp85
S'superb tonight could stopped waved balcony church corner'
p86
aS'thanks signing coltrane today pleasure meet best'
p87
aS'come along emma house metropole'
p88
asS'2013_7'
p89
(lp90
S'nearly highside bike earlier shitmypantslol'
p91
asS'2013_6'
p92
(lp93
S'likely would\xe2\x80\x99ve survived channel planecrash seat find would\xe2\x80\x99ve fared'
p94
aS'absolute legend proper gentleman wait nw200 chance living legend'
p95
asS'2013_1'
p96
(lp97
S'commentators order hand couldnt calling cheat wrong'
p98
aS'seriously anyone thinks hand ball rather ball hand needs sort hatersgonnahate'
p99
asS'2011_42'
p100
(lp101
g41
ag41
asS'2013_3'
p102
(lp103
S'want cash'
p104
aS'would bore tears mate'
p105
aS'bring popcorn tonight'
p106
aS'cheating lifehope cant sleep night shame guilt'
p107
aS'even asleep gets speeding ticket erasing years'
p108
ag41
ag41
asS'2013_2'
p109
(lp110
S'think send twitternovice'
p111
aS'scariest sport ever irish road racing'
p112
aS'martin hopefully challenge michael awesome seems advantage'
p113
aS'first came across 2011 year ryan farquhar spilled track cancelled last year superb'
p114
aS'good theory nw200'
p115
aS'mate recently good decide bike take'
p116
aS'superbus need space couldnt without manhut'
p117
asS'2011_43'
p118
(lp119
S'rest peace marcosimoncelli'
p120
asS'2013_9'
p121
(lp122
S'please conor struggling house rental 2014 would adults 31st nights'
p123
aS'john please looking house rental 2014 adults 31st nights'
p124
aS'looking house rental 2014 31st nights adults struggling'
p125
aS'looking house rental 31st june 2014 isle coming'
p126
asS'2013_8'
p127
(lp128
S'absolute clown tweeting statement'
p129
aS'dont tossers like john nicest people true gentlivinglegend'
p130
aS'tosser talking legend like genuinely angry whatatosser'
p131
asS'2012_8'
p132
(lp133
S'come lets folks'
p134
aS'thats superb another vanessa reach target'
p135
asS'2012_9'
p136
(lp137
S'2436168 points escaping demon monkeys temple beat'
p138
aS'1708392 points escaping demon monkeys temple beat'
p139
asS'2011_24'
p140
(lp141
S'best luck mate'
p142
asS'2011_25'
p143
(lp144
S'kyle nile'
p145
asS'2011_26'
p146
(lp147
S'superb'
p148
asS'2011_28'
p149
(lp150
S'james know happy birthday colin troon thistle please'
p151
aS'morning emma chance putting smile moaning monday face please'
p152
asS'2012_7'
p153
(lp154
S'lovely girls'
p155
aS'today international childhood cancer followers please message iccd vanessariddleappe'
p156
ag41
aS'1838256 points escaping demon monkeys temple beat'
p157
aS'2024610 points escaping demon monkeys temple beat'
p158
aS'alright mate hows things'
p159
asS'2012_1'
p160
(lp161
S'neds train absolute shite chat squeaky voices would burst'
p162
aS'happy year sorry working till counting minutes'
p163
aS'hello kellie hows steven'
p164
asS'2012_2'
p165
(lp166
S'obvious anti rangers'
p167
aS'truly grateful hopefully people close understand illnessafter shake told'
p168
ag41
aS'truly grateful hopefully people close understand illness shake told'
p169
aS'truly grateful hopefully people close understand illness told give shake easy'
p170
aS'totally agree michael diagnosed ptsd depression agree dont want seem weak'
p171
aS'hidden side sport extremely opening hats incredible courage rest'
p172
ag41
aS'please followers help little girl states medical help'
p173
aS'please retweet help little girl states urgently help'
p174
aS'please followers help little girl thanks'
p175
aS'thanks retweet followers also'
p176
aS'liam please followers little girl needs urgent help'
p177
aS'holly please retweet followers little girl needs urgent help'
p178
aS'please followers king kenny help little soul'
p179
aS'please retweet brittney help little girl states treatment'
p180
aS'please george help soul'
p181
aS'please help noel retweet little soul'
p182
aS'please help urgently please mate'
p183
aS'robbie please followers'
p184
aS'joey help mate retweet followers'
p185
aS'please help little girl david'
p186
aS'please retweet help little girl graham'
p187
aS'please followers urgently little girl needs help'
p188
aS'please retweet urgently stuart'
p189
aS'please retweet urgently mate'
p190
aS'please retweet urgently'
p191
aS'please retweet followers holly'
p192
aS'please retweet urgently fenners'
p193
aS'please help urgently'
p194
aS'please retweet help urgently'
p195
aS'please retweet help urgently'
p196
aS'please retweet kris help urgently'
p197
aS'michael retweet mate'
p198
aS'please please retweet help urgently'
p199
aS'please retweet jonathan help little girl'
p200
aS'please retweet help little girl'
p201
aS'please retweet gino help please'
p202
aS'please retweet help little girl thanks gary'
p203
aS'conor please retweet help little girl'
p204
aS'please retweet followers please chaz'
p205
aS'please retweet help little girl thanks eugene'
p206
aS'keith please retweet help little girl'
p207
aS'please retweet help little girl ynwa'
p208
aS'steve please retweet help little girl'
p209
aS'please retweet help little girl thanks leon'
p210
aS'please help retweet help little girl'
p211
aS'please retweet little girl needs urgent help'
p212
aS'please retweet followers help little girl urgently'
p213
aS'please retweet followers emma'
p214
aS'please retweet followers please michael'
p215
aS'jack please please retweet followers'
p216
aS'please retweet followers please rory'
p217
aS'please retweet followers keith'
p218
aS'please help retweet please floyd'
p219
aS'please retweet followers help please'
p220
aS'please retweet followers tommy'
p221
aS'please help retweet please robbie'
p222
aS'please help retweeting stoksey'
p223
aS'please please help retweet help'
p224
aS'shane please retweet followers please help little girl'
p225
aS'please please help retweeting followers'
p226
aS'please help retweet followers alastair'
p227
aS'please help retweet followers please carl'
p228
aS'please followers read please cesc'
p229
aS'please retweet everyone help little soul'
p230
asS'2011_27'
p231
(lp232
S'chance taken years knee'
p233
asS'2011_44'
p234
(lp235
S'agree nuts'
p236
aS'cool mate might jump train cheers anyway'
p237
aS'selling'
p238
aS'alright boss whats happening'
p239
aS'month said turning best mate believe'
p240
aS'life degenerate'
p241
asS'2011_45'
p242
(lp243
S'glad hear'
p244
aS'tonight going ghost hunting mates haunted house year seeing talking things'
p245
aS'torture mate warm climate country'
p246
aS'working drew gaffer'
p247
aS'good mate heading nightshift wonder many bawbags pick pebbles tonight'
p248
aS'alright chief hows things'
p249
asS'2011_46'
p250
(lp251
S'later'
p252
asS'2012_15'
p253
(lp254
S'backing bookies'
p255
aS'thanks gail'
p256
aS'cheers'
p257
aS'cheers mate'
p258
aS'cheers mate'
p259
aS'conor'
p260
aS'emma like rocketship'
p261
aS'converting suzuki well done monday'
p262
asS'2011_40'
p263
(lp264
S'superb ride fingers crossed next race seeley time'
p265
asS'2011_41'
p266
(lp267
S'chance bored head work'
p268
aS'working booo chance help tonight hail hail'
p269
aS'cmon welsh scotland'
p270
aS'cmon welsh scotland'
p271
aS'chance troon biker'
p272
aS'well done title magic'
p273
asS'2012_10'
p274
(lp275
S'happy birthday mate hope good hail hail'
p276
asS'2012_11'
p277
(lp278
S'prayformuamba'
p279
asS'2012_52'
p280
(lp281
S'merry xmas everyone hope great'
p282
asS'2011_48'
p283
(lp284
S'weekend buddy'
p285
aS'andy'
p286
aS'xfactor fuck'
p287
aS'grow'
p288
aS'aluko wants money back'
p289
asS'2011_49'
p290
(lp291
S'champion2012'
p292
aS'hope guys enjoyed walkout song thanks everyone supports love youre beautiful'
p293
aS'need change bike looks good'
p294
aS'good luck looking forward name leaderboards'
p295
aS'superb news northwest best mate game'
p296
asS'2012_18'
p297
(lp298
S'thanks much help thanks'
p299
aS'florida amazing'
p300
aS'followed half street'
p301
aS'please help disgraceful treatment receiving stuck florida wrong size upgrade'
p302
asS'2013_37'
p303
(lp304
S'ideal mins away therebest luck today gold'
p305
aS'superb touch purchase gixxer mate troon ayrshire'
p306
aS'lets near bike thats good enough visit scotland'
p307
aS'mate gixxer thanks danny'
p308
aS'looking expert advice please mate thinking 1000 augusta think'
p309
aS'thinking augusta whats views'
p310
asS'2013_10'
p311
(lp312
S'weeks isle ttraces'
p313
aS'tyres chain sprocket bike need good weather'
p314
aS'blockedinthemorning'
p315
asS'2013_13'
p316
(lp317
S'good buddy tell said hows belfast soon bike racing hopefully'
p318
aS'ollie family'
p319
aS'long till road racing season'
p320
asS'2013_33'
p321
(lp322
S'good luck team ulster today safe everyone fullgas'
p323
asS'2012_39'
p324
(lp325
S'justin collins people jury largest audience ever likely perfor'
p326
asS'2013_17'
p327
(lp328
S'check item found ebay'
p329
asS'2012_35'
p330
(lp331
S'watched first ulster victory 2005 great victory please mate'
p332
aS'awesome troon cheers boys made sons night ever differentclass'
p333
asS'2012_36'
p334
(lp335
S'come'
p336
aS'good mate manhut watching golf sharon bringing coffee'
p337
aS'alright mate emma'
p338
aS'fcuk luck mate bike mate ability thats causing good season'
p339
asS'2012_37'
p340
(lp341
S'jacobsen make british supersport debut assen tyco suzuki'
p342
aS'first ever tweet flying back filming ferraris f12berlinetta wowza'
p343
aS'news coming tomorrow watch space'
p344
aS'road legal size plate favourite racer'
p345
aS'tennis match'
p346
aS'another test time scottish followers believe police scotland able negotiate pensions'
p347
ag41
aS'alright'
p348
asS'2012_30'
p349
(lp350
S'still weekly payment union long term sick'
p351
aS'would victoria pendletons saddle teamgb'
p352
aS'close battle last weekend that\xe2\x80\x99s front tyre great'
p353
aS'gareth bale pulled olympics injury played spurs last night lifetime opportunity'
p354
aS'morning ringing neck gsxr k7any chance mate'
p355
asS'2012_31'
p356
(lp357
S'ally mccoist good'
p358
asS'2013_38'
p359
(lp360
S'hope recover quickly mate best wishes'
p361
asS'2011_29'
p362
(lp363
S'well said john chance'
p364
asS'2009_9'
p365
(lp366
S'camp seconds'
p367
asS'2013_36'
p368
(lp369
S'want know reality behind pinterest shock gross hilarious'
p370
aS'hilarious pinterest fails dont make stuff home'
p371
aS'disneys tricks sleeve pirates finding dory maleficent want'
p372
aS'take second look logo fails laughing hard'
p373
aS'weirdest stuff japan wont believe'
p374
aS'tattoo donts glows'
p375
asS'2013_35'
p376
(lp377
S'come andy murray'
p378
asS'2011_37'
p379
(lp380
S'thinking result tonight john wish still playing'
p381
aS'buzz learn'
p382
asS'2011_36'
p383
(lp384
S'superb yesterday confident another result next weekend'
p385
aS'chance victory sunday hail hail'
p386
aS'superb today mate well done mate catch soon'
p387
asS'2011_30'
p388
(lp389
S'catwoman23uk really pond life'
p390
asS'2011_33'
p391
(lp392
S'chance kyle'
p393
aS'cmon robbie celtic couldnt lace boots'
p394
asS'2011_32'
p395
(lp396
S'xbox'
p397
asS'2011_52'
p398
(lp399
S'today meerkovo come meerkat parade honour'
p400
asS'2012_38'
p401
(lp402
S'half couches beer fridge'
p403
aS'chance tyco racing manhut'
p404
aS'chance racing manhut'
p405
aS'chance racing manhut'
p406
aS'great team great riders first bike ever seen bike northwest 2011go josh title please'
p407
aS'cracking picture kellie'
p408
aS'poem celtic hillsborough disaster please give minute'
p409
aS'great weekend results mate sure riding like stole'
p410
asS'2011_38'
p411
(lp412
S'jonny bones'
p413
aS'chance bring boredom work'
p414
aS'awesome today well done mate also'
p415
aS'hows nerves amazing 1weewizard'
p416
aS'come alastair'
p417
aS'read colum superb questiins need answered hail hail'
p418
as.