(dp0
S'2013_42'
p1
(lp2
S'lunching virtuous ladies girl talk always good soul love rhodies'
p3
aS'saturday'
p4
asS'2013_43'
p5
(lp6
S'true'
p7
aS'isnt genie bottle cant continue caused mess pray miraculously'
p8
aS'love loved greater love life friends john\xe2\x80\xa6'
p9
aS'definitely'
p10
aS'lets hope season wont disappoint'
p11
aS'confess sins faithful righteous forgive sins cleanse unrighteo\xe2\x80\xa6'
p12
asS'2013_40'
p13
(lp14
S'sometimes okay sorry never forgiveness unblocks blessing youre worth'
p15
aS'wanna scream shout'
p16
asS'2013_41'
p17
(lp18
S'moment trays emptykikiki theheat'
p19
aS'daring bold focus affirm experiences desire'
p20
aS'love someone maybes buts whys'
p21
asS'2013_46'
p22
(lp23
S'second name anele uberhuge rock pretty lady'
p24
aS'still havent figured real miss generations'
p25
aS'thats good question'
p26
aS'never people make feel guilty blessed rehabtime'
p27
aS'loving track primetime janelle monae miguel'
p28
asS'2013_44'
p29
(lp30
S'musa'
p31
aS'dont burned twice flame'
p32
asS'2013_45'
p33
(lp34
S'appointment breakthrough time comes late'
p35
asS'2013_24'
p36
(lp37
S'pride make leader loser humility freedom destructive attitude learn'
p38
aS'hoping even'
p39
asS'2013_36'
p40
(lp41
S'wants moment every experience part divine plan'
p42
asS'2013_35'
p43
(lp44
S'direct path accept closed doors'
p45
aS'jesus said \xe2\x80\x9ccome weary burdened give rest\xe2\x80\x9d matthew 1128'
p46
aS'never lose life someone leaves life need survive rehabtime'
p47
asS'2013_34'
p48
(lp49
S'youve tried best youre starting lose hope remember plans better dreams rehabtime'
p50
aS'stop expecting something situation rehabtime'
p51
asS'2013_23'
p52
(lp53
S'james giant peachhope good'
p54
asS'2013_39'
p55
(lp56
S'forgiveness change past gives future chance'
p57
aS'things deposited inside waiting developed waitingtobedeveloped'
p58
asS'2013_38'
p59
(lp60
S'tear ignored collects bottle waters seed faith wait'
p61
aS'\xe2\x80\x9challelujah lord almighty reigns rejoice exult give glory revelation'
p62
aS'surprise visit brother well guess little anymore hope lekker'
p63
aS'happy birthday'
p64
aS'indeed'
p65
aS'thats true takes focus problem puts back onto'
p66
aS'thanks reminder wait'
p67
aS'anointing bring might power spirit said lord'
p68
as.