(dp0
S'2013_24'
p1
(lp2
S'rise earphones extreme session'
p3
asS'2013_25'
p4
(lp5
S'banner independent shops competition finale place 29th june 11am3pm hornsey town hall'
p6
asS'2013_26'
p7
(lp8
S'retiring great career always seemed like bloke best future'
p9
asS'2013_20'
p10
(lp11
S'awesome hope great'
p12
aS'quote want greece eurovision'
p13
aS'romania thank youve made night eurovision'
p14
aS'many potholes haringey'
p15
aS'haringey council operatives causing danger traffic chaos avoiding yellow lines stopping middle road'
p16
asS'2013_21'
p17
(lp18
S'garde first onto tyres getting interesting monacogp'
p19
aS'shocker paul resta monacogp weather could give williams boys chance start though'
p20
asS'2013_22'
p21
(lp22
S'marching today dont speak britain unite hate'
p23
asS'2013_23'
p24
(lp25
S'eddie jordan gridwalk bonkers brilliant f1montreal bbcf1'
p26
aS'best quali seen ages come bottas'
p27
asS'2013_29'
p28
(lp29
S'beer garden pint peroni waiting arrive'
p30
aS'know ages around weekend august youre'
p31
aS'always pleasure'
p32
aS'lynne featherstone welcomes \xc2\xa3500000 refurbishment hornsey station'
p33
asS'2012_15'
p34
(lp35
S'great ideas mayoral manifesto especially onehourbusticket'
p36
asS'2012_13'
p37
(lp38
S'ldconf shame cant manning haringey office already dozen volunteers helping today'
p39
aS'london dems launching great fares policy today making commute work cheaper onehourbusticket'
p40
asS'2012_10'
p41
(lp42
S'long left f12012 great blog state play'
p43
asS'2012_11'
p44
(lp45
S'friday practice rain told little pace still wouldnt surprised vettel front tomorrow'
p46
aS'true would great open season excited return iceman lotus'
p47
aS'excited season rain australia tasty bbcf1'
p48
asS'2012_18'
p49
(lp50
S'treated shiny phone today'
p51
asS'2012_19'
p52
(lp53
S'chuffed williams great birthday present frank williams'
p54
aS'really news lewis great williams back pole'
p55
asS'2013_11'
p56
(lp57
S'thank person suggested comic relief drinking game drink whenever emile sande comes dear comicrelief'
p58
asS'2013_10'
p59
(lp60
S'definitely fixed next weeks'
p61
aS'impassioned speeches ldconf educational excellence looking forward hearing next'
p62
aS'loving fact gurt lush said conference platform ldconf reminds family back home'
p63
aS'boss speaking womens rights role dfid minister utterly inspirational'
p64
asS'2013_13'
p65
(lp66
S'english goal scorer premiership another great goal today keep good work lambo'
p67
aS'know restaurants awesome posters like'
p68
aS'moved earlsfield first stop breakfast mels'
p69
asS'2013_12'
p70
(lp71
S'best podium interview ever'
p72
aS'cracking quali sepang anyone know time race starts tomorrow'
p73
aS'promised delivered good liberal democrat'
p74
asS'2013_15'
p75
(lp76
S'dont forget chocolate think trying lots wedding based treats'
p77
aS'mean wednesday 17th calendar wrong'
p78
asS'2013_14'
p79
(lp80
S'well done southampton look good premier league next season looks like reading'
p81
aS'missed tweet take back excuse brovos'
p82
aS'ridiculous missed khal brogo'
p83
asS'2013_17'
p84
(lp85
S'glorious essex helping fellow dems'
p86
aS'stop muswell hill roundabout stay congrats another\xe2\x80\xa6'
p87
asS'2013_19'
p88
(lp89
S'want pair tickets chance getinwithgaymers glastonbury tsampcs'
p90
aS'congratulations rest team'
p91
asS'2013_18'
p92
(lp93
S'learning outs social media'
p94
aS'dems wiltshire council seats salisbury constituency winning wilton chuffed colleagues'
p95
aS'wiltsvote13 peter derek edge elected wilton lower wylye valley liberal democrats'
p96
aS'albans parliamentary seat dems county seats labour conservatives libdems cons'
p97
aS'hundreds last night literally hundreds'
p98
aS'polling early morning leaflet drop essex done onto committee room localelections libdems'
p99
aS'good morning dont forget vote today polls open 10pm libdems gloselections2013'
p100
asS'2011_19'
p101
(lp102
S'cant remember single endearing thing azerbaijan song'
p103
aS'collective opinion georgia ireland moldova denmark italy'
p104
aS'career high ricky gervais eurovision'
p105
aS'feel would unwise'
p106
aS'think ireland going moldova battle commence'
p107
aS'moldovia trending'
p108
aS'year lenashould brought unicycle'
p109
aS'moldova always good value years tribute cult film coneheads doesnt disappoint'
p110
aS'twitter bitching leeryan'
p111
aS'david ginolas younger brother representing france'
p112
aS'russian singing coming never taken lightly eurovision'
p113
aS'jedward caused twitter overcapacity computer'
p114
aS'someone involved much edge yes2av campaign analysis dead'
p115
aS'friday13th aaarggh scary week next week'
p116
aS'good luck'
p117
aS'avoiding theapprentice like plague although aware ironically contributing show trending'
p118
asS'2011_13'
p119
(lp120
S'really looking forward seeing'
p121
asS'2011_12'
p122
(lp123
S'formula missed'
p124
aS'talking bollocks blog post wonders'
p125
aS'wonder nick cleggs smiling lifting million lowpaid massive budget11'
p126
aS'filled petrol tank morning fail'
p127
aS'libdem fingerprints budget11 green investment bank closing loopholes increased threshold carbon price'
p128
aS'muse rnl2011'
p129
asS'2011_11'
p130
(lp131
S'slightly concerned people complaining wonders official best show ever music loud shhhhhh'
p132
asS'2011_10'
p133
(lp134
S'ldconf staying glued twitter updates debate nhsreforms'
p135
aS'ldconf tweets make wish kids'
p136
aS'great video looking teams stand ahead season'
p137
aS'support fairer votes twibbon avatar yes2av'
p138
aS'elbow confirmed glasto'
p139
asS'2011_14'
p140
(lp141
S'nominations done shining good times'
p142
asS'2011_3'
p143
(lp144
S'sleigh bells words express bands awesomeness'
p145
aS'balls wellthatwaspredictable'
p146
aS'chain mighty must worshipped'
p147
aS'please campaign chain number season opener bahrain'
p148
asS'2011_2'
p149
(lp150
S'week caffeine think addiction chocolate biscuits sorely missed though'
p151
aS'mystery avian deaths suggest playing angry birds'
p152
asS'2011_1'
p153
(lp154
S'simon hughes dems constructive progressives'
p155
aS'years resolution tweet likelihood keeping resolution slim'
p156
asS'2011_7'
p157
(lp158
S'cancel bahrain think read article explains'
p159
aS'wetherspoons large breakfast omnomnom'
p160
aS'cancelled bahrain next follow'
p161
aS'chuffed lauramarling brits well deserved'
p162
aS'happy valentines happiest looking couple seen today pack carlsberg says romance dead'
p163
asS'2011_6'
p164
(lp165
S'craving malted milk biscuits office please bring swiftly'
p166
aS'libertines glasto news pleases guessing youll year'
p167
aS'black swan tonight many great films moment'
p168
asS'2011_5'
p169
(lp170
S'best wishes robert kubica speedy recovery real shame considering early promise renault'
p171
aS'happy saturday coolest thing seen week students film earth stratosphere'
p172
aS'wondering teams fare 2011 theyre used'
p173
aS'every selfrespecting must follow legend'
p174
aS'testing find exciting thatn normal people'
p175
aS'crashed apparently reporting million hits hour'
p176
aS'follow live tweeting updates teams arrest cairo jan25 egypt tahrir'
p177
asS'2011_4'
p178
(lp179
S'delighted control orders gone would liked seen government'
p180
asS'2011_9'
p181
(lp182
S'apologies tweet newbury days'
p183
aS'baffled amused bernie ecclestones suggestion tracks think prefer idea introduce snakes potholes tracks'
p184
asS'2011_8'
p185
(lp186
S'regional conference listening lord marks explain constitutional reform long overdue'
p187
aS'williams hopeful strong season williams competitive enjoy strong season'
p188
aS'still aching mile monday think getting massive fitness regime election'
p189
aS'truth claim shred yes2av'
p190
asS'2013_5'
p191
(lp192
S'people signed petition closures whittington hospital name'
p193
aS'evens porridge cereal toast boiled kippers paddysbreakfastbetting'
p194
asS'2013_4'
p195
(lp196
S'yeah zelda wind waker getting remake'
p197
aS'made steak made steak'
p198
aS'loved guys tonight shepherds bush come back london soon'
p199
aS'quite people asking shows week going ahead course snow'
p200
asS'2013_7'
p201
(lp202
S'loser youve played youve played'
p203
asS'2013_6'
p204
(lp205
S'stonking turnout action come afternoon'
p206
asS'2013_1'
p207
(lp208
S'happy year everyone'
p209
asS'2013_3'
p210
(lp211
S'haringey labour rejects coalition money protect vulnerable whilst labour islington take cash'
p212
aS'listening radio1 things await awesome rock music'
p213
asS'2013_9'
p214
(lp215
S'rocks flying hong kong last night pilot eastleigh result sent seat 0317 yippeee'
p216
aS'fantastic eastleigh team last weeks result well worth'
p217
aS'well done result congrats eastleigh'
p218
asS'2013_8'
p219
(lp220
S'woop'
p221
aS'audience expresses anger disappointment tory candidate maria hutchings fails attend eastleigh debat'
p222
asS'2012_38'
p223
(lp224
S'good first ldconf jampacked training'
p225
aS'ldconf brighton proud party actually debates forms policy democratically'
p226
asS'2013_32'
p227
(lp228
S'rather blunt lambeth council notice'
p229
aS'helpers found morning plenty support noel park action'
p230
aS'country manor'
p231
aS'congrats rickie deserves call cant believe taken long honest greatlad greatplayer'
p232
aS'lambert named england squad'
p233
asS'2012_49'
p234
(lp235
S'councillor sent wilderness local labour group'
p236
aS'sutton dems another level stonecot result hold swing dems cons'
p237
aS'really wake sight gallipoli gutted fire islington'
p238
aS'christmassy enough'
p239
aS'heading back great evening doorknocking richmond park others chilly side'
p240
aS'hurry already'
p241
asS'2012_48'
p242
(lp243
S'christmas kids christmas tree'
p244
asS'2012_45'
p245
(lp246
S'fourmoreyears obama great thing wake celebrate trip argos'
p247
aS'power guess natures least british gass telling staying watch results idea'
p248
asS'2012_44'
p249
(lp250
S'clock sunday another gone home queue twitter meltdown xfactor'
p251
aS'vote district3'
p252
aS'reports like lewis spain starts back grid going wire champion'
p253
aS'christmas'
p254
asS'2012_47'
p255
(lp256
S'ritualistic bullying christopher maloney getting tiresome xfactor'
p257
aS'nice good luck tomorrow night'
p258
asS'2012_46'
p259
(lp260
S'vettel massive clear field states talk statement intent'
p261
aS'playing chapel salisbury next thursday check'
p262
aS'xmas lights afterparty buzzed playing next thur'
p263
aS'xmas lights afterparty buzzed playing next thur'
p264
asS'2012_40'
p265
(lp266
S'haringey labour councillors split spurs regeneration cllr stanton criticises haringey council leader'
p267
aS'listening muse album make quiche monday evenings rarely good'
p268
asS'2012_43'
p269
(lp270
S'looking forward arrival young champagne fridge'
p271
aS'morning london forgive weather view good'
p272
asS'2012_42'
p273
(lp274
S'thanks mark'
p275
asS'2011_50'
p276
(lp277
S'oops previous tweet fail'
p278
aS'ditched drivers 2012 coming especially alguersuari thought solid year'
p279
asS'2012_8'
p280
(lp281
S'email message twitter telling theyve missed well feel guilttripped make effort'
p282
asS'2013_39'
p283
(lp284
S'love even mornings performance andrew marr show'
p285
aS'labourhad13years nuffsaid'
p286
asS'2010_25'
p287
(lp288
S'whatever vote favourite line'
p289
aS'ultimately income allowance proposed'
p290
aS'mate yeah thought enter 21st century applications pending couple interviews good bday'
p291
aS'euro preparation unit anyone'
p292
aS'getting perilously excited glastonbury'
p293
aS'know took long enough'
p294
asS'2010_29'
p295
(lp296
S'hopefully hunting lark drawing close another great race look forward weekend though rain please'
p297
asS'2013_38'
p298
(lp299
S'well organised hardworking according local labour tories'
p300
aS'finally made debate hall ldconf'
p301
aS'camra fringe ldconf local pubs heart communities championed'
p302
aS'good vote zero everyone minimum wage want lowest paid keep much'
p303
asS'2012_2'
p304
(lp305
S'worth duwayne brooks conviction murderers stephen lawrence audioboo'
p306
aS'entry world blogging know think'
p307
asS'2012_50'
p308
(lp309
S'labour tottenham councillor brands haringey council leader claire kober \xe2\x80\x98disaster\xe2\x80\x99'
p310
asS'2012_51'
p311
(lp312
S'please promote awareness event taunton'
p313
aS'sheer disbelief labour haringey claiming victory withdrawal pinkham waste cllrs proposals'
p314
asS'2010_42'
p315
(lp316
S'knocking doors hungerford afternoon good reception doorstep'
p317
asS'2011_35'
p318
(lp319
S'everythings falling place perfectly'
p320
asS'2011_34'
p321
(lp322
S'train reading damplucky undercover'
p323
asS'2011_37'
p324
(lp325
S'haringey heartlands development \xe2\x80\x9cunacceptable\xe2\x80\x9d says liberal democrats'
p326
asS'2011_36'
p327
(lp328
S'bbcf1 rain monza tomorrow anyone info'
p329
aS'redorblack awful mins direction tosh implausible london underground based scenario gettingold'
p330
aS'match surprisingly entertaining onesided match'
p331
aS'flabbergasted clarkes comments describing group people feral underclass help reengage'
p332
asS'2011_31'
p333
(lp334
S'heartbreaking everyone tottenham thoughts affected happened'
p335
aS'huzzah americans agree something'
p336
asS'2011_30'
p337
(lp338
S'lovely trip camden heads beer garden islington'
p339
aS'bbcf1 news really surprisingdoesnt mean saddened though'
p340
aS'political party accounts published news prosecuted failing submit'
p341
asS'2011_33'
p342
(lp343
S'morning twitter somewhat looking forward factor saturday please help scared'
p344
aS'congrats good luck everyone receiving level results today extra special good luck everyone hoping'
p345
aS'getting right'
p346
asS'2011_32'
p347
(lp348
S'wandsworth council'
p349
aS'compromise jazzy jeff fresh prince deal'
p350
aS'sssh dont ruin berkshire celebrations'
p351
aS'stonking dems windsor maidenhead byelection increase vote share'
p352
aS'great question directly elected police commissioners priority right'
p353
aS'help media campaign team'
p354
aS'house commons filled speeches ranging sensible utterly bonkers today'
p355
aS'going busy interesting parliament methinks'
p356
aS'talkin bout impressive ready riotcleanup'
p357
aS'please bring donations today 630am onwards tomorrow\xe2\x80\x9d thanks great'
p358
aS'social networks blamed causing riots also uniting riotcleanup people'
p359
aS'cllr richard wilson commenting recent violence london'
p360
asS'2011_38'
p361
(lp362
S'holiday excited much'
p363
aS'grand thanks salisbury come soon rather good'
p364
asS'2013_42'
p365
(lp366
S'next person hear misuse word literally literally kill'
p367
asS'2013_43'
p368
(lp369
S'want vettel great showmanship doughnuts startfinish line'
p370
aS'must person train eating mcdonalds burger king waterloofood'
p371
aS'apparently although much longer rate'
p372
aS'real issues blackberry rebooting randomly anyone else problem'
p373
asS'2013_40'
p374
(lp375
S'basically lunch greenhouse churchill arms'
p376
aS'victory campaigners pinkham nlwa backtracks haringey'
p377
aS'sauber confirms rubens barrichello considered 2014 race seat'
p378
aS'brixton sounds spectacular woop'
p379
aS'haim tour count probably'
p380
asS'2013_41'
p381
(lp382
S'whyiamin rights workers peace prosperity environmental cooperation'
p383
aS'grain membership increased last quarter first time outside election period years'
p384
asS'2013_46'
p385
(lp386
S'anyone vettel surprised bull terrifying form'
p387
aS'thanks follow endeavour tweet frequently avoid disappointment'
p388
aS'totally agree real shame lotus dont take risk though'
p389
aS'yeah pretty disgusted maldonados attitude weekend honest williams deserves better'
p390
aS'someone explain hasnt snapped next season please'
p391
aS'lets date diary christmas year veto spoons'
p392
asS'2013_47'
p393
(lp394
S'queens stone years pass still stay incredible'
p395
aS'brazil weekend would fitting farewell terrific career'
p396
aS'anyone want tickets queens stone friday couple seated ones going spare'
p397
asS'2013_44'
p398
(lp399
S'departing birthday drinks great night soho'
p400
aS'mercedes team principal ross brawn leave role season bbcf1'
p401
aS'haringey sounds serious hopefully hurt'
p402
aS'update 0854 cleared trees services expected start least 1100'
p403
aS'running 10am district line seems come standstill east putney tough times sw18 storm2013'
p404
aS'advising customers attempt travel morning trains least 0900 stormswt'
p405
asS'2013_45'
p406
(lp407
S'woop promise drinks many stupid questions greet return'
p408
asS'2012_29'
p409
(lp410
S'tickets brixton academy please'
p411
asS'2012_27'
p412
(lp413
S'crikey victoria station stuff'
p414
asS'2012_26'
p415
(lp416
S'later'
p417
aS'home unlike clothes iowfestival'
p418
aS'think found similar person twitter follows'
p419
asS'2012_24'
p420
(lp421
S'things remember today blog'
p422
asS'2012_23'
p423
(lp424
S'thank annie lennox normality proceedings jubileeconcert'
p425
aS'hope rain stays away'
p426
asS'2012_22'
p427
(lp428
S'gringo'
p429
aS'jubilee coverage gone making angry finding solace come dine'
p430
aS'enjoying bbcjubilee coverage expected please note bbci care queen kate wearing'
p431
aS'last centaur cheap beer good times'
p432
asS'2012_21'
p433
(lp434
S'early morning race life good luck'
p435
asS'2011_23'
p436
(lp437
S'farewell next year montreal always pleasure'
p438
aS'recancelling bahrain probably worst kept secret week'
p439
aS'fans said bahrain grand prix 2011 vote'
p440
asS'2011_20'
p441
(lp442
S'drinking expensive beer classy people lovely shades'
p443
aS'heard clarkes comments rapedate rape'
p444
asS'2011_21'
p445
(lp446
S'mclarens race lose today lost shame button'
p447
aS'glad hear perez hopefully button able vettel start tomorrow would spice things monaco'
p448
aS'monaco back'
p449
aS'ryan giggs imogen thomas connor superinjunction trends yahoo mind boggles'
p450
asS'2011_26'
p451
(lp452
S'meeting lovely brent team discuss current campaigns'
p453
aS'goodbye valencia maurice hamilton docks'
p454
aS'finished first jobreally enjoying ilovelondon'
p455
asS'2011_24'
p456
(lp457
S'thankswell give whirl'
p458
aS'help iphone thinks headphones plugged arentanyone help iphonefail'
p459
aS'peter madelson machine replacelovewithpetermandelson'
p460
aS'rain away anyone know weather forecast glastonbury'
p461
aS'thanks ruwan keep flying flag absence'
p462
aS'thanks'
p463
aS'suddenly dawned days left working newbury eeek'
p464
aS'oppose everything'
p465
asS'2011_25'
p466
(lp467
S'danny champions worldblowing cobwebs away glasto'
p468
aS'glasto2011 excited'
p469
aS'sean connery letter pretty amazing'
p470
aS'social liberal forum discussed earlier'
p471
aS'glastonbury days away excitement qotsa already high'
p472
asS'2011_28'
p473
(lp474
S'need toolkit ihatediy'
p475
asS'2011_29'
p476
(lp477
S'dont think timo glock fooling anyone yesterdays radio joke nurburgring'
p478
aS'really tweet often fear moan weather become people'
p479
aS'oooo apparently theres queue everything murdoch getting grilled today hacking'
p480
asS'2011_44'
p481
(lp482
S'pink wifebeater thatll frankie votes however talking black eyed peas song xfactor'
p483
aS'alreeet wasnt craig jolly good'
p484
aS'second half first half dire yayadsontwitter'
p485
aS'hunch johnny could week cursed first performer night slot also rubbish xfactor'
p486
aS'would love happen williams kimi probably unlikely rubens likely guess'
p487
aS'might actually raikkonen actually return williams next year'
p488
aS'liberty press release sense pauls also westmintster council drops soup'
p489
asS'2011_45'
p490
(lp491
S'walked past pizza islington conservative posters window arent byelections exciting'
p492
asS'2011_47'
p493
(lp494
S'kubica looks miss 2012 surprised'
p495
asS'2011_40'
p496
(lp497
S'predictable xfactor vibe next week please'
p498
asS'2011_41'
p499
(lp500
S'wheldon truely tragic news'
p501
aS'terrifying 15car crash indycar race vegas hoping drivers word wheldon'
p502
aS'bloody hell frankie dire still managed scrape tulisas crying xfactor'
p503
aS'like majority themnu vibe frankie methinks'
p504
aS'probably sophie although like craig rhythmix kitty janet slightly lesser amounts many rest pain'
p505
aS'sophie trending sophie ellisbextor must never felt popular'
p506
aS'wondering kittys face eyebrows'
p507
aS'cheeky sophiehabibis stunning voice'
p508
aS'werent good last week shame groups previous series crap especially'
p509
aS'sophie makes smile anyone else like kitty much xfactor'
p510
asS'2011_42'
p511
(lp512
S'rock distorted guitar effects thanks clearing xfactor'
p513
aS'going broad brush definition rock xfactor'
p514
asS'2011_49'
p515
(lp516
S'need restart earth upgrade planet'
p517
aS'earth whats wrong earth expecting earth follow rage'
p518
asS'2013_37'
p519
(lp520
S'real ldconf'
p521
aS'despite lack tweets indeed ldconf much training general business slightly damp'
p522
aS'river villages shocking secret'
p523
aS'kimi raikkonen verge confirmed ferrari driver next years formula season'
p524
asS'2013_36'
p525
(lp526
S'lots today stroudgreen'
p527
aS'great afternoon even decided come'
p528
aS'cupcakes regional action suitably impressed'
p529
aS'teamlondon great turnout today'
p530
aS'bree louise nice near euston shame angry collecting empties think landlord dont think going back'
p531
asS'2013_35'
p532
(lp533
S'incredible motogp race marquez lorenzo incredible'
p534
aS'pretty uncomfortable outcome vote syria principle liberal intervention seems stake'
p535
asS'2013_34'
p536
(lp537
S'ring haringey council today good luck figures show chance call wont answered'
p538
asS'2013_33'
p539
(lp540
S'spotted little critter lurking wardour street last night'
p541
aS'hate middle lane hoggers chasing fining really valuable police time'
p542
aS'muse setlist today much money something like 20th anniversary'
p543
aS'relax thats rehearsal year anniversary tour'
p544
aS'setlist muse zepp'
p545
asS'2012_39'
p546
(lp547
S'thanks everyone came doorknocking today great campaigning bloody shattered'
p548
aS'nothing springs mind think travel lodge kings cross'
p549
aS'well behaved tonight ldconf midnight catching vinces speech earlier today'
p550
aS'look forward seeing guys'
p551
asS'2013_30'
p552
(lp553
S'great noel park delivered curry hope youre'
p554
aS'great article lynnes office really response time'
p555
asS'2012_34'
p556
(lp557
S'trying wake forreadingfestival soon'
p558
aS'looking cracking wedding venues'
p559
asS'2012_36'
p560
(lp561
S'spent least giggling like girl'
p562
aS'zanardi wins gold paralympics story brightened'
p563
aS'thanks lynne featherstone work welcome issue championed years'
p564
aS'leader commons partys greatn unsung heroes'
p565
aS'crikey reshuffle stuff much'
p566
asS'2012_37'
p567
(lp568
S'hello salisbury youre looking lovely today'
p569
asS'2012_30'
p570
(lp571
S'islington council publishes sexuality thousands residents online blog'
p572
aS'fireworks window live freaking islington massive'
p573
aS'shami'
p574
aS'worried countries wont stadium zambia wait outside'
p575
aS'fiji walk screen fiancees eyes stalks 2012'
p576
aS'getting close personal olympic torch islington great turnout today'
p577
asS'2012_31'
p578
(lp579
S'know couple hours behind woop woop first gold teamgb'
p580
asS'2012_32'
p581
(lp582
S'heres hoping cannons fire liam gallagher stadium'
p583
aS'taio cruz probably worst thing ever'
p584
aS'confused olympics'
p585
aS'dream training long jump clearly inspired olympics'
p586
asS'2012_33'
p587
(lp588
S'years jail pussyriot sentence bitter blow freedom expression russia send message support'
p589
as.