(dp0
S'2014_17'
p1
(lp2
S'twin uncles starting grind gear swear beatsmusic'
p3
aS'rudest moderators ever gaming history nerv tell mods respectful'
p4
asS'2014_18'
p5
(lp6
S'beaten black death scenario normal difficulty infectious'
p7
aS'said acute tosilitise blame sydney cause daft punked'
p8
asS'2014_19'
p9
(lp10
S'whoop whoop ninjas beatsmusic'
p11
asS'2014_21'
p12
(lp13
S'lord hope good beatsmusic'
p14
aS'emailed president demanding appolgies china hacking chrimes aprantly long'
p15
aS'china like lets hack something like bitch please'
p16
aS'play world tanks believe higher power looking friends wont judge join clan'
p17
asS'2014_20'
p18
(lp19
S'diagnosed bipolar ptsd wanna know honestly think mental disorders bunch crock shit excuse'
p20
aS'boondox bandanna left hand think fractured palm figured bandanna would give palm cushion'
p21
aS'yall guys know aint never seen concert sister aint kick head'
p22
aS'favorite album pychopathic records carnival carnage favorite abaddon boondox sorry'
p23
aS'always wanted gathering juggalos wasnt fact dirt poor would someday someday'
p24
aS'show home screen'
p25
aS'congrats homie boondox devastating album abaddon drops today'
p26
aS'chinese general tours carrier maritime tensions fester thinking'
p27
asS'2014_16'
p28
(lp29
S'beatsmusic'
p30
asS'2014_22'
p31
(lp32
S'weed fairy visits seattle gives'
p33
aS'technology curse given despise technology makes life easy think complicates life'
p34
asS'2014_12'
p35
(lp36
S'music beatsmusic'
p37
aS'cant twitter worth shit bwhaha'
p38
asS'2014_14'
p39
(lp40
S'beatsmusic'
p41
asS'2014_15'
p42
(lp43
S'piss white widow alkida pinapple purple haze sack smoke whoop whoopbeatsmusic'
p44
aS'shit amazing maze rick dick fucked know idea puzzle'
p45
aS'redit cant ziron linux ubuntu'
p46
aS'whent ubuntu ziron linux simular except windows back grounds multi task windows'
p47
aS'bwhaha undergarments white make sure water pures fully baptism trust must mormon'
p48
aS'personal playlist check everything missing music shoot title makes feel'
p49
as.