(dp0
S'2013_45'
p1
(lp2
S'remind seven hundred billion times better black eyed peas incident'
p3
aS'slut time screws everybody'
p4
aS'could listen thrift shop'
p5
aS'theawkwardmomentwhen find picture someones twitter'
p6
aS'kendrick lamar gtgt'
p7
aS'wish could'
p8
aS'always wanted beach drinking corona like commercials'
p9
aS'dont know waste today black opps thinks'
p10
aS'sooo exhausted'
p11
aS'exactly like train wreck horrible cant look away'
p12
aS'remembered theres social experiment want radical honesty stole idea sounds interesting'
p13
aS'please tell youre joking'
p14
aS'white people hilarious'
p15
aS'sleep till summer'
p16
aS'truly blessed'
p17
aS'trying arrange last minute camping stuff wasnt going decided want hopefully everything work'
p18
aS'best touchdown ever'
p19
aS'kpop either love think weird catchy hate'
p20
aS'thunderbuddys'
p21
aS'drake thinks sibling'
p22
aS'south american metal fans like'
p23
aS'goshhh intro alone think caleb dead based hannas expression'
p24
aS'stop'
p25
aS'crocodile rock morningjams'
p26
aS'youre part time lover full time friend'
p27
aS'late night texts long phone calls telling shes beautiful thats girls want'
p28
aS'dang whole family couldve gone grandpas funeral next weekcuz tickets cheap family dont care'
p29
aS'going ireland great sleeping schedule already tired enough fall asleep wasnt shows tonight would'
p30
aS'would nice right'
p31
aS'interview work study excited nervous'
p32
aS'taylor thinks everyone tweets guyno'
p33
aS'people think perfect life actually complete opposite'
p34
aS'absolutely adore amanda seyfried goldenglobes'
p35
aS'cant wait rogers seniors homecoming shirts tomorrow post pictures'
p36
aS'since bored nothing gonna tweet celebs theyll reply back'
p37
aS'swear sometimes girls stupid mean things ughhhhhh still season'
p38
aS'okay woke'
p39
aS'feel like dancing tonight'
p40
aS'doubt duck face'
p41
aS'itshardformeto sing along songs know'
p42
aS'well thats another person wish never'
p43
aS'public washrooms actually disgusting'
p44
aS'stoner babes want dudes great skills blunt rolling skills bong skills munchie making skills'
p45
aS'cuddle buddy'
p46
as.