(dp0
S'2013_42'
p1
(lp2
S'sorry place everything shared equally wasnt nice seem think'
p3
aS'cool scifi'
p4
aS'progressive failure obamaspresidencyintwowords'
p5
aS'obamacare girl worst photo shoot since joey poster friends'
p6
aS'many close friends person read stats saying average good reason never feel lonely'
p7
aS'youve gone preaching meddling'
p8
aS'sensible college plan nros education week skip expensive private schools stay debt'
p9
aS'problem vast majority republicans dont even message spineless suckupitude'
p10
aS'daughter said white chocolate chocolate people affinity'
p11
aS'davesideas basic cable detective show starring obama biden mompants muffinbringer'
p12
aS'please destroy 343k babies wouldve candle year planned parenthood'
p13
aS'soldier delivers salute seen around world doesnt profoundly moving'
p14
aS'financial advice obamacare start thinking ways decrease income badsuccessadvice'
p15
aS'hear washington redskins removing washington name'
p16
aS'times told duck face sparrow face'
p17
aS'congress going another album'
p18
aS'late create alternative history'
p19
aS'coming soon director dies operation cancelled four times hospital'
p20
aS'obamascare coming\xe2\x80\xa6'
p21
aS'secure borders installing government shutdown barricades world memorial'
p22
aS'correction ruled insane shameful spiteful vindictive arrogant narcissistic'
p23
asS'2013_43'
p24
(lp25
S'\xe2\x9a\xbe\xef\xb8\x8fworldseries'
p26
aS'coolest birthday gift wattage booster electrified fence time halloween'
p27
aS'outside womb dangerous place black american city democrats'
p28
aS'parents asked kale edamamethanks hipsters ruining happy family'
p29
aS'real world relevance media politicians public others daily lives'
p30
aS'glitch also jayne mansfield fender bender thatllbuffrightout'
p31
aS'incredible statement cooperate legitimate congressional over\xe2\x80\xa6'
p32
aS'obamacare website longer concerned nsas spying software silverlining'
p33
asS'2013_40'
p34
(lp35
S'investigate closure problem gummi bear problem clarify'
p36
aS'finding solution warned congressman coming gummi bear gift investigate problem'
p37
aS''
p38
aS'watch neil cavuto slam president best obamacare monologue ever'
p39
aS'read review another customer wants send congress want'
p40
aS'beware getting gift'
p41
aS'like nascar drivers thinking wearing commercial logos suits trying soon depends blazer'
p42
aS'obama furloughs barrycades'
p43
aS'time lots time spout irrelevanciesobama open name change washington redskins'
p44
aS'potus obamacare land potus borders complicated'
p45
aS'asking wheres investigation carsons audit cant possibly coincidence'
p46
aS'thug usurpers bureaucracy want send message'
p47
aS'love father makes hold sign bullying student'
p48
aS'police remove vietnam veterans memorial wall'
p49
aS'happy hour seven dwarfs hang around dopey hour next'
p50
aS'obamas america'
p51
aS'best wwii mmeorial sign normandy closed'
p52
aS'marine woodbridge runs carpentry business took support vets'
p53
aS'media thronelickersthis isnt hard memorial outdoors always open obama admin hired people barricade'
p54
aS'obama would think wwii memorial needs protected wwii veterans'
p55
aS'decades esteem bldg exercises latertough teachers good results'
p56
asS'2013_41'
p57
(lp58
S'absolutely devastating indictment radical invasion heart nation must read'
p59
aS'funwe need itwatch video youth bake sale fundraiser thanks'
p60
aS'profanity characters impressed getaclue'
p61
aS'cant arms'
p62
aS'east coasters know heavy rain season lifts dripped roads summer think black everywhere'
p63
aS'2006 increase would paid stuff obamas stuff completelydifferent doublestandard'
p64
aS'want windshield'
p65
aS'video interview'
p66
aS'contractor posts server source code asking help obamacarecodefail'
p67
aS'removed water spigot handles campo canal path many exercise cant drink'
p68
aS'constitution requires govt insure domestic tranquility create domestic violence insurance'
p69
aS'sadder kids share debt absolute saddest shutdown photo'
p70
aS'heard strange sound outside went investigate raining buckets welcome october'
p71
aS'jesus good luck tearing brutal'
p72
aS'cone spitehouse shutdown'
p73
aS'soldiers never families potus refused death benefits called heartless'
p74
aS'obamas opinion willing'
p75
aS'best thing going dentist never want weigh'
p76
aS'hypocrisy obama allow amnesty rally national mall kicking veterans'
p77
aS'fact daughter veronica lazy walk morefunfactsrevealedifyouhackmeagain'
p78
aS'fact rick found mayo fridge expired years think recently'
p79
aS'real nose money like pigs sniffing truffles'
p80
aS'part shutdowntheater launch space drones intercept destroy voyager probes'
p81
aS'someone says obamacare settled mention slavery caring'
p82
asS'2013_46'
p83
(lp84
S'stein really happening liars obama admin trust liars iran tell truth'
p85
aS'haven\xe2\x80\x99t felt confident since hearing copilot never flown engines before\xe2\x80\x9d obamacare'
p86
aS'sleep number'
p87
aS'uniform success suit donation event bank'
p88
aS'horrific piece legislation partisan lines cant expect help fixi\xe2\x80\xa6'
p89
aS'render unto seizure'
p90
aS'traditional public schools charter schools roles helping children succeed schoolchoiceworks'
p91
aS'watching soldiers veterans love movie'
p92
asS'2013_17'
p93
(lp94
S'tell young anymore first instinct check phone painfullyclear'
p95
asS'2013_44'
p96
(lp97
S'hanging clothes still think elliptical trainer efficient either pilates treadmill'
p98
aS'gottaloveit percent americans think zombies could country better'
p99
aS'people used think flat think control temperature humans gotta love'
p100
aS'punished enough already need party protests'
p101
aS'candy little airline liquor bottles idea neighborhood parents testy'
p102
aS'father year'
p103
aS'halloween ordered several people dress trick treating cant wait'
p104
aS'business successes government government failures businesses ministryoftruth'
p105
aS'obamas human props like jong thered swooning wait several days'
p106
aS'security flaws whoda thunk'
p107
aS'purpose obamacare insure uninsured effect obamacare date uninsure insured'
p108
aS'constituent speaks open borders'
p109
aS'enjoying bahamas beaches conch shell earthink heard someone listening'
p110
aS'cannot plan didn\xe2\x80\x99t like must expensive plan love\xe2\x80\x9d'
p111
asS'2013_45'
p112
(lp113
S'happy 238th birthday marines thank selfless service great nation'
p114
aS'scott adams explains entire obamacare website disaster 1999'
p115
aS'heres billion implement antigravity look like lowlevel detail person'
p116
aS'drift toward despotism analrape bythebook'
p117
aS'point turn microwave realize youre either making ninja popcorn forgot'
p118
aS'darn cute cougar orphans oregon'
p119
aS'espresso sherbet jewelry jewlery realtor relator work done'
p120
aS'gottaloveit lake teacher uses exercise balls control squirming students'
p121
asS'2013_16'
p122
(lp123
S'reporting obama admin treat terrorist criminal enemy combatant obama allow lawyer'
p124
aS'happiest days boat owner\xe2\x80\x99s life buys boat gets terrorist'
p125
aS'caroline glick great news israel'
p126
aS'watch 17565strong belt national anthem prior tonights game'
p127
asS'2012_42'
p128
(lp129
S'quite brilliant really liberal convinced women think commitment abortion birth control'
p130
asS'2013_25'
p131
(lp132
S'look theyd rather anywhere else earth'
p133
asS'2013_27'
p134
(lp135
S'heard obama admin delay obamacare employer mandate year delay forever fullrepeal'
p136
aS'year today supreme court upheld obamacare working americans today'
p137
asS'2013_21'
p138
(lp139
S'pulled laundry dryer handful underwear pantiesinabunch'
p140
aS'obamascandalmovies lack valor'
p141
aS'took carrots gone green waste itjustseemswrong threw onions notgreen'
p142
asS'2013_22'
p143
(lp144
S'everybody knows bible says somewhere allow stinky people heaven church'
p145
asS'2013_29'
p146
(lp147
S'years moon landing follow footsteps neil armstrong lead world apologize'
p148
aS'read carefully dont want misunderstood screw wont give zimmerman back'
p149
asS'2009_12'
p150
(lp151
S'figuring knowing brain binary help arenas blogged'
p152
aS'looking binary nature human brain'
p153
asS'2008_50'
p154
(lp155
S'hhrs hugh amazefm needs song title search facility'
p156
aS'done school'
p157
aS'blogging progress malawi'
p158
aS'hhrs technology worth implementing started porn twitter start porn'
p159
aS'russell homepage type message hugh make sure hhrs twitter text'
p160
aS'hhrs hugh youre challenging pitiful technological prowess giving college'
p161
asS'2009_36'
p162
(lp163
S'gotta bank bunch change tomorrows garage sale'
p164
asS'2013_37'
p165
(lp166
S'fine wrong fine well'
p167
aS'stuff find online'
p168
aS'rebuts vladimir putin american exceptionalism worth reading president obama read'
p169
aS'assume unbelievably small kerry means obama going shut student tours assads living quarte\xe2\x80\xa6'
p170
aS'study abortion increases woman\xe2\x80\x99s death risk women health tcot abortion'
p171
aS'mention wont surprised pass popcorn'
p172
asS'2013_36'
p173
(lp174
S'statement economy market book career selfhelp'
p175
aS'motherinlaw used like getting shots enjoyed tingle needle pokes must nurse'
p176
aS'would know'
p177
aS'pearl harbor actually warjust limited strike boots ground'
p178
aS'hahahahahahahahahahahaha bill clinton says duty help obamacare glitches'
p179
aS'syrian chemicals violates internl norms doesnt slavery still practiced mauritania africa'
p180
aS'elephant room human womb baby elephant womb'
p181
aS'needed jeans girl bike throws like girl nailedit'
p182
aS'global warming expedition fail inconvenienttruth'
p183
aS'dont hate kill jockey someone else gets credit left4dead2'
p184
asS'2013_35'
p185
(lp186
g38
aS'classic bathe'
p187
aS'barack obama proving embarrassing amateur world stage compared george bush'
p188
aS'dream someday americans realize biggest cons going race grievance industr\xe2\x80\xa6'
p189
asS'2013_34'
p190
(lp191
S'tweetyourgrandfatherswwiistories postwar grandpa stationed france years helping identify remains troops'
p192
aS'tweetyourgrandfatherswwiistories grandpas john wayne story story stuck notsureiftrue'
p193
aS'shot machine guns high grass wwii pacific trainers laughed found tweetyourgrandfatherswwiistories'
p194
aS'tweetyourgrandfatherswwiistories grandpa served trained troops wwii said trainer john wayne movie troops'
p195
aS'forgot speeds healing dont gelpack frozen peas back 1015 every helps'
p196
aS'chiropractor patient threw back brushing teeth youre dorkiest prayers'
p197
aS'today history dolly madison saved portrait george washington british could enter 1814'
p198
aS'federal government people employing someone department homeland security whose'
p199
aS'disgusting 89yearold world veteran beaten death black teens'
p200
aS'fightlikeagirl mexicos women arms'
p201
aS'aggrandizement obama presidency kind cooing sighing never happened bush'
p202
aS'nerd brains work'
p203
asS'2013_15'
p204
(lp205
S'minds pass meddevicetax bill says'
p206
aS'thatcher \xe2\x80\x9cfreakishly correct\xe2\x80\x9d euro greenroom'
p207
asS'2013_32'
p208
(lp209
S'natural progression'
p210
aS'possible holster inadvisable possible'
p211
aS'piece youth arent finding jobsnot word obama obamacare higher taxes regs word'
p212
aS'excuse presidentwould mind working parttime'
p213
aS'record youre forced close record amount embassies enemy isnt'
p214
aS'obamacareisworking destroy finest health care system world exactlyasplanned'
p215
aS'obamacareisworking well alec baldwins anger therapy'
p216
asS'2013_31'
p217
(lp218
S'dang thought costco halloween costumes store july'
p219
aS'blacklists cant concern everybody knows cons make blacklists sarc'
p220
aS'must'
p221
asS'2013_30'
p222
(lp223
S'hispanic neighbor 27yo woman came tell shes removed obama bumper sticker'
p224
asS'2013_19'
p225
(lp226
S'hell another vote obamacare vote repeal medical devices'
p227
asS'2013_18'
p228
(lp229
S'jenny hate running possums colleen maybe call popsums'
p230
aS'benghazi hearing share help spread word'
p231
asS'2013_39'
p232
(lp233
S'selection bulwerlytton prize winners classic'
p234
aS'wwii soldiers letter reaches daughter seven decades later'
p235
asS'2013_38'
p236
(lp237
S'adding taxes chart would open eyes turn many dems lefties dont like'
p238
aS'headline hungry america remember terri schaivo'
p239
aS'matter else doesnt done complete fixed paper towel dispenser work aaaahh'
p240
asS'2008_51'
p241
(lp242
S'temp look plus christmas song enjoy'
p243
aS'book recommendation gift fear'
p244
aS'finished posting receiving poetic justice'
p245
aS'cool aurora borealis video disturbing nasa news'
p246
asS'2013_33'
p247
(lp248
S'hour windows cable must hate whites makes wait hours oprah cancel press conference'
p249
aS'hike deep woods maybe find country back broken discover havent heard'
p250
aS'putin offer hold summit obama rodeo clown'
p251
aS'local wont serve filner stepintoawesome respect lunch'
p252
as.