(dp0
S'2013_42'
p1
(lp2
S'know youre love cant fall asleep reality finally better dreams\xe2\x80\x9dmy favorite quote ever'
p3
aS'finally watching breakfast club'
p4
aS'done psats'
p5
aS'seriously everyone needs need something nope back alone'
p6
aS'good night home psats morning wish luck'
p7
aS'victory paramus'
p8
aS'risky buisness paramus game today'
p9
aS'gotta love quirk says dont rock wall stand wont start thank made'
p10
aS'dont even anymore'
p11
aS'gotta love toueykay nothing period'
p12
aS'happy birthday amazing brother ever already love much always mehave great'
p13
aS'always stand'
p14
asS'2013_43'
p15
(lp16
S'sleeping problems away'
p17
aS'keep saying course wont nothing push start'
p18
aS'loosing everything'
p19
aS'done'
p20
aS'hell thing pins'
p21
aS'never realize gone'
p22
aS'always better also always worse'
p23
aS'shoulder gone haha'
p24
asS'2013_40'
p25
(lp26
S'want sleep'
p27
aS'tired'
p28
aS'cant wait next weekend'
p29
aS'long tournament time food'
p30
aS'friday night plans\xf0\x9f\x91\x8c'
p31
aS'wanna talk'
p32
aS'everything'
p33
aS''
p34
aS'yeah still mealz week surprised took long'
p35
aS'haha like trying week anything'
p36
aS'hmmm starting sick wonder sick'
p37
aS'miley cyrus night'
p38
ag34
aS'well'
p39
aS'thankssss'
p40
aS'think much night'
p41
aS'forget past move future'
p42
aS'told next backwoods wear garlic necklace ward away people'
p43
aS'falling apart'
p44
aS'tuesday wednesday friday saturday volleyball games tournament'
p45
aS'october\xf0\x9f\x8d\x82\xf0\x9f\x8d\x83\xf0\x9f\x8d\x81 fall'
p46
aS'breast cancer awareness month tomorrow'
p47
aS'forget haters somebody loves miley cyrus'
p48
aS'listening bangerz'
p49
aS'mileys albumgt'
p50
aS'perks wallflower saddest best movies'
p51
asS'2013_41'
p52
(lp53
S'love deep fight hard trust much forgive often learn grow strong'
p54
aS'would anything girls'
p55
aS'life like chocolates never know gonna'
p56
aS'thats'
p57
aS'forrest'
p58
aS'forrest gump\xf0\x9f\x98\x8d\xf0\x9f\x98\x8d\xf0\x9f\x98\x8d\xf0\x9f\x98\x8d'
p59
aS'cant wait brother tomorrow'
p60
aS'like even'
p61
aS'whats wrong baby text'
p62
aS'think know everything really dont know anything'
p63
aS'done cant deal'
p64
aS'done'
p65
aS'people need life ones need'
p66
aS'bangerz'
p67
aS'yeah'
p68
aS'gotta love ridgewood girls'
p69
aS'haha happens'
p70
aS'official tendinitis'
p71
aS'hahaha'
p72
aS'dont talk shit family sitting right hear'
p73
asS'2013_46'
p74
(lp75
S'tweets you\xf0\x9f\x98\x8dgtgt'
p76
aS'maybe dont hurts maybe wont feel maybe dont show care'
p77
aS'would dinner 1100'
p78
aS'first physical therapy shock thats cool'
p79
aS'well course'
p80
aS'universe planets countries islands seas billion people don\xe2\x80\x99t person fuck mood'
p81
aS'someone tickles neck like'
p82
aS'enjoy life fake change every seconds'
p83
aS'adorable'
p84
aS'craving cookie dough'
p85
aS'wish delete button life delete people memories feelings'
p86
aS'cold house'
p87
aS'poison poison part cashew family snapple factgtgt'
p88
aS'thats cool'
p89
asS'2013_47'
p90
(lp91
S'wonderful type whole essay deleted'
p92
aS'coming home tomorrow'
p93
aS'sorry'
p94
aS'come'
p95
aS'perfection'
p96
ag34
aS'happy birthday princess great love'
p97
aS'thou love know love'
p98
aS'sometimes cant deal'
p99
aS'free anyone'
p100
aS'hakuna matata swahili phrase literally translates worries'
p101
aS'always'
p102
aS'youre closest heaven ever'
p103
aS'love'
p104
aS'dont really wanna start something'
p105
aS'girls always search drama ltlt'
p106
aS'elite'
p107
aS'cant wait tomorrow morning'
p108
ag34
aS'physical therapy volleyball tryouts'
p109
aS'yippee sick'
p110
aS'yeeeaaapp'
p111
aS'thanks'
p112
aS'would never hurt'
p113
aS'hahaha nahhh good'
p114
aS'never fall asleep upset'
p115
aS'face'
p116
aS'tweetabondthatcantbebroken'
p117
aS'would make anyone think'
p118
aS'fallen fool\xf0\x9f\x91\x8d'
p119
aS'basically'
p120
aS'someone actually wants would cool\xf0\x9f\x91\x8c'
p121
aS'advil ready tryout hope shoulder fail'
p122
asS'2013_44'
p123
(lp124
S'thank'
p125
aS'amused'
p126
aS'people'
p127
aS'need catch'
p128
aS'pinky promise originally indicated person breaks promise must pinky finger'
p129
ag34
aS'come'
p130
aS'three'
p131
aS'dammit purple hearts'
p132
aS'jacked scranton sweatshirt'
p133
aS'miss miss smile'
p134
aS'gotta love'
p135
aS'people help hard times truly care'
p136
aS'true'
p137
aS'missing good days'
p138
aS'idek whats going anymore'
p139
aS'painful times always someone'
p140
aS'thankful'
p141
asS'2013_45'
p142
(lp143
S'money literally fell shirt'
p144
aS'nope defiantly'
p145
aS'yeahhh guess'
p146
aS'dont even know'
p147
aS'sorta talking someone'
p148
aS'ummmm nahh'
p149
aS'literally took today still tired'
p150
aS'save'
p151
aS'time\xf0\x9f\x91\x8d\xf0\x9f\x98\xb4'
p152
aS'good break thank isnt'
p153
aS'cant promise things perfect swear never leave'
p154
aS'sometimes wanna tell everythinghow feel much mean mehow much care'
p155
aS'like great great great great great great great great great great great great aunt'
p156
aS'three words everything learned life goes'
p157
aS'brownies take cook still dont turn right'
p158
aS'finally watching mean girls'
p159
aS'always mind'
p160
aS'always mood smoothie'
p161
aS'dont picky surprise happy'
p162
aS'ummm'
p163
aS'exactly'
p164
aS'last school break\xf0\x9f\x91\x8c'
p165
aS'stay strong make wonder youre still smiling'
p166
aS'thanks'
p167
aS'nothing impossible word says possible\xe2\x80\x9d'
p168
aS'course alarm goes'
p169
asS'2013_48'
p170
(lp171
S'everyones tweeting amas like lazyass'
p172
asS'2013_37'
p173
(lp174
S'past past made mistakes learned'
p175
aS'much drama'
p176
aS'guns ment poke people'
p177
aS'cant tiger'
p178
aS'course actually time weekend'
p179
aS'pain'
p180
aS'confused'
p181
aS'driving storm'
p182
aS'back'
p183
aS'knott time home'
p184
aS'sketchy'
p185
aS'power went'
p186
aS'baby'
p187
aS'text cant help smiling'
p188
aS'heres everyone everyone survived'
p189
aS'hahaha volleyball need hang'
p190
aS'crying releases stress hormones feel better crying\xe2\x80\x9d stressed dont'
p191
aS'write love wrist'
p192
aS'done'
p193
aS'first tweet twitter stupid'
p194
asS'2013_39'
p195
(lp196
S'perfect tomorrowor today guess mall soccer game backwoods'
p197
aS'would floor burn veebsprobs'
p198
aS'least tomorrow friday'
p199
aS'love friends family really mean world'
p200
aS'never hear anyone homework'
p201
aS'tweeted thing done'
p202
aS'saying slaughtered would understatement rich wood'
p203
aS'stressful game ever'
p204
aS'gonna kill girls paramus behind lost bake cake'
p205
aS'killed proud rich wood'
p206
aS'today turned pretty great'
p207
asS'2013_38'
p208
(lp209
S'hahaha love girl'
p210
aS'want'
p211
aS'crying good health flushing unhealthy bacteria body strengthening immune system relieving stre\xe2\x80\xa6'
p212
aS'brother'
p213
aS'many motorcycles'
p214
aS'time sleep'
p215
aS'give keep chasing pavements'
p216
ag34
aS'stop changing length time pick stay'
p217
aS'wait hours'
p218
aS'feel terrible cold'
p219
aS'sick'
p220
aS'good'
p221
aS'awwww alone'
p222
aS'miss babe'
p223
as.