(dp0
S'2013_42'
p1
(lp2
S''
p3
aS'kwena namvela look'
p4
aS'lmao muvuta bafana'
p5
aS'start work'
p6
aS'work hard'
p7
aS'lmao wont talking nomba line'
p8
aS'doesnt even like either grandma cousins'
p9
aS'gosh sick tired watching nigerian movies cant even watch news soooo irritated'
p10
aS'lmao wild using sidneys phone'
p11
aS'even took fixed zelolol'
p12
aS'dead tried already'
p13
aS'dont phone phone fell water died hehehe wont worth drummer'
p14
aS'sembe wabwela weekend recently mean time'
p15
aS'come khonjiwe going'
p16
ag3
aS'watch video know someone kopalol'
p17
aS'remember'
p18
aS'lmao'
p19
ag3
aS'well dont think said right wrong dunno'
p20
aS'growing sigh'
p21
aS'refer negative energy'
p22
aS'yeeah know'
p23
aS'good'
p24
ag3
aS'know invasion privacy though'
p25
aS'lmao yeah mayne'
p26
aS'reading someones text messages kinda give whole perspective'
p27
aS'know convos arent complete without'
p28
aS'miss watching friends alonelol cant even call sister mayne'
p29
aS'christmas list keeps getting longer longer'
p30
aS'first thing wokeup sent text'
p31
ag3
asS'2013_43'
p32
(lp33
S'still home love found place stay going thing'
p34
aS'seche lmao hahahahaha yaba'
p35
aS'think remembr sayn somethn like grade schoollol mayb fancied namedunno'
p36
aS'everything meant everyone'
p37
aS'welibwe yandi precious stone never leave kusiya ruby'
p38
aS'imitation highest form flattery yall tryna like thankyou'
p39
aS'everything changed'
p40
aS'alive youre quiet'
p41
aS'download save many important things phone dies'
p42
aS'thanx'
p43
aS'please gotta'
p44
aS'lecrae says zambia manhattan video whoooop real'
p45
ag3
aS'yeah manye catchy hahahaha'
p46
aS'itll mwali style'
p47
aS'hahhaha scared next thing hear blackout'
p48
aS'hahaha njala'
p49
aS'google baby'
p50
aS'scared women tolerant'
p51
aS'must find making thing user friendly sayn'
p52
aS'facebook lmao'
p53
aS'tina firstbook'
p54
aS'things'
p55
aS'lmao realised hahahahahahaha mistake absent minded'
p56
aS'class meant home cook baby nyamalol'
p57
aS'class independence'
p58
aS'njala yapaya'
p59
aS'shud blackberrynow android dooshbags sendn pins hype'
p60
aS'self praise aint praise'
p61
aS'chii superfan best radio hosts voice\xe2\x98\xba sense humor'
p62
aS'chii superfan best radio hosts'
p63
aS'told dont know mummy'
p64
aS'shes asking like wasnt even born know years bornlol'
p65
aS'thandiwe 1001 questions'
p66
aS'whoz campus'
p67
aS'remember never ever back word full compromises nice dont even know good thing'
p68
aS'love salon lady really pays attention every deal want totally deserves'
p69
aS'december needs hurry'
p70
aS'real cant walk away true'
p71
aS'love'
p72
aS'morning love'
p73
aS'nights like really need'
p74
aS'boredom'
p75
aS'heat driving craaaazzyy'
p76
aS'doesnt make sense meit shud given another name thenu blackberry messengr samsung wtfmy thoughts exactly'
p77
aS'good'
p78
aS'goodmorning'
p79
aS'zambianlogic dont even take time content could possibly addictive'
p80
aS'scaredlol spread rumor hooked years must true like typical zambianlol'
p81
aS'cocacola devils juice come everyone likes zambianlogicand cant without addiction'
p82
aS'company corrupts good morals choose friends wisely'
p83
aS'parents knew miserable school makes usmaybe maybe wouldnt send yesno maybe'
p84
aS'cause fashion doesnt mean look good people shaving half heads carelessly'
p85
aS'49years zambias independence poverty levels exactly celebrating heart whips country'
p86
aS'failure option'
p87
aS'thats idea mayne'
p88
aS'haha word tell means smartphone proper conditionunder development peaklol'
p89
aS'lmao people like lagging behind mukazi belenga guys'
p90
aS'africans complacent conservative thats developed'
p91
aS'womans upppppp aint nothing nothing change mind'
p92
aS'honest thats'
p93
asS'2013_40'
p94
(lp95
S'dating dont trust cool shit yall cool arent yall together'
p96
aS'spend time'
p97
aS'people praise bout singleim sorry stop getting'
p98
aS'booi love spending time sexy gello awww'
p99
aS'construction rightnow'
p100
aS'well mall school soon'
p101
aS'boyfriend'
p102
aS'arent perfect gonna fight sometimes never going stop loving matter much fight'
p103
aS'happy birthday'
p104
aS'naijagreatestxi samsung'
p105
aS'girls want openly thats girlfriend love thatits awesome'
p106
asS'2013_41'
p107
(lp108
S'want keep ssssssshhhh'
p109
aS'spending time sistersinlaw bliss'
p110
aS'think gardener crush talks looks weird'
p111
asS'2013_46'
p112
(lp113
S'yeah take joke youre funny'
p114
asS'2013_47'
p115
(lp116
S'person love trust life love'
p117
asS'2013_44'
p118
(lp119
S'world much feel touch refuge babe'
p120
aS'love doesnt keep record wrong'
p121
aS'turmoil'
p122
aS'strong'
p123
aS'tired'
p124
aS'mosquitoes problem'
p125
aS'seriously considering'
p126
aS'still weighing options though'
p127
aS'epiphany'
p128
aS'think wanna lawyer'
p129
aS'open eyes heart lord want'
p130
aS'dont practice love kwasila mwanya bamambala akashishi catch'
p131
aS'little jealousy relationship healthy always nice know someones afraid lose truth'
p132
aS'unza shakes whole nation shakeslol wait youll celebrating soon'
p133
aS'increment water shortage hear'
p134
aS'unza students'
p135
aS'dont want want money'
p136
aS'really hour'
p137
aS'hehe already guess start wearing often'
p138
aS'hmmm really'
p139
aS'gosh sata pist yesterday raising everybody'
p140
aS'thrz something bout dresses skirtsthe black white horizontally striped ones'
p141
aS'visitors dictate channels watch shock eheh'
p142
aS'unza forever make make anywhere'
p143
aS'hahaha cook'
p144
aS'yeah well guess everywhere difficult good'
p145
aS'make thru unamlife breeezzz shit hard coming unza'
p146
asS'2013_45'
p147
(lp148
S'awesome weekend'
p149
aS'faking friendships greatest strengths dont like know'
p150
aS'heyy'
p151
aS'love'
p152
aS'nalema close year cant blame'
p153
aS'know school sucks mwandi already tired term even starts full swing'
p154
aS'loyalty makes family blood makes related'
p155
aS'important know youre taken advantage'
p156
aS'human mistakes must forgiven'
p157
aS'eishfelt like exam anal know anal like'
p158
aS'need drivers license asap tired using public transport'
p159
aS'kaili identify know besides complaining makes burden easier carrylol'
p160
aS'people deceitful'
p161
aS'feel like turn'
p162
aS'even scared shadow'
p163
aS'friends arent really friends devilsinsheepsclothing'
p164
aS'life taught hard'
p165
aS'pain either change break despite intensity depth'
p166
aS'times badgod still good'
p167
aS'love space'
p168
aS'please gentle fragile break easy'
p169
asS'2013_25'
p170
(lp171
S'hahahahaha become half blood hmmm miss dinner weekend'
p172
ag3
aS'tweeted tweet'
p173
aS'miss even though youre right'
p174
aS'take shud send pics lost mine hard drive reinstalled'
p175
aS'hmmm touched reached heart even good'
p176
aS'thankyou hmmm left touched'
p177
aS'yeah time'
p178
aS'finally made another account hope dont forget password'
p179
asS'2013_26'
p180
(lp181
S'arrive safely'
p182
aS'miss baby swamped school work week'
p183
aS'awww really today'
p184
aS'gives boring lectures bored'
p185
aS'awww come back quick baby missed'
p186
aS'yeah muchlol rush mwandi zambia boring cold'
p187
aS'dont even know donelol miss coming'
p188
aS'mupuzile fast fast'
p189
aS'campus'
p190
asS'2013_27'
p191
(lp192
S'baby really thanx coming need sleep'
p193
aS'busy tweeting church'
p194
aS'know worth rehabtime true'
p195
aS'zewe cant'
p196
aS'done nothing makes wife stop idolizing boyfriends'
p197
aS'comes relationships staying faithful isnt optionits priority'
p198
aS'anyone love shining storm know truly cares'
p199
aS'reality becomes better youve ever dreamed'
p200
aS'good ones'
p201
aS'awww real mwandi time busy sure problem know bring series even'
p202
aS'hehehe youre really looking forward different time kalundu near arcades'
p203
aS'imagine school getting hectic cant wait holidays'
p204
aS'swity'
p205
aS'good'
p206
aS'awesome finally meet yesterday kafue river cliff made'
p207
asS'2013_28'
p208
(lp209
S'love'
p210
aS'okay baby come'
p211
aS'scared first thing told'
p212
aS'hehehe baby'
p213
aS'feel like coming backlol'
p214
aS'baby miss already'
p215
aS'divinity sleep'
p216
aS'whenever feel remember billions cells body care'
p217
aS'forgiving heart itll save alot heartache'
p218
aS'miss baby cant wait'
p219
aS'zeywey waiting'
p220
aS'whats ailol'
p221
aS'public service announcement touch iphone usphone wephone ourphone'
p222
aS'swity whatsapp arent working dunno replied message realised hasnt delivered'
p223
aS'yeah getting alot storrryy waiting'
p224
aS'yeah serious dunno never coke either'
p225
aS'swear coke addiction getting worse everyday'
p226
aS'kept'
p227
aS'finally watched make video good picture quality love'
p228
aS'maybe selfish want cant help'
p229
aS'sure problem need long need girl time mweh'
p230
aS'difficult understand youre playing role'
p231
aS'feeling better took pain killers didnt bunked lectures'
p232
aS'feel like distanced presence spiritual life feels empty'
p233
aS'hands youre thee best'
p234
aS'womanhood call wonder whats joyful crampy stomach'
p235
aS'think know mean went woke serious cramps'
p236
aS'good'
p237
aS'yeah know quite unfair wish read minds something'
p238
aS'pity learn hard'
p239
aS'really cant wait holidays school sucks right'
p240
aS'mind business time dunno people want keep date mine damn time'
p241
asS'2013_29'
p242
(lp243
S'events ability turn around blink'
p244
aS'need strong drink'
p245
aS'good love sorry fell asleep indoors'
p246
aS'habits hard'
p247
aS'maybe throw towel'
p248
aS'okay sure love'
p249
ag3
aS'someone change madly inlove much hate within slipt second'
p250
aS'pick side dont smile turn around talk dirt'
p251
aS'rain'
p252
aS'bani bunka munjila course wouldnt know youre thoughful'
p253
aS'swear everyone needs roomie like room mate tracy girl cracks'
p254
aS'love baby'
p255
aS'life good boyfriend also best friend back like older brothr still wnts like husband'
p256
aS'goodnight swity'
p257
aS'know bout worst kaya thats even wonder whats wrong'
p258
aS'guys'
p259
aS'seen whats even finshi'
p260
aS'okay kewl lmao hate people mean cool'
p261
aS'finances okay baby days good wednesday friday'
p262
aS'hehehe yeah know yeah shud week'
p263
aS'hehehe watched think week'
p264
aS'yeah great movie want'
p265
aS'like pressured dont want aaahhh'
p266
aS'life taught lessons'
p267
aS'live learn'
p268
aS'blueprint'
p269
asS'2013_37'
p270
(lp271
S'happened today couldnt remember dude looked familiar enthused'
p272
aS'like exam stress isnt enough soon well stressing results urrggh'
p273
aS'need retail therapy'
p274
aS'mayne'
p275
aS'mere thought going back school next month gives headache'
p276
aS'attitude sickening'
p277
aS'point dont think tolerate form nonsense disrespect anyone regardless'
p278
aS'youre busy ignoring girlfriend theres another pleading attention fighting friendzone'
p279
aS'hate chikwela ahhh'
p280
aS'mixer hahahaha know'
p281
aS'yeah mayhne'
p282
aS'wakota need start hunting'
p283
aS'dont need chatting enough entertainment make days baybay loll'
p284
aS'happy birthday'
p285
aS'loneliness weakens immune system friends significant others increase immunity'
p286
aS'theres method madness baby\xe2\x98\xba'
p287
asS'2013_36'
p288
(lp289
S'child abuse really high zambia'
p290
aS'body priceless possession youve take care'
p291
aS'friends like really thats'
p292
aS'youre perfect heart thats meant love'
p293
aS'know'
p294
aS'love start thinkn bout sleep'
p295
aS'dating lonely people youre tired lonely puppy growtheheckup'
p296
aS'sidney thats talking hmmm shine baby timeim givn gave card'
p297
aS'lmaosamsung small phones baby hehehe expensive communicating tuma phones'
p298
aS'tend overestimate womens interest women tend underestimate mens interest \xc2\xabtrue'
p299
aS'quite pathetic need move'
p300
aS'chews battery'
p301
aS'need whole total rest disturbances unnecessary chores tomorrow seems like perfect'
p302
aS'lmao'
p303
aS'girls hate guys love'
p304
aS'stop editing pics missing expect find look like beyonce twitter chief'
p305
aS'yearu hvnt good thank todaythankyou lessons lookn greater heights third year'
p306
aS'love caring even youre angry person epiphany'
p307
aS'mxxxxxxxxxxxxxxxxxm argh hate school'
p308
aS'hate feeling weak'
p309
aS'person makes happiest person hurt'
p310
aS'miss'
p311
aS'wonder snooping time come check exam room'
p312
aS'need asap medicals shud early theyre usually long queues'
p313
aS'hahahaha need hobby'
p314
aS'stop lmao'
p315
aS'dont think boredom gets enough blame trouble causes'
p316
aS'stop getting touched stop damn rude time'
p317
aS'thats home sick tired eish'
p318
asS'2013_35'
p319
(lp320
S'think physical things define whats inside'
p321
aS'exams please come baby'
p322
aS'awwww sweeet'
p323
aS'really wanna finish exams spend time'
p324
aS'miss'
p325
aS'tongue back mouth quit twerking dignified woman ordained'
p326
aS'million chances feeling'
p327
aS'must invest bible'
p328
aS'number call never'
p329
aS'knows best leave lord'
p330
aS'tracy shes back love girl'
p331
aS'make commitment 2days betr yesterdays 2mros betr yesterdaysthts daily'
p332
aS'zeal study need motivation'
p333
aS'propaganda'
p334
aS'child high'
p335
aS'first exam tomorrow looking forward'
p336
aS'change want'
p337
aS'boutiques prettiest things broke'
p338
aS'wake smell perfume everywhere room didnt thieving broad daylight'
p339
aS'devil liar'
p340
aS'hehehe love tweet'
p341
aS'dont infact never mistake kindness weakness'
p342
aS'iyee miley shamelol'
p343
aS'seen pics'
p344
aS'stress gonna tests'
p345
aS'known earlier easy course'
p346
asS'2013_34'
p347
(lp348
S'love'
p349
aS'cant island need friends blessing'
p350
aS'hahahaha iyee imagine miss staying guys mwandi'
p351
aS'stop crying problem seat think'
p352
aS'originally created good conscious good'
p353
aS'whats wrong'
p354
aS'reality check'
p355
aS'fast mamilol'
p356
aS'level everyone adult dunno pipo come play mother rily interestedi home miss'
p357
aS'lmao tracy love girl'
p358
aS'lord help please need ever'
p359
aS'lmao mwandi chilamo chikwela upset mweh'
p360
aS'mind business please theres reason dont call friend dont wish engage personal endeavors mxxxxim'
p361
aS'saviour beckons heavens open door'
p362
aS'yeah thts plan studying rightnow'
p363
aS'colour intimidating often considered colour winners favorite colour'
p364
aS'subconsciously attracted display signs high intelligence level similar'
p365
aS'need start using brain full capacity working long'
p366
asS'2013_33'
p367
(lp368
S'filming fast cars destroyed'
p369
aS'didnt create average didnt make barely created exce\xe2\x80\xa6'
p370
aS'little girls like nicki minajladies like alicia keys'
p371
aS'sent jesus christ price sins deliver live burden'
p372
aS'work hard play hard youre smart work hard youll play later'
p373
aS'dunno people like think unapproachable maybe sending wrong messages signals reserve'
p374
ag3
aS'dont point brotheror buzz thereof neither'
p375
asS'2013_32'
p376
(lp377
S'awww miss told spotted marshlands last week touched pitililad place'
p378
aS'good come online'
p379
asS'2013_31'
p380
(lp381
S'studying problem'
p382
aS'entangled world'
p383
aS'hasnt easy literally feeling empty late admit cant live without love jesus forgive'
p384
aS'leaning understanding long dunno even happened'
p385
aS'afraid made small eyes lord forgive'
p386
aS'shit real eish'
p387
aS'running things miss insane'
p388
aS'lost without'
p389
aS'longest 7hours life felt like eternity'
p390
ag3
aS'wear short skirt name list lmao'
p391
aS'people treat direct reflection feel'
p392
asS'2013_30'
p393
(lp394
S'tonight'
p395
aS'youll ngwerere'
p396
aS'enough'
p397
aS'enough'
p398
aS'hehehe next time guess going visit lusa school visiting weekend'
p399
aS'yaba youve missed free foodlol whoz braii'
p400
aS'imagine sids waiting aunt going chisamba'
p401
aS'miss whats'
p402
aS'good love'
p403
aS'love sits watches till start looking like giant stuffed boobs'
p404
aS'studying hours test proper gunning lets goes'
p405
asS'2013_39'
p406
(lp407
S'preview result either decisions would nice really nice'
p408
aS'thanx love'
p409
aS'youre mindful alive praises glory unto name high thankyou'
p410
ag3
aS'first part tweet invalid ndiye moral decay yamene kambapo iyilol'
p411
aS'media really destroyed morals principles suddenly engage immoral behavior name cool shame'
p412
aS'share food means care'
p413
aS'upsetting christianity downgraded motivational package help people rich'
p414
aS'anti malaria'
p415
aS'eish malaria checked'
p416
aS'week worst chilanga stay home alone whats wrong'
p417
aS'hehe dont think used bored feeling everyday'
p418
aS'real need hands someone gives lelo home super boring'
p419
aS'watched seasons think season finale right'
p420
aS'okay want aswell managed download episode season yesterday season downloading'
p421
aS'link episodes trying download aswell tripping'
p422
aS'follow love games twitter theyve posted link weeks episode'
p423
aS'legs'
p424
aS'even seasonal people come life reason often teach lesson leave'
p425
aS'small world careful'
p426
aS'thnk illuminati rily takn advntage thesedaystheyr using metaphors displayn evil facesshame'
p427
aS'person like says like someone else would moeck cool bouta multi'
p428
aS'cant imagine seating unza lecture theaters heat next term'
p429
aS'type person lets opinion sentiment something known right away'
p430
aS'home plain boring'
p431
aS'bored'
p432
aS'lmao friend life'
p433
aS'yeah shud life wouldnt time getting involved peoples business'
p434
ag3
aS'people make business know everyones business ltltlt theyre annoying life'
p435
aS'things'
p436
aS'great movie must couldnt help thinking tryn tell something'
p437
ag3
ag3
aS'watching rightnow seems nice'
p438
ag3
asS'2013_38'
p439
(lp440
S'hate liars fabricating stories based assumptions dude life stop involved others'
p441
aS'disorganized government'
p442
aS'kasperky'
p443
aS'boredom'
p444
aS'wasnt facebook probably never remember anyones birthday minelool'
p445
aS'mmmh shes equally lazy'
p446
aS'yeah start soon buuut struggle early please laziness badlol'
p447
aS'cant even climb single flight stairs without heart racing fast like running'
p448
aS'really need start exercising body frail'
p449
aS'better'
p450
aS'seche busy tweetn youre ignoring msgs whatsapp okay'
p451
aS'need hobby'
p452
aS'wonder guys used hold middle walking kuma 2002that wrong'
p453
aS'want milkshake'
p454
aS'didnt choose heart'
p455
aS'whenever assignment given little inside'
p456
ag3
aS'lord never left always catch fall believe jesus rescued'
p457
as.