(dp0
S'2013_43'
p1
(lp2
S'closeupforeversummer lets enjoy moment ughh dami'
p3
aS'sama niyo'
p4
aS'closeupforeversummer summer love'
p5
aS''
p6
aS'closeupforeversummer summer love'
p7
aS'closeupforeversummer summer love'
p8
aS'closeupforeversummer summer love'
p9
aS'closeupforeversummer summer love'
p10
aS'closeupforeversummer summer love'
p11
aS'closeupforeversummer summer love'
p12
aS'closeupforeversummer summer love'
p13
aS'closeupforeversummer summer love'
p14
aS'closeupforeversummer summer love'
p15
aS'closeupforeversummer summer love'
p16
aS'closeupforeversummer summer love'
p17
aS'closeupforeversummer summer coming lets party'
p18
aS'closeupforeversummer summer coming lets party'
p19
aS'closeupforeversummer friends going except give free ticxpls'
p20
aS'yaaa'
p21
aS'closeupforeversummer summer love'
p22
aS'closeupforeversummer summer love'
p23
aS'closeupforeversummer summer love'
p24
aS'closeupforeversummer summer love'
p25
aS'closeupforeversummer summer love'
p26
aS'closeupforeversummer summer love'
p27
aS'closeupforeversummer summer love'
p28
aS'closeupforeversummer summer love'
p29
aS'want plsss'
p30
aS'want closer ever giving away free vipgold tickets closeupforeversummer keep tweets coming\xe2\x80\xa6'
p31
aS'closeupforeversummer summer love'
p32
aS'closeupforeversummer summer love'
p33
aS'closeupforeversummer summer love'
p34
aS'closeupforeversummer summer love'
p35
aS'closeupforeversummer summer love'
p36
aS'closeupforeversummer summer love'
p37
aS'closeupforeversummer summer love'
p38
aS'closeupforeversummer summer love'
p39
aS'closeupforeversummer help'
p40
aS'closeupforeversummer would love share'
p41
aS'closeupforeversummer lets party'
p42
aS'closeupforeversummer would love share'
p43
aS'closeupforeversummer yeaaaah gurl'
p44
aS'closeupforeversummer celebrate'
p45
aS'closeupforeversummer leggo party2'
p46
aS'closeupforeversummer lets party'
p47
aS'closeupforeversummer lets enjoy moment'
p48
aS'closeupforeversummer wont stop'
p49
aS'closeupforeversummer wont give untill'
p50
aS'closeupforeversummer sugod sugod'
p51
aS'closeupforeversummer'
p52
aS'closeupforeversummer'
p53
aS'okay gnun tlga milyonmilyong pumila para magaudition yung kukunin nila'
p54
aS'help kita menjual baju rajut hoodie berkualitas murah check'
p55
aS'kayo nagaudition davao'
p56
aS'closeupforeversummer'
p57
aS'closeupforeversummer'
p58
aS'closeupforeversummer'
p59
aS'closeupforeversummer'
p60
aS'closeupforeversummer'
p61
aS'closeupforeversummer'
p62
aS'closeupforeversummer'
p63
aS'closeupforeversummer'
p64
aS'closeupforeversummer'
p65
aS'closeupforeversummer'
p66
aS'closeupforeversummer'
p67
aS'closeupforeversummer'
p68
aS'closeupforeversummer'
p69
aS'closeupforeversummer'
p70
aS'closeupforeversummer'
p71
aS'closeupforeversummer'
p72
aS'closeupforeversummer'
p73
aS'closeupforeversummer'
p74
aS'closeupforeversummer'
p75
aS'closeupforeversummer'
p76
aS'closeupforeversummer'
p77
aS'closeupforeversummer'
p78
aS'closeupforeversummer'
p79
aS'closeupforeversummer'
p80
aS'closeupforeversummer'
p81
aS'closeupforeversummer'
p82
aS'closeupforeversummer'
p83
aS'closeupforeversummer'
p84
aS'closeupforeversummer'
p85
aS'closeupforeversummer'
p86
aS'closeupforeversummer'
p87
aS'closeupforeversummer'
p88
aS'yeaaa gurl'
p89
aS'masaya party2'
p90
aS'iflood yang closeupforeversummer'
p91
aS'summer party youre alone awesome tickets closeupforeversummer take'
p92
aS'sge2 thank'
p93
aS'ahahaxd nakakatwa tlga nagsabi selfie nahihiya uiii skin friend'
p94
aS'ahahaha thanks yung maganda nadamay ganda'
p95
aS'tpos gurl'
p96
aS'pasend friend kagabi'
p97
aS'send'
p98
aS'moko'
p99
ag6
ag6
aS'uiii upload picx'
p100
aS'welcome apple'
p101
aS'closeupforeversummer'
p102
aS'closeupforeversummer'
p103
aS'closeupforeversummer'
p104
aS'closeupforeversummer'
p105
aS'closeupforeversummer'
p106
aS'closeupforeversummer'
p107
aS'closeupforeversummer'
p108
aS'closeupforeversummer'
p109
aS'closeupforeversummer'
p110
aS'closeupforeversummer'
p111
aS'closeupforeversummer'
p112
aS'closeupforeversummer'
p113
aS'closeupforeversummer'
p114
aS'closeupforeversummer'
p115
aS'closeupforeversummer'
p116
aS'closeupforeversummer'
p117
aS'closeupforeversummer'
p118
aS'closeupforeversummer'
p119
aS'closeupforeversummer'
p120
aS'closeupforeversummer'
p121
aS'closeupforeversummer'
p122
aS'closeupforeversummer'
p123
aS'closeupforeversummer'
p124
aS'closeupforeversummer'
p125
aS'closeupforeversummer'
p126
aS'closeupforeversummer'
p127
aS'closeupforeversummer'
p128
aS'closeupforeversummer'
p129
aS'closeupforeversummer'
p130
aS'closeupforeversummer'
p131
aS'closeupforeversummer'
p132
aS'closeupforeversummer'
p133
aS'closeupforeversummer'
p134
aS'closeupforeversummer'
p135
aS'closeupforeversummer'
p136
aS'closeupforeversummer'
p137
aS'closeupforeversummer'
p138
aS'closeupforeversummer'
p139
aS'closeupforeversummer'
p140
aS'closeupforeversummer'
p141
aS'closeupforeversummer'
p142
aS'closeupforeversummer'
p143
aS'closeupforeversummer'
p144
aS'closeupforeversummer'
p145
aS'closeupforeversummer'
p146
aS'closeupforeversummer'
p147
aS'closeupforeversummer'
p148
aS'closeupforeversummer'
p149
aS'closeupforeversummer'
p150
aS'closeupforeversummer'
p151
aS'closeupforeversummer'
p152
aS'closeupforeversummer'
p153
aS'closeupforeversummer'
p154
aS'closeupforeversummer'
p155
aS'closeupforeversummer'
p156
aS'closeupforeversummer'
p157
aS'closeupforeversummer'
p158
aS'closeupforeversummer'
p159
aS'closeupforeversummer'
p160
aS'closeupforeversummer'
p161
aS'closeupforeversummer'
p162
aS'closeupforeversummer'
p163
aS'closeupforeversummer'
p164
aS'closeupforeversummer'
p165
aS'closeupforeversummer'
p166
aS'closeupforeversummer'
p167
aS'closeupforeversummer'
p168
aS'closeupforeversummer'
p169
aS'closeupforeversummer'
p170
aS'closeupforeversummer'
p171
aS'closeupforeversummer'
p172
aS'closeupforeversummer'
p173
aS'closeupforeversummer'
p174
aS'closeupforeversummer'
p175
aS'closeupforeversummer'
p176
aS'closeupforeversummer'
p177
aS'closeupforeversummer'
p178
aS'closeupforeversummer'
p179
aS'closeupforeversummer'
p180
aS'closeupforeversummer'
p181
aS'closeupforeversummer'
p182
aS'closeupforeversummer'
p183
aS'closeupforeversummer'
p184
aS'closeupforeversummer'
p185
aS'closeupforeversummer'
p186
aS'closeupforeversummer'
p187
aS'closeupforeversummer'
p188
aS'closeupforeversummer'
p189
aS'closeupforeversummer'
p190
aS'closeupforeversummer'
p191
aS'closeupforeversummer'
p192
aS'closeupforeversummer'
p193
aS'closeupforeversummer'
p194
aS'closeupforeversummer'
p195
aS'closeupforeversummer'
p196
aS'closeupforeversummer'
p197
aS'closeupforeversummer summer lets make happen'
p198
aS'closeupforeversummer summer lets make happen'
p199
aS'closeupforeversummer summer lets make happen'
p200
aS'closeupforeversummer lets witness freshnest beach party ever city'
p201
aS'closeupforeversummer lets witness freshnest beach party ever city'
p202
aS'followers tweets using attached photo hashtag closeupforeversummer vipgold tickets'
p203
aS'hndi gabi dumating'
p204
aS'good morning everyone today brand show lord blessed allforyourgreaterglory'
p205
aS'sama mamaya'
p206
aS'eeeh pareho kami iniisip nakapanuod shes'
p207
aS'sama'
p208
aS'parang gets nlng papuntahin phfw tpos tayu'
p209
aS'ehdiba lang yung ticx gets'
p210
aS'nanalo'
p211
aS'ilan yung ticx'
p212
aS'pwede parewind performance hndi napanuod para tuloy akong nalugi hndi napanuod performance niyo'
p213
aS'hindi napanuod waaaa'
p214
aS'pwede bang irewind performance nila itsshowtime gusto mapanuod'
p215
aS'napanuod'
p216
aS'inlove'
p217
ag6
aS'nyeee okay watcher'
p218
aS'ahahaha luko hndi nainom ahahaha'
p219
aS'invite niyo minsan magbonding kayo nila para masaya'
p220
aS'ahahaha biro namiss kayo kayo nila jesper hope soon'
p221
aS'gagi ahaha namiss kita pero joke kelangan buhay para explore yung world'
p222
aS'naman matagal kita nakikita namiss kita konti ahaha'
p223
aS'ahaha welcome joaquin'
p224
aS'yehey punta tayo ngayung thursday'
p225
aS'ilang tickets baka para sayo'
p226
aS'wala akong natatanggap invite para phfw rapunzel yung nanalo accout'
p227
aS'youre excited webisode smmensfashion exclusive'
p228
aS'wala tayung confirmation'
p229
aS'ticx'
p230
aS'ahahah nakiusap tlga eeeh'
p231
ag6
aS'ahahahaha invite moko plssssssssssss bored bahay'
p232
aS'chuke hndi malandi ahahaha tsaka sanay lalake kasama'
p233
aS'invite kaya minsan magbonding2 kayo'
p234
aS'gsto makita joseph'
p235
aS'welcome'
p236
aS'wala pong email narerecieve yung friend thanks nanalo'
p237
aS'whats'
p238
aS'bryansam'
p239
aS'awkward moment facebook trending twitter getwellsoonfacebook'
p240
aS'getwellsoonfacebook'
p241
aS'hindi dapat facebook dapat getwellsoonfacebook naman deads babalik mamaya haha'
p242
aS'kpop fans sino gusto free super junior concert tickets therealunli realunli'
p243
aS'want kuya pick'
p244
aS'ready kpop fanatics free super junior concert tickets therealunli'
p245
aS'wala kong email narereceive kung pano makuha yung invite phfw yung isang account'
p246
aS'nakakapagod excersie wooooooh'
p247
aS'hungry'
p248
aS'follow smshoesandbags facebook chance'
p249
aS'follow smshoesandbags facebook chance'
p250
aS'follow smshoesandbags facebook chance'
p251
aS'nagbago account'
p252
asS'2013_44'
p253
(lp254
S'retweet follow everyone else retweets gain followers fast teamfollowback ifbgaintrai\xe2\x80\xa6'
p255
aS'family bonding'
p256
aS'punta eneng'
p257
aS'idonate'
p258
aS'sobrang dami damit tuloy alam kung anong isusuot'
p259
aS'lost yung lalakeng paasa manloloko errrg'
p260
aS'danielpadillaroadtour november island cove hotel leisure park kathryn khalil parking'
p261
aS'ride plane free best thing life free living closeupforeversummer'
p262
aS'ride plane free best thing life free living closeupforeversummer'
p263
aS'ride plane free best thing life free living closeupforeversummer'
p264
aS'ride plane free best thing life free living closeupforeversummer'
p265
aS'ride plane free best thing life free living closeupforeversummer'
p266
aS'ride plane free best thing life free living closeupforeversummer'
p267
aS'ride plane free best thing life free living closeupforeversummer'
p268
aS'best summer throwback trip davao free best thing life free living closeupforeversummer'
p269
aS'best summer throwback trip davao free best thing life free living closeupforeversummer'
p270
aS'wuii'
p271
aS'seriouslymy summer fantastic thats dont want miss freshnest beach party ever closeupforeversummer'
p272
aS'giving away pair gold tickets forever summer\xe2\x98\x80\xef\xb8\x8ftell fave summer throwback hashtag closeupforevers\xe2\x80\xa6'
p273
aS'woot woot ready give away free gold tickets closeupforeversummer'
p274
aS'and\xe2\x98\x85rt\xe2\x98\x85if\xe2\x98\x85you\xe2\x98\x85want\xe2\x98\x85followers\xe2\x98\x85happy8thanniversarysuperjuniorawalnovemberwithcumers'
p275
aS'and\xe2\x98\x85rt\xe2\x98\x85if\xe2\x98\x85you\xe2\x98\x85want\xe2\x98\x85followers\xe2\x98\x85happy8thanniversarysuperjuniorawalnovemberwithcumersz'
p276
aS'days till closeupforeversummer remember tickets take guys'
p277
aS'guys'
p278
aS'bahala batman'
p279
aS'ahahaha pagnanalo sama moko'
p280
aS'lets party baby closeupforeversummer'
p281
aS'sumasali jesper ganyan'
p282
aS'benedict kaklase dati'
p283
aS'wala madugas tong closeup pakshit favoritism hndi nanalo'
p284
aS'closeupforeversummer every summer story mine last forever lt3let make happen'
p285
aS'closeupforeversummer every summer story mine last forever lt3let make happen'
p286
aS'closeupforeversummer every summer story mine last forever lt3let make happen'
p287
aS'closeupforeversummer every summer story mine last forever lt3let make happen'
p288
aS'closeupforeversummer every summer story mine last forever make happen'
p289
aS'closeupforeversummer every summer story mine last forever make happen'
p290
aS'closeupforeversummer every summer story mine last forever make happen'
p291
aS'closeupforeversummer summer story mine last forever make happen'
p292
aS'closeupforeversummer every summer story mine last forever make happen'
p293
aS'closeupforeversummer every summer story mine last forever make happen'
p294
aS'tulungan moko'
p295
aS'waaa antay pagnanalo makakapunta tayong dalawa pray mapili'
p296
aS'push tiwala'
p297
aS'closeupforeversummer every summer story mine last forever'
p298
aS'closeupforeversummer every summer story mine last forever'
p299
aS'closeupforeversummer every summer story mine last forever'
p300
aS'closeupforeversummer every summer story mine last forever'
p301
aS'closeupforeversummer every summer story mine last forever'
p302
aS'closeupforeversummer every summer story mine last forever'
p303
aS'closeupforeversummer every summer story mine last forever'
p304
aS'closeupforeversummer every summer story mine last forever'
p305
aS'closeupforeversummer every summer story mine last forever'
p306
aS'leznupar'
p307
aS'closeupforeversummer every summer story mine last forever'
p308
aS'closeupforeversummer every summer story mine last forever'
p309
aS'closeupforeversummer every summer story mine last forever'
p310
aS'closeupforeversummer every summer story mine last forever'
p311
aS'closeupforeversummer every summer story mine last forever'
p312
aS'freefollow must following though checking'
p313
aS'closeupforeversummer every summer story mine last forever'
p314
aS'closeupforeversummer every summer story mine last forever'
p315
aS'closeupforeversummer every summer story mine last forever'
p316
aS'closeupforeversummer every summer story mine last forever'
p317
aS'closeupforeversummer every summer story mine last forever'
p318
aS'closeupforeversummer every summer story mine last forever'
p319
aS'closeupforeversummer every summer story mine last forever'
p320
aS'closeupforeversummer every summer story mine last forever'
p321
aS'closeupforeversummer summer story mine last forever'
p322
aS'closeupforeversummer every summer story mine last forever'
p323
aS'closeupforeversummer every summer story mine last forever'
p324
aS'closeupforeversummer every summer story mine last forever'
p325
aS'closeupforeversummer every summer story mine last forever'
p326
aS'closeupforeversummer every summer story mine last forever'
p327
aS'closeupforeversummer every summer story mine last forever'
p328
aS'closeupforeversummer every summer story mine last forever'
p329
aS'closeupforeversummer every summer story mine last forever'
p330
aS'closeupforeversummer every summer story mine last forever'
p331
aS'closeupforeversummer every summer story mine last forever'
p332
aS'closeupforeversummer every summer story mine last forever'
p333
aS'closeupforeversummer every summer story mine last forever'
p334
aS'closeupforeversummer every summer story mine last forever'
p335
aS'closeupforeversummer every summer story mine last forever'
p336
aS'thank lord'
p337
aS'closeupforeversummer every summer story mine last forever'
p338
aS'closeupforeversummer every summer story mine last forever'
p339
aS'closeupforeversummer every summer story mine last forever'
p340
aS'closeupforeversummer every summer story mine last forever'
p341
aS'closeupforeversummer every summer story mine last forever'
p342
aS'closeupforeversummer every summer story mine last forever'
p343
aS'closeupforeversummer every summer story mine last forever'
p344
aS'closeupforeversummer every summer story mine last forever'
p345
aS'closeupforeversummer every summer story mine last forever'
p346
aS'closeupforeversummer every summer story mine last forever'
p347
aS'closeupforeversummer every summer story mine last forever'
p348
aS'closeupforeversummer every summer story mine last forever'
p349
aS'closeupforeversummer every summer story mine last forever'
p350
aS'closeupforeversummer every summer story mine last forever'
p351
aS'closeupforeversummer every summer story mine last forever'
p352
aS'closeupforeversummer every summer story mine last forever'
p353
aS'closeupforeversummer every summer story mine last forever'
p354
aS'closeupforeversummer every summer story mine last forever'
p355
aS'closeupforeversummer every summer story mine last forever'
p356
aS'closeupforeversummer every summer story mine last forever'
p357
aS'closeupforeversummer every summer story mine last forever'
p358
aS'closeupforeversummer every summer story mine last forever'
p359
aS'closeupforeversummer every summer story mine last forever'
p360
aS'closeupforeversummer every summer story mine last forever'
p361
aS'closeupforeversummer every summer story mine last forever'
p362
aS'closeupforeversummer every summer story mine last forever'
p363
aS'closeupforeversummer every summer story mine last forever'
p364
aS'closeupforeversummer every summer story mine last forever'
p365
aS'closeupforeversummer every summer story mine last forever'
p366
aS'closeupforeversummer every summer story mine last forever'
p367
aS'closeupforeversummer every summer story mine last forever'
p368
aS'closeupforeversummer every summer story mine last forever'
p369
aS'closeupforeversummer every summer story mine last forever'
p370
aS'closeupforeversummer every summer story mine last forever'
p371
aS'closeupforeversummer every summer story mine last forever'
p372
aS'closeupforeversummer join celebrate freshnest beach party ever'
p373
aS'closeupforeversummer join celebrate freshnest beach party ever'
p374
aS'closeupforeversummer join celebrate freshnest beach party ever'
p375
aS'closeupforeversummer join celebrate freshnest beach party ever'
p376
aS'closeupforeversummer join celebrate freshnest beach party ever'
p377
aS'closeupforeversummer join celebrate freshnest beach party ever'
p378
aS'closeupforeversummer join celebrate freshnest beach party ever'
p379
aS'closeupforeversummer join celebrate freshnest beach party ever'
p380
aS'closeupforeversummer join celebrate freshnest beach party ever'
p381
aS'closeupforeversummer join celebrate freshnest beach party ever'
p382
aS'closeupforeversummer lets celebrate party freshnest beach party ever'
p383
asS'2013_45'
p384
(lp385
S'want live manila concert tickets odysseyonerepublicmanila'
p386
aS'want live manila concert tickets odysseyonerepublicmanila'
p387
aS'want live manila concert tickets odysseyonerepublicmanila'
p388
aS'want live manila concert tickets odysseyonerepublicmanila'
p389
aS'want live manila concert tickets odysseyonerepublicmanila'
p390
aS'want live manila concert tickets odysseyonerepublicmanila'
p391
aS'want live manila concert tickets odysseyonerepublicmanila'
p392
aS'want live manila concert tickets odysseyonerepublicmanila'
p393
aS'want live manila concert tickets odysseyonerepublicmanila'
p394
aS'want live manila concert tickets odysseyonerepublicmanila'
p395
aS'want live manila concert tickets odysseyonerepublicmanila'
p396
aS'want live manila concert tickets odysseyonerepublicmanila'
p397
aS'want live manila concert tickets odysseyonerepublicmanila'
p398
aS'want live manila concert tickets odysseyonerepublicmanila'
p399
aS'want live manila concert tickets odysseyonerepublicmanila'
p400
aS'uiii sali2 closeup bago clang promo'
p401
aS'want special girl kiosk trinoma enriqueforyot\xe2\x80\xa6'
p402
aS'heyyy want special girl kiosk trinoma enriqu\xe2\x80\xa6'
p403
aS'sitting like boss'
p404
aS'ngee ganyan porket bffs'
p405
aS'medyo emotera yung tweets'
p406
aS'anyare apple'
p407
aS'available always seems like always wrong timing'
p408
aS'meron pero silver think wanna join bili lets party'
p409
ag6
aS'best fans'
p410
aS'ayun pupunta'
p411
aS'magonline'
p412
aS'wuiii'
p413
aS'thank blessing godbless'
p414
aS'winner closeupforeversummer pair gold tickets please follow wait'
p415
aS'follow back thank'
p416
aS'thank nafollow kayo'
p417
aS'congratz dear closeupforeversummer'
p418
as.