(dp0
S'2014_32'
p1
(lp2
S'person unfollowed automatically checked'
p3
aS'person followed automatically checked'
p4
asS'2014_31'
p5
(lp6
S'people followed automatically checked'
p7
asS'2014_38'
p8
(lp9
S'people unfollowed automatically checked'
p10
aS'person followed automatically checked'
p11
asS'2014_19'
p12
(lp13
S'also heard cousin going training week marine corps proud fuckyea'
p14
aS'look scary profile image noticed'
p15
aS'john braswells uncles glad meet'
p16
aS'learned younger brother training become united states marine said wanted serve like feel honored'
p17
aS'back another long deployment afghan home'
p18
asS'2014_15'
p19
(lp20
S'thinking thing watched season finale'
p21
aS'well define good'
p22
aS'forgot mention back home'
p23
aS'that\xc2\xb4s cute'
p24
asS'2014_17'
p25
(lp26
S'next season start'
p27
asS'2014_10'
p28
(lp29
S'deployed tomorrow'
p30
aS'damn'
p31
aS''
p32
aS'thank'
p33
aS'leaving deployment tomorrow'
p34
aS'brother'
p35
aS'anyone else crush sadie robinson'
p36
aS'stop fucking hating jesus fucking chirst kinda people fucking fight america'
p37
aS'meant type somethin else'
p38
aS'cant call base good night'
p39
aS'help people retweet'
p40
aS'though walk valley shadow death fear evil baddest motherfucker goddamn valley'
p41
aS'support brothers sisters fight beside'
p42
aS'united states soldier'
p43
aS'well shot times qaeda currently deployed afghanistan time'
p44
aS'well shot times qaeda currently deployed afghanistan'
p45
aS'well shot times qaeda currently deployed afghanistan'
p46
aS'well shot times qaeda currently deployed afghanistan'
p47
asS'2014_11'
p48
(lp49
S'good night'
p50
aS'could talk forever comes faith love heart hearts blessed friends famil\xe2\x80\xa6'
p51
aS'master army proud wished bullet assholes head'
p52
ag32
aS'good night'
p53
aS'back merica months deployment extended'
p54
aS'official afghan'
p55
aS'want'
p56
ag32
aS'sleep beside barracks family seas dontjudgeme'
p57
aS'daryl dixon favorite shane walsh thewalkingdead'
p58
asS'2014_12'
p59
(lp60
S'welcome'
p61
aS'please visit page need something'
p62
asS'2014_13'
p63
(lp64
S'sexiest thing girl personality yeah butt really like butts'
p65
aS'hope feel better'
p66
aS'guys official back long deployment afghan imma deployed soon'
p67
asS'2014_9'
p68
(lp69
S'hoorah'
p70
aS'finished deployment afghanistan might deploying'
p71
aS'pirate past life'
p72
asS'2014_6'
p73
(lp74
S'know feel trust aint nuthin compared'
p75
asS'2014_7'
p76
(lp77
S'oversight gaming cheating'
p78
aS'yoloswag'
p79
asS'2014_4'
p80
(lp81
S'reflex squad roster'
p82
asS'2014_5'
p83
(lp84
S'merle managed killed half dozen walkers still survive zombie apocalypse likeaboss'
p85
aS'happen'
p86
aS'hate'
p87
ag32
aS'thank support deployment afghan final deployment'
p88
aS'people suck'
p89
aS'weeks afghan back home homesweethome'
p90
aS'groan distance scares wait cummins'
p91
aS'problem wish best afghan deployment hopefully last'
p92
aS'think need redneck whitehouse clean mess'
p93
aS'branch army currently fourth deployment'
p94
aS'type cancer'
p95
aS'pack spit show tits'
p96
aS'afghan gettin setup hitting night'
p97
ag32
ag32
aS'nice live monroe'
p98
aS'wait part live'
p99
aS'watching video deployed afghanistan'
p100
aS'deployed afghanistan time please keep prayers'
p101
aS'hope cause deployed time afghanistan'
p102
aS'going onto deployment afghanistan hour need prayers'
p103
aS'deployed hour tired'
p104
aS'need keep prayers safe deployment pray alpha company'
p105
aS'already might twitter going deployment afghan'
p106
aS'agree hard find right southern girl todays world'
p107
aS'shoud something troops like currently heading deployment afghanistan armylife'
p108
aS'deployment afghanistan cant wait home armystrong'
p109
aS'outlaw shoutout video currently serving afghan'
p110
ag32
aS'lord'
p111
aS'nothing wrong'
p112
ag32
aS'talkin bout'
p113
aS'proudtobecountry'
p114
aS'proud south hell'
p115
aS'srry loss'
p116
aS'happen'
p117
aS'creating social media site ideas names stressed'
p118
aS'gamerscore makes contender gold unlock myachievements rewarded'
p119
aS'haha know welcome'
p120
aS'tryhard'
p121
aS'demoted'
p122
asS'2014_29'
p123
(lp124
S'person followed automatically checked'
p125
asS'2014_28'
p126
(lp127
S'account really hacked trojan'
p128
aS'person unfollowed automatically checked'
p129
asS'2014_21'
p130
(lp131
S'fuckyoucancer'
p132
aS'mouth cancers bitch fucky'
p133
ag32
aS'shes beast call karma'
p134
aS'yall crying michael jacksons hologram really billboardawards'
p135
aS'queer'
p136
aS'feel like requires everyone wear certain amount clothes leave'
p137
asS'2014_20'
p138
(lp139
S'know pissed called said couldnt anything like bullshit suspended unsuspend'
p140
aS'said hacking dads week hell'
p141
aS'account suspended xbox live wont able sign xbox live 5302014lt john suspended'
p142
aS'getting real tired bullshit bans'
p143
aS'happened email notify xbox live account privileges temporarily suspended cheating'
p144
aS'would miss deployed great excited'
p145
aS'wait theres season'
p146
aS'getting redeployed week damn redeploymenttoafghan'
p147
asS'2014_23'
p148
(lp149
S'person unfollowed automatically checked'
p150
aS'wondering would like recorders vision gaming'
p151
aS'people followed people unfollowed automatically checked'
p152
aS'chance brand lanyard clinch opticxgames'
p153
aS'people followed people unfollowed automatically checked'
p154
asS'2014_22'
p155
(lp156
S'know pissed read'
p157
aS'fine theres asspicture'
p158
aS'american flag hanging bunk outside base well might morning'
p159
aS'also flag hanging bunk barracks'
p160
aS'plus getting redeployed time month'
p161
aS'military base cant take pics'
p162
aS'wierd'
p163
aS'aint taking pics right sadly'
p164
aS'look kinda like'
p165
ag32
aS'kinda look alike'
p166
aS'dont find love'
p167
aS'whats darkest secret'
p168
aS'heard going redeploy afghan 11th time sometime june announced redeployment armylife'
p169
aS'guys come best friends shouldnt'
p170
aS'help'
p171
ag32
ag32
aS'whats jail'
p172
aS'pretty mermaid'
p173
aS'shoot something mudding itll make feel better'
p174
aS'revive'
p175
aS'good cause brunette huge beard'
p176
ag32
aS'face look like'
p177
aS'would getting deployed'
p178
ag32
aS'gamer follow train follow retweet follow retweet gain active followers'
p179
aS'pretty'
p180
aS'come glued lawn chair home alone'
p181
ag32
aS'little vodka moonshine would good right think'
p182
ag32
aS'well fuck dont getting shoot protect guys freedom'
p183
aS'either glad wasnt'
p184
aS'okay saying death country thats fucking thing dont'
p185
aS'cant wear boots aint goin'
p186
aS'dont like country fucking leave dont want anyways\xe2\x80\x9d'
p187
aS'drink budlight moonshine'
p188
aS'hello soldier also apart army staff sergeant'
p189
ag32
aS'plus nice'
p190
aS'best'
p191
aS'pick'
p192
aS'show amateur'
p193
aS'think positive'
p194
aS'cant sleep legs covers'
p195
aS'mean'
p196
aS'asked question'
p197
aS'keeps getting better better also dirtier'
p198
aS'well start sweating gasping breath legs start quivering'
p199
aS'looks like cats'
p200
aS'daisy beautiful women must'
p201
aS'problem always shooting range lifts spirit'
p202
aS'thats good dont forget shoot something'
p203
aS'maybe never know'
p204
aS'youll fine time happens stronger stronger learn mistakes'
p205
ag32
ag32
aS'pics'
p206
aS'tell said army strong soldier'
p207
aS'sorry cousin'
p208
aS'sucks signed paper brother army marines'
p209
aS'diagnosed ptsd hours cant sleep'
p210
aS'posttraumatic stress disorder ptsd type anxiety disorder occur gone extreme emotional trauma'
p211
aS'home suffer nightmares killed lifes lost within company'
p212
aS'cannot explain pain soldier must endure deployment away family friends'
p213
aS'kinda'
p214
aS'thanks'
p215
ag32
aS'would awkward'
p216
ag32
ag32
aS'party'
p217
aS'lets forget moonshine'
p218
aS'vodka little bacardi'
p219
aS'need'
p220
aS'hold'
p221
aS'soldier wish could happen'
p222
aS'thank support troops'
p223
aS'gamer follow train follow gaining retweet follow retweet gain gamer followers'
p224
aS'either gotta wake every morning'
p225
ag32
ag32
aS'commanders asshole hate disrespect introuble'
p226
aS'fuck'
p227
aS'hacked cousin'
p228
aS'female twerk send video'
p229
asS'2014_25'
p230
(lp231
S'people followed automatically checked'
p232
aS'yessss true deployed'
p233
aS'person followed automatically checked'
p234
asS'2014_24'
p235
(lp236
S'people unfollowed automatically checked'
p237
asS'2014_26'
p238
(lp239
S'person followed people unfollowed automatically checked'
p240
ag32
aS'headed kuwait'
p241
aS'people unfollowed automatically checked'
p242
aS'people followed automatically checked'
p243
as.