(dp0
S'2013_42'
p1
(lp2
S'rather hard times together easy apart'
p3
aS'mistake everyone makes think infinite time'
p4
aS'jesus didn\xe2\x80\x99t could religion died could deep intimate personal relationship'
p5
aS'without killing everyday'
p6
aS'stay gtgtgtgtgt'
p7
aS'stoked read book'
p8
aS'cant believe horton freckles likewhat'
p9
aS'lightup skechers bright cant haters'
p10
aS''
p11
aS'getting talk austin tomorrow ltltltlt'
p12
aS'realize grew squidward'
p13
aS'realized phone charger wasnt plugged wall night'
p14
aS'rascal flatts either like like'
p15
aS'tomorrow like today gtgtgtgt'
p16
aS'like last time conversation wasnt yeah thats right first school'
p17
aS'dont even feel like know oomf anymore theyve changed much since summer'
p18
aS'youre definition hypocrite'
p19
aS'someone proud'
p20
aS'wasnt asked times'
p21
aS'went ltltltltlt gtgtgtgtgt'
p22
aS'missing salk family today'
p23
aS'life wouldnt difficult didnt expect things easy'
p24
aS'atheist christian ones right thats others right goes heaven'
p25
ag11
aS'youre gorgeous isaiah'
p26
aS'yall sams hero'
p27
aS'thanks taylor hero'
p28
aS'lessons done learned'
p29
ag11
aS'week'
p30
aS'cant letting happen'
p31
aS'know need'
p32
aS'long time'
p33
aS'excited back papers leadership'
p34
aS'people think okay cuss drink smoke saved never okay'
p35
aS'purpel dinosawr'
p36
aS'learn real friends'
p37
aS'tomorrows busy'
p38
aS'piglet eating cream cone'
p39
aS'love know love'
p40
aS'might weirdest movie ever seen'
p41
aS'need vent fine'
p42
aS'gtgtgtltltltgtgtlt'
p43
aS'youre missing'
p44
aS'breaks heart bestfriend upset'
p45
aS'honestyhour'
p46
aS'alarms worst sound world'
p47
aS'kinda nervous right'
p48
aS'middle school didnt screenshot muted phone'
p49
ag11
aS'funny soon start treating someone theyve always treated okay hows feel'
p50
aS'best part talking boyfriend'
p51
asS'2013_43'
p52
(lp53
S'part legend dies'
p54
aS'probably even retweets'
p55
aS'awwkkkwardd'
p56
aS'real dont excuse jesus wept ever'
p57
aS'belong lord lead lead cross'
p58
aS'fictionaldeathsiwillnevergetover every time'
p59
aS'four hour gtgtgtgtgtgt'
p60
aS'words cant express lucky dating boyfriend'
p61
aS'like'
p62
aS'last night gtgtgtgtgtgt'
p63
aS'sing much someone cant sing'
p64
aS'knew going game would idea'
p65
aS'birthdays good health studies shown people birthdays live longest\xe2\x80\x9d'
p66
aS'broome seals region championship 5148 victory woodruff good centurions'
p67
aS'shout broome football'
p68
aS'austin told call hung'
p69
aS'ready tonight'
p70
aS'hugging'
p71
aS'getting hangout ashlyn first time like months'
p72
aS'gonna cold tonight'
p73
aS'shopping paxton going game ashlyn sweet'
p74
aS'remember shows'
p75
aS'wish austin could emojis'
p76
aS'spartanburgs isnt ratchetness'
p77
aS'gonna cold tomorrow night'
p78
aS'protective best friend thats thing never change'
p79
aS'ways live faith fear'
p80
aS'last school hoeeessss'
p81
aS'house cold'
p82
aS'month days'
p83
aS'arent called like christians called like christ'
p84
aS'love love need need adore'
p85
aS'heres actual picture laminin'
p86
aS'hiccups ltltltltltlt'
p87
aS'feel like force eyes stay open right'
p88
aS'want sushi'
p89
aS'parents think half friends treat parents theyd appreciate'
p90
aS'wide awake right still dont want'
p91
aS'perks dating'
p92
aS'carlie never calls austin name shes always calling horton'
p93
aS'dont wanna wanna smile'
p94
aS'freds bein mean today\xf0\x9f\x99\x8a\xf0\x9f\x98\x92'
p95
aS'hurts like hell girls broke times'
p96
aS'miss screaming fighting kissing rain cursing name youre love'
p97
aS'told matter stay side cause ride whether fail flyyy'
p98
aS'never anyone sleep unhappy well tried tried cant anything'
p99
asS'2013_40'
p100
(lp101
S'didnt think youd catch subtweet'
p102
aS'never understand youve gotta rude people complain likes'
p103
aS'hurts worse dont care\xe2\x80\x9d'
p104
aS'swear parents always'
p105
aS'someone could halloweentown movies thanks'
p106
aS'girlfriend leave alone boyfriend leave alone respect'
p107
aS'name hersheys cause want kiss'
p108
aS'stay baby stay tonight dont leave alone'
p109
aS'past doesnt define relationship jesus defines'
p110
aS'would expect'
p111
aS'dollar every time oomf pissed'
p112
aS'hope feel better'
p113
aS'wanted break walls'
p114
ag11
aS'people rude take pictures people beach post make dont know'
p115
aS'jesus first weekend'
p116
aS'whole night gtgtgtgt'
p117
aS'miss'
p118
aS'seen babies tonight'
p119
aS'favorite person tonight'
p120
aS'fabulous night'
p121
aS'couple zaxbys like stop'
p122
aS'cant deal'
p123
aS'thought close apparently becarefulwhoyoutrust'
p124
aS'kiss hard'
p125
aS'question'
p126
aS'know held door youll mine'
p127
aS'wanna know better'
p128
aS'much need right'
p129
aS'people dont realize good'
p130
aS'wearing leggings spartan high'
p131
aS'true though'
p132
aS'tweeabondthatcantbebroken'
p133
aS'tomorrow library'
p134
aS'definitely cried told oomf'
p135
aS'hearing something absolutely kills like youre fine'
p136
aS'youre even smile even laugh eyes deep inside want'
p137
ag11
aS'really dont like'
p138
aS'second this\xe2\x80\x9d third'
p139
aS'second'
p140
aS'think move back think'
p141
aS'serve awesome'
p142
aS'talking people havent heard since summer gtgtgtgt'
p143
aS'wasnt even okay'
p144
aS'good though'
p145
aS'ready friday'
p146
aS'never disliked someone much life hate'
p147
aS'probably cause never text back'
p148
aS'never disliked someone much life'
p149
aS'ready braces next month'
p150
aS'dont even wanna know'
p151
aS'tough times never last tough people'
p152
aS'prepared worst still praying best'
p153
aS'long especially since stuck hair'
p154
aS'name jesse paper thought misspelled jesus'
p155
aS'things possible'
p156
aS'daph caught subtweet'
p157
aS'uhhh ohhhh'
p158
aS'happens losers steal phone lock hours'
p159
aS'strong things better'
p160
aS'think ahead cause thinking bout forever'
p161
aS'jesus take life'
p162
aS'ready walking dead 13days'
p163
aS'wait october cuddle weather'
p164
aS'nothing ever good enough parents always something wrong\xe2\x80\x9d'
p165
aS'never snapchats more\xf0\x9f\x98\x94'
p166
aS'snap chats'
p167
aS'getting real upset carlie isnt texting back like sent pretty important'
p168
aS'oomf girlfriend whaaaat'
p169
aS'dont think ever sent sister text long'
p170
aS'avoid feelings much possible'
p171
aS'cant make cause legs cramping'
p172
aS'excited friday'
p173
aS'legs hurt right'
p174
aS'feeling whole school idea morning'
p175
aS'takes everything keep mouth closed sometimes right times'
p176
asS'2013_41'
p177
(lp178
S'prettyyyyyyy taylor'
p179
aS'sorry support breast cancer research wearing today'
p180
aS'you\xe2\x80\x99re pretty cute together pretty cute'
p181
aS'guys need realize shit'
p182
aS'much running mind dont understand'
p183
aS'afraid youll find someone prettier smarter cooler taller skinnier nicer calmer clearer stronger better'
p184
aS'vegetable cabbitch'
p185
aS'weekend gtgtgtgtgt'
p186
aS'pass rather talk'
p187
aS'dont hate people reason'
p188
aS'reasons'
p189
aS'honestly'
p190
aS'wonder 2omf thing'
p191
ag11
aS'really thats something youre happy'
p192
ag11
aS'even talking carlie looks tells shut thought bout rude'
p193
aS'even talking carlie looks tells shut'
p194
aS'sounds like karma'
p195
aS'talking austin ltltltlt'
p196
aS'parents crazy tonight'
p197
aS'never push good girl point doesnt care anymore'
p198
aS'want relationship else'
p199
aS'date someone think long term whats point dating someone want temporarily'
p200
aS'thats awkward'
p201
aS'cause raising shoot moon busy gazing stars'
p202
aS'hardly anything thats pink'
p203
aS'school going carlie pink game'
p204
aS'need'
p205
aS'remember wear pink school game friday breastcancerawareness'
p206
aS'calls name yells name hell yelling'
p207
aS'really cant tolerate annoying kidsor loud kidsor kids general shutup'
p208
aS'best friend makes really close friend'
p209
aS'perfect fall engagement would future husband take notes'
p210
aS'weekend gtgtgtgtgt'
p211
aS'wont give even skies rough'
p212
aS'naps school gtgtgtgtgt'
p213
aS'find someone'
p214
aS'tellem taylor'
p215
aS'woman crush wednesday pointless heighten girls selfesteem ruin others realsmart'
p216
aS'thanks mean already knew'
p217
aS'thankyoujesusfor dont know without fight argue sometimes would anything'
p218
aS'ltltltlt cant real'
p219
ag11
aS'good christian person hardest challenges youll ever face cause people going'
p220
aS'knew would jealous'
p221
aS'running mine dayyy'
p222
aS'really want coffee right regret'
p223
aS'dont william still friends since take like year half text back'
p224
aS'fabulous\xf0\x9f\x92\x81'
p225
aS'feel love'
p226
aS'think excited carlie coming home weekend'
p227
aS'prepared worst still praying best'
p228
aS'wish could given everything jesus cant neither jesus gave everyth\xe2\x80\xa6'
p229
aS'must dont along'
p230
aS'gtgtgtgtgtgt'
p231
aS'girl'
p232
aS'people know know laugh'
p233
aS'playing love like game acting like feel'
p234
aS'already judgeme'
p235
aS'amazing people change time'
p236
aS'worst mood dont exactly know'
p237
aS'dumb'
p238
aS'know exactly'
p239
ag11
aS'might pull carlie friday\xf0\x9f\x98\x81\xf0\x9f\x98\x82'
p240
aS'would love redbowl right'
p241
aS'music industry competition naked goodness enough enough people putyoclotheson'
p242
aS'dont make boyfriend every single monday promise'
p243
aS'thank lord bestfriend coming weekend'
p244
aS'raining qtna pleaseno'
p245
aS'make happy fred'
p246
aS'fred cheered though\xf0\x9f\x98\x82'
p247
aS'honestly considering changing churches members current'
p248
asS'2013_46'
p249
(lp250
g11
aS'sometimes good things fall apart better things fall together every story life every'
p251
aS'true friendship walk house wifi connects automatically\xe2\x80\x9d'
p252
aS'given life come'
p253
aS'wont leave side cant leave side'
p254
aS'tide rushes theres figure youll drown'
p255
aS'doesnt make happy youre lying'
p256
ag11
aS'cant stay committed relationship newsflash maybe shouldnt'
p257
aS'dear future husband'
p258
ag11
aS'even though cody arent close anymore fact still listen problems means much'
p259
aS'dont know without'
p260
aS'every know youre away youre right'
p261
aS'woffords campus gtgtgtgt loveit'
p262
aS'tomorrow goes planned gtgtgtgtgt'
p263
aS'furthest thing perfect like everyone know'
p264
ag11
aS'knowing someone always going best feelings'
p265
aS'telllllll belong together'
p266
ag11
aS'currently laying'
p267
aS'standing rain helping cold already'
p268
aS'really looking forward sunday'
p269
aS'want want want'
p270
aS'homework that\xe2\x80\x99s exactly government wants cannot'
p271
aS'weekend greatt'
p272
aS'austin sent gtgtgtgtgt'
p273
aS'shitt best grandpa award'
p274
aS'theres difference confidence cocky'
p275
aS'last night gtgtgtgtgtgt'
p276
aS'able talk boyfriend anything everything gtgtgtgtgtgtgt'
p277
aS'clayton king amazing\xf0\x9f\x99\x8c'
p278
aS'clayton king absolutely amazing tonight hangar best service awhile truly great studen\xe2\x80\xa6'
p279
aS'friends gtgtgt'
p280
aS'gives hardest battles toughest soldiers'
p281
aS'best relationships ones didnt expect ones never even coming'
p282
ag11
aS'believe like believe things seen lewis'
p283
aS'friend secretly hate'
p284
aS'walking class march penguins'
p285
aS'mentionsomeonebeautiful'
p286
aS'well half same\xf0\x9f\x91\xaf'
p287
aS'happens kids dont listen'
p288
aS'twin gorgeously flawless'
p289
aS'love toooooo'
p290
aS'seriously miss'
p291
aS'would miss'
p292
aS'dont even remember wasting tears youuuu'
p293
aS'shut taylor'
p294
aS'latley losing sleep dreaming things could'
p295
aS'crazy thinking mine'
p296
ag11
aS'people could honestly call true friends dont need mention cause know'
p297
aS'bestfred'
p298
aS'mentionatruefriend'
p299
aS'close losing mind right'
p300
aS'baby moving love long youre gone long youre gone gone gone'
p301
aS'people school quiet\xe2\x80\x9d'
p302
aS'married divorce vocabulary'
p303
aS'feel like havent talked austin forever'
p304
aS'tired school need thanksgiving break'
p305
aS'messages sending qtna'
p306
aS'want backkkkk'
p307
aS'wanna know whats cool magnifying others insecurities mask'
p308
aS'fool fool'
p309
aS'duhhhh'
p310
aS'bestfriendtwin yall know\xe2\x9c\x8c'
p311
aS'blessing come least expect need faith'
p312
aS'bigger plan'
p313
aS'whens last time something first time'
p314
aS'future god\xe2\x80\x99s hands worry trustinhim'
p315
aS'still hear calling lord catch falling youve told'
p316
aS'william best listener'
p317
aS'carlie move back spartanburg anytime'
p318
aS'feelings right'
p319
aS'never shocked people nowadays hate fact position'
p320
aS'really notice things without look life jesus look'
p321
aS'hard focus school million things running mind'
p322
aS'want starbucks\xe2\x80\x9d confessionsofawhitegirl'
p323
ag11
aS'ready christmas'
p324
aS'folks'
p325
aS'whatever life gives good strong happy strong walls shake wont break'
p326
aS'lovvvee watching soldier homecomings'
p327
aS'truth'
p328
aS'gods could'
p329
aS'dont feel good'
p330
aS'seeing play little kids attractive thing ever'
p331
aS'wanna friday night'
p332
ag11
aS'mancrushmonday'
p333
aS'forgot miss first block tomorrow'
p334
aS'remember aint 6000 miles home degree heat carryin pounds gear full uniform'
p335
aS'hate someone much time think theyre perfectttttt'
p336
aS'crazy dont even hangout oomf much still trouble'
p337
aS'need another hour sleep'
p338
aS'perksofdatingme love napping cuddling'
p339
aS'ever someone completely honest strong person take everything anything'
p340
asS'2013_47'
p341
(lp342
S'stomach sore coughing much past days'
p343
aS'dont think much hour sleep last night'
p344
aS'feel like everything else failing think last time faith'
p345
ag11
aS'rise calls name sorrow pain'
p346
aS'thankful truths revealing life recently love better life count'
p347
aS'good'
p348
ag11
aS'exactly'
p349
ag11
aS'makes sound like creeper'
p350
aS'figured since usually stay late anyways'
p351
aS'lucky guess'
p352
aS'qtna know awake last night'
p353
aS'fell spell love could deny'
p354
aS'fever minute youre freezing cold next youre burning ltltltltltlt'
p355
aS'hate baby commercial pandora freaks'
p356
aS'remember deserve never settle less'
p357
aS'live today pray tomorrow'
p358
aS'sick weekend went first block come'
p359
aS'home'
p360
ag11
aS'currently laying fever geometry homework whatislife'
p361
aS'latley losing sleep dreaming things could'
p362
aS'comfortable right'
p363
aS'wouldnt even going school werent austin paxton better love'
p364
aS'love heart heart conversations people'
p365
aS'realized havent eaten anything since morning'
p366
aS'wide awake right asleep'
p367
aS'going first block tomorrow coming home knocking back'
p368
aS'mine austin justin paxtons double date gtgtgtgtgt'
p369
aS'seriously amazing boyfriend'
p370
aS'ever someone changed life significantly know purpose'
p371
aS'youth group thing thats every'
p372
aS'comfort zone think christ comfortable cross'
p373
aS'talks today paxton grace byron made feel much better blessed life'
p374
aS'knowing brothers sisters christ amazing cant explain excited'
p375
asS'2013_44'
p376
(lp377
S'fact school hour tomorrow gtgtgtgt'
p378
aS'every girl wants'
p379
aS'ready tomorrow bell'
p380
aS'cant happy without someone questioning'
p381
aS'tall boys short girls cute couple'
p382
aS'given church people dont understand never understand'
p383
aS'dont stop retweeting\xf0\x9f\x92\x9a\xf0\x9f\x92\x9a\xf0\x9f\x92\x9a\xf0\x9f\x92\x9a'
p384
aS'dylan obrien beautiful angel'
p385
aS'dont like time change cause wide awake right'
p386
aS'gotta know parents faith cant heaven'
p387
aS'guide'
p388
aS'want cuddle sleep'
p389
aS'virgo made mind theres probably nothing change'
p390
aS'live life arms wide open'
p391
aS'braces days'
p392
aS'hold tongue much lately'
p393
aS'love sister always german friends'
p394
aS'theyre talkin must something right'
p395
aS'gonna geometry homework ashley gets back'
p396
aS'people talk driving'
p397
aS'ashlyn needs hurry wake'
p398
aS'need\xf0\x9f\x91\x8c'
p399
aS'really wanna love somebody really wanna dance night away'
p400
aS'germans wild everyday'
p401
ag11
aS'still excited everyone wore love shirt school yesterday'
p402
aS'still pencil shavings hair last night'
p403
aS'goodnight message austin sent last night gtgtgt sosweet'
p404
aS'sorta feel german haha'
p405
aS'remember weve come want neither'
p406
aS'life flash eyes make sure worth watching'
p407
aS'petition miley cyrus back last time hannah montana halloween\xe2\x80\x9d'
p408
aS'song brings back sooo many memories'
p409
aS'gonna paxton gets'
p410
aS'think sight getting worse feel like wear glasses time'
p411
aS'bestfriends mean everything'
p412
aS'ifwedate'
p413
aS'birthday coming make twitter name birthday date haha'
p414
aS'hate fact jealous really easily effects mood whole'
p415
aS'waking killer headache always great'
p416
ag11
aS'knocking pencil sharper cabinet'
p417
aS'wonder cleaned mess made german today'
p418
aS'still gets whole time acted like'
p419
aS'short girl problems'
p420
aS'everybody stop acting weird around second happened'
p421
aS'feeling like arent good enough somebody worst feeling'
p422
aS'tell worth perfect'
p423
aS'dont overthink'
p424
aS'want someone stay matter hard'
p425
aS'mampm christmas story cool'
p426
aS'hate guys call girlfriends punkin like orrrr'
p427
aS'text ashlyn paxton excited finding glasses'
p428
aS'seems like bunch people lately'
p429
aS'gave hardest battles strongest fighters\xf0\x9f\x92\x95'
p430
aS'miss bestfred'
p431
aS'ready braces onemoremonth'
p432
aS'dont people life reason wanna take time'
p433
aS'really annoyed right'
p434
aS'come conclusion portion students broome smell like funnel cakes food fires\xe2\x80\x9d'
p435
aS'seriously need study german skit tomorrow'
p436
aS'best friend best friend'
p437
aS'moment feel like giving moment need fight hardest'
p438
aS'actually thought gonna good today guess wrong'
p439
aS'music plays beginning morning news ruins'
p440
aS'month bestfriendboyfriend'
p441
aS'starting rain grrreeeaaattttt'
p442
aS'reasonsifailatbeingagirl pairs uggs'
p443
aS'lyricsthatneedtobeshouted'
p444
aS'ifwedate gonna jealous scared good enough remin\xe2\x80\xa6'
p445
aS'finally strong lord mighty power \xe2\x80\x94ephesians'
p446
asS'2013_45'
p447
(lp448
S'church paxton'
p449
aS'youll things happening everything reason dont question trust gods'
p450
aS'dont worry plan'
p451
aS'giving great advice never taking ltgtltgtltgtltgt'
p452
aS'cant believe stress'
p453
aS'people talking behind back chances youre front'
p454
aS'could wear leggings hoodie everyday'
p455
aS'careful trust devil angel'
p456
aS'theres reason dont tell stuff'
p457
aS'dont even feel like friend people feel like option someone need'
p458
aS'love forehead kisses girl doesnt'
p459
aS'ifwedate want strong tall'
p460
aS'believe jesus christ died sins'
p461
aS'currently laying waiting text never come'
p462
aS'athletes retweet'
p463
aS'headache hell'
p464
aS'peter grew'
p465
aS'take first step faith dont whole staircase take first step martin luther king'
p466
aS'bring troubles come'
p467
aS'impossible keep quiet person saved gave life purpose hisnameisjesus'
p468
aS'planning going church morning shes even going'
p469
aS'people shallow world looks body better personality looks'
p470
aS'hanging oomf last night made realize much miss bestfriends'
p471
aS'looks back behind always'
p472
aS'everyone going gravitopia tonight want'
p473
aS'everyone needs'
p474
aS'wonder\xe2\x80\xa6'
p475
aS'right ltltltltlt'
p476
aS'bring'
p477
aS'walk faith even cannot'
p478
aS'throat hurts'
p479
aS'supposed best part always'
p480
aS'wonder oomf playing basketball year'
p481
aS'whats wrong fred'
p482
aS'youve kidding'
p483
aS'never seemed like missed guess stopped missing tree hill'
p484
aS'cant decide wanna game tonight'
p485
aS'phone playing tricks really might snow wednesday\xf0\x9f\x98\xb3'
p486
aS'clue'
p487
ag11
aS'know oomf didnt turn thought'
p488
aS'time last year honestly dont know thinking'
p489
aS'hope'
p490
ag11
aS'told moved russia'
p491
aS'mean lets state obvious'
p492
aS'said sorry timing\xf0\x9f\x98\x92\xf0\x9f\x98\x82\xf0\x9f\x98\x82'
p493
aS'carlie dont quit hanging gonna fight'
p494
aS'said'
p495
aS'honesty wasnt'
p496
aS'thats messed'
p497
aS'cody missed oclock appointment lmaoo'
p498
aS'seriously deserves endless retweets'
p499
aS'oomf told earlier gtgtgtgtlt'
p500
aS'looking back good memories sometimes hurts\xe2\x80\x9d\xf0\x9f\x99\x8c\xf0\x9f\x99\x8c'
p501
aS'never fight anyone'
p502
aS'actually confusing'
p503
aS'everybody khalil confusing'
p504
aS'seriously choked'
p505
aS'dont know youbut couldnt live life without'
p506
aS'cassidy confusing hecto like'
p507
aS'hello name repeat since home'
p508
aS'youre hard time know youre still living gods done'
p509
aS'think time last year realize grateful everything changed'
p510
aS'great'
p511
aS'ready spend wednesday night right'
p512
aS'jealous type back'
p513
aS'miss honey'
p514
aS'fact told made peoples today gtgtgtgtgtgtgt'
p515
aS'miss pretty self'
p516
aS'dont fucking chase anyone anymore wanna walk life theres door hell even hold open'
p517
aS'oomf never text back night'
p518
aS'mindblown'
p519
aS'worlds oldest goldfish years named'
p520
aS'william better church tonight'
p521
aS'excited church tonight'
p522
aS'asleep last night'
p523
aS'wildcats corbins bleu could start something'
p524
aS'told love would make wanna stay'
p525
aS'difference today regular school sleep late hours work normally'
p526
aS'went facetime carlie realized shes school oops'
p527
aS'much homework need today'
p528
aS'wish still starbucks hillcrest dont side town'
p529
aS'happy birthday'
p530
aS'someone ever'
p531
aS'austin tells text goes'
p532
aS'click picture'
p533
aS'best feeling world knowing person youre love love well'
p534
aS'dont cross oceans people wont even jump puddles'
p535
aS'pleaseee'
p536
aS'bring'
p537
aS'thank goodness someone understands coming'
p538
aS'fact talk austin anything gtgtgtgt bestthing'
p539
aS'lord works mysterious ways understatement'
p540
aS'fred'
p541
aS'knows whats'
p542
asS'2013_25'
p543
(lp544
S'thank love'
p545
aS'making screenshots'
p546
aS'happy birthday love'
p547
aS'love taylor'
p548
aS'arguing right'
p549
aS'hahahaha laugh ignorance'
p550
ag11
ag11
aS'please cooler know'
p551
aS'would love know isnt texting back'
p552
aS'cant make friends dont bullshit'
p553
aS'wasnt'
p554
aS'blessing come raindrop healing comes tears'
p555
aS'excited starting tomorrow'
p556
aS'oomf just\xf0\x9f\x91\x8c'
p557
aS'problem cant stay always forgiving people even dont deserve'
p558
aS'wish didn\xe2\x80\x99t always wear belt jeans'
p559
ag11
ag11
aS'nope haha'
p560
aS'kinda miss waking seeing everybody walking around like theyre dead salklife13'
p561
aS'tall'
p562
aS'already missing salkehatchie great people takemeback'
p563
ag11
aS'come house'
p564
aS'friendships made week something wouldnt trade anything blessed salklife13'
p565
aS'like take time'
p566
aS'great people great experiences great friendships already miss salkehatchie family salklife13'
p567
aS'time start counting days next years salkahatchie salklife13'
p568
aS'really dont want leave salklife13'
p569
ag11
aS'live town everyone claims hate never leave'
p570
asS'2013_26'
p571
(lp572
S'always expect best people always'
p573
aS'every time hear song shine makes think oomf much hates'
p574
aS'florida georgia line perfect summer music'
p575
aS'jump street always'
p576
aS'whatever burns like hell'
p577
aS'text miss actually wanna talk youre bored need someone entertain'
p578
aS'retweet much respect'
p579
aS'people problem celebration really going hate heaven'
p580
aS'probably reason getting worse'
p581
aS'decides check expiration date stuff shes putting expired months'
p582
aS'rude honest'
p583
aS'delete number youre basically deleted life'
p584
aS'girls understand'
p585
aS'love long eyelashes hate touch glasses'
p586
aS'wish oomf would text'
p587
aS'doctors annoy much even though thats wanna older'
p588
aS'wanting wear hair thestruggle'
p589
aS'pretty much'
p590
aS'moms gonna drive today'
p591
aS'didnt come start fight anything tonight'
p592
aS'wanna conjuring'
p593
aS'1069 radio station gtgtgtgtgt'
p594
aS'happy happy wash sins away'
p595
aS'fact alarm didnt church ltltltltltlt'
p596
aS'parents youre like thanks almost forgot douche\xe2\x80\x9d'
p597
aS'fact everything almost back normal gtgtgtgtgtgt'
p598
aS'hate name love name samantha'
p599
aS'tell love even though dont love'
p600
aS'bring drugs baby bring pain'
p601
aS'guess doctors ortho appointment monday morning'
p602
aS'spider bite reason call doctor'
p603
ag11
ag11
aS'stupid spider bite last week ltltltltltlt'
p604
aS'hoora'
p605
aS'yayyyy'
p606
aS'either'
p607
aS'tell time'
p608
aS'anyways'
p609
aS'come hangout'
p610
aS'thanks though'
p611
aS'hell know tweet'
p612
aS'oomf close went camp came back longer talk whathappened'
p613
aS'soon'
p614
aS'seriously drink lemonade chocolate milk time'
p615
aS'chill attitude'
p616
aS'ashley sucks wanting hangout junk'
p617
aS'sister sucks since didnt take beach'
p618
aS'anytime tomorrow whenever fine'
p619
aS'need field soon much stress need gone'
p620
aS'wish ashley carlie could drive'
p621
aS'boys beanies'
p622
aS'sweet movie'
p623
aS'jordan tanner wanting already workout \xe2\x9c\x8bnothappening'
p624
aS'think blue eyes sexyy'
p625
aS'ashley georgia listening station whuut'
p626
aS'dint believe getting even give deserve'
p627
aS'hate people gorgeous think look like trolls something like wish half pretty'
p628
aS'ihatepeoplethat actually dont hate anyone strongly dislike'
p629
aS'kirby'
p630
aS'hate people like hash tags picture theres need'
p631
aS'wonder jordan pitch perfect house'
p632
aS'excited tonight'
p633
aS'brookes rebel'
p634
aS'workout'
p635
aS'dimples attractive'
p636
aS'sucky mood dont know'
p637
aS'half 2013 care'
p638
aS'careful trust devil angel\xe2\x80\x9d'
p639
aS'spider bite getting worse'
p640
aS'want stay night talking someone reading bible together'
p641
aS'ihatepeoplethat think know dont'
p642
aS'dated week dont expect acknowledgement sorrynotsorry'
p643
ag11
aS'spongebob'
p644
aS'fault'
p645
aS'cant talk tonight'
p646
aS'dont short temper tolerance bullshit\xe2\x80\x9d'
p647
aS'mature enough forgive dumb enough trust'
p648
aS'listen dont want boyfriend nobody wants boyfriend sorrynotsorry'
p649
aS'think whenever carlie moves everybody stresses'
p650
aS'wasnt night happen'
p651
aS'hunters gonna listen bitching tonight longlostbestfriend'
p652
aS'imagine'
p653
aS'nobody looking something great everyone staring make mistake'
p654
aS'done fucked lmao'
p655
aS'blew hunters snapchat'
p656
aS'ihatepeoplethat talk week drop another girl waste time'
p657
ag11
aS'really shouldnt miss better still'
p658
aS'sucks'
p659
aS'every time someone texts thinking always proved wrong'
p660
aS'guess 2omf getting back together'
p661
aS'tonighttt kiss like'
p662
aS'tonight last ltltltltlt'
p663
aS'bruno mars'
p664
aS'talk momma ashley gtgtgtgtgtgtgt butseriously'
p665
aS'uncalled'
p666
aS'need start getting ready couch comfortable thestruggle'
p667
aS'getting trouble something didnt butwhatsnew'
p668
aS'take someone whod rather chill watch movies home partier'
p669
aS'hate arguing hate holding shit'
p670
aS'dream last night gtgtgtgtgt'
p671
aS'christians called love judge'
p672
aS'1111'
p673
aS'stop dont miss miss playing emotions know shes moving decide'
p674
aS'oomf gtgtgtgtgt'
p675
aS'dont understand live knowing dont life'
p676
ag11
aS'laugh hard movie everytime watch dontknowwhy'
p677
aS'problem mine sorrynotsorry'
p678
aS'hate people cancel plans last minute like showered shaved legs dare'
p679
aS'thanks'
p680
aS'would like softball baseball relationship'
p681
aS'shouldve never said anything none wouldve happened'
p682
aS'like supposed care dont give'
p683
aS'blessed lord soul soul'
p684
aS'sometimes need'
p685
aS'hate around unhappy people'
p686
aS'nobody break know stands beside'
p687
aS'works sweetest'
p688
aS'hungry'
p689
aS'mentionsomeoneshort'
p690
aS'hopefully seeing bestfriend tomorrow almost weeks'
p691
aS'british voice would never shut'
p692
aS'sorry trying'
p693
aS'girls take pictures laying hell human'
p694
ag11
aS'whys everybody mood tonight qtna'
p695
aS'kids gonna death vbsprobs'
p696
aS'prayer important conversation'
p697
aS'people amaze things'
p698
ag11
aS'single summer'
p699
aS'superhero night tonight idea gonna wear'
p700
aS'song 10000 reasons gtgtgtgtgtgt'
p701
aS'never many tshirts hoodies'
p702
aS'sometimes people place'
p703
aS'hmmm'
p704
aS'want'
p705
aS'thats annoying'
p706
aS'jealous bless delusional heart'
p707
aS'quite sure cell phones athens'
p708
aS'miss oomf close guess everything happens reason'
p709
aS'either pull pants look like idiot inbetweeners'
p710
aS'duhhh'
p711
aS'tonight gtgtgtgtgtgt togaprobz'
p712
aS'retweet mother blessing'
p713
aS'headache ltltltltltlt'
p714
aS'yall niggas really complaining tweeting made unfollow button reason shit'
p715
aS'making love youuu'
p716
aS'carlie dont know'
p717
aS'tonight'
p718
aS'dont understand people move fast'
p719
aS'sore'
p720
aS'mine'
p721
aS'think girl doesnt watch teen wolf dont wrong guys fine'
p722
aS'haha yeah'
p723
aS'awesome'
p724
aS'reading mine sams notes letters highlight night swear cracks bestfrien\xe2\x80\xa6'
p725
aS'feel stupid liking'
p726
aS'trying champ'
p727
aS'youre full shit'
p728
aS'people open snap chats dont send backltltltltltlt nolove'
p729
aS'dont even'
p730
aS'care much time'
p731
aS'dont opinion tell truth'
p732
aS'dont drop dont everything wont'
p733
ag11
aS'today easy doesnt mean give means fight harder'
p734
aS'dont yall love people think know hell goes texts twitter acting like'
p735
aS'snapchat much better texting'
p736
aS'story song praising savior long'
p737
aS'jesus wasnt cool didnt shouldnt strive either\xe2\x9c\x8c'
p738
aS'dont like someone still show tlltlt\xe2\x80\x9d'
p739
aS'bless lord soul worship holy name'
p740
aS'dont want good dont want good enough want cant sleep cant breathe without love'
p741
aS'australian accents'
p742
aS'feel sorry mornin seein morning face\xf0\x9f\x98\x82'
p743
aS'dont want anyone doesnt want'
p744
aS'need learn keep mouth shut'
p745
aS'text youre driving trying last unfinished message find wrapped aroun\xe2\x80\xa6'
p746
aS'thought hated song\xf0\x9f\x98\x82'
p747
aS'alex sent snapchat video singing'
p748
ag11
aS'give reason little bits enough'
p749
aS'person nervous skywire'
p750
ag11
aS'best friend isnt someone whos always someone understands unders\xe2\x80\xa6'
p751
aS'pitch perfectgtgtgt'
p752
asS'2013_27'
p753
(lp754
S'sorry dont come someone else house rude especially helping move indiana'
p755
aS'dont know parents keeping patience people staying house mine gone'
p756
aS'annoyed past days getting extremely'
p757
aS'doesnt play sports'
p758
aS'hate people'
p759
aS'okay'
p760
aS'asking'
p761
aS'need together week'
p762
aS'dont show effort loose'
p763
aS'wish people would take advice'
p764
aS'tomyfuturehusband please'
p765
aS'tired nothing'
p766
aS'hope jerk stole uses find jesus'
p767
aS'doesnt want name chanted doesnt want name paper doesnt want play game love'
p768
aS'sometimes revenge choice youve gotta make'
p769
aS'honestly could date someone wasn\xe2\x80\x99t funny'
p770
aS'amen'
p771
aS'annoyed'
p772
aS'ohhhh'
p773
aS'today'
p774
aS'duhh'
p775
aS'clue'
p776
aS'like know'
p777
aS'happen daily short jokes lmao'
p778
aS'dont understand people like bestfriends dont'
p779
aS'wonder gonna bestfriend tomorrow'
p780
aS'okay could stop shooting fireworks would appreciate thanks'
p781
aS'like friends dont talk every youre still friends even weeks without talking'
p782
aS'jealous'
p783
aS'talent born hahaha'
p784
aS'good catching subtweets'
p785
aS'thanks'
p786
aS'pretty miss girl need together miss guys\xf0\x9f\x98\x94\xf0\x9f\x98\xad'
p787
aS'hate someone thinks theyre always right annoyingaf'
p788
aS'hate song comes reminds'
p789
aS'days walking dead comes back'
p790
aS'matter many times watch pitch perfect never gets'
p791
ag11
aS'best friends'
p792
aS'love miley'
p793
aS'left house like parents would frying'
p794
aS'perfect'
p795
aS'think sick shouldnt doctor thats'
p796
aS'fingers weird like\xe2\x80\xa6\xe2\x80\xa6 arms split smaller arms'
p797
aS'everyone house'
p798
aS'snapchat screwed'
p799
aS'carlies home'
p800
aS'better plans gotta love dont heart distracted things'
p801
aS'seeing hard work makes everything worth'
p802
aS'onetimeatchurchcamp gave life \xf0\x9f\x99\x8f\xf0\x9f\x92\x9csaved'
p803
aS'dont even care'
p804
aS'shinsplints sucks'
p805
aS'paneras tastes awful'
p806
aS'shit gets'
p807
aS'dont know people manages super long hair arms give trying mine femalepains'
p808
aS'ironically person youd take bullet sometimes ends behind'
p809
aS'cute'
p810
aS'well look'
p811
aS'think jessie stalked pictures'
p812
aS'retweet youre south carolina'
p813
aS'best friend best friend'
p814
aS'girl sketchy like house'
p815
aS'annoyed right dont even know'
p816
aS'please explain taking longest possible'
p817
aS'cant wait oomf'
p818
aS'removed emoji beside name phone definitely firstworldproblems'
p819
aS'shows timeline retweet respect'
p820
aS'blessed wake morning godfirst'
p821
aS'long rides starting'
p822
aS'mean always whatever makes happy'
p823
aS'like conversations dont think comes naturally'
p824
aS'baseball pants'
p825
aS'someonewhomeansalottoyou missyousomuch'
p826
aS'patents living room partying friends sitting like'
p827
aS'deserves endless retweets'
p828
aS'duhh haha miss'
p829
aS'mentionsomeoneimportantforyou longlostbestfriend'
p830
aS'guys last concern right sorrynotsorry'
p831
aS'mentionsomeoneimportantforyou'
p832
aS'house'
p833
aS'bein talked right'
p834
aS'mentionsomeoneimportantforyou everyone else salklife13 group'
p835
aS'thanks'
p836
aS'mentionsomeoneimportantforyou'
p837
aS'america sure know party'
p838
aS'gonna long couple days'
p839
aS'theyre indiana theyre helping move house need somewhere stay'
p840
aS'young\xf0\x9f\x87\xba\xf0\x9f\x87\xb8\xf0\x9f\x87\xba\xf0\x9f\x87\xb8\xf0\x9f\x87\xba\xf0\x9f\x87\xb8\xf0\x9f\x87\xba\xf0\x9f\x87\xb8\xf0\x9f\x87\xba\xf0\x9f\x87\xb8\xf0\x9f\x87\xba\xf0\x9f\x87\xb8 dope\xf0\x9f\x87\xba\xf0\x9f\x87\xb8\xf0\x9f\x87\xba\xf0\x9f\x87\xb8\xf0\x9f\x87\xba\xf0\x9f\x87\xb8\xf0\x9f\x87\xba\xf0\x9f\x87\xb8\xf0\x9f\x87\xba\xf0\x9f\x87\xb8\xf0\x9f\x87\xba\xf0\x9f\x87\xb8 proud\xf0\x9f\x87\xba\xf0\x9f\x87\xb8\xf0\x9f\x87\xba\xf0\x9f\x87\xb8\xf0\x9f\x87\xba\xf0\x9f\x87\xb8\xf0\x9f\x87\xba\xf0\x9f\x87\xb8\xf0\x9f\x87\xba\xf0\x9f\x87\xb8\xf0\x9f\x87\xba\xf0\x9f\x87\xb8 \xf0\x9f\x87\xba\xf0\x9f\x87\xb8like american'
p841
aS'family friends staying half week'
p842
aS'trust dont wanna'
p843
aS'wondering'
p844
aS'awkward'
p845
aS'dont ever afraid show really long happy elses opinion\xe2\x80\xa6'
p846
aS'wanna kiss fireworks 4thofjulybucketlist'
p847
aS'wonder subtweeted people dont even follow'
p848
aS'wake everyone else'
p849
aS'girl doesnt special outfit fourth july'
p850
aS'broke heart shane went show thewalkingdead'
p851
aS'cute'
p852
aS'sounded like hunters telling careful'
p853
aS'pickup line scale america free tonight'
p854
aS'myperfect4th beach closest friends worry anything'
p855
aS'myperfect4th road trip beach convertible huge american flag backseat closest'
p856
aS'hate people honest would rather like friends didnt think petpeeve'
p857
aS'look gross right still continue snapchat'
p858
aS'land free home brave merica'
p859
aS'sure america became free 1776 everyone free since jesuschrist'
p860
aS'white better country since 1776\xf0\x9f\x87\xba\xf0\x9f\x87\xb8'
p861
aS'july daddy really likes telling navy stories'
p862
aS'thank navy\xf0\x9f\x9a\xa2 army\xf0\x9f\x94\xab\xf0\x9f\x92\xa3 airforce\xe2\x9c\x88 marines\xf0\x9f\x92\xaa coast guard military\xf0\x9f\x87\xba\xf0\x9f\x87\xb8 policefire fighters foreverheroes'
p863
aS'thankful soldiers fighting america every christ dying cross sinners freedom'
p864
aS'nation'
p865
aS'coffee puts great mood happy july'
p866
aS'july favorite holiday sucks plans today'
p867
aS'barbies based average year olds body finally'
p868
aS'love people tweets amazing loveit'
p869
aS'fictionaldeathsiwillnevergetover jack dawson titanic'
p870
aS'angriest snap chat ever sent'
p871
aS'1111'
p872
aS'even text since guess dont mean used'
p873
aS'lets tonight'
p874
aS'cant anything without someone worrying'
p875
aS'play baseball daughter play softball ballfam'
p876
aS'dont mean rude tired talking'
p877
aS'glad sister along'
p878
aS'movies tonight'
p879
aS'bestfriend tweets'
p880
aS'20factsaboutmybestfriend shell cookie dough house dont hide'
p881
aS'20factsaboutmybestfriend never serious fights except blackeye told parents wrecked glfcart'
p882
aS'20factsaboutmybestfriend shes moving summer thats reason dont want summer'
p883
aS'wanna leave little place knows know'
p884
aS'strong lord never give hope gonna great things already know'
p885
aS'sent ashley book doesnt text back'
p886
aS'10000 reasons heart find'
p887
aS'strong person long everything thats going wrong hits thats'
p888
aS'school year going different'
p889
aS'want carlie come home'
p890
aS'still havent given ashley birthday present slackin'
p891
aS'gonna worst mood comes home'
p892
aS'hate people look special children like theyre disgusting theyre like shouldnt seen'
p893
aS'want layout cloudy'
p894
aS'thought mike commercial movie trailer'
p895
aS'20factsaboutmybestfriend laughs everything shes happy'
p896
aS'20factsaboutmybestfriend deserves treated better'
p897
aS'20factsaboutmybestfriend hated longest time always stole grapes lunch grade'
p898
aS'mean'
p899
aS'want sleep'
p900
aS'pretty sure ever since hasnt havent crossed mind'
p901
aS'baseball boysgtgt'
p902
aS'dont match right'
p903
aS'hate people especially girls keep texting dont reply chill reply feel like'
p904
aS'remember words enemies silence friends martin luther king'
p905
aS'story life'
p906
aS'beyond freakin pissed tonight dont even feel like talking anyone anymore hate people minus couple people'
p907
aS'gonna'
p908
aS'currently really annoyed'
p909
aS'back knocking'
p910
aS'someone cleats teamltltltlt'
p911
aS'starting stress cant anything without hurting stupidspiders'
p912
aS'didnt even anything'
p913
aS'longer give fuck well fuck'
p914
aS'oomf working nerves tonight'
p915
aS'ashley better text back problems'
p916
aS'worst time trusting people'
p917
aS'despicable kidatheart'
p918
aS'national kiss brunette preferably booty brunette'
p919
aS'killed wilden goodness sake'
p920
aS'someone take despicable'
p921
aS'whatever'
p922
aS'yeah'
p923
aS'sucks cant hangout next monday gotta work tuesday gotta church wednesday'
p924
aS'thought able come morning time happened'
p925
aS'plans ruined greeat'
p926
aS'heck'
p927
aS'tell'
p928
ag11
aS'breaks heart seeing someone upset able help'
p929
aS'gonna long night'
p930
aS'showed cutest tattoos'
p931
aS'oomf wants things late'
p932
aS'2014 less months sink'
p933
aS'dont need anybody everything need matter independent'
p934
aS'least night realized dont trust anyone except family friends people arent'
p935
aS'baseball players athletes'
p936
aS'theres like billion people world like friends'
p937
aS'nationalkissabrunetteday'
p938
aS'wishes lake'
p939
aS'swear headaches time'
p940
aS'raining wake taking back sleep'
p941
aS'pride isnt really issue actually make effort talk talk'
p942
aS'1111'
p943
aS'rains burg half raining look outside isnt rain'
p944
aS'concerned heart performance heart right performance eventually'
p945
aS'like much talk'
p946
aS'fact generation going leading country terrifying we\xe2\x80\x99re fucking idiots'
p947
aS'spongebob marathon gtgtgtgtgtgt'
p948
aS'yeah thats thought'
p949
aS'fine wont tell stuff anymore'
p950
aS'sleeping'
p951
aS'found hard loved hunterhayes'
p952
aS'thought would better mood didnthappen'
p953
aS'changed grew stopped letting people push around learned cant always happy'
p954
aS'without goliath david would another throwing rocks'
p955
aS'good mood past days'
p956
aS'please pills make better'
p957
aS'kinda want everyone house leave alone'
p958
aS'would rather keep'
p959
aS'think might back sleep much going right'
p960
aS'imsinglebecause high standard waiting gods timing'
p961
aS'wish wouldve found travelball team summer'
p962
aS'true'
p963
aS'singlebecause dont bull'
p964
aS'stuff like always hits hard even happening'
p965
aS'time vent'
p966
aS'mood today place ltgtgtgtltgtltltltltltltltltltlt'
p967
aS'oomf sketchy'
p968
ag11
aS'wish could surf'
p969
aS'feel like working'
p970
aS'license best life'
p971
aS'suck'
p972
aS'definitely though even really half shortgirlprobs'
p973
aS'ever eyes suddenly remember youre wearing make second whole life comes crash\xe2\x80\xa6'
p974
aS'hate waiting much yall dont even know'
p975
aS'okayyy leave'
p976
aS'gahhhhhh'
p977
aS'singlebecause dont need anyone right'
p978
aS'singlebecause keep giving mixed feelings'
p979
aS'singlebecause pretty'
p980
aS'girl feel like theyre unwanted'
p981
aS'didnt read part'
p982
aS'rudeness'
p983
aS'want sleep'
p984
aS'imthegirlfriend comes every single game unless'
p985
ag11
aS'finally'
p986
aS'really hope find beat crap making bestfriend upset\xe2\x80\x9d help'
p987
aS'confused'
p988
aS'tomorrow ltltltltlt whatislife'
p989
ag11
aS'thats annoying'
p990
asS'2013_28'
p991
(lp992
S'every number name every name story every story matters'
p993
aS'laugh everytime picture knocked couch salkehatchie'
p994
aS'lockscreen phone selfie judging'
p995
aS'girl whatchu girl getting away girl'
p996
aS'easy really'
p997
aS'wish everyone minded damn business'
p998
aS'literally rain everyday summer'
p999
aS'isaiah 4028'
p1000
aS'said dont understand yall coversations happen'
p1001
aS'ohhh'
p1002
aS'whole conversation going china party'
p1003
aS'idiot told shook head'
p1004
aS'aint'
p1005
aS'party dads china'
p1006
aS'cant decide wanna today'
p1007
aS'know asleep text last night gtgtgt'
p1008
aS'dream last night gtgtgtgtlt'
p1009
aS'always mood florida georgia line'
p1010
aS'cody shut'
p1011
aS'locked house even'
p1012
aS'prayers martin family'
p1013
aS'seriously cannot believe found zimmerman guilty'
p1014
aS'fact havent seen bestfriend weeks ridiculous'
p1015
aS'dont want grow'
p1016
aS'wonder hate staying'
p1017
aS'matter much sleep still always tired femalepains'
p1018
aS'retweet play'
p1019
aS'snap'
p1020
ag11
aS'think wish best endless love happiness shouldve known thats'
p1021
aS'feel like movies time'
p1022
aS'dont know wear tonight'
p1023
aS'twerking deaths occur shower excessive shaking causing shampoo spill victim slips'
p1024
aS'fred'
p1025
aS'think chris cole good lookin'
p1026
aS'call ashley ashlyn much sometimes forget isnt real name carlie'
p1027
aS'parents'
p1028
aS'could whole life never oomf again\xe2\x80\x9d'
p1029
aS'least know talking first'
p1030
aS'careful wish cause'
p1031
aS'wanna leave talk anyone wont happen'
p1032
aS'thats blake sheldon song like'
p1033
aS'yeah boys round sending prayer stairs'
p1034
aS'feelings right'
p1035
aS'think along carlie ashlyn well straight everyone else sugarcoats stuff hate'
p1036
aS'growing'
p1037
aS'short\xf0\x9f\x98\xad'
p1038
aS'wanna rugby game'
p1039
aS'swear trayvon martin wouldnt black wouldnt deal'
p1040
aS'kinda glad wasnt awake lastnight tried acting needs understand people carlies back thinks'
p1041
aS'miss bestfriend\xf0\x9f\x98\x94 like weeks since seen'
p1042
aS'youre pathetic youre trying make sound like youve never cared everyone knows obsesse\xe2\x80\xa6'
p1043
aS'youre welcome'
p1044
aS'cried'
p1045
aS'send girl loses respect yeah basically'
p1046
aS'jeremiah 2911 philipians commonly misused context verses entire bible'
p1047
aS'right'
p1048
ag11
aS'dont attitude'
p1049
aS'grumpy tomorrow blaming'
p1050
aS'comment going'
p1051
aS'tellem carlie'
p1052
aS'cody calling rude earlier ltltltlt umno'
p1053
ag11
ag11
aS'wont explain'
p1054
aS'messing knee today ltltltltlt'
p1055
aS'heck'
p1056
aS'watch reruns ridiculousness time never gets'
p1057
aS'preach readthis zimmerman'
p1058
aS'honestly think room carlie right shed beat crap outta'
p1059
aS'snapchat supposed carlie sent jack embarrassing'
p1060
aS'oomf text like dont number like stupid'
p1061
aS'ryans cracking'
p1062
aS'canigetanoooooo'
p1063
aS'mean texting back soooo'
p1064
aS'hush mouth'
p1065
aS'text back'
p1066
aS'dummy'
p1067
aS'heck'
p1068
aS'dont think getting texts'
p1069
aS'text girlfriend real cool'
p1070
aS'creeping background'
p1071
aS'make laugh already love'
p1072
aS'already starting sore'
p1073
aS'gonna long'
p1074
aS'close getting braces'
p1075
aS'tomorrow'
p1076
aS'sick everyone everyone thinks know feel really dont'
p1077
aS'imattractedto guys tall athletic funny cute around basically oomf'
p1078
aS'used story life'
p1079
aS'rewind beginning summer everything okay'
p1080
aS'alexs snapchats crack'
p1081
aS'confidence attractive cockiness repulsive'
p1082
aS'amazing week salklife13'
p1083
ag11
aS'tweetyourfriendshipinapicture'
p1084
aS'tweetyourfriendshipinapicture'
p1085
aS'imattractedto someone thatll workout'
p1086
aS'dont know want'
p1087
aS'dont like weather south carolina wait minutes itll change'
p1088
aS'taylors always mean'
p1089
ag11
aS'feeling sore feeling sorry'
p1090
ag11
aS'tell feel\xe2\x80\x9d'
p1091
aS'carlie really doesnt drugs guys making clear'
p1092
aS'told theyre prescribed shut'
p1093
aS'yeah prescribed call want'
p1094
aS'told'
p1095
ag11
aS'miss guys'
p1096
aS'kinda excited tomorrow maybe'
p1097
aS'want someone feels lucky'
p1098
aS'dont sometimes wish second chance meet someone first time'
p1099
aS'good morning south carolina'
p1100
aS'oomf gonna sees'
p1101
aS'luck sucks right'
p1102
aS'imattractedto someone make laugh'
p1103
aS'need coffee'
p1104
aS'adds thing'
p1105
aS'someone explain would text free phone unlimited texting likewhy'
p1106
aS'take things granted realize late'
p1107
aS'courage share faith never know whos life touch'
p1108
aS'starting excited going beach year'
p1109
aS'home going straight'
p1110
aS'michaela sounded creeper'
p1111
aS'give summer rain lack ridiculous'
p1112
aS'school assignments'
p1113
aS'wonder'
p1114
ag11
aS'imattractedto dave franco\xf0\x9f\x98\x8d'
p1115
aS'imattractedto knows dress'
p1116
aS'hopefully sleep tomorrow'
p1117
aS'fact person really wanna talk isnt going sucks'
p1118
aS'part life know always take higher ever'
p1119
aS'wearing sports everyday gtgtgt athletesuccess\xe2\x80\x9d'
p1120
aS'heck'
p1121
aS'couldnt anywhere without grace waking every morning gotta give credit'
p1122
ag11
aS'cant decide right worry'
p1123
aS'hunter cause flicked getmadaboutit'
p1124
aS'question'
p1125
ag11
aS'think oomf forgot text back'
p1126
aS'deserves endless retweets'
p1127
aS'linesthatmustbeshouted cruuuuuise'
p1128
aS'jealous'
p1129
aS'hate idea school love school supplies general'
p1130
aS'shut face'
p1131
aS'picture middle finger lolol'
p1132
aS'linesthatmustbeshouted dont care love'
p1133
aS'guess talk later'
p1134
aS'twitter basically vent cant even vent friends stalk twitter dont like telling'
p1135
aS'brain wont sleep late gahhh'
p1136
aS'ever friends someone love'
p1137
aS'telling going easy telling going worth'
p1138
aS'online dating sketchyhow date someone year without even seeing person'
p1139
aS'girls instagram loving hair flip'
p1140
aS'true'
p1141
aS'daltons tryna play questions'
p1142
aS'need make middle finger emoji'
p1143
aS'really miss oomf right'
p1144
aS'annoys much'
p1145
aS'wonder 2omf getting together would perfect together'
p1146
aS'check'
p1147
aS'last summer awesome sucks'
p1148
aS'thing gets stress mind days field'
p1149
aS'wanna grown friday'
p1150
aS'sweet hands favorite drinkgtgt'
p1151
aS'ariavsmike vote mike oops'
p1152
aS'mike hottest sorrynotsorry'
p1153
aS'mike good lookin ariavsmike'
p1154
aS'tired house gonna insane'
p1155
aS'istillremember first high school scared morning fine'
p1156
aS'aint scared'
p1157
aS'hate inside never anything outside'
p1158
aS'parents either extremely close dont talk theres'
p1159
aS'signs time move relationship'
p1160
aS'said couldnt gtgtgt'
p1161
aS'worked butt today obviously cant anything right'
p1162
aS'yall know tomorrow'
p1163
aS'lost respect people year'
p1164
aS'listen cant stop much'
p1165
aS'play fire youre asking burned'
p1166
aS'even though life full downs thing never changes leaningonhim'
p1167
aS'ungrateful people make sick'
p1168
aS'waking 11gtgtgt'
p1169
aS'play softball youre step closer heart'
p1170
aS'prettiest girls name'
p1171
aS'even dont understand plan'
p1172
aS'success best revenge'
p1173
aS'wish wasnt'
p1174
aS'perksofdatingme wont worry taller'
p1175
aS'perksofdatingme everything'
p1176
aS'sayin'
p1177
aS'well girls like dogs dont mean nothing'
p1178
aS'stop talking people'
p1179
aS'moment crush look time smile\xe2\x80\x9d never happens'
p1180
aS'knowing youll ever someone ltltltltltlt'
p1181
aS'hate weird dream someone person like eeeeee'
p1182
aS'better retweet'
p1183
aS'next time youre remember'
p1184
aS'room bible peoples opinions itisfinished'
p1185
aS'nice'
p1186
aS'patience must growing real short'
p1187
aS'theaters'
p1188
aS'lets'
p1189
aS'clothes like'
p1190
asS'2013_29'
p1191
(lp1192
g11
aS'thirstyyyyy'
p1193
aS'hate boys pictures bathing suit like'
p1194
aS'confusing trying talk china since hours ahead monday morning'
p1195
aS'guys need eachother getting'
p1196
aS'andy grammer gtgtgtgtgtgt'
p1197
aS'course starts raining right straighten hair mylife\xe2\x80\x9d story life'
p1198
ag11
aS'never gave carlie dollar killing oops forgot'
p1199
aS'myproblemis jealous easily worry much always feel like good reason'
p1200
aS'sweatpants girls sweatpants'
p1201
aS'really time'
p1202
aS'fact oomf hasnt text'
p1203
aS'killing'
p1204
aS'song gtgtgtgtgtgt'
p1205
aS'first impression someone usually right'
p1206
aS'line never forget shestheman'
p1207
aS'seeing oomf gtgtgtgt'
p1208
aS'maam'
p1209
aS'shut'
p1210
aS'couch better'
p1211
aS'doesnt count'
p1212
aS'\xf0\x9f\x98\xb1language'
p1213
aS'sorry youve said worse'
p1214
aS'ready home hell'
p1215
aS'whats secret well really half really'
p1216
aS'hate'
p1217
aS'feel people dont understand humor probably think terrible mean person'
p1218
aS'cant stand racist people theres special place hell'
p1219
ag11
aS'proven works amazing ways'
p1220
aS'sometimes love sometimes hate everything heart'
p1221
aS'usually dont worry trips work since know bomb airport scares'
p1222
aS'smarter think chance buddy\xf0\x9f\x98\x81'
p1223
aS'like cannot understand hatred liars'
p1224
aS'sneaky theyll never know'
p1225
aS'awkward'
p1226
aS'said prettier somebody guys\xf0\x9f\x98\xb1\xf0\x9f\x98\x82 thatsanewone'
p1227
aS'carlie went tonight'
p1228
aS'kinda bestfriend cant count shut trying hard okay'
p1229
aS'kinda bestfriend cant count'
p1230
aS'yeah hurts yeah miss know youre going miss long'
p1231
aS'slowest eater swear'
p1232
aS'carlos needs wake hungry'
p1233
aS'gtgtgtgtgt carlies asleep'
p1234
aS'someone take field'
p1235
aS'last night gtgtgtgtgtgt'
p1236
aS'carlie keeps telling sleep'
p1237
aS'thats reasons'
p1238
aS'dont understand stuff sometimes really dont want'
p1239
aS'parkin creepyy like leave dont shoes'
p1240
aS'lookin rough morninn'
p1241
aS'miss need come visit jonathan rowan soon'
p1242
aS'miss favorite cousin havent seen since crimmus'
p1243
aS'heck'
p1244
aS'hanging girls tonight'
p1245
aS'ashley better watch comin'
p1246
aS'youremoreattractiveif youre good kids\xf0\x9f\x91\xa7\xf0\x9f\x91\xb6'
p1247
aS'wanna despicable'
p1248
aS'sorry love'
p1249
aS'tell said stop'
p1250
aS'happy'
p1251
aS'rude'
p1252
aS'fred know walk'
p1253
aS'sounds tired'
p1254
aS'sleep sound like tired'
p1255
aS'doesnt work ghetto saddening moment supposed ghetto'
p1256
aS'gives best advice\xf0\x9f\x98\x82'
p1257
aS'dudee like still'
p1258
aS'looking looking feeling really alone months recently'
p1259
aS'need'
p1260
aS'youremoreattractiveif youll date personality looks'
p1261
aS'text phone damn emojis'
p1262
aS'sweetheart know'
p1263
aS'thanks snapchatting back since else'
p1264
aS'isnt anyone snapchatting back'
p1265
aS'okay'
p1266
aS'never took date like said would'
p1267
aS'truth\xf0\x9f\x99\x8c'
p1268
aS'nothing love getting quick snapchat responses'
p1269
aS'convinced werent important'
p1270
aS'making someone laugh theyre feeling literally improve mood\xe2\x80\x9d'
p1271
aS'wanted know wanted taco'
p1272
aS'thinking time move refuse treated like'
p1273
aS'carlie ashley dont care takes like four days decide something'
p1274
aS'crying anger worst type crying'
p1275
aS'alright making morning like'
p1276
aS'crap mean come want come around lunch'
p1277
aS'time going'
p1278
aS'care much oomf'
p1279
aS'dishes cant ugly\xe2\x80\x9d'
p1280
aS'ashleys coming around bringing lunch whenever want'
p1281
aS'praying safe trip tomorrow'
p1282
aS'live mine samlyns conversations think theyre hilarious stay laughing times haha bestfriendstatus'
p1283
aS'music night necessity'
p1284
ag11
aS'ashley couldnt said better\xf0\x9f\x92\x81'
p1285
aS'bestfriends problems become problems soon address backoffbuddyboy'
p1286
aS'oomf needs togetheramp stop cussing bestfriend outamp making feel like crap finally feel'
p1287
aS'call'
p1288
aS'thanks input'
p1289
aS'dont help bring everything wrong done make everything worse'
p1290
aS'people think hypocrite times least dont twitter totally different every\xe2\x80\xa6'
p1291
aS'think might read bible tonight awhile sounds terrible true'
p1292
aS'away'
p1293
aS'hasnt really sunk bestfriend moving another state know gonna hard'
p1294
aS'thanks clearing things isaiah'
p1295
aS'girlfriend'
p1296
aS'like dont care deep swear kills'
p1297
aS'samlyn getting defensive card haha'
p1298
aS'gosh terrible today'
p1299
aS'gave ashlyn permission beat something stupid remember'
p1300
aS'helped carry everything store struggling'
p1301
aS'gonna lovers gonna fight aint ever changing mind'
p1302
aS'gave ashlyn permission beat something stupid'
p1303
aS'nationaltellagirlsheisbeautifulday'
p1304
aS'ahaha shuddupp'
p1305
aS'didnt want feel left fred'
p1306
aS'nationaltellagirlsheisbeautifulday'
p1307
aS'nationaltellagirlsheisbeautifulday'
p1308
aS'nationaltellagirlsheisbeautifulday'
p1309
aS'nationaltellagirlsheisbeautifulday'
p1310
aS'nationaltellagirlsheisbeautifulday'
p1311
aS'nationaltellagirlsheisbeautifulday'
p1312
aS'nationaltellagirlsheisbeautifulday'
p1313
aS'thank abby'
p1314
aS'nationaltellagirlsheisbeautifulday'
p1315
aS'pitch heart catch'
p1316
aS'want'
p1317
aS'guess talking today'
p1318
aS'could ever stop'
p1319
aS'know'
p1320
aS'dont know gonna without bestfriend move couple weeks toosoon'
p1321
aS'sweatpants 173638x better girls sweatpants\xe2\x80\x9d'
p1322
aS'ready tomorrow'
p1323
aS'swear worst'
p1324
aS'want laid back funny shit talking play fighting type relationship'
p1325
aS'youve ever slept house know need blankets stay warm couldnt bring last night'
p1326
aS'storm last night knocked conditioning upstairs slept fans going still like degrees'
p1327
aS'inmiddleschool memories'
p1328
aS'inmiddleschool'
p1329
aS'inmiddleschool dated dude learned good nothing even'
p1330
aS'inmiddleschool seth dated lonfest time everyone thought cute broke grade though'
p1331
aS'inmiddleschool cochran grade teacher'
p1332
aS'inmiddleschool football games watching boyfriend time play'
p1333
aS'inmiddleschool fern grows made'
p1334
aS'think carlies ground'
p1335
aS'isaiah wasnt kidding said clumsy'
p1336
aS'inmiddleschool fell going bleachers morning foot open anthony carried nurses office'
p1337
aS'inmiddleschool band favorite class never anything always play jello like bunch losers'
p1338
aS'inelementaryschool inmiddleschool smaller everyone guess nothing changed'
p1339
aS'inmiddleschool biggest fight like made laurens life miserable'
p1340
aS'next time tell family first'
p1341
aS'inmiddleschool tried hook cousin'
p1342
aS'forreal though brokelegx3'
p1343
aS'inmiddleschool told cheshier hated class wouldnt talk week punishment cried'
p1344
aS'never knew'
p1345
aS'inmiddleschool hated carlie like sorry didnt like grape stealer'
p1346
aS'inmiddleschool thought gonna wrote didnt come school like days'
p1347
aS'inmiddleschool silly bandz like coolest person ever'
p1348
aS'inmiddleschool hated carlie like sorry didnt like'
p1349
aS'inmiddleschool almost didnt middle school graduation disrespected principal'
p1350
aS'know whatever though'
p1351
aS'inmiddleschool principle hated personally never trouble stayed hating'
p1352
aS'immiddleschool grade class terrible made principle write apology letter'
p1353
aS'james took away'
p1354
aS'inmidddleschool team time fridays'
p1355
aS'inmiddleschool ashley stayed opening locker cause could never open'
p1356
aS'trueeeee band sucked though'
p1357
aS'freshmanyear sucked dont care anyone says sucked know made worth'
p1358
aS'inmiddleschool slammed hand locker thats became bestfriends'
p1359
aS'freshmanyear sucked dont care anyone says sucked know'
p1360
aS'inelementaryschool bestfriends always together'
p1361
aS'inmiddleschool email other\xe2\x80\x9d'
p1362
aS'immiddleschool thought cool embarrassing think'
p1363
aS'love'
p1364
aS'inmiddleschool best website done work'
p1365
aS'sorry'
p1366
aS'shut'
p1367
aS'told chill mind\xf0\x9f\x98\x94'
p1368
ag11
aS'inmiddleschool friends like'
p1369
aS'dont judging'
p1370
aS'went medication\xf0\x9f\x98\x82\xf0\x9f\x91\x8c'
p1371
aS'kidding apologizing didnt anything'
p1372
ag11
ag11
aS'duhhh'
p1373
aS'heck sorry'
p1374
ag11
aS'dalton trying'
p1375
aS'told carlie almost knocking laugh niceee'
p1376
aS'jerk good lookin'
p1377
aS'guys love'
p1378
aS'christian'
p1379
aS'bringing tacos friday better nice person getting tacos carlie'
p1380
aS'gatorade commercial gtgtgtgtgt'
p1381
aS'rain scary'
p1382
aS'reasonsifailatbeingagirl really hate fixing hairmakeup even hate putting clothes'
p1383
aS'carlie right gtgtgtgtgt'
p1384
aS'samantha youre mashing stomach well youre tickling spine family gtgt'
p1385
aS'remember whatever makes happyyou dont anyone explanation reasons happiness'
p1386
aS'nooooo runs outta room'
p1387
aS'true true'
p1388
aS'really cant wait till friday guys haha'
p1389
aS'need call oomf happened'
p1390
aS'cant believe friends think physical smackin people'
p1391
aS'think hates strong word thinks kates stripper'
p1392
aS'carlies physical smacking people'
p1393
aS'\xf0\x9f\x90\xabguess hump \xf0\x9f\x90\xabhump daaaaayyyyyy'
p1394
aS'true friend others'
p1395
aS'people piss hell make better\xe2\x80\x9d'
p1396
aS'wecantdateif youre different person towards around friends'
p1397
aS'suicide hotline 18007842433 retweet takes like seconds'
p1398
aS'lets forreal'
p1399
aS'food money makes think likeeeee'
p1400
aS'havent seen pretty like haha'
p1401
aS'cant believe dont believe'
p1402
aS'shes handsome'
p1403
aS'emoji like'
p1404
aS'hate laying around gotta something'
p1405
aS'sing around comfortable cannot sing shit\xe2\x80\x9d'
p1406
aS'kinda wanna layout today considering supposed rain'
p1407
aS'running together something vodka\xf0\x9f\x98\x82'
p1408
aS'straight trust attractive'
p1409
aS'talking twitter happened never tell anything anymore'
p1410
aS'carlie radio like'
p1411
aS'carlie radio like'
p1412
aS'weekend gtgtgtgtgt'
p1413
aS'done people walking'
p1414
aS'sunburnt'
p1415
aS'little girls bangs like inches eyebrows ever childs hair like someone lock'
p1416
aS'would much easier productive didnt rain everyday'
p1417
aS'future star girls club'
p1418
aS'duhhh'
p1419
aS'said needed clean room carlie came three hours havent even room'
p1420
ag11
aS'miss bestfriend\xf0\x9f\x98\xad\xf0\x9f\x98\x9e'
p1421
aS'snapchat sent gtgtgtgt'
p1422
aS'want oomf\xe2\x80\x9d'
p1423
aS'still hope sees hell know stupid'
p1424
aS'remember blueberrybagel'
p1425
aS'worstbreakupexcuse life sucks need focus sports'
p1426
aS'remember that\xf0\x9f\x98\x82\xf0\x9f\x98\x82'
p1427
aS'worstbreakupexcuse dont want text anymore reason scared actually talk'
p1428
aS'every life story make best seller liveittothefullest turnup247'
p1429
aS'never seen napoleon dynamite'
p1430
aS'dont understand point keeping awake long shouldve asleep like hour'
p1431
aS'sooo cute'
p1432
aS'perfect'
p1433
aS'reuniting bestfriend tomorrow\xf0\x9f\x98\xb1 happytweet thank lawd'
p1434
aS'mood went ltltltlt gtgtgtgtgt text'
p1435
aS'church best'
p1436
aS'would believe said love'
p1437
aS'makes 2omf arent together anymore'
p1438
aS'walking around house sports gtgtgt'
p1439
aS'today spongebob squarepantss 27th birthday born july 14th 1986'
p1440
aS'cant right'
p1441
aS'think might workout early'
p1442
asS'2013_37'
p1443
(lp1444
g11
ag11
aS'lift weak arms wrapped around love catches letting'
p1445
aS'rather sore sorry later'
p1446
ag11
ag11
aS'dont make promise dont plan keep'
p1447
aS'tired'
p1448
aS'danced night best song ever'
p1449
ag11
aS'morning'
p1450
aS'people makin mornin\xf0\x9f\x98\xa0'
p1451
ag11
aS'hello name child true king'
p1452
ag11
aS'white girls\xf0\x9f\x98\x82\xf0\x9f\x98\x82\xf0\x9f\x98\x82'
p1453
aS'cleating ltltltltltlt'
p1454
aS'knew something'
p1455
ag11
aS'pisses'
p1456
aS'hugged tall'
p1457
aS'always want'
p1458
aS'actually thought knew talkin bout\xf0\x9f\x98\x82\xf0\x9f\x98\x82'
p1459
aS'currently half blind thanks carlie'
p1460
aS'carlie makes sound stupid'
p1461
aS'said cant tell someone aint valid watch'
p1462
ag11
aS'dont sleep cookie monster'
p1463
aS'wake'
p1464
aS'know exactly subtweeting'
p1465
aS'carlie keeps making laugh cant keep eyes open'
p1466
aS'think caught subtweet'
p1467
aS'nobody wants text'
p1468
aS'typical carlie \xf0\x9f\x91\x8cmovieday'
p1469
aS'perksofdatingme laugh jokes dont'
p1470
aS'course'
p1471
aS'dave franco gtgtgtgtgt'
p1472
aS'jump street\xf0\x9f\x91\x8c\xf0\x9f\x98\x8d'
p1473
ag11
aS'night gtgtgtgtgtgtgtgt'
p1474
aS'good tonight boys'
p1475
aS'broome blacksburg final'
p1476
aS'today goes planned today great'
p1477
aS'drinking take pain away'
p1478
aS'excited cause carlie coming home weekend'
p1479
aS'always makes feel stupid\xf0\x9f\x98\x82\xf0\x9f\x98\x82'
p1480
aS'carlie said jakobs favorite short girl broome'
p1481
aS'rather someone else happy thats ambut damn sure hell would nice'
p1482
aS'honestly thinking going school today'
p1483
aS'fallings problem falling peace ground causes grief'
p1484
aS'making laugh night'
p1485
aS'correct'
p1486
aS'ready friday though'
p1487
aS'back ohhhh throwbackkkkk'
p1488
aS'believe thats subtweet'
p1489
aS'nervous right ridiculous'
p1490
aS'kidding'
p1491
aS'steal cassidys idea tomorrow sorryboutit'
p1492
aS'pisses school doesnt even mention'
p1493
ag11
aS'getting real sick tired lied ditched someone hasnt half much'
p1494
aS'thats'
p1495
aS'need good laugh tonight'
p1496
ag11
aS'thats carlies bestfriend girl read mind another state'
p1497
aS'tell needs somewhere else'
p1498
aS'still midst tragedies neverforget'
p1499
aS'really wanna morning told parker coming extra help morning'
p1500
aS'really wish would kept touch family salkehatchie seriously thinking'
p1501
aS'prayer simply twoway conversation'
p1502
aS'crazy people weight control'
p1503
aS'came like wrecking ball never hard love wanted break walls ever'
p1504
aS'ever wreck'
p1505
aS'honestly never forget'
p1506
aS'cant decide wanna dress today'
p1507
aS'spartan high friends airs today broome screwed dell tablets crash every'
p1508
aS'hate burpees'
p1509
aS'snapchatting attractive people difficult look attractive pretend tried looking ugly'
p1510
aS'gotten much better'
p1511
aS'never tired power trip'
p1512
aS'already thats thing makes happy anymore'
p1513
aS'dont ever walked away always want'
p1514
ag11
aS'thats little much'
p1515
aS'yeah'
p1516
ag11
aS'know isaiahs talking'
p1517
ag11
aS'towards'
p1518
aS'cassidy said complicated wrongggg'
p1519
aS'remember hahahaha'
p1520
aS'gonna cassidy something completely forgot'
p1521
ag11
aS'cassidy'
p1522
aS'forreal'
p1523
aS'anyone wanna take game friday'
p1524
aS'dont leave cant'
p1525
aS'really'
p1526
aS'havent seen million years'
p1527
aS'first time ever watched game plan without'
p1528
aS'ready home'
p1529
aS'canceling plans quickest ways piss'
p1530
aS'happy birthday'
p1531
aS'driving crazy point'
p1532
aS'kissed followers'
p1533
ag11
aS'didnt actually'
p1534
aS'heard'
p1535
aS'head like didnt hurt'
p1536
aS'better watch'
p1537
aS'headache something serious'
p1538
aS'using many capital letters'
p1539
aS'cody needs chill'
p1540
aS'gtgtgtgtgtgt'
p1541
aS'miss'
p1542
aS'ready braces getting tired real fast'
p1543
aS'song'
p1544
aS'realized sing like'
p1545
aS'awkward moment think youre important someone youre'
p1546
aS'benefits cheating'
p1547
aS'waiting life start lookin'
p1548
aS'celebrate people gave lives jesus today'
p1549
asS'2013_36'
p1550
(lp1551
S'would text oomf know wont conversation theres point'
p1552
aS'glad worked'
p1553
aS'ready game friday thats'
p1554
aS'true'
p1555
ag11
ag11
aS'things like back january gtgtgtgtgt'
p1556
aS'even gonna upset'
p1557
aS'youre everything said wouldnt'
p1558
aS'dont wanna anything rest'
p1559
aS'worst part feelings cant'
p1560
aS'friends like family gtgtgtgtgtgtgtgtgtgtgt'
p1561
aS'chase fight attention eventually wont want anymore\xe2\x80\x9d oomf'
p1562
aS'cant friends tell cant friends justno'
p1563
aS'dont know wear tomorrow'
p1564
aS'except parts spent arguing 2omf'
p1565
aS'past weekends gtgtgt\xf0\x9f\x91\x8c'
p1566
aS'whats wrong oomf'
p1567
aS'best homecoming picture year'
p1568
aS'butterflysssss'
p1569
aS'burning'
p1570
aS'1111'
p1571
aS'yessss'
p1572
aS'telldanielhesbeautifulday'
p1573
aS'tellagirlsheisbeautifulday'
p1574
aS'tellagirlsheisbeautifulday'
p1575
aS'much today'
p1576
aS'excited week homecoming'
p1577
aS'ready drive'
p1578
aS'tired'
p1579
ag11
aS'dont really wanna take carlie home'
p1580
aS'forget loser'
p1581
ag11
aS'rude'
p1582
aS'please stand'
p1583
aS'sexy comes says turn'
p1584
aS'really glad took forever decide wanted'
p1585
aS'done trying want life know'
p1586
aS'stop freaking miley look picture phineas actually facing camera'
p1587
aS'abbys guys'
p1588
aS'zone feeling'
p1589
aS'youre born raised south carolina youre clemson youre alien'
p1590
aS'goodness keep singing 10000 reasons heart find'
p1591
aS'pumped homecoming week'
p1592
aS'know look feel look home \xe2\x80\x93dory finding nemo'
p1593
aS'tyedye today'
p1594
aS'news found morning gtgtgtgtgt'
p1595
aS'keep heart jesus christ'
p1596
ag11
aS'cracking lastnight'
p1597
aS'thats saying'
p1598
aS'charleston south carolina'
p1599
aS'rowans party making homecoming shirts'
p1600
aS'wanna know whats happening today'
p1601
ag11
aS'well okay'
p1602
aS'probably things steamed'
p1603
ag11
aS'chill'
p1604
aS'night gtgtgtgtgtgtgt'
p1605
aS'stop isnt fault'
p1606
aS'pray fight broomebackingup'
p1607
aS'stop tweeting'
p1608
aS'yeeeaaaaaahhhhhh'
p1609
ag11
aS'going game tomorrow'
p1610
ag11
aS'hearing kinda sucks'
p1611
aS'looks like beef tweeter time twatch'
p1612
ag11
aS'ready come home'
p1613
aS'comes jealously'
p1614
aS'wonder carlies coming weekend'
p1615
aS'never stop retweeting cutest baby though'
p1616
aS'need talk'
p1617
aS'christ till'
p1618
aS'fall never recover'
p1619
aS'right'
p1620
aS'call'
p1621
ag11
ag11
aS'didnt anything'
p1622
aS'least live middle finger emoji'
p1623
aS'saying youre short hint\xf0\x9f\x92\x81\xf0\x9f\x98\x82\xf0\x9f\x98\x82 loveyoufred'
p1624
aS'girl'
p1625
aS'dalton'
p1626
aS'hopes watch fall'
p1627
aS'lifes awesome waste time thinking someone doesnt treat right'
p1628
aS'pissed right'
p1629
aS'happy birthday'
p1630
aS'thing motivating school right'
p1631
aS'went early last night still tired'
p1632
aS'loving whole tablet thing'
p1633
aS'student sections gonna crazy friday night\xe2\x80\x9d'
p1634
aS'katie forreal creeping'
p1635
ag11
aS'yeah'
p1636
aS'hasnt text back either'
p1637
aS'worst feelings feeling like arent wanted want'
p1638
aS'enter college sophomore look back grateful homework'
p1639
aS'okay know well come'
p1640
aS'sure'
p1641
aS'cant believe tomorrows rowans birthday'
p1642
aS'oomf never knows stop'
p1643
aS'karma going come soon'
p1644
aS'oomf'
p1645
aS'best quickest piss tell feel tell something life like know'
p1646
aS'ffffffffff'
p1647
aS'right pieces make life together'
p1648
aS'dressed felt today\xe2\x80\x9d'
p1649
aS'school vote'
p1650
aS'lets honest wasnt mean probably friends dont really care'
p1651
aS'fine well talk later something'
p1652
aS'praying safe trip'
p1653
aS'done trying things everyone elses second done'
p1654
aS'ummmm'
p1655
aS'cold'
p1656
ag11
aS'fool fool'
p1657
aS'basically'
p1658
aS'thinking bout stuck head alllllll'
p1659
aS'gtgtgtgtgt muchneeded'
p1660
aS'hate guys think girl'
p1661
aS'tweetyourpetpeeves someone whats wrong nothing'
p1662
aS'riptee ripquin'
p1663
aS'church church still love regardless'
p1664
aS'hardly sleep last night gonna long'
p1665
aS'teeth straight braces'
p1666
aS'motivation'
p1667
aS'problems care much'
p1668
aS'control time made world whatever wants'
p1669
aS'honestly dont know want right'
p1670
aS'point playing people cant decide want stay single'
p1671
aS'would even'
p1672
aS'doesn\xe2\x80\x99t care you\xe2\x80\x99re cares adds extra ordinary nothing'
p1673
aS'first kissesgt'
p1674
aS'care peoples happiness thats problem'
p1675
aS'refuse settle less deserve anything'
p1676
aS'killed joke'
p1677
aS'keep tabs apparently dont trust dont trust cant together'
p1678
aS'kinda excited tomorrow'
p1679
aS'champion youre gunna hear roooaarrrr'
p1680
aS'catching feelings someone never ltltltltltltlt'
p1681
aS'weekend bestfred\xf0\x9f\x91\x8c\xf0\x9f\x98\x8a'
p1682
aS'definitely lost'
p1683
ag11
aS'miss oomf'
p1684
aS'really pull hair hair isnt wrist'
p1685
aS'hurt many damn times chase anyone'
p1686
aS'shake money maker like somebody bout'
p1687
asS'2013_35'
p1688
(lp1689
S'fell hard fast'
p1690
aS'love family doesnt tell plans like yeah remember actually dont'
p1691
aS'thought chesnee parents said'
p1692
aS'oomf better year'
p1693
aS'goin adventuree\xf0\x9f\x98\x81\xf0\x9f\x98\x82'
p1694
aS'mountains carlie later'
p1695
aS'heyyy'
p1696
aS'wanna something'
p1697
aS'want leave remember though remember everyone leaves \xe2\x80\x93lilo lilo stitch'
p1698
aS'stop laughing carlie'
p1699
aS'honest truth though'
p1700
ag11
aS'dancing like egyptian here\xf0\x9f\x98\x82'
p1701
aS'thanks tagging time'
p1702
aS'bitch guys dont tell already know'
p1703
aS'well mean heard rumors couldve told'
p1704
aS'person sticking bestfriend like thats crazyyy terrible person'
p1705
aS'youre'
p1706
aS'never arguing female'
p1707
aS'disrespectful oops'
p1708
aS'seem'
p1709
aS'must like anybody learned church long time supposed love your\xe2\x80\xa6'
p1710
aS'aloud cause peeler said aloud'
p1711
aS'said thats different story bull'
p1712
aS'youre really pissing actually cared would tell truth'
p1713
aS'ohhhh'
p1714
aS'youre jealous everybodyy someones insecure\xf0\x9f\x99\x8a\xf0\x9f\x92\x81'
p1715
aS'dont even'
p1716
aS'know playing serious carlie woooow watch language'
p1717
aS'youre stupid habit justsayin'
p1718
aS'william friends sorry jealous shit'
p1719
aS'really'
p1720
ag11
aS'faggots'
p1721
aS'shut know'
p1722
aS'jealous person freaking time'
p1723
aS'towards'
p1724
ag11
aS'oomf didnt semester wouldve much better'
p1725
aS'seriously'
p1726
aS'dont waste time like wasted mine'
p1727
aS'shouldve died shouldve laid died'
p1728
aS'think lauren tried give heart attack morning'
p1729
ag11
ag11
aS'home'
p1730
ag11
aS'might actually somewhat first time'
p1731
aS'sams excitement going roof\xf0\x9f\x91\x86\xf0\x9f\x98\x82\xf0\x9f\x98\x82\xf0\x9f\x98\x82'
p1732
aS'back spartanburg weekend made'
p1733
aS'negative people really annoy cant happy'
p1734
aS'miss long hair sooo much'
p1735
aS'dont think oomf realizes much jerk sometimes like hard believe kidding sometimes'
p1736
aS'fact didnt text 2omf today ltltltlt'
p1737
aS'according tarheels website official school colors carolina blue white black'
p1738
ag11
aS'loose attitude'
p1739
ag11
aS'class class class work'
p1740
aS'wonder remember'
p1741
ag11
aS'shooooot'
p1742
aS'last year gtgtgtgtltltlt'
p1743
aS'return tablet dontwantit'
p1744
aS'alright better remember next year though'
p1745
aS'good like literally right passed like ohhhhhh crap hahaha'
p1746
aS'okay thank william'
p1747
aS'happy birthday definitely talked today forgot tell sorry'
p1748
aS'thank'
p1749
aS'thank'
p1750
aS'happy birthday'
p1751
aS'happy birthday beautiful girl'
p1752
aS'thank'
p1753
aS'thank'
p1754
aS'happy birthday beautiful'
p1755
aS'thank'
p1756
aS'youre welcome'
p1757
aS'thank'
p1758
aS'happy birthday'
p1759
aS'today birthday whaaaa happy birthday'
p1760
aS'thank'
p1761
aS'agreed'
p1762
ag11
aS'thought beach laughed carlie straight minutes cause bowl'
p1763
ag11
aS'beach chair jumped could snapchat fell'
p1764
ag11
aS'fred'
p1765
aS'early favoritepicture'
p1766
aS'heck'
p1767
aS'takes guts gentle kind'
p1768
aS'making really obvious good'
p1769
aS'lyricsthatneedtobeshouted gods dead surely alive'
p1770
aS'well never mind noticed'
p1771
aS'paxton'
p1772
aS'listening give reason since alexs birthday'
p1773
aS'wonder even gonna notice tweeting'
p1774
aS'sams birthday thing someone procrastinator'
p1775
aS'dont smartbooty jerk'
p1776
aS'duhh like created'
p1777
aS'days dont forget'
p1778
aS'sams birthday tomorrow guys'
p1779
aS'sorry bout'
p1780
aS'brutally honest friend happily inform look like shit\xe2\x80\x9d'
p1781
aS'know carlie loved snapchats sent'
p1782
aS'every time hear blessings makes miss salkehatchie family much'
p1783
aS'thinks chacos hideous\xe2\x80\x9d\xf0\x9f\x99\x8c\xf0\x9f\x99\x8c\xf0\x9f\x99\x8c'
p1784
aS'happy birthday miss hope great'
p1785
aS'teeth right ltltltltlt somuchpain cantdeal'
p1786
aS'happy lion'
p1787
aS'think might spend nights radley episode'
p1788
aS'happen okay please'
p1789
aS'noooo ezra broken'
p1790
aS'ezra'
p1791
aS'whats daph'
p1792
aS'craving really good milkshake right'
p1793
aS'skipping today'
p1794
ag11
aS'ortho didnt even'
p1795
aS'really'
p1796
aS'jesus loves right doesn\xe2\x80\x99t love future version tries harder obedient'
p1797
aS'forever calling wrong name come youve known almost years together'
p1798
aS'bestfriends face weekend'
p1799
aS'freezing shouldnt'
p1800
aS'youll never happy trust enough take life wherever leads stop listening world start\xe2\x80\xa6'
p1801
aS'people constantly tell theyre drinking every weekend doesnt drink world'
p1802
aS'birthday thursdaaaaay'
p1803
aS'cute'
p1804
aS'trueee pretty sure hated everyone people like liars'
p1805
aS'yeah secretly hate'
p1806
aS'noooo know aint true hahaha everyone likes'
p1807
aS'okay okay people everybody'
p1808
aS'lets real william'
p1809
aS'find hard believe friends stuff'
p1810
aS'gonna really upset forgets birthday considering mines'
p1811
aS'know everyone hates'
p1812
aS'nope like awesome lone wolf status youre loser'
p1813
aS'loser friends lunch'
p1814
aS'loser status'
p1815
asS'2013_34'
p1816
(lp1817
S'despise teachers make shit mondays sorry dont life'
p1818
aS'miss bestfriend ncsucks\xe2\x80\x9d said away'
p1819
aS'miss lunch group'
p1820
aS'thank youuu'
p1821
aS'well girl didnt know'
p1822
aS'seriously gonna come afterwards like like cold gonna'
p1823
aS'yall ever wondered someone miss texted phone messed didnt receive'
p1824
aS'needs read last tweet'
p1825
aS'hopefully paxton doesnt hate missing party yesterday'
p1826
aS'miss bestfriend ncsucks'
p1827
aS'everybody already talking christmas thats away chill'
p1828
aS'moms flipping cause turkey back yard'
p1829
aS'oomf could better'
p1830
aS'nahhhh'
p1831
ag11
aS'difficult comes birthday'
p1832
aS'hate compared people sorry'
p1833
ag11
aS'laurens making extremely nervous right'
p1834
aS'know girl didnt today'
p1835
aS'look like church'
p1836
aS'church qtna'
p1837
aS'sams good night textgtgtgt'
p1838
aS'want waffle house'
p1839
aS'dont snapchat good morning beautiful dont know'
p1840
aS'problem justkidding'
p1841
aS'best\xf0\x9f\x98\x8d'
p1842
aS'every girl deserves offer advice usual okay'
p1843
aS'glad happy'
p1844
aS'forreal miss'
p1845
aS'real mature'
p1846
aS'come house'
p1847
aS'lauren going somebody'
p1848
aS'really'
p1849
aS'shut'
p1850
aS'please youve done enough'
p1851
aS'awkward'
p1852
aS'dont fault'
p1853
aS'youre shes taken happy someone else shouldnt moved'
p1854
ag11
aS'wonder directed towards'
p1855
aS'50thingsaboutme taken'
p1856
aS'imagine perfect moment'
p1857
aS'softball gtgtgtgtgtgtgt sport'
p1858
aS'slow grab wall wiggle like tryna make fall'
p1859
aS'every ground good'
p1860
aS'pisses oomf'
p1861
aS'boys sleepy voice gtgtgtgtgtgt'
p1862
aS'birthdays thursday'
p1863
aS'didnt know birthday happy birthday miss'
p1864
aS'dalton asked sleepy voice dummy'
p1865
aS'goodmorning text \xf0\x9f\x98\x82gtgt'
p1866
aS'parents need realize teenagers arent perfect little angels like make'
p1867
aS'know foreveralone'
p1868
aS'wants text loser'
p1869
ag11
aS'knows make better\xf0\x9f\x98\x8f'
p1870
aS'like'
p1871
aS'still fact cody stuck chapstick nose'
p1872
aS'american eagle jeans gtgtgtgtgtgtgtgt'
p1873
aS'gtgtgtgtgt'
p1874
aS'dont really need keep bring come birthday'
p1875
aS'gonna give shirt'
p1876
aS'swear dalton worst snapchats'
p1877
aS'leadership'
p1878
aS'didnt really wanna take carlie home'
p1879
aS'hate people goddamn mouths dont know theyre even talking'
p1880
aS'shut'
p1881
aS'thanks'
p1882
aS'duhhh\xf0\x9f\x92\x81'
p1883
aS'yall carlie picked school today'
p1884
aS'went ltltltlt gtgtgtgtgtgt'
p1885
aS'yall carlie picked school today'
p1886
aS'talking dalton lastnight gtgtgtgt tired right'
p1887
aS'heck'
p1888
aS'heck need back came freak'
p1889
aS'birthdays days'
p1890
aS'dont even thats pretty freaky'
p1891
aS'starting sound like neighbors'
p1892
aS'need start counting many times dalton calls short makes short joke everyday'
p1893
aS'girls attracted douche bags elementary told mean likes youtruth'
p1894
aS'someone please tell happened cause honestly clue'
p1895
aS'yall scared right'
p1896
aS'poor ezra'
p1897
aS'dont care'
p1898
aS'still suck'
p1899
aS'fine'
p1900
aS'dang dalton stop'
p1901
aS'suck'
p1902
aS'uhhh'
p1903
aS'daltons blackmailing'
p1904
ag11
aS'hate'
p1905
aS'havent talked william ages'
p1906
ag11
aS'excuse dont'
p1907
ag11
ag11
aS'hush'
p1908
aS'sams punk'
p1909
ag11
aS'outta minutes talked dalton today told short least times'
p1910
aS'codys gonna strangling german class semester butreally'
p1911
aS'gtgtgtgt'
p1912
aS'instagram first ootd cares come school home'
p1913
aS'nope'
p1914
aS'struggle getting warm'
p1915
aS'trying text first thing morning struggle probably nothing makes since'
p1916
aS'time send little surprise text'
p1917
aS'fact didnt oomf today gtgtgtgt'
p1918
ag11
aS'german todayltltltlt annoying'
p1919
aS'wanna already'
p1920
aS'know cancer disorder terrible thing hate people chance internet popular\xe2\x80\xa6'
p1921
aS'whatd tell'
p1922
aS'asia cute'
p1923
aS'cause block'
p1924
aS'early countdown summer 2014'
p1925
aS'calling name'
p1926
aS'douchebag always fucking douchebag'
p1927
aS'first sophomore success'
p1928
aS'first'
p1929
aS'apparently body isnt used hard chairs butt fell asleep like times'
p1930
aS'dont really know think classes'
p1931
aS'heart broke little'
p1932
aS'whens time'
p1933
aS'havent conversation ashley early'
p1934
asS'2013_33'
p1935
(lp1936
S'zachs playing creepy killer music piano'
p1937
ag11
aS'dont think harrison realizes much embarrassed'
p1938
aS'really hoping people show church tonight'
p1939
aS'dont know supposed used seeing weeks time'
p1940
aS'havent seen bestfriend week okay'
p1941
aS'really love gonna miss'
p1942
aS'everybody loves gonna miss'
p1943
aS'snapchat tayloralverson\xe2\x80\x9d'
p1944
aS'short girls best girls'
p1945
aS'perfect'
p1946
aS'going cream thing tonight church'
p1947
aS'dont like missing church'
p1948
aS'found'
p1949
aS'celebrate people prayed receive christ never gets'
p1950
aS'okay leadership together'
p1951
aS'leadership block whos cecil group'
p1952
aS'wanna first'
p1953
aS'classes'
p1954
aS'going look like lost puppy tomorrow trying find classes locker'
p1955
aS'guys blue eyes gtgtgtgtgtgtgtgtgtgtgtgtgtgt'
p1956
aS'remembered tomorrow school ohgod'
p1957
aS'miss wearing jeans everyday'
p1958
aS'missing church sick ltltltltlt'
p1959
aS'tomorrow morning gonna struggle'
p1960
aS'sing much someone cant sing'
p1961
aS'honestly'
p1962
aS'loving'
p1963
aS'header'
p1964
aS'start loving someone hard stop\xe2\x80\x9d'
p1965
aS'want part social media experiment'
p1966
aS'perfect'
p1967
aS'cant stand people like stop'
p1968
ag11
aS'swear always screw something'
p1969
aS'really'
p1970
aS'wish knew snowboard'
p1971
aS'excited back school thing church tomorrow'
p1972
aS'okay rude'
p1973
aS'please speak english dont understand leave every word texting'
p1974
aS'oomf never told cant deal'
p1975
aS'gosh'
p1976
aS'rain wofford football team stretching inside kickoff scrimmage still'
p1977
aS'hardest thing talking someone used talk everyday'
p1978
aS'loving final days summer filled nonstop rain hoping'
p1979
aS'lauren knows well'
p1980
aS'people nice mixed flirting friends'
p1981
aS'boys look good beaniesgt'
p1982
aS'time life time life baby show'
p1983
aS'thats saying last night'
p1984
aS'bring movie inittowinit'
p1985
aS'could soup panera right'
p1986
aS'american eagle coupons pairs instead'
p1987
aS'thank'
p1988
aS'getting jeans sale gtgtgtgtgt'
p1989
aS'everybodys like weather perfect like ready wear long pants'
p1990
aS'last night school starts sick'
p1991
aS'spending saturday mornings helping people thebest'
p1992
aS'matter treated lied always rest control forever control'
p1993
aS'everyone goodnight'
p1994
aS'life good great'
p1995
aS'thanks taylor thanks alot'
p1996
aS'sick'
p1997
aS'waits tweet going sleep early'
p1998
aS'sick'
p1999
aS'movie cute'
p2000
aS'whatever'
p2001
aS'stubborn'
p2002
aS'stubborn'
p2003
aS'everyone asked going jamboree tonight\xf0\x9f\x98\x92'
p2004
aS'praying dont anyone know tonight'
p2005
aS'suck'
p2006
aS'baby giraffe'
p2007
aS'never wanna unhappy thought youd want'
p2008
aS'gotchu'
p2009
aS'able jamboree ltltltlt'
p2010
aS'think gonna hair grow'
p2011
aS'gonna pack face rest'
p2012
aS'know'
p2013
aS'thingsguysdontsay'
p2014
aS'birthday coming real soon'
p2015
ag11
aS'everytime grandpas asks'
p2016
aS'starbucks isnt even expensive think much victorias secret charges'
p2017
aS'love rainbows birthday'
p2018
aS'still august'
p2019
aS'imma hate going back school gonna good catch everybody'
p2020
aS'every time somewhere asks room clean like'
p2021
aS'cold raining wofford football practice morning conquerandprevail'
p2022
ag11
aS'shut'
p2023
aS'goes early'
p2024
aS'honestly glad parents dont stay late every night like would still some\xe2\x80\xa6'
p2025
aS'whenever paint fingernails polish lasts days paint toenails lasts like years'
p2026
aS'basically'
p2027
aS'shut loser'
p2028
aS'next three days rest week'
p2029
ag11
aS'missing someone able worst feeling ever'
p2030
aS'person text'
p2031
aS'okay'
p2032
aS'really miss bestfriends somf'
p2033
aS'seeing moore panthers gtgtgt'
p2034
aS'cody sent gtgtgtgtgt'
p2035
aS'shopping tomorrow'
p2036
aS'carolinas black black uniforms gtgtgt'
p2037
aS'everybody lock cars hecto'
p2038
aS'weather today perfect'
p2039
aS'best friend best friend'
p2040
aS'teacher pregnant everyone awww congratulations shehad'
p2041
aS'nice youve changed'
p2042
aS'hannah cody nonstop commenting picture instagram'
p2043
aS'cody guessed wearing creep'
p2044
aS'feel sometimes tweeting dont text anyone back like sometimes dont wanna talk anyone'
p2045
aS'didnt even text cody saying stay talk already knocked'
p2046
aS'done fell asleep'
p2047
aS'forever worried something'
p2048
aS'things shouldnt said twitter'
p2049
aS'impossible trying sleep headache'
p2050
aS'people take thing wrong'
p2051
aS'miss'
p2052
aS'miss much'
p2053
aS'tired playing games want something real someone thats going'
p2054
aS'really excited football games year like usually'
p2055
aS'funny someone literally power break someone else bitch life please'
p2056
aS'wanna nice person everyone stupid'
p2057
aS'maybe like homeschooled something'
p2058
aS'youre selfish'
p2059
aS'dont even whats wrong starts'
p2060
aS'life anymore complicated already dont answer question'
p2061
aS'crap like cant anymore'
p2062
aS'wonder ever chikfila today'
p2063
aS'trying vent ashley shes ignoring'
p2064
aS'church isnt used mine isnt'
p2065
aS'love'
p2066
aS'gonna miss seeing bestfriends everyday year love yall'
p2067
aS'need something shelf closet shortgirlprobz'
p2068
aS'girl make wanna write song'
p2069
aS'birthday days'
p2070
aS'messed wont hangout bestfriend times moves'
p2071
aS'much need church tonight dont want'
p2072
aS'would tweet right said yousuck'
p2073
aS'somebody bring chikfila please'
p2074
aS'kinda excited tonight sunday'
p2075
aS'puts much handle people struggle choosen'
p2076
aS'wanna start saying good time'
p2077
aS'dont make make fall love'
p2078
aS'hate people assume'
p2079
aS'daltons gonna make forever'
p2080
aS'proud'
p2081
aS'gosh even listening'
p2082
aS'every time hear song think sayin turn sexual song'
p2083
aS'song theres'
p2084
aS'guess'
p2085
aS'ezra needs hugimhereforyoubaby'
p2086
aS'wont wifi connect like dont unlimited data okay'
p2087
aS'people stay life fade life deserve asses kicked life'
p2088
aS'much little'
p2089
aS'everything better dont need nobody\xe2\x80\x9d'
p2090
aS'never ever tell anyone need ever'
p2091
aS'dont care anyones says older wont miss teenager'
p2092
aS'teammate likes'
p2093
aS'thick different things'
p2094
aS'dont stop'
p2095
aS'thanks putting mood'
p2096
aS'starting really annoyed'
p2097
ag11
aS'sports gtgtgtgtgt regular'
p2098
aS'want rainbows school starts since ruined mine'
p2099
aS'know held door youll mine know since yesterday everything changed'
p2100
aS'freak'
p2101
aS'stalk'
p2102
aS'wouldnt known wouldnt told loser'
p2103
aS'cody tweets much'
p2104
aS'damn drama shit'
p2105
aS'jesse better love setting alarm phone'
p2106
aS'miss wish knew'
p2107
aS'crazy jesus died live maybe innocentremixes'
p2108
ag11
aS'serious'
p2109
aS'phone calls ashley hunter best'
p2110
aS'suck'
p2111
aS'storming home alone okay'
p2112
aS'follower'
p2113
aS'swear people weirdest questions knowwww\xf0\x9f\x98\xa9'
p2114
aS'swear people weirdest questions'
p2115
aS'saved heaven longer goal bringing people'
p2116
aS'bring youre troubles come'
p2117
aS'gonna make best last days summer'
p2118
aS'walk faith even cannot'
p2119
ag11
aS'days birthday'
p2120
ag11
aS'dreading going school next week'
p2121
aS'never cried watched marley'
p2122
aS'tears pain fears'
p2123
aS'love song'
p2124
aS'heard church today still goosebumps'
p2125
aS'goodness keep singing 10000 reasons heart find'
p2126
aS'bless lord soul worship holy name'
p2127
ag11
aS'confused everything right'
p2128
aS'need quit worrying making others happy adios'
p2129
aS'good'
p2130
asS'2013_32'
p2131
(lp2132
S'seriously funniest things'
p2133
aS'didnt know singing thought real thing'
p2134
aS'judged right know okay\xf0\x9f\x98\x82\xf0\x9f\x98\xad'
p2135
aS'judged right know'
p2136
aS'dont know anyone pull nose ring'
p2137
aS'dont figured'
p2138
aS'yoga pants hoodies leggings uggs football games haunted houses rides halloween scary movies'
p2139
aS'feel marry'
p2140
aS'caught jammin\xf0\x9f\x98\x82\xf0\x9f\x98\x82'
p2141
aS'never open snapchat thats video people around dont trust friends'
p2142
aS'poor lady'
p2143
aS'friend'
p2144
aS'havent heard long haha'
p2145
aS'carlies creepin lady watching knit freak'
p2146
aS'short girl guys almost always taller even considered short'
p2147
aS'promised would never change awww'
p2148
aS'today last sunday thats school night sink'
p2149
aS'people drunk party tweet much love absolutely infuriate'
p2150
aS'uncomfortable'
p2151
aS'wanna much'
p2152
aS'never forgive jamie lynn spears getting pregnant ruining zoey'
p2153
aS'someday gravestone gonna birth death year make dash'
p2154
aS'front rudeness'
p2155
aS'theres sketchy people lobby'
p2156
aS'needs shut mouth complaining going like'
p2157
aS'second sunday family carlie church'
p2158
ag11
aS'praying best'
p2159
aS'ashamed'
p2160
aS'good night text best'
p2161
aS'workout partners great people theres nothing like youyour music zone'
p2162
aS'whatever dont underestimate'
p2163
ag11
aS'afraid'
p2164
aS'better'
p2165
aS'cant believe said'
p2166
aS'thats thought'
p2167
aS'stop taking screenshots'
p2168
aS'dont'
p2169
aS'week gtgtgtgtgt'
p2170
aS'dont wanna know'
p2171
aS'whatever'
p2172
aS'shut mouth'
p2173
aS'scared'
p2174
aS'looking forward hour drive home tomorrow'
p2175
aS'stop know right'
p2176
aS'mines cooler'
p2177
aS'phone dumb'
p2178
ag11
aS'forreal though'
p2179
aS'dalton stays taking screenshots'
p2180
aS'must hate much screen shot snap chats'
p2181
aS'ready weve ready'
p2182
aS'oomf doesnt know shes goodluck'
p2183
aS'didnt change grew sometime'
p2184
aS'carlie needs wake bored'
p2185
aS'gonna miss seeing face everyday school starts'
p2186
aS'need together school starts something'
p2187
aS'love like rock standing love like river flowing threw heart'
p2188
aS'integrated'
p2189
aS'dont gonna hate interested business apps boring'
p2190
aS'ready degree weather\xe2\x80\x9d'
p2191
aS'love summer love wearing long sleeves winterhurryup'
p2192
aS'lady wearing mask sketchy'
p2193
aS'sucks classes maybe together year'
p2194
aS'sure havent registered emailed schedule doesnt homeroom teacher though'
p2195
aS'change homeroom year'
p2196
ag11
aS'wonder gonna wake'
p2197
aS'rudeness'
p2198
aS'dont slut'
p2199
aS'know need hang soon school starts like week couple days'
p2200
aS'asia back thanks'
p2201
aS'ohhhh'
p2202
aS'feel like havent talked asia ages'
p2203
aS'welcome'
p2204
aS'slow grab wall wiggle like tryna make fall'
p2205
aS'ready friday night football volleyball games'
p2206
aS'shaking like thats creepy stop'
p2207
aS'carlies jealous better tongue twisters'
p2208
aS'walk room sams tryin bunch tongue twisters\xf0\x9f\x98\x82\xf0\x9f\x98\x82'
p2209
aS'whatever'
p2210
aS'carlie better watch feet away'
p2211
aS'isnt carlie talking'
p2212
ag11
aS'head still hurts eyes burning want something subtweettocarlie'
p2213
aS'sams headache gone qtna'
p2214
aS'watching jaws people'
p2215
aS'making people laugh'
p2216
aS'nothing like little volleyball football practice benjo thunderstorm wofford'
p2217
aS'think jason coolestchillest people family'
p2218
aS'classes three still'
p2219
aS'fact classes oomf year'
p2220
aS'shut hate'
p2221
aS'good luck love'
p2222
aS'ridiculoussss'
p2223
aS'ihop island cause could really pancakes right'
p2224
aS'boys confusing screwwwww daaaaat'
p2225
ag11
aS'seriously made night crap awesome'
p2226
aS'jason know eatin captain crunch'
p2227
aS'literally favorite person vine adnanmansoor fishface'
p2228
aS'wanna talk oomf dont itll disappointment'
p2229
aS'hoodie gtgtgtgtgtgt'
p2230
aS'eyelashes long sunglasses gtgt'
p2231
aS'swear easy scare carlie'
p2232
aS'thats elliot'
p2233
aS'days havent seen forreal elliot uncalled'
p2234
aS'look elliots made hard breath pool chemicals'
p2235
aS'carlies struggling'
p2236
aS'dont even know friends half people friends half keep mood'
p2237
aS'would text'
p2238
aS'part house dont wanna look'
p2239
aS'everybody leaves carlie mornings dont tell theyll'
p2240
aS'awkward'
p2241
aS'movie time carlieee'
p2242
aS'yeah'
p2243
aS'yeah talk'
p2244
aS'dont tell cant something cause youre tempting'
p2245
ag11
aS'guys store unsociable like rude'
p2246
aS'would love pool right'
p2247
aS'quickest piss accuse something didnt fucking'
p2248
aS'loosing patience fast today'
p2249
aS'turtles dance music guys\xf0\x9f\x90\xa2\xf0\x9f\x92\x83\xf0\x9f\x8e\xb6'
p2250
aS'stupid bugs'
p2251
aS'subtweet'
p2252
ag11
aS'baby girl yous cutie'
p2253
aS'team'
p2254
aS'tongue back mouth'
p2255
aS'listened give reason morning'
p2256
aS'listened earlier golfcart dont hate much anymore'
p2257
aS'snap fingas step yoself ayeee'
p2258
aS'want boyfriend like good kind basically'
p2259
aS'smoking almost years needs quit'
p2260
aS'transformationtuesday'
p2261
aS'happy birthday'
p2262
aS'lost'
p2263
aS'raining'
p2264
aS'jcole miguel power trip gtgtgtgtgt\xe2\x80\x9d'
p2265
aS'maybe scariest minutes life'
p2266
aS'feel like carlie trapped room'
p2267
aS'gahh likes chill'
p2268
aS'okay cares anymore stfu'
p2269
aS'feel like rude tonight dont really care'
p2270
aS'guessing oomf arent thing anymore considering never talk ever'
p2271
aS'hate people complain weight like think workout thats annoying things'
p2272
aS'really'
p2273
aS'annoyed yall right'
p2274
aS'people expect much others arent gonna everything want'
p2275
aS'always feelings oomf'
p2276
aS'relationships suppose'
p2277
aS'dont know think cool'
p2278
aS'phone okay yeah thanks asking body\xf0\x9f\x98\x82 ijustcant'
p2279
aS'like broke knock carlies concerned phone'
p2280
aS'sams gotta somethin likee foreal\xf0\x9f\x98\x82\xf0\x9f\x98\x82'
p2281
aS'seriously talk salkehatchie people people school true\xe2\x80\xa6'
p2282
aS'seriously talk salkehatchie people people school'
p2283
aS'awkwardness getting'
p2284
aS'yeahhhh\xf0\x9f\x92\x81'
p2285
aS'love place'
p2286
aS'problems'
p2287
aS'better watch'
p2288
aS'forever judge that\xf0\x9f\x98\xad\xf0\x9f\x98\x82\xf0\x9f\x98\x82'
p2289
aS'havent text oomf today okay'
p2290
aS'dramatic today'
p2291
aS'guys earlier'
p2292
aS'needa hurry ride around'
p2293
aS'mood past days gtgtgtgtgt'
p2294
aS'people disagree sure good\xf0\x9f\x99\x8f'
p2295
aS'well know'
p2296
aS'prefer coming haywood westgate'
p2297
aS'eating breakfast since carlie isnt awake'
p2298
aS'feel like reason told piss'
p2299
aS'help protect oceans well give every tweet vwsharkweek'
p2300
aS'hair like drugs want back'
p2301
aS'treat right shell find somebody will\xe2\x80\x9d'
p2302
aS'dont great shark week'
p2303
aS'last days weird even kidding'
p2304
aS'thats happens wont play music\xf0\x9f\x98\x82\xf0\x9f\x98\x82'
p2305
asS'2013_31'
p2306
(lp2307
S'need moore guys like truegentlemen amazingstory gocenturions'
p2308
aS'never ready starts takin pictures\xf0\x9f\x98\x82'
p2309
aS'hair literally pulled time start fixing hair school starts'
p2310
aS'blue eyes'
p2311
ag11
aS'interesting trip getting georgia'
p2312
aS'feel little parents never talk kids like'
p2313
aS'pandora trying tell licensed limit skips'
p2314
aS'hardly service part room'
p2315
ag11
aS'years famous forgotten 2000 years jesuss name shouted alive'
p2316
aS'maybe care much\xe2\x80\x9d life described sentence'
p2317
aS'like trust issues sorry people pushed'
p2318
aS'good thing goes world'
p2319
aS'we\xe2\x80\x99ve made contact least twice month date already'
p2320
aS'thanks love'
p2321
aS'probably start packing'
p2322
aS'love movies piss'
p2323
aS'rains whole week beach'
p2324
aS'moms stressing'
p2325
aS'christ died unable help living right time christ'
p2326
aS'freshman sophomore junior senior class grad year\xf0\x9f\x8e\x89\xf0\x9f\x8e\x8a\xf0\x9f\x8e\x93'
p2327
aS'late night walks beach gtgtgtgtgtgtgtgtgtgtgtgt'
p2328
aS'take medicine'
p2329
aS'beach week shark week daredeviltweet'
p2330
ag11
aS'pictures lacie instagram gtgtgtgtgtgt imcute'
p2331
aS'everyone house complicated tonight canyounot'
p2332
ag11
aS'restaurant tshirtsgtgtgt\xf0\x9f\x98\x8d'
p2333
aS'want running shoes'
p2334
aS'feeling successful screenshotgtgtgt snapchatprobs'
p2335
aS'girl'
p2336
aS'need together back beach school starts'
p2337
aS'seriously year since hangout'
p2338
aS'cleaned carlies shoes doesnt even know bestfriendaward'
p2339
aS'best friend'
p2340
ag11
aS'made changes life dont regret none never hear youre probably'
p2341
aS'back school month'
p2342
aS'debating whether phone charger beach case breaks'
p2343
aS'thought would enjoy'
p2344
aS'explains snapchat'
p2345
aS'place faith jesus sins wiped clean come alive depths souls hell longer'
p2346
aS'everybody asking carlie tonight gtltgtltgtlt'
p2347
aS'fair cant comments church rude ones twitter facebook'
p2348
aS'trouble since trouble disappear thatll finally right'
p2349
aS'1069 station gtgtgtgtgt'
p2350
aS'pray protector psalm'
p2351
aS'racist people ltlt dont mean white people kind racist assholes'
p2352
aS'people wanna talk either asleep cant yallsuck'
p2353
aS'still dont know crush like every selfie instagram youre hopeless'
p2354
aS'puts certain people life reason dont ignore reason'
p2355
aS'dads sitting watching asking questions'
p2356
aS'hannah stupid'
p2357
aS'eyes stop watering'
p2358
aS'want aria ezra together'
p2359
aS'somebody better take insidious part comes september'
p2360
aS'time freak mind make madagain\xf0\x9f\x98\x92\xf0\x9f\x98\x8a\xe2\x80\x9d'
p2361
aS'dont think oomf make mind 2omf'
p2362
aS'okay talk later'
p2363
aS'perfect next'
p2364
aS'don\xe2\x80\x99t love somebody you\xe2\x80\x99re missing somebody dont care somebody'
p2365
aS'parents strictest people ever'
p2366
aS'wish lived beach somewhere spartanburg'
p2367
aS'whatd text'
p2368
ag11
aS'swear listen ride everyday'
p2369
aS'ready beach weekend'
p2370
aS'cant wait friday night football games'
p2371
aS'real dont women'
p2372
aS'gtgtgtgtgtgtgtgtgtgtgtgtgtgtgtgtgtgtgtgtgtgtgtgtgtgtgtgtgtgtgtgtgtgtgtgtgtgtgtgtgtgtgtgtgtgtgtgt'
p2373
aS'lifes short anything happy'
p2374
aS'first school'
p2375
aS'workout work'
p2376
aS'throwback cake made birthday browniecake'
p2377
ag11
ag11
aS'basically'
p2378
aS'want person youre scared lose'
p2379
aS'hate'
p2380
aS'talking'
p2381
aS'isnt fair feel defeated church'
p2382
aS'seeing guys play little kids fucking attractive thing ever gtgtgtgtgt'
p2383
aS'youre absolute bestfriend love much youre half'
p2384
ag11
aS'love even hate'
p2385
ag11
aS'thats dumb'
p2386
aS'whuut'
p2387
aS'someone text'
p2388
aS'story cant bring medicine dying'
p2389
aS'hunter really grossed'
p2390
aS'would better coming broome year beat'
p2391
aS'miss need hang something text sometime love'
p2392
aS'havent talked'
p2393
aS'stayed crackin math always picking people english'
p2394
aS'cool dont talk much'
p2395
aS'played softball back'
p2396
aS'thank'
p2397
aS'thank'
p2398
aS'used close grade always called booty broke'
p2399
aS'weve never really talked pretty'
p2400
aS'sweet hilarious week salk much'
p2401
aS'spending week like best super funny sweet'
p2402
aS'seem cool never talked change'
p2403
ag11
aS'freezing'
p2404
aS'wonder wants play ball sometime week'
p2405
aS'miss oomf much like yall dont know'
p2406
aS'wanna something tonight'
p2407
ag11
aS'feel like somf sometimes'
p2408
aS'understand text'
p2409
aS'whats wrong'
p2410
aS'close loosing patience'
p2411
aS'found peelers notes wanted class struggle'
p2412
aS'jensen ackles'
p2413
aS'never gotten youre important'
p2414
aS'think texting cody sleep last night dont remember telling internet problems'
p2415
aS'ready beach weekend dont like clean stuff whole week'
p2416
aS'think might'
p2417
aS'reading stressed'
p2418
aS'cody sucks calling tired'
p2419
aS'hungry like hour'
p2420
aS'rememberthedays would blow capri give friend like full'
p2421
aS'people awkward weird personalities tend make best friends'
p2422
aS'hard you\xe2\x80\x99re cuddly mood don\xe2\x80\x99t anyone cuddle'
p2423
aS'nothing ever planned'
p2424
aS'people unnecessarily mean hell outta promise little kindness wont kill'
p2425
aS'stop'
p2426
aS'never afraid stand believe voice matters'
p2427
ag11
asS'2013_30'
p2428
(lp2429
S'excited'
p2430
aS'still dont know love much'
p2431
aS'youre powerless focus past cant changed move forward focus matters\xe2\x80\x9d'
p2432
aS'theres probably reason texting back like stop'
p2433
aS'airport later'
p2434
aS'never decide wanna carlie driving around like last minute turning'
p2435
aS'mmhm'
p2436
aS'correct'
p2437
aS'church'
p2438
aS'samlyn havent heard'
p2439
aS'youre youre'
p2440
aS'else gtgtgtgtgtgtgtgtgtgtgtgtgtgtgtgtgtgtgtgtgtgt'
p2441
aS'need play ballllllllllllllll\xf0\x9f\x98\xa9'
p2442
aS'planning going church today doubt thatll happen today'
p2443
aS'head really unattractive'
p2444
aS'carlie much pain dont know shes sleeping shes starting annoy tired'
p2445
aS'somebody text know wont asleep anytime soon'
p2446
aS'theres difference real rude'
p2447
aS'swear carlie something stupid much pain last summer poisoning pains'
p2448
aS'everything happens reason guess'
p2449
ag11
aS'cant decide text oomf tonight wait text sometime'
p2450
aS'cant outta mind'
p2451
aS'rudeness pain making jokes cool dude cool'
p2452
aS'struggle real right'
p2453
aS'legs sore like legs havent hurt'
p2454
aS'hunter sent snapchat dancing elvs'
p2455
aS'tweetyoursummerinonepicture stole idea true'
p2456
aS'mile hike check'
p2457
aS'gonna interesting trip'
p2458
aS'tired'
p2459
aS'goodnight freak'
p2460
ag11
aS'crazy song bring back many memories'
p2461
aS'become millionaire oomf moving west europe mansion live ocean live leis\xe2\x80\xa6'
p2462
aS'oomf know theyre mind'
p2463
aS'text oomf would'
p2464
aS'factsaboutme really feeling movie'
p2465
aS'factsaboutme coolest person could know'
p2466
ag11
aS'carlie said test cant explain funny'
p2467
aS'miss oomf like'
p2468
ag11
aS'need hoodie dont wanna downstairs'
p2469
aS'hate people valid reason like'
p2470
aS'movie cute'
p2471
aS'movie stays making wanna'
p2472
aS'watching peter gtgtgtgtgt'
p2473
ag11
aS'thanks coming bored'
p2474
aS'addicted snapchat'
p2475
aS'almost everyone talked pissy mood towards like yall happy'
p2476
aS'yeah goes like'
p2477
aS'awkward'
p2478
aS'baby amazing maze youu'
p2479
aS'moms tryna ready hour half leave trying impress anyone today'
p2480
aS'reasons best friend inaccurate'
p2481
aS'talk alot know dont\xe2\x80\x9d'
p2482
aS'plans today nothing carlie gets watch peter'
p2483
aS'jesus insecurities jesus storms jesus fears jesus doubts'
p2484
aS'relationship wanna happy deep hate happy someone else else'
p2485
aS'people always point flaws find whats good someone leave'
p2486
aS'might'
p2487
aS'going'
p2488
aS'oomf needs keep little rude comments'
p2489
aS'shitsoftballplayerssay maybe take time putting cleats wont'
p2490
aS'emotional lately starting annoy'
p2491
aS'headache'
p2492
aS'ready friday nights'
p2493
ag11
aS'excited saturday havent mountains longggg time'
p2494
aS'still raining'
p2495
aS'need dont need'
p2496
aS'anybody remember suckers sold cowpens middle thebestsuckersever cravingone'
p2497
aS'love someone tell even youre scared right thing marksloan greysanatomy'
p2498
aS'want come home'
p2499
ag11
aS'still really pissed like extremely rude'
p2500
aS'youve ignore things bring'
p2501
aS'every second everyday hungry'
p2502
aS'hopefully spending tomorrow wofford'
p2503
aS'sports fans leave within last minutes beat traffic worse crocs'
p2504
aS'lacie confusing like dont know supposed cooking saturday like might starve'
p2505
aS'hate laying yall dont even know reasonswhyimwhite'
p2506
aS'10factsaboutme nerdier youd ever think quirks'
p2507
aS'mean oomf dream might'
p2508
aS'yeah like okay like knocked'
p2509
aS'really happen'
p2510
aS'sams yelling sleep\xf0\x9f\x98\x82'
p2511
aS'kinda wanna'
p2512
aS'jersey number important'
p2513
aS'snapchat texting'
p2514
aS'gotten point miss memories'
p2515
aS'2omf date again\xf0\x9f\x98\x8f'
p2516
aS'plans weekend planned gtgtgtgtgtgt'
p2517
aS'wake early ltltltltltlt plans tomorrow'
p2518
aS'carlie friends'
p2519
aS'guess insults arent good enough'
p2520
ag11
aS'thanks wasnt wont talk'
p2521
aS'come hangout awesome'
p2522
aS'maybe yall didnt stay tweet flirting wouldnt problem'
p2523
aS'carlies last tweet dont make since'
p2524
aS'jesses tweeting'
p2525
aS'think carlie gets problems'
p2526
aS'thats cute youre cute'
p2527
aS'atleast carlies getting'
p2528
aS'complemented chocolate milk making skills\xf0\x9f\x98\x8a'
p2529
aS'kinda want oomf text'
p2530
aS'except julia lmfao'
p2531
aS'sorry funny'
p2532
aS'dont make lmao'
p2533
aS'yeah forgot graduated gonna miss going office cussing teacher seeing'
p2534
ag11
aS'going'
p2535
aS'gonna miss'
p2536
aS'whatpeopledontrealize actually really nice person know'
p2537
aS'stop'
p2538
ag11
aS'flat sucks'
p2539
aS'makes like'
p2540
aS'someone gonna wish listened little closer'
p2541
aS'sooooo mean thats nice nice hate'
p2542
aS'think care much people like hate friends'
p2543
aS'admit stupid learned hard shouldnt youre gonna happy'
p2544
aS'years much oomf cheated good deserved'
p2545
aS'reminding years here\xf0\x9f\x98\xb3\xf0\x9f\x98\x9d'
p2546
aS'carlie arent talking right'
p2547
aS'wicked games reminds much oomf'
p2548
aS'moms answering need know soon someone flips'
p2549
aS'possibly camping tonight'
p2550
aS'jesus life know jesus know life'
p2551
aS'video always makes laugh'
p2552
aS'want cute lets listen music wear clothes fall asleep chest earned'
p2553
aS'carlie better watch'
p2554
aS'arent meant church always gettin trouble stuff\xf0\x9f\x91\x8c\xf0\x9f\x98\x82'
p2555
aS'know dalton alex loving snapchats\xf0\x9f\x98\x82'
p2556
aS'tweet turn stfu nobody cares'
p2557
aS'miss someone'
p2558
aS'retweet youre proud support troops'
p2559
aS'wearing skinny jeans running shoes worse crocs'
p2560
aS'wanna something today'
p2561
ag11
aS'around turn nuka psychotic lion lion king'
p2562
aS'putting tonight goodnight twitter'
p2563
aS'hate cant quote stuff word count'
p2564
aS'like called believed yall listen often know talking'
p2565
aS'knew would happen whatever'
p2566
aS'theyd laugh would come cause theyd make listen'
p2567
aS'give reason reminds told everyone salklife13 house hated freaked'
p2568
aS'everyone beach right hate'
p2569
aS'carlies making noises sleep starting freak'
p2570
aS'official'
p2571
aS'official give reason song whetheryoulikeitornot'
p2572
aS'buttttt know kinda person thats mattersim happy'
p2573
aS'awkwardddddd'
p2574
aS'thought still friends could talk guess'
p2575
aS'feel like little right kidatheart'
p2576
aS'differ'
p2577
aS'ashlyn needs hurry tell shes gotta tell getting impatient'
p2578
aS'clumsy usually past days'
p2579
aS'teeth hurt sitting trying lunchable bracessuck'
p2580
aS'whatever eating'
p2581
aS'means supposed spaghetti tonight'
p2582
aS'kiddin dont want lunchable'
p2583
aS'mean jason sure'
p2584
aS'fictionalcharactersiwanttomarry troy bolton'
p2585
aS'youve kidding'
p2586
aS'anything'
p2587
aS'bring food come'
p2588
aS'alright dont food'
p2589
aS'alright eating come eating'
p2590
aS'always taught never give amazes easily'
p2591
aS'getting life living fullest truly fucking happy thats best revenge thats'
p2592
aS'well creepy'
p2593
aS'stuff sleeping wanna know'
p2594
aS'creep carlies tweets sometimes shes talked sorryboutit'
p2595
aS'havent talked fred'
p2596
aS'hate painting nails thestruggle'
p2597
aS'would believe said love\xf0\x9f\x8e\xb6'
p2598
aS'greatest gift isnt even given takes away pain misery sins'
p2599
aS'oomf come seeeee meeeeeee'
p2600
aS'oomf snapchats morning everyday knowing asleep'
p2601
aS'comes oomf really angry really fast whoops sorrynotsorry'
p2602
aS'tomorrow goes planned'
p2603
aS'well guess twitter turned askfm'
p2604
aS'oomf'
p2605
aS'dont believe searching believe takes finding right person worth fighting ever\xe2\x80\xa6'
p2606
aS'storms cuddle ltltltltltltltltltltltlt'
p2607
aS'better calling back middle story'
p2608
aS'john mayor good ready september'
p2609
aS'ready teen wolf'
p2610
aS'really wanting fuji right'
p2611
aS'time oomf'
p2612
aS'10000 reasons heart find'
p2613
aS'love song'
p2614
aS'instagram pictures food judging'
p2615
aS'hopefully hanging jessica sometime soon'
p2616
aS'like would pass paying food never happens'
p2617
aS'told lacie went food yeah wouldnt'
p2618
aS'exact reason need able drive'
p2619
aS'ifwedate dont take granted leave like'
p2620
aS'single dont talk anyone'
p2621
aS'seriously cheat someone dont deserve happy ruined someone elses happiness'
p2622
aS'rain needs trying stay white another year'
p2623
aS'ready come home'
p2624
aS'gonna huge dark cloud'
p2625
aS'lindsay lohan jamie curtis never switched back freaky friday jamie drugs lindsay'
p2626
aS'sometimes things aregod unfold possibilities never thought existed godposts'
p2627
aS'gtgtgtgtgt'
p2628
aS'perfect'
p2629
aS'dont change someone cant change'
p2630
aS'love'
p2631
aS'know miss'
p2632
aS'thank letting another'
p2633
aS'snapchat gtgtgtgtgtgt mademyday'
p2634
aS'gonna even good mood anymore'
p2635
aS'maybe change good thing'
p2636
aS'working'
p2637
aS'dont regret past regret time wasted wrong people'
p2638
aS'guys straight tell feel gtgtgtgtgtgt'
p2639
aS'texting sorry phones dumb wont send anything'
p2640
aS'arent texts sending'
p2641
aS'carlie seriously everyday week whats'
p2642
ag11
ag11
aS'stop'
p2643
aS'someone explain finding like everyone else already'
p2644
aS'oomf fake'
p2645
aS'almost august ltltltltlt'
p2646
aS'thingsaboutme love baseball player'
p2647
aS'single downs\xf0\x9f\x98\x8f'
p2648
asS'2013_39'
p2649
(lp2650
S'church paxton tonight'
p2651
aS'fact allergic mascara ltltltltlt like happen'
p2652
aS'extremely loud incredibly close'
p2653
aS'guys slits eyebrows cute stahp'
p2654
aS'ifwedate help face fears help insecurities youll perfect'
p2655
aS'used person church little worry going hell cause wasnt saved thank'
p2656
aS'dont think good enough true youre choose anyway grace'
p2657
aS'always near\xe2\x9c\xa8'
p2658
aS'hope everything'
p2659
aS'best know hope good person'
p2660
aS'read ltltltltlt'
p2661
aS'tell happens later please'
p2662
aS'dream last night carlie fight knocked teeth'
p2663
aS'ohhhh understand sorry girl'
p2664
aS'whats going'
p2665
aS'well walking streets gold'
p2666
aS'fact spending homework ltltltlt'
p2667
aS'ever thought newspring cult heard someone call cult must read'
p2668
aS'second option either choose fcking lose'
p2669
aS'todays best days'
p2670
aS'fact said youd change didnt'
p2671
aS'wearing guys hoodies gtgtgt'
p2672
aS'miss boyfriend want something real'
p2673
aS'fact paxton close year gtgtgtgtgt'
p2674
aS'could starbucks right'
p2675
aS'cute straight tells likes'
p2676
aS'swear oomf always worrying'
p2677
aS'trying hard stop'
p2678
ag11
aS'everyones acting weird towards today'
p2679
aS'call gtgtgtgtgtgt'
p2680
aS'wouldnt knoe'
p2681
aS'noooooo course'
p2682
aS'definitely whipping f150 laughed'
p2683
aS'laughed'
p2684
aS'thing knowing another thing knowing'
p2685
aS'interstate seeing tons clemson flags gtgtgtgt'
p2686
aS'goodness'
p2687
aS'shouldnt awake right'
p2688
aS'wish could block people life twitter phone'
p2689
aS'stop favoring stuff skank'
p2690
aS'baseball players twerking\xf0\x9f\x98\x8d\xf0\x9f\x98\x8d\xf0\x9f\x98\x8d'
p2691
ag11
aS'stop playing games head'
p2692
aS'williams sitting telling much hates like hungry'
p2693
aS'amazing story'
p2694
aS'waits cody something saying'
p2695
aS'psshh'
p2696
aS'dont hate'
p2697
aS'better'
p2698
aS'forever breaking phone charger'
p2699
aS'know'
p2700
ag11
aS'became friends band jessi would talk nice sams butt'
p2701
aS'know taylor know'
p2702
aS'really feel like years'
p2703
aS'wonder carlie ashley remember night around kitchen straight minutes stay away'
p2704
aS'something funny happens guarantee friend keeps laughing even though everyone else stopped'
p2705
aS'bestfred'
p2706
aS'salkehatchie cutie'
p2707
aS'salkehatchie'
p2708
aS'missyoufred'
p2709
aS'thats whats face'
p2710
ag11
aS'cant believe fred hasnt done'
p2711
aS'perfect'
p2712
aS'know strong enough everything supposed'
p2713
aS'curves beautiful body shapes beautiful every girl feel confident look'
p2714
aS'fred'
p2715
aS'miss bestfriend'
p2716
aS'chilling back snapchats salklife13'
p2717
aS'warn comfortable right'
p2718
aS'thingsigetalot really tall guys'
p2719
aS'never normal conversation'
p2720
aS'information dead serious'
p2721
aS'thanks giving something else stress'
p2722
aS'stressin dude'
p2723
aS'whats wrong fred qtna'
p2724
ag11
aS'yall would horrified looked mirror character rather face'
p2725
aS'cant dance hokeypokey cant foot foot either youre youre'
p2726
aS'head ache every'
p2727
aS'excited weekend'
p2728
aS'gave fuck terrible'
p2729
aS'better sarcastictweet'
p2730
aS'nothing easy dont blame others deep always best life tests never'
p2731
aS'life throws curves learn swerve'
p2732
aS'think parent forgotten wake mornings'
p2733
aS'past past made mistakes learned'
p2734
aS'song brings back many memories'
p2735
aS'heart nothing else hurts like knew love cruel'
p2736
aS'turned best thing never'
p2737
aS'dumb\xf0\x9f\x99\x8a\xf0\x9f\x98\x82'
p2738
aS'theres nothing hate pushing away fucked attitude'
p2739
aS'story life'
p2740
aS'grace forgiveness mercy healing meet ever'
p2741
aS'straightens hair puts line glosses lips never care'
p2742
aS'everyone read this\xf0\x9f\x99\x8c'
p2743
aS'swear headaches'
p2744
aS'dont scared spread word offends friends good friends'
p2745
aS'know amazing feeling church retreat arent getting feeling church servic\xe2\x80\xa6'
p2746
aS'talking'
p2747
aS'crazy people everyday school seem fine read tweets theyre falling apart metoo'
p2748
aS'course night dont worry homework decides text back'
p2749
aS'happy birthday thank youuuuuu'
p2750
aS'happy birthday'
p2751
aS'possibly getting braces tomorrow dont know feel'
p2752
aS'first night havent homework year'
p2753
aS'skip part come home school'
p2754
aS'first time listening song crying since salkehatchie'
p2755
aS'feel like giving reminds great love'
p2756
aS'phone charger beyond ratchet'
p2757
aS'show missing'
p2758
ag11
aS'baptized people today spartanhurg celebrate'
p2759
asS'2013_38'
p2760
(lp2761
S'moms finally home'
p2762
aS'missing know happened'
p2763
aS'okay'
p2764
aS'neighbors house qtna currentlyfreakingout'
p2765
aS'internet addiction started'
p2766
aS'hate people emoji football rugby ball theres football emoji reason'
p2767
aS'weve seen 2111 public jesus morning still services tonight celebrate nextstep'
p2768
aS'celebrate 1859 baptisms todayahhhhh'
p2769
aS'newspring changing many lives thats church'
p2770
aS'quote broome isclassy trashy anyone goes understands'
p2771
aS'fall favorite season'
p2772
aS'coffee gtgtgtgtgt'
p2773
aS'jesus said didn\xe2\x80\x99t choose chose john 1516'
p2774
aS'guys sleepy voice gtgtgtgtgtgtgtgtgtgtgtgtgtgtgt'
p2775
aS'struggling keep eyes open right'
p2776
ag11
aS'plan plan'
p2777
aS'trust'
p2778
aS'forgiving hardest things always rewarding'
p2779
aS'wofford football kicks hour heavy rain right warmups clear soon'
p2780
aS'think keep comment'
p2781
aS'know'
p2782
aS'growing sucks'
p2783
aS'hair gets long enough going inches donate cancer'
p2784
aS'want something today time dont'
p2785
aS'joke'
p2786
ag11
aS'friday night already'
p2787
aS'glad dont deal anymore'
p2788
aS'fall wears hoodies winter wears hoodies spring wears hoodies sleeves rolled summer turns wears'
p2789
aS'love like fire light love like rock standing'
p2790
ag11
aS'tattoos body psycho bitches lobby'
p2791
aS'looking forward morning'
p2792
aS'really happy grades probably wont even show'
p2793
aS'feel like exactly little'
p2794
aS'dont update qtna'
p2795
aS'starring like stop please'
p2796
aS'every single soccer players unattractive thank'
p2797
ag11
aS'everywhere know away right'
p2798
aS'hearing last thing expected'
p2799
aS'10000 reasons time favorite song'
p2800
aS'fact oomf getting close gtgtgtgtgt'
p2801
aS'ready wofford state game november'
p2802
aS'pretty much\xf0\x9f\x92\x81'
p2803
aS'seeing love playing little kids gtgtgtgtgtgt'
p2804
aS'hate people dont like reason'
p2805
aS'snapchats left heart broken'
p2806
aS'mitchells snapchats'
p2807
aS'mentionanaddiction gatorade'
p2808
aS'okay'
p2809
aS'gonna real jealous friends free raybans'
p2810
aS'fact getting braces next couple months gtgtgtgtgt'
p2811
aS'oomf really starting annoy'
p2812
aS'head stop hurting'
p2813
aS'like someone isn\xe2\x80\x99t afraid tease sarcastic don\xe2\x80\x99t want conversations serious'
p2814
aS'school todayy'
p2815
aS'darn know love'
p2816
aS'saying'
p2817
aS'aint scared'
p2818
aS'mean obviously'
p2819
aS'mine conversation better mood'
p2820
ag11
aS'pushed first'
p2821
aS'smilebecause gives another live could take instant'
p2822
aS'smilebecause well live another'
p2823
aS'love sister though'
p2824
aS'think lacie gonna fight today cause wouldnt stop touching'
p2825
aS'people probably think taylor hate eachother'
p2826
aS'basically love'
p2827
aS'dont wanna boat'
p2828
aS'insecure even funny'
p2829
aS'dont'
p2830
aS'life'
p2831
ag11
aS'tired'
p2832
aS'oomf stresses'
p2833
aS'oomf argue much needs back ways'
p2834
aS'grace ocean sinking'
p2835
aS'exact reason dont guard'
p2836
aS'even rain falls even flood starts rising'
p2837
aS'looked'
p2838
ag11
aS'like likes something'
p2839
ag11
aS'everything happens reason understand matters'
p2840
aS'afraid hurt feelings like second rebound rate youre back next paininthea\xe2\x80\xa6'
p2841
aS'preppyafterdark need'
p2842
aS'promise'
p2843
aS'turning christian music trusting problems\xe2\x80\x9d right'
p2844
aS'praying hard right much going right'
p2845
ag11
aS'problem'
p2846
aS'smilebecause bigger problems'
p2847
aS'whatever'
p2848
aS'fact short jeans still long ltltltltlt people arent midget height'
p2849
aS'mornings like today really want summer'
p2850
aS'hear'
p2851
aS'still going school'
p2852
aS'shut midget'
p2853
aS'fact short jeans still long ltltltltlt'
p2854
aS'right ltltltltlt'
p2855
aS'samhyatt shocker'
p2856
aS'sleeping cant sleep snapchat time'
p2857
aS'jealousy worst feeling'
p2858
aS'know truth'
p2859
ag11
aS'jealousy kicks'
p2860
aS'care much'
p2861
aS'cant stand oomf screwing life cant anything'
p2862
aS'hate allergies'
p2863
aS'thought said gonna happen 2omf next year'
p2864
as.