(dp0
S'2014_10'
p1
(lp2
S'glad childrens rooms ones look like'
p3
asS'2013_24'
p4
(lp5
S'standing next opened jumped back fright said ewwww spider agree yuck'
p6
aS'amazing melb cold degrees'
p7
aS'write script'
p8
asS'2013_26'
p9
(lp10
S'sale gardening gloves never used price negotiable contact brainy details smurfsvillage'
p11
aS'smurfs love love smurfette smurfette earn extra smurfsvillage'
p12
aS''
p13
aS'doctor smurf prescribes cakes pies smurfberries part healthy diet smurfsvillage'
p14
aS'free fresh smurfberries smurfs meet forest come alone gmel smurfsvillage'
p15
asS'2013_27'
p16
(lp17
S'smurfs love love smurfette smurfette earn extra smurfsvillage'
p18
aS'doctor smurf prescribes cakes pies smurfberries part healthy diet smurfsvillage'
p19
aS'papa smurf confirms distance magical waterfall smurfsvillage'
p20
aS'free fresh smurfberries smurfs meet forest come alone gmel smurfsvillage'
p21
aS'brainy smurf good advice smurfs busy working smurfsvillage'
p22
aS'lost grouchys sense humor found return frownyfaced smurf immediately smurfsvillage'
p23
asS'2013_20'
p24
(lp25
S'thankyou meds intracranial hypertension worth arms'
p26
ag13
aS'precious baby joining november'
p27
aS'gorgeous photo photo sent'
p28
asS'2013_23'
p29
(lp30
S'flashback friday today'
p31
aS'enjoy sound deliciousvery lucky'
p32
asS'2013_28'
p33
(lp34
S'smurfs love love smurfette smurfette earn extra smurfsvillage'
p35
aS'doctor smurf prescribes cakes pies smurfberries part healthy diet smurfsvillage'
p36
aS'papa smurf confirms distance magical waterfall smurfsvillage'
p37
aS'free fresh smurfberries smurfs meet forest come alone gmel smurfsvillage'
p38
aS'brainy smurf good advice smurfs busy working smurfsvillage'
p39
aS'lost grouchys sense humor found return frownyfaced smurf immediately smurfsvillage'
p40
aS'sale gardening gloves never used price negotiable contact brainy details smurfsvillage'
p41
asS'2013_29'
p42
(lp43
S'brainy smurf good advice smurfs busy working smurfsvillage'
p44
aS'well soon asthmatic kids also horrible scarytry rest take easy'
p45
aS'sale gardening gloves never used price negotiable contact brainy details smurfsvillage'
p46
asS'2012_12'
p47
(lp48
S'awesome night last night lots laughs'
p49
aS'hearing drank much last night'
p50
aS'happy birthday precious little hope magical'
p51
asS'2012_19'
p52
(lp53
S'happy mothers enjoy special precious little'
p54
asS'2013_11'
p55
(lp56
S'hope madi wonderful birthday celebration friends family'
p57
asS'2013_10'
p58
(lp59
S'couldnt perfect tried wonderful birthday present'
p60
aS'play school concert morning good kids loved great person'
p61
aS'come melb nothing next week rain'
p62
asS'2013_13'
p63
(lp64
S'kids forever drives crazy never want help pack happy make mess help'
p65
asS'2013_12'
p66
(lp67
S'quite often make dinner mornings make night routine smoother'
p68
aS'nooooo happened sure happy whatever cake ends'
p69
aS'happy birthday madi hope wonderful'
p70
aS'looks like fantastic night great photo'
p71
asS'2013_14'
p72
(lp73
S'iphone love sure'
p74
aS'belated happy easter spent weekend country kids lots activities'
p75
asS'2013_16'
p76
(lp77
S'havent trouble mine upgraded month great going along hope good'
p78
aS'kind problems'
p79
asS'2013_19'
p80
(lp81
S'wanted share happy news baby joining family november'
p82
asS'2013_5'
p83
(lp84
S'glad hear going well many days'
p85
aS'stay strong feel much better'
p86
aS'hope everything storm wasnt night'
p87
aS'looks like ever made goopawesome cornflourwater food colouring provides hours entertainment'
p88
asS'2013_4'
p89
(lp90
S'crazy weatherone half country fire flooded stay safe hope hitting area badly'
p91
aS'celebrate australia hard hope recover quickly'
p92
aS'drink wait cheers'
p93
aS'hope floods arent areawe time flooded'
p94
aS'happy australia aussie filled'
p95
aS'sounds like worked hard enjoy relax'
p96
aS'hear even crazier'
p97
aS'dear else fails turn phone works'
p98
aS'photo stripes'
p99
aS'great time last night honeymoon heading back melbourne tomorrow precious babies'
p100
aS'good luck'
p101
aS'cute'
p102
aS'photo'
p103
asS'2013_7'
p104
(lp105
S'love pink colour would whole house colour could excellent'
p106
asS'2013_6'
p107
(lp108
S'little lachlan started school today loves mummy baby grown'
p109
asS'2013_1'
p110
(lp111
S'jealous right going loooong night kids dont want settle heat'
p112
aS'hope madi keeping cool today melbourne moment'
p113
aS'happy year 2013 everything wish cheers'
p114
aS'spoilt children'
p115
asS'2014_19'
p116
(lp117
S'beautiful photo everhappy mothers today'
p118
asS'2013_3'
p119
(lp120
S'honeymoon arrived dream islandthis beautiful view room'
p121
asS'2013_2'
p122
(lp123
S'thanks cant waithave never left kids longer fine bring thursday'
p124
aS'enjoy visit friends honeymoon week daydream island8 days kids'
p125
aS'know said melbourne really lovely places dandenongs worth checking'
p126
aS'madi funny wait mummy sees'
p127
asS'2014_15'
p128
(lp129
S'nerve racking whole show best block results ever done well'
p130
asS'2013_9'
p131
(lp132
S'taking little play school concert next week wonder'
p133
asS'2013_8'
p134
(lp135
S'hows weather going hope'
p136
aS'stay safe hope passes quickly'
p137
aS'mother nature needs take chill pill floods fires many disaster zone right enjoy relaxing weekend'
p138
aS'good busy kids school kinder wondered glad hear blast'
p139
asS'2014_12'
p140
(lp141
S'something like take apart could work quite easily'
p142
aS'everybodyim struggling right helping make'
p143
asS'2014_8'
p144
(lp145
S'extremely news saddens someone felt helpless felt could escape'
p146
asS'2014_7'
p147
(lp148
S'amazing love talented'
p149
asS'2014_5'
p150
(lp151
S'inspired start exercisingwalked 55km today baby pram plan everyday'
p152
aS'watch block tape biggest loser cant watch'
p153
asS'2014_2'
p154
(lp155
S'awwwwwwwww gorgeous little girlwhat treasure'
p156
aS'isabella smiling brotherso much love smile hope makes smile'
p157
aS'tell music thing today werent today'
p158
asS'2014_3'
p159
(lp160
S'thats looks mine hate sandwiches holidays school every'
p161
aS'days enough hours give best shot kids happy thats matters'
p162
asS'2014_1'
p163
(lp164
S'awesome time melb hope turn good weather'
p165
asS'2014_28'
p166
(lp167
S'really live paradise beautiful must coffs holiday list much better melbournes weather right'
p168
asS'2014_26'
p169
(lp170
S'wanted concert bday never concert children finances couldnt stretch'
p171
asS'2012_38'
p172
(lp173
S'looks like great'
p174
aS'kids sure love play centres spent hours today kids ball never want leave'
p175
aS'wonderful time'
p176
aS'kids glad strawberries back season cant enought'
p177
asS'2013_32'
p178
(lp179
S'brainy smurf good advice smurfs busy working smurfsvillage'
p180
aS'lost grouchys sense humor found return frownyfaced smurf immediately smurfsvillage'
p181
aS'sale gardening gloves never used price negotiable contact brainy details smurfsvillage'
p182
aS'smurfs love love smurfette smurfette earn extra smurfsvillage'
p183
aS'doctor smurf prescribes cakes pies smurfberries part healthy diet smurfsvillage'
p184
aS'painlol baby causing sciatica walking struggle moment joys pregnancy'
p185
aS'papa smurf confirms distance magical waterfall smurfsvillage'
p186
aS'free fresh smurfberries smurfs meet forest come alone gmel smurfsvillage'
p187
asS'2012_49'
p188
(lp189
S'cake board cellophane cover last weeks thats'
p190
aS'something special favourites'
p191
aS'sure thought like real life princess made proud perfect little trio'
p192
aS'thankyou almost degrees amazing everything went perfectly followed great party celebrate'
p193
aS'three beautiful children charlotte lachlan sophie entering reception'
p194
aS'perfect wedding'
p195
aS'whilst phone went swim posted photo wedding think might missed though'
p196
asS'2012_48'
p197
(lp198
S'mummygiggless twitrpix gorgeous trio'
p199
aS'three beautiful childrencharlotte lachlan sophie entering wedding reception'
p200
aS'mummygiggless twitrpix perfect wedding'
p201
aS'posted photo'
p202
asS'2012_45'
p203
(lp204
S'thankyou mastectomy last yesterday told lung cancer struggling news'
p205
aS'could really positive vibesmy hospital fighting sudden cancer battle weeks wedding'
p206
asS'2012_44'
p207
(lp208
S'enjoy lovely watch mcleods stressful week wonderful weekend'
p209
aS'final wedding plans days last minute stuff suddenly stressful'
p210
aS'congratulations chrissie baby number exciting best wishes next weeks'
p211
aS'best weekend toodidnt want endawesome night hens nightlots laughs drinks friends'
p212
asS'2012_47'
p213
(lp214
S'years children leave tomorrow head country wedding married saturday'
p215
aS'honey came side even strongeryour happily ever come like stevies'
p216
asS'2012_46'
p217
(lp218
S'hope beautiful thankyou bringing smile many people every'
p219
aS'small ones safer leave strapped seatsi petrol stationi time'
p220
aS'sock moster wish knew went kids worth lost socks'
p221
asS'2012_41'
p222
(lp223
S'beautiful love colours coldwet night melbourne beautiful night like'
p224
aS'people nothing better plenty think wonderful ignore rest worth'
p225
aS'think disgusting parents single parent hard enough without added pressure'
p226
asS'2012_40'
p227
(lp228
S'hilarious'
p229
aS'showed soph laughed said echidnathey sticky tounges ants spiky loves'
p230
aS'cute sophie obsessed echidnas moment loves show'
p231
aS'beautiful worth hanging wall love curls gorgeous'
p232
asS'2012_43'
p233
(lp234
S'great weekend sounds like hens night weekend cant wait free'
p235
asS'2012_42'
p236
(lp237
S'lots cold foodsmeatssaladyoghurtfruitpastaetcbut remember wont starve hungry'
p238
aS'look forward seeing look great sure'
p239
aS'tell natural animals dont give baby'
p240
aS'lots different animals place must feel like times'
p241
aS'thats cutest lawn mower ever seen'
p242
asS'2014_37'
p243
(lp244
S'check camping highchair isabella might handy camping trips love'
p245
asS'2014_35'
p246
(lp247
S'wonderful news baby girls great'
p248
asS'2014_31'
p249
(lp250
S'cute hadnt born'
p251
asS'2012_8'
p252
(lp253
S'enjoy great places along toorak'
p254
asS'2013_51'
p255
(lp256
S'thanks pretty special'
p257
asS'2013_50'
p258
(lp259
S'chancei wanted wish safe happy festive season'
p260
aS'well braving crazy melb weather newborn kids schoolfeels like winter summer'
p261
asS'2013_52'
p262
(lp263
S'merry christmas hope madi magical'
p264
asS'2012_52'
p265
(lp266
S'sounds like great planim going watch mcleodsit helps relax sleep feeling overwhelmed life'
p267
aS'cant wait spend night bestie planned'
p268
aS'prob topbut love seeing brings excitement squeals brings magical'
p269
aS'merry christmas madihope santa found sure found'
p270
asS'2012_50'
p271
(lp272
S'santa photo madi like santa next week'
p273
aS'looks fantastic good guys'
p274
aS'morning lovelyim wake little trio started school good luck santa photos'
p275
aS'help nice tradition start young look great'
p276
aS'christmas wish 2000 holiday break christmas bills doublebreak'
p277
aS'christmas wish 2000 holiday break christmas bills doublebreak'
p278
aS'pretty christmas lights'
p279
aS'pretty christmas lights'
p280
aS'good training make great husband thing asking'
p281
asS'2012_51'
p282
(lp283
S'happy christmas well enjoy magical days'
p284
aS'madi good really enjoy christmas year enjoy wonderful safe daywith lots love laughs'
p285
aS'trio finished decorating gingerbread house'
p286
aS'cute madi looks like love curly hair'
p287
asS'2014_42'
p288
(lp289
S'wine'
p290
asS'2013_43'
p291
(lp292
S'hope better today long relaxing holiday'
p293
asS'2013_40'
p294
(lp295
S'last weekend away country family baby arrives weeks'
p296
asS'2013_41'
p297
(lp298
S'lucky likely baby gone'
p299
asS'2013_46'
p300
(lp301
S'welcomed isabella grace world morning 6pd13oz 48cm long absolutely perfect'
p302
asS'2013_47'
p303
(lp304
S'away welcomed precious isabella grace family1 week tomorrow'
p305
asS'2013_44'
p306
(lp307
S'enjoy holiday long going'
p308
asS'2013_45'
p309
(lp310
S'amazing photo love'
p311
asS'2013_48'
p312
(lp313
S'gorgeous kids partied tonight'
p314
asS'2012_29'
p315
(lp316
S'happily swap suddenly become needy sooky afternoon'
p317
asS'2012_28'
p318
(lp319
S'realizing friendship work ways thanks laughs great memories'
p320
aS'looks great love color'
p321
aS'yeah watched start turned didnt grab like version'
p322
aS'beautiful little doll'
p323
asS'2012_27'
p324
(lp325
S'enjoy trip drove friday family farm heading home melbourne tomorrow love road trips'
p326
aS'congrats family love name charlotte gets called charli love enjoy newborn cuddles'
p327
aS'plus side wont cook dinner'
p328
aS'ahahahah things kids madi loved kids often confuse bath swimming pool'
p329
aS'stevie alex wedding makes everytime hope emotional mine dress similar stevies'
p330
asS'2012_26'
p331
(lp332
S'awesome show tonight congrats little princess'
p333
aS'looks like going busy whole house'
p334
asS'2012_25'
p335
(lp336
S'guinea pigs pretty'
p337
aS'awesome back wait fresh eggs'
p338
aS'cute bath'
p339
aS'moved alright whole house moving'
p340
asS'2012_24'
p341
(lp342
S'proposal wedding months dress inspired stevies love much'
p343
aS'looks amazing well done definitely earned glasses wine'
p344
aS'aint truth three small children cleaning impossible days'
p345
aS'looking great sanding takes forever looks like almost done though'
p346
aS'great show today managed watch without kids noticing wasnt'
p347
asS'2012_23'
p348
(lp349
S'good luck great cant wait finished product'
p350
aS'lucky girl great time'
p351
aS'reality sucks sometimes good generally outweighs things never stay long'
p352
asS'2012_22'
p353
(lp354
S'staying girls weekend away jelly shot'
p355
asS'2012_21'
p356
(lp357
S'love'
p358
aS'rain stopping today cold horrible melbourne'
p359
asS'2012_20'
p360
(lp361
S'clever kids great working technology works young'
p362
asS'2013_37'
p363
(lp364
S'thats something hear everyday'
p365
asS'2013_36'
p366
(lp367
S'would changed optus telstra never problem since'
p368
aS'thats beautiful shows amazing'
p369
asS'2013_35'
p370
(lp371
S'beautiful think need plan holiday coffs harbour'
p372
asS'2013_34'
p373
(lp374
S'took kids snow today wonderful time'
p375
aS'packing take kids snow tomorrow'
p376
aS'doctor smurf prescribes cakes pies smurfberries part healthy diet smurfsvillage'
p377
aS'papa smurf confirms distance magical waterfall smurfsvillage'
p378
aS'year obsessed better homes gardens loves magazinesshe stash mags'
p379
aS'free fresh smurfberries smurfs meet forest come alone gmel smurfsvillage'
p380
aS'brainy smurf good advice smurfs busy working smurfsvillage'
p381
asS'2013_33'
p382
(lp383
S'lost grouchys sense humor found return frownyfaced smurf immediately smurfsvillage'
p384
aS'sale gardening gloves never used price negotiable contact brainy details smurfsvillage'
p385
aS'smurfs love love smurfette smurfette earn extra smurfsvillage'
p386
aS'doctor smurf prescribes cakes pies smurfberries part healthy diet smurfsvillage'
p387
aS'papa smurf confirms distance magical waterfall smurfsvillage'
p388
aS'free fresh smurfberries smurfs meet forest come alone gmel smurfsvillage'
p389
asS'2012_39'
p390
(lp391
S'story really feel poor husbandfamily friends horrific event shouldnt happened'
p392
aS'happy little cute'
p393
aS'poor things hope night wasnt hard feeling better morning'
p394
aS'anything easy took easy option tonight'
p395
aS'thank'
p396
aS'hope feel better soontry rest easier said done active toddler'
p397
aS'little lachlan today feeding birds home tulip festival'
p398
aS'posted photo'
p399
asS'2013_31'
p400
(lp401
S'brainy smurf good advice smurfs busy working smurfsvillage'
p402
aS'lost grouchys sense humor found return frownyfaced smurf immediately smurfsvillage'
p403
aS'sale gardening gloves never used price negotiable contact brainy details smurfsvillage'
p404
aS'smurfs love love smurfette smurfette earn extra smurfsvillage'
p405
aS'doctor smurf prescribes cakes pies smurfberries part healthy diet smurfsvillage'
p406
asS'2013_30'
p407
(lp408
S'doctor smurf prescribes cakes pies smurfberries part healthy diet smurfsvillage'
p409
aS'feel free make weeks'
p410
aS'papa smurf confirms distance magical waterfall smurfsvillage'
p411
asS'2012_34'
p412
(lp413
S'beautiful bride wedding 12weeks exciting time'
p414
aS'cute'
p415
asS'2012_35'
p416
(lp417
S'lots things done today fresh loaf bread almost cooked half cleaning washing'
p418
aS'positive role model many people includedthankyou lovelykind hearted person'
p419
asS'2012_36'
p420
(lp421
S'seeing tweets tried last week wrote huge post wouldnt send'
p422
aS'would feel rude taking presenti would still take something small'
p423
aS'congrats enjoy trip hawaii'
p424
aS'look like great time hope fern survived'
p425
asS'2012_37'
p426
(lp427
S'looks like enjoyable'
p428
asS'2012_30'
p429
(lp430
S'dear sounds like challenging place work soon enough best friends'
p431
aS'made laugh hope sake works quickly puppy ride'
p432
aS'sounds delicious time dinner'
p433
aS'hearing gets forgotten though sleeping peacefully tomorrow'
p434
aS'gotta love polaroid using wedding guest book'
p435
asS'2012_31'
p436
(lp437
S'thats something would memory never quite baby'
p438
asS'2012_32'
p439
(lp440
S'sounds like night enjoy awesome weekend'
p441
aS'cold sooner winter better'
p442
aS'gorgeous send'
p443
aS'agree cold melbourne todaybring sunshine warm weather'
p444
asS'2012_33'
p445
(lp446
S'trash packs loves group'
p447
aS'little cutie growing fast'
p448
aS'never ending cycle wash hang fold away family fivei dont think washing baskets bottom'
p449
aS'love cant enough bring tomorrow nights show'
p450
as.