(dp0
S'2013_25'
p1
(lp2
S'cherry\xe2\x80\x99s outfit night'
p3
aS'feel pretty good'
p4
aS'match spain scores'
p5
aS'beats honduras usmnt chance qualifying world 2014'
p6
aS'dear'
p7
asS'2013_26'
p8
(lp9
S'classy state real classy'
p10
asS'2013_21'
p11
(lp12
S'beautiful sunday morning oxford countdown continues days away rebels 2013 season'
p13
asS'2013_22'
p14
(lp15
S'going back countdown today days kicking 2013 season live'
p16
aS'keep spreading word rebelnation countdown continues nashville days'
p17
aS'rebelnation countdown continues days away taking vanderbilt start 2013 season'
p18
aS'commute time mancave'
p19
asS'2013_23'
p20
(lp21
S'mississippi state penalized ncaa'
p22
aS'would argue damaging thing education mississippi electing someone monogrammed cowboy'
p23
asS'2013_28'
p24
(lp25
S'white girl wednesdays often give mary jane mondays'
p26
asS'2013_29'
p27
(lp28
S'maybe prefer defense heres denzel nkemdiche throwing landshark share friends hottytoddy'
p29
aS'early congratulations happy today'
p30
aS'glad chef makes applebees double crunch shrimp doesnt wear hotty toddy emeril'
p31
asS'2012_16'
p32
(lp33
S'molsonmart'
p34
aS'tweet molsonmart twitter handle installation worldrenowned artist kustaa saksi'
p35
asS'2012_10'
p36
(lp37
S'week goes mooooonnnnnddaaaaaaaaay tueeeesssdaaaaaaayyyyy weeedddnnnesssdayyyyy thursssssdaaaaaaaayyy'
p38
asS'2012_18'
p39
(lp40
S'everyone ryankennedy trending cancer patient whos wish trend twitter'
p41
aS'according barack obama state'
p42
aS'russians assume vodka girls involved'
p43
aS'alexander radulov andrei kostitsyn suspended game predators preds coyotes'
p44
asS'2013_13'
p45
(lp46
S'breaking nick saban miss landshark photo'
p47
asS'2013_14'
p48
(lp49
S'pringletimes photo'
p50
asS'2013_19'
p51
(lp52
S'fuck mothers wife interviewed mothers husbands everywhere'
p53
asS'2013_18'
p54
(lp55
S'tebow hasnt since lost miss'
p56
asS'2011_19'
p57
(lp58
S''
p59
aS'vandy baseball'
p60
asS'2011_18'
p61
(lp62
S'actual bear bryant commercial several followers folks awesome'
p63
aS'remember bear bryant said sure call momma wish could call mine'
p64
aS'watching'
p65
aS'love much'
p66
aS'read ladens house pakistan sounds like evil anne frank'
p67
asS'2011_13'
p68
(lp69
S'preach brother'
p70
asS'2011_17'
p71
(lp72
S'going office watch game'
p73
aS'random fact stolen item drugstore hemorrhoid cream'
p74
aS'tornado warnings hours possum still stands'
p75
aS'hail oxford'
p76
asS'2011_16'
p77
(lp78
S'take everything saturday jeans place sunday pants might almost beer offe'
p79
aS'sweet preds'
p80
aS'shirts'
p81
aS'awesome watch exclusive performance shook house austin texas'
p82
aS'favorite quote want appear smarter hang around someone stupider garfield'
p83
aS'tweeted talking hockey'
p84
aS'nana told monday gill'
p85
aS'hear monkey tell'
p86
aS'cant wait friday monkey'
p87
asS'2011_5'
p88
(lp89
S'fantastic show last night nancy griffith show going check lissie youtube'
p90
asS'2013_5'
p91
(lp92
S'since tonight'
p93
aS'watch henderson'
p94
asS'2013_4'
p95
(lp96
S'need link original henderson fear lets continue'
p97
aS'channel working oxford went blank miss game'
p98
aS'fivestar elijah daniel commits miss maybe shouldve waited years meat market oxford'
p99
asS'2013_7'
p100
(lp101
S'gotta love bama fans birmingham'
p102
aS'neighbors immigrants came stuck poverty countries government domi'
p103
aS'players accused robbery said knocked victim unconscious'
p104
aS'aint jayme says hold horses'
p105
asS'2013_6'
p106
(lp107
S'best birth control watching chew food'
p108
aS'retweet eaten healthy weekend'
p109
aS'started bottom heisman brother mardi grassss'
p110
aS'johnny manziel apparently mardi gras could good'
p111
aS'thats also denzel nkemdiche johnny football nola'
p112
aS'used gets worse'
p113
aS'think olemiss cheated land topfive class rebels coach hugh freeze says come'
p114
aS'ranking recruiting classes'
p115
aS'check hotel front desk worth'
p116
aS'miss aint messing around today time recruits coming crazy'
p117
aS'english sweet'
p118
aS'miss hats used 5star ashawn robinson bama'
p119
aS'another espn player picks olemiss antonio conner going rebels bama batesville minutes'
p120
aS'ghost william faulkner insanely drunk miss fire'
p121
aS'next time play football miss likely game vanderbilt'
p122
aS'superdome lights committed miss'
p123
aS'sure theyre passing around super dome like game happe'
p124
asS'2013_1'
p125
(lp126
S'retweet headed saturday watch rebels take pittsburgh lockthelegion'
p127
asS'2013_3'
p128
(lp129
S'poor dores incredible lastsecond shots sending olemiss vandy overtime'
p130
asS'2013_2'
p131
(lp132
S'could stereotypically miss photograph ever'
p133
aS'game boring show mccarrons girlfriend'
p134
aS'ndom common opponents norte dame pitt 2926 miss pitt 3817 bama quarter'
p135
aS'alabama laden'
p136
asS'2013_9'
p137
(lp138
S'milking cows video helping mississippi states image'
p139
asS'2013_8'
p140
(lp141
S'sorry couldnt close genius teammate busy messing'
p142
asS'2013_32'
p143
(lp144
S'roll tide'
p145
ag59
aS'blue preparing road jerseys friday thursday night'
p146
asS'2012_49'
p147
(lp148
S'shall cant spell nutt without'
p149
aS'vols head coach posted craigslist'
p150
aS'agree ignore whatever comes dvds dont want restart collection'
p151
asS'2012_48'
p152
(lp153
S'away love music friends matt possum'
p154
asS'2012_45'
p155
(lp156
S'never done happening'
p157
asS'2012_44'
p158
(lp159
S'fantastic lots good talk press nashville miss grad history degree well done'
p160
aS'watch ghosts miss tomorrow night espn'
p161
asS'2012_47'
p162
(lp163
S'dont give shit everyone facebook thankful today'
p164
asS'2012_46'
p165
(lp166
S'picture truck postvandy loss amazing'
p167
aS'happy birthday'
p168
aS'hope long failstate'
p169
asS'2012_41'
p170
(lp171
S'happened'
p172
asS'2012_40'
p173
(lp174
S'cinematic genius awesome varsity blues college gameday sign'
p175
aS'seriously yall aampm blog miss football video burns style'
p176
aS'football miss homecoming game kick 1121 kickoff miss homecoming game agai'
p177
asS'2012_43'
p178
(lp179
S'case needed reminding'
p180
aS'retweet havent murdered anyone today'
p181
aS'oxford'
p182
asS'2012_42'
p183
(lp184
S'chris johnson player history career yard runs tenvsbuf'
p185
aS'give hell bears game call'
p186
asS'2011_52'
p187
(lp188
S'tamu fightin rick perrys mullens choochoo cuckoo coming town year maroon'
p189
asS'2011_51'
p190
(lp191
S'jong death nick saban becomes powerful dictator world'
p192
asS'2011_50'
p193
(lp194
S'people problems fractions'
p195
aS'watch programs next year getfergtooxfordnextyear'
p196
aS'bawhahaha great hire none less'
p197
asS'2012_8'
p198
(lp199
S'miami drinking farting knuckle heads tell'
p200
aS'scott hardy dayton drinking camper'
p201
asS'2013_39'
p202
(lp203
S'life learning growing falling getting back upforgiving forgettingaccepting going'
p204
aS'meant miss games yall coming'
p205
aS'games yall coming need meet titans game'
p206
aS'attorney advise drink heavily'
p207
aS'gets 50000 halftime bama miss game streaking across field beatbama'
p208
asS'2012_4'
p209
(lp210
S'captain trip fall lifeboat'
p211
aS'nash said lights bridgenotgood'
p212
aS'miss gets underage possession alcohol'
p213
aS'kneesocks'
p214
aS'smile'
p215
aS'matter life brings take lesson kick grass shit move'
p216
asS'2012_5'
p217
(lp218
S'correct writing reports sales staff time ughi feel pain'
p219
asS'2012_6'
p220
(lp221
S'bobbie brown live whitney'
p222
aS'drinking open bottle wine front baptist church makes mayor nashville pretty sure'
p223
asS'2012_7'
p224
(lp225
S'funny'
p226
aS'happened'
p227
aS'baseball players list miss hopes'
p228
asS'2012_1'
p229
(lp230
S'mentioned late wednesday night vandy defensive back coach wesley mcgriff accepted corners miss'
p231
aS'dude called taylor swift hell hold wait gonna write song'
p232
asS'2012_2'
p233
(lp234
S'remember school stay drugs dont vegetables'
p235
aS'alabamas kicker halftime contest'
p236
asS'2012_3'
p237
(lp238
S'great story patrick williss upbringing rural tennessee'
p239
asS'2012_52'
p240
(lp241
S'yall trouble good stuff'
p242
asS'2012_50'
p243
(lp244
S'interesting read column hard square secs suspension decisions hard hits'
p245
ag59
aS'would love flavor pringles sold china'
p246
asS'2012_51'
p247
(lp248
S'graduate school attended feel obligated link'
p249
asS'2011_35'
p250
(lp251
S'running around front yard covered blood screaming help stay'
p252
aS'miss named beautiful clarionledger clarionledgercom'
p253
aS'girl'
p254
aS'awkward moment spell something right think wrong stare'
p255
aS'really gonna fight internet whats best caps lock'
p256
asS'2011_34'
p257
(lp258
S'dont surprised houston nutts name comes libyas search head coach'
p259
asS'2011_37'
p260
(lp261
S'gentleman live anything unless thing 2011 miss football'
p262
aS'demoralizing feeling losing vanderbilt hungover cured another booze binge session'
p263
aS'pretty sure whoopi goldberg waynes real mother'
p264
aS'holts doll arkansas years'
p265
asS'2011_36'
p266
(lp267
S'really funny mike munchaks halftime speech quiet guys asking jeff fisher phone'
p268
aS'really long sarcastic hahahahahaha'
p269
ag59
aS'cute'
p270
asS'2011_33'
p271
(lp272
S'miss freshman golson turns'
p273
asS'2011_32'
p274
(lp275
S'great boots'
p276
asS'2011_39'
p277
(lp278
S'13th best team welcometamu'
p279
aS'update hostage negotiation talks stall congress congresshostage'
p280
aS'ghetto word hotel momma said aint gonna tell shaqueta nothing else hotel everthang'
p281
asS'2011_38'
p282
(lp283
S'caught square like miss alums gripe crowded'
p284
aS'nevermind radio siriusxm awesome forgot much love band nirvana'
p285
asS'2013_42'
p286
(lp287
S'bill murray ejected targeting'
p288
aS'bill murray ejected targeting'
p289
asS'2013_43'
p290
(lp291
S'busted tell replay miss state kentucky espn classic'
p292
aS'espn doesnt know spell mississippi state head coachs name'
p293
aS'needs stay cheese alone starkganastan'
p294
aS'whoops whenning jerseys spelling doesnt matter artimas samuel'
p295
aS'another sellout propaganda'
p296
aS'theybelieve week year mississippi state undefeated ranked last'
p297
aS'great truth olemiss game'
p298
aS'sharkd'
p299
asS'2013_40'
p300
(lp301
S'seeing live college football great experience poetry game havent heard mark mays'
p302
aS'love'
p303
asS'2013_41'
p304
(lp305
S'great store deliver'
p306
asS'2013_46'
p307
(lp308
S'dmitsch theres huge penis nippert ucprobs'
p309
asS'2013_47'
p310
(lp311
S'hotty toddy starkville feedmoncreif'
p312
aS'week tonight bulldogs play bowl game fifth straight year mullen hailstate'
p313
asS'2013_44'
p314
(lp315
S'breaking news common sense prevails judge rules siracha hotsauce factory stay open'
p316
aS'pumpkin killed daddy'
p317
asS'2013_45'
p318
(lp319
S'thanks taking time square hotty toddy'
p320
asS'2012_29'
p321
(lp322
S'know theres sure cant help think bear bryant wouldve beaten sandusky death rock'
p323
aS'donte moncrief looking sharp casket sharp'
p324
aS'know feelingenjoy work'
p325
aS'right'
p326
asS'2012_28'
p327
(lp328
S'worst words hear right nowtoday monday'
p329
asS'2012_27'
p330
(lp331
S'andy griffith listen laugh football'
p332
asS'2012_25'
p333
(lp334
g59
aS'tweet land manchester'
p335
aS'post stuff twitter nanas puter'
p336
asS'2012_23'
p337
(lp338
S'good twitter pringle'
p339
aS'bama really family photo side'
p340
aS'marinate chicken sandwiches pickle juice'
p341
aS'really jampg'
p342
asS'2012_21'
p343
(lp344
S'went university mississippi mississippi state theres huge difference'
p345
aS'cherry jacket update always comes play'
p346
asS'2012_20'
p347
(lp348
S'killing rebs ball dang'
p349
asS'2011_22'
p350
(lp351
S'checkout follow like click follow nascar driversole miss reports'
p352
asS'2011_20'
p353
(lp354
S'arnolds really kennedy'
p355
aS'dont think sanford jeffersons ever'
p356
asS'2011_26'
p357
(lp358
S'coaching miss'
p359
aS'close enough college season players start thinking stop smoking excited'
p360
asS'2011_28'
p361
(lp362
S'well drinking troubles away working'
p363
aS'things dont want hear walmart employee supposed'
p364
asS'2011_29'
p365
(lp366
S'argument facebook refreshing page thinking shit gonna'
p367
aS'winehouse died hendrix joplin morrison cobain died'
p368
aS'wish doras parents bitch everywhere'
p369
aS'think horns sound like shots youll move'
p370
asS'2011_44'
p371
(lp372
S'would trade saban kicker second string coach named later olemiss'
p373
aS'miss hockey beat mississippi state literally beating mississippi state fights canadians'
p374
aS'waiting opendid'
p375
aS'best costumes thus'
p376
aS'monday discussion houston nutt halftime activities'
p377
asS'2011_45'
p378
(lp379
S'houston nutt'
p380
aS'smile'
p381
asS'2011_46'
p382
(lp383
S'pringles make containers like pushpop'
p384
aS'dont hate everybody love everybody love around love avoid others would love'
p385
ag59
asS'2011_40'
p386
(lp387
S'theres drive thru daiquiri shop every corner louisiana'
p388
aS'brother'
p389
asS'2011_41'
p390
(lp391
S'knowledge knowing tomato fruit wisdom putting fruit salad'
p392
aS'arizonas mike stoops fired effectively setting coaching carousel motion'
p393
aS'true dallas balance needed'
p394
aS'whisky classy women since well since whenever awesome picture'
p395
asS'2011_43'
p396
(lp397
S'need teethoff lousiville fans final spot'
p398
aS'kicked class'
p399
aS'good grief check great canadian pumpkin making franklins pumpkinfest'
p400
asS'2011_48'
p401
(lp402
S'mtown xmass daughter need gang together'
p403
aS'terrifying question woman notice anything different'
p404
asS'2011_49'
p405
(lp406
S'thingsthatneedtoend facebook farmville invitations seriously'
p407
aS'checking time sent text calculating long took reply making wait longer befo'
p408
aS'reading typo looking keyboard letters next soml'
p409
aS'coach freeze video fired olemiss hottytoddy'
p410
aS'living nashville know stay night'
p411
aS'least still coach next year'
p412
asS'2013_37'
p413
(lp414
S'hysterical roll sideboob'
p415
aS'memphis birthdays realest birthdays menphis'
p416
aS'moment dome today'
p417
asS'2013_36'
p418
(lp419
S'siri lead hotty toddy chant next game'
p420
aS'spelling errors strike'
p421
aS'holtz talking notre dame history someone make stop please smell shapes'
p422
asS'2013_35'
p423
(lp424
S'thoughts exactly'
p425
aS'miley cyrus approves bama beam foam finger'
p426
aS'thats eight year beam foam finger rolltide startemyoung'
p427
aS'think rebs played rules posted locker room last night'
p428
aS'nashville rebel friend informed morning truck arrived vandy1 finsup'
p429
asS'2013_34'
p430
(lp431
S'well least tottenham lucky'
p432
aS'ouch match cardiff city'
p433
aS'exclusive adidas also created special alternate helmet worn 2013 bowl'
p434
asS'2013_33'
p435
(lp436
S'gotta also point nbcs premier league coverage great good ratings soccer exploding braz\xe2\x80\xa6'
p437
asS'2012_39'
p438
(lp439
S'another great defensive effort titans today ballgame'
p440
aS'kickoff announced espn worldwideleaderinlatekickoffs'
p441
aS'nick saban makes team watch tebow\xe2\x80\x99s \xe2\x80\x9cpromise\xe2\x80\x9d miss'
p442
aS'look getting answer coach freeze'
p443
asS'2013_30'
p444
(lp445
S'shark week season long finsup'
p446
asS'2012_34'
p447
(lp448
S'homework'
p449
aS'wish excited people dogs dogs'
p450
asS'2012_36'
p451
(lp452
S'funny'
p453
aS'faces nashville'
p454
aS'great yall weekend getfergtooxford'
p455
asS'2012_37'
p456
(lp457
S'wonder guys pintrest'
p458
ag59
aS'brother poison'
p459
asS'2012_30'
p460
(lp461
S'thus lithium 18yearold turner announced major classics dads response'
p462
asS'2012_31'
p463
(lp464
S'profile'
p465
asS'2012_32'
p466
(lp467
S'tell'
p468
as.