(dp0
S'2011_44'
p1
(lp2
S'aaaaw arent sweet love'
p3
asS'2011_19'
p4
(lp5
S'sumtymz wishwe could trun handz time'
p6
aS'sick behond'
p7
asS'2011_18'
p8
(lp9
S'suffering help'
p10
aS'mwah girl'
p11
asS'2012_29'
p12
(lp13
S'patently wait sigh'
p14
asS'2011_51'
p15
(lp16
S'adorable friend love kirsten couldnt asked beta'
p17
aS''
p18
aS'hectic canal walk'
p19
aS'enymore'
p20
asS'2011_45'
p21
(lp22
S'ourselfs question happends'
p23
asS'2011_17'
p24
(lp25
S'okiedokiedid maybe going chrome'
p26
aS'babe happend'
p27
aS'move onwen stil inlove'
p28
aS'lolkirky gana dohehe weather cuddle mrlt hehe love'
p29
aS'mwah thanx everything love'
p30
aS'hate winter'
p31
aS'warm'
p32
aS'letz ourpjz'
p33
aS'hehehenah struggled thru itdnt wana hell'
p34
asS'2011_46'
p35
(lp36
S'enymore'
p37
aS'thank kirsten blush blush rock friend 2hehe wait party so0o0oo0n wink hehe'
p38
asS'2011_14'
p39
(lp40
S'thatz mean'
p41
aS'sooo agree that\xc3\xactz work'
p42
aS'twilight love'
p43
aS'know think hurts feeling replaced like matter wasn\xe2\x80\x99t enough'
p44
asS'2011_47'
p45
(lp46
S'falling'
p47
aS'away heartrun away love'
p48
asS'2013_22'
p49
(lp50
S'knew much think'
p51
aS'hard goodbye comes'
p52
aS'still ignoring'
p53
aS'believe fairy tales'
p54
asS'2013_23'
p55
(lp56
S'call cheap'
p57
aS'guys gullible something excites like putty hands pathetic'
p58
asS'2011_40'
p59
(lp60
S'south africas game robbed'
p61
asS'2012_24'
p62
(lp63
S'living insa life'
p64
aS'learn'
p65
aS'onli discovered word'
p66
aS'domkop'
p67
asS'2012_23'
p68
(lp69
S'twitter instead sleepingyolo'
p70
aS'still awake'
p71
aS'ignoring waiting talk first'
p72
aS'goooood muthafuckin morning people stop bitching monday take monday bend fuck like champ'
p73
asS'2012_22'
p74
(lp75
S'hectic haha onli happen cape town'
p76
aS'happen'
p77
aS'pssssssh'
p78
aS'okie'
p79
ag18
aS'awkward moment someone invites self like errrruhmya guess'
p80
aS'awkward moment think need really hahaha thats funny'
p81
aS'moment guys think wrapped around fingernigga please talk hand'
p82
asS'2012_21'
p83
(lp84
S'coke cola mmmmm'
p85
aS'karma bitch make sure bitch beautiful'
p86
aS'cupid like mofo'
p87
aS'called weird like called limited edition meaning you\xe2\x80\x99re something people don\xe2\x80\x99t often remember'
p88
asS'2012_20'
p89
(lp90
S'awkward moment downgrades almost funny much better'
p91
aS'deserve'
p92
aS'asshole'
p93
aS'cold'
p94
aS'lovely'
p95
aS'sometimes wish could hurt hurt know chance wouldnt'
p96
aS'memories seeps vains'
p97
ag18
aS'sumthing like'
p98
aS'nuthing downer'
p99
aS'control'
p100
aS'dont tell feel sorry gets sloppy seconds lowers standards'
p101
aS'lolwill wait patiently'
p102
aS'hahathe skill give good massage'
p103
aS'loli need massage massage'
p104
aS'someone steals dream'
p105
aS'laying listening music ideas whats download songs'
p106
asS'2012_13'
p107
(lp108
S'know player want girl hangs jersey leaves game'
p109
aS'want someone call someone trust love fully heart someone know wont'
p110
aS'awkward moment interested suckz keeping conversation rolling dies'
p111
asS'2011_42'
p112
(lp113
S'people alwayz make issue something small'
p114
aS'last collegegana miss cosmo chickzz smo0ch'
p115
asS'2011_43'
p116
(lp117
S'sexy lmfao'
p118
asS'2011_21'
p119
(lp120
S'belive itwat'
p121
asS'2012_8'
p122
(lp123
S'awkward moment making styles chop stickz like oopzz'
p124
asS'2012_9'
p125
(lp126
S'away stars'
p127
aS'moment friend gets home tired talk phone'
p128
aS'shit moment'
p129
aS'shit moment boyfriend plans find'
p130
aS'crapest moment boyfriend dates status good night friends girlfriends name ther'
p131
aS'much pressure'
p132
aS'feel alone understand'
p133
aS'amateurs hahahaha kids 2day'
p134
aS'loved 2nights show voice'
p135
aS'mmmm wise'
p136
asS'2012_4'
p137
(lp138
S'so0o0 amped leaving america whoop'
p139
asS'2012_5'
p140
(lp141
S'steiner stay'
p142
aS'momento novio anterior puede conseguir usted'
p143
asS'2012_6'
p144
(lp145
S'happy'
p146
aS'feel like failed self'
p147
aS'feel weak'
p148
asS'2012_7'
p149
(lp150
S'best ever love darren'
p151
aS'love love seems hate'
p152
asS'2012_1'
p153
(lp154
S'parents pfft'
p155
aS'isnt love willing risk'
p156
aS'erin looking babysitting fatty 2nyt'
p157
aS'like love thatz movie'
p158
aS'kanyewest stop tweeting watch face kanyewest scroll'
p159
asS'2012_2'
p160
(lp161
S'super cape town 2day'
p162
aS'thing kirsten'
p163
asS'2012_16'
p164
(lp165
S'pointless'
p166
aS'loosing interest every second'
p167
aS'agreebut whats make fall'
p168
asS'2012_17'
p169
(lp170
S'guess so0o0o0'
p171
aS'well good question'
p172
aS'yess mrmhateyu capable'
p173
aS'underestimate things'
p174
ag18
aS'laying cold sunday eveninglistening soothing music'
p175
aS'hitzgame'
p176
aS'onli heart break'
p177
aS'want away experience something everything aready done'
p178
aS'awkward moment song playsyou like dream true lies'
p179
asS'2012_14'
p180
(lp181
S'play game like women think like'
p182
aS'funniest thing seen hahahahahaaha'
p183
asS'2012_15'
p184
(lp185
S'immo sends song wanted hehe awesome'
p186
aS'love'
p187
aS'best thru going thru express feel well letting letting work'
p188
asS'2012_12'
p189
(lp190
S'lmao'
p191
aS'best cont beta baby best beta'
p192
asS'2011_41'
p193
(lp194
S'crappy daysigh'
p195
asS'2012_10'
p196
(lp197
S'facts hate liars hypocrites people take advantage people care'
p198
aS'awkward moment kindness mistaken flirting'
p199
aS'still calling shes still getting answer'
p200
aS'sometimes think meant prepare really meant'
p201
aS'studying keep looking cellphone messages'
p202
aS'smile eyes lips hair laugh hands smirk humor weird faces thought'
p203
aS'havnt seen last'
p204
aS'world starts crumble hart brokenby thought different'
p205
aS'lose kill onli makes fucken bitch'
p206
asS'2012_11'
p207
(lp208
S'so0o0o step ladys gents thumbs whoopwhoop tick'
p209
aS'tick look'
p210
aS'looking good thumbs'
p211
aS'think nwhav 4gotton would feel dragged spirt downbt pain made raise game'
p212
ag18
aS'watz rghs shit twitter geezz kids watch face'
p213
aS'runs world girls'
p214
asS'2011_48'
p215
(lp216
S'love note book'
p217
aS'future holdz thez chance made'
p218
aS'exam sorta sucked letz'
p219
aS'surprises'
p220
aS'wana watz'
p221
aS'think falling'
p222
asS'2011_49'
p223
(lp224
S'wonderful sunday beach fwdz priceless memories'
p225
asS'2012_18'
p226
(lp227
S'relationship shouldnt ruin friendship friendship shouldnt ruin relationship either'
p228
aS'hahaha'
p229
aS'millionbilliontrillion miles away'
p230
aS'loved lost'
p231
aS'so0o0o agree cookie'
p232
ag18
aS'mind'
p233
aS'guessing males haha'
p234
aS'dignity become undone'
p235
aS'so0o0u gana show bumbumz'
p236
aS'made laughhahaha made'
p237
aS'loland proud'
p238
ag18
aS'announce talking'
p239
aS'mrwrong good thing going'
p240
aS'livedi loved didive done wana leav mark'
p241
aS'hurts pride tell feel'
p242
aS'plus whos gana keep company'
p243
aS'feel like asian hiding away raised eyebrow so0o0o dull boring without'
p244
aS'weirdo'
p245
aS'lesbo good'
p246
aS'haha wana date'
p247
aS'works'
p248
aS'tell lesbian'
p249
aS'thanx sharing rolling eyes'
p250
aS'ooooooooooooooh'
p251
aS'wats'
p252
ag18
aS'miss asian friend rolling eyes'
p253
aS'wolf'
p254
aS'wolf'
p255
aS'hahaha'
p256
aS'thers nthing rong tweet'
p257
aS'asian'
p258
aS'agree'
p259
aS'asian never miss equation'
p260
aS'thats super'
p261
aS'havnt action'
p262
aS'hate mehate swag'
p263
asS'2012_19'
p264
(lp265
S'looks like give concussionlol epic'
p266
aS'going lt\xe2\x80\xa2\xc2\xb0lt tired finally fuck awake entire'
p267
aS'uplifting music thumbsup'
p268
aS'shine'
p269
aS'dont racist like mario italian plumber created japenese people speaks english looks like mexican'
p270
aS'hate moment everyone around relationship sitting like love food\xe2\x80\x99'
p271
aS'shes crying crocodile tears awwww'
p272
aS'watching chick crashed someone elses shame'
p273
aS'sure'
p274
aS'tweets'
p275
aS'jimmy neutrons brain phineas ferbs summer timmy turners goldfish life would better'
p276
aS'hahaha good imoms'
p277
aS'bunny onemust send'
p278
aS'like song'
p279
aS'ddnt nver happend nuthing need treat stranger feel rough'
p280
asS'2012_32'
p281
(lp282
g18
aS'happy womens'
p283
asS'2012_33'
p284
(lp285
S'heart protected away sleeve'
p286
aS'lost along'
p287
aS'perfect'
p288
aS'chase someone chasing back'
p289
aS'considerate'
p290
aS'youre going least make sure makes sense first dont insult damn intelligence'
p291
asS'2011_35'
p292
(lp293
S'thay hero save gana stand waiti hold wingz eagle watch thay'
p294
aS'maybe wana sound cocky winkwink'
p295
aS'true'
p296
aS'make enything want'
p297
aS'palm hand asshole'
p298
aS'like puppet string enything'
p299
aS'guyzz assholezzznot walmost'
p300
aS'cheatzrtif felt feeling'
p301
asS'2011_34'
p302
(lp303
S'yipyip 2730af84'
p304
aS'shez well'
p305
aS'starting mondayu'
p306
aS'well'
p307
asS'2011_36'
p308
(lp309
S'love losing game'
p310
ag18
aS'turned'
p311
aS'aaahh nail examz wish luck'
p312
aS'meeee okie viem part view calvinz barba shop haha love cape town chick'
p313
aS'aaaahhhh karma fudgeing bitchhaha'
p314
asS'2011_30'
p315
(lp316
S'awwwbk stwsnibz'
p317
aS'aws0me l0ve christ0pher'
p318
asS'2011_33'
p319
(lp320
S'watz'
p321
aS'relate wayz'
p322
aS'awsum birthdaybt backz sore sadness'
p323
aS'hehe havent tweeted whileso yere'
p324
aS'thaz good questionis ther answer'
p325
aS'wall thatz good questionis answer'
p326
asS'2011_39'
p327
(lp328
S'sometymzz understand menai'
p329
asS'2011_38'
p330
(lp331
S'kirky curwi keenanalexisfartyaly mikaeel hahaha guys loosers love youhope brandy kicking'
p332
aS'fellow loosers lamimg love retards'
p333
aS'bumz miss loosers'
p334
aS'shame manunluckyhoope well also sick stay home sadness'
p335
aS'went cleaning'
p336
aS'missing went dentist mouth eina'
p337
as.