(dp0
S'2013_42'
p1
(lp2
S'hate writing essays rather read'
p3
aS'feel place cant decide'
p4
aS'remember stopped hanging'
p5
aS'hate feeling like like damn'
p6
aS'damn'
p7
aS'deleting pictures always hard picture hoarder'
p8
aS'damn like fucking trap house'
p9
aS'hair night beautiful ever hair morning chief keef'
p10
aS'cousin always call months advance asks whos cooking thanksgiving year'
p11
aS'ovcourse norfolk dont school lmaoo'
p12
asS'2013_43'
p13
(lp14
S'happy fuck'
p15
aS'youre shitty friend'
p16
aS'even still want ignore'
p17
asS'2013_40'
p18
(lp19
S'wanna'
p20
aS'hate ignored'
p21
aS'emotional'
p22
aS'sometimes really needy'
p23
aS'kjhgredwaqsdxfchgvbnjmkmljiuhgytrfdszdxfchgvbjnkm fuck'
p24
aS'fuck'
p25
aS'hurry shower mane hardees'
p26
aS'another great amazing'
p27
aS'though'
p28
aS'imma need text phone'
p29
aS'every black family collection plastic grocery bags somewhere house uses garbage bags'
p30
aS'spent amazing'
p31
aS'everything kateline'
p32
aS'fake aint coming house'
p33
aS'crying chemistry country'
p34
aS'listen country'
p35
aS'look around everyone else things look realize dont shit'
p36
aS'miss fucking kisses'
p37
aS'youre fucking fake subtweet hope realize talking'
p38
aS'someones first love great someones last love beyond perfect'
p39
aS'relationship girl bestfriend\xf0\x9f\x91\xabmy reslest homie\xe2\x9c\x8amy shoota\xf0\x9f\x94\xabima never give hoe\xf0\x9f\x92\x81or ex\xf0\x9f\x99\x85ima\xe2\x80\xa6'
p40
aS'cheating isnt always kissing touching flirting gotta delete text messages partner wont seem'
p41
aS'feel like crying'
p42
aS'hold grudges long time hold long hating'
p43
aS'crybaby'
p44
aS'damn even smell trashy'
p45
aS'todays gonna suck feel bones'
p46
aS'really hate cant stop crying'
p47
asS'2013_41'
p48
(lp49
S'first thing facebook first time long time snapping'
p50
aS'putting shit andre'
p51
aS'wanna'
p52
aS'cuddling clears mind builds trust emotional security cuddling like psychological medicine'
p53
aS'dont like shit point blank'
p54
aS'words like knifethey hurt'
p55
aS'mkay'
p56
aS'guys coming monicas birthday thing tomorrow'
p57
aS'jayz'
p58
aS'wish close best friends'
p59
aS'blood thicker water need water survive'
p60
aS'youre reading youre probably also staying friday night'
p61
aS'poppies gonna write haha'
p62
aS'lies lies lies'
p63
aS'well shes portable'
p64
aS'damn school goto cafeteria give jennifer'
p65
aS'finally'
p66
aS'always wanna'
p67
aS'cant things easily'
p68
aS'told could listen talk hours barley'
p69
asS'2013_46'
p70
(lp71
S'damn dropped pencil feeling type hahahah'
p72
aS'think phase maybe dunno like real dont text anyone back wanna communicate cant'
p73
aS'dont talk people real anymore like last week mike completely reason'
p74
aS''
p75
aS'miss talking time real'
p76
aS'fuck everybody else ambers best friend wanna hang real'
p77
aS'thought'
p78
aS'youre done peace\xe2\x9c\x8c\xef\xb8\x8f'
p79
aS'fuck real'
p80
aS'craving vanilla black'
p81
asS'2013_44'
p82
(lp83
S'need laundry'
p84
aS'happy thinks life seconds'
p85
aS'takes selfies deletes stares selfie till turns ugly deletes'
p86
aS'familys days christmas movie schedule\xf0\x9f\x8e\x84\xe2\x9d\xa4\xef\xb8\x8f'
p87
aS'leaving today'
p88
aS'please love okay'
p89
aS'stupid'
p90
aS'interracial couples best'
p91
aS'miss someone right'
p92
aS'nothing'
p93
aS'really wish mine'
p94
aS'real real want'
p95
asS'2013_45'
p96
(lp97
S'builder life'
p98
aS'stay faithful stay single simple'
p99
aS'want kids dont wanna pregnant give birth dont wanna adopt either want mine'
p100
aS'feel like imma throw stay feeling'
p101
aS'want relationship like ones movies'
p102
aS'really dont wanna school tomorroww'
p103
aS'people like love single time hell rather relationship somebody'
p104
aS'parents think grow trees'
p105
aS'smoke blunts call double jointed'
p106
aS'bipolar playground call mood swings'
p107
aS'caught freezer call kool aids'
p108
asS'2013_37'
p109
(lp110
S'today good'
p111
aS'sometimes scorpio stuck caring caring much'
p112
aS'tell something doesnt mean believe believe doesnt mean true'
p113
aS'tired everyone eventually'
p114
aS'dont feel'
p115
ag75
aS'insidious beach tomorrow gonna good'
p116
aS'course'
p117
aS'hahaha twitter'
p118
aS'ever since guys dated youve changed starting hate'
p119
aS'simply order fast food without saying ummm'
p120
aS'listening either going best decisions made turn worst'
p121
aS'sometimes people dont notice things stop'
p122
aS'niggas like need female thats lightskin long hair booty tatted nigga aint buildabitch\xe2\x80\xa6'
p123
aS'good calledand something'
p124
aS'cant even'
p125
aS'damn course shed'
p126
asS'2013_36'
p127
(lp128
S'bacon burn'
p129
aS'shit still brings tears eyes'
p130
aS'want relationship everyone like damn theyre still together'
p131
aS'sarah baddest girl real bgc11'
p132
aS'damn didnt deserve home bgc11'
p133
aS'glad mimis going home like damn bgc11'
p134
aS'time someone fought mimi shes reason drama bgc11'
p135
aS'never miss person memories'
p136
ag75
aS'dont care anymore shit'
p137
aS'youre pushing everyday'
p138
aS'course'
p139
asS'2013_35'
p140
(lp141
S'havent talked fucking died'
p142
aS'boyfriend needs phone tired calling momma picks lmao'
p143
aS'tired nice girl time change'
p144
aS'depressed actually relate weeknd'
p145
aS'still dont trust'
p146
aS'like strawberry'
p147
aS'dont need really like around'
p148
aS'fuck mean'
p149
aS'mean youre busy talk'
p150
aS'fuck girl love still think times'
p151
aS'write poetry'
p152
aS'wake shitty moodltlt'
p153
aS'daddys little girls gtgt'
p154
aS'whatever happened tila tequila'
p155
aS'feel like asdfghjkl'
p156
aS'calls texts nothing thinking like crazy'
p157
aS'anti social always complain friends'
p158
aS'finger wordsfuck fingers worddeuces'
p159
aS'people meant together eventually find back others arms matter'
p160
aS'dunno feel like'
p161
aS'youre shitty'
p162
aS'damn feel lonely'
p163
aS'keep waiting call even though know going happen'
p164
aS'made feel like really liked meand left like nothing'
p165
aS'chickfila order mcchicken'
p166
aS'bomb wife make sandwhichs'
p167
aS'youre stupid dont like'
p168
aS'really growing hate time still love'
p169
aS'hateful person'
p170
aS'drake rapper drake emotionim feeling drake today'
p171
aS'shit really heated upset like fuck'
p172
aS'really fucking hope didnt purpose'
p173
aS'minute'
p174
aS'never know much love someone serious shit happens'
p175
aS'freaking scared even funny'
p176
aS'hate dont know feel'
p177
aS'realized shrek indirect musical'
p178
aS'fuck uncle grandpa cartoon network needs stop please'
p179
aS'stinkiest farts ever'
p180
aS'wish could draw'
p181
aS'sometimes really reason'
p182
aS'spend toooo much time tumblr'
p183
aS'phone sometimes make feel lonely knowing people contact never'
p184
aS'coffee makes sleepy'
p185
aS'alright done peace'
p186
aS'shut fuck shit youre really pissing thats stopped fucking subtweet'
p187
aS'trying call ugly fuck mean bitch hahah'
p188
aS'youre dont want talk hahahaha well'
p189
aS'really think care liking really'
p190
aS'nothing'
p191
aS'life hahaha'
p192
aS'call bull shitttt'
p193
aS'sexy sexy sexy sexy sexy sexy hahaha love fairly parents'
p194
aS'something tell dont know imma'
p195
aS'sometimes people pisses wont text back pissed'
p196
aS'even'
p197
aS'delete messages something hide fuck mean hahahaha stupid'
p198
aS'even twitter followers post whats mind'
p199
aS'feel like shit'
p200
aS'sooooooooo feelings'
p201
aS'makes happy even matter drop changing mind'
p202
aS'vicks burning nostril'
p203
aS'dont even know'
p204
aS'finna ounces meth blender drink'
p205
aS'sleep pain away never seems work'
p206
aS'days better others'
p207
aS'sometimes dunno stay times'
p208
aS'seems like harder harder fall'
p209
aS'really want watch howls moving castle'
p210
aS'thank homie'
p211
aS'feel like dont even care'
p212
asS'2013_34'
p213
(lp214
S'sucks'
p215
aS'forever head continue every time think'
p216
ag75
aS'thecraft'
p217
aS'middle school aint screenshot three muted phone'
p218
aS'something damn addicting'
p219
aS'need phone battery life'
p220
aS'mirror look cute today camera'
p221
aS'grandparents ltltltlt'
p222
aS'alright thanks help haha'
p223
aS'dang guess need better milkshakes hahahaha'
p224
aS'swear saving money hard'
p225
aS'play part dont caught playing someone elses'
p226
aS'wish milkshakes would bring boys yard'
p227
aS'jealous girlfriend faithful girlfriend doesnt jealous someone attention'
p228
aS'youre reckless know dont love like'
p229
aS'dont follow unfollow'
p230
aS'really good keeping secrets five minutes later forget told don\xe2\x80\x99t care'
p231
aS'please dont make question'
p232
aS'screen breaking best thing ever hahaha'
p233
aS'really done trying dont care anymore whatever'
p234
aS'thats even point hahah dont care going peace'
p235
aS'acted like missed much gonna stay good'
p236
aS'texted back'
p237
aS'seeee'
p238
aS'though texted said maybe convince tomorrow'
p239
aS'though said shell pick tomorrow'
p240
aS'ditched every night week'
p241
aS'cool thanks ditching'
p242
aS'finally boyfriend'
p243
aS'sings song made'
p244
asS'2013_33'
p245
(lp246
S'walk death'
p247
aS'wish could tomorrow'
p248
aS'please dont lieing'
p249
aS'gonna jealous'
p250
aS'honestly dont know phone texts calls kiks basically internet'
p251
aS'dont wanna feel thing anymore'
p252
aS'take charger everywhere school library beach mall park church hospital shit never know'
p253
aS'appreciate long text messages'
p254
aS'really dont care anymore anything'
p255
aS'people stairs'
p256
aS'cinderella story'
p257
aS'like words dont sometimes'
p258
aS'dont really give fuck'
p259
aS'thats dirt'
p260
aS'back kaila ways'
p261
aS'already tell gonna piss'
p262
aS'want want'
p263
aS'always feel like competition something'
p264
aS'females specific text every fight'
p265
aS'real girlfriends argue petty shit care'
p266
aS'maybe well together another life'
p267
aS'well someone text'
p268
aS'things like relize shit love'
p269
aS'waiting text prbly wont'
p270
aS'well imma kill dont text back haha'
p271
aS'tired waiting around waiting almost year'
p272
aS'saying'
p273
aS'gonna become certified killer'
p274
aS'probably okay'
p275
aS'weird friends also friends time'
p276
aS'love love totally different things'
p277
aS'kendrick lamar call people drake stop havin trust issues chief keef really find'
p278
aS'ignoring phone chill gtgtgtgtgtgtgtgtgtgtgtgtgtgt like shit'
p279
aS'okay fuck'
p280
aS'love sometimes wish never'
p281
aS'hate feeling knowing youre feeling'
p282
aS'sometimes android sucks'
p283
aS'sometimes best someones attention stop giving'
p284
aS'bored even funny'
p285
aS'imagine diffrent things would wouldve taken class'
p286
aS'miss know dont miss'
p287
aS'look thiswhat life'
p288
aS'really wish butthead would text back'
p289
aS'really hope gets mcdonalds'
p290
aS'sometimes wonder even phone like friends anyone talk'
p291
aS'arguing someone really care ltltltlt'
p292
aS'pandora needs replay button'
p293
aS'bottle emotions'
p294
aS'morgan freeman favorite real'
p295
aS'tired'
p296
aS'nobody texted back'
p297
aS'dont understand relationship sometimes friends sometimes friends times'
p298
aS'hurt girl would never hurt'
p299
aS'treated thaa'
p300
aS'stupid'
p301
aS'keep thinking bout'
p302
aS'ever really good someone you\xe2\x80\x99re like wait'
p303
aS'wish could wear whatever want tonight cute blouses sitting closet'
p304
aS'twater hahaha love'
p305
aS'chillen'
p306
aS'always feel like everything useless stupid'
p307
aS'damn sucks'
p308
aS'trust issues ltltltltlt'
p309
aS'girl wants feel beautiful loved treated respect'
p310
aS'relationship afraid lose gtgtgtgtgtgt'
p311
aS'fucked many times stop caring'
p312
aS'wish could illegally download clothes'
p313
aS'songs better songs make today'
p314
aS'really said shit really serious haha'
p315
aS'type annoyed'
p316
aS'feel like little bitch crying someone doesnt give fuck'
p317
aS'want someone call mine'
p318
aS'maybe blind reality'
p319
aS'maybe sign'
p320
aS'real fake mistake'
p321
aS'watching titanic niggas'
p322
aS'text back hard'
p323
aS'real haha'
p324
aS'feel type shitty'
p325
aS'whosoever shall call upon name lord shall saved romans 1013 word'
p326
aS'people fucking annoying\xf0\x9f\x98\x94'
p327
aS'least expect love want'
p328
aS'titanic'
p329
aS'damn bitches good tonight gone cuddle'
p330
aS'come thru nigga'
p331
aS'whats good'
p332
aS'yung pizark'
p333
aS'bored'
p334
aS'yeah love ignored'
p335
aS'mosquitos whats'
p336
aS'think guys send paragraphs girl know shes sleeping adorable'
p337
aS'sleep days'
p338
aS'hopefully todays gonna great'
p339
aS'wish machine played hair fall asleep'
p340
aS'cant wait back school'
p341
aS'annoy much'
p342
aS'unlimited texting text like people'
p343
aS'dirty vans rockin'
p344
aS'dont come life unless want stay'
p345
aS'yous sucka'
p346
aS'suddenlyeverything changed'
p347
aS'really social okay'
p348
aS'swear finger hair give head fucking love eternity okay'
p349
aS'hate feeling like'
p350
aS'girl wants cant girls know taken'
p351
aS'going beyonce blonde help'
p352
aS'always awkward situations'
p353
aS'sleeping pattern messed'
p354
aS'baby damn fine'
p355
aS'life'
p356
aS'drinking frosty straw nearly impossible'
p357
aS'shit bananas'
p358
aS'wicked games'
p359
aS'middle school didnt screenshot muted phone'
p360
aS'dang'
p361
aS'nawh likes'
p362
aS'know really turns unprotected wifi'
p363
aS'dont expect loyalty cant provide honesty'
p364
aS'titanic always gets emotional'
p365
aS'swear hungriest aint food house'
p366
aS'want crab legss\xe2\x80\x9d'
p367
aS'single nobody wants taken whole different story'
p368
aS'wish would'
p369
aS'bitch funny thinking care life hahahahaha'
p370
aS'youre freaking stupid making'
p371
aS'needs wake'
p372
aS'miss'
p373
aS'wrong size shirt boobs fitltltltlt bigboobprobs'
p374
aS'niggas sick eating wont first piece bread'
p375
aS'worst summer damn life'
p376
aS'also forgot mention pathalogical liar doesnt want admit problems'
p377
aS'lines crack everyday heavy cocaine please somebody help rehab'
p378
aS'crack refuses help guys need show support checking rehab'
p379
aS'teamlesbian'
p380
aS'teamgay'
p381
aS'stop baby'
p382
aS'niggas'
p383
aS'someone acknowledge fact alive ooor'
p384
aS'today amazing'
p385
asS'2013_39'
p386
(lp387
S'fucking hate love'
p388
aS'cant wait married'
p389
aS'dont even like real type piss sometimes'
p390
aS'feel like growing apart'
p391
aS'excited birthday tomorrow'
p392
aS'sister says dont text drive unless want hell going hell anyways'
p393
asS'2013_38'
p394
(lp395
S'dont really talk people everyone pisses another'
p396
aS'real really stoped giving fuck'
p397
aS'youre stupid'
p398
aS'laughing'
p399
aS'imma need notice'
p400
aS'kinda funny'
p401
aS'imma keep staring till'
p402
aS'youre'
p403
as.