(dp0
S'2013_42'
p1
(lp2
S'bless america toby keith'
p3
aS'1492 columbus borrowed money king drove world stone cold stunnered indians thats'
p4
aS'hopefully peace diagnosed ptsd night'
p5
aS'fuck brooke never'
p6
asS'2013_43'
p7
(lp8
S'brother better hospital bill little game harvard game'
p9
aS'legacy'
p10
aS'cary grove kids dont forget elder voice'
p11
aS'guys suck dick moment'
p12
asS'2013_40'
p13
(lp14
S'long since seen scummy friends'
p15
aS'fags also pretty neat'
p16
aS'smoke meth'
p17
aS'holy fuckin shit season back idiots legendary offseason boozin dominating time another ring'
p18
asS'2013_41'
p19
(lp20
S'think rygiel brinkmann help coach elders make deep similar dechow malec\xe2\x80\xa6'
p21
asS'2012_48'
p22
(lp23
S'alright thanks finally understand doctor malecki'
p24
aS'tell something'
p25
asS'2013_44'
p26
(lp27
S'starting fuck dirty club'
p28
aS'boys tell stories bout'
p29
aS'fuck'
p30
aS'iggy actually said fuck still love'
p31
aS'dirty fuck'
p32
aS'meant sorry'
p33
aS'trip push picture'
p34
aS'praise jesus'
p35
asS'2012_45'
p36
(lp37
S'much wood would wood chuck chuck wood chuck could chuck wood'
p38
aS'related cousins'
p39
asS'2012_47'
p40
(lp41
S'easily passes seconds'
p42
asS'2012_46'
p43
(lp44
S'quinn butler awful person long ride'
p45
asS'2012_41'
p46
(lp47
S'another session adventure time'
p48
aS'sweet deposition'
p49
asS'2012_43'
p50
(lp51
S'little mountain water bottles patricks hair'
p52
asS'2012_42'
p53
(lp54
S'cant stop lovin'
p55
aS'losing isnt option anymore'
p56
aS'knows'
p57
asS'2013_24'
p58
(lp59
S'gotta love butler resident hangin bottle'
p60
asS'2013_25'
p61
(lp62
S'everyone house lick balls stuck'
p63
aS'chunky time'
p64
aS'passing bars station collegeprobs oshcamp'
p65
aS'mean'
p66
asS'2013_26'
p67
(lp68
S'think could answer question haha'
p69
aS'depends waiting'
p70
aS'wonder runs'
p71
aS'sure guys goin'
p72
aS'lets wouldve died worked haha'
p73
aS'pussy thats work tomorrow haha'
p74
aS'body sore weekend oshkosh crew'
p75
asS'2013_27'
p76
(lp77
S'wanna silva knocked'
p78
aS'great night'
p79
aS'happy birthday dumb fuckin hick'
p80
aS'round applause driving around'
p81
aS'captain'
p82
asS'2013_20'
p83
(lp84
S'jeffffff suckssssssss'
p85
aS'jeff sucks'
p86
aS'fuck spurs'
p87
aS'cool jeff'
p88
asS'2013_22'
p89
(lp90
S'queers'
p91
aS'pillow case champions'
p92
aS'shine bright like diamond snap chats'
p93
aS'titties house wasnt bumpin'
p94
aS'stiggy sucks'
p95
aS'going'
p96
aS'pick someone damnit'
p97
aS'ooooh'
p98
aS'lick balls'
p99
aS'shitty year cigar tastes better bought'
p100
asS'2013_23'
p101
(lp102
S'fucking'
p103
aS'eats rappers lunch brakes'
p104
aS'11213 forgive forget night toes sucked pedestrians shocked'
p105
aS'least suffering'
p106
aS'better place'
p107
asS'2012_27'
p108
(lp109
S'days roosevelt high school gets hell wake call rbfootball'
p110
asS'2012_25'
p111
(lp112
S'sounds good haha'
p113
aS'takesha'
p114
asS'2012_24'
p115
(lp116
S''
p117
asS'2013_28'
p118
(lp119
S'need worry guess cool come'
p120
aS'throw might hair nuts could probably lift hahaha'
p121
aS'true maybe need work bench'
p122
aS'come spring grove lets game goin'
p123
asS'2013_29'
p124
(lp125
g117
aS'barbecue chips'
p126
asS'2012_20'
p127
(lp128
S'jake'
p129
aS'patrick butler jale'
p130
aS'trippy'
p131
asS'2013_7'
p132
(lp133
S'figured would'
p134
asS'2013_6'
p135
(lp136
S'couldnt tell'
p137
ag117
aS'think'
p138
aS'hang guenni'
p139
aS'food'
p140
asS'2013_1'
p141
(lp142
S'never sleeps trust'
p143
aS'corporal carrots take'
p144
aS'dont need'
p145
aS'would shes shes fluffy'
p146
asS'2012_29'
p147
(lp148
S'wallet jimmys truck'
p149
asS'2013_2'
p150
(lp151
g117
asS'2012_23'
p152
(lp153
S'shes actually mine'
p154
asS'2013_9'
p155
(lp156
S'eyes lookin right threw'
p157
aS'sure hell know'
p158
asS'2013_8'
p159
(lp160
S'party dice isnt done'
p161
aS'justo look youtube rero haha'
p162
aS'stiggy'
p163
aS'look faces'
p164
aS'faces'
p165
ag117
aS'ugly test girls facebook profile pictures black white severely edited'
p166
aS'looks like amanda christmas chuggle champ'
p167
aS'indeed'
p168
asS'2012_22'
p169
(lp170
S'trippy'
p171
aS'everytime walk place'
p172
aS'fuck'
p173
asS'2012_36'
p174
(lp175
g117
aS'sasquatch actually killed strangewilderness'
p176
asS'2012_32'
p177
(lp178
S'fuck'
p179
aS'time celebrate'
p180
aS'gonna remind every'
p181
aS'days till school starts'
p182
aS'theres nothing better better getting batman costume rope'
p183
aS'worth every penny pats money haha'
p184
aS'friend'
p185
asS'2013_17'
p186
(lp187
S'damn fruitopia'
p188
aS'yink word'
p189
aS'banana pancakes'
p190
aS'nace'
p191
asS'2012_52'
p192
(lp193
S'quack'
p194
aS'theres need frowning good sure though'
p195
aS'well times werent shining bright though cousins would agree'
p196
aS'dont forget always shine bright like diamond hahaha'
p197
aS'bunch bullshitters merry dipmas'
p198
asS'2012_51'
p199
(lp200
S'finished give tomorrow'
p201
aS'baby baby wild world'
p202
asS'2012_19'
p203
(lp204
S'broment'
p205
asS'2013_37'
p206
(lp207
S'come slosh right'
p208
aS'fuck'
p209
aS'teach biology matt awhile'
p210
aS'went outside wavin stars bars singin bless merica tore shirt threw salute yelledterror'
p211
aS'feel terrible guys frat pledging wont find anything sick fuck'
p212
asS'2013_36'
p213
(lp214
S'miss'
p215
aS'love'
p216
asS'2013_35'
p217
(lp218
S'love'
p219
aS'asshole'
p220
aS'people'
p221
asS'2013_34'
p222
(lp223
S'theres damn frutopia wisconsin going rough going mcdonalds morning'
p224
aS'jack daniels cares thanks jack'
p225
aS'know'
p226
aS'love'
p227
asS'2013_33'
p228
(lp229
S'want part social media experiment'
p230
aS'gonna miss'
p231
aS'told shes turning room half opium half meth school sweet'
p232
aS'last mixedemotions'
p233
aS'saying good byes gets harder harder time'
p234
aS'jenny sucked patricks'
p235
aS'went fast'
p236
aS'especially willies'
p237
aS'deal tomorrow'
p238
aS'sway'
p239
aS'continued team'
p240
aS'okay'
p241
aS'mountain wasted'
p242
aS'peace boys'
p243
asS'2013_14'
p244
(lp245
S'dots ceiling'
p246
asS'2013_31'
p247
(lp248
S'love'
p249
aS'course'
p250
aS'touched delta blues middle pouring rain fantastic song night'
p251
aS'walking memphis'
p252
aS'days leave'
p253
asS'2013_30'
p254
(lp255
S'coming'
p256
aS'clming'
p257
aS'love eachtother fuckin queers'
p258
asS'2012_34'
p259
(lp260
S'mcdonalds time'
p261
aS'well time fuck shit'
p262
aS'gonna good night tomorrow boys'
p263
aS'need uncle jimbo back'
p264
aS'free jimmy canalle'
p265
aS'gonna want sleep tonight'
p266
asS'2012_35'
p267
(lp268
S'seems like whenever gone shit like happens haha'
p269
aS'seems like people cant handle'
p270
aS'well remember want kill woulda good haha'
p271
aS'didnt guys back wanted haha'
p272
aS'missed little world haha'
p273
aS'gotta back work week cant take week matter'
p274
aS'better need work tomorrow'
p275
aS'love'
p276
aS'gotta fuckers arnt anything like last weeks game'
p277
aS'already'
p278
aS'thats shit dont like'
p279
aS'never sweat piggy catch high good biggy'
p280
asS'2013_16'
p281
(lp282
g117
aS'pats packin fatty'
p283
aS'rain'
p284
aS'really cant tell pretty fuckin stupid'
p285
asS'2012_37'
p286
(lp287
S'bucks worth'
p288
asS'2013_39'
p289
(lp290
S'also tell john kick'
p291
aS'listening hard times culdesac mixtape forgot hard young scrabbles goes pussy slice'
p292
aS'thanks'
p293
aS'really dont fucking'
p294
aS'hearing people muffie'
p295
ag117
aS'kyle jerks little much even spanks room'
p296
asS'2013_38'
p297
(lp298
S'cleaning room class winning lazy'
p299
asS'2013_10'
p300
(lp301
S'enjoy watching singing song beautiful'
p302
asS'2013_13'
p303
(lp304
S'maybe'
p305
aS'hoglunds control'
p306
aS'dairy queen whatever want back'
p307
aS'miss'
p308
aS'shall'
p309
aS'guys much cooler friends make'
p310
aS'homiebrofamdog lets hangout juniors'
p311
asS'2013_12'
p312
(lp313
S'well burned'
p314
asS'2013_15'
p315
(lp316
S'francisco falling asleep class always makes'
p317
asS'2013_32'
p318
(lp319
g117
aS'ummm'
p320
aS'asshole'
p321
aS'think lives cave four days week'
p322
asS'2012_38'
p323
(lp324
S'meow'
p325
aS'football isnt thing used'
p326
aS'think yard dash haha'
p327
asS'2012_39'
p328
(lp329
S'gangnam stylin night long'
p330
as.