(dp0
S'2013_42'
p1
(lp2
S'gosh'
p3
aS'photo leads texas onto field gallagherit hookem'
p4
aS'sometimes best thing ones love alone'
p5
aS'hookem beatou'
p6
aS'glory waving burnt orange leading waychills sportscry hookem'
p7
asS'2013_43'
p8
(lp9
S'young nevertoooldforthiss'
p10
asS'2013_40'
p11
(lp12
S'blood donation honor service inspiration longhorns hookem blood centers'
p13
aS'thats things look forward fall deployed decided play'
p14
aS'armed forces network shut military members overseas watching'
p15
aS'studio watching story tears eyes everytime great story behind longhorn'
p16
aS'please check newest 413blog featuring'
p17
asS'2013_41'
p18
(lp19
S'thanks first time putting golden must stay wear well'
p20
aS'right folks first river rivalry home state hope back austin soon'
p21
aS'gotcha well thanks shot stationed weekend'
p22
aS'game didnt'
p23
aS'buddy running flag texas patriot'
p24
aS'pleasure familiar keeping foreign relations especially counterparts brew great beer'
p25
aS'sure brother dont ever settle great wanna'
p26
asS'2013_46'
p27
(lp28
S'joined today share amazing story must listen podcast'
p29
aS'freaking awesome think next week shoot chris walken looking forward'
p30
aS'found thank brother'
p31
aS'wished nate boyer happy veterans probably satisfying thing done semester'
p32
aS'wanted cover nate boyers story found littered facts goodwill jaymohrsports'
p33
aS'nate boyer would long snap long snap lifestyle droopy buffalo bill jaymohrs\xe2\x80\xa6'
p34
aS'well deserved thankful troops recognized honor accepting behalf'
p35
aS'proud longhorn anything done greatest university earth lucky small part'
p36
aS'means brothers arms appreciate recognition continue fight'
p37
aS'wearing tshirt today guys appreciate everything station soldiers like'
p38
aS'appreciate eric thank yall much support'
p39
aS'thanks megan saturday'
p40
aS'haha thanks luck good wallet'
p41
aS'haha definitely world livin dream'
p42
aS'thanks mitchie'
p43
aS'thank maam really appreciate support hope catch sometime soon oppresso liber'
p44
aS'american patriots privilege meeting covering vetera\xe2\x80\xa6'
p45
aS'appreciate matt trying keep professionals time brother'
p46
aS'\xe2\x80\x9cpeople follow actions ever follow words\xe2\x80\x9d \xe2\x80\x93texas national guard staff sergeant'
p47
aS'austin help events town'
p48
aS'every austin area tmrw 68pm caring camo wristband'
p49
asS'2013_17'
p50
(lp51
S'friday come show stache show support troops'
p52
aS'yeah either probably probably'
p53
aS'thanks kris best'
p54
aS'neither great great athlete proud serve texas fans thanks support emily'
p55
aS'txang'
p56
aS'rocky iiis running montage california beach ties rocky workout montage russian snowy mountain cabin'
p57
aS'yeah soon back overseas'
p58
aS'thanks every body business supports soldiers like time back earn support'
p59
asS'2013_45'
p60
(lp61
S'brother mean else could haha cursedwithambition'
p62
aS'theres types people world like backup plans life'
p63
aS'dont crossfit train hard doesnt matter call dont know'
p64
aS'thank always nice able come back greatest place earth'
p65
aS'thats awesome currently 19th group'
p66
aS'word'
p67
aS'thanks sean guarantee footballs prefect laces practice'
p68
aS'texas specialists good players better people haha'
p69
aS'thanks kacie listening roll changes speedwagon right'
p70
aS'good look youarewelcome'
p71
aS'haha good luck venture'
p72
aS'great haha'
p73
aS'pleasure amazing freaking place country glad part'
p74
aS'hopefully shortly followed agony defeat'
p75
aS'haha knew staci'
p76
aS'haha motivates someone pursue something'
p77
aS'thanks support good time trying good times roll'
p78
aS'nate boyers journey actor refugee worker iraq starting longsnapper texas'
p79
asS'2013_24'
p80
(lp81
S'badass hookem'
p82
aS'history favorite subject school growing sometimes hate much history repeats getoffyourasstoday'
p83
aS'thankful people like america fing amazing ridiculous love miss home'
p84
aS'hero dedication drive inspired throughout life place steady'
p85
aS'outside wire place kool kidz'
p86
asS'2013_25'
p87
(lp88
S'former alabama 49ers glen coffee explains left army looks become green beret'
p89
aS'ahhh emily proud haha cant wait tell make shake missmyutfamily'
p90
aS'really choose country game football really bonus'
p91
aS'well good luck right back states august kick'
p92
aS'good part longhorn nation best merikans around safe travels safeties specialist'
p93
aS'ambassador sounds like work emabassy haha love good fashioned freedom'
p94
aS'preciate thankful service brotha stories beginning arent'
p95
aS'freedom maybe favorite thing earth close second'
p96
aS'thnaks love horns former iowa hawkeye ricky stanzi said dont love leave'
p97
aS'pleasure thank service well pushing right direction'
p98
aS'definitely didnt earn really appreciate thinking thank service'
p99
aS'thank much proud part real allamerican team usausausa'
p100
aS'everybody certainly doesnt mean everybody lovehaterelationships'
p101
aS'dont think welldeserved proud thought away thank'
p102
aS'thanks shout proud part association back states months back football'
p103
aS'well stop sitting make something happen today love cant wait crack helmets camp'
p104
aS'great honor thankful however notanamericanherojustanamerican'
p105
aS'preciate'
p106
aS'hope make real difference world needs change'
p107
aS'definitely could gone plenty better guys support means'
p108
aS'appreciate learn would listen hearts already answers'
p109
aS'thank much really appreciate lets football team theyear'
p110
aS'thanks brother aint hero love hell country people fight itsupport'
p111
aS'thanks coach almost afraid plate haha hitting halfway mark today bestcoachever'
p112
aS'thanks yeah kinda place notaherobutappreciatethesupport'
p113
asS'2013_27'
p114
(lp115
S'right doin duty summer college group'
p116
aS'everything aint done nothin beginning appreciate saying'
p117
aS'thanks sharing stories coalition guys various independence days hard stay free'
p118
aS'preciate bruh'
p119
aS'service people really appreciate fellow countrymen back especially loneliest days'
p120
aS'appreciate coach make sure tell twinkies said whats thankful great family'
p121
aS'thanks mark better interning place make coffee suck suit'
p122
aS'thanks prayers make sure throw local people need'
p123
aS'heart empty without neighborhood haha need thank want'
p124
aS'appreciate eric must read glad seems make sort impact people dream'
p125
aS'well cali dont worry handle'
p126
aS'least could well america served years'
p127
aS'thanks mario hope least inspires somebody something tell coach searels said hello sweetheart'
p128
aS'good hear feeling gonna play minds like hair fire year'
p129
aS'appreciate brady thank support country longhorn nation'
p130
aS'pleasure aggie appreciate still showing love'
p131
aS'thank maam havent able tickle ivories lately miss class'
p132
aS'thanks brotha happy well'
p133
aS'miss keep line line fall yall push behind front sack enemy'
p134
aS'thank troops love support'
p135
aS'haha happy today fighting makes worth appreciate'
p136
aS'great message coach independance freedom whatever want chose thank'
p137
aS'thanks tyler cant wait punk locker room fall haha seriously aprreciate'
p138
aS'means coming carpenter definitely hero thank saying'
p139
aS'appreciate thank thinking independance fall'
p140
aS'take hero part pleasure serve favorite things'
p141
aS'thank much country served could ever serve foreverindebted'
p142
aS'thanks incredibly lucky opportunites offered country'
p143
aS'appreciate story talking'
p144
aS'thanks done nothing heroic anybody could gotta believe never'
p145
aS'longhorn aggie thank maybe rose bowl january'
p146
aS'thanks mentioning many takes army protect home america'
p147
aS'thanks family supportive means next month'
p148
aS'pleasure sisters name kendra well kind ironic'
p149
aS'well appreciate support rock'
p150
aS'thanks american meathead weights offset haha celebrate month'
p151
aS'thank proud american least know free wait minute line taken'
p152
aS'thanks john hope good'
p153
aS'appreciate brother keep pushing guys gonna need real come fall leadfromthefront'
p154
aS'dont call nate great nothing right haha kiddin thanks representing great university'
p155
aS'appreciate jake true american enough cant wait walk tunnel full stadium'
p156
aS'lived joined army couldnt afford time made right choice'
p157
aS'doggone right sounds like well'
p158
aS'whats dude keep pullin truck bruh worked hard anyone since last season smell later gasman'
p159
aS'thank much ashley definitely hero another soldier know funny thought going'
p160
aS'appreciate trevor chose proud even proud dudes like back'
p161
aS'youre right country damn beautiful cant wait kiss ground walk'
p162
aS'appreciate well thanks freakin love country'
p163
aS'miss thanks keep soldiers line gone ride till fall'
p164
aS'means especially coach proud youre right leading front'
p165
aS'appreciate everyone back home'
p166
aS'thanks andrea right haha dont think second didnt neverforgetusa'
p167
aS'really appreciate enjoy never forget cost'
p168
aS'hahahahahahahahahahahaaaaaaaaaaaaaaaaaaaaaaa pretty sure could deep snap better first attempt'
p169
asS'2013_20'
p170
(lp171
S'thanks brother wont find better teacher wont find better place'
p172
aS'today must slept hahaha'
p173
aS'thank shane appreciate appreciation'
p174
aS'congrates matt zapata ever graduation great many football players walking\xe2\x80\xa6'
p175
aS'sounds like cool would like learn'
p176
aS'thank didnt even know'
p177
aS'like thank country letting serve'
p178
aS'damn straight'
p179
aS'godblessamerica right'
p180
aS'least could everything given life'
p181
aS'really pleasure good states isnt even funny wanna protect'
p182
aS'station right really good appreciate sentiment'
p183
aS'making safer whatever make kind difference thanks caring'
p184
aS'thank much maam safe possibly without forgetting'
p185
aS'thanks bubba duty nothing nothing less'
p186
aS'appreciate coach great hear havent forgot folks home thats fighting'
p187
aS'thanks appreciate although thousand miles away still proud carry'
p188
aS'thats awesome thank support every single penny going great cause good stuff'
p189
aS'appreciate guys couple days need support losing guys never easy'
p190
aS'means thank service thick right'
p191
asS'2013_21'
p192
(lp193
S'pleasure mine great debt gratitude america good'
p194
aS'appreciate back great city austin back'
p195
aS'overseas summer back time fall camp thanks support buddy keep'
p196
aS'thanks nicky said wonderful life bless everyone haha miss guys work hard summer'
p197
aS'thanks jennifer back'
p198
aS'definitely hero never performed truly heroic action life prepared good luck'
p199
aS'thanks dude back soon enough shall burn city ground haha 86suchabeast'
p200
aS'walking fine line staying safe staying busy'
p201
aS'hate jaded happened seeing daily basis country deserves loss life'
p202
aS'raising little girl dealing type diabetes takes'
p203
aS'great movie great story pleasure speaking phone minutes also great'
p204
asS'2013_22'
p205
(lp206
S'common folk true blooded american deployed right working everyday'
p207
aS'longhorn mountaineer thank'
p208
aS'thanks buddy miss keep kicking wanna solid yarder back'
p209
aS'youre damn right good refreshing know many americans still support care'
p210
aS'thanks andres good hear'
p211
aS'thanks brave glad somebody thinks anyway honor dead'
p212
aS'thanks retweeting chris thats great picture posted isnt'
p213
aS'thanks coach appreciate leadership support front lines lost'
p214
aS'whats wrong think little confused youre getting'
p215
aS'appreciate justin glad support back home bless'
p216
aS'appreciate jennifer lets think ones sacrificed lives defend freedom'
p217
aS'thanks chet thinking lost never easy guys right left'
p218
aS'thanks sideb mcgee really appreciate support heres brothers sisters lost salute'
p219
aS'thanks really appreciate support bless lost lose future'
p220
aS'thanks brotha good hear life'
p221
aS'really problem appreciate shout dont forget holiday ones weve lost'
p222
asS'2013_23'
p223
(lp224
S'thank dont know ladies gents supporters like ashley help troops'
p225
aS'maam back states first fall camp every college gotta summer right'
p226
aS'greetings afghanistan cant wait football season youre ever golden gate fields stop'
p227
aS'thanks coach akina means back vengeance couple months'
p228
aS'thinking team meeting protect freedom appreciate nate'
p229
asS'2013_28'
p230
(lp231
S'doin good overseas right back august days pahtna'
p232
aS'undergrad degree kineseology start grad school advertising fall'
p233
aS'love baby home soon well talk everything keep doin great things'
p234
aS'thank love still working selfless leader part thats work progress'
p235
aS'graduated first b310 intil joined 19th group'
p236
asS'2013_29'
p237
(lp238
S'thanks family sending care package caoch dudes already wearing texas strength shirts'
p239
asS'2013_37'
p240
(lp241
S'thanks john america freakin love'
p242
aS'yeah sounds good know'
p243
aS'impact nate boyers life lucky share memories important'
p244
aS'least could country done years outlook changed'
p245
asS'2013_36'
p246
(lp247
S'honored even considered prestigious awards earntheright'
p248
aS'congrats nominee national scholarathlete awards'
p249
aS'hell yeah also obnoxious worldwide actually afghans gear summer'
p250
asS'2013_35'
p251
(lp252
S''
p253
aS'really really really'
p254
aS'back since august'
p255
aS'wanted'
p256
aS'girl class giant hogwarts crest tattooed across back damniamwaytoooldforthis'
p257
aS'thanks really appreciate well deserved take'
p258
asS'2013_33'
p259
(lp260
S'good luck season last years disney spirit award winner longsnapper'
p261
asS'2013_32'
p262
(lp263
S'well depends talking haha'
p264
aS'yeah appreciate'
p265
aS'good back'
p266
asS'2013_31'
p267
(lp268
S'back good cant wait flesh haha'
p269
asS'2013_30'
p270
(lp271
S'seein mase seeeee back next week crush soulstogether forever haha'
p272
aS'days kickoff 2013 season'
p273
aS'thanks ashley good hear form hope continuing kick take names regard'
p274
aS'hahaha yeah know messin cant wait yall specializers'
p275
aS'thank buddy appreciate thats cool hearing future ambition think definitely make happen'
p276
aS'yeah back next week goes planned cant wait launch football right'
p277
aS'memory serves correctly told espys werent good year soooo really miss'
p278
asS'2013_18'
p279
(lp280
S'thanks appreciate'
p281
asS'2013_38'
p282
(lp283
S'proud army spcl forces long snapping ncaa thats highlight'
p284
aS'thank special visit rexstrong hookem'
p285
asS'2013_13'
p286
(lp287
S'glad feel home'
p288
aS'white'
p289
aS'thanks glad board crazy ideas future'
p290
aS'really appreciate guys coming last night event gonna take'
p291
aS'doors open today texas union ballroom come hang colt mccoy bennie wylie quan learn'
p292
aS'longhorn nate boyer talks tuesday event texas union special guest'
p293
asS'2013_15'
p294
(lp295
S'thanks support really appreciate'
p296
asS'2013_14'
p297
(lp298
S'haha thanks actually called handlebar'
p299
aS'congrats fozzy best luck'
p300
aS'yeah know right'
p301
aS'damn straight'
p302
aS'dont worry thank service respect'
p303
aS'infinitehashtags'
p304
aS'suck oldbie'
p305
aS'lady restaurant today distressed soda machine pepper thatswhatimfightingfor freedomaintfree'
p306
as.