(dp0
S'2014_29'
p1
(lp2
S'dedicated mother young children healing ptsd journey added challenges stress lilly hope lucari\xe2\x80\xa6'
p3
aS'support means coming fellow warrior'
p4
aS'enjoyed watching insightful interview thank sharing brave story'
p5
aS'thank manifesting good life grace perfect ways'
p6
aS'unlikely words help stop street harassment'
p7
aS'help preserve childs innocence tips flags childsexualabuse'
p8
aS'beauty broken places'
p9
aS'revisiting ways teach kids means'
p10
aS'cherry blossom lake sakura japan'
p11
aS'sibling abuse childhood affects self esteem identity adulthood'
p12
aS'vatican reeling pope francis admits army 8000 pedophile priests'
p13
aS'viral social media posts like jadapose impact survivors aftermath assault'
p14
asS'2014_28'
p15
(lp16
S'help protect children\xe2\x80\xa6 irreparable damage sexual abuse depending'
p17
aS'stigmafighters looking blog contributors suicideprevention month click details'
p18
aS'must slient silence allows child abuse continue silence abusers currency'
p19
aS'july full moon first fullmoon supermoons 2014 tonight earthsky'
p20
aS'natures perfection palm hand\xe2\x80\xa6 seeds next springs garden'
p21
aS'stand together strongerthan fear violence oppression'
p22
aS'agree love purity message'
p23
aS'need less hackathons apprenticeships less bootcamps classes less rockstars mentors develop'
p24
aS'know childhood sexual abuse occurs someone child knows trusted relationship stranger'
p25
asS'2014_31'
p26
(lp27
S'part afraid need embrace blog'
p28
aS'blooming birthright darkness unexpected catalyst moonflower'
p29
aS'tara incest rape sexual abuse survivor moonflower puyb 99cents'
p30
aS'cookiecutter journey healing moonflower puyb 99cents'
p31
aS'blooming birthright darkness unexpected catalyst moonflower puyb 99cents'
p32
aS'thoughtoftheday'
p33
aS'connect others greater fulfilment thanks graphic'
p34
aS'people think street harassment isnt deal havent heard story'
p35
aS'aware psychiatric blessing curse'
p36
aS'medication nation'
p37
aS'misdiagnosis missed diagnosis part'
p38
aS'emotional state health determines physical mental well perfectemotionalhealth'
p39
aS'thank watching moonflower book trailer'
p40
aS'someone accepts want steven'
p41
aS'thank'
p42
aS'thanks follow favs radiance shines words photos'
p43
aS'read full story'
p44
asS'2014_25'
p45
(lp46
S'chasing embracing shadow'
p47
aS'running helped deal sexual abuse'
p48
aS'thank words survivor words resonate recently released book sharing story'
p49
aS'grace healing like story childhood sexual abuse dont shame'
p50
aS'thank sharing story rape sexual assault survivor struggled many years'
p51
aS'childhood sexual abuse almost destroyed running helped save read'
p52
aS'practice forgiveness important contribution healing world marianne williamson'
p53
aS'love enemies major steppingstone healing sexual assault painful experience'
p54
aS'lowvibrating energy leads poor life choices food partners harmful habits reiki raises'
p55
aS'love hearing ways reiki healing people different ailments'
p56
aS'brave miss world casts bright light rape culture lack justice victims schools discoura\xe2\x80\xa6'
p57
aS'dont like loosely words like cancer rape insomnia depression bipolar ocdaddicted used real'
p58
aS'people throw around words like bipolar rape kind irks theyre serious things people actuall\xe2\x80\xa6'
p59
aS'things joke rape depression eating disorders bipolar cutting killing'
p60
aS'miss sitawa wafula bags malaikaaward activist year award talks rape epilepsy bipolar'
p61
aS'wish people would stop throwing depression rape bipolar sensitive words terms around lightly'
p62
aS'rape ordeal sunday15th illnesses epilepsy bipolar define beautiful powerful woman\xe2\x80\x9d'
p63
aS'book born moonflower memoir healing available rape sexualassault healing help mystory'
p64
asS'2014_27'
p65
(lp66
S'worrying people animals care sends negative energy instead angels surround'
p67
aS'child rape historical minds perpetratorsbut never historical minds victi\xe2\x80\xa6'
p68
aS'fellow survivors testimony'
p69
aS'beautiful thanks sharing'
p70
aS'warrenbuffet hard work reward later'
p71
aS'fellow survivors testimony'
p72
aS'sending reiki healing comfort power know life tiring also joyful'
p73
aS'morning yoga meditation beautiful mindful wishing beauty whatever form speaks'
p74
aS'always believe something wonderful happen'
p75
aS'time favourite quotes'
p76
aS'thanks much affirmation looking forward awesome tweets'
p77
asS'2014_26'
p78
(lp79
S'another study confirms plantbased diets healthy planet'
p80
aS'things seek inside must choose journey living inside findpurpose happytobeme\xe2\x80\xa6'
p81
aS'interesting case study childhoodtrauma memoryrecall 56yrs 17yrs extensive eyebrow raising'
p82
aS'trauma change rearrange change surviving thriving share othe\xe2\x80\xa6'
p83
aS'honoring silence powerful still desiring breakthesilence'
p84
aS'rape survivor suffered ptsd years misdiagnosed mental illnesses instead errors nearly cost life'
p85
aS'veggies lower blood pressure'
p86
aS'love line hold survivors'
p87
aS'loudest quiet you\xe2\x80\x99ll ever hear\xe2\x80\x9d latest post getting great buzz retweet'
p88
aS'thank sharing topic speaks breaking cyclelegacy sexual abuse within family'
p89
aS'post dont know tell daughter explain family history abuse'
p90
aS'never know story touch knowing alone keeps going keep sharing shining light'
p91
asS'2014_43'
p92
(lp93
S'amazoncart kindle time heal abuse conscious awareness rock music'
p94
asS'2014_37'
p95
(lp96
S'french film showing woman feels like kinda nails'
p97
asS'2014_34'
p98
(lp99
S'healing omnipresent opening directions time moonflower puyb 99cents'
p100
aS'couldn\xe2\x80\x99t book moonflower puyb 99cents'
p101
aS'blooming birthright darkness unexpected catalyst moonflower puyb 99cents'
p102
aS'india acid attack survivors pose ground breaking photo shoot gtgtmust read excellent'
p103
aS'couldn\xe2\x80\x99t book moonflower puyb 99cents'
p104
aS'people don\xe2\x80\x99t know survivor moonflower puyb 99cents'
p105
aS'people don\xe2\x80\x99t know survivor moonflower puyb 99cents'
p106
aS'beautiful honest message touched heart thank'
p107
aS'tara incest rape sexual abuse survivor moonflower puyb 99cents'
p108
asS'2014_35'
p109
(lp110
S'heart teacher'
p111
aS'blooming birthright darkness unexpected catalyst moonflower puyb 99cents'
p112
asS'2014_32'
p113
(lp114
S'full moon manifestation meditation'
p115
aS'blooming birthright darkness unexpected catalyst moonflower puyb 99cents'
p116
aS'want great make mistakes'
p117
aS'definite mustread moonflower puyb 99cents'
p118
aS'rapecultureiswhen rapists inside jail cell learn'
p119
aS'book review love came loving family strong personality great book'
p120
aS'moonflower book review'
p121
aS'thanks reading moonflower excerpt following shattered chapter reveals weve traveled similar paths'
p122
aS'whispers grave voice suicide moonflower 99cents'
p123
aS'thank everyone favs appreciate momentum youre adding moonflower book tour'
p124
aS'whispers grave'
p125
aS'blog post publishing journey'
p126
aS'cookiecutter journey healing moonflower puyb 99cents'
p127
aS'childhood sexual abuse family dysfunction moonflower puyb 99cents'
p128
aS'story behind moonflower memoir healing tara edin puyb'
p129
aS'bookreview twelve murder lauren carr murder mayhem mystery keep guessing iartg bynr'
p130
aS'publishing journey'
p131
asS'2014_33'
p132
(lp133
S'blog post even worst fears never keep wilderness'
p134
aS'99cents goes smoother chocolate martini packs punch real murder mystery iartg bynr amenl'
p135
aS'people don\xe2\x80\x99t know survivor moonflower puyb 99cents'
p136
aS'people don\xe2\x80\x99t know survivor moonflower puyb 99cents'
p137
aS'book geek moonflower book spotlight puyb'
p138
aS'cookiecutter journey healing moonflower puyb 99cents'
p139
aS'chat tara edin author moonflower'
p140
aS'blooming birthright darkness unexpected catalyst moonflower puyb 99cents'
p141
aS'definite mustread moonflower puyb 99cents'
p142
aS'conversation tara edin author moonflower memoir healing amreading'
p143
aS'cookiecutter journey healing moonflower puyb 99cents'
p144
aS'angel messages august doreen virtues weekly angel oracle card reading'
p145
asS'2014_30'
p146
(lp147
S'christianity\xe2\x80\x99s religion every state what\xe2\x80\x99s live'
p148
aS'invisible friend\xe2\x80\xa6 intuition'
p149
aS'touch invisible friend\xe2\x80\xa6'
p150
aS'tune special tori performance today 1045 francisco jose'
p151
asS'2014_44'
p152
(lp153
S'beyond words inspirational give spirit boost'
p154
asS'2014_36'
p155
(lp156
S'loving kindness work today everyday going forward belove'
p157
aS'looking forward next chapter release great read another survivors account written place healing'
p158
aS'thank always find reading fellow survivors stories like medicine soul'
p159
aS'thats makes truly embrace uspast includedall special lives'
p160
aS'congratulations book heal heal others'
p161
aS'blog post heart teacher'
p162
as.